;******************************************************************************
;* MSP430 G3 C/C++ Codegen                                              PC v21.6.1.LTS *
;* Date/Time created: Tue Dec 20 14:07:36 2022                                *
;******************************************************************************
	.compiler_opts --abi=eabi --diag_wrap=off --hll_source=on --mem_model:code=large --mem_model:data=large --object_format=elf --silicon_errata=CPU21 --silicon_errata=CPU22 --silicon_errata=CPU23 --silicon_errata=CPU40 --silicon_version=mspx --symdebug:dwarf --symdebug:dwarf_version=3 

$C$DW$CU	.dwtag  DW_TAG_compile_unit
	.dwattr $C$DW$CU, DW_AT_name("../src/start.c")
	.dwattr $C$DW$CU, DW_AT_producer("TI MSP430 G3 C/C++ Codegen PC v21.6.1.LTS Copyright (c) 2003-2018 Texas Instruments Incorporated")
	.dwattr $C$DW$CU, DW_AT_TI_version(0x01)
	.dwattr $C$DW$CU, DW_AT_comp_dir("C:\Users\MCourson\workspace_v11\MZERO_HB50Board\Debug")
$C$DW$1	.dwtag  DW_TAG_variable
	.dwattr $C$DW$1, DW_AT_name("PAOUT_H")
	.dwattr $C$DW$1, DW_AT_TI_symbol_name("PAOUT_H")
	.dwattr $C$DW$1, DW_AT_type(*$C$DW$T$94)
	.dwattr $C$DW$1, DW_AT_declaration
	.dwattr $C$DW$1, DW_AT_external
	.dwattr $C$DW$1, DW_AT_decl_file("C:\ti\ccs1110\ccs\ccs_base\msp430\include\msp430f5438a.h")
	.dwattr $C$DW$1, DW_AT_decl_line(0x45e)
	.dwattr $C$DW$1, DW_AT_decl_column(0x01)

$C$DW$2	.dwtag  DW_TAG_variable
	.dwattr $C$DW$2, DW_AT_name("PBOUT_L")
	.dwattr $C$DW$2, DW_AT_TI_symbol_name("PBOUT_L")
	.dwattr $C$DW$2, DW_AT_type(*$C$DW$T$94)
	.dwattr $C$DW$2, DW_AT_declaration
	.dwattr $C$DW$2, DW_AT_external
	.dwattr $C$DW$2, DW_AT_decl_file("C:\ti\ccs1110\ccs\ccs_base\msp430\include\msp430f5438a.h")
	.dwattr $C$DW$2, DW_AT_decl_line(0x4b7)
	.dwattr $C$DW$2, DW_AT_decl_column(0x01)

$C$DW$3	.dwtag  DW_TAG_variable
	.dwattr $C$DW$3, DW_AT_name("PCOUT_L")
	.dwattr $C$DW$3, DW_AT_TI_symbol_name("PCOUT_L")
	.dwattr $C$DW$3, DW_AT_type(*$C$DW$T$94)
	.dwattr $C$DW$3, DW_AT_declaration
	.dwattr $C$DW$3, DW_AT_external
	.dwattr $C$DW$3, DW_AT_decl_file("C:\ti\ccs1110\ccs\ccs_base\msp430\include\msp430f5438a.h")
	.dwattr $C$DW$3, DW_AT_decl_line(0x4ea)
	.dwattr $C$DW$3, DW_AT_decl_column(0x01)

$C$DW$4	.dwtag  DW_TAG_variable
	.dwattr $C$DW$4, DW_AT_name("PDOUT_H")
	.dwattr $C$DW$4, DW_AT_TI_symbol_name("PDOUT_H")
	.dwattr $C$DW$4, DW_AT_type(*$C$DW$T$94)
	.dwattr $C$DW$4, DW_AT_declaration
	.dwattr $C$DW$4, DW_AT_external
	.dwattr $C$DW$4, DW_AT_decl_file("C:\ti\ccs1110\ccs\ccs_base\msp430\include\msp430f5438a.h")
	.dwattr $C$DW$4, DW_AT_decl_line(0x51e)
	.dwattr $C$DW$4, DW_AT_decl_column(0x01)

$C$DW$5	.dwtag  DW_TAG_variable
	.dwattr $C$DW$5, DW_AT_name("PEOUT_L")
	.dwattr $C$DW$5, DW_AT_TI_symbol_name("PEOUT_L")
	.dwattr $C$DW$5, DW_AT_type(*$C$DW$T$94)
	.dwattr $C$DW$5, DW_AT_declaration
	.dwattr $C$DW$5, DW_AT_external
	.dwattr $C$DW$5, DW_AT_decl_file("C:\ti\ccs1110\ccs\ccs_base\msp430\include\msp430f5438a.h")
	.dwattr $C$DW$5, DW_AT_decl_line(0x550)
	.dwattr $C$DW$5, DW_AT_decl_column(0x01)

$C$DW$6	.dwtag  DW_TAG_variable
	.dwattr $C$DW$6, DW_AT_name("TA0CCR3")
	.dwattr $C$DW$6, DW_AT_TI_symbol_name("TA0CCR3")
	.dwattr $C$DW$6, DW_AT_type(*$C$DW$T$123)
	.dwattr $C$DW$6, DW_AT_declaration
	.dwattr $C$DW$6, DW_AT_external
	.dwattr $C$DW$6, DW_AT_decl_file("C:\ti\ccs1110\ccs\ccs_base\msp430\include\msp430f5438a.h")
	.dwattr $C$DW$6, DW_AT_decl_line(0x943)
	.dwattr $C$DW$6, DW_AT_decl_column(0x01)

$C$DW$7	.dwtag  DW_TAG_variable
	.dwattr $C$DW$7, DW_AT_name("TA0CCR4")
	.dwattr $C$DW$7, DW_AT_TI_symbol_name("TA0CCR4")
	.dwattr $C$DW$7, DW_AT_type(*$C$DW$T$123)
	.dwattr $C$DW$7, DW_AT_declaration
	.dwattr $C$DW$7, DW_AT_external
	.dwattr $C$DW$7, DW_AT_decl_file("C:\ti\ccs1110\ccs\ccs_base\msp430\include\msp430f5438a.h")
	.dwattr $C$DW$7, DW_AT_decl_line(0x944)
	.dwattr $C$DW$7, DW_AT_decl_column(0x01)

$C$DW$8	.dwtag  DW_TAG_variable
	.dwattr $C$DW$8, DW_AT_name("TB0CCR1")
	.dwattr $C$DW$8, DW_AT_TI_symbol_name("TB0CCR1")
	.dwattr $C$DW$8, DW_AT_type(*$C$DW$T$123)
	.dwattr $C$DW$8, DW_AT_declaration
	.dwattr $C$DW$8, DW_AT_external
	.dwattr $C$DW$8, DW_AT_decl_file("C:\ti\ccs1110\ccs\ccs_base\msp430\include\msp430f5438a.h")
	.dwattr $C$DW$8, DW_AT_decl_line(0x9e2)
	.dwattr $C$DW$8, DW_AT_decl_column(0x01)

$C$DW$9	.dwtag  DW_TAG_variable
	.dwattr $C$DW$9, DW_AT_name("TB0CCR2")
	.dwattr $C$DW$9, DW_AT_TI_symbol_name("TB0CCR2")
	.dwattr $C$DW$9, DW_AT_type(*$C$DW$T$123)
	.dwattr $C$DW$9, DW_AT_declaration
	.dwattr $C$DW$9, DW_AT_external
	.dwattr $C$DW$9, DW_AT_decl_file("C:\ti\ccs1110\ccs\ccs_base\msp430\include\msp430f5438a.h")
	.dwattr $C$DW$9, DW_AT_decl_line(0x9e3)
	.dwattr $C$DW$9, DW_AT_decl_column(0x01)

$C$DW$10	.dwtag  DW_TAG_variable
	.dwattr $C$DW$10, DW_AT_name("TB0CCR3")
	.dwattr $C$DW$10, DW_AT_TI_symbol_name("TB0CCR3")
	.dwattr $C$DW$10, DW_AT_type(*$C$DW$T$123)
	.dwattr $C$DW$10, DW_AT_declaration
	.dwattr $C$DW$10, DW_AT_external
	.dwattr $C$DW$10, DW_AT_decl_file("C:\ti\ccs1110\ccs\ccs_base\msp430\include\msp430f5438a.h")
	.dwattr $C$DW$10, DW_AT_decl_line(0x9e4)
	.dwattr $C$DW$10, DW_AT_decl_column(0x01)

$C$DW$11	.dwtag  DW_TAG_variable
	.dwattr $C$DW$11, DW_AT_name("TB0CCR4")
	.dwattr $C$DW$11, DW_AT_TI_symbol_name("TB0CCR4")
	.dwattr $C$DW$11, DW_AT_type(*$C$DW$T$123)
	.dwattr $C$DW$11, DW_AT_declaration
	.dwattr $C$DW$11, DW_AT_external
	.dwattr $C$DW$11, DW_AT_decl_file("C:\ti\ccs1110\ccs\ccs_base\msp430\include\msp430f5438a.h")
	.dwattr $C$DW$11, DW_AT_decl_line(0x9e5)
	.dwattr $C$DW$11, DW_AT_decl_column(0x01)

$C$DW$12	.dwtag  DW_TAG_variable
	.dwattr $C$DW$12, DW_AT_name("TB0CCR6")
	.dwattr $C$DW$12, DW_AT_TI_symbol_name("TB0CCR6")
	.dwattr $C$DW$12, DW_AT_type(*$C$DW$T$123)
	.dwattr $C$DW$12, DW_AT_declaration
	.dwattr $C$DW$12, DW_AT_external
	.dwattr $C$DW$12, DW_AT_decl_file("C:\ti\ccs1110\ccs\ccs_base\msp430\include\msp430f5438a.h")
	.dwattr $C$DW$12, DW_AT_decl_line(0x9e7)
	.dwattr $C$DW$12, DW_AT_decl_column(0x01)

	.global	mode
	.common	mode,2,2
$C$DW$13	.dwtag  DW_TAG_variable
	.dwattr $C$DW$13, DW_AT_name("mode")
	.dwattr $C$DW$13, DW_AT_TI_symbol_name("mode")
	.dwattr $C$DW$13, DW_AT_location[DW_OP_addr mode]
	.dwattr $C$DW$13, DW_AT_type(*$C$DW$T$54)
	.dwattr $C$DW$13, DW_AT_external
	.dwattr $C$DW$13, DW_AT_decl_file("C:/Users/MCourson/workspace_v11/MZERO_HB50Board/include/Main.h")
	.dwattr $C$DW$13, DW_AT_decl_line(0x65)
	.dwattr $C$DW$13, DW_AT_decl_column(0x07)

	.global	FCState
	.common	FCState,2,2
$C$DW$14	.dwtag  DW_TAG_variable
	.dwattr $C$DW$14, DW_AT_name("FCState")
	.dwattr $C$DW$14, DW_AT_TI_symbol_name("FCState")
	.dwattr $C$DW$14, DW_AT_location[DW_OP_addr FCState]
	.dwattr $C$DW$14, DW_AT_type(*$C$DW$T$56)
	.dwattr $C$DW$14, DW_AT_external
	.dwattr $C$DW$14, DW_AT_decl_file("C:/Users/MCourson/workspace_v11/MZERO_HB50Board/include/Main.h")
	.dwattr $C$DW$14, DW_AT_decl_line(0x6d)
	.dwattr $C$DW$14, DW_AT_decl_column(0x0a)

	.global	msgstatus
	.common	msgstatus,2,2
$C$DW$15	.dwtag  DW_TAG_variable
	.dwattr $C$DW$15, DW_AT_name("msgstatus")
	.dwattr $C$DW$15, DW_AT_TI_symbol_name("msgstatus")
	.dwattr $C$DW$15, DW_AT_location[DW_OP_addr msgstatus]
	.dwattr $C$DW$15, DW_AT_type(*$C$DW$T$58)
	.dwattr $C$DW$15, DW_AT_external
	.dwattr $C$DW$15, DW_AT_decl_file("C:/Users/MCourson/workspace_v11/MZERO_HB50Board/include/Main.h")
	.dwattr $C$DW$15, DW_AT_decl_line(0x7c)
	.dwattr $C$DW$15, DW_AT_decl_column(0x0f)

	.global	status
	.common	status,2,2
$C$DW$16	.dwtag  DW_TAG_variable
	.dwattr $C$DW$16, DW_AT_name("status")
	.dwattr $C$DW$16, DW_AT_TI_symbol_name("status")
	.dwattr $C$DW$16, DW_AT_location[DW_OP_addr status]
	.dwattr $C$DW$16, DW_AT_type(*$C$DW$T$60)
	.dwattr $C$DW$16, DW_AT_external
	.dwattr $C$DW$16, DW_AT_decl_file("C:/Users/MCourson/workspace_v11/MZERO_HB50Board/include/Main.h")
	.dwattr $C$DW$16, DW_AT_decl_line(0x83)
	.dwattr $C$DW$16, DW_AT_decl_column(0x0e)

$C$DW$17	.dwtag  DW_TAG_variable
	.dwattr $C$DW$17, DW_AT_name("burner_fuel")
	.dwattr $C$DW$17, DW_AT_TI_symbol_name("burner_fuel")
	.dwattr $C$DW$17, DW_AT_type(*$C$DW$T$24)
	.dwattr $C$DW$17, DW_AT_declaration
	.dwattr $C$DW$17, DW_AT_external
	.dwattr $C$DW$17, DW_AT_decl_file("../src/start.c")
	.dwattr $C$DW$17, DW_AT_decl_line(0x08)
	.dwattr $C$DW$17, DW_AT_decl_column(0x10)

$C$DW$18	.dwtag  DW_TAG_variable
	.dwattr $C$DW$18, DW_AT_name("fm")
	.dwattr $C$DW$18, DW_AT_TI_symbol_name("fm")
	.dwattr $C$DW$18, DW_AT_type(*$C$DW$T$27)
	.dwattr $C$DW$18, DW_AT_declaration
	.dwattr $C$DW$18, DW_AT_external
	.dwattr $C$DW$18, DW_AT_decl_file("../src/start.c")
	.dwattr $C$DW$18, DW_AT_decl_line(0x0a)
	.dwattr $C$DW$18, DW_AT_decl_column(0x11)

$C$DW$19	.dwtag  DW_TAG_variable
	.dwattr $C$DW$19, DW_AT_name("TC2_temp")
	.dwattr $C$DW$19, DW_AT_TI_symbol_name("TC2_temp")
	.dwattr $C$DW$19, DW_AT_type(*$C$DW$T$16)
	.dwattr $C$DW$19, DW_AT_declaration
	.dwattr $C$DW$19, DW_AT_external
	.dwattr $C$DW$19, DW_AT_decl_file("../src/start.c")
	.dwattr $C$DW$19, DW_AT_decl_line(0x0d)
	.dwattr $C$DW$19, DW_AT_decl_column(0x0e)

$C$DW$20	.dwtag  DW_TAG_variable
	.dwattr $C$DW$20, DW_AT_name("TC1_temp")
	.dwattr $C$DW$20, DW_AT_TI_symbol_name("TC1_temp")
	.dwattr $C$DW$20, DW_AT_type(*$C$DW$T$16)
	.dwattr $C$DW$20, DW_AT_declaration
	.dwattr $C$DW$20, DW_AT_external
	.dwattr $C$DW$20, DW_AT_decl_file("../src/start.c")
	.dwattr $C$DW$20, DW_AT_decl_line(0x0e)
	.dwattr $C$DW$20, DW_AT_decl_column(0x0e)

$C$DW$21	.dwtag  DW_TAG_variable
	.dwattr $C$DW$21, DW_AT_name("FC_burner_temp")
	.dwattr $C$DW$21, DW_AT_TI_symbol_name("FC_burner_temp")
	.dwattr $C$DW$21, DW_AT_type(*$C$DW$T$16)
	.dwattr $C$DW$21, DW_AT_declaration
	.dwattr $C$DW$21, DW_AT_external
	.dwattr $C$DW$21, DW_AT_decl_file("../src/start.c")
	.dwattr $C$DW$21, DW_AT_decl_line(0x0f)
	.dwattr $C$DW$21, DW_AT_decl_column(0x0e)

$C$DW$22	.dwtag  DW_TAG_variable
	.dwattr $C$DW$22, DW_AT_name("ambient_temp")
	.dwattr $C$DW$22, DW_AT_TI_symbol_name("ambient_temp")
	.dwattr $C$DW$22, DW_AT_type(*$C$DW$T$16)
	.dwattr $C$DW$22, DW_AT_declaration
	.dwattr $C$DW$22, DW_AT_external
	.dwattr $C$DW$22, DW_AT_decl_file("../src/start.c")
	.dwattr $C$DW$22, DW_AT_decl_line(0x10)
	.dwattr $C$DW$22, DW_AT_decl_column(0x0e)

$C$DW$23	.dwtag  DW_TAG_variable
	.dwattr $C$DW$23, DW_AT_name("FC_volts")
	.dwattr $C$DW$23, DW_AT_TI_symbol_name("FC_volts")
	.dwattr $C$DW$23, DW_AT_type(*$C$DW$T$16)
	.dwattr $C$DW$23, DW_AT_declaration
	.dwattr $C$DW$23, DW_AT_external
	.dwattr $C$DW$23, DW_AT_decl_file("../src/start.c")
	.dwattr $C$DW$23, DW_AT_decl_line(0x11)
	.dwattr $C$DW$23, DW_AT_decl_column(0x0e)

$C$DW$24	.dwtag  DW_TAG_variable
	.dwattr $C$DW$24, DW_AT_name("Output_volts")
	.dwattr $C$DW$24, DW_AT_TI_symbol_name("Output_volts")
	.dwattr $C$DW$24, DW_AT_type(*$C$DW$T$16)
	.dwattr $C$DW$24, DW_AT_declaration
	.dwattr $C$DW$24, DW_AT_external
	.dwattr $C$DW$24, DW_AT_decl_file("../src/start.c")
	.dwattr $C$DW$24, DW_AT_decl_line(0x12)
	.dwattr $C$DW$24, DW_AT_decl_column(0x0e)

$C$DW$25	.dwtag  DW_TAG_variable
	.dwattr $C$DW$25, DW_AT_name("CO_Batt_V")
	.dwattr $C$DW$25, DW_AT_TI_symbol_name("CO_Batt_V")
	.dwattr $C$DW$25, DW_AT_type(*$C$DW$T$16)
	.dwattr $C$DW$25, DW_AT_declaration
	.dwattr $C$DW$25, DW_AT_external
	.dwattr $C$DW$25, DW_AT_decl_file("../src/start.c")
	.dwattr $C$DW$25, DW_AT_decl_line(0x16)
	.dwattr $C$DW$25, DW_AT_decl_column(0x0e)

$C$DW$26	.dwtag  DW_TAG_variable
	.dwattr $C$DW$26, DW_AT_name("FC_Current")
	.dwattr $C$DW$26, DW_AT_TI_symbol_name("FC_Current")
	.dwattr $C$DW$26, DW_AT_type(*$C$DW$T$16)
	.dwattr $C$DW$26, DW_AT_declaration
	.dwattr $C$DW$26, DW_AT_external
	.dwattr $C$DW$26, DW_AT_decl_file("../src/start.c")
	.dwattr $C$DW$26, DW_AT_decl_line(0x17)
	.dwattr $C$DW$26, DW_AT_decl_column(0x0e)

$C$DW$27	.dwtag  DW_TAG_variable
	.dwattr $C$DW$27, DW_AT_name("Tset")
	.dwattr $C$DW$27, DW_AT_TI_symbol_name("Tset")
	.dwattr $C$DW$27, DW_AT_type(*$C$DW$T$48)
	.dwattr $C$DW$27, DW_AT_declaration
	.dwattr $C$DW$27, DW_AT_external
	.dwattr $C$DW$27, DW_AT_decl_file("../src/start.c")
	.dwattr $C$DW$27, DW_AT_decl_line(0x1a)
	.dwattr $C$DW$27, DW_AT_decl_column(0x10)

$C$DW$28	.dwtag  DW_TAG_variable
	.dwattr $C$DW$28, DW_AT_name("load")
	.dwattr $C$DW$28, DW_AT_TI_symbol_name("load")
	.dwattr $C$DW$28, DW_AT_type(*$C$DW$T$24)
	.dwattr $C$DW$28, DW_AT_declaration
	.dwattr $C$DW$28, DW_AT_external
	.dwattr $C$DW$28, DW_AT_decl_file("../src/start.c")
	.dwattr $C$DW$28, DW_AT_decl_line(0x1b)
	.dwattr $C$DW$28, DW_AT_decl_column(0x10)

$C$DW$29	.dwtag  DW_TAG_variable
	.dwattr $C$DW$29, DW_AT_name("main_fuel_flow")
	.dwattr $C$DW$29, DW_AT_TI_symbol_name("main_fuel_flow")
	.dwattr $C$DW$29, DW_AT_type(*$C$DW$T$16)
	.dwattr $C$DW$29, DW_AT_declaration
	.dwattr $C$DW$29, DW_AT_external
	.dwattr $C$DW$29, DW_AT_decl_file("../src/start.c")
	.dwattr $C$DW$29, DW_AT_decl_line(0x1d)
	.dwattr $C$DW$29, DW_AT_decl_column(0x0e)

$C$DW$30	.dwtag  DW_TAG_variable
	.dwattr $C$DW$30, DW_AT_name("fc_run_temp")
	.dwattr $C$DW$30, DW_AT_TI_symbol_name("fc_run_temp")
	.dwattr $C$DW$30, DW_AT_type(*$C$DW$T$48)
	.dwattr $C$DW$30, DW_AT_declaration
	.dwattr $C$DW$30, DW_AT_external
	.dwattr $C$DW$30, DW_AT_decl_file("../src/start.c")
	.dwattr $C$DW$30, DW_AT_decl_line(0x1e)
	.dwattr $C$DW$30, DW_AT_decl_column(0x10)

$C$DW$31	.dwtag  DW_TAG_variable
	.dwattr $C$DW$31, DW_AT_name("error_message")
	.dwattr $C$DW$31, DW_AT_TI_symbol_name("error_message")
	.dwattr $C$DW$31, DW_AT_type(*$C$DW$T$119)
	.dwattr $C$DW$31, DW_AT_declaration
	.dwattr $C$DW$31, DW_AT_external
	.dwattr $C$DW$31, DW_AT_decl_file("../src/start.c")
	.dwattr $C$DW$31, DW_AT_decl_line(0x22)
	.dwattr $C$DW$31, DW_AT_decl_column(0x10)

$C$DW$32	.dwtag  DW_TAG_variable
	.dwattr $C$DW$32, DW_AT_name("FC_Dropout")
	.dwattr $C$DW$32, DW_AT_TI_symbol_name("FC_Dropout")
	.dwattr $C$DW$32, DW_AT_type(*$C$DW$T$48)
	.dwattr $C$DW$32, DW_AT_declaration
	.dwattr $C$DW$32, DW_AT_external
	.dwattr $C$DW$32, DW_AT_decl_file("../src/start.c")
	.dwattr $C$DW$32, DW_AT_decl_line(0x26)
	.dwattr $C$DW$32, DW_AT_decl_column(0x10)

$C$DW$33	.dwtag  DW_TAG_variable
	.dwattr $C$DW$33, DW_AT_name("FC_power")
	.dwattr $C$DW$33, DW_AT_TI_symbol_name("FC_power")
	.dwattr $C$DW$33, DW_AT_type(*$C$DW$T$16)
	.dwattr $C$DW$33, DW_AT_declaration
	.dwattr $C$DW$33, DW_AT_external
	.dwattr $C$DW$33, DW_AT_decl_file("../src/start.c")
	.dwattr $C$DW$33, DW_AT_decl_line(0x27)
	.dwattr $C$DW$33, DW_AT_decl_column(0x0e)

$C$DW$34	.dwtag  DW_TAG_variable
	.dwattr $C$DW$34, DW_AT_name("boost_fuel_flow")
	.dwattr $C$DW$34, DW_AT_TI_symbol_name("boost_fuel_flow")
	.dwattr $C$DW$34, DW_AT_type(*$C$DW$T$16)
	.dwattr $C$DW$34, DW_AT_declaration
	.dwattr $C$DW$34, DW_AT_external
	.dwattr $C$DW$34, DW_AT_decl_file("../src/start.c")
	.dwattr $C$DW$34, DW_AT_decl_line(0x28)
	.dwattr $C$DW$34, DW_AT_decl_column(0x0e)

$C$DW$35	.dwtag  DW_TAG_variable
	.dwattr $C$DW$35, DW_AT_name("Stime")
	.dwattr $C$DW$35, DW_AT_TI_symbol_name("Stime")
	.dwattr $C$DW$35, DW_AT_type(*$C$DW$T$24)
	.dwattr $C$DW$35, DW_AT_declaration
	.dwattr $C$DW$35, DW_AT_external
	.dwattr $C$DW$35, DW_AT_decl_file("../src/start.c")
	.dwattr $C$DW$35, DW_AT_decl_line(0x2e)
	.dwattr $C$DW$35, DW_AT_decl_column(0x10)

$C$DW$36	.dwtag  DW_TAG_variable
	.dwattr $C$DW$36, DW_AT_name("SwapCount")
	.dwattr $C$DW$36, DW_AT_TI_symbol_name("SwapCount")
	.dwattr $C$DW$36, DW_AT_type(*$C$DW$T$24)
	.dwattr $C$DW$36, DW_AT_declaration
	.dwattr $C$DW$36, DW_AT_external
	.dwattr $C$DW$36, DW_AT_decl_file("../src/start.c")
	.dwattr $C$DW$36, DW_AT_decl_line(0x34)
	.dwattr $C$DW$36, DW_AT_decl_column(0x10)

$C$DW$37	.dwtag  DW_TAG_variable
	.dwattr $C$DW$37, DW_AT_name("shutdown_mode")
	.dwattr $C$DW$37, DW_AT_TI_symbol_name("shutdown_mode")
	.dwattr $C$DW$37, DW_AT_type(*$C$DW$T$24)
	.dwattr $C$DW$37, DW_AT_declaration
	.dwattr $C$DW$37, DW_AT_external
	.dwattr $C$DW$37, DW_AT_decl_file("../src/start.c")
	.dwattr $C$DW$37, DW_AT_decl_line(0x3f)
	.dwattr $C$DW$37, DW_AT_decl_column(0x10)

$C$DW$38	.dwtag  DW_TAG_variable
	.dwattr $C$DW$38, DW_AT_name("Warming")
	.dwattr $C$DW$38, DW_AT_TI_symbol_name("Warming")
	.dwattr $C$DW$38, DW_AT_type(*$C$DW$T$24)
	.dwattr $C$DW$38, DW_AT_declaration
	.dwattr $C$DW$38, DW_AT_external
	.dwattr $C$DW$38, DW_AT_decl_file("../src/start.c")
	.dwattr $C$DW$38, DW_AT_decl_line(0x40)
	.dwattr $C$DW$38, DW_AT_decl_column(0x10)

$C$DW$39	.dwtag  DW_TAG_variable
	.dwattr $C$DW$39, DW_AT_name("StartTime")
	.dwattr $C$DW$39, DW_AT_TI_symbol_name("StartTime")
	.dwattr $C$DW$39, DW_AT_type(*$C$DW$T$48)
	.dwattr $C$DW$39, DW_AT_declaration
	.dwattr $C$DW$39, DW_AT_external
	.dwattr $C$DW$39, DW_AT_decl_file("../src/start.c")
	.dwattr $C$DW$39, DW_AT_decl_line(0x42)
	.dwattr $C$DW$39, DW_AT_decl_column(0x10)

$C$DW$40	.dwtag  DW_TAG_variable
	.dwattr $C$DW$40, DW_AT_name("Cold_Temp_Threshold")
	.dwattr $C$DW$40, DW_AT_TI_symbol_name("Cold_Temp_Threshold")
	.dwattr $C$DW$40, DW_AT_type(*$C$DW$T$48)
	.dwattr $C$DW$40, DW_AT_declaration
	.dwattr $C$DW$40, DW_AT_external
	.dwattr $C$DW$40, DW_AT_decl_file("../src/start.c")
	.dwattr $C$DW$40, DW_AT_decl_line(0x43)
	.dwattr $C$DW$40, DW_AT_decl_column(0x10)

$C$DW$41	.dwtag  DW_TAG_variable
	.dwattr $C$DW$41, DW_AT_name("FP_Heating_Timer")
	.dwattr $C$DW$41, DW_AT_TI_symbol_name("FP_Heating_Timer")
	.dwattr $C$DW$41, DW_AT_type(*$C$DW$T$48)
	.dwattr $C$DW$41, DW_AT_declaration
	.dwattr $C$DW$41, DW_AT_external
	.dwattr $C$DW$41, DW_AT_decl_file("../src/start.c")
	.dwattr $C$DW$41, DW_AT_decl_line(0x44)
	.dwattr $C$DW$41, DW_AT_decl_column(0x10)

$C$DW$42	.dwtag  DW_TAG_variable
	.dwattr $C$DW$42, DW_AT_name("CycleFlag")
	.dwattr $C$DW$42, DW_AT_TI_symbol_name("CycleFlag")
	.dwattr $C$DW$42, DW_AT_type(*$C$DW$T$48)
	.dwattr $C$DW$42, DW_AT_declaration
	.dwattr $C$DW$42, DW_AT_external
	.dwattr $C$DW$42, DW_AT_decl_file("../src/start.c")
	.dwattr $C$DW$42, DW_AT_decl_line(0x45)
	.dwattr $C$DW$42, DW_AT_decl_column(0x10)

$C$DW$43	.dwtag  DW_TAG_variable
	.dwattr $C$DW$43, DW_AT_name("main_fuel_flow_GUI")
	.dwattr $C$DW$43, DW_AT_TI_symbol_name("main_fuel_flow_GUI")
	.dwattr $C$DW$43, DW_AT_type(*$C$DW$T$48)
	.dwattr $C$DW$43, DW_AT_declaration
	.dwattr $C$DW$43, DW_AT_external
	.dwattr $C$DW$43, DW_AT_decl_file("../src/start.c")
	.dwattr $C$DW$43, DW_AT_decl_line(0x46)
	.dwattr $C$DW$43, DW_AT_decl_column(0x10)

$C$DW$44	.dwtag  DW_TAG_variable
	.dwattr $C$DW$44, DW_AT_name("FC_Burner_Methanol_flow_GUI")
	.dwattr $C$DW$44, DW_AT_TI_symbol_name("FC_Burner_Methanol_flow_GUI")
	.dwattr $C$DW$44, DW_AT_type(*$C$DW$T$48)
	.dwattr $C$DW$44, DW_AT_declaration
	.dwattr $C$DW$44, DW_AT_external
	.dwattr $C$DW$44, DW_AT_decl_file("../src/start.c")
	.dwattr $C$DW$44, DW_AT_decl_line(0x47)
	.dwattr $C$DW$44, DW_AT_decl_column(0x10)

$C$DW$45	.dwtag  DW_TAG_variable
	.dwattr $C$DW$45, DW_AT_name("fc_run_temp_GUI")
	.dwattr $C$DW$45, DW_AT_TI_symbol_name("fc_run_temp_GUI")
	.dwattr $C$DW$45, DW_AT_type(*$C$DW$T$48)
	.dwattr $C$DW$45, DW_AT_declaration
	.dwattr $C$DW$45, DW_AT_external
	.dwattr $C$DW$45, DW_AT_decl_file("../src/start.c")
	.dwattr $C$DW$45, DW_AT_decl_line(0x48)
	.dwattr $C$DW$45, DW_AT_decl_column(0x10)

$C$DW$46	.dwtag  DW_TAG_variable
	.dwattr $C$DW$46, DW_AT_name("OutputV_Setpoint")
	.dwattr $C$DW$46, DW_AT_TI_symbol_name("OutputV_Setpoint")
	.dwattr $C$DW$46, DW_AT_type(*$C$DW$T$16)
	.dwattr $C$DW$46, DW_AT_declaration
	.dwattr $C$DW$46, DW_AT_external
	.dwattr $C$DW$46, DW_AT_decl_file("../src/start.c")
	.dwattr $C$DW$46, DW_AT_decl_line(0x4a)
	.dwattr $C$DW$46, DW_AT_decl_column(0x0e)

$C$DW$47	.dwtag  DW_TAG_variable
	.dwattr $C$DW$47, DW_AT_name("FP_Methanol_flow")
	.dwattr $C$DW$47, DW_AT_TI_symbol_name("FP_Methanol_flow")
	.dwattr $C$DW$47, DW_AT_type(*$C$DW$T$16)
	.dwattr $C$DW$47, DW_AT_declaration
	.dwattr $C$DW$47, DW_AT_external
	.dwattr $C$DW$47, DW_AT_decl_file("../src/start.c")
	.dwattr $C$DW$47, DW_AT_decl_line(0x4b)
	.dwattr $C$DW$47, DW_AT_decl_column(0x0e)

$C$DW$48	.dwtag  DW_TAG_variable
	.dwattr $C$DW$48, DW_AT_name("FP_Water_flow")
	.dwattr $C$DW$48, DW_AT_TI_symbol_name("FP_Water_flow")
	.dwattr $C$DW$48, DW_AT_type(*$C$DW$T$16)
	.dwattr $C$DW$48, DW_AT_declaration
	.dwattr $C$DW$48, DW_AT_external
	.dwattr $C$DW$48, DW_AT_decl_file("../src/start.c")
	.dwattr $C$DW$48, DW_AT_decl_line(0x4c)
	.dwattr $C$DW$48, DW_AT_decl_column(0x0e)

	.global	air
	.common	air,4,2
$C$DW$49	.dwtag  DW_TAG_variable
	.dwattr $C$DW$49, DW_AT_name("air")
	.dwattr $C$DW$49, DW_AT_TI_symbol_name("air")
	.dwattr $C$DW$49, DW_AT_location[DW_OP_addr air]
	.dwattr $C$DW$49, DW_AT_type(*$C$DW$T$16)
	.dwattr $C$DW$49, DW_AT_external
	.dwattr $C$DW$49, DW_AT_decl_file("../src/start.c")
	.dwattr $C$DW$49, DW_AT_decl_line(0x50)
	.dwattr $C$DW$49, DW_AT_decl_column(0x07)

	.global	on_delay
	.common	on_delay,2,2
$C$DW$50	.dwtag  DW_TAG_variable
	.dwattr $C$DW$50, DW_AT_name("on_delay")
	.dwattr $C$DW$50, DW_AT_TI_symbol_name("on_delay")
	.dwattr $C$DW$50, DW_AT_location[DW_OP_addr on_delay]
	.dwattr $C$DW$50, DW_AT_type(*$C$DW$T$48)
	.dwattr $C$DW$50, DW_AT_external
	.dwattr $C$DW$50, DW_AT_decl_file("../src/start.c")
	.dwattr $C$DW$50, DW_AT_decl_line(0x52)
	.dwattr $C$DW$50, DW_AT_decl_column(0x09)

	.global	heat_counter
	.common	heat_counter,4,2
$C$DW$51	.dwtag  DW_TAG_variable
	.dwattr $C$DW$51, DW_AT_name("heat_counter")
	.dwattr $C$DW$51, DW_AT_TI_symbol_name("heat_counter")
	.dwattr $C$DW$51, DW_AT_location[DW_OP_addr heat_counter]
	.dwattr $C$DW$51, DW_AT_type(*$C$DW$T$13)
	.dwattr $C$DW$51, DW_AT_external
	.dwattr $C$DW$51, DW_AT_decl_file("../src/start.c")
	.dwattr $C$DW$51, DW_AT_decl_line(0x53)
	.dwattr $C$DW$51, DW_AT_decl_column(0x0f)

	.global	burner_flag
	.common	burner_flag,1,1
$C$DW$52	.dwtag  DW_TAG_variable
	.dwattr $C$DW$52, DW_AT_name("burner_flag")
	.dwattr $C$DW$52, DW_AT_TI_symbol_name("burner_flag")
	.dwattr $C$DW$52, DW_AT_location[DW_OP_addr burner_flag]
	.dwattr $C$DW$52, DW_AT_type(*$C$DW$T$24)
	.dwattr $C$DW$52, DW_AT_external
	.dwattr $C$DW$52, DW_AT_decl_file("../src/start.c")
	.dwattr $C$DW$52, DW_AT_decl_line(0x54)
	.dwattr $C$DW$52, DW_AT_decl_column(0x09)

	.global	Start_temp
	.common	Start_temp,1,1
$C$DW$53	.dwtag  DW_TAG_variable
	.dwattr $C$DW$53, DW_AT_name("Start_temp")
	.dwattr $C$DW$53, DW_AT_TI_symbol_name("Start_temp")
	.dwattr $C$DW$53, DW_AT_location[DW_OP_addr Start_temp]
	.dwattr $C$DW$53, DW_AT_type(*$C$DW$T$24)
	.dwattr $C$DW$53, DW_AT_external
	.dwattr $C$DW$53, DW_AT_decl_file("../src/start.c")
	.dwattr $C$DW$53, DW_AT_decl_line(0x55)
	.dwattr $C$DW$53, DW_AT_decl_column(0x09)

	.global	FPT_ME_Slip_setpoint
	.data
	.align	2
	.elfsym	FPT_ME_Slip_setpoint,SYM_SIZE(2)
FPT_ME_Slip_setpoint:
	.bits		0xc3,16
			; FPT_ME_Slip_setpoint @ 0

$C$DW$54	.dwtag  DW_TAG_variable
	.dwattr $C$DW$54, DW_AT_name("FPT_ME_Slip_setpoint")
	.dwattr $C$DW$54, DW_AT_TI_symbol_name("FPT_ME_Slip_setpoint")
	.dwattr $C$DW$54, DW_AT_location[DW_OP_addr FPT_ME_Slip_setpoint]
	.dwattr $C$DW$54, DW_AT_type(*$C$DW$T$48)
	.dwattr $C$DW$54, DW_AT_external
	.dwattr $C$DW$54, DW_AT_decl_file("../src/start.c")
	.dwattr $C$DW$54, DW_AT_decl_line(0x56)
	.dwattr $C$DW$54, DW_AT_decl_column(0x09)

$C$DW$55	.dwtag  DW_TAG_variable
	.dwattr $C$DW$55, DW_AT_name("FC_Burner_Methanol_flow")
	.dwattr $C$DW$55, DW_AT_TI_symbol_name("FC_Burner_Methanol_flow")
	.dwattr $C$DW$55, DW_AT_type(*$C$DW$T$16)
	.dwattr $C$DW$55, DW_AT_declaration
	.dwattr $C$DW$55, DW_AT_external
	.dwattr $C$DW$55, DW_AT_decl_file("../src/start.c")
	.dwattr $C$DW$55, DW_AT_decl_line(0x59)
	.dwattr $C$DW$55, DW_AT_decl_column(0x0e)

$C$DW$56	.dwtag  DW_TAG_variable
	.dwattr $C$DW$56, DW_AT_name("FC_R")
	.dwattr $C$DW$56, DW_AT_TI_symbol_name("FC_R")
	.dwattr $C$DW$56, DW_AT_type(*$C$DW$T$16)
	.dwattr $C$DW$56, DW_AT_declaration
	.dwattr $C$DW$56, DW_AT_external
	.dwattr $C$DW$56, DW_AT_decl_file("../src/start.c")
	.dwattr $C$DW$56, DW_AT_decl_line(0x5f)
	.dwattr $C$DW$56, DW_AT_decl_column(0x0e)

$C$DW$57	.dwtag  DW_TAG_variable
	.dwattr $C$DW$57, DW_AT_name("FC_Burner_air")
	.dwattr $C$DW$57, DW_AT_TI_symbol_name("FC_Burner_air")
	.dwattr $C$DW$57, DW_AT_type(*$C$DW$T$16)
	.dwattr $C$DW$57, DW_AT_declaration
	.dwattr $C$DW$57, DW_AT_external
	.dwattr $C$DW$57, DW_AT_decl_file("../src/start.c")
	.dwattr $C$DW$57, DW_AT_decl_line(0x64)
	.dwattr $C$DW$57, DW_AT_decl_column(0x0e)

	.global	pid
	.common	pid,1,1
$C$DW$58	.dwtag  DW_TAG_variable
	.dwattr $C$DW$58, DW_AT_name("pid")
	.dwattr $C$DW$58, DW_AT_TI_symbol_name("pid")
	.dwattr $C$DW$58, DW_AT_location[DW_OP_addr pid]
	.dwattr $C$DW$58, DW_AT_type(*$C$DW$T$24)
	.dwattr $C$DW$58, DW_AT_external
	.dwattr $C$DW$58, DW_AT_decl_file("../src/start.c")
	.dwattr $C$DW$58, DW_AT_decl_line(0x66)
	.dwattr $C$DW$58, DW_AT_decl_column(0x09)

	.global	FP_Heating
	.data
	.align	1
	.elfsym	FP_Heating,SYM_SIZE(1)
FP_Heating:
	.bits		0,8
			; FP_Heating @ 0

$C$DW$59	.dwtag  DW_TAG_variable
	.dwattr $C$DW$59, DW_AT_name("FP_Heating")
	.dwattr $C$DW$59, DW_AT_TI_symbol_name("FP_Heating")
	.dwattr $C$DW$59, DW_AT_location[DW_OP_addr FP_Heating]
	.dwattr $C$DW$59, DW_AT_type(*$C$DW$T$24)
	.dwattr $C$DW$59, DW_AT_external
	.dwattr $C$DW$59, DW_AT_decl_file("../src/start.c")
	.dwattr $C$DW$59, DW_AT_decl_line(0x67)
	.dwattr $C$DW$59, DW_AT_decl_column(0x09)

	.global	FP_Burner_Ignite_Failure
	.common	FP_Burner_Ignite_Failure,1,1
$C$DW$60	.dwtag  DW_TAG_variable
	.dwattr $C$DW$60, DW_AT_name("FP_Burner_Ignite_Failure")
	.dwattr $C$DW$60, DW_AT_TI_symbol_name("FP_Burner_Ignite_Failure")
	.dwattr $C$DW$60, DW_AT_location[DW_OP_addr FP_Burner_Ignite_Failure]
	.dwattr $C$DW$60, DW_AT_type(*$C$DW$T$24)
	.dwattr $C$DW$60, DW_AT_external
	.dwattr $C$DW$60, DW_AT_decl_file("../src/start.c")
	.dwattr $C$DW$60, DW_AT_decl_line(0x68)
	.dwattr $C$DW$60, DW_AT_decl_column(0x09)

	.global	FC_Burner_Ignite_Failure
	.common	FC_Burner_Ignite_Failure,1,1
$C$DW$61	.dwtag  DW_TAG_variable
	.dwattr $C$DW$61, DW_AT_name("FC_Burner_Ignite_Failure")
	.dwattr $C$DW$61, DW_AT_TI_symbol_name("FC_Burner_Ignite_Failure")
	.dwattr $C$DW$61, DW_AT_location[DW_OP_addr FC_Burner_Ignite_Failure]
	.dwattr $C$DW$61, DW_AT_type(*$C$DW$T$24)
	.dwattr $C$DW$61, DW_AT_external
	.dwattr $C$DW$61, DW_AT_decl_file("../src/start.c")
	.dwattr $C$DW$61, DW_AT_decl_line(0x69)
	.dwattr $C$DW$61, DW_AT_decl_column(0x09)

	.global	FC_At_Temp
	.common	FC_At_Temp,1,1
$C$DW$62	.dwtag  DW_TAG_variable
	.dwattr $C$DW$62, DW_AT_name("FC_At_Temp")
	.dwattr $C$DW$62, DW_AT_TI_symbol_name("FC_At_Temp")
	.dwattr $C$DW$62, DW_AT_location[DW_OP_addr FC_At_Temp]
	.dwattr $C$DW$62, DW_AT_type(*$C$DW$T$24)
	.dwattr $C$DW$62, DW_AT_external
	.dwattr $C$DW$62, DW_AT_decl_file("../src/start.c")
	.dwattr $C$DW$62, DW_AT_decl_line(0x6a)
	.dwattr $C$DW$62, DW_AT_decl_column(0x09)

	.global	FC_Burner_On
	.data
	.align	1
	.elfsym	FC_Burner_On,SYM_SIZE(1)
FC_Burner_On:
	.bits		0,8
			; FC_Burner_On @ 0

$C$DW$63	.dwtag  DW_TAG_variable
	.dwattr $C$DW$63, DW_AT_name("FC_Burner_On")
	.dwattr $C$DW$63, DW_AT_TI_symbol_name("FC_Burner_On")
	.dwattr $C$DW$63, DW_AT_location[DW_OP_addr FC_Burner_On]
	.dwattr $C$DW$63, DW_AT_type(*$C$DW$T$24)
	.dwattr $C$DW$63, DW_AT_external
	.dwattr $C$DW$63, DW_AT_decl_file("../src/start.c")
	.dwattr $C$DW$63, DW_AT_decl_line(0x6b)
	.dwattr $C$DW$63, DW_AT_decl_column(0x09)

	.global	Cold_Heater
	.common	Cold_Heater,2,2
$C$DW$64	.dwtag  DW_TAG_variable
	.dwattr $C$DW$64, DW_AT_name("Cold_Heater")
	.dwattr $C$DW$64, DW_AT_TI_symbol_name("Cold_Heater")
	.dwattr $C$DW$64, DW_AT_location[DW_OP_addr Cold_Heater]
	.dwattr $C$DW$64, DW_AT_type(*$C$DW$T$27)
	.dwattr $C$DW$64, DW_AT_external
	.dwattr $C$DW$64, DW_AT_decl_file("../src/start.c")
	.dwattr $C$DW$64, DW_AT_decl_line(0x6d)
	.dwattr $C$DW$64, DW_AT_decl_column(0x0a)

	.global	iniStT
	.common	iniStT,2,2
$C$DW$65	.dwtag  DW_TAG_variable
	.dwattr $C$DW$65, DW_AT_name("iniStT")
	.dwattr $C$DW$65, DW_AT_TI_symbol_name("iniStT")
	.dwattr $C$DW$65, DW_AT_location[DW_OP_addr iniStT]
	.dwattr $C$DW$65, DW_AT_type(*$C$DW$T$48)
	.dwattr $C$DW$65, DW_AT_external
	.dwattr $C$DW$65, DW_AT_decl_file("../src/start.c")
	.dwattr $C$DW$65, DW_AT_decl_line(0x6f)
	.dwattr $C$DW$65, DW_AT_decl_column(0x09)

	.global	aircnt
	.common	aircnt,2,2
$C$DW$66	.dwtag  DW_TAG_variable
	.dwattr $C$DW$66, DW_AT_name("aircnt")
	.dwattr $C$DW$66, DW_AT_TI_symbol_name("aircnt")
	.dwattr $C$DW$66, DW_AT_location[DW_OP_addr aircnt]
	.dwattr $C$DW$66, DW_AT_type(*$C$DW$T$48)
	.dwattr $C$DW$66, DW_AT_external
	.dwattr $C$DW$66, DW_AT_decl_file("../src/start.c")
	.dwattr $C$DW$66, DW_AT_decl_line(0x70)
	.dwattr $C$DW$66, DW_AT_decl_column(0x09)

	.global	Pump_Startup
	.common	Pump_Startup,2,2
$C$DW$67	.dwtag  DW_TAG_variable
	.dwattr $C$DW$67, DW_AT_name("Pump_Startup")
	.dwattr $C$DW$67, DW_AT_TI_symbol_name("Pump_Startup")
	.dwattr $C$DW$67, DW_AT_location[DW_OP_addr Pump_Startup]
	.dwattr $C$DW$67, DW_AT_type(*$C$DW$T$48)
	.dwattr $C$DW$67, DW_AT_external
	.dwattr $C$DW$67, DW_AT_decl_file("../src/start.c")
	.dwattr $C$DW$67, DW_AT_decl_line(0x71)
	.dwattr $C$DW$67, DW_AT_decl_column(0x09)

	.global	entered_burner_flag_6_timer
	.data
	.align	2
	.elfsym	entered_burner_flag_6_timer,SYM_SIZE(2)
entered_burner_flag_6_timer:
	.bits		0,16
			; entered_burner_flag_6_timer @ 0

$C$DW$68	.dwtag  DW_TAG_variable
	.dwattr $C$DW$68, DW_AT_name("entered_burner_flag_6_timer")
	.dwattr $C$DW$68, DW_AT_TI_symbol_name("entered_burner_flag_6_timer")
	.dwattr $C$DW$68, DW_AT_location[DW_OP_addr entered_burner_flag_6_timer]
	.dwattr $C$DW$68, DW_AT_type(*$C$DW$T$48)
	.dwattr $C$DW$68, DW_AT_external
	.dwattr $C$DW$68, DW_AT_decl_file("../src/start.c")
	.dwattr $C$DW$68, DW_AT_decl_line(0x72)
	.dwattr $C$DW$68, DW_AT_decl_column(0x09)

	.global	Pump_Off_Counter
	.common	Pump_Off_Counter,2,2
$C$DW$69	.dwtag  DW_TAG_variable
	.dwattr $C$DW$69, DW_AT_name("Pump_Off_Counter")
	.dwattr $C$DW$69, DW_AT_TI_symbol_name("Pump_Off_Counter")
	.dwattr $C$DW$69, DW_AT_location[DW_OP_addr Pump_Off_Counter]
	.dwattr $C$DW$69, DW_AT_type(*$C$DW$T$48)
	.dwattr $C$DW$69, DW_AT_external
	.dwattr $C$DW$69, DW_AT_decl_file("../src/start.c")
	.dwattr $C$DW$69, DW_AT_decl_line(0x73)
	.dwattr $C$DW$69, DW_AT_decl_column(0x09)

	.global	fff
	.common	fff,2,2
$C$DW$70	.dwtag  DW_TAG_variable
	.dwattr $C$DW$70, DW_AT_name("fff")
	.dwattr $C$DW$70, DW_AT_TI_symbol_name("fff")
	.dwattr $C$DW$70, DW_AT_location[DW_OP_addr fff]
	.dwattr $C$DW$70, DW_AT_type(*$C$DW$T$48)
	.dwattr $C$DW$70, DW_AT_external
	.dwattr $C$DW$70, DW_AT_decl_file("../src/start.c")
	.dwattr $C$DW$70, DW_AT_decl_line(0x74)
	.dwattr $C$DW$70, DW_AT_decl_column(0x09)

	.global	FP_Burner_Ignite_Failure_timer
	.common	FP_Burner_Ignite_Failure_timer,2,2
$C$DW$71	.dwtag  DW_TAG_variable
	.dwattr $C$DW$71, DW_AT_name("FP_Burner_Ignite_Failure_timer")
	.dwattr $C$DW$71, DW_AT_TI_symbol_name("FP_Burner_Ignite_Failure_timer")
	.dwattr $C$DW$71, DW_AT_location[DW_OP_addr FP_Burner_Ignite_Failure_timer]
	.dwattr $C$DW$71, DW_AT_type(*$C$DW$T$48)
	.dwattr $C$DW$71, DW_AT_external
	.dwattr $C$DW$71, DW_AT_decl_file("../src/start.c")
	.dwattr $C$DW$71, DW_AT_decl_line(0x75)
	.dwattr $C$DW$71, DW_AT_decl_column(0x09)

	.global	FC_Burner_Ignite_Failure_timer
	.common	FC_Burner_Ignite_Failure_timer,2,2
$C$DW$72	.dwtag  DW_TAG_variable
	.dwattr $C$DW$72, DW_AT_name("FC_Burner_Ignite_Failure_timer")
	.dwattr $C$DW$72, DW_AT_TI_symbol_name("FC_Burner_Ignite_Failure_timer")
	.dwattr $C$DW$72, DW_AT_location[DW_OP_addr FC_Burner_Ignite_Failure_timer]
	.dwattr $C$DW$72, DW_AT_type(*$C$DW$T$48)
	.dwattr $C$DW$72, DW_AT_external
	.dwattr $C$DW$72, DW_AT_decl_file("../src/start.c")
	.dwattr $C$DW$72, DW_AT_decl_line(0x76)
	.dwattr $C$DW$72, DW_AT_decl_column(0x09)

	.global	TC2err
	.common	TC2err,4,2
$C$DW$73	.dwtag  DW_TAG_variable
	.dwattr $C$DW$73, DW_AT_name("TC2err")
	.dwattr $C$DW$73, DW_AT_TI_symbol_name("TC2err")
	.dwattr $C$DW$73, DW_AT_location[DW_OP_addr TC2err]
	.dwattr $C$DW$73, DW_AT_type(*$C$DW$T$16)
	.dwattr $C$DW$73, DW_AT_external
	.dwattr $C$DW$73, DW_AT_decl_file("../src/start.c")
	.dwattr $C$DW$73, DW_AT_decl_line(0x78)
	.dwattr $C$DW$73, DW_AT_decl_column(0x07)

	.global	TC2err1
	.common	TC2err1,4,2
$C$DW$74	.dwtag  DW_TAG_variable
	.dwattr $C$DW$74, DW_AT_name("TC2err1")
	.dwattr $C$DW$74, DW_AT_TI_symbol_name("TC2err1")
	.dwattr $C$DW$74, DW_AT_location[DW_OP_addr TC2err1]
	.dwattr $C$DW$74, DW_AT_type(*$C$DW$T$16)
	.dwattr $C$DW$74, DW_AT_external
	.dwattr $C$DW$74, DW_AT_decl_file("../src/start.c")
	.dwattr $C$DW$74, DW_AT_decl_line(0x78)
	.dwattr $C$DW$74, DW_AT_decl_column(0x0f)

	.global	TC2err2
	.common	TC2err2,4,2
$C$DW$75	.dwtag  DW_TAG_variable
	.dwattr $C$DW$75, DW_AT_name("TC2err2")
	.dwattr $C$DW$75, DW_AT_TI_symbol_name("TC2err2")
	.dwattr $C$DW$75, DW_AT_location[DW_OP_addr TC2err2]
	.dwattr $C$DW$75, DW_AT_type(*$C$DW$T$16)
	.dwattr $C$DW$75, DW_AT_external
	.dwattr $C$DW$75, DW_AT_decl_file("../src/start.c")
	.dwattr $C$DW$75, DW_AT_decl_line(0x78)
	.dwattr $C$DW$75, DW_AT_decl_column(0x18)

	.global	pterm
	.common	pterm,4,2
$C$DW$76	.dwtag  DW_TAG_variable
	.dwattr $C$DW$76, DW_AT_name("pterm")
	.dwattr $C$DW$76, DW_AT_TI_symbol_name("pterm")
	.dwattr $C$DW$76, DW_AT_location[DW_OP_addr pterm]
	.dwattr $C$DW$76, DW_AT_type(*$C$DW$T$16)
	.dwattr $C$DW$76, DW_AT_external
	.dwattr $C$DW$76, DW_AT_decl_file("../src/start.c")
	.dwattr $C$DW$76, DW_AT_decl_line(0x79)
	.dwattr $C$DW$76, DW_AT_decl_column(0x07)

	.global	iterm
	.common	iterm,4,2
$C$DW$77	.dwtag  DW_TAG_variable
	.dwattr $C$DW$77, DW_AT_name("iterm")
	.dwattr $C$DW$77, DW_AT_TI_symbol_name("iterm")
	.dwattr $C$DW$77, DW_AT_location[DW_OP_addr iterm]
	.dwattr $C$DW$77, DW_AT_type(*$C$DW$T$16)
	.dwattr $C$DW$77, DW_AT_external
	.dwattr $C$DW$77, DW_AT_decl_file("../src/start.c")
	.dwattr $C$DW$77, DW_AT_decl_line(0x79)
	.dwattr $C$DW$77, DW_AT_decl_column(0x0d)

	.global	dterm
	.common	dterm,4,2
$C$DW$78	.dwtag  DW_TAG_variable
	.dwattr $C$DW$78, DW_AT_name("dterm")
	.dwattr $C$DW$78, DW_AT_TI_symbol_name("dterm")
	.dwattr $C$DW$78, DW_AT_location[DW_OP_addr dterm]
	.dwattr $C$DW$78, DW_AT_type(*$C$DW$T$16)
	.dwattr $C$DW$78, DW_AT_external
	.dwattr $C$DW$78, DW_AT_decl_file("../src/start.c")
	.dwattr $C$DW$78, DW_AT_decl_line(0x79)
	.dwattr $C$DW$78, DW_AT_decl_column(0x13)

	.global	Kp
	.common	Kp,4,2
$C$DW$79	.dwtag  DW_TAG_variable
	.dwattr $C$DW$79, DW_AT_name("Kp")
	.dwattr $C$DW$79, DW_AT_TI_symbol_name("Kp")
	.dwattr $C$DW$79, DW_AT_location[DW_OP_addr Kp]
	.dwattr $C$DW$79, DW_AT_type(*$C$DW$T$16)
	.dwattr $C$DW$79, DW_AT_external
	.dwattr $C$DW$79, DW_AT_decl_file("../src/start.c")
	.dwattr $C$DW$79, DW_AT_decl_line(0x7a)
	.dwattr $C$DW$79, DW_AT_decl_column(0x07)

	.global	Ki
	.common	Ki,4,2
$C$DW$80	.dwtag  DW_TAG_variable
	.dwattr $C$DW$80, DW_AT_name("Ki")
	.dwattr $C$DW$80, DW_AT_TI_symbol_name("Ki")
	.dwattr $C$DW$80, DW_AT_location[DW_OP_addr Ki]
	.dwattr $C$DW$80, DW_AT_type(*$C$DW$T$16)
	.dwattr $C$DW$80, DW_AT_external
	.dwattr $C$DW$80, DW_AT_decl_file("../src/start.c")
	.dwattr $C$DW$80, DW_AT_decl_line(0x7a)
	.dwattr $C$DW$80, DW_AT_decl_column(0x0a)

	.global	Kd
	.common	Kd,4,2
$C$DW$81	.dwtag  DW_TAG_variable
	.dwattr $C$DW$81, DW_AT_name("Kd")
	.dwattr $C$DW$81, DW_AT_TI_symbol_name("Kd")
	.dwattr $C$DW$81, DW_AT_location[DW_OP_addr Kd]
	.dwattr $C$DW$81, DW_AT_type(*$C$DW$T$16)
	.dwattr $C$DW$81, DW_AT_external
	.dwattr $C$DW$81, DW_AT_decl_file("../src/start.c")
	.dwattr $C$DW$81, DW_AT_decl_line(0x7a)
	.dwattr $C$DW$81, DW_AT_decl_column(0x0d)

	.global	TC1_bf2_bf3
	.common	TC1_bf2_bf3,4,2
$C$DW$82	.dwtag  DW_TAG_variable
	.dwattr $C$DW$82, DW_AT_name("TC1_bf2_bf3")
	.dwattr $C$DW$82, DW_AT_TI_symbol_name("TC1_bf2_bf3")
	.dwattr $C$DW$82, DW_AT_location[DW_OP_addr TC1_bf2_bf3]
	.dwattr $C$DW$82, DW_AT_type(*$C$DW$T$16)
	.dwattr $C$DW$82, DW_AT_external
	.dwattr $C$DW$82, DW_AT_decl_file("../src/start.c")
	.dwattr $C$DW$82, DW_AT_decl_line(0x7b)
	.dwattr $C$DW$82, DW_AT_decl_column(0x07)

	.global	maxPIDair
	.common	maxPIDair,4,2
$C$DW$83	.dwtag  DW_TAG_variable
	.dwattr $C$DW$83, DW_AT_name("maxPIDair")
	.dwattr $C$DW$83, DW_AT_TI_symbol_name("maxPIDair")
	.dwattr $C$DW$83, DW_AT_location[DW_OP_addr maxPIDair]
	.dwattr $C$DW$83, DW_AT_type(*$C$DW$T$16)
	.dwattr $C$DW$83, DW_AT_external
	.dwattr $C$DW$83, DW_AT_decl_file("../src/start.c")
	.dwattr $C$DW$83, DW_AT_decl_line(0x7c)
	.dwattr $C$DW$83, DW_AT_decl_column(0x07)

	.global	FC_Current_old
	.common	FC_Current_old,4,2
$C$DW$84	.dwtag  DW_TAG_variable
	.dwattr $C$DW$84, DW_AT_name("FC_Current_old")
	.dwattr $C$DW$84, DW_AT_TI_symbol_name("FC_Current_old")
	.dwattr $C$DW$84, DW_AT_location[DW_OP_addr FC_Current_old]
	.dwattr $C$DW$84, DW_AT_type(*$C$DW$T$16)
	.dwattr $C$DW$84, DW_AT_external
	.dwattr $C$DW$84, DW_AT_decl_file("../src/start.c")
	.dwattr $C$DW$84, DW_AT_decl_line(0x7d)
	.dwattr $C$DW$84, DW_AT_decl_column(0x07)

	.global	fcvt
	.common	fcvt,4,2
$C$DW$85	.dwtag  DW_TAG_variable
	.dwattr $C$DW$85, DW_AT_name("fcvt")
	.dwattr $C$DW$85, DW_AT_TI_symbol_name("fcvt")
	.dwattr $C$DW$85, DW_AT_location[DW_OP_addr fcvt]
	.dwattr $C$DW$85, DW_AT_type(*$C$DW$T$16)
	.dwattr $C$DW$85, DW_AT_external
	.dwattr $C$DW$85, DW_AT_decl_file("../src/start.c")
	.dwattr $C$DW$85, DW_AT_decl_line(0x7e)
	.dwattr $C$DW$85, DW_AT_decl_column(0x07)

	.global	FP_Burner_Ignite_temp
	.common	FP_Burner_Ignite_temp,4,2
$C$DW$86	.dwtag  DW_TAG_variable
	.dwattr $C$DW$86, DW_AT_name("FP_Burner_Ignite_temp")
	.dwattr $C$DW$86, DW_AT_TI_symbol_name("FP_Burner_Ignite_temp")
	.dwattr $C$DW$86, DW_AT_location[DW_OP_addr FP_Burner_Ignite_temp]
	.dwattr $C$DW$86, DW_AT_type(*$C$DW$T$16)
	.dwattr $C$DW$86, DW_AT_external
	.dwattr $C$DW$86, DW_AT_decl_file("../src/start.c")
	.dwattr $C$DW$86, DW_AT_decl_line(0x7f)
	.dwattr $C$DW$86, DW_AT_decl_column(0x07)

	.global	FC_Burner_Ignite_temp
	.common	FC_Burner_Ignite_temp,4,2
$C$DW$87	.dwtag  DW_TAG_variable
	.dwattr $C$DW$87, DW_AT_name("FC_Burner_Ignite_temp")
	.dwattr $C$DW$87, DW_AT_TI_symbol_name("FC_Burner_Ignite_temp")
	.dwattr $C$DW$87, DW_AT_location[DW_OP_addr FC_Burner_Ignite_temp]
	.dwattr $C$DW$87, DW_AT_type(*$C$DW$T$16)
	.dwattr $C$DW$87, DW_AT_external
	.dwattr $C$DW$87, DW_AT_decl_file("../src/start.c")
	.dwattr $C$DW$87, DW_AT_decl_line(0x80)
	.dwattr $C$DW$87, DW_AT_decl_column(0x07)

	.global	main_fuel_flow_adj
	.data
	.align	2
	.elfsym	main_fuel_flow_adj,SYM_SIZE(4)
main_fuel_flow_adj:
	.float  	$strtod("0x0p+0")		; main_fuel_flow_adj @ 0

$C$DW$88	.dwtag  DW_TAG_variable
	.dwattr $C$DW$88, DW_AT_name("main_fuel_flow_adj")
	.dwattr $C$DW$88, DW_AT_TI_symbol_name("main_fuel_flow_adj")
	.dwattr $C$DW$88, DW_AT_location[DW_OP_addr main_fuel_flow_adj]
	.dwattr $C$DW$88, DW_AT_type(*$C$DW$T$16)
	.dwattr $C$DW$88, DW_AT_external
	.dwattr $C$DW$88, DW_AT_decl_file("../src/start.c")
	.dwattr $C$DW$88, DW_AT_decl_line(0x81)
	.dwattr $C$DW$88, DW_AT_decl_column(0x07)

$C$DW$89	.dwtag  DW_TAG_variable
	.dwattr $C$DW$89, DW_AT_name("Ambient_Temperature")
	.dwattr $C$DW$89, DW_AT_TI_symbol_name("Ambient_Temperature")
	.dwattr $C$DW$89, DW_AT_type(*$C$DW$T$16)
	.dwattr $C$DW$89, DW_AT_declaration
	.dwattr $C$DW$89, DW_AT_external
	.dwattr $C$DW$89, DW_AT_decl_file("../src/start.c")
	.dwattr $C$DW$89, DW_AT_decl_line(0x85)
	.dwattr $C$DW$89, DW_AT_decl_column(0x0e)

	.global	Transition_to_RunMode
	.data
	.align	1
	.elfsym	Transition_to_RunMode,SYM_SIZE(1)
Transition_to_RunMode:
	.bits		0,8
			; Transition_to_RunMode @ 0

$C$DW$90	.dwtag  DW_TAG_variable
	.dwattr $C$DW$90, DW_AT_name("Transition_to_RunMode")
	.dwattr $C$DW$90, DW_AT_TI_symbol_name("Transition_to_RunMode")
	.dwattr $C$DW$90, DW_AT_location[DW_OP_addr Transition_to_RunMode]
	.dwattr $C$DW$90, DW_AT_type(*$C$DW$T$24)
	.dwattr $C$DW$90, DW_AT_external
	.dwattr $C$DW$90, DW_AT_decl_file("../src/start.c")
	.dwattr $C$DW$90, DW_AT_decl_line(0x8a)
	.dwattr $C$DW$90, DW_AT_decl_column(0x09)

	.global	FC_C
	.common	FC_C,4,2
$C$DW$91	.dwtag  DW_TAG_variable
	.dwattr $C$DW$91, DW_AT_name("FC_C")
	.dwattr $C$DW$91, DW_AT_TI_symbol_name("FC_C")
	.dwattr $C$DW$91, DW_AT_location[DW_OP_addr FC_C]
	.dwattr $C$DW$91, DW_AT_type(*$C$DW$T$16)
	.dwattr $C$DW$91, DW_AT_external
	.dwattr $C$DW$91, DW_AT_decl_file("../src/start.c")
	.dwattr $C$DW$91, DW_AT_decl_line(0x8b)
	.dwattr $C$DW$91, DW_AT_decl_column(0x07)

	.global	load_on_temp
	.data
	.align	2
	.elfsym	load_on_temp,SYM_SIZE(4)
load_on_temp:
	.float  	$strtod("0x1.18p+7")		; load_on_temp @ 0

$C$DW$92	.dwtag  DW_TAG_variable
	.dwattr $C$DW$92, DW_AT_name("load_on_temp")
	.dwattr $C$DW$92, DW_AT_TI_symbol_name("load_on_temp")
	.dwattr $C$DW$92, DW_AT_location[DW_OP_addr load_on_temp]
	.dwattr $C$DW$92, DW_AT_type(*$C$DW$T$16)
	.dwattr $C$DW$92, DW_AT_external
	.dwattr $C$DW$92, DW_AT_decl_file("../src/start.c")
	.dwattr $C$DW$92, DW_AT_decl_line(0x8c)
	.dwattr $C$DW$92, DW_AT_decl_column(0x07)

$C$DW$93	.dwtag  DW_TAG_variable
	.dwattr $C$DW$93, DW_AT_name("Transition_Counter")
	.dwattr $C$DW$93, DW_AT_TI_symbol_name("Transition_Counter")
	.dwattr $C$DW$93, DW_AT_type(*$C$DW$T$27)
	.dwattr $C$DW$93, DW_AT_declaration
	.dwattr $C$DW$93, DW_AT_external
	.dwattr $C$DW$93, DW_AT_decl_file("../src/start.c")
	.dwattr $C$DW$93, DW_AT_decl_line(0x8f)
	.dwattr $C$DW$93, DW_AT_decl_column(0x11)

$C$DW$94	.dwtag  DW_TAG_variable
	.dwattr $C$DW$94, DW_AT_name("LCD_page")
	.dwattr $C$DW$94, DW_AT_TI_symbol_name("LCD_page")
	.dwattr $C$DW$94, DW_AT_type(*$C$DW$T$48)
	.dwattr $C$DW$94, DW_AT_declaration
	.dwattr $C$DW$94, DW_AT_external
	.dwattr $C$DW$94, DW_AT_decl_file("../src/start.c")
	.dwattr $C$DW$94, DW_AT_decl_line(0x91)
	.dwattr $C$DW$94, DW_AT_decl_column(0x10)

$C$DW$95	.dwtag  DW_TAG_variable
	.dwattr $C$DW$95, DW_AT_name("secondary_PumpDrv")
	.dwattr $C$DW$95, DW_AT_TI_symbol_name("secondary_PumpDrv")
	.dwattr $C$DW$95, DW_AT_type(*$C$DW$T$48)
	.dwattr $C$DW$95, DW_AT_declaration
	.dwattr $C$DW$95, DW_AT_external
	.dwattr $C$DW$95, DW_AT_decl_file("../src/start.c")
	.dwattr $C$DW$95, DW_AT_decl_line(0x92)
	.dwattr $C$DW$95, DW_AT_decl_column(0x10)

$C$DW$96	.dwtag  DW_TAG_variable
	.dwattr $C$DW$96, DW_AT_name("exhaust_fan_speed")
	.dwattr $C$DW$96, DW_AT_TI_symbol_name("exhaust_fan_speed")
	.dwattr $C$DW$96, DW_AT_type(*$C$DW$T$48)
	.dwattr $C$DW$96, DW_AT_declaration
	.dwattr $C$DW$96, DW_AT_external
	.dwattr $C$DW$96, DW_AT_decl_file("../src/start.c")
	.dwattr $C$DW$96, DW_AT_decl_line(0x94)
	.dwattr $C$DW$96, DW_AT_decl_column(0x10)

$C$DW$97	.dwtag  DW_TAG_variable
	.dwattr $C$DW$97, DW_AT_name("System_V")
	.dwattr $C$DW$97, DW_AT_TI_symbol_name("System_V")
	.dwattr $C$DW$97, DW_AT_type(*$C$DW$T$16)
	.dwattr $C$DW$97, DW_AT_declaration
	.dwattr $C$DW$97, DW_AT_external
	.dwattr $C$DW$97, DW_AT_decl_file("../src/start.c")
	.dwattr $C$DW$97, DW_AT_decl_line(0x97)
	.dwattr $C$DW$97, DW_AT_decl_column(0x0e)

$C$DW$98	.dwtag  DW_TAG_variable
	.dwattr $C$DW$98, DW_AT_name("Auto_restart_V")
	.dwattr $C$DW$98, DW_AT_TI_symbol_name("Auto_restart_V")
	.dwattr $C$DW$98, DW_AT_type(*$C$DW$T$16)
	.dwattr $C$DW$98, DW_AT_declaration
	.dwattr $C$DW$98, DW_AT_external
	.dwattr $C$DW$98, DW_AT_decl_file("../src/start.c")
	.dwattr $C$DW$98, DW_AT_decl_line(0x98)
	.dwattr $C$DW$98, DW_AT_decl_column(0x0e)

$C$DW$99	.dwtag  DW_TAG_variable
	.dwattr $C$DW$99, DW_AT_name("Battery_V")
	.dwattr $C$DW$99, DW_AT_TI_symbol_name("Battery_V")
	.dwattr $C$DW$99, DW_AT_type(*$C$DW$T$16)
	.dwattr $C$DW$99, DW_AT_declaration
	.dwattr $C$DW$99, DW_AT_external
	.dwattr $C$DW$99, DW_AT_decl_file("../src/start.c")
	.dwattr $C$DW$99, DW_AT_decl_line(0x99)
	.dwattr $C$DW$99, DW_AT_decl_column(0x0e)

$C$DW$100	.dwtag  DW_TAG_variable
	.dwattr $C$DW$100, DW_AT_name("Water_Tank_temp")
	.dwattr $C$DW$100, DW_AT_TI_symbol_name("Water_Tank_temp")
	.dwattr $C$DW$100, DW_AT_type(*$C$DW$T$16)
	.dwattr $C$DW$100, DW_AT_declaration
	.dwattr $C$DW$100, DW_AT_external
	.dwattr $C$DW$100, DW_AT_decl_file("../src/start.c")
	.dwattr $C$DW$100, DW_AT_decl_line(0x9a)
	.dwattr $C$DW$100, DW_AT_decl_column(0x0e)

$C$DW$101	.dwtag  DW_TAG_variable
	.dwattr $C$DW$101, DW_AT_name("bool")
	.dwattr $C$DW$101, DW_AT_TI_symbol_name("b")
	.dwattr $C$DW$101, DW_AT_type(*$C$DW$T$16)
	.dwattr $C$DW$101, DW_AT_declaration
	.dwattr $C$DW$101, DW_AT_external
	.dwattr $C$DW$101, DW_AT_decl_file("../src/start.c")
	.dwattr $C$DW$101, DW_AT_decl_line(0x9b)
	.dwattr $C$DW$101, DW_AT_decl_column(0x0e)

$C$DW$102	.dwtag  DW_TAG_variable
	.dwattr $C$DW$102, DW_AT_name("Vtmp")
	.dwattr $C$DW$102, DW_AT_TI_symbol_name("Vtmp")
	.dwattr $C$DW$102, DW_AT_type(*$C$DW$T$16)
	.dwattr $C$DW$102, DW_AT_declaration
	.dwattr $C$DW$102, DW_AT_external
	.dwattr $C$DW$102, DW_AT_decl_file("../src/start.c")
	.dwattr $C$DW$102, DW_AT_decl_line(0x9c)
	.dwattr $C$DW$102, DW_AT_decl_column(0x0e)

$C$DW$103	.dwtag  DW_TAG_variable
	.dwattr $C$DW$103, DW_AT_name("H2_ADJ")
	.dwattr $C$DW$103, DW_AT_TI_symbol_name("H2_ADJ")
	.dwattr $C$DW$103, DW_AT_type(*$C$DW$T$16)
	.dwattr $C$DW$103, DW_AT_declaration
	.dwattr $C$DW$103, DW_AT_external
	.dwattr $C$DW$103, DW_AT_decl_file("../src/start.c")
	.dwattr $C$DW$103, DW_AT_decl_line(0x9f)
	.dwattr $C$DW$103, DW_AT_decl_column(0x0e)

$C$DW$104	.dwtag  DW_TAG_variable
	.dwattr $C$DW$104, DW_AT_name("FCPerror_accumulated")
	.dwattr $C$DW$104, DW_AT_TI_symbol_name("FCPerror_accumulated")
	.dwattr $C$DW$104, DW_AT_type(*$C$DW$T$16)
	.dwattr $C$DW$104, DW_AT_declaration
	.dwattr $C$DW$104, DW_AT_external
	.dwattr $C$DW$104, DW_AT_decl_file("../src/start.c")
	.dwattr $C$DW$104, DW_AT_decl_line(0xa0)
	.dwattr $C$DW$104, DW_AT_decl_column(0x0e)


$C$DW$105	.dwtag  DW_TAG_subprogram
	.dwattr $C$DW$105, DW_AT_name("fmax")
	.dwattr $C$DW$105, DW_AT_TI_symbol_name("fmax")
	.dwattr $C$DW$105, DW_AT_type(*$C$DW$T$17)
	.dwattr $C$DW$105, DW_AT_declaration
	.dwattr $C$DW$105, DW_AT_external
	.dwattr $C$DW$105, DW_AT_decl_file("C:/ti/ccs1110/ccs/tools/compiler/ti-cgt-msp430_21.6.1.LTS/include/math.h")
	.dwattr $C$DW$105, DW_AT_decl_line(0x208)
	.dwattr $C$DW$105, DW_AT_decl_column(0x1a)
$C$DW$106	.dwtag  DW_TAG_formal_parameter
	.dwattr $C$DW$106, DW_AT_type(*$C$DW$T$17)

$C$DW$107	.dwtag  DW_TAG_formal_parameter
	.dwattr $C$DW$107, DW_AT_type(*$C$DW$T$17)

	.dwendtag $C$DW$105


$C$DW$108	.dwtag  DW_TAG_subprogram
	.dwattr $C$DW$108, DW_AT_name("fmin")
	.dwattr $C$DW$108, DW_AT_TI_symbol_name("fmin")
	.dwattr $C$DW$108, DW_AT_type(*$C$DW$T$17)
	.dwattr $C$DW$108, DW_AT_declaration
	.dwattr $C$DW$108, DW_AT_external
	.dwattr $C$DW$108, DW_AT_decl_file("C:/ti/ccs1110/ccs/tools/compiler/ti-cgt-msp430_21.6.1.LTS/include/math.h")
	.dwattr $C$DW$108, DW_AT_decl_line(0x20b)
	.dwattr $C$DW$108, DW_AT_decl_column(0x1a)
$C$DW$109	.dwtag  DW_TAG_formal_parameter
	.dwattr $C$DW$109, DW_AT_type(*$C$DW$T$17)

$C$DW$110	.dwtag  DW_TAG_formal_parameter
	.dwattr $C$DW$110, DW_AT_type(*$C$DW$T$17)

	.dwendtag $C$DW$108


$C$DW$111	.dwtag  DW_TAG_subprogram
	.dwattr $C$DW$111, DW_AT_name("setVout")
	.dwattr $C$DW$111, DW_AT_TI_symbol_name("setVout")
	.dwattr $C$DW$111, DW_AT_declaration
	.dwattr $C$DW$111, DW_AT_external
	.dwattr $C$DW$111, DW_AT_decl_file("../src/start.c")
	.dwattr $C$DW$111, DW_AT_decl_line(0xaa)
	.dwattr $C$DW$111, DW_AT_decl_column(0x0d)
$C$DW$112	.dwtag  DW_TAG_formal_parameter
	.dwattr $C$DW$112, DW_AT_type(*$C$DW$T$16)

	.dwendtag $C$DW$111


$C$DW$113	.dwtag  DW_TAG_subprogram
	.dwattr $C$DW$113, DW_AT_name("LCD_init")
	.dwattr $C$DW$113, DW_AT_TI_symbol_name("LCD_init")
	.dwattr $C$DW$113, DW_AT_declaration
	.dwattr $C$DW$113, DW_AT_external
	.dwattr $C$DW$113, DW_AT_decl_file("../src/start.c")
	.dwattr $C$DW$113, DW_AT_decl_line(0xad)
	.dwattr $C$DW$113, DW_AT_decl_column(0x0d)
	.dwendtag $C$DW$113


$C$DW$114	.dwtag  DW_TAG_subprogram
	.dwattr $C$DW$114, DW_AT_name("calcs")
	.dwattr $C$DW$114, DW_AT_TI_symbol_name("calcs")
	.dwattr $C$DW$114, DW_AT_declaration
	.dwattr $C$DW$114, DW_AT_external
	.dwattr $C$DW$114, DW_AT_decl_file("../src/start.c")
	.dwattr $C$DW$114, DW_AT_decl_line(0xa6)
	.dwattr $C$DW$114, DW_AT_decl_column(0x0d)
	.dwendtag $C$DW$114


$C$DW$115	.dwtag  DW_TAG_subprogram
	.dwattr $C$DW$115, DW_AT_name("setLimits")
	.dwattr $C$DW$115, DW_AT_TI_symbol_name("setLimits")
	.dwattr $C$DW$115, DW_AT_declaration
	.dwattr $C$DW$115, DW_AT_external
	.dwattr $C$DW$115, DW_AT_decl_file("../src/start.c")
	.dwattr $C$DW$115, DW_AT_decl_line(0xab)
	.dwattr $C$DW$115, DW_AT_decl_column(0x0d)
	.dwendtag $C$DW$115


$C$DW$116	.dwtag  DW_TAG_subprogram
	.dwattr $C$DW$116, DW_AT_name("Set_Fuel_Pumps")
	.dwattr $C$DW$116, DW_AT_TI_symbol_name("Set_Fuel_Pumps")
	.dwattr $C$DW$116, DW_AT_declaration
	.dwattr $C$DW$116, DW_AT_external
	.dwattr $C$DW$116, DW_AT_decl_file("../src/start.c")
	.dwattr $C$DW$116, DW_AT_decl_line(0xa7)
	.dwattr $C$DW$116, DW_AT_decl_column(0x0d)
	.dwendtag $C$DW$116


$C$DW$117	.dwtag  DW_TAG_subprogram
	.dwattr $C$DW$117, DW_AT_name("Set_Air_Compressors")
	.dwattr $C$DW$117, DW_AT_TI_symbol_name("Set_Air_Compressors")
	.dwattr $C$DW$117, DW_AT_declaration
	.dwattr $C$DW$117, DW_AT_external
	.dwattr $C$DW$117, DW_AT_decl_file("../src/start.c")
	.dwattr $C$DW$117, DW_AT_decl_line(0xa5)
	.dwattr $C$DW$117, DW_AT_decl_column(0x0d)
	.dwendtag $C$DW$117


$C$DW$118	.dwtag  DW_TAG_subprogram
	.dwattr $C$DW$118, DW_AT_name("Set_FCSFan")
	.dwattr $C$DW$118, DW_AT_TI_symbol_name("Set_FCSFan")
	.dwattr $C$DW$118, DW_AT_declaration
	.dwattr $C$DW$118, DW_AT_external
	.dwattr $C$DW$118, DW_AT_decl_file("../src/start.c")
	.dwattr $C$DW$118, DW_AT_decl_line(0xa9)
	.dwattr $C$DW$118, DW_AT_decl_column(0x0d)
$C$DW$119	.dwtag  DW_TAG_formal_parameter
	.dwattr $C$DW$119, DW_AT_type(*$C$DW$T$48)

	.dwendtag $C$DW$118


$C$DW$120	.dwtag  DW_TAG_subprogram
	.dwattr $C$DW$120, DW_AT_name("memset")
	.dwattr $C$DW$120, DW_AT_TI_symbol_name("memset")
	.dwattr $C$DW$120, DW_AT_type(*$C$DW$T$3)
	.dwattr $C$DW$120, DW_AT_declaration
	.dwattr $C$DW$120, DW_AT_external
	.dwattr $C$DW$120, DW_AT_decl_file("C:/ti/ccs1110/ccs/tools/compiler/ti-cgt-msp430_21.6.1.LTS/include/string.h")
	.dwattr $C$DW$120, DW_AT_decl_line(0x84)
	.dwattr $C$DW$120, DW_AT_decl_column(0x16)
$C$DW$121	.dwtag  DW_TAG_formal_parameter
	.dwattr $C$DW$121, DW_AT_type(*$C$DW$T$3)

$C$DW$122	.dwtag  DW_TAG_formal_parameter
	.dwattr $C$DW$122, DW_AT_type(*$C$DW$T$10)

$C$DW$123	.dwtag  DW_TAG_formal_parameter
	.dwattr $C$DW$123, DW_AT_type(*$C$DW$T$78)

	.dwendtag $C$DW$120

;	C:\ti\ccs1110\ccs\tools\compiler\ti-cgt-msp430_21.6.1.LTS\bin\opt430.exe C:\\Users\\MCourson\\AppData\\Local\\Temp\\{829435E8-FCA5-482E-872C-2F8C97983A2E} C:\\Users\\MCourson\\AppData\\Local\\Temp\\{A8671C4B-B89F-4E2F-ACD3-8713355A44E8} 
	.sect	".text:adjustHeating"
	.clink
	.global	adjustHeating

$C$DW$124	.dwtag  DW_TAG_subprogram
	.dwattr $C$DW$124, DW_AT_name("adjustHeating")
	.dwattr $C$DW$124, DW_AT_low_pc(adjustHeating)
	.dwattr $C$DW$124, DW_AT_high_pc(0x00)
	.dwattr $C$DW$124, DW_AT_TI_symbol_name("adjustHeating")
	.dwattr $C$DW$124, DW_AT_external
	.dwattr $C$DW$124, DW_AT_TI_begin_file("../src/start.c")
	.dwattr $C$DW$124, DW_AT_TI_begin_line(0x4f9)
	.dwattr $C$DW$124, DW_AT_TI_begin_column(0x06)
	.dwattr $C$DW$124, DW_AT_decl_file("../src/start.c")
	.dwattr $C$DW$124, DW_AT_decl_line(0x4f9)
	.dwattr $C$DW$124, DW_AT_decl_column(0x06)
	.dwattr $C$DW$124, DW_AT_TI_max_frame_size(0x20)
	.dwpsn	file "../src/start.c",line 1274,column 1,is_stmt,address adjustHeating,isa 0

	.dwfde $C$DW$CIE, adjustHeating

;*****************************************************************************
;* FUNCTION NAME: adjustHeating                                              *
;*                                                                           *
;*   Regs Modified     : SP,SR,r4,r5,r6,r7,r8,r9,r10,r11,r12,r13,r14,r15     *
;*   Regs Used         : SP,SR,r4,r5,r6,r7,r8,r9,r10,r11,r12,r13,r14,r15     *
;*   Local Frame Size  : 0 Args + 0 Auto + 28 Save = 28 byte                 *
;*****************************************************************************
adjustHeating:
;* --------------------------------------------------------------------------*
	.dwcfi	cfa_offset, 4
	.dwcfi	save_reg_to_mem, 16, -4
        PUSHM.A   #7,r10                ; [] 
	.dwcfi	save_reg_to_mem, 10, -8
	.dwcfi	save_reg_to_mem, 9, -12
	.dwcfi	save_reg_to_mem, 8, -16
	.dwcfi	save_reg_to_mem, 7, -20
	.dwcfi	save_reg_to_mem, 6, -24
	.dwcfi	save_reg_to_mem, 5, -28
	.dwcfi	save_reg_to_mem, 4, -32
	.dwcfi	cfa_offset, 32
	.dwpsn	file "../src/start.c",line 1275,column 5,is_stmt,isa 0
        MOV.B     #1,&burner_fuel+0     ; [] |1275| 
	.dwpsn	file "../src/start.c",line 1277,column 5,is_stmt,isa 0
        MOV.W     &TC1_temp+0,r12       ; [] |1277| 
        MOV.W     &TC1_temp+2,r13       ; [] |1277| 
        MOV.W     #0,r14                ; [] |1277| 
        MOV.W     #17008,r15            ; [] |1277| 
$C$DW$125	.dwtag  DW_TAG_TI_branch
	.dwattr $C$DW$125, DW_AT_low_pc(0x00)
	.dwattr $C$DW$125, DW_AT_name("__mspabi_cmpf")
	.dwattr $C$DW$125, DW_AT_TI_call

        CALLA     #__mspabi_cmpf        ; [] |1277| 
                                          ; [] |1277| 
        TST.W     r12                   ; [] |1277| 
        JL        $C$L1                 ; [] |1277| 
                                          ; [] |1277| 
;* --------------------------------------------------------------------------*
        MOV.W     &TC2_temp+0,r12       ; [] |1277| 
        MOV.W     &TC2_temp+2,r13       ; [] |1277| 
        MOV.W     #0,r14                ; [] |1277| 
        MOV.W     #17008,r15            ; [] |1277| 
$C$DW$126	.dwtag  DW_TAG_TI_branch
	.dwattr $C$DW$126, DW_AT_low_pc(0x00)
	.dwattr $C$DW$126, DW_AT_name("__mspabi_cmpf")
	.dwattr $C$DW$126, DW_AT_TI_call

        CALLA     #__mspabi_cmpf        ; [] |1277| 
                                          ; [] |1277| 
        TST.W     r12                   ; [] |1277| 
        JGE       $C$L2                 ; [] |1277| 
                                          ; [] |1277| 
;* --------------------------------------------------------------------------*
$C$L1:    
        TST.B     &SwapCount+0          ; [] |1277| 
        JNE       $C$L2                 ; [] |1277| 
                                          ; [] |1277| 
;* --------------------------------------------------------------------------*
        MOV.W     &TC1_temp+0,r12       ; [] |1277| 
        MOV.W     &TC1_temp+2,r13       ; [] |1277| 
        MOV.W     #0,r14                ; [] |1277| 
        MOV.W     #17189,r15            ; [] |1277| 
$C$DW$127	.dwtag  DW_TAG_TI_branch
	.dwattr $C$DW$127, DW_AT_low_pc(0x00)
	.dwattr $C$DW$127, DW_AT_name("__mspabi_cmpf")
	.dwattr $C$DW$127, DW_AT_TI_call

        CALLA     #__mspabi_cmpf        ; [] |1277| 
                                          ; [] |1277| 
        TST.W     r12                   ; [] |1277| 
        JGE       $C$L2                 ; [] |1277| 
                                          ; [] |1277| 
;* --------------------------------------------------------------------------*
        MOV.W     &TC2_temp+0,r12       ; [] |1277| 
        MOV.W     &TC2_temp+2,r13       ; [] |1277| 
        MOV.W     #0,r14                ; [] |1277| 
        MOV.W     #17282,r15            ; [] |1277| 
$C$DW$128	.dwtag  DW_TAG_TI_branch
	.dwattr $C$DW$128, DW_AT_low_pc(0x00)
	.dwattr $C$DW$128, DW_AT_name("__mspabi_cmpf")
	.dwattr $C$DW$128, DW_AT_TI_call

        CALLA     #__mspabi_cmpf        ; [] |1277| 
                                          ; [] |1277| 
        TST.W     r12                   ; [] |1277| 
        JGE       $C$L2                 ; [] |1277| 
                                          ; [] |1277| 
;* --------------------------------------------------------------------------*
	.dwpsn	file "../src/start.c",line 1280,column 9,is_stmt,isa 0
        OR.B      #16,&PCOUT_L+0        ; [] |1280| 
	.dwpsn	file "../src/start.c",line 1281,column 9,is_stmt,isa 0
        OR.B      #128,&PBOUT_L+0       ; [] |1281| 
        JMP       $C$L3                 ; [] 
                                          ; [] 
;* --------------------------------------------------------------------------*
$C$L2:    
	.dwpsn	file "../src/start.c",line 1285,column 9,is_stmt,isa 0
        AND.B     #239,&PCOUT_L+0       ; [] |1285| 
	.dwpsn	file "../src/start.c",line 1286,column 9,is_stmt,isa 0
        AND.B     #127,&PBOUT_L+0       ; [] |1286| 
;* --------------------------------------------------------------------------*
$C$L3:    
	.dwpsn	file "../src/start.c",line 1289,column 5,is_stmt,isa 0
        TST.W     &Cold_Heater+0        ; [] |1289| 
        JEQ       $C$L5                 ; [] |1289| 
                                          ; [] |1289| 
;* --------------------------------------------------------------------------*
        MOV.W     &FC_burner_temp+0,r12 ; [] |1289| 
        MOV.W     &FC_burner_temp+2,r13 ; [] |1289| 
        MOV.W     #0,r14                ; [] |1289| 
        MOV.W     #16800,r15            ; [] |1289| 
$C$DW$129	.dwtag  DW_TAG_TI_branch
	.dwattr $C$DW$129, DW_AT_low_pc(0x00)
	.dwattr $C$DW$129, DW_AT_name("__mspabi_cmpf")
	.dwattr $C$DW$129, DW_AT_TI_call

        CALLA     #__mspabi_cmpf        ; [] |1289| 
                                          ; [] |1289| 
        TST.W     r12                   ; [] |1289| 
        JGE       $C$L5                 ; [] |1289| 
                                          ; [] |1289| 
;* --------------------------------------------------------------------------*
	.dwpsn	file "../src/start.c",line 1291,column 9,is_stmt,isa 0
        SUB.W     #1,&Cold_Heater+0     ; [] |1291| 
	.dwpsn	file "../src/start.c",line 1292,column 9,is_stmt,isa 0
        MOV.W     &FC_Burner_air+0,r12  ; [] |1292| 
        MOV.W     &FC_Burner_air+2,r13  ; [] |1292| 
        MOV.W     #0,r14                ; [] |1292| 
        MOV.W     #16320,r15            ; [] |1292| 
$C$DW$130	.dwtag  DW_TAG_TI_branch
	.dwattr $C$DW$130, DW_AT_low_pc(0x00)
	.dwattr $C$DW$130, DW_AT_name("__mspabi_cmpf")
	.dwattr $C$DW$130, DW_AT_TI_call

        CALLA     #__mspabi_cmpf        ; [] |1292| 
                                          ; [] |1292| 
        TST.W     r12                   ; [] |1292| 
        JL        $C$L4                 ; [] |1292| 
                                          ; [] |1292| 
;* --------------------------------------------------------------------------*
	.dwpsn	file "../src/start.c",line 1295,column 13,is_stmt,isa 0
        MOV.W     &FC_Burner_air+0,r12  ; [] |1295| 
        MOV.W     &FC_Burner_air+2,r13  ; [] |1295| 
$C$DW$131	.dwtag  DW_TAG_TI_branch
	.dwattr $C$DW$131, DW_AT_low_pc(0x00)
	.dwattr $C$DW$131, DW_AT_name("__mspabi_cvtfd")
	.dwattr $C$DW$131, DW_AT_TI_call

        CALLA     #__mspabi_cvtfd       ; [] |1295| 
                                          ; [] |1295| 
        MOVA      r12,r8                ; [] |1295| 
        MOVA      r13,r9                ; [] |1295| 
        MOVA      r14,r10               ; [] |1295| 
        MOVA      r15,r11               ; [] |1295| 
        MOV.W     #5243,r12             ; [] |1295| 
        MOV.W     #18350,r13            ; [] |1295| 
        MOV.W     #31457,r14            ; [] |1295| 
        MOV.W     #16244,r15            ; [] |1295| 
$C$DW$132	.dwtag  DW_TAG_TI_branch
	.dwattr $C$DW$132, DW_AT_low_pc(0x00)
	.dwattr $C$DW$132, DW_AT_name("__mspabi_subd")
	.dwattr $C$DW$132, DW_AT_TI_call

        CALLA     #__mspabi_subd        ; [] |1295| 
                                          ; [] |1295| 
$C$DW$133	.dwtag  DW_TAG_TI_branch
	.dwattr $C$DW$133, DW_AT_low_pc(0x00)
	.dwattr $C$DW$133, DW_AT_name("__mspabi_cvtdf")
	.dwattr $C$DW$133, DW_AT_TI_call

        CALLA     #__mspabi_cvtdf       ; [] |1295| 
                                          ; [] |1295| 
        MOV.W     r12,&FC_Burner_air+0  ; [] |1295| 
        MOV.W     r13,&FC_Burner_air+2  ; [] |1295| 
        JMP       $C$L16                ; [] |1295| 
                                          ; [] |1295| 
;* --------------------------------------------------------------------------*
$C$L4:    
	.dwpsn	file "../src/start.c",line 1293,column 13,is_stmt,isa 0
        MOV.W     &FC_Burner_air+0,r12  ; [] |1293| 
        MOV.W     &FC_Burner_air+2,r13  ; [] |1293| 
$C$DW$134	.dwtag  DW_TAG_TI_branch
	.dwattr $C$DW$134, DW_AT_low_pc(0x00)
	.dwattr $C$DW$134, DW_AT_name("__mspabi_cvtfd")
	.dwattr $C$DW$134, DW_AT_TI_call

        CALLA     #__mspabi_cvtfd       ; [] |1293| 
                                          ; [] |1293| 
        MOVA      r12,r8                ; [] |1293| 
        MOVA      r13,r9                ; [] |1293| 
        MOVA      r14,r10               ; [] |1293| 
        MOVA      r15,r11               ; [] |1293| 
        MOV.W     #5243,r12             ; [] |1293| 
        MOV.W     #18350,r13            ; [] |1293| 
        MOV.W     #31457,r14            ; [] |1293| 
        MOV.W     #16260,r15            ; [] |1293| 
$C$DW$135	.dwtag  DW_TAG_TI_branch
	.dwattr $C$DW$135, DW_AT_low_pc(0x00)
	.dwattr $C$DW$135, DW_AT_name("__mspabi_addd")
	.dwattr $C$DW$135, DW_AT_TI_call

        CALLA     #__mspabi_addd        ; [] |1293| 
                                          ; [] |1293| 
$C$DW$136	.dwtag  DW_TAG_TI_branch
	.dwattr $C$DW$136, DW_AT_low_pc(0x00)
	.dwattr $C$DW$136, DW_AT_name("__mspabi_cvtdf")
	.dwattr $C$DW$136, DW_AT_TI_call

        CALLA     #__mspabi_cvtdf       ; [] |1293| 
                                          ; [] |1293| 
        MOV.W     r12,&FC_Burner_air+0  ; [] |1293| 
        MOV.W     r13,&FC_Burner_air+2  ; [] |1293| 
        JMP       $C$L16                ; [] 
                                          ; [] 
;* --------------------------------------------------------------------------*
$C$L5:    
	.dwpsn	file "../src/start.c",line 1299,column 9,is_stmt,isa 0
        MOV.W     #0,&Cold_Heater+0     ; [] |1299| 
	.dwpsn	file "../src/start.c",line 1300,column 9,is_stmt,isa 0
        MOV.W     &FC_Burner_Methanol_flow+0,r12 ; [] |1300| 
        MOV.W     &FC_Burner_Methanol_flow+2,r13 ; [] |1300| 
        MOV.W     #0,r14                ; [] |1300| 
        MOV.W     #16256,r15            ; [] |1300| 
$C$DW$137	.dwtag  DW_TAG_TI_branch
	.dwattr $C$DW$137, DW_AT_low_pc(0x00)
	.dwattr $C$DW$137, DW_AT_name("__mspabi_cmpf")
	.dwattr $C$DW$137, DW_AT_TI_call

        CALLA     #__mspabi_cmpf        ; [] |1300| 
                                          ; [] |1300| 
        TST.W     r12                   ; [] |1300| 
        JGE       $C$L6                 ; [] |1300| 
                                          ; [] |1300| 
;* --------------------------------------------------------------------------*
	.dwpsn	file "../src/start.c",line 1302,column 13,is_stmt,isa 0
        MOV.W     &FC_burner_temp+0,&FC_Burner_Ignite_temp+0 ; [] |1302| 
        MOV.W     &FC_burner_temp+2,&FC_Burner_Ignite_temp+2 ; [] |1302| 
;* --------------------------------------------------------------------------*
$C$L6:    
	.dwpsn	file "../src/start.c",line 1305,column 9,is_stmt,isa 0
        TST.B     &FC_Burner_Ignite_Failure+0 ; [] |1305| 
        JNE       $C$L10                ; [] |1305| 
                                          ; [] |1305| 
;* --------------------------------------------------------------------------*
	.dwpsn	file "../src/start.c",line 1318,column 14,is_stmt,isa 0
        CMP.W     #500,&Pump_Startup+0  ; [] |1318| 
        JL        $C$L8                 ; [] |1318| 
                                          ; [] |1318| 
;* --------------------------------------------------------------------------*
	.dwpsn	file "../src/start.c",line 1332,column 13,is_stmt,isa 0
        MOV.W     #0,r12                ; [] |1332| 
        MOV.W     #16880,r13            ; [] |1332| 
        MOV.W     &FC_Burner_Methanol_flow+0,r14 ; [] |1332| 
        MOV.W     &FC_Burner_Methanol_flow+2,r15 ; [] |1332| 
$C$DW$138	.dwtag  DW_TAG_TI_branch
	.dwattr $C$DW$138, DW_AT_low_pc(0x00)
	.dwattr $C$DW$138, DW_AT_name("__mspabi_cmpf")
	.dwattr $C$DW$138, DW_AT_TI_call

        CALLA     #__mspabi_cmpf        ; [] |1332| 
                                          ; [] |1332| 
        TST.W     r12                   ; [] |1332| 
        JL        $C$L7                 ; [] |1332| 
                                          ; [] |1332| 
;* --------------------------------------------------------------------------*
	.dwpsn	file "../src/start.c",line 1338,column 17,is_stmt,isa 0
        MOV.W     #0,&FC_Burner_Methanol_flow+0 ; [] |1338| 
        MOV.W     #16880,&FC_Burner_Methanol_flow+2 ; [] |1338| 
        JMP       $C$L13                ; [] |1338| 
                                          ; [] |1338| 
;* --------------------------------------------------------------------------*
$C$L7:    
	.dwpsn	file "../src/start.c",line 1334,column 17,is_stmt,isa 0
        MOV.W     &FC_Burner_Methanol_flow+0,r12 ; [] |1334| 
        MOV.W     &FC_Burner_Methanol_flow+2,r13 ; [] |1334| 
$C$DW$139	.dwtag  DW_TAG_TI_branch
	.dwattr $C$DW$139, DW_AT_low_pc(0x00)
	.dwattr $C$DW$139, DW_AT_name("__mspabi_cvtfd")
	.dwattr $C$DW$139, DW_AT_TI_call

        CALLA     #__mspabi_cvtfd       ; [] |1334| 
                                          ; [] |1334| 
        MOVA      r12,r8                ; [] |1334| 
        MOVA      r13,r9                ; [] |1334| 
        MOVA      r14,r10               ; [] |1334| 
        MOVA      r15,r11               ; [] |1334| 
        MOV.W     #39322,r12            ; [] |1334| 
        MOV.W     #39321,r13            ; [] |1334| 
        MOV.W     #39321,r14            ; [] |1334| 
        MOV.W     #16329,r15            ; [] |1334| 
$C$DW$140	.dwtag  DW_TAG_TI_branch
	.dwattr $C$DW$140, DW_AT_low_pc(0x00)
	.dwattr $C$DW$140, DW_AT_name("__mspabi_subd")
	.dwattr $C$DW$140, DW_AT_TI_call

        CALLA     #__mspabi_subd        ; [] |1334| 
                                          ; [] |1334| 
$C$DW$141	.dwtag  DW_TAG_TI_branch
	.dwattr $C$DW$141, DW_AT_low_pc(0x00)
	.dwattr $C$DW$141, DW_AT_name("__mspabi_cvtdf")
	.dwattr $C$DW$141, DW_AT_TI_call

        CALLA     #__mspabi_cvtdf       ; [] |1334| 
                                          ; [] |1334| 
        MOV.W     r12,&FC_Burner_Methanol_flow+0 ; [] |1334| 
        MOV.W     r13,&FC_Burner_Methanol_flow+2 ; [] |1334| 
        JMP       $C$L13                ; [] 
                                          ; [] 
;* --------------------------------------------------------------------------*
$C$L8:    
	.dwpsn	file "../src/start.c",line 1320,column 13,is_stmt,isa 0
        ADD.W     #1,&Pump_Startup+0    ; [] |1320| 
	.dwpsn	file "../src/start.c",line 1321,column 13,is_stmt,isa 0
        MOV.W     &FC_Burner_Methanol_flow+0,r12 ; [] |1321| 
        MOV.W     &FC_Burner_Methanol_flow+2,r13 ; [] |1321| 
        MOV.W     #0,r14                ; [] |1321| 
        MOV.W     #16880,r15            ; [] |1321| 
$C$DW$142	.dwtag  DW_TAG_TI_branch
	.dwattr $C$DW$142, DW_AT_low_pc(0x00)
	.dwattr $C$DW$142, DW_AT_name("__mspabi_cmpf")
	.dwattr $C$DW$142, DW_AT_TI_call

        CALLA     #__mspabi_cmpf        ; [] |1321| 
                                          ; [] |1321| 
        TST.W     r12                   ; [] |1321| 
        JL        $C$L9                 ; [] |1321| 
                                          ; [] |1321| 
;* --------------------------------------------------------------------------*
	.dwpsn	file "../src/start.c",line 1327,column 17,is_stmt,isa 0
        MOV.W     #0,&FC_Burner_Methanol_flow+0 ; [] |1327| 
        MOV.W     #16880,&FC_Burner_Methanol_flow+2 ; [] |1327| 
        JMP       $C$L13                ; [] |1327| 
                                          ; [] |1327| 
;* --------------------------------------------------------------------------*
$C$L9:    
	.dwpsn	file "../src/start.c",line 1323,column 17,is_stmt,isa 0
        MOV.W     &FC_Burner_Methanol_flow+0,r12 ; [] |1323| 
        MOV.W     &FC_Burner_Methanol_flow+2,r13 ; [] |1323| 
$C$DW$143	.dwtag  DW_TAG_TI_branch
	.dwattr $C$DW$143, DW_AT_low_pc(0x00)
	.dwattr $C$DW$143, DW_AT_name("__mspabi_cvtfd")
	.dwattr $C$DW$143, DW_AT_TI_call

        CALLA     #__mspabi_cvtfd       ; [] |1323| 
                                          ; [] |1323| 
        MOVA      r12,r8                ; [] |1323| 
        MOVA      r13,r9                ; [] |1323| 
        MOVA      r14,r10               ; [] |1323| 
        MOVA      r15,r11               ; [] |1323| 
        MOV.W     #39322,r12            ; [] |1323| 
        MOV.W     #39321,r13            ; [] |1323| 
        MOV.W     #39321,r14            ; [] |1323| 
        MOV.W     #16329,r15            ; [] |1323| 
$C$DW$144	.dwtag  DW_TAG_TI_branch
	.dwattr $C$DW$144, DW_AT_low_pc(0x00)
	.dwattr $C$DW$144, DW_AT_name("__mspabi_addd")
	.dwattr $C$DW$144, DW_AT_TI_call

        CALLA     #__mspabi_addd        ; [] |1323| 
                                          ; [] |1323| 
$C$DW$145	.dwtag  DW_TAG_TI_branch
	.dwattr $C$DW$145, DW_AT_low_pc(0x00)
	.dwattr $C$DW$145, DW_AT_name("__mspabi_cvtdf")
	.dwattr $C$DW$145, DW_AT_TI_call

        CALLA     #__mspabi_cvtdf       ; [] |1323| 
                                          ; [] |1323| 
        MOV.W     r12,&FC_Burner_Methanol_flow+0 ; [] |1323| 
        MOV.W     r13,&FC_Burner_Methanol_flow+2 ; [] |1323| 
        JMP       $C$L13                ; [] 
                                          ; [] 
;* --------------------------------------------------------------------------*
$C$L10:    
	.dwpsn	file "../src/start.c",line 1307,column 13,is_stmt,isa 0
        CMP.W     #1,&Pump_Off_Counter+0 ; [] |1307| 
        JGE       $C$L11                ; [] |1307| 
                                          ; [] |1307| 
;* --------------------------------------------------------------------------*
	.dwpsn	file "../src/start.c",line 1313,column 17,is_stmt,isa 0
        MOV.B     #0,&FC_Burner_Ignite_Failure+0 ; [] |1313| 
        JMP       $C$L12                ; [] |1313| 
                                          ; [] |1313| 
;* --------------------------------------------------------------------------*
$C$L11:    
	.dwpsn	file "../src/start.c",line 1309,column 17,is_stmt,isa 0
        SUB.W     #1,&Pump_Off_Counter+0 ; [] |1309| 
;* --------------------------------------------------------------------------*
$C$L12:    
	.dwpsn	file "../src/start.c",line 1315,column 13,is_stmt,isa 0
        MOV.W     #0,&FC_Burner_Methanol_flow+0 ; [] |1315| 
        MOV.W     #0,&FC_Burner_Methanol_flow+2 ; [] |1315| 
	.dwpsn	file "../src/start.c",line 1316,column 13,is_stmt,isa 0
        MOV.W     #0,&Pump_Startup+0    ; [] |1316| 
;* --------------------------------------------------------------------------*
$C$L13:    
	.dwpsn	file "../src/start.c",line 1342,column 9,is_stmt,isa 0
        TST.B     &FC_Burner_Ignite_Failure+0 ; [] |1342| 
        JNE       $C$L16                ; [] |1342| 
                                          ; [] |1342| 
;* --------------------------------------------------------------------------*
	.dwpsn	file "../src/start.c",line 1344,column 13,is_stmt,isa 0
        MOV.W     &FC_burner_temp+0,r12 ; [] |1344| 
        MOV.W     &FC_burner_temp+2,r13 ; [] |1344| 
$C$DW$146	.dwtag  DW_TAG_TI_branch
	.dwattr $C$DW$146, DW_AT_low_pc(0x00)
	.dwattr $C$DW$146, DW_AT_name("__mspabi_cvtfd")
	.dwattr $C$DW$146, DW_AT_TI_call

        CALLA     #__mspabi_cvtfd       ; [] |1344| 
                                          ; [] |1344| 
        MOVA      r12,r4                ; [] |1344| 
        MOVA      r13,r5                ; [] |1344| 
        MOVA      r14,r6                ; [] |1344| 
        MOVA      r15,r7                ; [] |1344| 
        MOV.W     &FC_Burner_Ignite_temp+0,r12 ; [] |1344| 
        MOV.W     &FC_Burner_Ignite_temp+2,r13 ; [] |1344| 
$C$DW$147	.dwtag  DW_TAG_TI_branch
	.dwattr $C$DW$147, DW_AT_low_pc(0x00)
	.dwattr $C$DW$147, DW_AT_name("__mspabi_cvtfd")
	.dwattr $C$DW$147, DW_AT_TI_call

        CALLA     #__mspabi_cvtfd       ; [] |1344| 
                                          ; [] |1344| 
        MOVA      r12,r8                ; [] |1344| 
        MOVA      r13,r9                ; [] |1344| 
        MOVA      r14,r10               ; [] |1344| 
        MOVA      r15,r11               ; [] |1344| 
        MOV.W     #0,r12                ; [] |1344| 
        MOV.W     #0,r13                ; [] |1344| 
        MOV.W     #0,r14                ; [] |1344| 
        MOV.W     #16404,r15            ; [] |1344| 
$C$DW$148	.dwtag  DW_TAG_TI_branch
	.dwattr $C$DW$148, DW_AT_low_pc(0x00)
	.dwattr $C$DW$148, DW_AT_name("__mspabi_addd")
	.dwattr $C$DW$148, DW_AT_TI_call

        CALLA     #__mspabi_addd        ; [] |1344| 
                                          ; [] |1344| 
        MOVA      r4,r8                 ; [] |1344| 
        MOVA      r5,r9                 ; [] |1344| 
        MOVA      r6,r10                ; [] |1344| 
        MOVA      r7,r11                ; [] |1344| 
$C$DW$149	.dwtag  DW_TAG_TI_branch
	.dwattr $C$DW$149, DW_AT_low_pc(0x00)
	.dwattr $C$DW$149, DW_AT_name("__mspabi_cmpd")
	.dwattr $C$DW$149, DW_AT_TI_call

        CALLA     #__mspabi_cmpd        ; [] |1344| 
                                          ; [] |1344| 
        TST.W     r12                   ; [] |1344| 
        JGE       $C$L14                ; [] |1344| 
                                          ; [] |1344| 
;* --------------------------------------------------------------------------*
	.dwpsn	file "../src/start.c",line 1346,column 17,is_stmt,isa 0
        ADD.W     #1,&FC_Burner_Ignite_Failure_timer+0 ; [] |1346| 
;* --------------------------------------------------------------------------*
$C$L14:    
	.dwpsn	file "../src/start.c",line 1348,column 13,is_stmt,isa 0
        CMP.W     #9001,&FC_Burner_Ignite_Failure_timer+0 ; [] |1348| 
        JL        $C$L15                ; [] |1348| 
                                          ; [] |1348| 
;* --------------------------------------------------------------------------*
	.dwpsn	file "../src/start.c",line 1350,column 17,is_stmt,isa 0
        MOV.B     #1,&FC_Burner_Ignite_Failure+0 ; [] |1350| 
	.dwpsn	file "../src/start.c",line 1351,column 17,is_stmt,isa 0
        MOV.W     #3000,&Pump_Off_Counter+0 ; [] |1351| 
;* --------------------------------------------------------------------------*
$C$L15:    
	.dwpsn	file "../src/start.c",line 1354,column 13,is_stmt,isa 0
        MOV.W     #0,&FC_Burner_Ignite_Failure_timer+0 ; [] |1354| 
;* --------------------------------------------------------------------------*
$C$L16:    
	.dwpsn	file "../src/start.c",line 1358,column 5,is_stmt,isa 0
        MOV.W     &FC_Burner_air+0,r12  ; [] |1358| 
        MOV.W     &FC_Burner_air+2,r13  ; [] |1358| 
$C$DW$150	.dwtag  DW_TAG_TI_branch
	.dwattr $C$DW$150, DW_AT_low_pc(0x00)
	.dwattr $C$DW$150, DW_AT_name("__mspabi_cvtfd")
	.dwattr $C$DW$150, DW_AT_TI_call

        CALLA     #__mspabi_cvtfd       ; [] |1358| 
                                          ; [] |1358| 
        MOVA      r12,r4                ; [] |1358| 
        MOVA      r13,r5                ; [] |1358| 
        MOVA      r14,r6                ; [] |1358| 
        MOVA      r15,r7                ; [] |1358| 
        MOV.W     &FC_Burner_Methanol_flow+0,r12 ; [] |1358| 
        MOV.W     &FC_Burner_Methanol_flow+2,r13 ; [] |1358| 
$C$DW$151	.dwtag  DW_TAG_TI_branch
	.dwattr $C$DW$151, DW_AT_low_pc(0x00)
	.dwattr $C$DW$151, DW_AT_name("__mspabi_cvtfd")
	.dwattr $C$DW$151, DW_AT_TI_call

        CALLA     #__mspabi_cvtfd       ; [] |1358| 
                                          ; [] |1358| 
        MOVA      r12,r8                ; [] |1358| 
        MOVA      r13,r9                ; [] |1358| 
        MOVA      r14,r10               ; [] |1358| 
        MOVA      r15,r11               ; [] |1358| 
        MOV.W     #65117,r12            ; [] |1358| 
        MOV.W     #64067,r13            ; [] |1358| 
        MOV.W     #60397,r14            ; [] |1358| 
        MOV.W     #16304,r15            ; [] |1358| 
$C$DW$152	.dwtag  DW_TAG_TI_branch
	.dwattr $C$DW$152, DW_AT_low_pc(0x00)
	.dwattr $C$DW$152, DW_AT_name("__mspabi_mpyd")
	.dwattr $C$DW$152, DW_AT_TI_call

        CALLA     #__mspabi_mpyd        ; [] |1358| 
                                          ; [] |1358| 
        MOVA      r12,r8                ; [] |1358| 
        MOVA      r13,r9                ; [] |1358| 
        MOVA      r14,r10               ; [] |1358| 
        MOVA      r15,r11               ; [] |1358| 
        MOV.W     #13107,r12            ; [] |1358| 
        MOV.W     #13107,r13            ; [] |1358| 
        MOV.W     #13107,r14            ; [] |1358| 
        MOV.W     #16371,r15            ; [] |1358| 
$C$DW$153	.dwtag  DW_TAG_TI_branch
	.dwattr $C$DW$153, DW_AT_low_pc(0x00)
	.dwattr $C$DW$153, DW_AT_name("__mspabi_mpyd")
	.dwattr $C$DW$153, DW_AT_TI_call

        CALLA     #__mspabi_mpyd        ; [] |1358| 
                                          ; [] |1358| 
        MOVA      r4,r8                 ; [] |1358| 
        MOVA      r5,r9                 ; [] |1358| 
        MOVA      r6,r10                ; [] |1358| 
        MOVA      r7,r11                ; [] |1358| 
$C$DW$154	.dwtag  DW_TAG_TI_branch
	.dwattr $C$DW$154, DW_AT_low_pc(0x00)
	.dwattr $C$DW$154, DW_AT_name("__mspabi_cmpd")
	.dwattr $C$DW$154, DW_AT_TI_call

        CALLA     #__mspabi_cmpd        ; [] |1358| 
                                          ; [] |1358| 
        TST.W     r12                   ; [] |1358| 
        JL        $C$L17                ; [] |1358| 
                                          ; [] |1358| 
;* --------------------------------------------------------------------------*
	.dwpsn	file "../src/start.c",line 1364,column 9,is_stmt,isa 0
        MOV.W     &FC_Burner_air+0,r12  ; [] |1364| 
        MOV.W     &FC_Burner_air+2,r13  ; [] |1364| 
$C$DW$155	.dwtag  DW_TAG_TI_branch
	.dwattr $C$DW$155, DW_AT_low_pc(0x00)
	.dwattr $C$DW$155, DW_AT_name("__mspabi_cvtfd")
	.dwattr $C$DW$155, DW_AT_TI_call

        CALLA     #__mspabi_cvtfd       ; [] |1364| 
                                          ; [] |1364| 
        MOVA      r12,r8                ; [] |1364| 
        MOVA      r13,r9                ; [] |1364| 
        MOVA      r14,r10               ; [] |1364| 
        MOVA      r15,r11               ; [] |1364| 
        MOV.W     #5243,r12             ; [] |1364| 
        MOV.W     #18350,r13            ; [] |1364| 
        MOV.W     #31457,r14            ; [] |1364| 
        MOV.W     #16244,r15            ; [] |1364| 
$C$DW$156	.dwtag  DW_TAG_TI_branch
	.dwattr $C$DW$156, DW_AT_low_pc(0x00)
	.dwattr $C$DW$156, DW_AT_name("__mspabi_subd")
	.dwattr $C$DW$156, DW_AT_TI_call

        CALLA     #__mspabi_subd        ; [] |1364| 
                                          ; [] |1364| 
$C$DW$157	.dwtag  DW_TAG_TI_branch
	.dwattr $C$DW$157, DW_AT_low_pc(0x00)
	.dwattr $C$DW$157, DW_AT_name("__mspabi_cvtdf")
	.dwattr $C$DW$157, DW_AT_TI_call

        CALLA     #__mspabi_cvtdf       ; [] |1364| 
                                          ; [] |1364| 
        MOV.W     r12,&FC_Burner_air+0  ; [] |1364| 
        MOV.W     r13,&FC_Burner_air+2  ; [] |1364| 
        JMP       $C$L18                ; [] |1364| 
                                          ; [] |1364| 
;* --------------------------------------------------------------------------*
$C$L17:    
	.dwpsn	file "../src/start.c",line 1360,column 9,is_stmt,isa 0
        MOV.W     &FC_Burner_air+0,r12  ; [] |1360| 
        MOV.W     &FC_Burner_air+2,r13  ; [] |1360| 
$C$DW$158	.dwtag  DW_TAG_TI_branch
	.dwattr $C$DW$158, DW_AT_low_pc(0x00)
	.dwattr $C$DW$158, DW_AT_name("__mspabi_cvtfd")
	.dwattr $C$DW$158, DW_AT_TI_call

        CALLA     #__mspabi_cvtfd       ; [] |1360| 
                                          ; [] |1360| 
        MOVA      r12,r8                ; [] |1360| 
        MOVA      r13,r9                ; [] |1360| 
        MOVA      r14,r10               ; [] |1360| 
        MOVA      r15,r11               ; [] |1360| 
        MOV.W     #5243,r12             ; [] |1360| 
        MOV.W     #18350,r13            ; [] |1360| 
        MOV.W     #31457,r14            ; [] |1360| 
        MOV.W     #16244,r15            ; [] |1360| 
$C$DW$159	.dwtag  DW_TAG_TI_branch
	.dwattr $C$DW$159, DW_AT_low_pc(0x00)
	.dwattr $C$DW$159, DW_AT_name("__mspabi_addd")
	.dwattr $C$DW$159, DW_AT_TI_call

        CALLA     #__mspabi_addd        ; [] |1360| 
                                          ; [] |1360| 
$C$DW$160	.dwtag  DW_TAG_TI_branch
	.dwattr $C$DW$160, DW_AT_low_pc(0x00)
	.dwattr $C$DW$160, DW_AT_name("__mspabi_cvtdf")
	.dwattr $C$DW$160, DW_AT_TI_call

        CALLA     #__mspabi_cvtdf       ; [] |1360| 
                                          ; [] |1360| 
        MOV.W     r12,&FC_Burner_air+0  ; [] |1360| 
        MOV.W     r13,&FC_Burner_air+2  ; [] |1360| 
;* --------------------------------------------------------------------------*
$C$L18:    
	.dwpsn	file "../src/start.c",line 1366,column 1,is_stmt,isa 0
        POPM.A    #7,r10                ; [] 
	.dwcfi	restore_reg, 4
	.dwcfi	restore_reg, 5
	.dwcfi	restore_reg, 6
	.dwcfi	restore_reg, 7
	.dwcfi	restore_reg, 8
	.dwcfi	restore_reg, 9
	.dwcfi	restore_reg, 10
	.dwcfi	cfa_offset, 4
$C$DW$161	.dwtag  DW_TAG_TI_branch
	.dwattr $C$DW$161, DW_AT_low_pc(0x00)
	.dwattr $C$DW$161, DW_AT_TI_return

        RETA      ; [] 
        ; [] 
	.dwattr $C$DW$124, DW_AT_TI_end_file("../src/start.c")
	.dwattr $C$DW$124, DW_AT_TI_end_line(0x556)
	.dwattr $C$DW$124, DW_AT_TI_end_column(0x01)
	.dwendentry
	.dwendtag $C$DW$124

	.sect	".text:burnerMethAdjust"
	.clink
	.global	burnerMethAdjust

$C$DW$162	.dwtag  DW_TAG_subprogram
	.dwattr $C$DW$162, DW_AT_name("burnerMethAdjust")
	.dwattr $C$DW$162, DW_AT_low_pc(burnerMethAdjust)
	.dwattr $C$DW$162, DW_AT_high_pc(0x00)
	.dwattr $C$DW$162, DW_AT_TI_symbol_name("burnerMethAdjust")
	.dwattr $C$DW$162, DW_AT_external
	.dwattr $C$DW$162, DW_AT_TI_begin_file("../src/start.c")
	.dwattr $C$DW$162, DW_AT_TI_begin_line(0x48e)
	.dwattr $C$DW$162, DW_AT_TI_begin_column(0x06)
	.dwattr $C$DW$162, DW_AT_decl_file("../src/start.c")
	.dwattr $C$DW$162, DW_AT_decl_line(0x48e)
	.dwattr $C$DW$162, DW_AT_decl_column(0x06)
	.dwattr $C$DW$162, DW_AT_TI_max_frame_size(0x20)
	.dwpsn	file "../src/start.c",line 1167,column 1,is_stmt,address burnerMethAdjust,isa 0

	.dwfde $C$DW$CIE, burnerMethAdjust

;*****************************************************************************
;* FUNCTION NAME: burnerMethAdjust                                           *
;*                                                                           *
;*   Regs Modified     : SP,SR,r4,r5,r6,r7,r8,r9,r10,r11,r12,r13,r14,r15     *
;*   Regs Used         : SP,SR,r4,r5,r6,r7,r8,r9,r10,r11,r12,r13,r14,r15     *
;*   Local Frame Size  : 0 Args + 0 Auto + 28 Save = 28 byte                 *
;*****************************************************************************
burnerMethAdjust:
;* --------------------------------------------------------------------------*
	.dwcfi	cfa_offset, 4
	.dwcfi	save_reg_to_mem, 16, -4
        PUSHM.A   #7,r10                ; [] 
	.dwcfi	save_reg_to_mem, 10, -8
	.dwcfi	save_reg_to_mem, 9, -12
	.dwcfi	save_reg_to_mem, 8, -16
	.dwcfi	save_reg_to_mem, 7, -20
	.dwcfi	save_reg_to_mem, 6, -24
	.dwcfi	save_reg_to_mem, 5, -28
	.dwcfi	save_reg_to_mem, 4, -32
	.dwcfi	cfa_offset, 32
	.dwpsn	file "../src/start.c",line 1168,column 5,is_stmt,isa 0
        MOV.B     #1,&burner_fuel+0     ; [] |1168| 
	.dwpsn	file "../src/start.c",line 1170,column 5,is_stmt,isa 0
        MOV.W     &FC_burner_temp+0,r12 ; [] |1170| 
        MOV.W     &FC_burner_temp+2,r13 ; [] |1170| 
        MOV.W     #0,r14                ; [] |1170| 
        MOV.W     #17008,r15            ; [] |1170| 
$C$DW$163	.dwtag  DW_TAG_TI_branch
	.dwattr $C$DW$163, DW_AT_low_pc(0x00)
	.dwattr $C$DW$163, DW_AT_name("__mspabi_cmpf")
	.dwattr $C$DW$163, DW_AT_TI_call

        CALLA     #__mspabi_cmpf        ; [] |1170| 
                                          ; [] |1170| 
        TST.W     r12                   ; [] |1170| 
        JL        $C$L19                ; [] |1170| 
                                          ; [] |1170| 
;* --------------------------------------------------------------------------*
	.dwpsn	file "../src/start.c",line 1177,column 9,is_stmt,isa 0
        AND.B     #239,&PCOUT_L+0       ; [] |1177| 
	.dwpsn	file "../src/start.c",line 1178,column 9,is_stmt,isa 0
        AND.B     #127,&PBOUT_L+0       ; [] |1178| 
        JMP       $C$L20                ; [] |1178| 
                                          ; [] |1178| 
;* --------------------------------------------------------------------------*
$C$L19:    
	.dwpsn	file "../src/start.c",line 1172,column 9,is_stmt,isa 0
        OR.B      #16,&PCOUT_L+0        ; [] |1172| 
	.dwpsn	file "../src/start.c",line 1173,column 9,is_stmt,isa 0
        OR.B      #128,&PBOUT_L+0       ; [] |1173| 
;* --------------------------------------------------------------------------*
$C$L20:    
	.dwpsn	file "../src/start.c",line 1181,column 5,is_stmt,isa 0
        TST.W     &Cold_Heater+0        ; [] |1181| 
        JEQ       $C$L22                ; [] |1181| 
                                          ; [] |1181| 
;* --------------------------------------------------------------------------*
        MOV.W     &FC_burner_temp+0,r12 ; [] |1181| 
        MOV.W     &FC_burner_temp+2,r13 ; [] |1181| 
        MOV.W     #0,r14                ; [] |1181| 
        MOV.W     #16752,r15            ; [] |1181| 
$C$DW$164	.dwtag  DW_TAG_TI_branch
	.dwattr $C$DW$164, DW_AT_low_pc(0x00)
	.dwattr $C$DW$164, DW_AT_name("__mspabi_cmpf")
	.dwattr $C$DW$164, DW_AT_TI_call

        CALLA     #__mspabi_cmpf        ; [] |1181| 
                                          ; [] |1181| 
        TST.W     r12                   ; [] |1181| 
        JGE       $C$L22                ; [] |1181| 
                                          ; [] |1181| 
;* --------------------------------------------------------------------------*
	.dwpsn	file "../src/start.c",line 1183,column 9,is_stmt,isa 0
        SUB.W     #1,&Cold_Heater+0     ; [] |1183| 
	.dwpsn	file "../src/start.c",line 1184,column 9,is_stmt,isa 0
        MOV.W     &FC_Burner_air+0,r12  ; [] |1184| 
        MOV.W     &FC_Burner_air+2,r13  ; [] |1184| 
        MOV.W     #0,r14                ; [] |1184| 
        MOV.W     #16320,r15            ; [] |1184| 
$C$DW$165	.dwtag  DW_TAG_TI_branch
	.dwattr $C$DW$165, DW_AT_low_pc(0x00)
	.dwattr $C$DW$165, DW_AT_name("__mspabi_cmpf")
	.dwattr $C$DW$165, DW_AT_TI_call

        CALLA     #__mspabi_cmpf        ; [] |1184| 
                                          ; [] |1184| 
        TST.W     r12                   ; [] |1184| 
        JL        $C$L21                ; [] |1184| 
                                          ; [] |1184| 
;* --------------------------------------------------------------------------*
	.dwpsn	file "../src/start.c",line 1187,column 13,is_stmt,isa 0
        MOV.W     &FC_Burner_air+0,r12  ; [] |1187| 
        MOV.W     &FC_Burner_air+2,r13  ; [] |1187| 
$C$DW$166	.dwtag  DW_TAG_TI_branch
	.dwattr $C$DW$166, DW_AT_low_pc(0x00)
	.dwattr $C$DW$166, DW_AT_name("__mspabi_cvtfd")
	.dwattr $C$DW$166, DW_AT_TI_call

        CALLA     #__mspabi_cvtfd       ; [] |1187| 
                                          ; [] |1187| 
        MOVA      r12,r8                ; [] |1187| 
        MOVA      r13,r9                ; [] |1187| 
        MOVA      r14,r10               ; [] |1187| 
        MOVA      r15,r11               ; [] |1187| 
        MOV.W     #5243,r12             ; [] |1187| 
        MOV.W     #18350,r13            ; [] |1187| 
        MOV.W     #31457,r14            ; [] |1187| 
        MOV.W     #16244,r15            ; [] |1187| 
$C$DW$167	.dwtag  DW_TAG_TI_branch
	.dwattr $C$DW$167, DW_AT_low_pc(0x00)
	.dwattr $C$DW$167, DW_AT_name("__mspabi_subd")
	.dwattr $C$DW$167, DW_AT_TI_call

        CALLA     #__mspabi_subd        ; [] |1187| 
                                          ; [] |1187| 
$C$DW$168	.dwtag  DW_TAG_TI_branch
	.dwattr $C$DW$168, DW_AT_low_pc(0x00)
	.dwattr $C$DW$168, DW_AT_name("__mspabi_cvtdf")
	.dwattr $C$DW$168, DW_AT_TI_call

        CALLA     #__mspabi_cvtdf       ; [] |1187| 
                                          ; [] |1187| 
        MOV.W     r12,&FC_Burner_air+0  ; [] |1187| 
        MOV.W     r13,&FC_Burner_air+2  ; [] |1187| 
        JMP       $C$L43                ; [] |1187| 
                                          ; [] |1187| 
;* --------------------------------------------------------------------------*
$C$L21:    
	.dwpsn	file "../src/start.c",line 1185,column 13,is_stmt,isa 0
        MOV.W     &FC_Burner_air+0,r12  ; [] |1185| 
        MOV.W     &FC_Burner_air+2,r13  ; [] |1185| 
$C$DW$169	.dwtag  DW_TAG_TI_branch
	.dwattr $C$DW$169, DW_AT_low_pc(0x00)
	.dwattr $C$DW$169, DW_AT_name("__mspabi_cvtfd")
	.dwattr $C$DW$169, DW_AT_TI_call

        CALLA     #__mspabi_cvtfd       ; [] |1185| 
                                          ; [] |1185| 
        MOVA      r12,r8                ; [] |1185| 
        MOVA      r13,r9                ; [] |1185| 
        MOVA      r14,r10               ; [] |1185| 
        MOVA      r15,r11               ; [] |1185| 
        MOV.W     #5243,r12             ; [] |1185| 
        MOV.W     #18350,r13            ; [] |1185| 
        MOV.W     #31457,r14            ; [] |1185| 
        MOV.W     #16260,r15            ; [] |1185| 
$C$DW$170	.dwtag  DW_TAG_TI_branch
	.dwattr $C$DW$170, DW_AT_low_pc(0x00)
	.dwattr $C$DW$170, DW_AT_name("__mspabi_addd")
	.dwattr $C$DW$170, DW_AT_TI_call

        CALLA     #__mspabi_addd        ; [] |1185| 
                                          ; [] |1185| 
$C$DW$171	.dwtag  DW_TAG_TI_branch
	.dwattr $C$DW$171, DW_AT_low_pc(0x00)
	.dwattr $C$DW$171, DW_AT_name("__mspabi_cvtdf")
	.dwattr $C$DW$171, DW_AT_TI_call

        CALLA     #__mspabi_cvtdf       ; [] |1185| 
                                          ; [] |1185| 
        MOV.W     r12,&FC_Burner_air+0  ; [] |1185| 
        MOV.W     r13,&FC_Burner_air+2  ; [] |1185| 
        JMP       $C$L43                ; [] 
                                          ; [] 
;* --------------------------------------------------------------------------*
$C$L22:    
	.dwpsn	file "../src/start.c",line 1191,column 9,is_stmt,isa 0
        MOV.W     #0,&Cold_Heater+0     ; [] |1191| 
	.dwpsn	file "../src/start.c",line 1192,column 9,is_stmt,isa 0
        MOV.W     &FC_Burner_Methanol_flow+0,r12 ; [] |1192| 
        MOV.W     &FC_Burner_Methanol_flow+2,r13 ; [] |1192| 
        MOV.W     #0,r14                ; [] |1192| 
        MOV.W     #16256,r15            ; [] |1192| 
$C$DW$172	.dwtag  DW_TAG_TI_branch
	.dwattr $C$DW$172, DW_AT_low_pc(0x00)
	.dwattr $C$DW$172, DW_AT_name("__mspabi_cmpf")
	.dwattr $C$DW$172, DW_AT_TI_call

        CALLA     #__mspabi_cmpf        ; [] |1192| 
                                          ; [] |1192| 
        TST.W     r12                   ; [] |1192| 
        JGE       $C$L23                ; [] |1192| 
                                          ; [] |1192| 
;* --------------------------------------------------------------------------*
	.dwpsn	file "../src/start.c",line 1193,column 13,is_stmt,isa 0
        MOV.W     &FC_burner_temp+0,&FC_Burner_Ignite_temp+0 ; [] |1193| 
        MOV.W     &FC_burner_temp+2,&FC_Burner_Ignite_temp+2 ; [] |1193| 
;* --------------------------------------------------------------------------*
$C$L23:    
	.dwpsn	file "../src/start.c",line 1195,column 9,is_stmt,isa 0
        TST.B     &FC_Burner_Ignite_Failure+0 ; [] |1195| 
        JNE       $C$L27                ; [] |1195| 
                                          ; [] |1195| 
;* --------------------------------------------------------------------------*
	.dwpsn	file "../src/start.c",line 1204,column 14,is_stmt,isa 0
        CMP.W     #500,&Pump_Startup+0  ; [] |1204| 
        JL        $C$L26                ; [] |1204| 
                                          ; [] |1204| 
;* --------------------------------------------------------------------------*
	.dwpsn	file "../src/start.c",line 1211,column 13,is_stmt,isa 0
        TST.B     &FC_Burner_On+0       ; [] |1211| 
        JNE       $C$L24                ; [] |1211| 
                                          ; [] |1211| 
;* --------------------------------------------------------------------------*
        MOV.W     #0,r12                ; [] |1211| 
        MOV.W     #17096,r13            ; [] |1211| 
        MOV.W     &TC1_temp+0,r14       ; [] |1211| 
        MOV.W     &TC1_temp+2,r15       ; [] |1211| 
$C$DW$173	.dwtag  DW_TAG_TI_branch
	.dwattr $C$DW$173, DW_AT_low_pc(0x00)
	.dwattr $C$DW$173, DW_AT_name("__mspabi_cmpf")
	.dwattr $C$DW$173, DW_AT_TI_call

        CALLA     #__mspabi_cmpf        ; [] |1211| 
                                          ; [] |1211| 
        TST.W     r12                   ; [] |1211| 
        JL        $C$L24                ; [] |1211| 
                                          ; [] |1211| 
;* --------------------------------------------------------------------------*
        MOV.W     &FC_burner_temp+0,r12 ; [] |1211| 
        MOV.W     &FC_burner_temp+2,r13 ; [] |1211| 
        MOV.W     #0,r14                ; [] |1211| 
        MOV.W     #17174,r15            ; [] |1211| 
$C$DW$174	.dwtag  DW_TAG_TI_branch
	.dwattr $C$DW$174, DW_AT_low_pc(0x00)
	.dwattr $C$DW$174, DW_AT_name("__mspabi_cmpf")
	.dwattr $C$DW$174, DW_AT_TI_call

        CALLA     #__mspabi_cmpf        ; [] |1211| 
                                          ; [] |1211| 
        TST.W     r12                   ; [] |1211| 
        JGE       $C$L24                ; [] |1211| 
                                          ; [] |1211| 
;* --------------------------------------------------------------------------*
	.dwpsn	file "../src/start.c",line 1214,column 17,is_stmt,isa 0
        MOV.B     #1,&FC_Burner_On+0    ; [] |1214| 
;* --------------------------------------------------------------------------*
$C$L24:    
	.dwpsn	file "../src/start.c",line 1216,column 13,is_stmt,isa 0
        MOV.W     #0,r12                ; [] |1216| 
        MOV.W     #17096,r13            ; [] |1216| 
        MOV.W     &TC1_temp+0,r14       ; [] |1216| 
        MOV.W     &TC1_temp+2,r15       ; [] |1216| 
$C$DW$175	.dwtag  DW_TAG_TI_branch
	.dwattr $C$DW$175, DW_AT_low_pc(0x00)
	.dwattr $C$DW$175, DW_AT_name("__mspabi_cmpf")
	.dwattr $C$DW$175, DW_AT_TI_call

        CALLA     #__mspabi_cmpf        ; [] |1216| 
                                          ; [] |1216| 
        TST.W     r12                   ; [] |1216| 
        JL        $C$L25                ; [] |1216| 
                                          ; [] |1216| 
;* --------------------------------------------------------------------------*
        MOV.W     #0,r12                ; [] |1216| 
        MOV.W     #17214,r13            ; [] |1216| 
        MOV.W     &FC_burner_temp+0,r14 ; [] |1216| 
        MOV.W     &FC_burner_temp+2,r15 ; [] |1216| 
$C$DW$176	.dwtag  DW_TAG_TI_branch
	.dwattr $C$DW$176, DW_AT_low_pc(0x00)
	.dwattr $C$DW$176, DW_AT_name("__mspabi_cmpf")
	.dwattr $C$DW$176, DW_AT_TI_call

        CALLA     #__mspabi_cmpf        ; [] |1216| 
                                          ; [] |1216| 
        TST.W     r12                   ; [] |1216| 
        JGE       $C$L30                ; [] |1216| 
                                          ; [] |1216| 
;* --------------------------------------------------------------------------*
$C$L25:    
	.dwpsn	file "../src/start.c",line 1218,column 17,is_stmt,isa 0
        MOV.B     #0,&FC_Burner_On+0    ; [] |1218| 
        JMP       $C$L30                ; [] |1218| 
                                          ; [] |1218| 
;* --------------------------------------------------------------------------*
$C$L26:    
	.dwpsn	file "../src/start.c",line 1206,column 13,is_stmt,isa 0
        ADD.W     #1,&Pump_Startup+0    ; [] |1206| 
	.dwpsn	file "../src/start.c",line 1207,column 13,is_stmt,isa 0
        MOV.B     #1,&FC_Burner_On+0    ; [] |1207| 
        JMP       $C$L30                ; [] 
                                          ; [] 
;* --------------------------------------------------------------------------*
$C$L27:    
	.dwpsn	file "../src/start.c",line 1197,column 13,is_stmt,isa 0
        CMP.W     #1,&Pump_Off_Counter+0 ; [] |1197| 
        JGE       $C$L28                ; [] |1197| 
                                          ; [] |1197| 
;* --------------------------------------------------------------------------*
	.dwpsn	file "../src/start.c",line 1200,column 17,is_stmt,isa 0
        MOV.B     #0,&FC_Burner_Ignite_Failure+0 ; [] |1200| 
        JMP       $C$L29                ; [] |1200| 
                                          ; [] |1200| 
;* --------------------------------------------------------------------------*
$C$L28:    
	.dwpsn	file "../src/start.c",line 1198,column 17,is_stmt,isa 0
        SUB.W     #1,&Pump_Off_Counter+0 ; [] |1198| 
;* --------------------------------------------------------------------------*
$C$L29:    
	.dwpsn	file "../src/start.c",line 1201,column 13,is_stmt,isa 0
        MOV.W     #0,&FC_Burner_Methanol_flow+0 ; [] |1201| 
        MOV.W     #0,&FC_Burner_Methanol_flow+2 ; [] |1201| 
	.dwpsn	file "../src/start.c",line 1202,column 13,is_stmt,isa 0
        MOV.W     #0,&Pump_Startup+0    ; [] |1202| 
;* --------------------------------------------------------------------------*
$C$L30:    
	.dwpsn	file "../src/start.c",line 1222,column 9,is_stmt,isa 0
        TST.B     &FC_Burner_On+0       ; [] |1222| 
        JNE       $C$L32                ; [] |1222| 
                                          ; [] |1222| 
;* --------------------------------------------------------------------------*
	.dwpsn	file "../src/start.c",line 1249,column 13,is_stmt,isa 0
        MOV.W     #0,r12                ; [] |1249| 
        MOV.W     #0,r13                ; [] |1249| 
        MOV.W     &FC_Burner_Methanol_flow+0,r14 ; [] |1249| 
        MOV.W     &FC_Burner_Methanol_flow+2,r15 ; [] |1249| 
$C$DW$177	.dwtag  DW_TAG_TI_branch
	.dwattr $C$DW$177, DW_AT_low_pc(0x00)
	.dwattr $C$DW$177, DW_AT_name("__mspabi_cmpf")
	.dwattr $C$DW$177, DW_AT_TI_call

        CALLA     #__mspabi_cmpf        ; [] |1249| 
                                          ; [] |1249| 
        TST.W     r12                   ; [] |1249| 
        JL        $C$L31                ; [] |1249| 
                                          ; [] |1249| 
;* --------------------------------------------------------------------------*
	.dwpsn	file "../src/start.c",line 1252,column 17,is_stmt,isa 0
        MOV.W     #0,&FC_Burner_Methanol_flow+0 ; [] |1252| 
        MOV.W     #0,&FC_Burner_Methanol_flow+2 ; [] |1252| 
        JMP       $C$L40                ; [] |1252| 
                                          ; [] |1252| 
;* --------------------------------------------------------------------------*
$C$L31:    
	.dwpsn	file "../src/start.c",line 1250,column 17,is_stmt,isa 0
        MOV.W     &FC_Burner_Methanol_flow+0,r12 ; [] |1250| 
        MOV.W     &FC_Burner_Methanol_flow+2,r13 ; [] |1250| 
$C$DW$178	.dwtag  DW_TAG_TI_branch
	.dwattr $C$DW$178, DW_AT_low_pc(0x00)
	.dwattr $C$DW$178, DW_AT_name("__mspabi_cvtfd")
	.dwattr $C$DW$178, DW_AT_TI_call

        CALLA     #__mspabi_cvtfd       ; [] |1250| 
                                          ; [] |1250| 
        MOVA      r12,r8                ; [] |1250| 
        MOVA      r13,r9                ; [] |1250| 
        MOVA      r14,r10               ; [] |1250| 
        MOVA      r15,r11               ; [] |1250| 
        MOV.W     #39322,r12            ; [] |1250| 
        MOV.W     #39321,r13            ; [] |1250| 
        MOV.W     #39321,r14            ; [] |1250| 
        MOV.W     #16297,r15            ; [] |1250| 
$C$DW$179	.dwtag  DW_TAG_TI_branch
	.dwattr $C$DW$179, DW_AT_low_pc(0x00)
	.dwattr $C$DW$179, DW_AT_name("__mspabi_subd")
	.dwattr $C$DW$179, DW_AT_TI_call

        CALLA     #__mspabi_subd        ; [] |1250| 
                                          ; [] |1250| 
$C$DW$180	.dwtag  DW_TAG_TI_branch
	.dwattr $C$DW$180, DW_AT_low_pc(0x00)
	.dwattr $C$DW$180, DW_AT_name("__mspabi_cvtdf")
	.dwattr $C$DW$180, DW_AT_TI_call

        CALLA     #__mspabi_cvtdf       ; [] |1250| 
                                          ; [] |1250| 
        MOV.W     r12,&FC_Burner_Methanol_flow+0 ; [] |1250| 
        MOV.W     r13,&FC_Burner_Methanol_flow+2 ; [] |1250| 
        JMP       $C$L40                ; [] 
                                          ; [] 
;* --------------------------------------------------------------------------*
$C$L32:    
	.dwpsn	file "../src/start.c",line 1224,column 13,is_stmt,isa 0
        MOV.W     &FC_burner_temp+0,r12 ; [] |1224| 
        MOV.W     &FC_burner_temp+2,r13 ; [] |1224| 
        MOV.W     #0,r14                ; [] |1224| 
        MOV.W     #17008,r15            ; [] |1224| 
$C$DW$181	.dwtag  DW_TAG_TI_branch
	.dwattr $C$DW$181, DW_AT_low_pc(0x00)
	.dwattr $C$DW$181, DW_AT_name("__mspabi_cmpf")
	.dwattr $C$DW$181, DW_AT_TI_call

        CALLA     #__mspabi_cmpf        ; [] |1224| 
                                          ; [] |1224| 
        TST.W     r12                   ; [] |1224| 
        JL        $C$L35                ; [] |1224| 
                                          ; [] |1224| 
;* --------------------------------------------------------------------------*
	.dwpsn	file "../src/start.c",line 1235,column 17,is_stmt,isa 0
        MOV.W     #0,r12                ; [] |1235| 
        MOV.W     #16936,r13            ; [] |1235| 
        MOV.W     &FC_Burner_Methanol_flow+0,r14 ; [] |1235| 
        MOV.W     &FC_Burner_Methanol_flow+2,r15 ; [] |1235| 
$C$DW$182	.dwtag  DW_TAG_TI_branch
	.dwattr $C$DW$182, DW_AT_low_pc(0x00)
	.dwattr $C$DW$182, DW_AT_name("__mspabi_cmpf")
	.dwattr $C$DW$182, DW_AT_TI_call

        CALLA     #__mspabi_cmpf        ; [] |1235| 
                                          ; [] |1235| 
        TST.W     r12                   ; [] |1235| 
        JL        $C$L34                ; [] |1235| 
                                          ; [] |1235| 
;* --------------------------------------------------------------------------*
	.dwpsn	file "../src/start.c",line 1237,column 22,is_stmt,isa 0
        MOV.W     &FC_Burner_Methanol_flow+0,r12 ; [] |1237| 
        MOV.W     &FC_Burner_Methanol_flow+2,r13 ; [] |1237| 
        MOV.W     #0,r14                ; [] |1237| 
        MOV.W     #16936,r15            ; [] |1237| 
$C$DW$183	.dwtag  DW_TAG_TI_branch
	.dwattr $C$DW$183, DW_AT_low_pc(0x00)
	.dwattr $C$DW$183, DW_AT_name("__mspabi_cmpf")
	.dwattr $C$DW$183, DW_AT_TI_call

        CALLA     #__mspabi_cmpf        ; [] |1237| 
                                          ; [] |1237| 
        TST.W     r12                   ; [] |1237| 
        JL        $C$L33                ; [] |1237| 
                                          ; [] |1237| 
;* --------------------------------------------------------------------------*
	.dwpsn	file "../src/start.c",line 1240,column 21,is_stmt,isa 0
        MOV.W     #0,&FC_Burner_Methanol_flow+0 ; [] |1240| 
        MOV.W     #16936,&FC_Burner_Methanol_flow+2 ; [] |1240| 
        JMP       $C$L38                ; [] |1240| 
                                          ; [] |1240| 
;* --------------------------------------------------------------------------*
$C$L33:    
	.dwpsn	file "../src/start.c",line 1238,column 21,is_stmt,isa 0
        MOV.W     &FC_Burner_Methanol_flow+0,r12 ; [] |1238| 
        MOV.W     &FC_Burner_Methanol_flow+2,r13 ; [] |1238| 
$C$DW$184	.dwtag  DW_TAG_TI_branch
	.dwattr $C$DW$184, DW_AT_low_pc(0x00)
	.dwattr $C$DW$184, DW_AT_name("__mspabi_cvtfd")
	.dwattr $C$DW$184, DW_AT_TI_call

        CALLA     #__mspabi_cvtfd       ; [] |1238| 
                                          ; [] |1238| 
        MOVA      r12,r8                ; [] |1238| 
        MOVA      r13,r9                ; [] |1238| 
        MOVA      r14,r10               ; [] |1238| 
        MOVA      r15,r11               ; [] |1238| 
        MOV.W     #39322,r12            ; [] |1238| 
        MOV.W     #39321,r13            ; [] |1238| 
        MOV.W     #39321,r14            ; [] |1238| 
        MOV.W     #16297,r15            ; [] |1238| 
$C$DW$185	.dwtag  DW_TAG_TI_branch
	.dwattr $C$DW$185, DW_AT_low_pc(0x00)
	.dwattr $C$DW$185, DW_AT_name("__mspabi_addd")
	.dwattr $C$DW$185, DW_AT_TI_call

        CALLA     #__mspabi_addd        ; [] |1238| 
                                          ; [] |1238| 
$C$DW$186	.dwtag  DW_TAG_TI_branch
	.dwattr $C$DW$186, DW_AT_low_pc(0x00)
	.dwattr $C$DW$186, DW_AT_name("__mspabi_cvtdf")
	.dwattr $C$DW$186, DW_AT_TI_call

        CALLA     #__mspabi_cvtdf       ; [] |1238| 
                                          ; [] |1238| 
        MOV.W     r12,&FC_Burner_Methanol_flow+0 ; [] |1238| 
        MOV.W     r13,&FC_Burner_Methanol_flow+2 ; [] |1238| 
        JMP       $C$L38                ; [] 
                                          ; [] 
;* --------------------------------------------------------------------------*
$C$L34:    
	.dwpsn	file "../src/start.c",line 1236,column 21,is_stmt,isa 0
        MOV.W     &FC_Burner_Methanol_flow+0,r12 ; [] |1236| 
        MOV.W     &FC_Burner_Methanol_flow+2,r13 ; [] |1236| 
$C$DW$187	.dwtag  DW_TAG_TI_branch
	.dwattr $C$DW$187, DW_AT_low_pc(0x00)
	.dwattr $C$DW$187, DW_AT_name("__mspabi_cvtfd")
	.dwattr $C$DW$187, DW_AT_TI_call

        CALLA     #__mspabi_cvtfd       ; [] |1236| 
                                          ; [] |1236| 
        MOVA      r12,r8                ; [] |1236| 
        MOVA      r13,r9                ; [] |1236| 
        MOVA      r14,r10               ; [] |1236| 
        MOVA      r15,r11               ; [] |1236| 
        MOV.W     #39322,r12            ; [] |1236| 
        MOV.W     #39321,r13            ; [] |1236| 
        MOV.W     #39321,r14            ; [] |1236| 
        MOV.W     #16297,r15            ; [] |1236| 
$C$DW$188	.dwtag  DW_TAG_TI_branch
	.dwattr $C$DW$188, DW_AT_low_pc(0x00)
	.dwattr $C$DW$188, DW_AT_name("__mspabi_subd")
	.dwattr $C$DW$188, DW_AT_TI_call

        CALLA     #__mspabi_subd        ; [] |1236| 
                                          ; [] |1236| 
$C$DW$189	.dwtag  DW_TAG_TI_branch
	.dwattr $C$DW$189, DW_AT_low_pc(0x00)
	.dwattr $C$DW$189, DW_AT_name("__mspabi_cvtdf")
	.dwattr $C$DW$189, DW_AT_TI_call

        CALLA     #__mspabi_cvtdf       ; [] |1236| 
                                          ; [] |1236| 
        MOV.W     r12,&FC_Burner_Methanol_flow+0 ; [] |1236| 
        MOV.W     r13,&FC_Burner_Methanol_flow+2 ; [] |1236| 
        JMP       $C$L38                ; [] 
                                          ; [] 
;* --------------------------------------------------------------------------*
$C$L35:    
	.dwpsn	file "../src/start.c",line 1226,column 17,is_stmt,isa 0
        MOV.W     #0,r12                ; [] |1226| 
        MOV.W     #16880,r13            ; [] |1226| 
        MOV.W     &FC_Burner_Methanol_flow+0,r14 ; [] |1226| 
        MOV.W     &FC_Burner_Methanol_flow+2,r15 ; [] |1226| 
$C$DW$190	.dwtag  DW_TAG_TI_branch
	.dwattr $C$DW$190, DW_AT_low_pc(0x00)
	.dwattr $C$DW$190, DW_AT_name("__mspabi_cmpf")
	.dwattr $C$DW$190, DW_AT_TI_call

        CALLA     #__mspabi_cmpf        ; [] |1226| 
                                          ; [] |1226| 
        TST.W     r12                   ; [] |1226| 
        JL        $C$L37                ; [] |1226| 
                                          ; [] |1226| 
;* --------------------------------------------------------------------------*
	.dwpsn	file "../src/start.c",line 1228,column 22,is_stmt,isa 0
        MOV.W     &FC_Burner_Methanol_flow+0,r12 ; [] |1228| 
        MOV.W     &FC_Burner_Methanol_flow+2,r13 ; [] |1228| 
        MOV.W     #0,r14                ; [] |1228| 
        MOV.W     #16880,r15            ; [] |1228| 
$C$DW$191	.dwtag  DW_TAG_TI_branch
	.dwattr $C$DW$191, DW_AT_low_pc(0x00)
	.dwattr $C$DW$191, DW_AT_name("__mspabi_cmpf")
	.dwattr $C$DW$191, DW_AT_TI_call

        CALLA     #__mspabi_cmpf        ; [] |1228| 
                                          ; [] |1228| 
        TST.W     r12                   ; [] |1228| 
        JL        $C$L36                ; [] |1228| 
                                          ; [] |1228| 
;* --------------------------------------------------------------------------*
	.dwpsn	file "../src/start.c",line 1231,column 21,is_stmt,isa 0
        MOV.W     #0,&FC_Burner_Methanol_flow+0 ; [] |1231| 
        MOV.W     #16880,&FC_Burner_Methanol_flow+2 ; [] |1231| 
        JMP       $C$L38                ; [] |1231| 
                                          ; [] |1231| 
;* --------------------------------------------------------------------------*
$C$L36:    
	.dwpsn	file "../src/start.c",line 1229,column 21,is_stmt,isa 0
        MOV.W     &FC_Burner_Methanol_flow+0,r12 ; [] |1229| 
        MOV.W     &FC_Burner_Methanol_flow+2,r13 ; [] |1229| 
$C$DW$192	.dwtag  DW_TAG_TI_branch
	.dwattr $C$DW$192, DW_AT_low_pc(0x00)
	.dwattr $C$DW$192, DW_AT_name("__mspabi_cvtfd")
	.dwattr $C$DW$192, DW_AT_TI_call

        CALLA     #__mspabi_cvtfd       ; [] |1229| 
                                          ; [] |1229| 
        MOVA      r12,r8                ; [] |1229| 
        MOVA      r13,r9                ; [] |1229| 
        MOVA      r14,r10               ; [] |1229| 
        MOVA      r15,r11               ; [] |1229| 
        MOV.W     #39322,r12            ; [] |1229| 
        MOV.W     #39321,r13            ; [] |1229| 
        MOV.W     #39321,r14            ; [] |1229| 
        MOV.W     #16297,r15            ; [] |1229| 
$C$DW$193	.dwtag  DW_TAG_TI_branch
	.dwattr $C$DW$193, DW_AT_low_pc(0x00)
	.dwattr $C$DW$193, DW_AT_name("__mspabi_addd")
	.dwattr $C$DW$193, DW_AT_TI_call

        CALLA     #__mspabi_addd        ; [] |1229| 
                                          ; [] |1229| 
$C$DW$194	.dwtag  DW_TAG_TI_branch
	.dwattr $C$DW$194, DW_AT_low_pc(0x00)
	.dwattr $C$DW$194, DW_AT_name("__mspabi_cvtdf")
	.dwattr $C$DW$194, DW_AT_TI_call

        CALLA     #__mspabi_cvtdf       ; [] |1229| 
                                          ; [] |1229| 
        MOV.W     r12,&FC_Burner_Methanol_flow+0 ; [] |1229| 
        MOV.W     r13,&FC_Burner_Methanol_flow+2 ; [] |1229| 
        JMP       $C$L38                ; [] 
                                          ; [] 
;* --------------------------------------------------------------------------*
$C$L37:    
	.dwpsn	file "../src/start.c",line 1227,column 21,is_stmt,isa 0
        MOV.W     &FC_Burner_Methanol_flow+0,r12 ; [] |1227| 
        MOV.W     &FC_Burner_Methanol_flow+2,r13 ; [] |1227| 
$C$DW$195	.dwtag  DW_TAG_TI_branch
	.dwattr $C$DW$195, DW_AT_low_pc(0x00)
	.dwattr $C$DW$195, DW_AT_name("__mspabi_cvtfd")
	.dwattr $C$DW$195, DW_AT_TI_call

        CALLA     #__mspabi_cvtfd       ; [] |1227| 
                                          ; [] |1227| 
        MOVA      r12,r8                ; [] |1227| 
        MOVA      r13,r9                ; [] |1227| 
        MOVA      r14,r10               ; [] |1227| 
        MOVA      r15,r11               ; [] |1227| 
        MOV.W     #39322,r12            ; [] |1227| 
        MOV.W     #39321,r13            ; [] |1227| 
        MOV.W     #39321,r14            ; [] |1227| 
        MOV.W     #16297,r15            ; [] |1227| 
$C$DW$196	.dwtag  DW_TAG_TI_branch
	.dwattr $C$DW$196, DW_AT_low_pc(0x00)
	.dwattr $C$DW$196, DW_AT_name("__mspabi_subd")
	.dwattr $C$DW$196, DW_AT_TI_call

        CALLA     #__mspabi_subd        ; [] |1227| 
                                          ; [] |1227| 
$C$DW$197	.dwtag  DW_TAG_TI_branch
	.dwattr $C$DW$197, DW_AT_low_pc(0x00)
	.dwattr $C$DW$197, DW_AT_name("__mspabi_cvtdf")
	.dwattr $C$DW$197, DW_AT_TI_call

        CALLA     #__mspabi_cvtdf       ; [] |1227| 
                                          ; [] |1227| 
        MOV.W     r12,&FC_Burner_Methanol_flow+0 ; [] |1227| 
        MOV.W     r13,&FC_Burner_Methanol_flow+2 ; [] |1227| 
;* --------------------------------------------------------------------------*
$C$L38:    
	.dwpsn	file "../src/start.c",line 1242,column 13,is_stmt,isa 0
        MOV.W     &FC_Burner_air+0,r12  ; [] |1242| 
        MOV.W     &FC_Burner_air+2,r13  ; [] |1242| 
$C$DW$198	.dwtag  DW_TAG_TI_branch
	.dwattr $C$DW$198, DW_AT_low_pc(0x00)
	.dwattr $C$DW$198, DW_AT_name("__mspabi_cvtfd")
	.dwattr $C$DW$198, DW_AT_TI_call

        CALLA     #__mspabi_cvtfd       ; [] |1242| 
                                          ; [] |1242| 
        MOVA      r12,r4                ; [] |1242| 
        MOVA      r13,r5                ; [] |1242| 
        MOVA      r14,r6                ; [] |1242| 
        MOVA      r15,r7                ; [] |1242| 
        MOV.W     &FC_Burner_Methanol_flow+0,r12 ; [] |1242| 
        MOV.W     &FC_Burner_Methanol_flow+2,r13 ; [] |1242| 
$C$DW$199	.dwtag  DW_TAG_TI_branch
	.dwattr $C$DW$199, DW_AT_low_pc(0x00)
	.dwattr $C$DW$199, DW_AT_name("__mspabi_cvtfd")
	.dwattr $C$DW$199, DW_AT_TI_call

        CALLA     #__mspabi_cvtfd       ; [] |1242| 
                                          ; [] |1242| 
        MOVA      r12,r8                ; [] |1242| 
        MOVA      r13,r9                ; [] |1242| 
        MOVA      r14,r10               ; [] |1242| 
        MOVA      r15,r11               ; [] |1242| 
        MOV.W     #65117,r12            ; [] |1242| 
        MOV.W     #64067,r13            ; [] |1242| 
        MOV.W     #60397,r14            ; [] |1242| 
        MOV.W     #16304,r15            ; [] |1242| 
$C$DW$200	.dwtag  DW_TAG_TI_branch
	.dwattr $C$DW$200, DW_AT_low_pc(0x00)
	.dwattr $C$DW$200, DW_AT_name("__mspabi_mpyd")
	.dwattr $C$DW$200, DW_AT_TI_call

        CALLA     #__mspabi_mpyd        ; [] |1242| 
                                          ; [] |1242| 
        MOVA      r12,r8                ; [] |1242| 
        MOVA      r13,r9                ; [] |1242| 
        MOVA      r14,r10               ; [] |1242| 
        MOVA      r15,r11               ; [] |1242| 
        MOV.W     #13107,r12            ; [] |1242| 
        MOV.W     #13107,r13            ; [] |1242| 
        MOV.W     #13107,r14            ; [] |1242| 
        MOV.W     #16371,r15            ; [] |1242| 
$C$DW$201	.dwtag  DW_TAG_TI_branch
	.dwattr $C$DW$201, DW_AT_low_pc(0x00)
	.dwattr $C$DW$201, DW_AT_name("__mspabi_mpyd")
	.dwattr $C$DW$201, DW_AT_TI_call

        CALLA     #__mspabi_mpyd        ; [] |1242| 
                                          ; [] |1242| 
        MOVA      r4,r8                 ; [] |1242| 
        MOVA      r5,r9                 ; [] |1242| 
        MOVA      r6,r10                ; [] |1242| 
        MOVA      r7,r11                ; [] |1242| 
$C$DW$202	.dwtag  DW_TAG_TI_branch
	.dwattr $C$DW$202, DW_AT_low_pc(0x00)
	.dwattr $C$DW$202, DW_AT_name("__mspabi_cmpd")
	.dwattr $C$DW$202, DW_AT_TI_call

        CALLA     #__mspabi_cmpd        ; [] |1242| 
                                          ; [] |1242| 
        TST.W     r12                   ; [] |1242| 
        JL        $C$L39                ; [] |1242| 
                                          ; [] |1242| 
;* --------------------------------------------------------------------------*
	.dwpsn	file "../src/start.c",line 1245,column 17,is_stmt,isa 0
        MOV.W     &FC_Burner_air+0,r12  ; [] |1245| 
        MOV.W     &FC_Burner_air+2,r13  ; [] |1245| 
$C$DW$203	.dwtag  DW_TAG_TI_branch
	.dwattr $C$DW$203, DW_AT_low_pc(0x00)
	.dwattr $C$DW$203, DW_AT_name("__mspabi_cvtfd")
	.dwattr $C$DW$203, DW_AT_TI_call

        CALLA     #__mspabi_cvtfd       ; [] |1245| 
                                          ; [] |1245| 
        MOVA      r12,r8                ; [] |1245| 
        MOVA      r13,r9                ; [] |1245| 
        MOVA      r14,r10               ; [] |1245| 
        MOVA      r15,r11               ; [] |1245| 
        MOV.W     #5243,r12             ; [] |1245| 
        MOV.W     #18350,r13            ; [] |1245| 
        MOV.W     #31457,r14            ; [] |1245| 
        MOV.W     #16244,r15            ; [] |1245| 
$C$DW$204	.dwtag  DW_TAG_TI_branch
	.dwattr $C$DW$204, DW_AT_low_pc(0x00)
	.dwattr $C$DW$204, DW_AT_name("__mspabi_subd")
	.dwattr $C$DW$204, DW_AT_TI_call

        CALLA     #__mspabi_subd        ; [] |1245| 
                                          ; [] |1245| 
$C$DW$205	.dwtag  DW_TAG_TI_branch
	.dwattr $C$DW$205, DW_AT_low_pc(0x00)
	.dwattr $C$DW$205, DW_AT_name("__mspabi_cvtdf")
	.dwattr $C$DW$205, DW_AT_TI_call

        CALLA     #__mspabi_cvtdf       ; [] |1245| 
                                          ; [] |1245| 
        MOV.W     r12,&FC_Burner_air+0  ; [] |1245| 
        MOV.W     r13,&FC_Burner_air+2  ; [] |1245| 
        JMP       $C$L40                ; [] |1245| 
                                          ; [] |1245| 
;* --------------------------------------------------------------------------*
$C$L39:    
	.dwpsn	file "../src/start.c",line 1243,column 17,is_stmt,isa 0
        MOV.W     &FC_Burner_air+0,r12  ; [] |1243| 
        MOV.W     &FC_Burner_air+2,r13  ; [] |1243| 
$C$DW$206	.dwtag  DW_TAG_TI_branch
	.dwattr $C$DW$206, DW_AT_low_pc(0x00)
	.dwattr $C$DW$206, DW_AT_name("__mspabi_cvtfd")
	.dwattr $C$DW$206, DW_AT_TI_call

        CALLA     #__mspabi_cvtfd       ; [] |1243| 
                                          ; [] |1243| 
        MOVA      r12,r8                ; [] |1243| 
        MOVA      r13,r9                ; [] |1243| 
        MOVA      r14,r10               ; [] |1243| 
        MOVA      r15,r11               ; [] |1243| 
        MOV.W     #5243,r12             ; [] |1243| 
        MOV.W     #18350,r13            ; [] |1243| 
        MOV.W     #31457,r14            ; [] |1243| 
        MOV.W     #16244,r15            ; [] |1243| 
$C$DW$207	.dwtag  DW_TAG_TI_branch
	.dwattr $C$DW$207, DW_AT_low_pc(0x00)
	.dwattr $C$DW$207, DW_AT_name("__mspabi_addd")
	.dwattr $C$DW$207, DW_AT_TI_call

        CALLA     #__mspabi_addd        ; [] |1243| 
                                          ; [] |1243| 
$C$DW$208	.dwtag  DW_TAG_TI_branch
	.dwattr $C$DW$208, DW_AT_low_pc(0x00)
	.dwattr $C$DW$208, DW_AT_name("__mspabi_cvtdf")
	.dwattr $C$DW$208, DW_AT_TI_call

        CALLA     #__mspabi_cvtdf       ; [] |1243| 
                                          ; [] |1243| 
        MOV.W     r12,&FC_Burner_air+0  ; [] |1243| 
        MOV.W     r13,&FC_Burner_air+2  ; [] |1243| 
;* --------------------------------------------------------------------------*
$C$L40:    
	.dwpsn	file "../src/start.c",line 1255,column 9,is_stmt,isa 0
        TST.B     &FC_Burner_Ignite_Failure+0 ; [] |1255| 
        JNE       $C$L43                ; [] |1255| 
                                          ; [] |1255| 
;* --------------------------------------------------------------------------*
	.dwpsn	file "../src/start.c",line 1257,column 13,is_stmt,isa 0
        MOV.W     &FC_burner_temp+0,r12 ; [] |1257| 
        MOV.W     &FC_burner_temp+2,r13 ; [] |1257| 
$C$DW$209	.dwtag  DW_TAG_TI_branch
	.dwattr $C$DW$209, DW_AT_low_pc(0x00)
	.dwattr $C$DW$209, DW_AT_name("__mspabi_cvtfd")
	.dwattr $C$DW$209, DW_AT_TI_call

        CALLA     #__mspabi_cvtfd       ; [] |1257| 
                                          ; [] |1257| 
        MOVA      r12,r4                ; [] |1257| 
        MOVA      r13,r5                ; [] |1257| 
        MOVA      r14,r6                ; [] |1257| 
        MOVA      r15,r7                ; [] |1257| 
        MOV.W     &FC_Burner_Ignite_temp+0,r12 ; [] |1257| 
        MOV.W     &FC_Burner_Ignite_temp+2,r13 ; [] |1257| 
$C$DW$210	.dwtag  DW_TAG_TI_branch
	.dwattr $C$DW$210, DW_AT_low_pc(0x00)
	.dwattr $C$DW$210, DW_AT_name("__mspabi_cvtfd")
	.dwattr $C$DW$210, DW_AT_TI_call

        CALLA     #__mspabi_cvtfd       ; [] |1257| 
                                          ; [] |1257| 
        MOVA      r12,r8                ; [] |1257| 
        MOVA      r13,r9                ; [] |1257| 
        MOVA      r14,r10               ; [] |1257| 
        MOVA      r15,r11               ; [] |1257| 
        MOV.W     #0,r12                ; [] |1257| 
        MOV.W     #0,r13                ; [] |1257| 
        MOV.W     #0,r14                ; [] |1257| 
        MOV.W     #16404,r15            ; [] |1257| 
$C$DW$211	.dwtag  DW_TAG_TI_branch
	.dwattr $C$DW$211, DW_AT_low_pc(0x00)
	.dwattr $C$DW$211, DW_AT_name("__mspabi_addd")
	.dwattr $C$DW$211, DW_AT_TI_call

        CALLA     #__mspabi_addd        ; [] |1257| 
                                          ; [] |1257| 
        MOVA      r4,r8                 ; [] |1257| 
        MOVA      r5,r9                 ; [] |1257| 
        MOVA      r6,r10                ; [] |1257| 
        MOVA      r7,r11                ; [] |1257| 
$C$DW$212	.dwtag  DW_TAG_TI_branch
	.dwattr $C$DW$212, DW_AT_low_pc(0x00)
	.dwattr $C$DW$212, DW_AT_name("__mspabi_cmpd")
	.dwattr $C$DW$212, DW_AT_TI_call

        CALLA     #__mspabi_cmpd        ; [] |1257| 
                                          ; [] |1257| 
        TST.W     r12                   ; [] |1257| 
        JGE       $C$L41                ; [] |1257| 
                                          ; [] |1257| 
;* --------------------------------------------------------------------------*
        MOV.W     &FC_burner_temp+0,r12 ; [] |1257| 
        MOV.W     &FC_burner_temp+2,r13 ; [] |1257| 
        MOV.W     #0,r14                ; [] |1257| 
        MOV.W     #17056,r15            ; [] |1257| 
$C$DW$213	.dwtag  DW_TAG_TI_branch
	.dwattr $C$DW$213, DW_AT_low_pc(0x00)
	.dwattr $C$DW$213, DW_AT_name("__mspabi_cmpf")
	.dwattr $C$DW$213, DW_AT_TI_call

        CALLA     #__mspabi_cmpf        ; [] |1257| 
                                          ; [] |1257| 
        TST.W     r12                   ; [] |1257| 
        JGE       $C$L41                ; [] |1257| 
                                          ; [] |1257| 
;* --------------------------------------------------------------------------*
	.dwpsn	file "../src/start.c",line 1259,column 17,is_stmt,isa 0
        ADD.W     #1,&FC_Burner_Ignite_Failure_timer+0 ; [] |1259| 
;* --------------------------------------------------------------------------*
$C$L41:    
	.dwpsn	file "../src/start.c",line 1261,column 13,is_stmt,isa 0
        CMP.W     #9001,&FC_Burner_Ignite_Failure_timer+0 ; [] |1261| 
        JL        $C$L42                ; [] |1261| 
                                          ; [] |1261| 
;* --------------------------------------------------------------------------*
	.dwpsn	file "../src/start.c",line 1263,column 17,is_stmt,isa 0
        MOV.B     #1,&FC_Burner_Ignite_Failure+0 ; [] |1263| 
	.dwpsn	file "../src/start.c",line 1264,column 17,is_stmt,isa 0
        MOV.W     #3000,&Pump_Off_Counter+0 ; [] |1264| 
;* --------------------------------------------------------------------------*
$C$L42:    
	.dwpsn	file "../src/start.c",line 1267,column 13,is_stmt,isa 0
        MOV.W     #0,&FC_Burner_Ignite_Failure_timer+0 ; [] |1267| 
;* --------------------------------------------------------------------------*
$C$L43:    
	.dwpsn	file "../src/start.c",line 1271,column 1,is_stmt,isa 0
        POPM.A    #7,r10                ; [] 
	.dwcfi	restore_reg, 4
	.dwcfi	restore_reg, 5
	.dwcfi	restore_reg, 6
	.dwcfi	restore_reg, 7
	.dwcfi	restore_reg, 8
	.dwcfi	restore_reg, 9
	.dwcfi	restore_reg, 10
	.dwcfi	cfa_offset, 4
$C$DW$214	.dwtag  DW_TAG_TI_branch
	.dwattr $C$DW$214, DW_AT_low_pc(0x00)
	.dwattr $C$DW$214, DW_AT_TI_return

        RETA      ; [] 
        ; [] 
	.dwattr $C$DW$162, DW_AT_TI_end_file("../src/start.c")
	.dwattr $C$DW$162, DW_AT_TI_end_line(0x4f7)
	.dwattr $C$DW$162, DW_AT_TI_end_column(0x01)
	.dwendentry
	.dwendtag $C$DW$162

	.sect	".text:initialCompState"
	.clink
	.global	initialCompState

$C$DW$215	.dwtag  DW_TAG_subprogram
	.dwattr $C$DW$215, DW_AT_name("initialCompState")
	.dwattr $C$DW$215, DW_AT_low_pc(initialCompState)
	.dwattr $C$DW$215, DW_AT_high_pc(0x00)
	.dwattr $C$DW$215, DW_AT_TI_symbol_name("initialCompState")
	.dwattr $C$DW$215, DW_AT_external
	.dwattr $C$DW$215, DW_AT_TI_begin_file("../src/start.c")
	.dwattr $C$DW$215, DW_AT_TI_begin_line(0x43a)
	.dwattr $C$DW$215, DW_AT_TI_begin_column(0x06)
	.dwattr $C$DW$215, DW_AT_decl_file("../src/start.c")
	.dwattr $C$DW$215, DW_AT_decl_line(0x43a)
	.dwattr $C$DW$215, DW_AT_decl_column(0x06)
	.dwattr $C$DW$215, DW_AT_TI_max_frame_size(0x04)
	.dwpsn	file "../src/start.c",line 1083,column 1,is_stmt,address initialCompState,isa 0

	.dwfde $C$DW$CIE, initialCompState

;*****************************************************************************
;* FUNCTION NAME: initialCompState                                           *
;*                                                                           *
;*   Regs Modified     : SP                                                  *
;*   Regs Used         : SP                                                  *
;*   Local Frame Size  : 0 Args + 0 Auto + 0 Save = 0 byte                   *
;*****************************************************************************
initialCompState:
;* --------------------------------------------------------------------------*
	.dwcfi	cfa_offset, 4
	.dwcfi	save_reg_to_mem, 16, -4
	.dwpsn	file "../src/start.c",line 1084,column 5,is_stmt,isa 0
        MOV.W     #0,&TB0CCR2+0         ; [] |1084| 
	.dwpsn	file "../src/start.c",line 1085,column 5,is_stmt,isa 0
        MOV.W     #0,&TB0CCR4+0         ; [] |1085| 
	.dwpsn	file "../src/start.c",line 1086,column 5,is_stmt,isa 0
        MOV.W     #0,&TB0CCR3+0         ; [] |1086| 
	.dwpsn	file "../src/start.c",line 1087,column 5,is_stmt,isa 0
        MOV.W     #0,&TA0CCR4+0         ; [] |1087| 
	.dwpsn	file "../src/start.c",line 1088,column 5,is_stmt,isa 0
        MOV.W     #0,&TB0CCR1+0         ; [] |1088| 
	.dwpsn	file "../src/start.c",line 1089,column 5,is_stmt,isa 0
        MOV.W     #0,&TA0CCR3+0         ; [] |1089| 
	.dwpsn	file "../src/start.c",line 1091,column 5,is_stmt,isa 0
        MOV.W     #0,&main_fuel_flow+0  ; [] |1091| 
        MOV.W     #0,&main_fuel_flow+2  ; [] |1091| 
	.dwpsn	file "../src/start.c",line 1092,column 5,is_stmt,isa 0
        MOV.W     #0,&Pump_Startup+0    ; [] |1092| 
	.dwpsn	file "../src/start.c",line 1093,column 5,is_stmt,isa 0
        MOV.W     #0,&Pump_Off_Counter+0 ; [] |1093| 
	.dwpsn	file "../src/start.c",line 1094,column 5,is_stmt,isa 0
        MOV.W     #0,&FC_Burner_Ignite_Failure_timer+0 ; [] |1094| 
	.dwpsn	file "../src/start.c",line 1095,column 5,is_stmt,isa 0
        MOV.W     #0,&FC_Burner_Ignite_temp+0 ; [] |1095| 
        MOV.W     #0,&FC_Burner_Ignite_temp+2 ; [] |1095| 
	.dwpsn	file "../src/start.c",line 1096,column 5,is_stmt,isa 0
        MOV.B     #0,&FC_Burner_Ignite_Failure+0 ; [] |1096| 
	.dwpsn	file "../src/start.c",line 1097,column 5,is_stmt,isa 0
        MOV.W     #0,&FP_Burner_Ignite_Failure_timer+0 ; [] |1097| 
	.dwpsn	file "../src/start.c",line 1098,column 5,is_stmt,isa 0
        MOV.W     #0,&FP_Burner_Ignite_temp+0 ; [] |1098| 
        MOV.W     #0,&FP_Burner_Ignite_temp+2 ; [] |1098| 
	.dwpsn	file "../src/start.c",line 1099,column 5,is_stmt,isa 0
        MOV.B     #0,&FP_Burner_Ignite_Failure+0 ; [] |1099| 
	.dwpsn	file "../src/start.c",line 1101,column 5,is_stmt,isa 0
        MOV.B     #0,&FC_At_Temp+0      ; [] |1101| 
	.dwpsn	file "../src/start.c",line 1102,column 1,is_stmt,isa 0
$C$DW$216	.dwtag  DW_TAG_TI_branch
	.dwattr $C$DW$216, DW_AT_low_pc(0x00)
	.dwattr $C$DW$216, DW_AT_TI_return

        RETA      ; [] 
        ; [] 
	.dwattr $C$DW$215, DW_AT_TI_end_file("../src/start.c")
	.dwattr $C$DW$215, DW_AT_TI_end_line(0x44e)
	.dwattr $C$DW$215, DW_AT_TI_end_column(0x01)
	.dwendentry
	.dwendtag $C$DW$215

	.sect	".text:setStartTime"
	.clink
	.global	setStartTime

$C$DW$217	.dwtag  DW_TAG_subprogram
	.dwattr $C$DW$217, DW_AT_name("setStartTime")
	.dwattr $C$DW$217, DW_AT_low_pc(setStartTime)
	.dwattr $C$DW$217, DW_AT_high_pc(0x00)
	.dwattr $C$DW$217, DW_AT_TI_symbol_name("setStartTime")
	.dwattr $C$DW$217, DW_AT_external
	.dwattr $C$DW$217, DW_AT_TI_begin_file("../src/start.c")
	.dwattr $C$DW$217, DW_AT_TI_begin_line(0x595)
	.dwattr $C$DW$217, DW_AT_TI_begin_column(0x06)
	.dwattr $C$DW$217, DW_AT_decl_file("../src/start.c")
	.dwattr $C$DW$217, DW_AT_decl_line(0x595)
	.dwattr $C$DW$217, DW_AT_decl_column(0x06)
	.dwattr $C$DW$217, DW_AT_TI_max_frame_size(0x04)
	.dwpsn	file "../src/start.c",line 1430,column 1,is_stmt,address setStartTime,isa 0

	.dwfde $C$DW$CIE, setStartTime

;*****************************************************************************
;* FUNCTION NAME: setStartTime                                               *
;*                                                                           *
;*   Regs Modified     : SP                                                  *
;*   Regs Used         : SP                                                  *
;*   Local Frame Size  : 0 Args + 0 Auto + 0 Save = 0 byte                   *
;*****************************************************************************
setStartTime:
;* --------------------------------------------------------------------------*
	.dwcfi	cfa_offset, 4
	.dwcfi	save_reg_to_mem, 16, -4
	.dwpsn	file "../src/start.c",line 1432,column 1,is_stmt,isa 0
$C$DW$218	.dwtag  DW_TAG_TI_branch
	.dwattr $C$DW$218, DW_AT_low_pc(0x00)
	.dwattr $C$DW$218, DW_AT_TI_return

        RETA      ; [] 
        ; [] 
	.dwattr $C$DW$217, DW_AT_TI_end_file("../src/start.c")
	.dwattr $C$DW$217, DW_AT_TI_end_line(0x598)
	.dwattr $C$DW$217, DW_AT_TI_end_column(0x01)
	.dwendentry
	.dwendtag $C$DW$217

	.sect	".text:setCompStartState"
	.clink
	.global	setCompStartState

$C$DW$219	.dwtag  DW_TAG_subprogram
	.dwattr $C$DW$219, DW_AT_name("setCompStartState")
	.dwattr $C$DW$219, DW_AT_low_pc(setCompStartState)
	.dwattr $C$DW$219, DW_AT_high_pc(0x00)
	.dwattr $C$DW$219, DW_AT_TI_symbol_name("setCompStartState")
	.dwattr $C$DW$219, DW_AT_external
	.dwattr $C$DW$219, DW_AT_TI_begin_file("../src/start.c")
	.dwattr $C$DW$219, DW_AT_TI_begin_line(0x468)
	.dwattr $C$DW$219, DW_AT_TI_begin_column(0x06)
	.dwattr $C$DW$219, DW_AT_decl_file("../src/start.c")
	.dwattr $C$DW$219, DW_AT_decl_line(0x468)
	.dwattr $C$DW$219, DW_AT_decl_column(0x06)
	.dwattr $C$DW$219, DW_AT_TI_max_frame_size(0x04)
	.dwpsn	file "../src/start.c",line 1129,column 1,is_stmt,address setCompStartState,isa 0

	.dwfde $C$DW$CIE, setCompStartState

;*****************************************************************************
;* FUNCTION NAME: setCompStartState                                          *
;*                                                                           *
;*   Regs Modified     : SP,SR,r11,r12,r13,r14,r15                           *
;*   Regs Used         : SP,SR,r11,r12,r13,r14,r15                           *
;*   Local Frame Size  : 0 Args + 0 Auto + 0 Save = 0 byte                   *
;*****************************************************************************
setCompStartState:
;* --------------------------------------------------------------------------*
	.dwcfi	cfa_offset, 4
	.dwcfi	save_reg_to_mem, 16, -4
	.dwpsn	file "../src/start.c",line 1133,column 9,is_stmt,isa 0
        MOV.B     &Start_temp+0,r15     ; [] |1133| 
        CMP.W     &Cold_Temp_Threshold+0,r15 ; [] |1133| 
        JL        $C$L44                ; [] |1133| 
                                          ; [] |1133| 
;* --------------------------------------------------------------------------*
        MOV.W     &ambient_temp+0,r12   ; [] |1133| 
        MOV.W     &ambient_temp+2,r13   ; [] |1133| 
        MOV.W     #0,r14                ; [] |1133| 
        MOV.W     #16544,r15            ; [] |1133| 
$C$DW$220	.dwtag  DW_TAG_TI_branch
	.dwattr $C$DW$220, DW_AT_low_pc(0x00)
	.dwattr $C$DW$220, DW_AT_name("__mspabi_cmpf")
	.dwattr $C$DW$220, DW_AT_TI_call

        CALLA     #__mspabi_cmpf        ; [] |1133| 
                                          ; [] |1133| 
        TST.W     r12                   ; [] |1133| 
        JL        $C$L44                ; [] |1133| 
                                          ; [] |1133| 
;* --------------------------------------------------------------------------*
        MOV.W     &TC2_temp+0,r12       ; [] |1133| 
        MOV.W     &TC2_temp+2,r13       ; [] |1133| 
        MOV.W     #0,r14                ; [] |1133| 
        MOV.W     #16880,r15            ; [] |1133| 
$C$DW$221	.dwtag  DW_TAG_TI_branch
	.dwattr $C$DW$221, DW_AT_low_pc(0x00)
	.dwattr $C$DW$221, DW_AT_name("__mspabi_cmpf")
	.dwattr $C$DW$221, DW_AT_TI_call

        CALLA     #__mspabi_cmpf        ; [] |1133| 
                                          ; [] |1133| 
        TST.W     r12                   ; [] |1133| 
        JGE       $C$L45                ; [] |1133| 
                                          ; [] |1133| 
;* --------------------------------------------------------------------------*
$C$L44:    
        MOV.W     #48000,r15            ; [] |1133| 
        JMP       $C$L46                ; [] |1133| 
                                          ; [] |1133| 
;* --------------------------------------------------------------------------*
$C$L45:    
        MOV.W     #0,r15                ; [] |1133| 
;* --------------------------------------------------------------------------*
$C$L46:    
        MOV.W     r15,&Cold_Heater+0    ; [] |1133| 
	.dwpsn	file "../src/start.c",line 1140,column 5,is_stmt,isa 0
        OR.B      #16,&PDOUT_H+0        ; [] |1140| 
	.dwpsn	file "../src/start.c",line 1141,column 5,is_stmt,isa 0
        BIC.B     #1,&PDOUT_H+0         ; [] |1141| 
        MOV.B     #0,&load+0            ; [] |1141| 
	.dwpsn	file "../src/start.c",line 1143,column 5,is_stmt,isa 0
        AND.B     #239,&PCOUT_L+0       ; [] |1143| 
	.dwpsn	file "../src/start.c",line 1145,column 5,is_stmt,isa 0
        MOV.W     #0,&FC_Burner_air+0   ; [] |1145| 
        MOV.W     #0,&FC_Burner_air+2   ; [] |1145| 
	.dwpsn	file "../src/start.c",line 1147,column 5,is_stmt,isa 0
        MOV.W     #700,r12              ; [] |1147| 
$C$DW$222	.dwtag  DW_TAG_TI_branch
	.dwattr $C$DW$222, DW_AT_low_pc(0x00)
	.dwattr $C$DW$222, DW_AT_name("Set_FCSFan")
	.dwattr $C$DW$222, DW_AT_TI_call

        CALLA     #Set_FCSFan           ; [] |1147| 
                                          ; [] |1147| 
	.dwpsn	file "../src/start.c",line 1149,column 5,is_stmt,isa 0
        MOV.W     #1,&secondary_PumpDrv+0 ; [] |1149| 
	.dwpsn	file "../src/start.c",line 1150,column 5,is_stmt,isa 0
        MOVX.A    #error_message+0,r12  ; [] |1150| 
        MOV.W     #0,r13                ; [] |1150| 
        MOV.W     #200,r14              ; [] |1150| 
$C$DW$223	.dwtag  DW_TAG_TI_branch
	.dwattr $C$DW$223, DW_AT_low_pc(0x00)
	.dwattr $C$DW$223, DW_AT_name("memset")
	.dwattr $C$DW$223, DW_AT_TI_call

        CALLA     #memset               ; [] |1150| 
                                          ; [] |1150| 
	.dwpsn	file "../src/start.c",line 1151,column 5,is_stmt,isa 0
        MOV.W     #36000,&fm+0          ; [] |1151| 
	.dwpsn	file "../src/start.c",line 1153,column 5,is_stmt,isa 0
        OR.B      #4,&PAOUT_H+0         ; [] |1153| 
	.dwpsn	file "../src/start.c",line 1154,column 5,is_stmt,isa 0
        AND.B     #127,&PEOUT_L+0       ; [] |1154| 
        OR.B      #64,&PEOUT_L+0        ; [] |1154| 
	.dwpsn	file "../src/start.c",line 1156,column 5,is_stmt,isa 0
        MOV.B     #1,&burner_fuel+0     ; [] |1156| 
	.dwpsn	file "../src/start.c",line 1157,column 5,is_stmt,isa 0
        MOV.B     #0,&FP_Heating+0      ; [] |1157| 
	.dwpsn	file "../src/start.c",line 1158,column 5,is_stmt,isa 0
        MOV.W     #0,&FP_Heating_Timer+0 ; [] |1158| 
	.dwpsn	file "../src/start.c",line 1160,column 5,is_stmt,isa 0
        AND.B     #191,&PEOUT_L+0       ; [] |1160| 
        AND.B     #127,&PEOUT_L+0       ; [] |1160| 
	.dwpsn	file "../src/start.c",line 1162,column 5,is_stmt,isa 0
        MOV.W     #0,&maxPIDair+0       ; [] |1162| 
        MOV.W     #16320,&maxPIDair+2   ; [] |1162| 
	.dwpsn	file "../src/start.c",line 1164,column 1,is_stmt,isa 0
$C$DW$224	.dwtag  DW_TAG_TI_branch
	.dwattr $C$DW$224, DW_AT_low_pc(0x00)
	.dwattr $C$DW$224, DW_AT_TI_return

        RETA      ; [] 
        ; [] 
	.dwattr $C$DW$219, DW_AT_TI_end_file("../src/start.c")
	.dwattr $C$DW$219, DW_AT_TI_end_line(0x48c)
	.dwattr $C$DW$219, DW_AT_TI_end_column(0x01)
	.dwendentry
	.dwendtag $C$DW$219

	.sect	".text:processBOPSettings"
	.clink
	.global	processBOPSettings

$C$DW$225	.dwtag  DW_TAG_subprogram
	.dwattr $C$DW$225, DW_AT_name("processBOPSettings")
	.dwattr $C$DW$225, DW_AT_low_pc(processBOPSettings)
	.dwattr $C$DW$225, DW_AT_high_pc(0x00)
	.dwattr $C$DW$225, DW_AT_TI_symbol_name("processBOPSettings")
	.dwattr $C$DW$225, DW_AT_external
	.dwattr $C$DW$225, DW_AT_TI_begin_file("../src/start.c")
	.dwattr $C$DW$225, DW_AT_TI_begin_line(0x558)
	.dwattr $C$DW$225, DW_AT_TI_begin_column(0x06)
	.dwattr $C$DW$225, DW_AT_decl_file("../src/start.c")
	.dwattr $C$DW$225, DW_AT_decl_line(0x558)
	.dwattr $C$DW$225, DW_AT_decl_column(0x06)
	.dwattr $C$DW$225, DW_AT_TI_max_frame_size(0x20)
	.dwpsn	file "../src/start.c",line 1369,column 1,is_stmt,address processBOPSettings,isa 0

	.dwfde $C$DW$CIE, processBOPSettings

;*****************************************************************************
;* FUNCTION NAME: processBOPSettings                                         *
;*                                                                           *
;*   Regs Modified     : SP,SR,r4,r5,r6,r7,r8,r9,r10,r11,r12,r13,r14,r15     *
;*   Regs Used         : SP,SR,r4,r5,r6,r7,r8,r9,r10,r11,r12,r13,r14,r15     *
;*   Local Frame Size  : 0 Args + 0 Auto + 28 Save = 28 byte                 *
;*****************************************************************************
processBOPSettings:
;* --------------------------------------------------------------------------*
	.dwcfi	cfa_offset, 4
	.dwcfi	save_reg_to_mem, 16, -4
        PUSHM.A   #7,r10                ; [] 
	.dwcfi	save_reg_to_mem, 10, -8
	.dwcfi	save_reg_to_mem, 9, -12
	.dwcfi	save_reg_to_mem, 8, -16
	.dwcfi	save_reg_to_mem, 7, -20
	.dwcfi	save_reg_to_mem, 6, -24
	.dwcfi	save_reg_to_mem, 5, -28
	.dwcfi	save_reg_to_mem, 4, -32
	.dwcfi	cfa_offset, 32
	.dwpsn	file "../src/start.c",line 1370,column 5,is_stmt,isa 0
        CMP.W     #700,&exhaust_fan_speed+0 ; [] |1370| 
        JL        $C$L47                ; [] |1370| 
                                          ; [] |1370| 
;* --------------------------------------------------------------------------*
	.dwpsn	file "../src/start.c",line 1373,column 9,is_stmt,isa 0
        MOV.W     #700,&exhaust_fan_speed+0 ; [] |1373| 
        JMP       $C$L48                ; [] |1373| 
                                          ; [] |1373| 
;* --------------------------------------------------------------------------*
$C$L47:    
	.dwpsn	file "../src/start.c",line 1371,column 9,is_stmt,isa 0
        ADD.W     #25,&exhaust_fan_speed+0 ; [] |1371| 
;* --------------------------------------------------------------------------*
$C$L48:    
	.dwpsn	file "../src/start.c",line 1375,column 5,is_stmt,isa 0
        CMP.B     #2,&burner_flag+0     ; [] |1375| 
        JLO       $C$L49                ; [] |1375| 
                                          ; [] |1375| 
;* --------------------------------------------------------------------------*
        MOV.W     &air+0,r12            ; [] |1375| 
        MOV.W     &air+2,r13            ; [] |1375| 
        MOV.W     #0,r14                ; [] |1375| 
        MOV.W     #16320,r15            ; [] |1375| 
$C$DW$226	.dwtag  DW_TAG_TI_branch
	.dwattr $C$DW$226, DW_AT_low_pc(0x00)
	.dwattr $C$DW$226, DW_AT_name("__mspabi_cmpf")
	.dwattr $C$DW$226, DW_AT_TI_call

        CALLA     #__mspabi_cmpf        ; [] |1375| 
                                          ; [] |1375| 
        TST.W     r12                   ; [] |1375| 
        JGE       $C$L49                ; [] |1375| 
                                          ; [] |1375| 
;* --------------------------------------------------------------------------*
	.dwpsn	file "../src/start.c",line 1376,column 9,is_stmt,isa 0
        MOV.W     #0,&air+0             ; [] |1376| 
        MOV.W     #16320,&air+2         ; [] |1376| 
;* --------------------------------------------------------------------------*
$C$L49:    
	.dwpsn	file "../src/start.c",line 1377,column 5,is_stmt,isa 0
        TST.B     &burner_fuel+0        ; [] |1377| 
        JNE       $C$L50                ; [] |1377| 
                                          ; [] |1377| 
;* --------------------------------------------------------------------------*
	.dwpsn	file "../src/start.c",line 1382,column 10,is_stmt,isa 0
        MOV.W     &air+0,r12            ; [] |1382| 
        MOV.W     &air+2,r13            ; [] |1382| 
$C$DW$227	.dwtag  DW_TAG_TI_branch
	.dwattr $C$DW$227, DW_AT_low_pc(0x00)
	.dwattr $C$DW$227, DW_AT_name("__mspabi_cvtfd")
	.dwattr $C$DW$227, DW_AT_TI_call

        CALLA     #__mspabi_cvtfd       ; [] |1382| 
                                          ; [] |1382| 
        MOVA      r12,r4                ; [] |1382| 
        MOVA      r13,r5                ; [] |1382| 
        MOVA      r14,r6                ; [] |1382| 
        MOVA      r15,r7                ; [] |1382| 
        MOV.W     &main_fuel_flow+0,r12 ; [] |1382| 
        MOV.W     &main_fuel_flow+2,r13 ; [] |1382| 
$C$DW$228	.dwtag  DW_TAG_TI_branch
	.dwattr $C$DW$228, DW_AT_low_pc(0x00)
	.dwattr $C$DW$228, DW_AT_name("__mspabi_cvtfd")
	.dwattr $C$DW$228, DW_AT_TI_call

        CALLA     #__mspabi_cvtfd       ; [] |1382| 
                                          ; [] |1382| 
        MOVA      r12,r8                ; [] |1382| 
        MOVA      r13,r9                ; [] |1382| 
        MOVA      r14,r10               ; [] |1382| 
        MOVA      r15,r11               ; [] |1382| 
        MOV.W     #30911,r12            ; [] |1382| 
        MOV.W     #3334,r13             ; [] |1382| 
        MOV.W     #5117,r14             ; [] |1382| 
        MOV.W     #16300,r15            ; [] |1382| 
$C$DW$229	.dwtag  DW_TAG_TI_branch
	.dwattr $C$DW$229, DW_AT_low_pc(0x00)
	.dwattr $C$DW$229, DW_AT_name("__mspabi_mpyd")
	.dwattr $C$DW$229, DW_AT_TI_call

        CALLA     #__mspabi_mpyd        ; [] |1382| 
                                          ; [] |1382| 
        MOVA      r4,r8                 ; [] |1382| 
        MOVA      r5,r9                 ; [] |1382| 
        MOVA      r6,r10                ; [] |1382| 
        MOVA      r7,r11                ; [] |1382| 
$C$DW$230	.dwtag  DW_TAG_TI_branch
	.dwattr $C$DW$230, DW_AT_low_pc(0x00)
	.dwattr $C$DW$230, DW_AT_name("__mspabi_cmpd")
	.dwattr $C$DW$230, DW_AT_TI_call

        CALLA     #__mspabi_cmpd        ; [] |1382| 
                                          ; [] |1382| 
        TST.W     r12                   ; [] |1382| 
        JGE       $C$L51                ; [] |1382| 
                                          ; [] |1382| 
;* --------------------------------------------------------------------------*
	.dwpsn	file "../src/start.c",line 1383,column 9,is_stmt,isa 0
        MOV.W     &main_fuel_flow+0,r12 ; [] |1383| 
        MOV.W     &main_fuel_flow+2,r13 ; [] |1383| 
$C$DW$231	.dwtag  DW_TAG_TI_branch
	.dwattr $C$DW$231, DW_AT_low_pc(0x00)
	.dwattr $C$DW$231, DW_AT_name("__mspabi_cvtfd")
	.dwattr $C$DW$231, DW_AT_TI_call

        CALLA     #__mspabi_cvtfd       ; [] |1383| 
                                          ; [] |1383| 
        MOVA      r12,r8                ; [] |1383| 
        MOVA      r13,r9                ; [] |1383| 
        MOVA      r14,r10               ; [] |1383| 
        MOVA      r15,r11               ; [] |1383| 
        MOV.W     #30911,r12            ; [] |1383| 
        MOV.W     #3334,r13             ; [] |1383| 
        MOV.W     #5117,r14             ; [] |1383| 
        MOV.W     #16300,r15            ; [] |1383| 
$C$DW$232	.dwtag  DW_TAG_TI_branch
	.dwattr $C$DW$232, DW_AT_low_pc(0x00)
	.dwattr $C$DW$232, DW_AT_name("__mspabi_mpyd")
	.dwattr $C$DW$232, DW_AT_TI_call

        CALLA     #__mspabi_mpyd        ; [] |1383| 
                                          ; [] |1383| 
$C$DW$233	.dwtag  DW_TAG_TI_branch
	.dwattr $C$DW$233, DW_AT_low_pc(0x00)
	.dwattr $C$DW$233, DW_AT_name("__mspabi_cvtdf")
	.dwattr $C$DW$233, DW_AT_TI_call

        CALLA     #__mspabi_cvtdf       ; [] |1383| 
                                          ; [] |1383| 
        MOV.W     r12,&air+0            ; [] |1383| 
        MOV.W     r13,&air+2            ; [] |1383| 
        JMP       $C$L51                ; [] |1383| 
                                          ; [] |1383| 
;* --------------------------------------------------------------------------*
$C$L50:    
	.dwpsn	file "../src/start.c",line 1379,column 9,is_stmt,isa 0
        MOV.W     &air+0,r12            ; [] |1379| 
        MOV.W     &air+2,r13            ; [] |1379| 
$C$DW$234	.dwtag  DW_TAG_TI_branch
	.dwattr $C$DW$234, DW_AT_low_pc(0x00)
	.dwattr $C$DW$234, DW_AT_name("__mspabi_cvtfd")
	.dwattr $C$DW$234, DW_AT_TI_call

        CALLA     #__mspabi_cvtfd       ; [] |1379| 
                                          ; [] |1379| 
        MOVA      r12,r4                ; [] |1379| 
        MOVA      r13,r5                ; [] |1379| 
        MOVA      r14,r6                ; [] |1379| 
        MOVA      r15,r7                ; [] |1379| 
        MOV.W     &main_fuel_flow+0,r12 ; [] |1379| 
        MOV.W     &main_fuel_flow+2,r13 ; [] |1379| 
$C$DW$235	.dwtag  DW_TAG_TI_branch
	.dwattr $C$DW$235, DW_AT_low_pc(0x00)
	.dwattr $C$DW$235, DW_AT_name("__mspabi_cvtfd")
	.dwattr $C$DW$235, DW_AT_TI_call

        CALLA     #__mspabi_cvtfd       ; [] |1379| 
                                          ; [] |1379| 
        MOVA      r12,r8                ; [] |1379| 
        MOVA      r13,r9                ; [] |1379| 
        MOVA      r14,r10               ; [] |1379| 
        MOVA      r15,r11               ; [] |1379| 
        MOV.W     #12604,r12            ; [] |1379| 
        MOV.W     #50667,r13            ; [] |1379| 
        MOV.W     #20048,r14            ; [] |1379| 
        MOV.W     #16308,r15            ; [] |1379| 
$C$DW$236	.dwtag  DW_TAG_TI_branch
	.dwattr $C$DW$236, DW_AT_low_pc(0x00)
	.dwattr $C$DW$236, DW_AT_name("__mspabi_mpyd")
	.dwattr $C$DW$236, DW_AT_TI_call

        CALLA     #__mspabi_mpyd        ; [] |1379| 
                                          ; [] |1379| 
        MOVA      r4,r8                 ; [] |1379| 
        MOVA      r5,r9                 ; [] |1379| 
        MOVA      r6,r10                ; [] |1379| 
        MOVA      r7,r11                ; [] |1379| 
$C$DW$237	.dwtag  DW_TAG_TI_branch
	.dwattr $C$DW$237, DW_AT_low_pc(0x00)
	.dwattr $C$DW$237, DW_AT_name("__mspabi_cmpd")
	.dwattr $C$DW$237, DW_AT_TI_call

        CALLA     #__mspabi_cmpd        ; [] |1379| 
                                          ; [] |1379| 
        TST.W     r12                   ; [] |1379| 
        JGE       $C$L51                ; [] |1379| 
                                          ; [] |1379| 
;* --------------------------------------------------------------------------*
	.dwpsn	file "../src/start.c",line 1380,column 13,is_stmt,isa 0
        MOV.W     &main_fuel_flow+0,r12 ; [] |1380| 
        MOV.W     &main_fuel_flow+2,r13 ; [] |1380| 
$C$DW$238	.dwtag  DW_TAG_TI_branch
	.dwattr $C$DW$238, DW_AT_low_pc(0x00)
	.dwattr $C$DW$238, DW_AT_name("__mspabi_cvtfd")
	.dwattr $C$DW$238, DW_AT_TI_call

        CALLA     #__mspabi_cvtfd       ; [] |1380| 
                                          ; [] |1380| 
        MOVA      r12,r8                ; [] |1380| 
        MOVA      r13,r9                ; [] |1380| 
        MOVA      r14,r10               ; [] |1380| 
        MOVA      r15,r11               ; [] |1380| 
        MOV.W     #12604,r12            ; [] |1380| 
        MOV.W     #50667,r13            ; [] |1380| 
        MOV.W     #20048,r14            ; [] |1380| 
        MOV.W     #16308,r15            ; [] |1380| 
$C$DW$239	.dwtag  DW_TAG_TI_branch
	.dwattr $C$DW$239, DW_AT_low_pc(0x00)
	.dwattr $C$DW$239, DW_AT_name("__mspabi_mpyd")
	.dwattr $C$DW$239, DW_AT_TI_call

        CALLA     #__mspabi_mpyd        ; [] |1380| 
                                          ; [] |1380| 
$C$DW$240	.dwtag  DW_TAG_TI_branch
	.dwattr $C$DW$240, DW_AT_low_pc(0x00)
	.dwattr $C$DW$240, DW_AT_name("__mspabi_cvtdf")
	.dwattr $C$DW$240, DW_AT_TI_call

        CALLA     #__mspabi_cvtdf       ; [] |1380| 
                                          ; [] |1380| 
        MOV.W     r12,&air+0            ; [] |1380| 
        MOV.W     r13,&air+2            ; [] |1380| 
;* --------------------------------------------------------------------------*
$C$L51:    
	.dwpsn	file "../src/start.c",line 1385,column 5,is_stmt,isa 0
        CMP.B     #3,&burner_flag+0     ; [] |1385| 
        JLO       $C$L58                ; [] |1385| 
                                          ; [] |1385| 
;* --------------------------------------------------------------------------*
	.dwpsn	file "../src/start.c",line 1387,column 9,is_stmt,isa 0
        MOV.W     &TC1_temp+0,r12       ; [] |1387| 
        MOV.W     &TC1_temp+2,r13       ; [] |1387| 
        MOV.W     #0,r14                ; [] |1387| 
        MOV.W     #17169,r15            ; [] |1387| 
$C$DW$241	.dwtag  DW_TAG_TI_branch
	.dwattr $C$DW$241, DW_AT_low_pc(0x00)
	.dwattr $C$DW$241, DW_AT_name("__mspabi_cmpf")
	.dwattr $C$DW$241, DW_AT_TI_call

        CALLA     #__mspabi_cmpf        ; [] |1387| 
                                          ; [] |1387| 
        TST.W     r12                   ; [] |1387| 
        JGE       $C$L56                ; [] |1387| 
                                          ; [] |1387| 
;* --------------------------------------------------------------------------*
        MOV.W     &FC_burner_temp+0,r12 ; [] |1387| 
        MOV.W     &FC_burner_temp+2,r13 ; [] |1387| 
        MOV.W     #0,r14                ; [] |1387| 
        MOV.W     #17214,r15            ; [] |1387| 
$C$DW$242	.dwtag  DW_TAG_TI_branch
	.dwattr $C$DW$242, DW_AT_low_pc(0x00)
	.dwattr $C$DW$242, DW_AT_name("__mspabi_cmpf")
	.dwattr $C$DW$242, DW_AT_TI_call

        CALLA     #__mspabi_cmpf        ; [] |1387| 
                                          ; [] |1387| 
        TST.W     r12                   ; [] |1387| 
        JGE       $C$L56                ; [] |1387| 
                                          ; [] |1387| 
;* --------------------------------------------------------------------------*
	.dwpsn	file "../src/start.c",line 1389,column 13,is_stmt,isa 0
        MOV.W     #0,r12                ; [] |1389| 
        MOV.W     #16936,r13            ; [] |1389| 
        MOV.W     &FC_Burner_Methanol_flow+0,r14 ; [] |1389| 
        MOV.W     &FC_Burner_Methanol_flow+2,r15 ; [] |1389| 
$C$DW$243	.dwtag  DW_TAG_TI_branch
	.dwattr $C$DW$243, DW_AT_low_pc(0x00)
	.dwattr $C$DW$243, DW_AT_name("__mspabi_cmpf")
	.dwattr $C$DW$243, DW_AT_TI_call

        CALLA     #__mspabi_cmpf        ; [] |1389| 
                                          ; [] |1389| 
        TST.W     r12                   ; [] |1389| 
        JL        $C$L52                ; [] |1389| 
                                          ; [] |1389| 
;* --------------------------------------------------------------------------*
	.dwpsn	file "../src/start.c",line 1392,column 17,is_stmt,isa 0
        MOV.W     #0,&FC_Burner_Methanol_flow+0 ; [] |1392| 
        MOV.W     #16936,&FC_Burner_Methanol_flow+2 ; [] |1392| 
        JMP       $C$L53                ; [] |1392| 
                                          ; [] |1392| 
;* --------------------------------------------------------------------------*
$C$L52:    
	.dwpsn	file "../src/start.c",line 1390,column 17,is_stmt,isa 0
        MOV.W     &FC_Burner_Methanol_flow+0,r12 ; [] |1390| 
        MOV.W     &FC_Burner_Methanol_flow+2,r13 ; [] |1390| 
$C$DW$244	.dwtag  DW_TAG_TI_branch
	.dwattr $C$DW$244, DW_AT_low_pc(0x00)
	.dwattr $C$DW$244, DW_AT_name("__mspabi_cvtfd")
	.dwattr $C$DW$244, DW_AT_TI_call

        CALLA     #__mspabi_cvtfd       ; [] |1390| 
                                          ; [] |1390| 
        MOVA      r12,r8                ; [] |1390| 
        MOVA      r13,r9                ; [] |1390| 
        MOVA      r14,r10               ; [] |1390| 
        MOVA      r15,r11               ; [] |1390| 
        MOV.W     #39322,r12            ; [] |1390| 
        MOV.W     #39321,r13            ; [] |1390| 
        MOV.W     #39321,r14            ; [] |1390| 
        MOV.W     #16329,r15            ; [] |1390| 
$C$DW$245	.dwtag  DW_TAG_TI_branch
	.dwattr $C$DW$245, DW_AT_low_pc(0x00)
	.dwattr $C$DW$245, DW_AT_name("__mspabi_subd")
	.dwattr $C$DW$245, DW_AT_TI_call

        CALLA     #__mspabi_subd        ; [] |1390| 
                                          ; [] |1390| 
$C$DW$246	.dwtag  DW_TAG_TI_branch
	.dwattr $C$DW$246, DW_AT_low_pc(0x00)
	.dwattr $C$DW$246, DW_AT_name("__mspabi_cvtdf")
	.dwattr $C$DW$246, DW_AT_TI_call

        CALLA     #__mspabi_cvtdf       ; [] |1390| 
                                          ; [] |1390| 
        MOV.W     r12,&FC_Burner_Methanol_flow+0 ; [] |1390| 
        MOV.W     r13,&FC_Burner_Methanol_flow+2 ; [] |1390| 
;* --------------------------------------------------------------------------*
$C$L53:    
	.dwpsn	file "../src/start.c",line 1394,column 13,is_stmt,isa 0
        CMP.W     #1,&FC_Burner_Methanol_flow_GUI+0 ; [] |1394| 
        JL        $C$L54                ; [] |1394| 
                                          ; [] |1394| 
;* --------------------------------------------------------------------------*
	.dwpsn	file "../src/start.c",line 1395,column 17,is_stmt,isa 0
        MOV.W     &FC_Burner_Methanol_flow_GUI+0,r12 ; [] |1395| 
$C$DW$247	.dwtag  DW_TAG_TI_branch
	.dwattr $C$DW$247, DW_AT_low_pc(0x00)
	.dwattr $C$DW$247, DW_AT_name("__mspabi_fltif")
	.dwattr $C$DW$247, DW_AT_TI_call

        CALLA     #__mspabi_fltif       ; [] |1395| 
                                          ; [] |1395| 
        MOV.W     r12,&FC_Burner_Methanol_flow+0 ; [] |1395| 
        MOV.W     r13,&FC_Burner_Methanol_flow+2 ; [] |1395| 
;* --------------------------------------------------------------------------*
$C$L54:    
	.dwpsn	file "../src/start.c",line 1397,column 13,is_stmt,isa 0
        MOV.W     &FC_Burner_air+0,r12  ; [] |1397| 
        MOV.W     &FC_Burner_air+2,r13  ; [] |1397| 
$C$DW$248	.dwtag  DW_TAG_TI_branch
	.dwattr $C$DW$248, DW_AT_low_pc(0x00)
	.dwattr $C$DW$248, DW_AT_name("__mspabi_cvtfd")
	.dwattr $C$DW$248, DW_AT_TI_call

        CALLA     #__mspabi_cvtfd       ; [] |1397| 
                                          ; [] |1397| 
        MOVA      r12,r4                ; [] |1397| 
        MOVA      r13,r5                ; [] |1397| 
        MOVA      r14,r6                ; [] |1397| 
        MOVA      r15,r7                ; [] |1397| 
        MOV.W     &FC_Burner_Methanol_flow+0,r12 ; [] |1397| 
        MOV.W     &FC_Burner_Methanol_flow+2,r13 ; [] |1397| 
$C$DW$249	.dwtag  DW_TAG_TI_branch
	.dwattr $C$DW$249, DW_AT_low_pc(0x00)
	.dwattr $C$DW$249, DW_AT_name("__mspabi_cvtfd")
	.dwattr $C$DW$249, DW_AT_TI_call

        CALLA     #__mspabi_cvtfd       ; [] |1397| 
                                          ; [] |1397| 
        MOVA      r12,r8                ; [] |1397| 
        MOVA      r13,r9                ; [] |1397| 
        MOVA      r14,r10               ; [] |1397| 
        MOVA      r15,r11               ; [] |1397| 
        MOV.W     #65117,r12            ; [] |1397| 
        MOV.W     #64067,r13            ; [] |1397| 
        MOV.W     #60397,r14            ; [] |1397| 
        MOV.W     #16304,r15            ; [] |1397| 
$C$DW$250	.dwtag  DW_TAG_TI_branch
	.dwattr $C$DW$250, DW_AT_low_pc(0x00)
	.dwattr $C$DW$250, DW_AT_name("__mspabi_mpyd")
	.dwattr $C$DW$250, DW_AT_TI_call

        CALLA     #__mspabi_mpyd        ; [] |1397| 
                                          ; [] |1397| 
        MOVA      r12,r8                ; [] |1397| 
        MOVA      r13,r9                ; [] |1397| 
        MOVA      r14,r10               ; [] |1397| 
        MOVA      r15,r11               ; [] |1397| 
        MOV.W     #13107,r12            ; [] |1397| 
        MOV.W     #13107,r13            ; [] |1397| 
        MOV.W     #13107,r14            ; [] |1397| 
        MOV.W     #16371,r15            ; [] |1397| 
$C$DW$251	.dwtag  DW_TAG_TI_branch
	.dwattr $C$DW$251, DW_AT_low_pc(0x00)
	.dwattr $C$DW$251, DW_AT_name("__mspabi_mpyd")
	.dwattr $C$DW$251, DW_AT_TI_call

        CALLA     #__mspabi_mpyd        ; [] |1397| 
                                          ; [] |1397| 
        MOVA      r4,r8                 ; [] |1397| 
        MOVA      r5,r9                 ; [] |1397| 
        MOVA      r6,r10                ; [] |1397| 
        MOVA      r7,r11                ; [] |1397| 
$C$DW$252	.dwtag  DW_TAG_TI_branch
	.dwattr $C$DW$252, DW_AT_low_pc(0x00)
	.dwattr $C$DW$252, DW_AT_name("__mspabi_cmpd")
	.dwattr $C$DW$252, DW_AT_TI_call

        CALLA     #__mspabi_cmpd        ; [] |1397| 
                                          ; [] |1397| 
        TST.W     r12                   ; [] |1397| 
        JL        $C$L55                ; [] |1397| 
                                          ; [] |1397| 
;* --------------------------------------------------------------------------*
	.dwpsn	file "../src/start.c",line 1403,column 17,is_stmt,isa 0
        MOV.W     &FC_Burner_air+0,r12  ; [] |1403| 
        MOV.W     &FC_Burner_air+2,r13  ; [] |1403| 
$C$DW$253	.dwtag  DW_TAG_TI_branch
	.dwattr $C$DW$253, DW_AT_low_pc(0x00)
	.dwattr $C$DW$253, DW_AT_name("__mspabi_cvtfd")
	.dwattr $C$DW$253, DW_AT_TI_call

        CALLA     #__mspabi_cvtfd       ; [] |1403| 
                                          ; [] |1403| 
        MOVA      r12,r8                ; [] |1403| 
        MOVA      r13,r9                ; [] |1403| 
        MOVA      r14,r10               ; [] |1403| 
        MOVA      r15,r11               ; [] |1403| 
        MOV.W     #5243,r12             ; [] |1403| 
        MOV.W     #18350,r13            ; [] |1403| 
        MOV.W     #31457,r14            ; [] |1403| 
        MOV.W     #16244,r15            ; [] |1403| 
$C$DW$254	.dwtag  DW_TAG_TI_branch
	.dwattr $C$DW$254, DW_AT_low_pc(0x00)
	.dwattr $C$DW$254, DW_AT_name("__mspabi_subd")
	.dwattr $C$DW$254, DW_AT_TI_call

        CALLA     #__mspabi_subd        ; [] |1403| 
                                          ; [] |1403| 
$C$DW$255	.dwtag  DW_TAG_TI_branch
	.dwattr $C$DW$255, DW_AT_low_pc(0x00)
	.dwattr $C$DW$255, DW_AT_name("__mspabi_cvtdf")
	.dwattr $C$DW$255, DW_AT_TI_call

        CALLA     #__mspabi_cvtdf       ; [] |1403| 
                                          ; [] |1403| 
        MOV.W     r12,&FC_Burner_air+0  ; [] |1403| 
        MOV.W     r13,&FC_Burner_air+2  ; [] |1403| 
        JMP       $C$L58                ; [] |1403| 
                                          ; [] |1403| 
;* --------------------------------------------------------------------------*
$C$L55:    
	.dwpsn	file "../src/start.c",line 1399,column 17,is_stmt,isa 0
        MOV.W     &FC_Burner_air+0,r12  ; [] |1399| 
        MOV.W     &FC_Burner_air+2,r13  ; [] |1399| 
$C$DW$256	.dwtag  DW_TAG_TI_branch
	.dwattr $C$DW$256, DW_AT_low_pc(0x00)
	.dwattr $C$DW$256, DW_AT_name("__mspabi_cvtfd")
	.dwattr $C$DW$256, DW_AT_TI_call

        CALLA     #__mspabi_cvtfd       ; [] |1399| 
                                          ; [] |1399| 
        MOVA      r12,r8                ; [] |1399| 
        MOVA      r13,r9                ; [] |1399| 
        MOVA      r14,r10               ; [] |1399| 
        MOVA      r15,r11               ; [] |1399| 
        MOV.W     #5243,r12             ; [] |1399| 
        MOV.W     #18350,r13            ; [] |1399| 
        MOV.W     #31457,r14            ; [] |1399| 
        MOV.W     #16244,r15            ; [] |1399| 
$C$DW$257	.dwtag  DW_TAG_TI_branch
	.dwattr $C$DW$257, DW_AT_low_pc(0x00)
	.dwattr $C$DW$257, DW_AT_name("__mspabi_addd")
	.dwattr $C$DW$257, DW_AT_TI_call

        CALLA     #__mspabi_addd        ; [] |1399| 
                                          ; [] |1399| 
$C$DW$258	.dwtag  DW_TAG_TI_branch
	.dwattr $C$DW$258, DW_AT_low_pc(0x00)
	.dwattr $C$DW$258, DW_AT_name("__mspabi_cvtdf")
	.dwattr $C$DW$258, DW_AT_TI_call

        CALLA     #__mspabi_cvtdf       ; [] |1399| 
                                          ; [] |1399| 
        MOV.W     r12,&FC_Burner_air+0  ; [] |1399| 
        MOV.W     r13,&FC_Burner_air+2  ; [] |1399| 
        JMP       $C$L58                ; [] 
                                          ; [] 
;* --------------------------------------------------------------------------*
$C$L56:    
	.dwpsn	file "../src/start.c",line 1408,column 13,is_stmt,isa 0
        MOV.W     #0,r12                ; [] |1408| 
        MOV.W     #0,r13                ; [] |1408| 
        MOV.W     &FC_Burner_Methanol_flow+0,r14 ; [] |1408| 
        MOV.W     &FC_Burner_Methanol_flow+2,r15 ; [] |1408| 
$C$DW$259	.dwtag  DW_TAG_TI_branch
	.dwattr $C$DW$259, DW_AT_low_pc(0x00)
	.dwattr $C$DW$259, DW_AT_name("__mspabi_cmpf")
	.dwattr $C$DW$259, DW_AT_TI_call

        CALLA     #__mspabi_cmpf        ; [] |1408| 
                                          ; [] |1408| 
        TST.W     r12                   ; [] |1408| 
        JGE       $C$L57                ; [] |1408| 
                                          ; [] |1408| 
;* --------------------------------------------------------------------------*
	.dwpsn	file "../src/start.c",line 1409,column 17,is_stmt,isa 0
        MOV.W     &FC_Burner_Methanol_flow+0,r12 ; [] |1409| 
        MOV.W     &FC_Burner_Methanol_flow+2,r13 ; [] |1409| 
$C$DW$260	.dwtag  DW_TAG_TI_branch
	.dwattr $C$DW$260, DW_AT_low_pc(0x00)
	.dwattr $C$DW$260, DW_AT_name("__mspabi_cvtfd")
	.dwattr $C$DW$260, DW_AT_TI_call

        CALLA     #__mspabi_cvtfd       ; [] |1409| 
                                          ; [] |1409| 
        MOVA      r12,r8                ; [] |1409| 
        MOVA      r13,r9                ; [] |1409| 
        MOVA      r14,r10               ; [] |1409| 
        MOVA      r15,r11               ; [] |1409| 
        MOV.W     #39322,r12            ; [] |1409| 
        MOV.W     #39321,r13            ; [] |1409| 
        MOV.W     #39321,r14            ; [] |1409| 
        MOV.W     #16313,r15            ; [] |1409| 
$C$DW$261	.dwtag  DW_TAG_TI_branch
	.dwattr $C$DW$261, DW_AT_low_pc(0x00)
	.dwattr $C$DW$261, DW_AT_name("__mspabi_subd")
	.dwattr $C$DW$261, DW_AT_TI_call

        CALLA     #__mspabi_subd        ; [] |1409| 
                                          ; [] |1409| 
$C$DW$262	.dwtag  DW_TAG_TI_branch
	.dwattr $C$DW$262, DW_AT_low_pc(0x00)
	.dwattr $C$DW$262, DW_AT_name("__mspabi_cvtdf")
	.dwattr $C$DW$262, DW_AT_TI_call

        CALLA     #__mspabi_cvtdf       ; [] |1409| 
                                          ; [] |1409| 
        MOV.W     r12,&FC_Burner_Methanol_flow+0 ; [] |1409| 
        MOV.W     r13,&FC_Burner_Methanol_flow+2 ; [] |1409| 
;* --------------------------------------------------------------------------*
$C$L57:    
	.dwpsn	file "../src/start.c",line 1410,column 13,is_stmt,isa 0
        MOV.W     #0,r12                ; [] |1410| 
        MOV.W     #0,r13                ; [] |1410| 
        MOV.W     &FC_Burner_air+0,r14  ; [] |1410| 
        MOV.W     &FC_Burner_air+2,r15  ; [] |1410| 
$C$DW$263	.dwtag  DW_TAG_TI_branch
	.dwattr $C$DW$263, DW_AT_low_pc(0x00)
	.dwattr $C$DW$263, DW_AT_name("__mspabi_cmpf")
	.dwattr $C$DW$263, DW_AT_TI_call

        CALLA     #__mspabi_cmpf        ; [] |1410| 
                                          ; [] |1410| 
        TST.W     r12                   ; [] |1410| 
        JGE       $C$L58                ; [] |1410| 
                                          ; [] |1410| 
;* --------------------------------------------------------------------------*
	.dwpsn	file "../src/start.c",line 1411,column 17,is_stmt,isa 0
        MOV.W     &FC_Burner_air+0,r12  ; [] |1411| 
        MOV.W     &FC_Burner_air+2,r13  ; [] |1411| 
$C$DW$264	.dwtag  DW_TAG_TI_branch
	.dwattr $C$DW$264, DW_AT_low_pc(0x00)
	.dwattr $C$DW$264, DW_AT_name("__mspabi_cvtfd")
	.dwattr $C$DW$264, DW_AT_TI_call

        CALLA     #__mspabi_cvtfd       ; [] |1411| 
                                          ; [] |1411| 
        MOVA      r12,r8                ; [] |1411| 
        MOVA      r13,r9                ; [] |1411| 
        MOVA      r14,r10               ; [] |1411| 
        MOVA      r15,r11               ; [] |1411| 
        MOV.W     #5243,r12             ; [] |1411| 
        MOV.W     #18350,r13            ; [] |1411| 
        MOV.W     #31457,r14            ; [] |1411| 
        MOV.W     #16244,r15            ; [] |1411| 
$C$DW$265	.dwtag  DW_TAG_TI_branch
	.dwattr $C$DW$265, DW_AT_low_pc(0x00)
	.dwattr $C$DW$265, DW_AT_name("__mspabi_subd")
	.dwattr $C$DW$265, DW_AT_TI_call

        CALLA     #__mspabi_subd        ; [] |1411| 
                                          ; [] |1411| 
$C$DW$266	.dwtag  DW_TAG_TI_branch
	.dwattr $C$DW$266, DW_AT_low_pc(0x00)
	.dwattr $C$DW$266, DW_AT_name("__mspabi_cvtdf")
	.dwattr $C$DW$266, DW_AT_TI_call

        CALLA     #__mspabi_cvtdf       ; [] |1411| 
                                          ; [] |1411| 
        MOV.W     r12,&FC_Burner_air+0  ; [] |1411| 
        MOV.W     r13,&FC_Burner_air+2  ; [] |1411| 
;* --------------------------------------------------------------------------*
$C$L58:    
	.dwpsn	file "../src/start.c",line 1415,column 5,is_stmt,isa 0
        MOV.W     &TB0CCR6+0,r12        ; [] |1415| 
$C$DW$267	.dwtag  DW_TAG_TI_branch
	.dwattr $C$DW$267, DW_AT_low_pc(0x00)
	.dwattr $C$DW$267, DW_AT_name("__mspabi_fltuf")
	.dwattr $C$DW$267, DW_AT_TI_call

        CALLA     #__mspabi_fltuf       ; [] |1415| 
                                          ; [] |1415| 
        MOV.W     #0,r14                ; [] |1415| 
        MOV.W     #17154,r15            ; [] |1415| 
$C$DW$268	.dwtag  DW_TAG_TI_branch
	.dwattr $C$DW$268, DW_AT_low_pc(0x00)
	.dwattr $C$DW$268, DW_AT_name("__mspabi_cmpf")
	.dwattr $C$DW$268, DW_AT_TI_call

        CALLA     #__mspabi_cmpf        ; [] |1415| 
                                          ; [] |1415| 
        TST.W     r12                   ; [] |1415| 
        JGE       $C$L59                ; [] |1415| 
                                          ; [] |1415| 
;* --------------------------------------------------------------------------*
	.dwpsn	file "../src/start.c",line 1416,column 9,is_stmt,isa 0
        MOV.W     #130,&TB0CCR6+0       ; [] |1416| 
;* --------------------------------------------------------------------------*
$C$L59:    
	.dwpsn	file "../src/start.c",line 1417,column 5,is_stmt,isa 0
        TST.B     &burner_fuel+0        ; [] |1417| 
        JNE       $C$L60                ; [] |1417| 
                                          ; [] |1417| 
;* --------------------------------------------------------------------------*
	.dwpsn	file "../src/start.c",line 1424,column 9,is_stmt,isa 0
        MOV.W     &main_fuel_flow+0,r12 ; [] |1424| 
        MOV.W     &main_fuel_flow+2,r13 ; [] |1424| 
$C$DW$269	.dwtag  DW_TAG_TI_branch
	.dwattr $C$DW$269, DW_AT_low_pc(0x00)
	.dwattr $C$DW$269, DW_AT_name("__mspabi_cvtfd")
	.dwattr $C$DW$269, DW_AT_TI_call

        CALLA     #__mspabi_cvtfd       ; [] |1424| 
                                          ; [] |1424| 
        MOVA      r12,r8                ; [] |1424| 
        MOVA      r13,r9                ; [] |1424| 
        MOVA      r14,r10               ; [] |1424| 
        MOVA      r15,r11               ; [] |1424| 
        MOV.W     #15729,r12            ; [] |1424| 
        MOV.W     #55050,r13            ; [] |1424| 
        MOV.W     #28835,r14            ; [] |1424| 
        MOV.W     #16357,r15            ; [] |1424| 
$C$DW$270	.dwtag  DW_TAG_TI_branch
	.dwattr $C$DW$270, DW_AT_low_pc(0x00)
	.dwattr $C$DW$270, DW_AT_name("__mspabi_mpyd")
	.dwattr $C$DW$270, DW_AT_TI_call

        CALLA     #__mspabi_mpyd        ; [] |1424| 
                                          ; [] |1424| 
$C$DW$271	.dwtag  DW_TAG_TI_branch
	.dwattr $C$DW$271, DW_AT_low_pc(0x00)
	.dwattr $C$DW$271, DW_AT_name("__mspabi_cvtdf")
	.dwattr $C$DW$271, DW_AT_TI_call

        CALLA     #__mspabi_cvtdf       ; [] |1424| 
                                          ; [] |1424| 
        MOVA      r13,r15               ; [] |1424| 
        MOV.W     r12,&FP_Methanol_flow+0 ; [] |1424| 
        MOV.W     r15,&FP_Methanol_flow+2 ; [] |1424| 
	.dwpsn	file "../src/start.c",line 1425,column 9,is_stmt,isa 0
        MOV.W     &main_fuel_flow+0,r12 ; [] |1425| 
        MOV.W     &main_fuel_flow+2,r13 ; [] |1425| 
        MOV.W     &FP_Methanol_flow+0,r14 ; [] |1425| 
$C$DW$272	.dwtag  DW_TAG_TI_branch
	.dwattr $C$DW$272, DW_AT_low_pc(0x00)
	.dwattr $C$DW$272, DW_AT_name("__mspabi_subf")
	.dwattr $C$DW$272, DW_AT_TI_call

        CALLA     #__mspabi_subf        ; [] |1425| 
                                          ; [] |1425| 
        MOV.W     r12,&FP_Water_flow+0  ; [] |1425| 
        MOV.W     r13,&FP_Water_flow+2  ; [] |1425| 
        JMP       $C$L61                ; [] |1425| 
                                          ; [] |1425| 
;* --------------------------------------------------------------------------*
$C$L60:    
	.dwpsn	file "../src/start.c",line 1419,column 9,is_stmt,isa 0
        MOV.W     &main_fuel_flow+0,&FP_Methanol_flow+0 ; [] |1419| 
        MOV.W     &main_fuel_flow+2,&FP_Methanol_flow+2 ; [] |1419| 
	.dwpsn	file "../src/start.c",line 1420,column 9,is_stmt,isa 0
        MOV.W     #0,&FP_Water_flow+0   ; [] |1420| 
        MOV.W     #0,&FP_Water_flow+2   ; [] |1420| 
;* --------------------------------------------------------------------------*
$C$L61:    
	.dwpsn	file "../src/start.c",line 1427,column 1,is_stmt,isa 0
        POPM.A    #7,r10                ; [] 
	.dwcfi	restore_reg, 4
	.dwcfi	restore_reg, 5
	.dwcfi	restore_reg, 6
	.dwcfi	restore_reg, 7
	.dwcfi	restore_reg, 8
	.dwcfi	restore_reg, 9
	.dwcfi	restore_reg, 10
	.dwcfi	cfa_offset, 4
$C$DW$273	.dwtag  DW_TAG_TI_branch
	.dwattr $C$DW$273, DW_AT_low_pc(0x00)
	.dwattr $C$DW$273, DW_AT_TI_return

        RETA      ; [] 
        ; [] 
	.dwattr $C$DW$225, DW_AT_TI_end_file("../src/start.c")
	.dwattr $C$DW$225, DW_AT_TI_end_line(0x593)
	.dwattr $C$DW$225, DW_AT_TI_end_column(0x01)
	.dwendentry
	.dwendtag $C$DW$225

	.sect	".text:startup"
	.clink
	.global	startup

$C$DW$274	.dwtag  DW_TAG_subprogram
	.dwattr $C$DW$274, DW_AT_name("startup")
	.dwattr $C$DW$274, DW_AT_low_pc(startup)
	.dwattr $C$DW$274, DW_AT_high_pc(0x00)
	.dwattr $C$DW$274, DW_AT_TI_symbol_name("startup")
	.dwattr $C$DW$274, DW_AT_external
	.dwattr $C$DW$274, DW_AT_TI_begin_file("../src/start.c")
	.dwattr $C$DW$274, DW_AT_TI_begin_line(0xc1)
	.dwattr $C$DW$274, DW_AT_TI_begin_column(0x06)
	.dwattr $C$DW$274, DW_AT_decl_file("../src/start.c")
	.dwattr $C$DW$274, DW_AT_decl_line(0xc1)
	.dwattr $C$DW$274, DW_AT_decl_column(0x06)
	.dwattr $C$DW$274, DW_AT_TI_max_frame_size(0x2a)
	.dwpsn	file "../src/start.c",line 194,column 1,is_stmt,address startup,isa 0

	.dwfde $C$DW$CIE, startup

;*****************************************************************************
;* FUNCTION NAME: startup                                                    *
;*                                                                           *
;*   Regs Modified     : SP,SR,r4,r5,r6,r7,r8,r9,r10,r11,r12,r13,r14,r15     *
;*   Regs Used         : SP,SR,r4,r5,r6,r7,r8,r9,r10,r11,r12,r13,r14,r15     *
;*   Local Frame Size  : 8 Args + 2 Auto + 28 Save = 38 byte                 *
;*****************************************************************************
startup:
;* --------------------------------------------------------------------------*
	.dwcfi	cfa_offset, 4
	.dwcfi	save_reg_to_mem, 16, -4
        PUSHM.A   #7,r10                ; [] 
	.dwcfi	save_reg_to_mem, 10, -8
	.dwcfi	save_reg_to_mem, 9, -12
	.dwcfi	save_reg_to_mem, 8, -16
	.dwcfi	save_reg_to_mem, 7, -20
	.dwcfi	save_reg_to_mem, 6, -24
	.dwcfi	save_reg_to_mem, 5, -28
	.dwcfi	save_reg_to_mem, 4, -32
	.dwcfi	cfa_offset, 32
        SUBA      #10,SP                ; [] 
	.dwcfi	cfa_offset, 42
;* r6    assigned to fixstoich
$C$DW$275	.dwtag  DW_TAG_variable
	.dwattr $C$DW$275, DW_AT_name("fixstoich")
	.dwattr $C$DW$275, DW_AT_TI_symbol_name("fixstoich")
	.dwattr $C$DW$275, DW_AT_type(*$C$DW$T$16)
	.dwattr $C$DW$275, DW_AT_location[DW_OP_reg6 DW_OP_piece 2 DW_OP_reg7 DW_OP_piece 2]

	.dwpsn	file "../src/start.c",line 198,column 5,is_stmt,isa 0
        CMP.B     #1,&burner_fuel+0     ; [] |198| 
        JNE       $C$L63                ; [] |198| 
                                          ; [] |198| 
;* --------------------------------------------------------------------------*
	.dwpsn	file "../src/start.c",line 200,column 9,is_stmt,isa 0
        CMP.B     #2,&Stime+0           ; [] |200| 
        JLO       $C$L62                ; [] |200| 
                                          ; [] |200| 
;* --------------------------------------------------------------------------*
	.dwpsn	file "../src/start.c",line 207,column 13,is_stmt,isa 0
        AND.B     #191,&PEOUT_L+0       ; [] |207| 
        AND.B     #127,&PEOUT_L+0       ; [] |207| 
        JMP       $C$L63                ; [] |207| 
                                          ; [] |207| 
;* --------------------------------------------------------------------------*
$C$L62:    
	.dwpsn	file "../src/start.c",line 202,column 13,is_stmt,isa 0
        AND.B     #127,&PEOUT_L+0       ; [] |202| 
        OR.B      #64,&PEOUT_L+0        ; [] |202| 
;* --------------------------------------------------------------------------*
$C$L63:    
	.dwpsn	file "../src/start.c",line 212,column 5,is_stmt,isa 0
        TST.B     &burner_fuel+0        ; [] |212| 
        JNE       $C$L65                ; [] |212| 
                                          ; [] |212| 
;* --------------------------------------------------------------------------*
	.dwpsn	file "../src/start.c",line 214,column 9,is_stmt,isa 0
        CMP.B     #2,&Stime+0           ; [] |214| 
        JLO       $C$L64                ; [] |214| 
                                          ; [] |214| 
;* --------------------------------------------------------------------------*
	.dwpsn	file "../src/start.c",line 221,column 13,is_stmt,isa 0
        AND.B     #191,&PEOUT_L+0       ; [] |221| 
        AND.B     #127,&PEOUT_L+0       ; [] |221| 
        JMP       $C$L65                ; [] |221| 
                                          ; [] |221| 
;* --------------------------------------------------------------------------*
$C$L64:    
	.dwpsn	file "../src/start.c",line 216,column 13,is_stmt,isa 0
        AND.B     #191,&PEOUT_L+0       ; [] |216| 
        OR.B      #128,&PEOUT_L+0       ; [] |216| 
;* --------------------------------------------------------------------------*
$C$L65:    
	.dwpsn	file "../src/start.c",line 226,column 5,is_stmt,isa 0
        OR.B      #8,&PDOUT_H+0         ; [] |226| 
	.dwpsn	file "../src/start.c",line 228,column 5,is_stmt,isa 0
        MOV.W     #0,&status+0          ; [] |228| 
	.dwpsn	file "../src/start.c",line 230,column 5,is_stmt,isa 0
        MOV.W     &System_V+0,r12       ; [] |230| 
        MOV.W     &System_V+2,r13       ; [] |230| 
        MOV.W     #0,r14                ; [] |230| 
        MOV.W     #16772,r15            ; [] |230| 
$C$DW$276	.dwtag  DW_TAG_TI_branch
	.dwattr $C$DW$276, DW_AT_low_pc(0x00)
	.dwattr $C$DW$276, DW_AT_name("__mspabi_cmpf")
	.dwattr $C$DW$276, DW_AT_TI_call

        CALLA     #__mspabi_cmpf        ; [] |230| 
                                          ; [] |230| 
        TST.W     r12                   ; [] |230| 
        JL        $C$L67                ; [] |230| 
                                          ; [] |230| 
;* --------------------------------------------------------------------------*
        MOV.W     &System_V+0,r12       ; [] |230| 
        MOV.W     &System_V+2,r13       ; [] |230| 
$C$DW$277	.dwtag  DW_TAG_TI_branch
	.dwattr $C$DW$277, DW_AT_low_pc(0x00)
	.dwattr $C$DW$277, DW_AT_name("__mspabi_cvtfd")
	.dwattr $C$DW$277, DW_AT_TI_call

        CALLA     #__mspabi_cvtfd       ; [] |230| 
                                          ; [] |230| 
        MOV.W     #26214,r8             ; [] |230| 
        MOV.W     #26214,r9             ; [] |230| 
        MOV.W     #58982,r10            ; [] |230| 
        MOV.W     #16432,r11            ; [] |230| 
$C$DW$278	.dwtag  DW_TAG_TI_branch
	.dwattr $C$DW$278, DW_AT_low_pc(0x00)
	.dwattr $C$DW$278, DW_AT_name("__mspabi_cmpd")
	.dwattr $C$DW$278, DW_AT_TI_call

        CALLA     #__mspabi_cmpd        ; [] |230| 
                                          ; [] |230| 
        TST.W     r12                   ; [] |230| 
        JL        $C$L67                ; [] |230| 
                                          ; [] |230| 
;* --------------------------------------------------------------------------*
        MOV.W     &CO_Batt_V+0,r12      ; [] |230| 
        MOV.W     &CO_Batt_V+2,r13      ; [] |230| 
        MOV.W     #0,r14                ; [] |230| 
        MOV.W     #16736,r15            ; [] |230| 
$C$DW$279	.dwtag  DW_TAG_TI_branch
	.dwattr $C$DW$279, DW_AT_low_pc(0x00)
	.dwattr $C$DW$279, DW_AT_name("__mspabi_cmpf")
	.dwattr $C$DW$279, DW_AT_TI_call

        CALLA     #__mspabi_cmpf        ; [] |230| 
                                          ; [] |230| 
        TST.W     r12                   ; [] |230| 
        JL        $C$L67                ; [] |230| 
                                          ; [] |230| 
;* --------------------------------------------------------------------------*
	.dwpsn	file "../src/start.c",line 232,column 10,is_stmt,isa 0
        MOV.W     #0,r12                ; [] |232| 
        MOV.W     #16772,r13            ; [] |232| 
        MOV.W     &System_V+0,r14       ; [] |232| 
        MOV.W     &System_V+2,r15       ; [] |232| 
$C$DW$280	.dwtag  DW_TAG_TI_branch
	.dwattr $C$DW$280, DW_AT_low_pc(0x00)
	.dwattr $C$DW$280, DW_AT_name("__mspabi_cmpf")
	.dwattr $C$DW$280, DW_AT_TI_call

        CALLA     #__mspabi_cmpf        ; [] |232| 
                                          ; [] |232| 
        TST.W     r12                   ; [] |232| 
        JGE       $C$L68                ; [] |232| 
                                          ; [] |232| 
;* --------------------------------------------------------------------------*
        MOV.W     &System_V+0,r12       ; [] |232| 
        MOV.W     &System_V+2,r13       ; [] |232| 
$C$DW$281	.dwtag  DW_TAG_TI_branch
	.dwattr $C$DW$281, DW_AT_low_pc(0x00)
	.dwattr $C$DW$281, DW_AT_name("__mspabi_cvtfd")
	.dwattr $C$DW$281, DW_AT_TI_call

        CALLA     #__mspabi_cvtfd       ; [] |232| 
                                          ; [] |232| 
        MOVA      r12,r8                ; [] |232| 
        MOVA      r13,r9                ; [] |232| 
        MOVA      r14,r10               ; [] |232| 
        MOVA      r15,r11               ; [] |232| 
        MOV.W     #26214,r12            ; [] |232| 
        MOV.W     #26214,r13            ; [] |232| 
        MOV.W     #58982,r14            ; [] |232| 
        MOV.W     #16432,r15            ; [] |232| 
$C$DW$282	.dwtag  DW_TAG_TI_branch
	.dwattr $C$DW$282, DW_AT_low_pc(0x00)
	.dwattr $C$DW$282, DW_AT_name("__mspabi_cmpd")
	.dwattr $C$DW$282, DW_AT_TI_call

        CALLA     #__mspabi_cmpd        ; [] |232| 
                                          ; [] |232| 
        TST.W     r12                   ; [] |232| 
        JGE       $C$L68                ; [] |232| 
                                          ; [] |232| 
;* --------------------------------------------------------------------------*
        MOV.W     &CO_Batt_V+0,r12      ; [] |232| 
        MOV.W     &CO_Batt_V+2,r13      ; [] |232| 
$C$DW$283	.dwtag  DW_TAG_TI_branch
	.dwattr $C$DW$283, DW_AT_low_pc(0x00)
	.dwattr $C$DW$283, DW_AT_name("__mspabi_cvtfd")
	.dwattr $C$DW$283, DW_AT_TI_call

        CALLA     #__mspabi_cvtfd       ; [] |232| 
                                          ; [] |232| 
        MOV.W     #26214,r8             ; [] |232| 
        MOV.W     #26214,r9             ; [] |232| 
        MOV.W     #26214,r10            ; [] |232| 
        MOV.W     #16428,r11            ; [] |232| 
$C$DW$284	.dwtag  DW_TAG_TI_branch
	.dwattr $C$DW$284, DW_AT_low_pc(0x00)
	.dwattr $C$DW$284, DW_AT_name("__mspabi_cmpd")
	.dwattr $C$DW$284, DW_AT_TI_call

        CALLA     #__mspabi_cmpd        ; [] |232| 
                                          ; [] |232| 
        TST.W     r12                   ; [] |232| 
        JL        $C$L66                ; [] |232| 
                                          ; [] |232| 
;* --------------------------------------------------------------------------*
        MOV.W     #0,r12                ; [] |232| 
        MOV.W     #16768,r13            ; [] |232| 
        MOV.W     &Output_volts+0,r14   ; [] |232| 
        MOV.W     &Output_volts+2,r15   ; [] |232| 
$C$DW$285	.dwtag  DW_TAG_TI_branch
	.dwattr $C$DW$285, DW_AT_low_pc(0x00)
	.dwattr $C$DW$285, DW_AT_name("__mspabi_cmpf")
	.dwattr $C$DW$285, DW_AT_TI_call

        CALLA     #__mspabi_cmpf        ; [] |232| 
                                          ; [] |232| 
        TST.W     r12                   ; [] |232| 
        JGE       $C$L68                ; [] |232| 
                                          ; [] |232| 
;* --------------------------------------------------------------------------*
$C$L66:    
	.dwpsn	file "../src/start.c",line 234,column 9,is_stmt,isa 0
        OR.B      #128,&PDOUT_H+0       ; [] |234| 
        JMP       $C$L68                ; [] |234| 
                                          ; [] |234| 
;* --------------------------------------------------------------------------*
$C$L67:    
	.dwpsn	file "../src/start.c",line 231,column 9,is_stmt,isa 0
        AND.B     #127,&PDOUT_H+0       ; [] |231| 
;* --------------------------------------------------------------------------*
$C$L68:    
	.dwpsn	file "../src/start.c",line 236,column 5,is_stmt,isa 0
        MOV.B     &burner_flag+0,r15    ; [] |236| 
        CMP.W     #7,r15                ; [] |236| 
        JHS       $C$L201               ; [] |236| 
                                          ; [] |236| 
;* --------------------------------------------------------------------------*
        RLAM.W    #2,r15                ; [] |236| 
        MOVX.A    $C$SW1+0(r15),PC      ; [] |236| 
                                          ; [] |236| 
$C$SW1:	.long	$C$L193	; 0
	.long	$C$L190	; 1
	.long	$C$L186	; 2
	.long	$C$L163	; 3
	.long	$C$L135	; 4
	.long	$C$L114	; 5
	.long	$C$L69	; 6
;* --------------------------------------------------------------------------*
$C$L69:    
	.dwpsn	file "../src/start.c",line 761,column 9,is_stmt,isa 0
        CMP.W     #500,&entered_burner_flag_6_timer+0 ; [] |761| 
        JGE       $C$L70                ; [] |761| 
                                          ; [] |761| 
;* --------------------------------------------------------------------------*
	.dwpsn	file "../src/start.c",line 763,column 13,is_stmt,isa 0
        ADD.W     #1,&entered_burner_flag_6_timer+0 ; [] |763| 
	.dwpsn	file "../src/start.c",line 764,column 13,is_stmt,isa 0
        MOV.W     #0,&on_delay+0        ; [] |764| 
;* --------------------------------------------------------------------------*
$C$L70:    
	.dwpsn	file "../src/start.c",line 767,column 9,is_stmt,isa 0
        TST.B     &load+0               ; [] |767| 
        JNE       $C$L71                ; [] |767| 
                                          ; [] |767| 
;* --------------------------------------------------------------------------*
	.dwpsn	file "../src/start.c",line 769,column 13,is_stmt,isa 0
        MOV.W     #130,&TB0CCR6+0       ; [] |769| 
;* --------------------------------------------------------------------------*
$C$L71:    
	.dwpsn	file "../src/start.c",line 772,column 9,is_stmt,isa 0
        TST.B     &SwapCount+0          ; [] |772| 
        JNE       $C$L113               ; [] |772| 
                                          ; [] |772| 
;* --------------------------------------------------------------------------*
	.dwpsn	file "../src/start.c",line 786,column 13,is_stmt,isa 0
        MOV.W     #0,r12                ; [] |786| 
        MOV.W     #17264,r13            ; [] |786| 
        MOV.W     &TC2_temp+0,r14       ; [] |786| 
        MOV.W     &TC2_temp+2,r15       ; [] |786| 
$C$DW$286	.dwtag  DW_TAG_TI_branch
	.dwattr $C$DW$286, DW_AT_low_pc(0x00)
	.dwattr $C$DW$286, DW_AT_name("__mspabi_cmpf")
	.dwattr $C$DW$286, DW_AT_TI_call

        CALLA     #__mspabi_cmpf        ; [] |786| 
                                          ; [] |786| 
        TST.W     r12                   ; [] |786| 
        JGE       $C$L104               ; [] |786| 
                                          ; [] |786| 
;* --------------------------------------------------------------------------*
	.dwpsn	file "../src/start.c",line 788,column 17,is_stmt,isa 0
        MOV.W     &TC1_temp+0,r12       ; [] |788| 
        MOV.W     &TC1_temp+2,r13       ; [] |788| 
$C$DW$287	.dwtag  DW_TAG_TI_branch
	.dwattr $C$DW$287, DW_AT_low_pc(0x00)
	.dwattr $C$DW$287, DW_AT_name("__mspabi_cvtfd")
	.dwattr $C$DW$287, DW_AT_TI_call

        CALLA     #__mspabi_cvtfd       ; [] |788| 
                                          ; [] |788| 
        MOVA      r12,r4                ; [] |788| 
        MOVA      r13,r5                ; [] |788| 
        MOVA      r14,r6                ; [] |788| 
        MOVA      r15,r7                ; [] |788| 
        MOV.W     &load_on_temp+0,r12   ; [] |788| 
        MOV.W     &load_on_temp+2,r13   ; [] |788| 
$C$DW$288	.dwtag  DW_TAG_TI_branch
	.dwattr $C$DW$288, DW_AT_low_pc(0x00)
	.dwattr $C$DW$288, DW_AT_name("__mspabi_cvtfd")
	.dwattr $C$DW$288, DW_AT_TI_call

        CALLA     #__mspabi_cvtfd       ; [] |788| 
                                          ; [] |788| 
        MOVA      r12,r8                ; [] |788| 
        MOVA      r13,r9                ; [] |788| 
        MOVA      r14,r10               ; [] |788| 
        MOVA      r15,r11               ; [] |788| 
        MOV.W     #0,r12                ; [] |788| 
        MOV.W     #0,r13                ; [] |788| 
        MOV.W     #0,r14                ; [] |788| 
        MOV.W     #16384,r15            ; [] |788| 
$C$DW$289	.dwtag  DW_TAG_TI_branch
	.dwattr $C$DW$289, DW_AT_low_pc(0x00)
	.dwattr $C$DW$289, DW_AT_name("__mspabi_subd")
	.dwattr $C$DW$289, DW_AT_TI_call

        CALLA     #__mspabi_subd        ; [] |788| 
                                          ; [] |788| 
        MOVA      r4,r8                 ; [] |788| 
        MOVA      r5,r9                 ; [] |788| 
        MOVA      r6,r10                ; [] |788| 
        MOVA      r7,r11                ; [] |788| 
$C$DW$290	.dwtag  DW_TAG_TI_branch
	.dwattr $C$DW$290, DW_AT_low_pc(0x00)
	.dwattr $C$DW$290, DW_AT_name("__mspabi_cmpd")
	.dwattr $C$DW$290, DW_AT_TI_call

        CALLA     #__mspabi_cmpd        ; [] |788| 
                                          ; [] |788| 
        TST.W     r12                   ; [] |788| 
        JL        $C$L89                ; [] |788| 
                                          ; [] |788| 
;* --------------------------------------------------------------------------*
	.dwpsn	file "../src/start.c",line 790,column 21,is_stmt,isa 0
        MOV.W     #5,r12                ; [] |790| 
        ADD.W     &Tset+0,r12           ; [] |790| 
$C$DW$291	.dwtag  DW_TAG_TI_branch
	.dwattr $C$DW$291, DW_AT_low_pc(0x00)
	.dwattr $C$DW$291, DW_AT_name("__mspabi_fltif")
	.dwattr $C$DW$291, DW_AT_TI_call

        CALLA     #__mspabi_fltif       ; [] |790| 
                                          ; [] |790| 
        MOVA      r12,r14               ; [] |790| 
        MOVA      r13,r15               ; [] |790| 
        MOV.W     &TC2_temp+0,r12       ; [] |790| 
        MOV.W     &TC2_temp+2,r13       ; [] |790| 
$C$DW$292	.dwtag  DW_TAG_TI_branch
	.dwattr $C$DW$292, DW_AT_low_pc(0x00)
	.dwattr $C$DW$292, DW_AT_name("__mspabi_cmpf")
	.dwattr $C$DW$292, DW_AT_TI_call

        CALLA     #__mspabi_cmpf        ; [] |790| 
                                          ; [] |790| 
        TST.W     r12                   ; [] |790| 
        JL        $C$L72                ; [] |790| 
                                          ; [] |790| 
;* --------------------------------------------------------------------------*
	.dwpsn	file "../src/start.c",line 792,column 25,is_stmt,isa 0
        MOV.W     #0,&StartTime+0       ; [] |792| 
;* --------------------------------------------------------------------------*
$C$L72:    
	.dwpsn	file "../src/start.c",line 794,column 21,is_stmt,isa 0
        MOV.B     #0,&burner_fuel+0     ; [] |794| 
	.dwpsn	file "../src/start.c",line 796,column 21,is_stmt,isa 0
        MOV.W     &Tset+0,r12           ; [] |796| 
$C$DW$293	.dwtag  DW_TAG_TI_branch
	.dwattr $C$DW$293, DW_AT_low_pc(0x00)
	.dwattr $C$DW$293, DW_AT_name("__mspabi_fltif")
	.dwattr $C$DW$293, DW_AT_TI_call

        CALLA     #__mspabi_fltif       ; [] |796| 
                                          ; [] |796| 
        MOVA      r12,r14               ; [] |796| 
        MOVA      r13,r15               ; [] |796| 
        MOV.W     &TC2_temp+0,r12       ; [] |796| 
        MOV.W     &TC2_temp+2,r13       ; [] |796| 
$C$DW$294	.dwtag  DW_TAG_TI_branch
	.dwattr $C$DW$294, DW_AT_low_pc(0x00)
	.dwattr $C$DW$294, DW_AT_name("__mspabi_cmpf")
	.dwattr $C$DW$294, DW_AT_TI_call

        CALLA     #__mspabi_cmpf        ; [] |796| 
                                          ; [] |796| 
        TST.W     r12                   ; [] |796| 
        JL        $C$L73                ; [] |796| 
                                          ; [] |796| 
;* --------------------------------------------------------------------------*
        CMP.W     #4,&FC_Dropout+0      ; [] |796| 
        JGE       $C$L73                ; [] |796| 
                                          ; [] |796| 
;* --------------------------------------------------------------------------*
	.dwpsn	file "../src/start.c",line 798,column 25,is_stmt,isa 0
        MOV.W     #0,&StartTime+0       ; [] |798| 
;* --------------------------------------------------------------------------*
$C$L73:    
	.dwpsn	file "../src/start.c",line 801,column 21,is_stmt,isa 0
        MOV.W     #0,r12                ; [] |801| 
        MOV.W     #17287,r13            ; [] |801| 
        MOV.W     &TC2_temp+0,r14       ; [] |801| 
        MOV.W     &TC2_temp+2,r15       ; [] |801| 
$C$DW$295	.dwtag  DW_TAG_TI_branch
	.dwattr $C$DW$295, DW_AT_low_pc(0x00)
	.dwattr $C$DW$295, DW_AT_name("__mspabi_cmpf")
	.dwattr $C$DW$295, DW_AT_TI_call

        CALLA     #__mspabi_cmpf        ; [] |801| 
                                          ; [] |801| 
        TST.W     r12                   ; [] |801| 
        JL        $C$L83                ; [] |801| 
                                          ; [] |801| 
;* --------------------------------------------------------------------------*
	.dwpsn	file "../src/start.c",line 812,column 26,is_stmt,isa 0
        MOV.W     #32768,r12            ; [] |812| 
        MOV.W     #17284,r13            ; [] |812| 
        MOV.W     &TC2_temp+0,r14       ; [] |812| 
        MOV.W     &TC2_temp+2,r15       ; [] |812| 
$C$DW$296	.dwtag  DW_TAG_TI_branch
	.dwattr $C$DW$296, DW_AT_low_pc(0x00)
	.dwattr $C$DW$296, DW_AT_name("__mspabi_cmpf")
	.dwattr $C$DW$296, DW_AT_TI_call

        CALLA     #__mspabi_cmpf        ; [] |812| 
                                          ; [] |812| 
        TST.W     r12                   ; [] |812| 
        JL        $C$L81                ; [] |812| 
                                          ; [] |812| 
;* --------------------------------------------------------------------------*
	.dwpsn	file "../src/start.c",line 823,column 26,is_stmt,isa 0
        MOV.W     #0,r12                ; [] |823| 
        MOV.W     #17282,r13            ; [] |823| 
        MOV.W     &TC2_temp+0,r14       ; [] |823| 
        MOV.W     &TC2_temp+2,r15       ; [] |823| 
$C$DW$297	.dwtag  DW_TAG_TI_branch
	.dwattr $C$DW$297, DW_AT_low_pc(0x00)
	.dwattr $C$DW$297, DW_AT_name("__mspabi_cmpf")
	.dwattr $C$DW$297, DW_AT_TI_call

        CALLA     #__mspabi_cmpf        ; [] |823| 
                                          ; [] |823| 
        TST.W     r12                   ; [] |823| 
        JL        $C$L79                ; [] |823| 
                                          ; [] |823| 
;* --------------------------------------------------------------------------*
	.dwpsn	file "../src/start.c",line 834,column 26,is_stmt,isa 0
        MOV.W     &TC2_temp+0,r12       ; [] |834| 
        MOV.W     &TC2_temp+2,r13       ; [] |834| 
        MOV.W     #0,r14                ; [] |834| 
        MOV.W     #17274,r15            ; [] |834| 
$C$DW$298	.dwtag  DW_TAG_TI_branch
	.dwattr $C$DW$298, DW_AT_low_pc(0x00)
	.dwattr $C$DW$298, DW_AT_name("__mspabi_cmpf")
	.dwattr $C$DW$298, DW_AT_TI_call

        CALLA     #__mspabi_cmpf        ; [] |834| 
                                          ; [] |834| 
        TST.W     r12                   ; [] |834| 
        JL        $C$L77                ; [] |834| 
                                          ; [] |834| 
;* --------------------------------------------------------------------------*
	.dwpsn	file "../src/start.c",line 845,column 26,is_stmt,isa 0
        MOV.W     &TC2_temp+0,r12       ; [] |845| 
        MOV.W     &TC2_temp+2,r13       ; [] |845| 
        MOV.W     #0,r14                ; [] |845| 
        MOV.W     #17279,r15            ; [] |845| 
$C$DW$299	.dwtag  DW_TAG_TI_branch
	.dwattr $C$DW$299, DW_AT_low_pc(0x00)
	.dwattr $C$DW$299, DW_AT_name("__mspabi_cmpf")
	.dwattr $C$DW$299, DW_AT_TI_call

        CALLA     #__mspabi_cmpf        ; [] |845| 
                                          ; [] |845| 
        TST.W     r12                   ; [] |845| 
        JL        $C$L75                ; [] |845| 
                                          ; [] |845| 
;* --------------------------------------------------------------------------*
	.dwpsn	file "../src/start.c",line 856,column 26,is_stmt,isa 0
        MOV.W     &TC2_temp+0,r12       ; [] |856| 
        MOV.W     &TC2_temp+2,r13       ; [] |856| 
        MOV.W     #0,r14                ; [] |856| 
        MOV.W     #17282,r15            ; [] |856| 
$C$DW$300	.dwtag  DW_TAG_TI_branch
	.dwattr $C$DW$300, DW_AT_low_pc(0x00)
	.dwattr $C$DW$300, DW_AT_name("__mspabi_cmpf")
	.dwattr $C$DW$300, DW_AT_TI_call

        CALLA     #__mspabi_cmpf        ; [] |856| 
                                          ; [] |856| 
        TST.W     r12                   ; [] |856| 
        JGE       $C$L85                ; [] |856| 
                                          ; [] |856| 
;* --------------------------------------------------------------------------*
	.dwpsn	file "../src/start.c",line 858,column 25,is_stmt,isa 0
        MOV.W     &b+0,r12              ; [] |858| 
        MOV.W     &b+2,r13              ; [] |858| 
$C$DW$301	.dwtag  DW_TAG_TI_branch
	.dwattr $C$DW$301, DW_AT_low_pc(0x00)
	.dwattr $C$DW$301, DW_AT_name("__mspabi_cvtfd")
	.dwattr $C$DW$301, DW_AT_TI_call

        CALLA     #__mspabi_cvtfd       ; [] |858| 
                                          ; [] |858| 
        MOVA      r12,r8                ; [] |858| 
        MOVA      r13,r9                ; [] |858| 
        MOVA      r14,r10               ; [] |858| 
        MOVA      r15,r11               ; [] |858| 
        MOV.W     #5243,r12             ; [] |858| 
        MOV.W     #18350,r13            ; [] |858| 
        MOV.W     #31457,r14            ; [] |858| 
        MOV.W     #16260,r15            ; [] |858| 
$C$DW$302	.dwtag  DW_TAG_TI_branch
	.dwattr $C$DW$302, DW_AT_low_pc(0x00)
	.dwattr $C$DW$302, DW_AT_name("__mspabi_cmpd")
	.dwattr $C$DW$302, DW_AT_TI_call

        CALLA     #__mspabi_cmpd        ; [] |858| 
                                          ; [] |858| 
        TST.W     r12                   ; [] |858| 
        JL        $C$L74                ; [] |858| 
                                          ; [] |858| 
;* --------------------------------------------------------------------------*
	.dwpsn	file "../src/start.c",line 864,column 29,is_stmt,isa 0
        MOV.W     &main_fuel_flow+0,r12 ; [] |864| 
        MOV.W     &main_fuel_flow+2,r13 ; [] |864| 
$C$DW$303	.dwtag  DW_TAG_TI_branch
	.dwattr $C$DW$303, DW_AT_low_pc(0x00)
	.dwattr $C$DW$303, DW_AT_name("__mspabi_cvtfd")
	.dwattr $C$DW$303, DW_AT_TI_call

        CALLA     #__mspabi_cvtfd       ; [] |864| 
                                          ; [] |864| 
        MOVA      r12,r8                ; [] |864| 
        MOVA      r13,r9                ; [] |864| 
        MOVA      r14,r10               ; [] |864| 
        MOVA      r15,r11               ; [] |864| 
        MOV.W     #5243,r12             ; [] |864| 
        MOV.W     #18350,r13            ; [] |864| 
        MOV.W     #31457,r14            ; [] |864| 
        MOV.W     #16260,r15            ; [] |864| 
$C$DW$304	.dwtag  DW_TAG_TI_branch
	.dwattr $C$DW$304, DW_AT_low_pc(0x00)
	.dwattr $C$DW$304, DW_AT_name("__mspabi_subd")
	.dwattr $C$DW$304, DW_AT_TI_call

        CALLA     #__mspabi_subd        ; [] |864| 
                                          ; [] |864| 
$C$DW$305	.dwtag  DW_TAG_TI_branch
	.dwattr $C$DW$305, DW_AT_low_pc(0x00)
	.dwattr $C$DW$305, DW_AT_name("__mspabi_cvtdf")
	.dwattr $C$DW$305, DW_AT_TI_call

        CALLA     #__mspabi_cvtdf       ; [] |864| 
                                          ; [] |864| 
        MOV.W     r12,&main_fuel_flow+0 ; [] |864| 
        MOV.W     r13,&main_fuel_flow+2 ; [] |864| 
        JMP       $C$L85                ; [] |864| 
                                          ; [] |864| 
;* --------------------------------------------------------------------------*
$C$L74:    
	.dwpsn	file "../src/start.c",line 860,column 29,is_stmt,isa 0
        MOV.W     &main_fuel_flow+0,r12 ; [] |860| 
        MOV.W     &main_fuel_flow+2,r13 ; [] |860| 
$C$DW$306	.dwtag  DW_TAG_TI_branch
	.dwattr $C$DW$306, DW_AT_low_pc(0x00)
	.dwattr $C$DW$306, DW_AT_name("__mspabi_cvtfd")
	.dwattr $C$DW$306, DW_AT_TI_call

        CALLA     #__mspabi_cvtfd       ; [] |860| 
                                          ; [] |860| 
        MOVA      r12,r8                ; [] |860| 
        MOVA      r13,r9                ; [] |860| 
        MOVA      r14,r10               ; [] |860| 
        MOVA      r15,r11               ; [] |860| 
        MOV.W     #5243,r12             ; [] |860| 
        MOV.W     #18350,r13            ; [] |860| 
        MOV.W     #31457,r14            ; [] |860| 
        MOV.W     #16260,r15            ; [] |860| 
$C$DW$307	.dwtag  DW_TAG_TI_branch
	.dwattr $C$DW$307, DW_AT_low_pc(0x00)
	.dwattr $C$DW$307, DW_AT_name("__mspabi_addd")
	.dwattr $C$DW$307, DW_AT_TI_call

        CALLA     #__mspabi_addd        ; [] |860| 
                                          ; [] |860| 
$C$DW$308	.dwtag  DW_TAG_TI_branch
	.dwattr $C$DW$308, DW_AT_low_pc(0x00)
	.dwattr $C$DW$308, DW_AT_name("__mspabi_cvtdf")
	.dwattr $C$DW$308, DW_AT_TI_call

        CALLA     #__mspabi_cvtdf       ; [] |860| 
                                          ; [] |860| 
        MOV.W     r12,&main_fuel_flow+0 ; [] |860| 
        MOV.W     r13,&main_fuel_flow+2 ; [] |860| 
        JMP       $C$L85                ; [] 
                                          ; [] 
;* --------------------------------------------------------------------------*
$C$L75:    
	.dwpsn	file "../src/start.c",line 847,column 25,is_stmt,isa 0
        MOV.W     &b+0,r12              ; [] |847| 
        MOV.W     &b+2,r13              ; [] |847| 
$C$DW$309	.dwtag  DW_TAG_TI_branch
	.dwattr $C$DW$309, DW_AT_low_pc(0x00)
	.dwattr $C$DW$309, DW_AT_name("__mspabi_cvtfd")
	.dwattr $C$DW$309, DW_AT_TI_call

        CALLA     #__mspabi_cvtfd       ; [] |847| 
                                          ; [] |847| 
        MOVA      r12,r8                ; [] |847| 
        MOVA      r13,r9                ; [] |847| 
        MOVA      r14,r10               ; [] |847| 
        MOVA      r15,r11               ; [] |847| 
        MOV.W     #39322,r12            ; [] |847| 
        MOV.W     #39321,r13            ; [] |847| 
        MOV.W     #39321,r14            ; [] |847| 
        MOV.W     #16297,r15            ; [] |847| 
$C$DW$310	.dwtag  DW_TAG_TI_branch
	.dwattr $C$DW$310, DW_AT_low_pc(0x00)
	.dwattr $C$DW$310, DW_AT_name("__mspabi_cmpd")
	.dwattr $C$DW$310, DW_AT_TI_call

        CALLA     #__mspabi_cmpd        ; [] |847| 
                                          ; [] |847| 
        TST.W     r12                   ; [] |847| 
        JL        $C$L76                ; [] |847| 
                                          ; [] |847| 
;* --------------------------------------------------------------------------*
	.dwpsn	file "../src/start.c",line 853,column 29,is_stmt,isa 0
        MOV.W     &main_fuel_flow+0,r12 ; [] |853| 
        MOV.W     &main_fuel_flow+2,r13 ; [] |853| 
$C$DW$311	.dwtag  DW_TAG_TI_branch
	.dwattr $C$DW$311, DW_AT_low_pc(0x00)
	.dwattr $C$DW$311, DW_AT_name("__mspabi_cvtfd")
	.dwattr $C$DW$311, DW_AT_TI_call

        CALLA     #__mspabi_cvtfd       ; [] |853| 
                                          ; [] |853| 
        MOVA      r12,r8                ; [] |853| 
        MOVA      r13,r9                ; [] |853| 
        MOVA      r14,r10               ; [] |853| 
        MOVA      r15,r11               ; [] |853| 
        MOV.W     #5243,r12             ; [] |853| 
        MOV.W     #18350,r13            ; [] |853| 
        MOV.W     #31457,r14            ; [] |853| 
        MOV.W     #16244,r15            ; [] |853| 
$C$DW$312	.dwtag  DW_TAG_TI_branch
	.dwattr $C$DW$312, DW_AT_low_pc(0x00)
	.dwattr $C$DW$312, DW_AT_name("__mspabi_subd")
	.dwattr $C$DW$312, DW_AT_TI_call

        CALLA     #__mspabi_subd        ; [] |853| 
                                          ; [] |853| 
$C$DW$313	.dwtag  DW_TAG_TI_branch
	.dwattr $C$DW$313, DW_AT_low_pc(0x00)
	.dwattr $C$DW$313, DW_AT_name("__mspabi_cvtdf")
	.dwattr $C$DW$313, DW_AT_TI_call

        CALLA     #__mspabi_cvtdf       ; [] |853| 
                                          ; [] |853| 
        MOV.W     r12,&main_fuel_flow+0 ; [] |853| 
        MOV.W     r13,&main_fuel_flow+2 ; [] |853| 
        JMP       $C$L85                ; [] |853| 
                                          ; [] |853| 
;* --------------------------------------------------------------------------*
$C$L76:    
	.dwpsn	file "../src/start.c",line 849,column 29,is_stmt,isa 0
        MOV.W     &main_fuel_flow+0,r12 ; [] |849| 
        MOV.W     &main_fuel_flow+2,r13 ; [] |849| 
$C$DW$314	.dwtag  DW_TAG_TI_branch
	.dwattr $C$DW$314, DW_AT_low_pc(0x00)
	.dwattr $C$DW$314, DW_AT_name("__mspabi_cvtfd")
	.dwattr $C$DW$314, DW_AT_TI_call

        CALLA     #__mspabi_cvtfd       ; [] |849| 
                                          ; [] |849| 
        MOVA      r12,r8                ; [] |849| 
        MOVA      r13,r9                ; [] |849| 
        MOVA      r14,r10               ; [] |849| 
        MOVA      r15,r11               ; [] |849| 
        MOV.W     #5243,r12             ; [] |849| 
        MOV.W     #18350,r13            ; [] |849| 
        MOV.W     #31457,r14            ; [] |849| 
        MOV.W     #16276,r15            ; [] |849| 
$C$DW$315	.dwtag  DW_TAG_TI_branch
	.dwattr $C$DW$315, DW_AT_low_pc(0x00)
	.dwattr $C$DW$315, DW_AT_name("__mspabi_addd")
	.dwattr $C$DW$315, DW_AT_TI_call

        CALLA     #__mspabi_addd        ; [] |849| 
                                          ; [] |849| 
$C$DW$316	.dwtag  DW_TAG_TI_branch
	.dwattr $C$DW$316, DW_AT_low_pc(0x00)
	.dwattr $C$DW$316, DW_AT_name("__mspabi_cvtdf")
	.dwattr $C$DW$316, DW_AT_TI_call

        CALLA     #__mspabi_cvtdf       ; [] |849| 
                                          ; [] |849| 
        MOV.W     r12,&main_fuel_flow+0 ; [] |849| 
        MOV.W     r13,&main_fuel_flow+2 ; [] |849| 
        JMP       $C$L85                ; [] 
                                          ; [] 
;* --------------------------------------------------------------------------*
$C$L77:    
	.dwpsn	file "../src/start.c",line 836,column 25,is_stmt,isa 0
        MOV.W     &b+0,r12              ; [] |836| 
        MOV.W     &b+2,r13              ; [] |836| 
$C$DW$317	.dwtag  DW_TAG_TI_branch
	.dwattr $C$DW$317, DW_AT_low_pc(0x00)
	.dwattr $C$DW$317, DW_AT_name("__mspabi_cvtfd")
	.dwattr $C$DW$317, DW_AT_TI_call

        CALLA     #__mspabi_cvtfd       ; [] |836| 
                                          ; [] |836| 
        MOVA      r12,r8                ; [] |836| 
        MOVA      r13,r9                ; [] |836| 
        MOVA      r14,r10               ; [] |836| 
        MOVA      r15,r11               ; [] |836| 
        MOV.W     #39322,r12            ; [] |836| 
        MOV.W     #39321,r13            ; [] |836| 
        MOV.W     #39321,r14            ; [] |836| 
        MOV.W     #16313,r15            ; [] |836| 
$C$DW$318	.dwtag  DW_TAG_TI_branch
	.dwattr $C$DW$318, DW_AT_low_pc(0x00)
	.dwattr $C$DW$318, DW_AT_name("__mspabi_cmpd")
	.dwattr $C$DW$318, DW_AT_TI_call

        CALLA     #__mspabi_cmpd        ; [] |836| 
                                          ; [] |836| 
        TST.W     r12                   ; [] |836| 
        JL        $C$L78                ; [] |836| 
                                          ; [] |836| 
;* --------------------------------------------------------------------------*
	.dwpsn	file "../src/start.c",line 842,column 29,is_stmt,isa 0
        MOV.W     &main_fuel_flow+0,r12 ; [] |842| 
        MOV.W     &main_fuel_flow+2,r13 ; [] |842| 
$C$DW$319	.dwtag  DW_TAG_TI_branch
	.dwattr $C$DW$319, DW_AT_low_pc(0x00)
	.dwattr $C$DW$319, DW_AT_name("__mspabi_cvtfd")
	.dwattr $C$DW$319, DW_AT_TI_call

        CALLA     #__mspabi_cvtfd       ; [] |842| 
                                          ; [] |842| 
        MOVA      r12,r8                ; [] |842| 
        MOVA      r13,r9                ; [] |842| 
        MOVA      r14,r10               ; [] |842| 
        MOVA      r15,r11               ; [] |842| 
        MOV.W     #5243,r12             ; [] |842| 
        MOV.W     #18350,r13            ; [] |842| 
        MOV.W     #31457,r14            ; [] |842| 
        MOV.W     #16244,r15            ; [] |842| 
$C$DW$320	.dwtag  DW_TAG_TI_branch
	.dwattr $C$DW$320, DW_AT_low_pc(0x00)
	.dwattr $C$DW$320, DW_AT_name("__mspabi_subd")
	.dwattr $C$DW$320, DW_AT_TI_call

        CALLA     #__mspabi_subd        ; [] |842| 
                                          ; [] |842| 
$C$DW$321	.dwtag  DW_TAG_TI_branch
	.dwattr $C$DW$321, DW_AT_low_pc(0x00)
	.dwattr $C$DW$321, DW_AT_name("__mspabi_cvtdf")
	.dwattr $C$DW$321, DW_AT_TI_call

        CALLA     #__mspabi_cvtdf       ; [] |842| 
                                          ; [] |842| 
        MOV.W     r12,&main_fuel_flow+0 ; [] |842| 
        MOV.W     r13,&main_fuel_flow+2 ; [] |842| 
        JMP       $C$L85                ; [] |842| 
                                          ; [] |842| 
;* --------------------------------------------------------------------------*
$C$L78:    
	.dwpsn	file "../src/start.c",line 838,column 29,is_stmt,isa 0
        MOV.W     &main_fuel_flow+0,r12 ; [] |838| 
        MOV.W     &main_fuel_flow+2,r13 ; [] |838| 
$C$DW$322	.dwtag  DW_TAG_TI_branch
	.dwattr $C$DW$322, DW_AT_low_pc(0x00)
	.dwattr $C$DW$322, DW_AT_name("__mspabi_cvtfd")
	.dwattr $C$DW$322, DW_AT_TI_call

        CALLA     #__mspabi_cvtfd       ; [] |838| 
                                          ; [] |838| 
        MOVA      r12,r8                ; [] |838| 
        MOVA      r13,r9                ; [] |838| 
        MOVA      r14,r10               ; [] |838| 
        MOVA      r15,r11               ; [] |838| 
        MOV.W     #5243,r12             ; [] |838| 
        MOV.W     #18350,r13            ; [] |838| 
        MOV.W     #31457,r14            ; [] |838| 
        MOV.W     #16276,r15            ; [] |838| 
$C$DW$323	.dwtag  DW_TAG_TI_branch
	.dwattr $C$DW$323, DW_AT_low_pc(0x00)
	.dwattr $C$DW$323, DW_AT_name("__mspabi_addd")
	.dwattr $C$DW$323, DW_AT_TI_call

        CALLA     #__mspabi_addd        ; [] |838| 
                                          ; [] |838| 
$C$DW$324	.dwtag  DW_TAG_TI_branch
	.dwattr $C$DW$324, DW_AT_low_pc(0x00)
	.dwattr $C$DW$324, DW_AT_name("__mspabi_cvtdf")
	.dwattr $C$DW$324, DW_AT_TI_call

        CALLA     #__mspabi_cvtdf       ; [] |838| 
                                          ; [] |838| 
        MOV.W     r12,&main_fuel_flow+0 ; [] |838| 
        MOV.W     r13,&main_fuel_flow+2 ; [] |838| 
        JMP       $C$L85                ; [] 
                                          ; [] 
;* --------------------------------------------------------------------------*
$C$L79:    
	.dwpsn	file "../src/start.c",line 825,column 25,is_stmt,isa 0
        MOV.W     &b+0,r12              ; [] |825| 
        MOV.W     &b+2,r13              ; [] |825| 
        MOV.W     #0,r14                ; [] |825| 
        MOV.W     #0,r15                ; [] |825| 
$C$DW$325	.dwtag  DW_TAG_TI_branch
	.dwattr $C$DW$325, DW_AT_low_pc(0x00)
	.dwattr $C$DW$325, DW_AT_name("__mspabi_cmpf")
	.dwattr $C$DW$325, DW_AT_TI_call

        CALLA     #__mspabi_cmpf        ; [] |825| 
                                          ; [] |825| 
        TST.W     r12                   ; [] |825| 
        JL        $C$L80                ; [] |825| 
                                          ; [] |825| 
;* --------------------------------------------------------------------------*
	.dwpsn	file "../src/start.c",line 831,column 29,is_stmt,isa 0
        MOV.W     &main_fuel_flow+0,r12 ; [] |831| 
        MOV.W     &main_fuel_flow+2,r13 ; [] |831| 
$C$DW$326	.dwtag  DW_TAG_TI_branch
	.dwattr $C$DW$326, DW_AT_low_pc(0x00)
	.dwattr $C$DW$326, DW_AT_name("__mspabi_cvtfd")
	.dwattr $C$DW$326, DW_AT_TI_call

        CALLA     #__mspabi_cvtfd       ; [] |831| 
                                          ; [] |831| 
        MOVA      r12,r8                ; [] |831| 
        MOVA      r13,r9                ; [] |831| 
        MOVA      r14,r10               ; [] |831| 
        MOVA      r15,r11               ; [] |831| 
        MOV.W     #5243,r12             ; [] |831| 
        MOV.W     #18350,r13            ; [] |831| 
        MOV.W     #31457,r14            ; [] |831| 
        MOV.W     #16260,r15            ; [] |831| 
$C$DW$327	.dwtag  DW_TAG_TI_branch
	.dwattr $C$DW$327, DW_AT_low_pc(0x00)
	.dwattr $C$DW$327, DW_AT_name("__mspabi_subd")
	.dwattr $C$DW$327, DW_AT_TI_call

        CALLA     #__mspabi_subd        ; [] |831| 
                                          ; [] |831| 
$C$DW$328	.dwtag  DW_TAG_TI_branch
	.dwattr $C$DW$328, DW_AT_low_pc(0x00)
	.dwattr $C$DW$328, DW_AT_name("__mspabi_cvtdf")
	.dwattr $C$DW$328, DW_AT_TI_call

        CALLA     #__mspabi_cvtdf       ; [] |831| 
                                          ; [] |831| 
        MOV.W     r12,&main_fuel_flow+0 ; [] |831| 
        MOV.W     r13,&main_fuel_flow+2 ; [] |831| 
        JMP       $C$L85                ; [] |831| 
                                          ; [] |831| 
;* --------------------------------------------------------------------------*
$C$L80:    
	.dwpsn	file "../src/start.c",line 827,column 29,is_stmt,isa 0
        MOV.W     &main_fuel_flow+0,r12 ; [] |827| 
        MOV.W     &main_fuel_flow+2,r13 ; [] |827| 
$C$DW$329	.dwtag  DW_TAG_TI_branch
	.dwattr $C$DW$329, DW_AT_low_pc(0x00)
	.dwattr $C$DW$329, DW_AT_name("__mspabi_cvtfd")
	.dwattr $C$DW$329, DW_AT_TI_call

        CALLA     #__mspabi_cvtfd       ; [] |827| 
                                          ; [] |827| 
        MOVA      r12,r8                ; [] |827| 
        MOVA      r13,r9                ; [] |827| 
        MOVA      r14,r10               ; [] |827| 
        MOVA      r15,r11               ; [] |827| 
        MOV.W     #5243,r12             ; [] |827| 
        MOV.W     #18350,r13            ; [] |827| 
        MOV.W     #31457,r14            ; [] |827| 
        MOV.W     #16244,r15            ; [] |827| 
$C$DW$330	.dwtag  DW_TAG_TI_branch
	.dwattr $C$DW$330, DW_AT_low_pc(0x00)
	.dwattr $C$DW$330, DW_AT_name("__mspabi_addd")
	.dwattr $C$DW$330, DW_AT_TI_call

        CALLA     #__mspabi_addd        ; [] |827| 
                                          ; [] |827| 
$C$DW$331	.dwtag  DW_TAG_TI_branch
	.dwattr $C$DW$331, DW_AT_low_pc(0x00)
	.dwattr $C$DW$331, DW_AT_name("__mspabi_cvtdf")
	.dwattr $C$DW$331, DW_AT_TI_call

        CALLA     #__mspabi_cvtdf       ; [] |827| 
                                          ; [] |827| 
        MOV.W     r12,&main_fuel_flow+0 ; [] |827| 
        MOV.W     r13,&main_fuel_flow+2 ; [] |827| 
        JMP       $C$L85                ; [] 
                                          ; [] 
;* --------------------------------------------------------------------------*
$C$L81:    
	.dwpsn	file "../src/start.c",line 814,column 25,is_stmt,isa 0
        MOV.W     &b+0,r12              ; [] |814| 
        MOV.W     &b+2,r13              ; [] |814| 
        MOV.W     #0,r14                ; [] |814| 
        MOV.W     #0,r15                ; [] |814| 
$C$DW$332	.dwtag  DW_TAG_TI_branch
	.dwattr $C$DW$332, DW_AT_low_pc(0x00)
	.dwattr $C$DW$332, DW_AT_name("__mspabi_cmpf")
	.dwattr $C$DW$332, DW_AT_TI_call

        CALLA     #__mspabi_cmpf        ; [] |814| 
                                          ; [] |814| 
        TST.W     r12                   ; [] |814| 
        JL        $C$L82                ; [] |814| 
                                          ; [] |814| 
;* --------------------------------------------------------------------------*
	.dwpsn	file "../src/start.c",line 820,column 29,is_stmt,isa 0
        MOV.W     &main_fuel_flow+0,r12 ; [] |820| 
        MOV.W     &main_fuel_flow+2,r13 ; [] |820| 
$C$DW$333	.dwtag  DW_TAG_TI_branch
	.dwattr $C$DW$333, DW_AT_low_pc(0x00)
	.dwattr $C$DW$333, DW_AT_name("__mspabi_cvtfd")
	.dwattr $C$DW$333, DW_AT_TI_call

        CALLA     #__mspabi_cvtfd       ; [] |820| 
                                          ; [] |820| 
        MOVA      r12,r8                ; [] |820| 
        MOVA      r13,r9                ; [] |820| 
        MOVA      r14,r10               ; [] |820| 
        MOVA      r15,r11               ; [] |820| 
        MOV.W     #39322,r12            ; [] |820| 
        MOV.W     #39321,r13            ; [] |820| 
        MOV.W     #39321,r14            ; [] |820| 
        MOV.W     #16297,r15            ; [] |820| 
$C$DW$334	.dwtag  DW_TAG_TI_branch
	.dwattr $C$DW$334, DW_AT_low_pc(0x00)
	.dwattr $C$DW$334, DW_AT_name("__mspabi_subd")
	.dwattr $C$DW$334, DW_AT_TI_call

        CALLA     #__mspabi_subd        ; [] |820| 
                                          ; [] |820| 
$C$DW$335	.dwtag  DW_TAG_TI_branch
	.dwattr $C$DW$335, DW_AT_low_pc(0x00)
	.dwattr $C$DW$335, DW_AT_name("__mspabi_cvtdf")
	.dwattr $C$DW$335, DW_AT_TI_call

        CALLA     #__mspabi_cvtdf       ; [] |820| 
                                          ; [] |820| 
        MOV.W     r12,&main_fuel_flow+0 ; [] |820| 
        MOV.W     r13,&main_fuel_flow+2 ; [] |820| 
        JMP       $C$L85                ; [] |820| 
                                          ; [] |820| 
;* --------------------------------------------------------------------------*
$C$L82:    
	.dwpsn	file "../src/start.c",line 816,column 29,is_stmt,isa 0
        MOV.W     &main_fuel_flow+0,r12 ; [] |816| 
        MOV.W     &main_fuel_flow+2,r13 ; [] |816| 
$C$DW$336	.dwtag  DW_TAG_TI_branch
	.dwattr $C$DW$336, DW_AT_low_pc(0x00)
	.dwattr $C$DW$336, DW_AT_name("__mspabi_cvtfd")
	.dwattr $C$DW$336, DW_AT_TI_call

        CALLA     #__mspabi_cvtfd       ; [] |816| 
                                          ; [] |816| 
        MOVA      r12,r8                ; [] |816| 
        MOVA      r13,r9                ; [] |816| 
        MOVA      r14,r10               ; [] |816| 
        MOVA      r15,r11               ; [] |816| 
        MOV.W     #43516,r12            ; [] |816| 
        MOV.W     #54001,r13            ; [] |816| 
        MOV.W     #25165,r14            ; [] |816| 
        MOV.W     #16208,r15            ; [] |816| 
$C$DW$337	.dwtag  DW_TAG_TI_branch
	.dwattr $C$DW$337, DW_AT_low_pc(0x00)
	.dwattr $C$DW$337, DW_AT_name("__mspabi_addd")
	.dwattr $C$DW$337, DW_AT_TI_call

        CALLA     #__mspabi_addd        ; [] |816| 
                                          ; [] |816| 
$C$DW$338	.dwtag  DW_TAG_TI_branch
	.dwattr $C$DW$338, DW_AT_low_pc(0x00)
	.dwattr $C$DW$338, DW_AT_name("__mspabi_cvtdf")
	.dwattr $C$DW$338, DW_AT_TI_call

        CALLA     #__mspabi_cvtdf       ; [] |816| 
                                          ; [] |816| 
        MOV.W     r12,&main_fuel_flow+0 ; [] |816| 
        MOV.W     r13,&main_fuel_flow+2 ; [] |816| 
        JMP       $C$L85                ; [] 
                                          ; [] 
;* --------------------------------------------------------------------------*
$C$L83:    
	.dwpsn	file "../src/start.c",line 803,column 25,is_stmt,isa 0
        MOV.W     &b+0,r12              ; [] |803| 
        MOV.W     &b+2,r13              ; [] |803| 
        MOV.W     #0,r14                ; [] |803| 
        MOV.W     #0,r15                ; [] |803| 
$C$DW$339	.dwtag  DW_TAG_TI_branch
	.dwattr $C$DW$339, DW_AT_low_pc(0x00)
	.dwattr $C$DW$339, DW_AT_name("__mspabi_cmpf")
	.dwattr $C$DW$339, DW_AT_TI_call

        CALLA     #__mspabi_cmpf        ; [] |803| 
                                          ; [] |803| 
        TST.W     r12                   ; [] |803| 
        JL        $C$L84                ; [] |803| 
                                          ; [] |803| 
;* --------------------------------------------------------------------------*
	.dwpsn	file "../src/start.c",line 809,column 29,is_stmt,isa 0
        MOV.W     &main_fuel_flow+0,r12 ; [] |809| 
        MOV.W     &main_fuel_flow+2,r13 ; [] |809| 
$C$DW$340	.dwtag  DW_TAG_TI_branch
	.dwattr $C$DW$340, DW_AT_low_pc(0x00)
	.dwattr $C$DW$340, DW_AT_name("__mspabi_cvtfd")
	.dwattr $C$DW$340, DW_AT_TI_call

        CALLA     #__mspabi_cvtfd       ; [] |809| 
                                          ; [] |809| 
        MOVA      r12,r8                ; [] |809| 
        MOVA      r13,r9                ; [] |809| 
        MOVA      r14,r10               ; [] |809| 
        MOVA      r15,r11               ; [] |809| 
        MOV.W     #5243,r12             ; [] |809| 
        MOV.W     #18350,r13            ; [] |809| 
        MOV.W     #31457,r14            ; [] |809| 
        MOV.W     #16308,r15            ; [] |809| 
$C$DW$341	.dwtag  DW_TAG_TI_branch
	.dwattr $C$DW$341, DW_AT_low_pc(0x00)
	.dwattr $C$DW$341, DW_AT_name("__mspabi_subd")
	.dwattr $C$DW$341, DW_AT_TI_call

        CALLA     #__mspabi_subd        ; [] |809| 
                                          ; [] |809| 
$C$DW$342	.dwtag  DW_TAG_TI_branch
	.dwattr $C$DW$342, DW_AT_low_pc(0x00)
	.dwattr $C$DW$342, DW_AT_name("__mspabi_cvtdf")
	.dwattr $C$DW$342, DW_AT_TI_call

        CALLA     #__mspabi_cvtdf       ; [] |809| 
                                          ; [] |809| 
        MOV.W     r12,&main_fuel_flow+0 ; [] |809| 
        MOV.W     r13,&main_fuel_flow+2 ; [] |809| 
        JMP       $C$L85                ; [] |809| 
                                          ; [] |809| 
;* --------------------------------------------------------------------------*
$C$L84:    
	.dwpsn	file "../src/start.c",line 805,column 29,is_stmt,isa 0
        MOV.W     &main_fuel_flow+0,r12 ; [] |805| 
        MOV.W     &main_fuel_flow+2,r13 ; [] |805| 
$C$DW$343	.dwtag  DW_TAG_TI_branch
	.dwattr $C$DW$343, DW_AT_low_pc(0x00)
	.dwattr $C$DW$343, DW_AT_name("__mspabi_cvtfd")
	.dwattr $C$DW$343, DW_AT_TI_call

        CALLA     #__mspabi_cvtfd       ; [] |805| 
                                          ; [] |805| 
        MOVA      r12,r8                ; [] |805| 
        MOVA      r13,r9                ; [] |805| 
        MOVA      r14,r10               ; [] |805| 
        MOVA      r15,r11               ; [] |805| 
        MOV.W     #43516,r12            ; [] |805| 
        MOV.W     #54001,r13            ; [] |805| 
        MOV.W     #25165,r14            ; [] |805| 
        MOV.W     #16192,r15            ; [] |805| 
$C$DW$344	.dwtag  DW_TAG_TI_branch
	.dwattr $C$DW$344, DW_AT_low_pc(0x00)
	.dwattr $C$DW$344, DW_AT_name("__mspabi_addd")
	.dwattr $C$DW$344, DW_AT_TI_call

        CALLA     #__mspabi_addd        ; [] |805| 
                                          ; [] |805| 
$C$DW$345	.dwtag  DW_TAG_TI_branch
	.dwattr $C$DW$345, DW_AT_low_pc(0x00)
	.dwattr $C$DW$345, DW_AT_name("__mspabi_cvtdf")
	.dwattr $C$DW$345, DW_AT_TI_call

        CALLA     #__mspabi_cvtdf       ; [] |805| 
                                          ; [] |805| 
        MOV.W     r12,&main_fuel_flow+0 ; [] |805| 
        MOV.W     r13,&main_fuel_flow+2 ; [] |805| 
;* --------------------------------------------------------------------------*
$C$L85:    
	.dwpsn	file "../src/start.c",line 868,column 21,is_stmt,isa 0
        MOV.W     &main_fuel_flow+0,r12 ; [] |868| 
        MOV.W     &main_fuel_flow+2,r13 ; [] |868| 
$C$DW$346	.dwtag  DW_TAG_TI_branch
	.dwattr $C$DW$346, DW_AT_low_pc(0x00)
	.dwattr $C$DW$346, DW_AT_name("__mspabi_cvtfd")
	.dwattr $C$DW$346, DW_AT_TI_call

        CALLA     #__mspabi_cvtfd       ; [] |868| 
                                          ; [] |868| 
        MOVA      r12,r4                ; [] |868| 
        MOVA      r13,r5                ; [] |868| 
        MOVA      r14,r6                ; [] |868| 
        MOVA      r15,r7                ; [] |868| 
        MOV.W     &FC_power+0,r12       ; [] |868| 
        MOV.W     &FC_power+2,r13       ; [] |868| 
$C$DW$347	.dwtag  DW_TAG_TI_branch
	.dwattr $C$DW$347, DW_AT_low_pc(0x00)
	.dwattr $C$DW$347, DW_AT_name("__mspabi_cvtfd")
	.dwattr $C$DW$347, DW_AT_TI_call

        CALLA     #__mspabi_cvtfd       ; [] |868| 
                                          ; [] |868| 
        MOVA      r12,r8                ; [] |868| 
        MOVA      r13,r9                ; [] |868| 
        MOVA      r14,r10               ; [] |868| 
        MOVA      r15,r11               ; [] |868| 
        MOV.W     #52429,r12            ; [] |868| 
        MOV.W     #52428,r13            ; [] |868| 
        MOV.W     #52428,r14            ; [] |868| 
        MOV.W     #16364,r15            ; [] |868| 
$C$DW$348	.dwtag  DW_TAG_TI_branch
	.dwattr $C$DW$348, DW_AT_low_pc(0x00)
	.dwattr $C$DW$348, DW_AT_name("__mspabi_mpyd")
	.dwattr $C$DW$348, DW_AT_TI_call

        CALLA     #__mspabi_mpyd        ; [] |868| 
                                          ; [] |868| 
        MOVA      r4,r8                 ; [] |868| 
        MOVA      r5,r9                 ; [] |868| 
        MOVA      r6,r10                ; [] |868| 
        MOVA      r7,r11                ; [] |868| 
$C$DW$349	.dwtag  DW_TAG_TI_branch
	.dwattr $C$DW$349, DW_AT_low_pc(0x00)
	.dwattr $C$DW$349, DW_AT_name("__mspabi_cmpd")
	.dwattr $C$DW$349, DW_AT_TI_call

        CALLA     #__mspabi_cmpd        ; [] |868| 
                                          ; [] |868| 
        TST.W     r12                   ; [] |868| 
        JGE       $C$L86                ; [] |868| 
                                          ; [] |868| 
;* --------------------------------------------------------------------------*
	.dwpsn	file "../src/start.c",line 870,column 25,is_stmt,isa 0
        MOV.W     &FC_power+0,r12       ; [] |870| 
        MOV.W     &FC_power+2,r13       ; [] |870| 
$C$DW$350	.dwtag  DW_TAG_TI_branch
	.dwattr $C$DW$350, DW_AT_low_pc(0x00)
	.dwattr $C$DW$350, DW_AT_name("__mspabi_cvtfd")
	.dwattr $C$DW$350, DW_AT_TI_call

        CALLA     #__mspabi_cvtfd       ; [] |870| 
                                          ; [] |870| 
        MOVA      r12,r8                ; [] |870| 
        MOVA      r13,r9                ; [] |870| 
        MOVA      r14,r10               ; [] |870| 
        MOVA      r15,r11               ; [] |870| 
        MOV.W     #52429,r12            ; [] |870| 
        MOV.W     #52428,r13            ; [] |870| 
        MOV.W     #52428,r14            ; [] |870| 
        MOV.W     #16364,r15            ; [] |870| 
$C$DW$351	.dwtag  DW_TAG_TI_branch
	.dwattr $C$DW$351, DW_AT_low_pc(0x00)
	.dwattr $C$DW$351, DW_AT_name("__mspabi_mpyd")
	.dwattr $C$DW$351, DW_AT_TI_call

        CALLA     #__mspabi_mpyd        ; [] |870| 
                                          ; [] |870| 
$C$DW$352	.dwtag  DW_TAG_TI_branch
	.dwattr $C$DW$352, DW_AT_low_pc(0x00)
	.dwattr $C$DW$352, DW_AT_name("__mspabi_cvtdf")
	.dwattr $C$DW$352, DW_AT_TI_call

        CALLA     #__mspabi_cvtdf       ; [] |870| 
                                          ; [] |870| 
        MOV.W     r12,&main_fuel_flow+0 ; [] |870| 
        MOV.W     r13,&main_fuel_flow+2 ; [] |870| 
;* --------------------------------------------------------------------------*
$C$L86:    
	.dwpsn	file "../src/start.c",line 873,column 21,is_stmt,isa 0
        TST.B     &load+0               ; [] |873| 
        JEQ       $C$L90                ; [] |873| 
                                          ; [] |873| 
;* --------------------------------------------------------------------------*
	.dwpsn	file "../src/start.c",line 875,column 25,is_stmt,isa 0
        MOV.W     &TC2_temp+0,r12       ; [] |875| 
        MOV.W     &TC2_temp+2,r13       ; [] |875| 
        MOV.W     #0,r14                ; [] |875| 
        MOV.W     #17279,r15            ; [] |875| 
$C$DW$353	.dwtag  DW_TAG_TI_branch
	.dwattr $C$DW$353, DW_AT_low_pc(0x00)
	.dwattr $C$DW$353, DW_AT_name("__mspabi_cmpf")
	.dwattr $C$DW$353, DW_AT_TI_call

        CALLA     #__mspabi_cmpf        ; [] |875| 
                                          ; [] |875| 
        TST.W     r12                   ; [] |875| 
        JL        $C$L87                ; [] |875| 
                                          ; [] |875| 
;* --------------------------------------------------------------------------*
	.dwpsn	file "../src/start.c",line 881,column 29,is_stmt,isa 0
        MOV.W     #0,r12                ; [] |881| 
        MOV.W     #0,r13                ; [] |881| 
        MOV.W     &boost_fuel_flow+0,r14 ; [] |881| 
        MOV.W     &boost_fuel_flow+2,r15 ; [] |881| 
$C$DW$354	.dwtag  DW_TAG_TI_branch
	.dwattr $C$DW$354, DW_AT_low_pc(0x00)
	.dwattr $C$DW$354, DW_AT_name("__mspabi_cmpf")
	.dwattr $C$DW$354, DW_AT_TI_call

        CALLA     #__mspabi_cmpf        ; [] |881| 
                                          ; [] |881| 
        TST.W     r12                   ; [] |881| 
        JGE       $C$L88                ; [] |881| 
                                          ; [] |881| 
;* --------------------------------------------------------------------------*
	.dwpsn	file "../src/start.c",line 883,column 33,is_stmt,isa 0
        MOV.W     &boost_fuel_flow+0,r12 ; [] |883| 
        MOV.W     &boost_fuel_flow+2,r13 ; [] |883| 
$C$DW$355	.dwtag  DW_TAG_TI_branch
	.dwattr $C$DW$355, DW_AT_low_pc(0x00)
	.dwattr $C$DW$355, DW_AT_name("__mspabi_cvtfd")
	.dwattr $C$DW$355, DW_AT_TI_call

        CALLA     #__mspabi_cvtfd       ; [] |883| 
                                          ; [] |883| 
        MOVA      r12,r8                ; [] |883| 
        MOVA      r13,r9                ; [] |883| 
        MOVA      r14,r10               ; [] |883| 
        MOVA      r15,r11               ; [] |883| 
        MOV.W     #5243,r12             ; [] |883| 
        MOV.W     #18350,r13            ; [] |883| 
        MOV.W     #31457,r14            ; [] |883| 
        MOV.W     #16260,r15            ; [] |883| 
$C$DW$356	.dwtag  DW_TAG_TI_branch
	.dwattr $C$DW$356, DW_AT_low_pc(0x00)
	.dwattr $C$DW$356, DW_AT_name("__mspabi_subd")
	.dwattr $C$DW$356, DW_AT_TI_call

        CALLA     #__mspabi_subd        ; [] |883| 
                                          ; [] |883| 
$C$DW$357	.dwtag  DW_TAG_TI_branch
	.dwattr $C$DW$357, DW_AT_low_pc(0x00)
	.dwattr $C$DW$357, DW_AT_name("__mspabi_cvtdf")
	.dwattr $C$DW$357, DW_AT_TI_call

        CALLA     #__mspabi_cvtdf       ; [] |883| 
                                          ; [] |883| 
        MOV.W     r12,&boost_fuel_flow+0 ; [] |883| 
        MOV.W     r13,&boost_fuel_flow+2 ; [] |883| 
        JMP       $C$L88                ; [] |883| 
                                          ; [] |883| 
;* --------------------------------------------------------------------------*
$C$L87:    
	.dwpsn	file "../src/start.c",line 877,column 29,is_stmt,isa 0
        MOV.W     &main_fuel_flow+0,r12 ; [] |877| 
        MOV.W     &main_fuel_flow+2,r13 ; [] |877| 
$C$DW$358	.dwtag  DW_TAG_TI_branch
	.dwattr $C$DW$358, DW_AT_low_pc(0x00)
	.dwattr $C$DW$358, DW_AT_name("__mspabi_cvtfd")
	.dwattr $C$DW$358, DW_AT_TI_call

        CALLA     #__mspabi_cvtfd       ; [] |877| 
                                          ; [] |877| 
        MOVA      r12,r8                ; [] |877| 
        MOVA      r13,r9                ; [] |877| 
        MOVA      r14,r10               ; [] |877| 
        MOVA      r15,r11               ; [] |877| 
        MOV.W     #5243,r12             ; [] |877| 
        MOV.W     #18350,r13            ; [] |877| 
        MOV.W     #31457,r14            ; [] |877| 
        MOV.W     #16260,r15            ; [] |877| 
$C$DW$359	.dwtag  DW_TAG_TI_branch
	.dwattr $C$DW$359, DW_AT_low_pc(0x00)
	.dwattr $C$DW$359, DW_AT_name("__mspabi_addd")
	.dwattr $C$DW$359, DW_AT_TI_call

        CALLA     #__mspabi_addd        ; [] |877| 
                                          ; [] |877| 
$C$DW$360	.dwtag  DW_TAG_TI_branch
	.dwattr $C$DW$360, DW_AT_low_pc(0x00)
	.dwattr $C$DW$360, DW_AT_name("__mspabi_cvtdf")
	.dwattr $C$DW$360, DW_AT_TI_call

        CALLA     #__mspabi_cvtdf       ; [] |877| 
                                          ; [] |877| 
        MOV.W     r12,&main_fuel_flow+0 ; [] |877| 
        MOV.W     r13,&main_fuel_flow+2 ; [] |877| 
;* --------------------------------------------------------------------------*
$C$L88:    
	.dwpsn	file "../src/start.c",line 886,column 25,is_stmt,isa 0
        MOV.W     &main_fuel_flow+0,r12 ; [] |886| 
        MOV.W     &main_fuel_flow+2,r13 ; [] |886| 
        MOV.W     #0,r14                ; [] |886| 
        MOV.W     #16840,r15            ; [] |886| 
$C$DW$361	.dwtag  DW_TAG_TI_branch
	.dwattr $C$DW$361, DW_AT_low_pc(0x00)
	.dwattr $C$DW$361, DW_AT_name("__mspabi_cmpf")
	.dwattr $C$DW$361, DW_AT_TI_call

        CALLA     #__mspabi_cmpf        ; [] |886| 
                                          ; [] |886| 
        TST.W     r12                   ; [] |886| 
        JGE       $C$L90                ; [] |886| 
                                          ; [] |886| 
;* --------------------------------------------------------------------------*
	.dwpsn	file "../src/start.c",line 888,column 29,is_stmt,isa 0
        MOV.W     #0,&main_fuel_flow+0  ; [] |888| 
        MOV.W     #16840,&main_fuel_flow+2 ; [] |888| 
        JMP       $C$L90                ; [] |888| 
                                          ; [] |888| 
;* --------------------------------------------------------------------------*
$C$L89:    
	.dwpsn	file "../src/start.c",line 895,column 21,is_stmt,isa 0
        MOV.B     #5,&burner_flag+0     ; [] |895| 
;* --------------------------------------------------------------------------*
$C$L90:    
	.dwpsn	file "../src/start.c",line 897,column 17,is_stmt,isa 0
        MOV.W     #0,&error_message+108 ; [] |897| 
	.dwpsn	file "../src/start.c",line 898,column 17,is_stmt,isa 0
        MOV.W     &main_fuel_flow+0,r12 ; [] |898| 
        MOV.W     &main_fuel_flow+2,r13 ; [] |898| 
$C$DW$362	.dwtag  DW_TAG_TI_branch
	.dwattr $C$DW$362, DW_AT_low_pc(0x00)
	.dwattr $C$DW$362, DW_AT_name("__mspabi_cvtfd")
	.dwattr $C$DW$362, DW_AT_TI_call

        CALLA     #__mspabi_cvtfd       ; [] |898| 
                                          ; [] |898| 
        MOVA      r12,r8                ; [] |898| 
        MOVA      r13,r9                ; [] |898| 
        MOVA      r14,r10               ; [] |898| 
        MOVA      r15,r11               ; [] |898| 
        MOV.W     #64299,r12            ; [] |898| 
        MOV.W     #2222,r13             ; [] |898| 
        MOV.W     #47102,r14            ; [] |898| 
        MOV.W     #16306,r15            ; [] |898| 
$C$DW$363	.dwtag  DW_TAG_TI_branch
	.dwattr $C$DW$363, DW_AT_low_pc(0x00)
	.dwattr $C$DW$363, DW_AT_name("__mspabi_mpyd")
	.dwattr $C$DW$363, DW_AT_TI_call

        CALLA     #__mspabi_mpyd        ; [] |898| 
                                          ; [] |898| 
$C$DW$364	.dwtag  DW_TAG_TI_branch
	.dwattr $C$DW$364, DW_AT_low_pc(0x00)
	.dwattr $C$DW$364, DW_AT_name("__mspabi_cvtdf")
	.dwattr $C$DW$364, DW_AT_TI_call

        CALLA     #__mspabi_cvtdf       ; [] |898| 
                                          ; [] |898| 
        MOV.W     r12,&air+0            ; [] |898| 
        MOV.W     r13,&air+2            ; [] |898| 
	.dwpsn	file "../src/start.c",line 900,column 17,is_stmt,isa 0
        MOV.W     &air+0,r12            ; [] |900| 
        MOV.W     #0,r14                ; [] |900| 
        MOV.W     #16320,r15            ; [] |900| 
$C$DW$365	.dwtag  DW_TAG_TI_branch
	.dwattr $C$DW$365, DW_AT_low_pc(0x00)
	.dwattr $C$DW$365, DW_AT_name("__mspabi_cmpf")
	.dwattr $C$DW$365, DW_AT_TI_call

        CALLA     #__mspabi_cmpf        ; [] |900| 
                                          ; [] |900| 
        TST.W     r12                   ; [] |900| 
        JGE       $C$L91                ; [] |900| 
                                          ; [] |900| 
;* --------------------------------------------------------------------------*
	.dwpsn	file "../src/start.c",line 902,column 21,is_stmt,isa 0
        MOV.W     #0,&air+0             ; [] |902| 
        MOV.W     #16320,&air+2         ; [] |902| 
;* --------------------------------------------------------------------------*
$C$L91:    
	.dwpsn	file "../src/start.c",line 905,column 17,is_stmt,isa 0
        MOV.W     &TC1_temp+0,r12       ; [] |905| 
        MOV.W     &TC1_temp+2,r13       ; [] |905| 
        MOV.W     #0,r14                ; [] |905| 
        MOV.W     #17159,r15            ; [] |905| 
$C$DW$366	.dwtag  DW_TAG_TI_branch
	.dwattr $C$DW$366, DW_AT_low_pc(0x00)
	.dwattr $C$DW$366, DW_AT_name("__mspabi_cmpf")
	.dwattr $C$DW$366, DW_AT_TI_call

        CALLA     #__mspabi_cmpf        ; [] |905| 
                                          ; [] |905| 
        TST.W     r12                   ; [] |905| 
        JL        $C$L92                ; [] |905| 
                                          ; [] |905| 
;* --------------------------------------------------------------------------*
        MOV.W     &TC2_temp+0,r12       ; [] |905| 
        MOV.W     &TC2_temp+2,r13       ; [] |905| 
        MOV.W     #0,r14                ; [] |905| 
        MOV.W     #17264,r15            ; [] |905| 
$C$DW$367	.dwtag  DW_TAG_TI_branch
	.dwattr $C$DW$367, DW_AT_low_pc(0x00)
	.dwattr $C$DW$367, DW_AT_name("__mspabi_cmpf")
	.dwattr $C$DW$367, DW_AT_TI_call

        CALLA     #__mspabi_cmpf        ; [] |905| 
                                          ; [] |905| 
        TST.W     r12                   ; [] |905| 
        JL        $C$L92                ; [] |905| 
                                          ; [] |905| 
;* --------------------------------------------------------------------------*
        MOV.W     #0,r12                ; [] |905| 
        MOV.W     #16672,r13            ; [] |905| 
        MOV.W     &main_fuel_flow+0,r14 ; [] |905| 
        MOV.W     &main_fuel_flow+2,r15 ; [] |905| 
$C$DW$368	.dwtag  DW_TAG_TI_branch
	.dwattr $C$DW$368, DW_AT_low_pc(0x00)
	.dwattr $C$DW$368, DW_AT_name("__mspabi_cmpf")
	.dwattr $C$DW$368, DW_AT_TI_call

        CALLA     #__mspabi_cmpf        ; [] |905| 
                                          ; [] |905| 
        TST.W     r12                   ; [] |905| 
        JGE       $C$L92                ; [] |905| 
                                          ; [] |905| 
;* --------------------------------------------------------------------------*
        CMP.W     #500,&entered_burner_flag_6_timer+0 ; [] |905| 
        JL        $C$L92                ; [] |905| 
                                          ; [] |905| 
;* --------------------------------------------------------------------------*
	.dwpsn	file "../src/start.c",line 916,column 25,is_stmt,isa 0
        OR.B      #16,&PDOUT_H+0        ; [] |916| 
        JMP       $C$L93                ; [] 
                                          ; [] 
;* --------------------------------------------------------------------------*
$C$L92:    
	.dwpsn	file "../src/start.c",line 926,column 21,is_stmt,isa 0
        MOV.B     #5,&burner_flag+0     ; [] |926| 
	.dwpsn	file "../src/start.c",line 927,column 21,is_stmt,isa 0
        MOV.W     #0,&main_fuel_flow+0  ; [] |927| 
        MOV.W     #0,&main_fuel_flow+2  ; [] |927| 
;* --------------------------------------------------------------------------*
$C$L93:    
	.dwpsn	file "../src/start.c",line 932,column 17,is_stmt,isa 0
        MOV.W     &iniStT+0,r15         ; [] |932| 
        SUB.W     &StartTime+0,r15      ; [] |932| 
        CMP.W     #101,r15              ; [] |932| 
        JL        $C$L100               ; [] |932| 
                                          ; [] |932| 
;* --------------------------------------------------------------------------*
        CMP.W     #500,&entered_burner_flag_6_timer+0 ; [] |932| 
        JL        $C$L100               ; [] |932| 
                                          ; [] |932| 
;* --------------------------------------------------------------------------*
        MOV.W     #0,r12                ; [] |932| 
        MOV.W     #17159,r13            ; [] |932| 
        MOV.W     &TC1_temp+0,r14       ; [] |932| 
        MOV.W     &TC1_temp+2,r15       ; [] |932| 
$C$DW$369	.dwtag  DW_TAG_TI_branch
	.dwattr $C$DW$369, DW_AT_low_pc(0x00)
	.dwattr $C$DW$369, DW_AT_name("__mspabi_cmpf")
	.dwattr $C$DW$369, DW_AT_TI_call

        CALLA     #__mspabi_cmpf        ; [] |932| 
                                          ; [] |932| 
        TST.W     r12                   ; [] |932| 
        JGE       $C$L100               ; [] |932| 
                                          ; [] |932| 
;* --------------------------------------------------------------------------*
        MOV.W     &Tset+0,r12           ; [] |932| 
        SUB.W     #10,r12               ; [] |932| 
$C$DW$370	.dwtag  DW_TAG_TI_branch
	.dwattr $C$DW$370, DW_AT_low_pc(0x00)
	.dwattr $C$DW$370, DW_AT_name("__mspabi_fltif")
	.dwattr $C$DW$370, DW_AT_TI_call

        CALLA     #__mspabi_fltif       ; [] |932| 
                                          ; [] |932| 
        MOV.W     &TC2_temp+0,r14       ; [] |932| 
        MOV.W     &TC2_temp+2,r15       ; [] |932| 
$C$DW$371	.dwtag  DW_TAG_TI_branch
	.dwattr $C$DW$371, DW_AT_low_pc(0x00)
	.dwattr $C$DW$371, DW_AT_name("__mspabi_cmpf")
	.dwattr $C$DW$371, DW_AT_TI_call

        CALLA     #__mspabi_cmpf        ; [] |932| 
                                          ; [] |932| 
        TST.W     r12                   ; [] |932| 
        JGE       $C$L100               ; [] |932| 
                                          ; [] |932| 
;* --------------------------------------------------------------------------*
	.dwpsn	file "../src/start.c",line 936,column 21,is_stmt,isa 0
        MOV.W     &FC_Current+0,r12     ; [] |936| 
        MOV.W     &FC_Current+2,r13     ; [] |936| 
        MOV.W     &FC_R+0,r14           ; [] |936| 
        MOV.W     &FC_R+2,r15           ; [] |936| 
$C$DW$372	.dwtag  DW_TAG_TI_branch
	.dwattr $C$DW$372, DW_AT_low_pc(0x00)
	.dwattr $C$DW$372, DW_AT_name("__mspabi_mpyf")
	.dwattr $C$DW$372, DW_AT_TI_call

        CALLA     #__mspabi_mpyf        ; [] |936| 
                                          ; [] |936| 
        MOVA      r12,r14               ; [] |936| 
        MOVA      r13,r15               ; [] |936| 
        MOV.W     &FC_volts+0,r12       ; [] |936| 
        MOV.W     &FC_volts+2,r13       ; [] |936| 
$C$DW$373	.dwtag  DW_TAG_TI_branch
	.dwattr $C$DW$373, DW_AT_low_pc(0x00)
	.dwattr $C$DW$373, DW_AT_name("__mspabi_cmpf")
	.dwattr $C$DW$373, DW_AT_TI_call

        CALLA     #__mspabi_cmpf        ; [] |936| 
                                          ; [] |936| 
        TST.W     r12                   ; [] |936| 
        JL        $C$L94                ; [] |936| 
                                          ; [] |936| 
;* --------------------------------------------------------------------------*
	.dwpsn	file "../src/start.c",line 942,column 25,is_stmt,isa 0
        MOV.W     &TB0CCR6+0,r12        ; [] |942| 
$C$DW$374	.dwtag  DW_TAG_TI_branch
	.dwattr $C$DW$374, DW_AT_low_pc(0x00)
	.dwattr $C$DW$374, DW_AT_name("__mspabi_fltud")
	.dwattr $C$DW$374, DW_AT_TI_call

        CALLA     #__mspabi_fltud       ; [] |942| 
                                          ; [] |942| 
        MOVA      r12,r8                ; [] |942| 
        MOVA      r13,r9                ; [] |942| 
        MOVA      r14,r10               ; [] |942| 
        MOVA      r15,r11               ; [] |942| 
        MOV.W     #5243,r12             ; [] |942| 
        MOV.W     #18350,r13            ; [] |942| 
        MOV.W     #31457,r14            ; [] |942| 
        MOV.W     #16260,r15            ; [] |942| 
$C$DW$375	.dwtag  DW_TAG_TI_branch
	.dwattr $C$DW$375, DW_AT_low_pc(0x00)
	.dwattr $C$DW$375, DW_AT_name("__mspabi_addd")
	.dwattr $C$DW$375, DW_AT_TI_call

        CALLA     #__mspabi_addd        ; [] |942| 
                                          ; [] |942| 
$C$DW$376	.dwtag  DW_TAG_TI_branch
	.dwattr $C$DW$376, DW_AT_low_pc(0x00)
	.dwattr $C$DW$376, DW_AT_name("__mspabi_fixdu")
	.dwattr $C$DW$376, DW_AT_TI_call

        CALLA     #__mspabi_fixdu       ; [] |942| 
                                          ; [] |942| 
        MOV.W     r12,&TB0CCR6+0        ; [] |942| 
        JMP       $C$L95                ; [] |942| 
                                          ; [] |942| 
;* --------------------------------------------------------------------------*
$C$L94:    
	.dwpsn	file "../src/start.c",line 938,column 25,is_stmt,isa 0
        MOV.W     &TB0CCR6+0,r12        ; [] |938| 
$C$DW$377	.dwtag  DW_TAG_TI_branch
	.dwattr $C$DW$377, DW_AT_low_pc(0x00)
	.dwattr $C$DW$377, DW_AT_name("__mspabi_fltud")
	.dwattr $C$DW$377, DW_AT_TI_call

        CALLA     #__mspabi_fltud       ; [] |938| 
                                          ; [] |938| 
        MOVA      r12,r8                ; [] |938| 
        MOVA      r13,r9                ; [] |938| 
        MOVA      r14,r10               ; [] |938| 
        MOVA      r15,r11               ; [] |938| 
        MOV.W     #5243,r12             ; [] |938| 
        MOV.W     #18350,r13            ; [] |938| 
        MOV.W     #31457,r14            ; [] |938| 
        MOV.W     #16324,r15            ; [] |938| 
$C$DW$378	.dwtag  DW_TAG_TI_branch
	.dwattr $C$DW$378, DW_AT_low_pc(0x00)
	.dwattr $C$DW$378, DW_AT_name("__mspabi_subd")
	.dwattr $C$DW$378, DW_AT_TI_call

        CALLA     #__mspabi_subd        ; [] |938| 
                                          ; [] |938| 
$C$DW$379	.dwtag  DW_TAG_TI_branch
	.dwattr $C$DW$379, DW_AT_low_pc(0x00)
	.dwattr $C$DW$379, DW_AT_name("__mspabi_fixdu")
	.dwattr $C$DW$379, DW_AT_TI_call

        CALLA     #__mspabi_fixdu       ; [] |938| 
                                          ; [] |938| 
        MOV.W     r12,&TB0CCR6+0        ; [] |938| 
;* --------------------------------------------------------------------------*
$C$L95:    
	.dwpsn	file "../src/start.c",line 945,column 21,is_stmt,isa 0
        TST.B     &load+0               ; [] |945| 
        JNE       $C$L102               ; [] |945| 
                                          ; [] |945| 
;* --------------------------------------------------------------------------*
	.dwpsn	file "../src/start.c",line 947,column 25,is_stmt,isa 0
        MOV.W     &OutputV_Setpoint+0,r12 ; [] |947| 
        MOV.W     &OutputV_Setpoint+2,r13 ; [] |947| 
        MOV.W     &Output_volts+0,r14   ; [] |947| 
        MOV.W     &Output_volts+2,r15   ; [] |947| 
$C$DW$380	.dwtag  DW_TAG_TI_branch
	.dwattr $C$DW$380, DW_AT_low_pc(0x00)
	.dwattr $C$DW$380, DW_AT_name("__mspabi_cmpf")
	.dwattr $C$DW$380, DW_AT_TI_call

        CALLA     #__mspabi_cmpf        ; [] |947| 
                                          ; [] |947| 
        TST.W     r12                   ; [] |947| 
        JL        $C$L99                ; [] |947| 
                                          ; [] |947| 
;* --------------------------------------------------------------------------*
	.dwpsn	file "../src/start.c",line 954,column 29,is_stmt,isa 0
        MOV.W     &FC_volts+0,r12       ; [] |954| 
        MOV.W     &FC_volts+2,r13       ; [] |954| 
$C$DW$381	.dwtag  DW_TAG_TI_branch
	.dwattr $C$DW$381, DW_AT_low_pc(0x00)
	.dwattr $C$DW$381, DW_AT_name("__mspabi_cvtfd")
	.dwattr $C$DW$381, DW_AT_TI_call

        CALLA     #__mspabi_cvtfd       ; [] |954| 
                                          ; [] |954| 
        MOV.W     #47186,r8             ; [] |954| 
        MOV.W     #34078,r9             ; [] |954| 
        MOV.W     #20971,r10            ; [] |954| 
        MOV.W     #16412,r11            ; [] |954| 
$C$DW$382	.dwtag  DW_TAG_TI_branch
	.dwattr $C$DW$382, DW_AT_low_pc(0x00)
	.dwattr $C$DW$382, DW_AT_name("__mspabi_cmpd")
	.dwattr $C$DW$382, DW_AT_TI_call

        CALLA     #__mspabi_cmpd        ; [] |954| 
                                          ; [] |954| 
        TST.W     r12                   ; [] |954| 
        JGE       $C$L98                ; [] |954| 
                                          ; [] |954| 
;* --------------------------------------------------------------------------*
	.dwpsn	file "../src/start.c",line 957,column 33,is_stmt,isa 0
        MOV.W     #130,&TB0CCR6+0       ; [] |957| 
	.dwpsn	file "../src/start.c",line 959,column 33,is_stmt,isa 0
        MOV.W     #0,r12                ; [] |959| 
        MOV.W     #0,r13                ; [] |959| 
        MOV.W     &Vtmp+0,r14           ; [] |959| 
        MOV.W     &Vtmp+2,r15           ; [] |959| 
$C$DW$383	.dwtag  DW_TAG_TI_branch
	.dwattr $C$DW$383, DW_AT_low_pc(0x00)
	.dwattr $C$DW$383, DW_AT_name("__mspabi_cmpf")
	.dwattr $C$DW$383, DW_AT_TI_call

        CALLA     #__mspabi_cmpf        ; [] |959| 
                                          ; [] |959| 
        TST.W     r12                   ; [] |959| 
        JL        $C$L96                ; [] |959| 
                                          ; [] |959| 
;* --------------------------------------------------------------------------*
	.dwpsn	file "../src/start.c",line 965,column 37,is_stmt,isa 0
        MOV.W     &System_V+0,r12       ; [] |965| 
        MOV.W     &System_V+2,r13       ; [] |965| 
$C$DW$384	.dwtag  DW_TAG_TI_branch
	.dwattr $C$DW$384, DW_AT_low_pc(0x00)
	.dwattr $C$DW$384, DW_AT_name("setVout")
	.dwattr $C$DW$384, DW_AT_TI_call

        CALLA     #setVout              ; [] |965| 
                                          ; [] |965| 
        JMP       $C$L97                ; [] |965| 
                                          ; [] |965| 
;* --------------------------------------------------------------------------*
$C$L96:    
	.dwpsn	file "../src/start.c",line 961,column 37,is_stmt,isa 0
        MOV.W     &Vtmp+0,r12           ; [] |961| 
        MOV.W     &Vtmp+2,r13           ; [] |961| 
$C$DW$385	.dwtag  DW_TAG_TI_branch
	.dwattr $C$DW$385, DW_AT_low_pc(0x00)
	.dwattr $C$DW$385, DW_AT_name("setVout")
	.dwattr $C$DW$385, DW_AT_TI_call

        CALLA     #setVout              ; [] |961| 
                                          ; [] |961| 
;* --------------------------------------------------------------------------*
$C$L97:    
	.dwpsn	file "../src/start.c",line 967,column 33,is_stmt,isa 0
        TST.B     &shutdown_mode+0      ; [] |967| 
        JNE       $C$L98                ; [] |967| 
                                          ; [] |967| 
;* --------------------------------------------------------------------------*
	.dwpsn	file "../src/start.c",line 969,column 37,is_stmt,isa 0
        OR.B      #1,&PDOUT_H+0         ; [] |969| 
        MOV.B     #1,&load+0            ; [] |969| 
;* --------------------------------------------------------------------------*
$C$L98:    
	.dwpsn	file "../src/start.c",line 974,column 29,is_stmt,isa 0
$C$DW$386	.dwtag  DW_TAG_TI_branch
	.dwattr $C$DW$386, DW_AT_low_pc(0x00)
	.dwattr $C$DW$386, DW_AT_name("LCD_init")
	.dwattr $C$DW$386, DW_AT_TI_call

        CALLA     #LCD_init             ; [] |974| 
                                          ; [] |974| 
        JMP       $C$L102               ; [] |974| 
                                          ; [] |974| 
;* --------------------------------------------------------------------------*
$C$L99:    
	.dwpsn	file "../src/start.c",line 949,column 29,is_stmt,isa 0
        MOV.W     #7,&mode+0            ; [] |949| 
	.dwpsn	file "../src/start.c",line 950,column 29,is_stmt,isa 0
        MOV.W     #1,&error_message+40  ; [] |950| 
        JMP       $C$L102               ; [] 
                                          ; [] 
;* --------------------------------------------------------------------------*
$C$L100:    
	.dwpsn	file "../src/start.c",line 981,column 21,is_stmt,isa 0
        MOV.W     &FC_volts+0,r12       ; [] |981| 
