MSP430 Assembler PC v21.6.1 Tue Dec 20 13:45:43 2022

Copyright (c) 2003-2018 Texas Instruments Incorporated
adc12_a.asm                                                          PAGE    1

       1            ;******************************************************************************
       2            ;* MSP430 G3 C/C++ Codegen                                              PC v21.6.1.LTS *
       3            ;* Date/Time created: Tue Dec 20 13:45:43 2022                                *
       4            ;******************************************************************************
       5                    .compiler_opts --abi=eabi --diag_wrap=off --hll_source=on --mem_model:code=large --mem_model:d
       6            
       7            $C$DW$CU        .dwtag  DW_TAG_compile_unit
       8                    .dwattr $C$DW$CU, DW_AT_name("../MP430DriverLib/driverlib/MSP430F5xx_6xx/adc12_a.c")
       9                    .dwattr $C$DW$CU, DW_AT_producer("TI MSP430 G3 C/C++ Codegen PC v21.6.1.LTS Copyright (c) 2003
      10                    .dwattr $C$DW$CU, DW_AT_TI_version(0x01)
      11                    .dwattr $C$DW$CU, DW_AT_comp_dir("C:\Users\MCourson\workspace_v11\MZERO_HB50Board\Debug")
      12            ;       C:\ti\ccs1110\ccs\tools\compiler\ti-cgt-msp430_21.6.1.LTS\bin\opt430.exe C:\\Users\\MCourson\\
      13 000000               .sect   ".text:ADC12_A_startConversion"
      14                    .clink
      15                    .global ADC12_A_startConversion
      16            
      17            $C$DW$1 .dwtag  DW_TAG_subprogram
      18                    .dwattr $C$DW$1, DW_AT_name("ADC12_A_startConversion")
      19                    .dwattr $C$DW$1, DW_AT_low_pc(ADC12_A_startConversion)
      20                    .dwattr $C$DW$1, DW_AT_high_pc(0x00)
      21                    .dwattr $C$DW$1, DW_AT_TI_symbol_name("ADC12_A_startConversion")
      22                    .dwattr $C$DW$1, DW_AT_external
      23                    .dwattr $C$DW$1, DW_AT_TI_begin_file("../MP430DriverLib/driverlib/MSP430F5xx_6xx/adc12_a.c")
      24                    .dwattr $C$DW$1, DW_AT_TI_begin_line(0x95)
      25                    .dwattr $C$DW$1, DW_AT_TI_begin_column(0x06)
      26                    .dwattr $C$DW$1, DW_AT_decl_file("../MP430DriverLib/driverlib/MSP430F5xx_6xx/adc12_a.c")
      27                    .dwattr $C$DW$1, DW_AT_decl_line(0x95)
      28                    .dwattr $C$DW$1, DW_AT_decl_column(0x06)
      29                    .dwattr $C$DW$1, DW_AT_TI_max_frame_size(0x04)
      30                    .dwpsn  file "../MP430DriverLib/driverlib/MSP430F5xx_6xx/adc12_a.c",line 152,column 1,is_stmt,
      31            
      32                    .dwfde $C$DW$CIE, ADC12_A_startConversion
      33            $C$DW$2 .dwtag  DW_TAG_formal_parameter
      34                    .dwattr $C$DW$2, DW_AT_name("baseAddress")
      35                    .dwattr $C$DW$2, DW_AT_TI_symbol_name("baseAddress")
      36                    .dwattr $C$DW$2, DW_AT_type(*$C$DW$T$30)
      37                    .dwattr $C$DW$2, DW_AT_location[DW_OP_reg12]
      38            
      39            $C$DW$3 .dwtag  DW_TAG_formal_parameter
      40                    .dwattr $C$DW$3, DW_AT_name("startingMemoryBufferIndex")
      41                    .dwattr $C$DW$3, DW_AT_TI_symbol_name("startingMemoryBufferIndex")
      42                    .dwattr $C$DW$3, DW_AT_type(*$C$DW$T$30)
      43                    .dwattr $C$DW$3, DW_AT_location[DW_OP_reg13]
      44            
      45            $C$DW$4 .dwtag  DW_TAG_formal_parameter
      46                    .dwattr $C$DW$4, DW_AT_name("conversionSequenceModeSelect")
      47                    .dwattr $C$DW$4, DW_AT_TI_symbol_name("conversionSequenceModeSelect")
      48                    .dwattr $C$DW$4, DW_AT_type(*$C$DW$T$23)
      49                    .dwattr $C$DW$4, DW_AT_location[DW_OP_reg14]
      50            
      51            
      52            ;*****************************************************************************
      53            ;* FUNCTION NAME: ADC12_A_startConversion                                    *
      54            ;*                                                                           *
      55            ;*   Regs Modified     : SP,SR,r13,r15                                       *
MSP430 Assembler PC v21.6.1 Tue Dec 20 13:45:43 2022

Copyright (c) 2003-2018 Texas Instruments Incorporated
adc12_a.asm                                                          PAGE    2

      56            ;*   Regs Used         : SP,SR,r12,r13,r14,r15                               *
      57            ;*   Local Frame Size  : 0 Args + 0 Auto + 0 Save = 0 byte                   *
      58            ;*****************************************************************************
      59 000000       ADC12_A_startConversion:
      60            ;* --------------------------------------------------------------------------*
      61                    .dwcfi  cfa_offset, 4
      62                    .dwcfi  save_reg_to_mem, 16, -4
      63            ;* r12   assigned to baseAddress
      64            $C$DW$5 .dwtag  DW_TAG_variable
      65                    .dwattr $C$DW$5, DW_AT_name("baseAddress")
      66                    .dwattr $C$DW$5, DW_AT_TI_symbol_name("baseAddress")
      67                    .dwattr $C$DW$5, DW_AT_type(*$C$DW$T$30)
      68                    .dwattr $C$DW$5, DW_AT_location[DW_OP_reg12]
      69            
      70            ;* r14   assigned to conversionSequenceModeSelect
      71            $C$DW$6 .dwtag  DW_TAG_variable
      72                    .dwattr $C$DW$6, DW_AT_name("conversionSequenceModeSelect")
      73                    .dwattr $C$DW$6, DW_AT_TI_symbol_name("conversionSequenceModeSelect")
      74                    .dwattr $C$DW$6, DW_AT_type(*$C$DW$T$23)
      75                    .dwattr $C$DW$6, DW_AT_location[DW_OP_reg14]
      76            
      77                    .dwpsn  file "../MP430DriverLib/driverlib/MSP430F5xx_6xx/adc12_a.c",line 155,column 5,is_stmt,
      78 000000 C3EC          BIC.B     #2,0(r12)             ; [] |155| 
         000002 0000 
      79                    .dwpsn  file "../MP430DriverLib/driverlib/MSP430F5xx_6xx/adc12_a.c",line 157,column 5,is_stmt,
      80 000004 0CCF          MOVA      r12,r15               ; [] |157| 
      81 000006 532F          ADD.W     #2,r15                ; [] |157| 
      82 000008 4F0F          MOV.W     r15,r15               ; [] |157| 
      83 00000a F0BF          AND.W     #4089,0(r15)          ; [] |157| 
         00000c 0FF9 
         00000e 0000 
      84                    .dwpsn  file "../MP430DriverLib/driverlib/MSP430F5xx_6xx/adc12_a.c",line 159,column 5,is_stmt,
      85 000010 0CCF          MOVA      r12,r15               ; [] |159| 
      86 000012 503F          ADD.W     #3,r15                ; [] |159| 
         000014 0003 
      87 000016 4F0F          MOV.W     r15,r15               ; [] |159| 
      88 000018 1843          RPT #4 || RLAX.B r13 ; [] |159| 
         00001a 5D4D 
      89 00001c DDCF          OR.B      r13,0(r15)            ; [] |159| 
         00001e 0000 
      90                    .dwpsn  file "../MP430DriverLib/driverlib/MSP430F5xx_6xx/adc12_a.c",line 160,column 5,is_stmt,
      91 000020 0CCF          MOVA      r12,r15               ; [] |160| 
      92 000022 532F          ADD.W     #2,r15                ; [] |160| 
      93 000024 4F0F          MOV.W     r15,r15               ; [] |160| 
      94 000026 DECF          OR.B      r14,0(r15)            ; [] |160| 
         000028 0000 
      95                    .dwpsn  file "../MP430DriverLib/driverlib/MSP430F5xx_6xx/adc12_a.c",line 161,column 5,is_stmt,
      96 00002a D0FC          OR.B      #3,0(r12)             ; [] |161| 
         00002c 0003 
         00002e 0000 
      97                    .dwpsn  file "../MP430DriverLib/driverlib/MSP430F5xx_6xx/adc12_a.c",line 162,column 1,is_stmt,
      98            $C$DW$7 .dwtag  DW_TAG_TI_branch
      99                    .dwattr $C$DW$7, DW_AT_low_pc(0x00)
     100                    .dwattr $C$DW$7, DW_AT_TI_return
     101            
MSP430 Assembler PC v21.6.1 Tue Dec 20 13:45:43 2022

Copyright (c) 2003-2018 Texas Instruments Incorporated
adc12_a.asm                                                          PAGE    3

     102 000030 0110          RETA      ; [] 
     103                    ; [] 
     104                    .dwattr $C$DW$1, DW_AT_TI_end_file("../MP430DriverLib/driverlib/MSP430F5xx_6xx/adc12_a.c")
     105                    .dwattr $C$DW$1, DW_AT_TI_end_line(0xa2)
     106                    .dwattr $C$DW$1, DW_AT_TI_end_column(0x01)
     107                    .dwendentry
     108                    .dwendtag $C$DW$1
     109            
     110 000000               .sect   ".text:ADC12_A_setupSamplingTimer"
     111                    .clink
     112                    .global ADC12_A_setupSamplingTimer
     113            
     114            $C$DW$8 .dwtag  DW_TAG_subprogram
     115                    .dwattr $C$DW$8, DW_AT_name("ADC12_A_setupSamplingTimer")
     116                    .dwattr $C$DW$8, DW_AT_low_pc(ADC12_A_setupSamplingTimer)
     117                    .dwattr $C$DW$8, DW_AT_high_pc(0x00)
     118                    .dwattr $C$DW$8, DW_AT_TI_symbol_name("ADC12_A_setupSamplingTimer")
     119                    .dwattr $C$DW$8, DW_AT_external
     120                    .dwattr $C$DW$8, DW_AT_TI_begin_file("../MP430DriverLib/driverlib/MSP430F5xx_6xx/adc12_a.c")
     121                    .dwattr $C$DW$8, DW_AT_TI_begin_line(0x3f)
     122                    .dwattr $C$DW$8, DW_AT_TI_begin_column(0x06)
     123                    .dwattr $C$DW$8, DW_AT_decl_file("../MP430DriverLib/driverlib/MSP430F5xx_6xx/adc12_a.c")
     124                    .dwattr $C$DW$8, DW_AT_decl_line(0x3f)
     125                    .dwattr $C$DW$8, DW_AT_decl_column(0x06)
     126                    .dwattr $C$DW$8, DW_AT_TI_max_frame_size(0x04)
     127                    .dwpsn  file "../MP430DriverLib/driverlib/MSP430F5xx_6xx/adc12_a.c",line 67,column 1,is_stmt,a
     128            
     129                    .dwfde $C$DW$CIE, ADC12_A_setupSamplingTimer
     130            $C$DW$9 .dwtag  DW_TAG_formal_parameter
     131                    .dwattr $C$DW$9, DW_AT_name("baseAddress")
     132                    .dwattr $C$DW$9, DW_AT_TI_symbol_name("baseAddress")
     133                    .dwattr $C$DW$9, DW_AT_type(*$C$DW$T$30)
     134                    .dwattr $C$DW$9, DW_AT_location[DW_OP_reg12]
     135            
     136            $C$DW$10        .dwtag  DW_TAG_formal_parameter
     137                    .dwattr $C$DW$10, DW_AT_name("clockCycleHoldCountLowMem")
     138                    .dwattr $C$DW$10, DW_AT_TI_symbol_name("clockCycleHoldCountLowMem")
     139                    .dwattr $C$DW$10, DW_AT_type(*$C$DW$T$30)
     140                    .dwattr $C$DW$10, DW_AT_location[DW_OP_reg13]
     141            
     142            $C$DW$11        .dwtag  DW_TAG_formal_parameter
     143                    .dwattr $C$DW$11, DW_AT_name("clockCycleHoldCountHighMem")
     144                    .dwattr $C$DW$11, DW_AT_TI_symbol_name("clockCycleHoldCountHighMem")
     145                    .dwattr $C$DW$11, DW_AT_type(*$C$DW$T$30)
     146                    .dwattr $C$DW$11, DW_AT_location[DW_OP_reg14]
     147            
     148            $C$DW$12        .dwtag  DW_TAG_formal_parameter
     149                    .dwattr $C$DW$12, DW_AT_name("multipleSamplesEnabled")
     150                    .dwattr $C$DW$12, DW_AT_TI_symbol_name("multipleSamplesEnabled")
     151                    .dwattr $C$DW$12, DW_AT_type(*$C$DW$T$30)
     152                    .dwattr $C$DW$12, DW_AT_location[DW_OP_reg15]
     153            
     154            
     155            ;*****************************************************************************
     156            ;* FUNCTION NAME: ADC12_A_setupSamplingTimer                                 *
MSP430 Assembler PC v21.6.1 Tue Dec 20 13:45:43 2022

Copyright (c) 2003-2018 Texas Instruments Incorporated
adc12_a.asm                                                          PAGE    4

     157            ;*                                                                           *
     158            ;*   Regs Modified     : SP,SR,r11,r13,r14,r15                               *
     159            ;*   Regs Used         : SP,SR,r11,r12,r13,r14,r15                           *
     160            ;*   Local Frame Size  : 0 Args + 0 Auto + 0 Save = 0 byte                   *
     161            ;*****************************************************************************
     162 000000       ADC12_A_setupSamplingTimer:
     163            ;* --------------------------------------------------------------------------*
     164                    .dwcfi  cfa_offset, 4
     165                    .dwcfi  save_reg_to_mem, 16, -4
     166            ;* r12   assigned to baseAddress
     167            $C$DW$13        .dwtag  DW_TAG_variable
     168                    .dwattr $C$DW$13, DW_AT_name("baseAddress")
     169                    .dwattr $C$DW$13, DW_AT_TI_symbol_name("baseAddress")
     170                    .dwattr $C$DW$13, DW_AT_type(*$C$DW$T$30)
     171                    .dwattr $C$DW$13, DW_AT_location[DW_OP_reg12]
     172            
     173            ;* r15   assigned to clockCycleHoldCountLowMem
     174            $C$DW$14        .dwtag  DW_TAG_variable
     175                    .dwattr $C$DW$14, DW_AT_name("clockCycleHoldCountLowMem")
     176                    .dwattr $C$DW$14, DW_AT_TI_symbol_name("clockCycleHoldCountLowMem")
     177                    .dwattr $C$DW$14, DW_AT_type(*$C$DW$T$30)
     178                    .dwattr $C$DW$14, DW_AT_location[DW_OP_reg15]
     179            
     180            ;* r14   assigned to clockCycleHoldCountHighMem
     181            $C$DW$15        .dwtag  DW_TAG_variable
     182                    .dwattr $C$DW$15, DW_AT_name("clockCycleHoldCountHighMem")
     183                    .dwattr $C$DW$15, DW_AT_TI_symbol_name("clockCycleHoldCountHighMem")
     184                    .dwattr $C$DW$15, DW_AT_type(*$C$DW$T$30)
     185                    .dwattr $C$DW$15, DW_AT_location[DW_OP_reg14]
     186            
     187            ;* r11   assigned to multipleSamplesEnabled
     188            $C$DW$16        .dwtag  DW_TAG_variable
     189                    .dwattr $C$DW$16, DW_AT_name("multipleSamplesEnabled")
     190                    .dwattr $C$DW$16, DW_AT_TI_symbol_name("multipleSamplesEnabled")
     191                    .dwattr $C$DW$16, DW_AT_type(*$C$DW$T$30)
     192                    .dwattr $C$DW$16, DW_AT_location[DW_OP_reg11]
     193            
     194 000000 0FCB          MOVA      r15,r11               ; [] |67| 
     195 000002 0DCF          MOVA      r13,r15               ; [] |67| 
     196                    .dwpsn  file "../MP430DriverLib/driverlib/MSP430F5xx_6xx/adc12_a.c",line 68,column 5,is_stmt,i
     197 000004 0CCD          MOVA      r12,r13               ; [] |68| 
     198 000006 532D          ADD.W     #2,r13                ; [] |68| 
     199 000008 4D0D          MOV.W     r13,r13               ; [] |68| 
     200 00000a D0BD          OR.W      #512,0(r13)           ; [] |68| 
         00000c 0200 
         00000e 0000 
     201                    .dwpsn  file "../MP430DriverLib/driverlib/MSP430F5xx_6xx/adc12_a.c",line 71,column 5,is_stmt,i
     202 000010 F0BC          AND.W     #127,0(r12)           ; [] |71| 
         000012 007F 
         000014 0000 
     203                    .dwpsn  file "../MP430DriverLib/driverlib/MSP430F5xx_6xx/adc12_a.c",line 75,column 5,is_stmt,i
     204 000016 0ECD          MOVA      r14,r13               ; [] |75| 
     205 000018 0E5D          RLAM.W    #4,r13                ; [] |75| 
     206 00001a 5F0D          ADD.W     r15,r13               ; [] |75| 
     207 00001c 0DCE          MOVA      r13,r14               ; [] |75| 
MSP430 Assembler PC v21.6.1 Tue Dec 20 13:45:43 2022

Copyright (c) 2003-2018 Texas Instruments Incorporated
adc12_a.asm                                                          PAGE    5

     208 00001e 5B0E          ADD.W     r11,r14               ; [] |75| 
     209 000020 DE8C          OR.W      r14,0(r12)            ; [] |75| 
         000022 0000 
     210                    .dwpsn  file "../MP430DriverLib/driverlib/MSP430F5xx_6xx/adc12_a.c",line 78,column 1,is_stmt,i
     211            $C$DW$17        .dwtag  DW_TAG_TI_branch
     212                    .dwattr $C$DW$17, DW_AT_low_pc(0x00)
     213                    .dwattr $C$DW$17, DW_AT_TI_return
     214            
     215 000024 0110          RETA      ; [] 
     216                    ; [] 
     217                    .dwattr $C$DW$8, DW_AT_TI_end_file("../MP430DriverLib/driverlib/MSP430F5xx_6xx/adc12_a.c")
     218                    .dwattr $C$DW$8, DW_AT_TI_end_line(0x4e)
     219                    .dwattr $C$DW$8, DW_AT_TI_end_column(0x01)
     220                    .dwendentry
     221                    .dwendtag $C$DW$8
     222            
     223 000000               .sect   ".text:ADC12_A_setSampleHoldSignalInversion"
     224                    .clink
     225                    .global ADC12_A_setSampleHoldSignalInversion
     226            
     227            $C$DW$18        .dwtag  DW_TAG_subprogram
     228                    .dwattr $C$DW$18, DW_AT_name("ADC12_A_setSampleHoldSignalInversion")
     229                    .dwattr $C$DW$18, DW_AT_low_pc(ADC12_A_setSampleHoldSignalInversion)
     230                    .dwattr $C$DW$18, DW_AT_high_pc(0x00)
     231                    .dwattr $C$DW$18, DW_AT_TI_symbol_name("ADC12_A_setSampleHoldSignalInversion")
     232                    .dwattr $C$DW$18, DW_AT_external
     233                    .dwattr $C$DW$18, DW_AT_TI_begin_file("../MP430DriverLib/driverlib/MSP430F5xx_6xx/adc12_a.c")
     234                    .dwattr $C$DW$18, DW_AT_TI_begin_line(0xc0)
     235                    .dwattr $C$DW$18, DW_AT_TI_begin_column(0x06)
     236                    .dwattr $C$DW$18, DW_AT_decl_file("../MP430DriverLib/driverlib/MSP430F5xx_6xx/adc12_a.c")
     237                    .dwattr $C$DW$18, DW_AT_decl_line(0xc0)
     238                    .dwattr $C$DW$18, DW_AT_decl_column(0x06)
     239                    .dwattr $C$DW$18, DW_AT_TI_max_frame_size(0x04)
     240                    .dwpsn  file "../MP430DriverLib/driverlib/MSP430F5xx_6xx/adc12_a.c",line 194,column 1,is_stmt,
     241            
     242                    .dwfde $C$DW$CIE, ADC12_A_setSampleHoldSignalInversion
     243            $C$DW$19        .dwtag  DW_TAG_formal_parameter
     244                    .dwattr $C$DW$19, DW_AT_name("baseAddress")
     245                    .dwattr $C$DW$19, DW_AT_TI_symbol_name("baseAddress")
     246                    .dwattr $C$DW$19, DW_AT_type(*$C$DW$T$30)
     247                    .dwattr $C$DW$19, DW_AT_location[DW_OP_reg12]
     248            
     249            $C$DW$20        .dwtag  DW_TAG_formal_parameter
     250                    .dwattr $C$DW$20, DW_AT_name("invertedSignal")
     251                    .dwattr $C$DW$20, DW_AT_TI_symbol_name("invertedSignal")
     252                    .dwattr $C$DW$20, DW_AT_type(*$C$DW$T$30)
     253                    .dwattr $C$DW$20, DW_AT_location[DW_OP_reg13]
     254            
     255            
     256            ;*****************************************************************************
     257            ;* FUNCTION NAME: ADC12_A_setSampleHoldSignalInversion                       *
     258            ;*                                                                           *
     259            ;*   Regs Modified     : SP,SR,r12,r15                                       *
     260            ;*   Regs Used         : SP,SR,r12,r13,r15                                   *
     261            ;*   Local Frame Size  : 0 Args + 0 Auto + 0 Save = 0 byte                   *
MSP430 Assembler PC v21.6.1 Tue Dec 20 13:45:43 2022

Copyright (c) 2003-2018 Texas Instruments Incorporated
adc12_a.asm                                                          PAGE    6

     262            ;*****************************************************************************
     263 000000       ADC12_A_setSampleHoldSignalInversion:
     264            ;* --------------------------------------------------------------------------*
     265                    .dwcfi  cfa_offset, 4
     266                    .dwcfi  save_reg_to_mem, 16, -4
     267            ;* r12   assigned to baseAddress
     268            $C$DW$21        .dwtag  DW_TAG_variable
     269                    .dwattr $C$DW$21, DW_AT_name("baseAddress")
     270                    .dwattr $C$DW$21, DW_AT_TI_symbol_name("baseAddress")
     271                    .dwattr $C$DW$21, DW_AT_type(*$C$DW$T$30)
     272                    .dwattr $C$DW$21, DW_AT_location[DW_OP_reg12]
     273            
     274            ;* r13   assigned to invertedSignal
     275            $C$DW$22        .dwtag  DW_TAG_variable
     276                    .dwattr $C$DW$22, DW_AT_name("invertedSignal")
     277                    .dwattr $C$DW$22, DW_AT_TI_symbol_name("invertedSignal")
     278                    .dwattr $C$DW$22, DW_AT_type(*$C$DW$T$30)
     279                    .dwattr $C$DW$22, DW_AT_location[DW_OP_reg13]
     280            
     281                    .dwpsn  file "../MP430DriverLib/driverlib/MSP430F5xx_6xx/adc12_a.c",line 195,column 5,is_stmt,
     282 000000 0CCF          MOVA      r12,r15               ; [] |195| 
     283 000002 532F          ADD.W     #2,r15                ; [] |195| 
     284 000004 4F0F          MOV.W     r15,r15               ; [] |195| 
     285 000006 F0BF          AND.W     #65279,0(r15)         ; [] |195| 
         000008 FEFF 
         00000a 0000 
     286                    .dwpsn  file "../MP430DriverLib/driverlib/MSP430F5xx_6xx/adc12_a.c",line 196,column 5,is_stmt,
     287 00000c 532C          ADD.W     #2,r12                ; [] |196| 
     288 00000e 4C0F          MOV.W     r12,r15               ; [] |196| 
     289 000010 DD8F          OR.W      r13,0(r15)            ; [] |196| 
         000012 0000 
     290                    .dwpsn  file "../MP430DriverLib/driverlib/MSP430F5xx_6xx/adc12_a.c",line 197,column 1,is_stmt,
     291            $C$DW$23        .dwtag  DW_TAG_TI_branch
     292                    .dwattr $C$DW$23, DW_AT_low_pc(0x00)
     293                    .dwattr $C$DW$23, DW_AT_TI_return
     294            
     295 000014 0110          RETA      ; [] 
     296                    ; [] 
     297                    .dwattr $C$DW$18, DW_AT_TI_end_file("../MP430DriverLib/driverlib/MSP430F5xx_6xx/adc12_a.c")
     298                    .dwattr $C$DW$18, DW_AT_TI_end_line(0xc5)
     299                    .dwattr $C$DW$18, DW_AT_TI_end_column(0x01)
     300                    .dwendentry
     301                    .dwendtag $C$DW$18
     302            
     303 000000               .sect   ".text:ADC12_A_setResolution"
     304                    .clink
     305                    .global ADC12_A_setResolution
     306            
     307            $C$DW$24        .dwtag  DW_TAG_subprogram
     308                    .dwattr $C$DW$24, DW_AT_name("ADC12_A_setResolution")
     309                    .dwattr $C$DW$24, DW_AT_low_pc(ADC12_A_setResolution)
     310                    .dwattr $C$DW$24, DW_AT_high_pc(0x00)
     311                    .dwattr $C$DW$24, DW_AT_TI_symbol_name("ADC12_A_setResolution")
     312                    .dwattr $C$DW$24, DW_AT_external
     313                    .dwattr $C$DW$24, DW_AT_TI_begin_file("../MP430DriverLib/driverlib/MSP430F5xx_6xx/adc12_a.c")
MSP430 Assembler PC v21.6.1 Tue Dec 20 13:45:43 2022

Copyright (c) 2003-2018 Texas Instruments Incorporated
adc12_a.asm                                                          PAGE    7

     314                    .dwattr $C$DW$24, DW_AT_TI_begin_line(0xb9)
     315                    .dwattr $C$DW$24, DW_AT_TI_begin_column(0x06)
     316                    .dwattr $C$DW$24, DW_AT_decl_file("../MP430DriverLib/driverlib/MSP430F5xx_6xx/adc12_a.c")
     317                    .dwattr $C$DW$24, DW_AT_decl_line(0xb9)
     318                    .dwattr $C$DW$24, DW_AT_decl_column(0x06)
     319                    .dwattr $C$DW$24, DW_AT_TI_max_frame_size(0x04)
     320                    .dwpsn  file "../MP430DriverLib/driverlib/MSP430F5xx_6xx/adc12_a.c",line 187,column 1,is_stmt,
     321            
     322                    .dwfde $C$DW$CIE, ADC12_A_setResolution
     323            $C$DW$25        .dwtag  DW_TAG_formal_parameter
     324                    .dwattr $C$DW$25, DW_AT_name("baseAddress")
     325                    .dwattr $C$DW$25, DW_AT_TI_symbol_name("baseAddress")
     326                    .dwattr $C$DW$25, DW_AT_type(*$C$DW$T$30)
     327                    .dwattr $C$DW$25, DW_AT_location[DW_OP_reg12]
     328            
     329            $C$DW$26        .dwtag  DW_TAG_formal_parameter
     330                    .dwattr $C$DW$26, DW_AT_name("resolutionSelect")
     331                    .dwattr $C$DW$26, DW_AT_TI_symbol_name("resolutionSelect")
     332                    .dwattr $C$DW$26, DW_AT_type(*$C$DW$T$23)
     333                    .dwattr $C$DW$26, DW_AT_location[DW_OP_reg13]
     334            
     335            
     336            ;*****************************************************************************
     337            ;* FUNCTION NAME: ADC12_A_setResolution                                      *
     338            ;*                                                                           *
     339            ;*   Regs Modified     : SP,SR,r12,r15                                       *
     340            ;*   Regs Used         : SP,SR,r12,r13,r15                                   *
     341            ;*   Local Frame Size  : 0 Args + 0 Auto + 0 Save = 0 byte                   *
     342            ;*****************************************************************************
     343 000000       ADC12_A_setResolution:
     344            ;* --------------------------------------------------------------------------*
     345                    .dwcfi  cfa_offset, 4
     346                    .dwcfi  save_reg_to_mem, 16, -4
     347            ;* r12   assigned to baseAddress
     348            $C$DW$27        .dwtag  DW_TAG_variable
     349                    .dwattr $C$DW$27, DW_AT_name("baseAddress")
     350                    .dwattr $C$DW$27, DW_AT_TI_symbol_name("baseAddress")
     351                    .dwattr $C$DW$27, DW_AT_type(*$C$DW$T$30)
     352                    .dwattr $C$DW$27, DW_AT_location[DW_OP_reg12]
     353            
     354            ;* r13   assigned to resolutionSelect
     355            $C$DW$28        .dwtag  DW_TAG_variable
     356                    .dwattr $C$DW$28, DW_AT_name("resolutionSelect")
     357                    .dwattr $C$DW$28, DW_AT_TI_symbol_name("resolutionSelect")
     358                    .dwattr $C$DW$28, DW_AT_type(*$C$DW$T$23)
     359                    .dwattr $C$DW$28, DW_AT_location[DW_OP_reg13]
     360            
     361                    .dwpsn  file "../MP430DriverLib/driverlib/MSP430F5xx_6xx/adc12_a.c",line 188,column 5,is_stmt,
     362 000000 0CCF          MOVA      r12,r15               ; [] |188| 
     363 000002 522F          ADD.W     #4,r15                ; [] |188| 
     364 000004 4F0F          MOV.W     r15,r15               ; [] |188| 
     365 000006 F0FF          AND.B     #207,0(r15)           ; [] |188| 
         000008 00CF 
         00000a 0000 
     366                    .dwpsn  file "../MP430DriverLib/driverlib/MSP430F5xx_6xx/adc12_a.c",line 189,column 5,is_stmt,
MSP430 Assembler PC v21.6.1 Tue Dec 20 13:45:43 2022

Copyright (c) 2003-2018 Texas Instruments Incorporated
adc12_a.asm                                                          PAGE    8

     367 00000c 522C          ADD.W     #4,r12                ; [] |189| 
     368 00000e 4C0F          MOV.W     r12,r15               ; [] |189| 
     369 000010 DDCF          OR.B      r13,0(r15)            ; [] |189| 
         000012 0000 
     370                    .dwpsn  file "../MP430DriverLib/driverlib/MSP430F5xx_6xx/adc12_a.c",line 190,column 1,is_stmt,
     371            $C$DW$29        .dwtag  DW_TAG_TI_branch
     372                    .dwattr $C$DW$29, DW_AT_low_pc(0x00)
     373                    .dwattr $C$DW$29, DW_AT_TI_return
     374            
     375 000014 0110          RETA      ; [] 
     376                    ; [] 
     377                    .dwattr $C$DW$24, DW_AT_TI_end_file("../MP430DriverLib/driverlib/MSP430F5xx_6xx/adc12_a.c")
     378                    .dwattr $C$DW$24, DW_AT_TI_end_line(0xbe)
     379                    .dwattr $C$DW$24, DW_AT_TI_end_column(0x01)
     380                    .dwendentry
     381                    .dwendtag $C$DW$24
     382            
     383 000000               .sect   ".text:ADC12_A_setReferenceBufferSamplingRate"
     384                    .clink
     385                    .global ADC12_A_setReferenceBufferSamplingRate
     386            
     387            $C$DW$30        .dwtag  DW_TAG_subprogram
     388                    .dwattr $C$DW$30, DW_AT_name("ADC12_A_setReferenceBufferSamplingRate")
     389                    .dwattr $C$DW$30, DW_AT_low_pc(ADC12_A_setReferenceBufferSamplingRate)
     390                    .dwattr $C$DW$30, DW_AT_high_pc(0x00)
     391                    .dwattr $C$DW$30, DW_AT_TI_symbol_name("ADC12_A_setReferenceBufferSamplingRate")
     392                    .dwattr $C$DW$30, DW_AT_external
     393                    .dwattr $C$DW$30, DW_AT_TI_begin_file("../MP430DriverLib/driverlib/MSP430F5xx_6xx/adc12_a.c")
     394                    .dwattr $C$DW$30, DW_AT_TI_begin_line(0xd8)
     395                    .dwattr $C$DW$30, DW_AT_TI_begin_column(0x06)
     396                    .dwattr $C$DW$30, DW_AT_decl_file("../MP430DriverLib/driverlib/MSP430F5xx_6xx/adc12_a.c")
     397                    .dwattr $C$DW$30, DW_AT_decl_line(0xd8)
     398                    .dwattr $C$DW$30, DW_AT_decl_column(0x06)
     399                    .dwattr $C$DW$30, DW_AT_TI_max_frame_size(0x04)
     400                    .dwpsn  file "../MP430DriverLib/driverlib/MSP430F5xx_6xx/adc12_a.c",line 218,column 1,is_stmt,
     401            
     402                    .dwfde $C$DW$CIE, ADC12_A_setReferenceBufferSamplingRate
     403            $C$DW$31        .dwtag  DW_TAG_formal_parameter
     404                    .dwattr $C$DW$31, DW_AT_name("baseAddress")
     405                    .dwattr $C$DW$31, DW_AT_TI_symbol_name("baseAddress")
     406                    .dwattr $C$DW$31, DW_AT_type(*$C$DW$T$30)
     407                    .dwattr $C$DW$31, DW_AT_location[DW_OP_reg12]
     408            
     409            $C$DW$32        .dwtag  DW_TAG_formal_parameter
     410                    .dwattr $C$DW$32, DW_AT_name("samplingRateSelect")
     411                    .dwattr $C$DW$32, DW_AT_TI_symbol_name("samplingRateSelect")
     412                    .dwattr $C$DW$32, DW_AT_type(*$C$DW$T$23)
     413                    .dwattr $C$DW$32, DW_AT_location[DW_OP_reg13]
     414            
     415            
     416            ;*****************************************************************************
     417            ;* FUNCTION NAME: ADC12_A_setReferenceBufferSamplingRate                     *
     418            ;*                                                                           *
     419            ;*   Regs Modified     : SP,SR,r12,r15                                       *
     420            ;*   Regs Used         : SP,SR,r12,r13,r15                                   *
MSP430 Assembler PC v21.6.1 Tue Dec 20 13:45:43 2022

Copyright (c) 2003-2018 Texas Instruments Incorporated
adc12_a.asm                                                          PAGE    9

     421            ;*   Local Frame Size  : 0 Args + 0 Auto + 0 Save = 0 byte                   *
     422            ;*****************************************************************************
     423 000000       ADC12_A_setReferenceBufferSamplingRate:
     424            ;* --------------------------------------------------------------------------*
     425                    .dwcfi  cfa_offset, 4
     426                    .dwcfi  save_reg_to_mem, 16, -4
     427            ;* r12   assigned to baseAddress
     428            $C$DW$33        .dwtag  DW_TAG_variable
     429                    .dwattr $C$DW$33, DW_AT_name("baseAddress")
     430                    .dwattr $C$DW$33, DW_AT_TI_symbol_name("baseAddress")
     431                    .dwattr $C$DW$33, DW_AT_type(*$C$DW$T$30)
     432                    .dwattr $C$DW$33, DW_AT_location[DW_OP_reg12]
     433            
     434            ;* r13   assigned to samplingRateSelect
     435            $C$DW$34        .dwtag  DW_TAG_variable
     436                    .dwattr $C$DW$34, DW_AT_name("samplingRateSelect")
     437                    .dwattr $C$DW$34, DW_AT_TI_symbol_name("samplingRateSelect")
     438                    .dwattr $C$DW$34, DW_AT_type(*$C$DW$T$23)
     439                    .dwattr $C$DW$34, DW_AT_location[DW_OP_reg13]
     440            
     441                    .dwpsn  file "../MP430DriverLib/driverlib/MSP430F5xx_6xx/adc12_a.c",line 219,column 5,is_stmt,
     442 000000 0CCF          MOVA      r12,r15               ; [] |219| 
     443 000002 522F          ADD.W     #4,r15                ; [] |219| 
     444 000004 4F0F          MOV.W     r15,r15               ; [] |219| 
     445 000006 C2EF          BIC.B     #4,0(r15)             ; [] |219| 
         000008 0000 
     446                    .dwpsn  file "../MP430DriverLib/driverlib/MSP430F5xx_6xx/adc12_a.c",line 220,column 5,is_stmt,
     447 00000a 522C          ADD.W     #4,r12                ; [] |220| 
     448 00000c 4C0F          MOV.W     r12,r15               ; [] |220| 
     449 00000e DDCF          OR.B      r13,0(r15)            ; [] |220| 
         000010 0000 
     450                    .dwpsn  file "../MP430DriverLib/driverlib/MSP430F5xx_6xx/adc12_a.c",line 221,column 1,is_stmt,
     451            $C$DW$35        .dwtag  DW_TAG_TI_branch
     452                    .dwattr $C$DW$35, DW_AT_low_pc(0x00)
     453                    .dwattr $C$DW$35, DW_AT_TI_return
     454            
     455 000012 0110          RETA      ; [] 
     456                    ; [] 
     457                    .dwattr $C$DW$30, DW_AT_TI_end_file("../MP430DriverLib/driverlib/MSP430F5xx_6xx/adc12_a.c")
     458                    .dwattr $C$DW$30, DW_AT_TI_end_line(0xdd)
     459                    .dwattr $C$DW$30, DW_AT_TI_end_column(0x01)
     460                    .dwendentry
     461                    .dwendtag $C$DW$30
     462            
     463 000000               .sect   ".text:ADC12_A_setDataReadBackFormat"
     464                    .clink
     465                    .global ADC12_A_setDataReadBackFormat
     466            
     467            $C$DW$36        .dwtag  DW_TAG_subprogram
     468                    .dwattr $C$DW$36, DW_AT_name("ADC12_A_setDataReadBackFormat")
     469                    .dwattr $C$DW$36, DW_AT_low_pc(ADC12_A_setDataReadBackFormat)
     470                    .dwattr $C$DW$36, DW_AT_high_pc(0x00)
     471                    .dwattr $C$DW$36, DW_AT_TI_symbol_name("ADC12_A_setDataReadBackFormat")
     472                    .dwattr $C$DW$36, DW_AT_external
     473                    .dwattr $C$DW$36, DW_AT_TI_begin_file("../MP430DriverLib/driverlib/MSP430F5xx_6xx/adc12_a.c")
MSP430 Assembler PC v21.6.1 Tue Dec 20 13:45:43 2022

Copyright (c) 2003-2018 Texas Instruments Incorporated
adc12_a.asm                                                          PAGE   10

     474                    .dwattr $C$DW$36, DW_AT_TI_begin_line(0xc7)
     475                    .dwattr $C$DW$36, DW_AT_TI_begin_column(0x06)
     476                    .dwattr $C$DW$36, DW_AT_decl_file("../MP430DriverLib/driverlib/MSP430F5xx_6xx/adc12_a.c")
     477                    .dwattr $C$DW$36, DW_AT_decl_line(0xc7)
     478                    .dwattr $C$DW$36, DW_AT_decl_column(0x06)
     479                    .dwattr $C$DW$36, DW_AT_TI_max_frame_size(0x04)
     480                    .dwpsn  file "../MP430DriverLib/driverlib/MSP430F5xx_6xx/adc12_a.c",line 201,column 1,is_stmt,
     481            
     482                    .dwfde $C$DW$CIE, ADC12_A_setDataReadBackFormat
     483            $C$DW$37        .dwtag  DW_TAG_formal_parameter
     484                    .dwattr $C$DW$37, DW_AT_name("baseAddress")
     485                    .dwattr $C$DW$37, DW_AT_TI_symbol_name("baseAddress")
     486                    .dwattr $C$DW$37, DW_AT_type(*$C$DW$T$30)
     487                    .dwattr $C$DW$37, DW_AT_location[DW_OP_reg12]
     488            
     489            $C$DW$38        .dwtag  DW_TAG_formal_parameter
     490                    .dwattr $C$DW$38, DW_AT_name("readBackFormat")
     491                    .dwattr $C$DW$38, DW_AT_TI_symbol_name("readBackFormat")
     492                    .dwattr $C$DW$38, DW_AT_type(*$C$DW$T$23)
     493                    .dwattr $C$DW$38, DW_AT_location[DW_OP_reg13]
     494            
     495            
     496            ;*****************************************************************************
     497            ;* FUNCTION NAME: ADC12_A_setDataReadBackFormat                              *
     498            ;*                                                                           *
     499            ;*   Regs Modified     : SP,SR,r12,r15                                       *
     500            ;*   Regs Used         : SP,SR,r12,r13,r15                                   *
     501            ;*   Local Frame Size  : 0 Args + 0 Auto + 0 Save = 0 byte                   *
     502            ;*****************************************************************************
     503 000000       ADC12_A_setDataReadBackFormat:
     504            ;* --------------------------------------------------------------------------*
     505                    .dwcfi  cfa_offset, 4
     506                    .dwcfi  save_reg_to_mem, 16, -4
     507            ;* r12   assigned to baseAddress
     508            $C$DW$39        .dwtag  DW_TAG_variable
     509                    .dwattr $C$DW$39, DW_AT_name("baseAddress")
     510                    .dwattr $C$DW$39, DW_AT_TI_symbol_name("baseAddress")
     511                    .dwattr $C$DW$39, DW_AT_type(*$C$DW$T$30)
     512                    .dwattr $C$DW$39, DW_AT_location[DW_OP_reg12]
     513            
     514            ;* r13   assigned to readBackFormat
     515            $C$DW$40        .dwtag  DW_TAG_variable
     516                    .dwattr $C$DW$40, DW_AT_name("readBackFormat")
     517                    .dwattr $C$DW$40, DW_AT_TI_symbol_name("readBackFormat")
     518                    .dwattr $C$DW$40, DW_AT_type(*$C$DW$T$23)
     519                    .dwattr $C$DW$40, DW_AT_location[DW_OP_reg13]
     520            
     521                    .dwpsn  file "../MP430DriverLib/driverlib/MSP430F5xx_6xx/adc12_a.c",line 202,column 5,is_stmt,
     522 000000 0CCF          MOVA      r12,r15               ; [] |202| 
     523 000002 522F          ADD.W     #4,r15                ; [] |202| 
     524 000004 4F0F          MOV.W     r15,r15               ; [] |202| 
     525 000006 C2FF          BIC.B     #8,0(r15)             ; [] |202| 
         000008 0000 
     526                    .dwpsn  file "../MP430DriverLib/driverlib/MSP430F5xx_6xx/adc12_a.c",line 203,column 5,is_stmt,
     527 00000a 522C          ADD.W     #4,r12                ; [] |203| 
MSP430 Assembler PC v21.6.1 Tue Dec 20 13:45:43 2022

Copyright (c) 2003-2018 Texas Instruments Incorporated
adc12_a.asm                                                          PAGE   11

     528 00000c 4C0F          MOV.W     r12,r15               ; [] |203| 
     529 00000e DDCF          OR.B      r13,0(r15)            ; [] |203| 
         000010 0000 
     530                    .dwpsn  file "../MP430DriverLib/driverlib/MSP430F5xx_6xx/adc12_a.c",line 204,column 1,is_stmt,
     531            $C$DW$41        .dwtag  DW_TAG_TI_branch
     532                    .dwattr $C$DW$41, DW_AT_low_pc(0x00)
     533                    .dwattr $C$DW$41, DW_AT_TI_return
     534            
     535 000012 0110          RETA      ; [] 
     536                    ; [] 
     537                    .dwattr $C$DW$36, DW_AT_TI_end_file("../MP430DriverLib/driverlib/MSP430F5xx_6xx/adc12_a.c")
     538                    .dwattr $C$DW$36, DW_AT_TI_end_line(0xcc)
     539                    .dwattr $C$DW$36, DW_AT_TI_end_column(0x01)
     540                    .dwendentry
     541                    .dwendtag $C$DW$36
     542            
     543 000000               .sect   ".text:ADC12_A_isBusy"
     544                    .clink
     545                    .global ADC12_A_isBusy
     546            
     547            $C$DW$42        .dwtag  DW_TAG_subprogram
     548                    .dwattr $C$DW$42, DW_AT_name("ADC12_A_isBusy")
     549                    .dwattr $C$DW$42, DW_AT_low_pc(ADC12_A_isBusy)
     550                    .dwattr $C$DW$42, DW_AT_high_pc(0x00)
     551                    .dwattr $C$DW$42, DW_AT_TI_symbol_name("ADC12_A_isBusy")
     552                    .dwattr $C$DW$42, DW_AT_external
     553                    .dwattr $C$DW$42, DW_AT_type(*$C$DW$T$30)
     554                    .dwattr $C$DW$42, DW_AT_TI_begin_file("../MP430DriverLib/driverlib/MSP430F5xx_6xx/adc12_a.c")
     555                    .dwattr $C$DW$42, DW_AT_TI_begin_line(0xe5)
     556                    .dwattr $C$DW$42, DW_AT_TI_begin_column(0x0a)
     557                    .dwattr $C$DW$42, DW_AT_decl_file("../MP430DriverLib/driverlib/MSP430F5xx_6xx/adc12_a.c")
     558                    .dwattr $C$DW$42, DW_AT_decl_line(0xe5)
     559                    .dwattr $C$DW$42, DW_AT_decl_column(0x0a)
     560                    .dwattr $C$DW$42, DW_AT_TI_max_frame_size(0x04)
     561                    .dwpsn  file "../MP430DriverLib/driverlib/MSP430F5xx_6xx/adc12_a.c",line 230,column 1,is_stmt,
     562            
     563                    .dwfde $C$DW$CIE, ADC12_A_isBusy
     564            $C$DW$43        .dwtag  DW_TAG_formal_parameter
     565                    .dwattr $C$DW$43, DW_AT_name("baseAddress")
     566                    .dwattr $C$DW$43, DW_AT_TI_symbol_name("baseAddress")
     567                    .dwattr $C$DW$43, DW_AT_type(*$C$DW$T$30)
     568                    .dwattr $C$DW$43, DW_AT_location[DW_OP_reg12]
     569            
     570            
     571            ;*****************************************************************************
     572            ;* FUNCTION NAME: ADC12_A_isBusy                                             *
     573            ;*                                                                           *
     574            ;*   Regs Modified     : SP,SR,r12                                           *
     575            ;*   Regs Used         : SP,SR,r12                                           *
     576            ;*   Local Frame Size  : 0 Args + 0 Auto + 0 Save = 0 byte                   *
     577            ;*****************************************************************************
     578 000000       ADC12_A_isBusy:
     579            ;* --------------------------------------------------------------------------*
     580                    .dwcfi  cfa_offset, 4
     581                    .dwcfi  save_reg_to_mem, 16, -4
MSP430 Assembler PC v21.6.1 Tue Dec 20 13:45:43 2022

Copyright (c) 2003-2018 Texas Instruments Incorporated
adc12_a.asm                                                          PAGE   12

     582                    .dwpsn  file "../MP430DriverLib/driverlib/MSP430F5xx_6xx/adc12_a.c",line 231,column 5,is_stmt,
     583 000000 532C          ADD.W     #2,r12                ; [] |231| 
     584 000002 4C6C          MOV.B     @r12,r12              ; [] |231| 
     585 000004 F31C          AND.W     #1,r12                ; [] |231| 
     586                    .dwpsn  file "../MP430DriverLib/driverlib/MSP430F5xx_6xx/adc12_a.c",line 232,column 1,is_stmt,
     587            $C$DW$44        .dwtag  DW_TAG_TI_branch
     588                    .dwattr $C$DW$44, DW_AT_low_pc(0x00)
     589                    .dwattr $C$DW$44, DW_AT_TI_return
     590            
     591 000006 0110          RETA      ; [] 
     592                    ; [] 
     593                    .dwattr $C$DW$42, DW_AT_TI_end_file("../MP430DriverLib/driverlib/MSP430F5xx_6xx/adc12_a.c")
     594                    .dwattr $C$DW$42, DW_AT_TI_end_line(0xe8)
     595                    .dwattr $C$DW$42, DW_AT_TI_end_column(0x01)
     596                    .dwendentry
     597                    .dwendtag $C$DW$42
     598            
     599 000000               .sect   ".text:ADC12_A_init"
     600                    .clink
     601                    .global ADC12_A_init
     602            
     603            $C$DW$45        .dwtag  DW_TAG_subprogram
     604                    .dwattr $C$DW$45, DW_AT_name("ADC12_A_init")
     605                    .dwattr $C$DW$45, DW_AT_low_pc(ADC12_A_init)
     606                    .dwattr $C$DW$45, DW_AT_high_pc(0x00)
     607                    .dwattr $C$DW$45, DW_AT_TI_symbol_name("ADC12_A_init")
     608                    .dwattr $C$DW$45, DW_AT_external
     609                    .dwattr $C$DW$45, DW_AT_type(*$C$DW$T$39)
     610                    .dwattr $C$DW$45, DW_AT_TI_begin_file("../MP430DriverLib/driverlib/MSP430F5xx_6xx/adc12_a.c")
     611                    .dwattr $C$DW$45, DW_AT_TI_begin_line(0x15)
     612                    .dwattr $C$DW$45, DW_AT_TI_begin_column(0x06)
     613                    .dwattr $C$DW$45, DW_AT_decl_file("../MP430DriverLib/driverlib/MSP430F5xx_6xx/adc12_a.c")
     614                    .dwattr $C$DW$45, DW_AT_decl_line(0x15)
     615                    .dwattr $C$DW$45, DW_AT_decl_column(0x06)
     616                    .dwattr $C$DW$45, DW_AT_TI_max_frame_size(0x08)
     617                    .dwpsn  file "../MP430DriverLib/driverlib/MSP430F5xx_6xx/adc12_a.c",line 25,column 1,is_stmt,a
     618            
     619                    .dwfde $C$DW$CIE, ADC12_A_init
     620            $C$DW$46        .dwtag  DW_TAG_formal_parameter
     621                    .dwattr $C$DW$46, DW_AT_name("baseAddress")
     622                    .dwattr $C$DW$46, DW_AT_TI_symbol_name("baseAddress")
     623                    .dwattr $C$DW$46, DW_AT_type(*$C$DW$T$30)
     624                    .dwattr $C$DW$46, DW_AT_location[DW_OP_reg12]
     625            
     626            $C$DW$47        .dwtag  DW_TAG_formal_parameter
     627                    .dwattr $C$DW$47, DW_AT_name("sampleHoldSignalSourceSelect")
     628                    .dwattr $C$DW$47, DW_AT_TI_symbol_name("sampleHoldSignalSourceSelect")
     629                    .dwattr $C$DW$47, DW_AT_type(*$C$DW$T$30)
     630                    .dwattr $C$DW$47, DW_AT_location[DW_OP_reg13]
     631            
     632            $C$DW$48        .dwtag  DW_TAG_formal_parameter
     633                    .dwattr $C$DW$48, DW_AT_name("clockSourceSelect")
     634                    .dwattr $C$DW$48, DW_AT_TI_symbol_name("clockSourceSelect")
     635                    .dwattr $C$DW$48, DW_AT_type(*$C$DW$T$23)
     636                    .dwattr $C$DW$48, DW_AT_location[DW_OP_reg14]
MSP430 Assembler PC v21.6.1 Tue Dec 20 13:45:43 2022

Copyright (c) 2003-2018 Texas Instruments Incorporated
adc12_a.asm                                                          PAGE   13

     637            
     638            $C$DW$49        .dwtag  DW_TAG_formal_parameter
     639                    .dwattr $C$DW$49, DW_AT_name("clockSourceDivider")
     640                    .dwattr $C$DW$49, DW_AT_TI_symbol_name("clockSourceDivider")
     641                    .dwattr $C$DW$49, DW_AT_type(*$C$DW$T$30)
     642                    .dwattr $C$DW$49, DW_AT_location[DW_OP_reg15]
     643            
     644            
     645            ;*****************************************************************************
     646            ;* FUNCTION NAME: ADC12_A_init                                               *
     647            ;*                                                                           *
     648            ;*   Regs Modified     : SP,SR,r10,r11,r12,r13,r14,r15                       *
     649            ;*   Regs Used         : SP,SR,r10,r11,r12,r13,r14,r15                       *
     650            ;*   Local Frame Size  : 0 Args + 0 Auto + 4 Save = 4 byte                   *
     651            ;*****************************************************************************
     652 000000       ADC12_A_init:
     653            ;* --------------------------------------------------------------------------*
     654                    .dwcfi  cfa_offset, 4
     655                    .dwcfi  save_reg_to_mem, 16, -4
     656 000000 140A          PUSHM.A   #1,r10                ; [] 
     657                    .dwcfi  save_reg_to_mem, 10, -8
     658                    .dwcfi  cfa_offset, 8
     659            ;* r12   assigned to baseAddress
     660            $C$DW$50        .dwtag  DW_TAG_variable
     661                    .dwattr $C$DW$50, DW_AT_name("baseAddress")
     662                    .dwattr $C$DW$50, DW_AT_TI_symbol_name("baseAddress")
     663                    .dwattr $C$DW$50, DW_AT_type(*$C$DW$T$30)
     664                    .dwattr $C$DW$50, DW_AT_location[DW_OP_reg12]
     665            
     666            ;* r13   assigned to sampleHoldSignalSourceSelect
     667            $C$DW$51        .dwtag  DW_TAG_variable
     668                    .dwattr $C$DW$51, DW_AT_name("sampleHoldSignalSourceSelect")
     669                    .dwattr $C$DW$51, DW_AT_TI_symbol_name("sampleHoldSignalSourceSelect")
     670                    .dwattr $C$DW$51, DW_AT_type(*$C$DW$T$30)
     671                    .dwattr $C$DW$51, DW_AT_location[DW_OP_reg13]
     672            
     673            ;* r14   assigned to clockSourceSelect
     674            $C$DW$52        .dwtag  DW_TAG_variable
     675                    .dwattr $C$DW$52, DW_AT_name("clockSourceSelect")
     676                    .dwattr $C$DW$52, DW_AT_TI_symbol_name("clockSourceSelect")
     677                    .dwattr $C$DW$52, DW_AT_type(*$C$DW$T$23)
     678                    .dwattr $C$DW$52, DW_AT_location[DW_OP_reg14]
     679            
     680            ;* r15   assigned to clockSourceDivider
     681            $C$DW$53        .dwtag  DW_TAG_variable
     682                    .dwattr $C$DW$53, DW_AT_name("clockSourceDivider")
     683                    .dwattr $C$DW$53, DW_AT_TI_symbol_name("clockSourceDivider")
     684                    .dwattr $C$DW$53, DW_AT_type(*$C$DW$T$30)
     685                    .dwattr $C$DW$53, DW_AT_location[DW_OP_reg15]
     686            
     687            ;* r12   assigned to retVal
     688            $C$DW$54        .dwtag  DW_TAG_variable
     689                    .dwattr $C$DW$54, DW_AT_name("retVal")
     690                    .dwattr $C$DW$54, DW_AT_TI_symbol_name("retVal")
     691                    .dwattr $C$DW$54, DW_AT_type(*$C$DW$T$39)
MSP430 Assembler PC v21.6.1 Tue Dec 20 13:45:43 2022

Copyright (c) 2003-2018 Texas Instruments Incorporated
adc12_a.asm                                                          PAGE   14

     692                    .dwattr $C$DW$54, DW_AT_location[DW_OP_reg12]
     693            
     694                    .dwpsn  file "../MP430DriverLib/driverlib/MSP430F5xx_6xx/adc12_a.c",line 27,column 5,is_stmt,i
     695 000002 C3EC          BIC.B     #2,0(r12)             ; [] |27| 
         000004 0000 
     696                    .dwpsn  file "../MP430DriverLib/driverlib/MSP430F5xx_6xx/adc12_a.c",line 32,column 5,is_stmt,i
     697 000006 F0BC          AND.W     #65504,0(r12)         ; [] |32| 
         000008 FFE0 
         00000a 0000 
     698                    .dwpsn  file "../MP430DriverLib/driverlib/MSP430F5xx_6xx/adc12_a.c",line 34,column 5,is_stmt,i
     699 00000c 0CCB          MOVA      r12,r11               ; [] |34| 
     700 00000e 503B          ADD.W     #12,r11               ; [] |34| 
         000010 000C 
     701 000012 4B0B          MOV.W     r11,r11               ; [] |34| 
     702 000014 4B2A          MOV.W     @r11,r10              ; [] |34| 
     703 000016 438B          MOV.W     #0,0(r11)             ; [] |34| 
         000018 0000 
     704                    .dwpsn  file "../MP430DriverLib/driverlib/MSP430F5xx_6xx/adc12_a.c",line 35,column 5,is_stmt,i
     705 00001a 0CCB          MOVA      r12,r11               ; [] |35| 
     706 00001c 503B          ADD.W     #10,r11               ; [] |35| 
         00001e 000A 
     707 000020 4B0B          MOV.W     r11,r11               ; [] |35| 
     708 000022 4B2A          MOV.W     @r11,r10              ; [] |35| 
     709 000024 438B          MOV.W     #0,0(r11)             ; [] |35| 
         000026 0000 
     710                    .dwpsn  file "../MP430DriverLib/driverlib/MSP430F5xx_6xx/adc12_a.c",line 38,column 5,is_stmt,i
     711 000028 0FCB          MOVA      r15,r11               ; [] |38| 
     712 00002a F03B          AND.W     #224,r11              ; [] |38| 
         00002c 00E0 
     713 00002e 4E4E          MOV.B     r14,r14               ; [] |38| 
     714 000030 5B0E          ADD.W     r11,r14               ; [] |38| 
     715 000032 5D0E          ADD.W     r13,r14               ; [] |38| 
     716 000034 0CCD          MOVA      r12,r13               ; [] |38| 
     717 000036 532D          ADD.W     #2,r13                ; [] |38| 
     718 000038 4E8D          MOV.W     r14,0(r13)            ; [] |38| 
         00003a 0000 
     719                    .dwpsn  file "../MP430DriverLib/driverlib/MSP430F5xx_6xx/adc12_a.c",line 44,column 5,is_stmt,i
     720 00003c F03F          AND.W     #256,r15              ; [] |44| 
         00003e 0100 
     721 000040 503F          ADD.W     #32,r15               ; [] |44| 
         000042 0020 
     722 000044 522C          ADD.W     #4,r12                ; [] |44| 
     723 000046 4F8C          MOV.W     r15,0(r12)            ; [] |44| 
         000048 0000 
     724                    .dwpsn  file "../MP430DriverLib/driverlib/MSP430F5xx_6xx/adc12_a.c",line 48,column 5,is_stmt,i
     725 00004a 435C          MOV.B     #1,r12                ; [] |48| 
     726                    .dwpsn  file "../MP430DriverLib/driverlib/MSP430F5xx_6xx/adc12_a.c",line 49,column 1,is_stmt,i
     727 00004c 160A          POPM.A    #1,r10                ; [] 
     728                    .dwcfi  restore_reg, 10
     729                    .dwcfi  cfa_offset, 4
     730            $C$DW$55        .dwtag  DW_TAG_TI_branch
     731                    .dwattr $C$DW$55, DW_AT_low_pc(0x00)
     732                    .dwattr $C$DW$55, DW_AT_TI_return
     733            
     734 00004e 0110          RETA      ; [] 
MSP430 Assembler PC v21.6.1 Tue Dec 20 13:45:43 2022

Copyright (c) 2003-2018 Texas Instruments Incorporated
adc12_a.asm                                                          PAGE   15

     735                    ; [] 
     736                    .dwattr $C$DW$45, DW_AT_TI_end_file("../MP430DriverLib/driverlib/MSP430F5xx_6xx/adc12_a.c")
     737                    .dwattr $C$DW$45, DW_AT_TI_end_line(0x31)
     738                    .dwattr $C$DW$45, DW_AT_TI_end_column(0x01)
     739                    .dwendentry
     740                    .dwendtag $C$DW$45
     741            
     742 000000               .sect   ".text:ADC12_A_getResults"
     743                    .clink
     744                    .global ADC12_A_getResults
     745            
     746            $C$DW$56        .dwtag  DW_TAG_subprogram
     747                    .dwattr $C$DW$56, DW_AT_name("ADC12_A_getResults")
     748                    .dwattr $C$DW$56, DW_AT_low_pc(ADC12_A_getResults)
     749                    .dwattr $C$DW$56, DW_AT_high_pc(0x00)
     750                    .dwattr $C$DW$56, DW_AT_TI_symbol_name("ADC12_A_getResults")
     751                    .dwattr $C$DW$56, DW_AT_external
     752                    .dwattr $C$DW$56, DW_AT_type(*$C$DW$T$30)
     753                    .dwattr $C$DW$56, DW_AT_TI_begin_file("../MP430DriverLib/driverlib/MSP430F5xx_6xx/adc12_a.c")
     754                    .dwattr $C$DW$56, DW_AT_TI_begin_line(0xb3)
     755                    .dwattr $C$DW$56, DW_AT_TI_begin_column(0x0a)
     756                    .dwattr $C$DW$56, DW_AT_decl_file("../MP430DriverLib/driverlib/MSP430F5xx_6xx/adc12_a.c")
     757                    .dwattr $C$DW$56, DW_AT_decl_line(0xb3)
     758                    .dwattr $C$DW$56, DW_AT_decl_column(0x0a)
     759                    .dwattr $C$DW$56, DW_AT_TI_max_frame_size(0x04)
     760                    .dwpsn  file "../MP430DriverLib/driverlib/MSP430F5xx_6xx/adc12_a.c",line 180,column 1,is_stmt,
     761            
     762                    .dwfde $C$DW$CIE, ADC12_A_getResults
     763            $C$DW$57        .dwtag  DW_TAG_formal_parameter
     764                    .dwattr $C$DW$57, DW_AT_name("baseAddress")
     765                    .dwattr $C$DW$57, DW_AT_TI_symbol_name("baseAddress")
     766                    .dwattr $C$DW$57, DW_AT_type(*$C$DW$T$30)
     767                    .dwattr $C$DW$57, DW_AT_location[DW_OP_reg12]
     768            
     769            $C$DW$58        .dwtag  DW_TAG_formal_parameter
     770                    .dwattr $C$DW$58, DW_AT_name("memoryBufferIndex")
     771                    .dwattr $C$DW$58, DW_AT_TI_symbol_name("memoryBufferIndex")
     772                    .dwattr $C$DW$58, DW_AT_type(*$C$DW$T$23)
     773                    .dwattr $C$DW$58, DW_AT_location[DW_OP_reg13]
     774            
     775            
     776            ;*****************************************************************************
     777            ;* FUNCTION NAME: ADC12_A_getResults                                         *
     778            ;*                                                                           *
     779            ;*   Regs Modified     : SP,SR,r12,r15                                       *
     780            ;*   Regs Used         : SP,SR,r12,r13,r15                                   *
     781            ;*   Local Frame Size  : 0 Args + 0 Auto + 0 Save = 0 byte                   *
     782            ;*****************************************************************************
     783 000000       ADC12_A_getResults:
     784            ;* --------------------------------------------------------------------------*
     785                    .dwcfi  cfa_offset, 4
     786                    .dwcfi  save_reg_to_mem, 16, -4
     787            ;* r15   assigned to baseAddress
     788            $C$DW$59        .dwtag  DW_TAG_variable
     789                    .dwattr $C$DW$59, DW_AT_name("baseAddress")
MSP430 Assembler PC v21.6.1 Tue Dec 20 13:45:43 2022

Copyright (c) 2003-2018 Texas Instruments Incorporated
adc12_a.asm                                                          PAGE   16

     790                    .dwattr $C$DW$59, DW_AT_TI_symbol_name("baseAddress")
     791                    .dwattr $C$DW$59, DW_AT_type(*$C$DW$T$30)
     792                    .dwattr $C$DW$59, DW_AT_location[DW_OP_reg15]
     793            
     794            ;* r13   assigned to memoryBufferIndex
     795            $C$DW$60        .dwtag  DW_TAG_variable
     796                    .dwattr $C$DW$60, DW_AT_name("memoryBufferIndex")
     797                    .dwattr $C$DW$60, DW_AT_TI_symbol_name("memoryBufferIndex")
     798                    .dwattr $C$DW$60, DW_AT_type(*$C$DW$T$23)
     799                    .dwattr $C$DW$60, DW_AT_location[DW_OP_reg13]
     800            
     801 000000 0CCF          MOVA      r12,r15               ; [] |180| 
     802                    .dwpsn  file "../MP430DriverLib/driverlib/MSP430F5xx_6xx/adc12_a.c",line 182,column 5,is_stmt,
     803 000002 4D4C          MOV.B     r13,r12               ; [] |182| 
     804 000004 025C          RLAM.W    #1,r12                ; [] |182| 
     805 000006 5F0C          ADD.W     r15,r12               ; [] |182| 
     806 000008 503C          ADD.W     #32,r12               ; [] |182| 
         00000a 0020 
     807 00000c 4C2C          MOV.W     @r12,r12              ; [] |182| 
     808                    .dwpsn  file "../MP430DriverLib/driverlib/MSP430F5xx_6xx/adc12_a.c",line 183,column 1,is_stmt,
     809            $C$DW$61        .dwtag  DW_TAG_TI_branch
     810                    .dwattr $C$DW$61, DW_AT_low_pc(0x00)
     811                    .dwattr $C$DW$61, DW_AT_TI_return
     812            
     813 00000e 0110          RETA      ; [] 
     814                    ; [] 
     815                    .dwattr $C$DW$56, DW_AT_TI_end_file("../MP430DriverLib/driverlib/MSP430F5xx_6xx/adc12_a.c")
     816                    .dwattr $C$DW$56, DW_AT_TI_end_line(0xb7)
     817                    .dwattr $C$DW$56, DW_AT_TI_end_column(0x01)
     818                    .dwendentry
     819                    .dwendtag $C$DW$56
     820            
     821 000000               .sect   ".text:ADC12_A_getMemoryAddressForDMA"
     822                    .clink
     823                    .global ADC12_A_getMemoryAddressForDMA
     824            
     825            $C$DW$62        .dwtag  DW_TAG_subprogram
     826                    .dwattr $C$DW$62, DW_AT_name("ADC12_A_getMemoryAddressForDMA")
     827                    .dwattr $C$DW$62, DW_AT_low_pc(ADC12_A_getMemoryAddressForDMA)
     828                    .dwattr $C$DW$62, DW_AT_high_pc(0x00)
     829                    .dwattr $C$DW$62, DW_AT_TI_symbol_name("ADC12_A_getMemoryAddressForDMA")
     830                    .dwattr $C$DW$62, DW_AT_external
     831                    .dwattr $C$DW$62, DW_AT_type(*$C$DW$T$35)
     832                    .dwattr $C$DW$62, DW_AT_TI_begin_file("../MP430DriverLib/driverlib/MSP430F5xx_6xx/adc12_a.c")
     833                    .dwattr $C$DW$62, DW_AT_TI_begin_line(0xdf)
     834                    .dwattr $C$DW$62, DW_AT_TI_begin_column(0x0a)
     835                    .dwattr $C$DW$62, DW_AT_decl_file("../MP430DriverLib/driverlib/MSP430F5xx_6xx/adc12_a.c")
     836                    .dwattr $C$DW$62, DW_AT_decl_line(0xdf)
     837                    .dwattr $C$DW$62, DW_AT_decl_column(0x0a)
     838                    .dwattr $C$DW$62, DW_AT_TI_max_frame_size(0x04)
     839                    .dwpsn  file "../MP430DriverLib/driverlib/MSP430F5xx_6xx/adc12_a.c",line 225,column 1,is_stmt,
     840            
     841                    .dwfde $C$DW$CIE, ADC12_A_getMemoryAddressForDMA
     842            $C$DW$63        .dwtag  DW_TAG_formal_parameter
     843                    .dwattr $C$DW$63, DW_AT_name("baseAddress")
MSP430 Assembler PC v21.6.1 Tue Dec 20 13:45:43 2022

Copyright (c) 2003-2018 Texas Instruments Incorporated
adc12_a.asm                                                          PAGE   17

     844                    .dwattr $C$DW$63, DW_AT_TI_symbol_name("baseAddress")
     845                    .dwattr $C$DW$63, DW_AT_type(*$C$DW$T$30)
     846                    .dwattr $C$DW$63, DW_AT_location[DW_OP_reg12]
     847            
     848            $C$DW$64        .dwtag  DW_TAG_formal_parameter
     849                    .dwattr $C$DW$64, DW_AT_name("memoryIndex")
     850                    .dwattr $C$DW$64, DW_AT_TI_symbol_name("memoryIndex")
     851                    .dwattr $C$DW$64, DW_AT_type(*$C$DW$T$23)
     852                    .dwattr $C$DW$64, DW_AT_location[DW_OP_reg13]
     853            
     854            
     855            ;*****************************************************************************
     856            ;* FUNCTION NAME: ADC12_A_getMemoryAddressForDMA                             *
     857            ;*                                                                           *
     858            ;*   Regs Modified     : SP,SR,r12,r13,r15                                   *
     859            ;*   Regs Used         : SP,SR,r12,r13,r15                                   *
     860            ;*   Local Frame Size  : 0 Args + 0 Auto + 0 Save = 0 byte                   *
     861            ;*****************************************************************************
     862 000000       ADC12_A_getMemoryAddressForDMA:
     863            ;* --------------------------------------------------------------------------*
     864                    .dwcfi  cfa_offset, 4
     865                    .dwcfi  save_reg_to_mem, 16, -4
     866            ;* r15   assigned to baseAddress
     867            $C$DW$65        .dwtag  DW_TAG_variable
     868                    .dwattr $C$DW$65, DW_AT_name("baseAddress")
     869                    .dwattr $C$DW$65, DW_AT_TI_symbol_name("baseAddress")
     870                    .dwattr $C$DW$65, DW_AT_type(*$C$DW$T$30)
     871                    .dwattr $C$DW$65, DW_AT_location[DW_OP_reg15]
     872            
     873            ;* r13   assigned to memoryIndex
     874            $C$DW$66        .dwtag  DW_TAG_variable
     875                    .dwattr $C$DW$66, DW_AT_name("memoryIndex")
     876                    .dwattr $C$DW$66, DW_AT_TI_symbol_name("memoryIndex")
     877                    .dwattr $C$DW$66, DW_AT_type(*$C$DW$T$23)
     878                    .dwattr $C$DW$66, DW_AT_location[DW_OP_reg13]
     879            
     880 000000 0CCF          MOVA      r12,r15               ; [] |225| 
     881                    .dwpsn  file "../MP430DriverLib/driverlib/MSP430F5xx_6xx/adc12_a.c",line 226,column 5,is_stmt,
     882 000002 4D4C          MOV.B     r13,r12               ; [] |226| 
     883 000004 025C          RLAM.W    #1,r12                ; [] |226| 
     884 000006 5F0C          ADD.W     r15,r12               ; [] |226| 
     885 000008 503C          ADD.W     #32,r12               ; [] |226| 
         00000a 0020 
     886 00000c 430D          MOV.W     #0,r13                ; [] |226| 
     887                    .dwpsn  file "../MP430DriverLib/driverlib/MSP430F5xx_6xx/adc12_a.c",line 227,column 1,is_stmt,
     888            $C$DW$67        .dwtag  DW_TAG_TI_branch
     889                    .dwattr $C$DW$67, DW_AT_low_pc(0x00)
     890                    .dwattr $C$DW$67, DW_AT_TI_return
     891            
     892 00000e 0110          RETA      ; [] 
     893                    ; [] 
     894                    .dwattr $C$DW$62, DW_AT_TI_end_file("../MP430DriverLib/driverlib/MSP430F5xx_6xx/adc12_a.c")
     895                    .dwattr $C$DW$62, DW_AT_TI_end_line(0xe3)
     896                    .dwattr $C$DW$62, DW_AT_TI_end_column(0x01)
     897                    .dwendentry
MSP430 Assembler PC v21.6.1 Tue Dec 20 13:45:43 2022

Copyright (c) 2003-2018 Texas Instruments Incorporated
adc12_a.asm                                                          PAGE   18

     898                    .dwendtag $C$DW$62
     899            
     900 000000               .sect   ".text:ADC12_A_getInterruptStatus"
     901                    .clink
     902                    .global ADC12_A_getInterruptStatus
     903            
     904            $C$DW$68        .dwtag  DW_TAG_subprogram
     905                    .dwattr $C$DW$68, DW_AT_name("ADC12_A_getInterruptStatus")
     906                    .dwattr $C$DW$68, DW_AT_low_pc(ADC12_A_getInterruptStatus)
     907                    .dwattr $C$DW$68, DW_AT_high_pc(0x00)
     908                    .dwattr $C$DW$68, DW_AT_TI_symbol_name("ADC12_A_getInterruptStatus")
     909                    .dwattr $C$DW$68, DW_AT_external
     910                    .dwattr $C$DW$68, DW_AT_type(*$C$DW$T$30)
     911                    .dwattr $C$DW$68, DW_AT_TI_begin_file("../MP430DriverLib/driverlib/MSP430F5xx_6xx/adc12_a.c")
     912                    .dwattr $C$DW$68, DW_AT_TI_begin_line(0x8f)
     913                    .dwattr $C$DW$68, DW_AT_TI_begin_column(0x0a)
     914                    .dwattr $C$DW$68, DW_AT_decl_file("../MP430DriverLib/driverlib/MSP430F5xx_6xx/adc12_a.c")
     915                    .dwattr $C$DW$68, DW_AT_decl_line(0x8f)
     916                    .dwattr $C$DW$68, DW_AT_decl_column(0x0a)
     917                    .dwattr $C$DW$68, DW_AT_TI_max_frame_size(0x04)
     918                    .dwpsn  file "../MP430DriverLib/driverlib/MSP430F5xx_6xx/adc12_a.c",line 145,column 1,is_stmt,
     919            
     920                    .dwfde $C$DW$CIE, ADC12_A_getInterruptStatus
     921            $C$DW$69        .dwtag  DW_TAG_formal_parameter
     922                    .dwattr $C$DW$69, DW_AT_name("baseAddress")
     923                    .dwattr $C$DW$69, DW_AT_TI_symbol_name("baseAddress")
     924                    .dwattr $C$DW$69, DW_AT_type(*$C$DW$T$30)
     925                    .dwattr $C$DW$69, DW_AT_location[DW_OP_reg12]
     926            
     927            $C$DW$70        .dwtag  DW_TAG_formal_parameter
     928                    .dwattr $C$DW$70, DW_AT_name("memoryInterruptFlagMask")
     929                    .dwattr $C$DW$70, DW_AT_TI_symbol_name("memoryInterruptFlagMask")
     930                    .dwattr $C$DW$70, DW_AT_type(*$C$DW$T$30)
     931                    .dwattr $C$DW$70, DW_AT_location[DW_OP_reg13]
     932            
     933            
     934            ;*****************************************************************************
     935            ;* FUNCTION NAME: ADC12_A_getInterruptStatus                                 *
     936            ;*                                                                           *
     937            ;*   Regs Modified     : SP,SR,r12                                           *
     938            ;*   Regs Used         : SP,SR,r12,r13                                       *
     939            ;*   Local Frame Size  : 0 Args + 0 Auto + 0 Save = 0 byte                   *
     940            ;*****************************************************************************
     941 000000       ADC12_A_getInterruptStatus:
     942            ;* --------------------------------------------------------------------------*
     943                    .dwcfi  cfa_offset, 4
     944                    .dwcfi  save_reg_to_mem, 16, -4
     945            ;* r13   assigned to memoryInterruptFlagMask
     946            $C$DW$71        .dwtag  DW_TAG_variable
     947                    .dwattr $C$DW$71, DW_AT_name("memoryInterruptFlagMask")
     948                    .dwattr $C$DW$71, DW_AT_TI_symbol_name("memoryInterruptFlagMask")
     949                    .dwattr $C$DW$71, DW_AT_type(*$C$DW$T$30)
     950                    .dwattr $C$DW$71, DW_AT_location[DW_OP_reg13]
     951            
     952                    .dwpsn  file "../MP430DriverLib/driverlib/MSP430F5xx_6xx/adc12_a.c",line 146,column 5,is_stmt,
MSP430 Assembler PC v21.6.1 Tue Dec 20 13:45:43 2022

Copyright (c) 2003-2018 Texas Instruments Incorporated
adc12_a.asm                                                          PAGE   19

     953 000000 503C          ADD.W     #10,r12               ; [] |146| 
         000002 000A 
     954 000004 4C2C          MOV.W     @r12,r12              ; [] |146| 
     955 000006 FD0C          AND.W     r13,r12               ; [] |146| 
     956                    .dwpsn  file "../MP430DriverLib/driverlib/MSP430F5xx_6xx/adc12_a.c",line 147,column 1,is_stmt,
     957            $C$DW$72        .dwtag  DW_TAG_TI_branch
     958                    .dwattr $C$DW$72, DW_AT_low_pc(0x00)
     959                    .dwattr $C$DW$72, DW_AT_TI_return
     960            
     961 000008 0110          RETA      ; [] 
     962                    ; [] 
     963                    .dwattr $C$DW$68, DW_AT_TI_end_file("../MP430DriverLib/driverlib/MSP430F5xx_6xx/adc12_a.c")
     964                    .dwattr $C$DW$68, DW_AT_TI_end_line(0x93)
     965                    .dwattr $C$DW$68, DW_AT_TI_end_column(0x01)
     966                    .dwendentry
     967                    .dwendtag $C$DW$68
     968            
     969 000000               .sect   ".text:ADC12_A_enableReferenceBurst"
     970                    .clink
     971                    .global ADC12_A_enableReferenceBurst
     972            
     973            $C$DW$73        .dwtag  DW_TAG_subprogram
     974                    .dwattr $C$DW$73, DW_AT_name("ADC12_A_enableReferenceBurst")
     975                    .dwattr $C$DW$73, DW_AT_low_pc(ADC12_A_enableReferenceBurst)
     976                    .dwattr $C$DW$73, DW_AT_high_pc(0x00)
     977                    .dwattr $C$DW$73, DW_AT_TI_symbol_name("ADC12_A_enableReferenceBurst")
     978                    .dwattr $C$DW$73, DW_AT_external
     979                    .dwattr $C$DW$73, DW_AT_TI_begin_file("../MP430DriverLib/driverlib/MSP430F5xx_6xx/adc12_a.c")
     980                    .dwattr $C$DW$73, DW_AT_TI_begin_line(0xce)
     981                    .dwattr $C$DW$73, DW_AT_TI_begin_column(0x06)
     982                    .dwattr $C$DW$73, DW_AT_decl_file("../MP430DriverLib/driverlib/MSP430F5xx_6xx/adc12_a.c")
     983                    .dwattr $C$DW$73, DW_AT_decl_line(0xce)
     984                    .dwattr $C$DW$73, DW_AT_decl_column(0x06)
     985                    .dwattr $C$DW$73, DW_AT_TI_max_frame_size(0x04)
     986                    .dwpsn  file "../MP430DriverLib/driverlib/MSP430F5xx_6xx/adc12_a.c",line 207,column 1,is_stmt,
     987            
     988                    .dwfde $C$DW$CIE, ADC12_A_enableReferenceBurst
     989            $C$DW$74        .dwtag  DW_TAG_formal_parameter
     990                    .dwattr $C$DW$74, DW_AT_name("baseAddress")
     991                    .dwattr $C$DW$74, DW_AT_TI_symbol_name("baseAddress")
     992                    .dwattr $C$DW$74, DW_AT_type(*$C$DW$T$30)
     993                    .dwattr $C$DW$74, DW_AT_location[DW_OP_reg12]
     994            
     995            
     996            ;*****************************************************************************
     997            ;* FUNCTION NAME: ADC12_A_enableReferenceBurst                               *
     998            ;*                                                                           *
     999            ;*   Regs Modified     : SP,SR,r12,r15                                       *
    1000            ;*   Regs Used         : SP,SR,r12,r15                                       *
    1001            ;*   Local Frame Size  : 0 Args + 0 Auto + 0 Save = 0 byte                   *
    1002            ;*****************************************************************************
    1003 000000       ADC12_A_enableReferenceBurst:
    1004            ;* --------------------------------------------------------------------------*
    1005                    .dwcfi  cfa_offset, 4
    1006                    .dwcfi  save_reg_to_mem, 16, -4
MSP430 Assembler PC v21.6.1 Tue Dec 20 13:45:43 2022

Copyright (c) 2003-2018 Texas Instruments Incorporated
adc12_a.asm                                                          PAGE   20

    1007                    .dwpsn  file "../MP430DriverLib/driverlib/MSP430F5xx_6xx/adc12_a.c",line 208,column 5,is_stmt,
    1008 000000 522C          ADD.W     #4,r12                ; [] |208| 
    1009 000002 4C0F          MOV.W     r12,r15               ; [] |208| 
    1010 000004 D3DF          OR.B      #1,0(r15)             ; [] |208| 
         000006 0000 
    1011                    .dwpsn  file "../MP430DriverLib/driverlib/MSP430F5xx_6xx/adc12_a.c",line 209,column 1,is_stmt,
    1012            $C$DW$75        .dwtag  DW_TAG_TI_branch
    1013                    .dwattr $C$DW$75, DW_AT_low_pc(0x00)
    1014                    .dwattr $C$DW$75, DW_AT_TI_return
    1015            
    1016 000008 0110          RETA      ; [] 
    1017                    ; [] 
    1018                    .dwattr $C$DW$73, DW_AT_TI_end_file("../MP430DriverLib/driverlib/MSP430F5xx_6xx/adc12_a.c")
    1019                    .dwattr $C$DW$73, DW_AT_TI_end_line(0xd1)
    1020                    .dwattr $C$DW$73, DW_AT_TI_end_column(0x01)
    1021                    .dwendentry
    1022                    .dwendtag $C$DW$73
    1023            
    1024 000000               .sect   ".text:ADC12_A_enableInterrupt"
    1025                    .clink
    1026                    .global ADC12_A_enableInterrupt
    1027            
    1028            $C$DW$76        .dwtag  DW_TAG_subprogram
    1029                    .dwattr $C$DW$76, DW_AT_name("ADC12_A_enableInterrupt")
    1030                    .dwattr $C$DW$76, DW_AT_low_pc(ADC12_A_enableInterrupt)
    1031                    .dwattr $C$DW$76, DW_AT_high_pc(0x00)
    1032                    .dwattr $C$DW$76, DW_AT_TI_symbol_name("ADC12_A_enableInterrupt")
    1033                    .dwattr $C$DW$76, DW_AT_external
    1034                    .dwattr $C$DW$76, DW_AT_TI_begin_file("../MP430DriverLib/driverlib/MSP430F5xx_6xx/adc12_a.c")
    1035                    .dwattr $C$DW$76, DW_AT_TI_begin_line(0x6b)
    1036                    .dwattr $C$DW$76, DW_AT_TI_begin_column(0x06)
    1037                    .dwattr $C$DW$76, DW_AT_decl_file("../MP430DriverLib/driverlib/MSP430F5xx_6xx/adc12_a.c")
    1038                    .dwattr $C$DW$76, DW_AT_decl_line(0x6b)
    1039                    .dwattr $C$DW$76, DW_AT_decl_column(0x06)
    1040                    .dwattr $C$DW$76, DW_AT_TI_max_frame_size(0x04)
    1041                    .dwpsn  file "../MP430DriverLib/driverlib/MSP430F5xx_6xx/adc12_a.c",line 109,column 1,is_stmt,
    1042            
    1043                    .dwfde $C$DW$CIE, ADC12_A_enableInterrupt
    1044            $C$DW$77        .dwtag  DW_TAG_formal_parameter
    1045                    .dwattr $C$DW$77, DW_AT_name("baseAddress")
    1046                    .dwattr $C$DW$77, DW_AT_TI_symbol_name("baseAddress")
    1047                    .dwattr $C$DW$77, DW_AT_type(*$C$DW$T$30)
    1048                    .dwattr $C$DW$77, DW_AT_location[DW_OP_reg12]
    1049            
    1050            $C$DW$78        .dwtag  DW_TAG_formal_parameter
    1051                    .dwattr $C$DW$78, DW_AT_name("interruptMask")
    1052                    .dwattr $C$DW$78, DW_AT_TI_symbol_name("interruptMask")
    1053                    .dwattr $C$DW$78, DW_AT_type(*$C$DW$T$35)
    1054                    .dwattr $C$DW$78, DW_AT_location[DW_OP_reg13 DW_OP_piece 2 DW_OP_reg14 DW_OP_piece 2]
    1055            
    1056            
    1057            ;*****************************************************************************
    1058            ;* FUNCTION NAME: ADC12_A_enableInterrupt                                    *
    1059            ;*                                                                           *
    1060            ;*   Regs Modified     : SP,SR,r11,r12,r13,r14,r15                           *
MSP430 Assembler PC v21.6.1 Tue Dec 20 13:45:43 2022

Copyright (c) 2003-2018 Texas Instruments Incorporated
adc12_a.asm                                                          PAGE   21

    1061            ;*   Regs Used         : SP,SR,r11,r12,r13,r14,r15                           *
    1062            ;*   Local Frame Size  : 0 Args + 0 Auto + 0 Save = 0 byte                   *
    1063            ;*****************************************************************************
    1064 000000       ADC12_A_enableInterrupt:
    1065            ;* --------------------------------------------------------------------------*
    1066                    .dwcfi  cfa_offset, 4
    1067                    .dwcfi  save_reg_to_mem, 16, -4
    1068            ;* r12   assigned to baseAddress
    1069            $C$DW$79        .dwtag  DW_TAG_variable
    1070                    .dwattr $C$DW$79, DW_AT_name("baseAddress")
    1071                    .dwattr $C$DW$79, DW_AT_TI_symbol_name("baseAddress")
    1072                    .dwattr $C$DW$79, DW_AT_type(*$C$DW$T$30)
    1073                    .dwattr $C$DW$79, DW_AT_location[DW_OP_reg12]
    1074            
    1075            ;* r13   assigned to interruptMask
    1076            $C$DW$80        .dwtag  DW_TAG_variable
    1077                    .dwattr $C$DW$80, DW_AT_name("interruptMask")
    1078                    .dwattr $C$DW$80, DW_AT_TI_symbol_name("interruptMask")
    1079                    .dwattr $C$DW$80, DW_AT_type(*$C$DW$T$35)
    1080                    .dwattr $C$DW$80, DW_AT_location[DW_OP_reg13 DW_OP_piece 2 DW_OP_reg14 DW_OP_piece 2]
    1081            
    1082                    .dwpsn  file "../MP430DriverLib/driverlib/MSP430F5xx_6xx/adc12_a.c",line 110,column 5,is_stmt,
    1083 000000 0DCB          MOVA      r13,r11               ; [] |110| 
    1084 000002 0ECF          MOVA      r14,r15               ; [] |110| 
    1085 000004 F30B          AND.W     #0,r11                ; [] |110| 
    1086 000006 F22F          AND.W     #4,r15                ; [] |110| 
    1087 000008 930F          TST.W     r15                   ; [] |110| 
    1088 00000a 2002          JNE       $C$L1                 ; [] |110| 
    1089                                                      ; [] |110| 
    1090            ;* --------------------------------------------------------------------------*
    1091 00000c 930B          TST.W     r11                   ; [] |110| 
    1092 00000e 2405          JEQ       $C$L2                 ; [] |110| 
    1093                                                      ; [] |110| 
    1094            ;* --------------------------------------------------------------------------*
    1095 000010       $C$L1:    
    1096                    .dwpsn  file "../MP430DriverLib/driverlib/MSP430F5xx_6xx/adc12_a.c",line 111,column 9,is_stmt,
    1097 000010 D2AC          OR.W      #4,0(r12)             ; [] |111| 
         000012 0000 
    1098                    .dwpsn  file "../MP430DriverLib/driverlib/MSP430F5xx_6xx/adc12_a.c",line 112,column 9,is_stmt,
    1099 000014 F33D          AND.W     #65535,r13            ; [] |112| 
    1100 000016 F03E          AND.W     #65531,r14            ; [] |112| 
         000018 FFFB 
    1101            ;* --------------------------------------------------------------------------*
    1102 00001a       $C$L2:    
    1103                    .dwpsn  file "../MP430DriverLib/driverlib/MSP430F5xx_6xx/adc12_a.c",line 114,column 5,is_stmt,
    1104 00001a 0DCB          MOVA      r13,r11               ; [] |114| 
    1105 00001c 0ECF          MOVA      r14,r15               ; [] |114| 
    1106 00001e F30B          AND.W     #0,r11                ; [] |114| 
    1107 000020 F23F          AND.W     #8,r15                ; [] |114| 
    1108 000022 930F          TST.W     r15                   ; [] |114| 
    1109 000024 2002          JNE       $C$L3                 ; [] |114| 
    1110                                                      ; [] |114| 
    1111            ;* --------------------------------------------------------------------------*
    1112 000026 930B          TST.W     r11                   ; [] |114| 
    1113 000028 2405          JEQ       $C$L4                 ; [] |114| 
MSP430 Assembler PC v21.6.1 Tue Dec 20 13:45:43 2022

Copyright (c) 2003-2018 Texas Instruments Incorporated
adc12_a.asm                                                          PAGE   22

    1114                                                      ; [] |114| 
    1115            ;* --------------------------------------------------------------------------*
    1116 00002a       $C$L3:    
    1117                    .dwpsn  file "../MP430DriverLib/driverlib/MSP430F5xx_6xx/adc12_a.c",line 115,column 9,is_stmt,
    1118 00002a D2BC          OR.W      #8,0(r12)             ; [] |115| 
         00002c 0000 
    1119                    .dwpsn  file "../MP430DriverLib/driverlib/MSP430F5xx_6xx/adc12_a.c",line 116,column 9,is_stmt,
    1120 00002e F33D          AND.W     #65535,r13            ; [] |116| 
    1121 000030 F03E          AND.W     #65527,r14            ; [] |116| 
         000032 FFF7 
    1122            ;* --------------------------------------------------------------------------*
    1123 000034       $C$L4:    
    1124                    .dwpsn  file "../MP430DriverLib/driverlib/MSP430F5xx_6xx/adc12_a.c",line 119,column 5,is_stmt,
    1125 000034 503C          ADD.W     #12,r12               ; [] |119| 
         000036 000C 
    1126 000038 4C0F          MOV.W     r12,r15               ; [] |119| 
    1127 00003a DD8F          OR.W      r13,0(r15)            ; [] |119| 
         00003c 0000 
    1128                    .dwpsn  file "../MP430DriverLib/driverlib/MSP430F5xx_6xx/adc12_a.c",line 120,column 1,is_stmt,
    1129            $C$DW$81        .dwtag  DW_TAG_TI_branch
    1130                    .dwattr $C$DW$81, DW_AT_low_pc(0x00)
    1131                    .dwattr $C$DW$81, DW_AT_TI_return
    1132            
    1133 00003e 0110          RETA      ; [] 
    1134                    ; [] 
    1135                    .dwattr $C$DW$76, DW_AT_TI_end_file("../MP430DriverLib/driverlib/MSP430F5xx_6xx/adc12_a.c")
    1136                    .dwattr $C$DW$76, DW_AT_TI_end_line(0x78)
    1137                    .dwattr $C$DW$76, DW_AT_TI_end_column(0x01)
    1138                    .dwendentry
    1139                    .dwendtag $C$DW$76
    1140            
    1141 000000               .sect   ".text:ADC12_A_enable"
    1142                    .clink
    1143                    .global ADC12_A_enable
    1144            
    1145            $C$DW$82        .dwtag  DW_TAG_subprogram
    1146                    .dwattr $C$DW$82, DW_AT_name("ADC12_A_enable")
    1147                    .dwattr $C$DW$82, DW_AT_low_pc(ADC12_A_enable)
    1148                    .dwattr $C$DW$82, DW_AT_high_pc(0x00)
    1149                    .dwattr $C$DW$82, DW_AT_TI_symbol_name("ADC12_A_enable")
    1150                    .dwattr $C$DW$82, DW_AT_external
    1151                    .dwattr $C$DW$82, DW_AT_TI_begin_file("../MP430DriverLib/driverlib/MSP430F5xx_6xx/adc12_a.c")
    1152                    .dwattr $C$DW$82, DW_AT_TI_begin_line(0x33)
    1153                    .dwattr $C$DW$82, DW_AT_TI_begin_column(0x06)
    1154                    .dwattr $C$DW$82, DW_AT_decl_file("../MP430DriverLib/driverlib/MSP430F5xx_6xx/adc12_a.c")
    1155                    .dwattr $C$DW$82, DW_AT_decl_line(0x33)
    1156                    .dwattr $C$DW$82, DW_AT_decl_column(0x06)
    1157                    .dwattr $C$DW$82, DW_AT_TI_max_frame_size(0x04)
    1158                    .dwpsn  file "../MP430DriverLib/driverlib/MSP430F5xx_6xx/adc12_a.c",line 52,column 1,is_stmt,a
    1159            
    1160                    .dwfde $C$DW$CIE, ADC12_A_enable
    1161            $C$DW$83        .dwtag  DW_TAG_formal_parameter
    1162                    .dwattr $C$DW$83, DW_AT_name("baseAddress")
    1163                    .dwattr $C$DW$83, DW_AT_TI_symbol_name("baseAddress")
    1164                    .dwattr $C$DW$83, DW_AT_type(*$C$DW$T$30)
MSP430 Assembler PC v21.6.1 Tue Dec 20 13:45:43 2022

Copyright (c) 2003-2018 Texas Instruments Incorporated
adc12_a.asm                                                          PAGE   23

    1165                    .dwattr $C$DW$83, DW_AT_location[DW_OP_reg12]
    1166            
    1167            
    1168            ;*****************************************************************************
    1169            ;* FUNCTION NAME: ADC12_A_enable                                             *
    1170            ;*                                                                           *
    1171            ;*   Regs Modified     : SP                                                  *
    1172            ;*   Regs Used         : SP,r12                                              *
    1173            ;*   Local Frame Size  : 0 Args + 0 Auto + 0 Save = 0 byte                   *
    1174            ;*****************************************************************************
    1175 000000       ADC12_A_enable:
    1176            ;* --------------------------------------------------------------------------*
    1177                    .dwcfi  cfa_offset, 4
    1178                    .dwcfi  save_reg_to_mem, 16, -4
    1179            ;* r12   assigned to baseAddress
    1180            $C$DW$84        .dwtag  DW_TAG_variable
    1181                    .dwattr $C$DW$84, DW_AT_name("baseAddress")
    1182                    .dwattr $C$DW$84, DW_AT_TI_symbol_name("baseAddress")
    1183                    .dwattr $C$DW$84, DW_AT_type(*$C$DW$T$30)
    1184                    .dwattr $C$DW$84, DW_AT_location[DW_OP_reg12]
    1185            
    1186                    .dwpsn  file "../MP430DriverLib/driverlib/MSP430F5xx_6xx/adc12_a.c",line 54,column 5,is_stmt,i
    1187 000000 D0FC          OR.B      #16,0(r12)            ; [] |54| 
         000002 0010 
         000004 0000 
    1188                    .dwpsn  file "../MP430DriverLib/driverlib/MSP430F5xx_6xx/adc12_a.c",line 55,column 1,is_stmt,i
    1189            $C$DW$85        .dwtag  DW_TAG_TI_branch
    1190                    .dwattr $C$DW$85, DW_AT_low_pc(0x00)
    1191                    .dwattr $C$DW$85, DW_AT_TI_return
    1192            
    1193 000006 0110          RETA      ; [] 
    1194                    ; [] 
    1195                    .dwattr $C$DW$82, DW_AT_TI_end_file("../MP430DriverLib/driverlib/MSP430F5xx_6xx/adc12_a.c")
    1196                    .dwattr $C$DW$82, DW_AT_TI_end_line(0x37)
    1197                    .dwattr $C$DW$82, DW_AT_TI_end_column(0x01)
    1198                    .dwendentry
    1199                    .dwendtag $C$DW$82
    1200            
    1201 000000               .sect   ".text:ADC12_A_disableSamplingTimer"
    1202                    .clink
    1203                    .global ADC12_A_disableSamplingTimer
    1204            
    1205            $C$DW$86        .dwtag  DW_TAG_subprogram
    1206                    .dwattr $C$DW$86, DW_AT_name("ADC12_A_disableSamplingTimer")
    1207                    .dwattr $C$DW$86, DW_AT_low_pc(ADC12_A_disableSamplingTimer)
    1208                    .dwattr $C$DW$86, DW_AT_high_pc(0x00)
    1209                    .dwattr $C$DW$86, DW_AT_TI_symbol_name("ADC12_A_disableSamplingTimer")
    1210                    .dwattr $C$DW$86, DW_AT_external
    1211                    .dwattr $C$DW$86, DW_AT_TI_begin_file("../MP430DriverLib/driverlib/MSP430F5xx_6xx/adc12_a.c")
    1212                    .dwattr $C$DW$86, DW_AT_TI_begin_line(0x51)
    1213                    .dwattr $C$DW$86, DW_AT_TI_begin_column(0x06)
    1214                    .dwattr $C$DW$86, DW_AT_decl_file("../MP430DriverLib/driverlib/MSP430F5xx_6xx/adc12_a.c")
    1215                    .dwattr $C$DW$86, DW_AT_decl_line(0x51)
    1216                    .dwattr $C$DW$86, DW_AT_decl_column(0x06)
    1217                    .dwattr $C$DW$86, DW_AT_TI_max_frame_size(0x04)
MSP430 Assembler PC v21.6.1 Tue Dec 20 13:45:43 2022

Copyright (c) 2003-2018 Texas Instruments Incorporated
adc12_a.asm                                                          PAGE   24

    1218                    .dwpsn  file "../MP430DriverLib/driverlib/MSP430F5xx_6xx/adc12_a.c",line 82,column 1,is_stmt,a
    1219            
    1220                    .dwfde $C$DW$CIE, ADC12_A_disableSamplingTimer
    1221            $C$DW$87        .dwtag  DW_TAG_formal_parameter
    1222                    .dwattr $C$DW$87, DW_AT_name("baseAddress")
    1223                    .dwattr $C$DW$87, DW_AT_TI_symbol_name("baseAddress")
    1224                    .dwattr $C$DW$87, DW_AT_type(*$C$DW$T$30)
    1225                    .dwattr $C$DW$87, DW_AT_location[DW_OP_reg12]
    1226            
    1227            
    1228            ;*****************************************************************************
    1229            ;* FUNCTION NAME: ADC12_A_disableSamplingTimer                               *
    1230            ;*                                                                           *
    1231            ;*   Regs Modified     : SP,SR,r12,r15                                       *
    1232            ;*   Regs Used         : SP,SR,r12,r15                                       *
    1233            ;*   Local Frame Size  : 0 Args + 0 Auto + 0 Save = 0 byte                   *
    1234            ;*****************************************************************************
    1235 000000       ADC12_A_disableSamplingTimer:
    1236            ;* --------------------------------------------------------------------------*
    1237                    .dwcfi  cfa_offset, 4
    1238                    .dwcfi  save_reg_to_mem, 16, -4
    1239                    .dwpsn  file "../MP430DriverLib/driverlib/MSP430F5xx_6xx/adc12_a.c",line 83,column 5,is_stmt,i
    1240 000000 532C          ADD.W     #2,r12                ; [] |83| 
    1241 000002 4C0F          MOV.W     r12,r15               ; [] |83| 
    1242 000004 F0BF          AND.W     #65023,0(r15)         ; [] |83| 
         000006 FDFF 
         000008 0000 
    1243                    .dwpsn  file "../MP430DriverLib/driverlib/MSP430F5xx_6xx/adc12_a.c",line 84,column 1,is_stmt,i
    1244            $C$DW$88        .dwtag  DW_TAG_TI_branch
    1245                    .dwattr $C$DW$88, DW_AT_low_pc(0x00)
    1246                    .dwattr $C$DW$88, DW_AT_TI_return
    1247            
    1248 00000a 0110          RETA      ; [] 
    1249                    ; [] 
    1250                    .dwattr $C$DW$86, DW_AT_TI_end_file("../MP430DriverLib/driverlib/MSP430F5xx_6xx/adc12_a.c")
    1251                    .dwattr $C$DW$86, DW_AT_TI_end_line(0x54)
    1252                    .dwattr $C$DW$86, DW_AT_TI_end_column(0x01)
    1253                    .dwendentry
    1254                    .dwendtag $C$DW$86
    1255            
    1256 000000               .sect   ".text:ADC12_A_disableReferenceBurst"
    1257                    .clink
    1258                    .global ADC12_A_disableReferenceBurst
    1259            
    1260            $C$DW$89        .dwtag  DW_TAG_subprogram
    1261                    .dwattr $C$DW$89, DW_AT_name("ADC12_A_disableReferenceBurst")
    1262                    .dwattr $C$DW$89, DW_AT_low_pc(ADC12_A_disableReferenceBurst)
    1263                    .dwattr $C$DW$89, DW_AT_high_pc(0x00)
    1264                    .dwattr $C$DW$89, DW_AT_TI_symbol_name("ADC12_A_disableReferenceBurst")
    1265                    .dwattr $C$DW$89, DW_AT_external
    1266                    .dwattr $C$DW$89, DW_AT_TI_begin_file("../MP430DriverLib/driverlib/MSP430F5xx_6xx/adc12_a.c")
    1267                    .dwattr $C$DW$89, DW_AT_TI_begin_line(0xd3)
    1268                    .dwattr $C$DW$89, DW_AT_TI_begin_column(0x06)
    1269                    .dwattr $C$DW$89, DW_AT_decl_file("../MP430DriverLib/driverlib/MSP430F5xx_6xx/adc12_a.c")
    1270                    .dwattr $C$DW$89, DW_AT_decl_line(0xd3)
MSP430 Assembler PC v21.6.1 Tue Dec 20 13:45:43 2022

Copyright (c) 2003-2018 Texas Instruments Incorporated
adc12_a.asm                                                          PAGE   25

    1271                    .dwattr $C$DW$89, DW_AT_decl_column(0x06)
    1272                    .dwattr $C$DW$89, DW_AT_TI_max_frame_size(0x04)
    1273                    .dwpsn  file "../MP430DriverLib/driverlib/MSP430F5xx_6xx/adc12_a.c",line 212,column 1,is_stmt,
    1274            
    1275                    .dwfde $C$DW$CIE, ADC12_A_disableReferenceBurst
    1276            $C$DW$90        .dwtag  DW_TAG_formal_parameter
    1277                    .dwattr $C$DW$90, DW_AT_name("baseAddress")
    1278                    .dwattr $C$DW$90, DW_AT_TI_symbol_name("baseAddress")
    1279                    .dwattr $C$DW$90, DW_AT_type(*$C$DW$T$30)
    1280                    .dwattr $C$DW$90, DW_AT_location[DW_OP_reg12]
    1281            
    1282            
    1283            ;*****************************************************************************
    1284            ;* FUNCTION NAME: ADC12_A_disableReferenceBurst                              *
    1285            ;*                                                                           *
    1286            ;*   Regs Modified     : SP,SR,r12,r15                                       *
    1287            ;*   Regs Used         : SP,SR,r12,r15                                       *
    1288            ;*   Local Frame Size  : 0 Args + 0 Auto + 0 Save = 0 byte                   *
    1289            ;*****************************************************************************
    1290 000000       ADC12_A_disableReferenceBurst:
    1291            ;* --------------------------------------------------------------------------*
    1292                    .dwcfi  cfa_offset, 4
    1293                    .dwcfi  save_reg_to_mem, 16, -4
    1294                    .dwpsn  file "../MP430DriverLib/driverlib/MSP430F5xx_6xx/adc12_a.c",line 213,column 5,is_stmt,
    1295 000000 522C          ADD.W     #4,r12                ; [] |213| 
    1296 000002 4C0F          MOV.W     r12,r15               ; [] |213| 
    1297 000004 C3DF          BIC.B     #1,0(r15)             ; [] |213| 
         000006 0000 
    1298                    .dwpsn  file "../MP430DriverLib/driverlib/MSP430F5xx_6xx/adc12_a.c",line 214,column 1,is_stmt,
    1299            $C$DW$91        .dwtag  DW_TAG_TI_branch
    1300                    .dwattr $C$DW$91, DW_AT_low_pc(0x00)
    1301                    .dwattr $C$DW$91, DW_AT_TI_return
    1302            
    1303 000008 0110          RETA      ; [] 
    1304                    ; [] 
    1305                    .dwattr $C$DW$89, DW_AT_TI_end_file("../MP430DriverLib/driverlib/MSP430F5xx_6xx/adc12_a.c")
    1306                    .dwattr $C$DW$89, DW_AT_TI_end_line(0xd6)
    1307                    .dwattr $C$DW$89, DW_AT_TI_end_column(0x01)
    1308                    .dwendentry
    1309                    .dwendtag $C$DW$89
    1310            
    1311 000000               .sect   ".text:ADC12_A_disableInterrupt"
    1312                    .clink
    1313                    .global ADC12_A_disableInterrupt
    1314            
    1315            $C$DW$92        .dwtag  DW_TAG_subprogram
    1316                    .dwattr $C$DW$92, DW_AT_name("ADC12_A_disableInterrupt")
    1317                    .dwattr $C$DW$92, DW_AT_low_pc(ADC12_A_disableInterrupt)
    1318                    .dwattr $C$DW$92, DW_AT_high_pc(0x00)
    1319                    .dwattr $C$DW$92, DW_AT_TI_symbol_name("ADC12_A_disableInterrupt")
    1320                    .dwattr $C$DW$92, DW_AT_external
    1321                    .dwattr $C$DW$92, DW_AT_TI_begin_file("../MP430DriverLib/driverlib/MSP430F5xx_6xx/adc12_a.c")
    1322                    .dwattr $C$DW$92, DW_AT_TI_begin_line(0x7a)
    1323                    .dwattr $C$DW$92, DW_AT_TI_begin_column(0x06)
    1324                    .dwattr $C$DW$92, DW_AT_decl_file("../MP430DriverLib/driverlib/MSP430F5xx_6xx/adc12_a.c")
MSP430 Assembler PC v21.6.1 Tue Dec 20 13:45:43 2022

Copyright (c) 2003-2018 Texas Instruments Incorporated
adc12_a.asm                                                          PAGE   26

    1325                    .dwattr $C$DW$92, DW_AT_decl_line(0x7a)
    1326                    .dwattr $C$DW$92, DW_AT_decl_column(0x06)
    1327                    .dwattr $C$DW$92, DW_AT_TI_max_frame_size(0x04)
    1328                    .dwpsn  file "../MP430DriverLib/driverlib/MSP430F5xx_6xx/adc12_a.c",line 124,column 1,is_stmt,
    1329            
    1330                    .dwfde $C$DW$CIE, ADC12_A_disableInterrupt
    1331            $C$DW$93        .dwtag  DW_TAG_formal_parameter
    1332                    .dwattr $C$DW$93, DW_AT_name("baseAddress")
    1333                    .dwattr $C$DW$93, DW_AT_TI_symbol_name("baseAddress")
    1334                    .dwattr $C$DW$93, DW_AT_type(*$C$DW$T$30)
    1335                    .dwattr $C$DW$93, DW_AT_location[DW_OP_reg12]
    1336            
    1337            $C$DW$94        .dwtag  DW_TAG_formal_parameter
    1338                    .dwattr $C$DW$94, DW_AT_name("interruptMask")
    1339                    .dwattr $C$DW$94, DW_AT_TI_symbol_name("interruptMask")
    1340                    .dwattr $C$DW$94, DW_AT_type(*$C$DW$T$35)
    1341                    .dwattr $C$DW$94, DW_AT_location[DW_OP_reg13 DW_OP_piece 2 DW_OP_reg14 DW_OP_piece 2]
    1342            
    1343            
    1344            ;*****************************************************************************
    1345            ;* FUNCTION NAME: ADC12_A_disableInterrupt                                   *
    1346            ;*                                                                           *
    1347            ;*   Regs Modified     : SP,SR,r11,r12,r13,r14,r15                           *
    1348            ;*   Regs Used         : SP,SR,r11,r12,r13,r14,r15                           *
    1349            ;*   Local Frame Size  : 0 Args + 0 Auto + 0 Save = 0 byte                   *
    1350            ;*****************************************************************************
    1351 000000       ADC12_A_disableInterrupt:
    1352            ;* --------------------------------------------------------------------------*
    1353                    .dwcfi  cfa_offset, 4
    1354                    .dwcfi  save_reg_to_mem, 16, -4
    1355            ;* r12   assigned to baseAddress
    1356            $C$DW$95        .dwtag  DW_TAG_variable
    1357                    .dwattr $C$DW$95, DW_AT_name("baseAddress")
    1358                    .dwattr $C$DW$95, DW_AT_TI_symbol_name("baseAddress")
    1359                    .dwattr $C$DW$95, DW_AT_type(*$C$DW$T$30)
    1360                    .dwattr $C$DW$95, DW_AT_location[DW_OP_reg12]
    1361            
    1362            ;* r13   assigned to interruptMask
    1363            $C$DW$96        .dwtag  DW_TAG_variable
    1364                    .dwattr $C$DW$96, DW_AT_name("interruptMask")
    1365                    .dwattr $C$DW$96, DW_AT_TI_symbol_name("interruptMask")
    1366                    .dwattr $C$DW$96, DW_AT_type(*$C$DW$T$35)
    1367                    .dwattr $C$DW$96, DW_AT_location[DW_OP_reg13 DW_OP_piece 2 DW_OP_reg14 DW_OP_piece 2]
    1368            
    1369                    .dwpsn  file "../MP430DriverLib/driverlib/MSP430F5xx_6xx/adc12_a.c",line 125,column 5,is_stmt,
    1370 000000 0DCB          MOVA      r13,r11               ; [] |125| 
    1371 000002 0ECF          MOVA      r14,r15               ; [] |125| 
    1372 000004 F30B          AND.W     #0,r11                ; [] |125| 
    1373 000006 F22F          AND.W     #4,r15                ; [] |125| 
    1374 000008 930F          TST.W     r15                   ; [] |125| 
    1375 00000a 2002          JNE       $C$L5                 ; [] |125| 
    1376                                                      ; [] |125| 
    1377            ;* --------------------------------------------------------------------------*
    1378 00000c 930B          TST.W     r11                   ; [] |125| 
    1379 00000e 2405          JEQ       $C$L6                 ; [] |125| 
MSP430 Assembler PC v21.6.1 Tue Dec 20 13:45:43 2022

Copyright (c) 2003-2018 Texas Instruments Incorporated
adc12_a.asm                                                          PAGE   27

    1380                                                      ; [] |125| 
    1381            ;* --------------------------------------------------------------------------*
    1382 000010       $C$L5:    
    1383                    .dwpsn  file "../MP430DriverLib/driverlib/MSP430F5xx_6xx/adc12_a.c",line 126,column 9,is_stmt,
    1384 000010 C2AC          BIC.W     #4,0(r12)             ; [] |126| 
         000012 0000 
    1385                    .dwpsn  file "../MP430DriverLib/driverlib/MSP430F5xx_6xx/adc12_a.c",line 127,column 9,is_stmt,
    1386 000014 F33D          AND.W     #65535,r13            ; [] |127| 
    1387 000016 F03E          AND.W     #65531,r14            ; [] |127| 
         000018 FFFB 
    1388            ;* --------------------------------------------------------------------------*
    1389 00001a       $C$L6:    
    1390                    .dwpsn  file "../MP430DriverLib/driverlib/MSP430F5xx_6xx/adc12_a.c",line 129,column 5,is_stmt,
    1391 00001a 0DCB          MOVA      r13,r11               ; [] |129| 
    1392 00001c 0ECF          MOVA      r14,r15               ; [] |129| 
    1393 00001e F30B          AND.W     #0,r11                ; [] |129| 
    1394 000020 F23F          AND.W     #8,r15                ; [] |129| 
    1395 000022 930F          TST.W     r15                   ; [] |129| 
    1396 000024 2002          JNE       $C$L7                 ; [] |129| 
    1397                                                      ; [] |129| 
    1398            ;* --------------------------------------------------------------------------*
    1399 000026 930B          TST.W     r11                   ; [] |129| 
    1400 000028 2405          JEQ       $C$L8                 ; [] |129| 
    1401                                                      ; [] |129| 
    1402            ;* --------------------------------------------------------------------------*
    1403 00002a       $C$L7:    
    1404                    .dwpsn  file "../MP430DriverLib/driverlib/MSP430F5xx_6xx/adc12_a.c",line 130,column 9,is_stmt,
    1405 00002a C2BC          BIC.W     #8,0(r12)             ; [] |130| 
         00002c 0000 
    1406                    .dwpsn  file "../MP430DriverLib/driverlib/MSP430F5xx_6xx/adc12_a.c",line 131,column 9,is_stmt,
    1407 00002e F33D          AND.W     #65535,r13            ; [] |131| 
    1408 000030 F03E          AND.W     #65527,r14            ; [] |131| 
         000032 FFF7 
    1409            ;* --------------------------------------------------------------------------*
    1410 000034       $C$L8:    
    1411                    .dwpsn  file "../MP430DriverLib/driverlib/MSP430F5xx_6xx/adc12_a.c",line 134,column 5,is_stmt,
    1412 000034 503C          ADD.W     #12,r12               ; [] |134| 
         000036 000C 
    1413 000038 4C0F          MOV.W     r12,r15               ; [] |134| 
    1414 00003a CD8F          BIC.W     r13,0(r15)            ; [] |134| 
         00003c 0000 
    1415                    .dwpsn  file "../MP430DriverLib/driverlib/MSP430F5xx_6xx/adc12_a.c",line 135,column 1,is_stmt,
    1416            $C$DW$97        .dwtag  DW_TAG_TI_branch
    1417                    .dwattr $C$DW$97, DW_AT_low_pc(0x00)
    1418                    .dwattr $C$DW$97, DW_AT_TI_return
    1419            
    1420 00003e 0110          RETA      ; [] 
    1421                    ; [] 
    1422                    .dwattr $C$DW$92, DW_AT_TI_end_file("../MP430DriverLib/driverlib/MSP430F5xx_6xx/adc12_a.c")
    1423                    .dwattr $C$DW$92, DW_AT_TI_end_line(0x87)
    1424                    .dwattr $C$DW$92, DW_AT_TI_end_column(0x01)
    1425                    .dwendentry
    1426                    .dwendtag $C$DW$92
    1427            
    1428 000000               .sect   ".text:ADC12_A_disableConversions"
MSP430 Assembler PC v21.6.1 Tue Dec 20 13:45:43 2022

Copyright (c) 2003-2018 Texas Instruments Incorporated
adc12_a.asm                                                          PAGE   28

    1429                    .clink
    1430                    .global ADC12_A_disableConversions
    1431            
    1432            $C$DW$98        .dwtag  DW_TAG_subprogram
    1433                    .dwattr $C$DW$98, DW_AT_name("ADC12_A_disableConversions")
    1434                    .dwattr $C$DW$98, DW_AT_low_pc(ADC12_A_disableConversions)
    1435                    .dwattr $C$DW$98, DW_AT_high_pc(0x00)
    1436                    .dwattr $C$DW$98, DW_AT_TI_symbol_name("ADC12_A_disableConversions")
    1437                    .dwattr $C$DW$98, DW_AT_external
    1438                    .dwattr $C$DW$98, DW_AT_TI_begin_file("../MP430DriverLib/driverlib/MSP430F5xx_6xx/adc12_a.c")
    1439                    .dwattr $C$DW$98, DW_AT_TI_begin_line(0xa4)
    1440                    .dwattr $C$DW$98, DW_AT_TI_begin_column(0x06)
    1441                    .dwattr $C$DW$98, DW_AT_decl_file("../MP430DriverLib/driverlib/MSP430F5xx_6xx/adc12_a.c")
    1442                    .dwattr $C$DW$98, DW_AT_decl_line(0xa4)
    1443                    .dwattr $C$DW$98, DW_AT_decl_column(0x06)
    1444                    .dwattr $C$DW$98, DW_AT_TI_max_frame_size(0x04)
    1445                    .dwpsn  file "../MP430DriverLib/driverlib/MSP430F5xx_6xx/adc12_a.c",line 165,column 1,is_stmt,
    1446            
    1447                    .dwfde $C$DW$CIE, ADC12_A_disableConversions
    1448            $C$DW$99        .dwtag  DW_TAG_formal_parameter
    1449                    .dwattr $C$DW$99, DW_AT_name("baseAddress")
    1450                    .dwattr $C$DW$99, DW_AT_TI_symbol_name("baseAddress")
    1451                    .dwattr $C$DW$99, DW_AT_type(*$C$DW$T$30)
    1452                    .dwattr $C$DW$99, DW_AT_location[DW_OP_reg12]
    1453            
    1454            $C$DW$100       .dwtag  DW_TAG_formal_parameter
    1455                    .dwattr $C$DW$100, DW_AT_name("preempt")
    1456                    .dwattr $C$DW$100, DW_AT_TI_symbol_name("preempt")
    1457                    .dwattr $C$DW$100, DW_AT_type(*$C$DW$T$39)
    1458                    .dwattr $C$DW$100, DW_AT_location[DW_OP_reg13]
    1459            
    1460            
    1461            ;*****************************************************************************
    1462            ;* FUNCTION NAME: ADC12_A_disableConversions                                 *
    1463            ;*                                                                           *
    1464            ;*   Regs Modified     : SP,SR,r12,r14,r15                                   *
    1465            ;*   Regs Used         : SP,SR,r12,r13,r14,r15                               *
    1466            ;*   Local Frame Size  : 0 Args + 0 Auto + 0 Save = 0 byte                   *
    1467            ;*****************************************************************************
    1468 000000       ADC12_A_disableConversions:
    1469            ;* --------------------------------------------------------------------------*
    1470                    .dwcfi  cfa_offset, 4
    1471                    .dwcfi  save_reg_to_mem, 16, -4
    1472            ;* r15   assigned to baseAddress
    1473            $C$DW$101       .dwtag  DW_TAG_variable
    1474                    .dwattr $C$DW$101, DW_AT_name("baseAddress")
    1475                    .dwattr $C$DW$101, DW_AT_TI_symbol_name("baseAddress")
    1476                    .dwattr $C$DW$101, DW_AT_type(*$C$DW$T$30)
    1477                    .dwattr $C$DW$101, DW_AT_location[DW_OP_reg15]
    1478            
    1479            ;* r13   assigned to preempt
    1480            $C$DW$102       .dwtag  DW_TAG_variable
    1481                    .dwattr $C$DW$102, DW_AT_name("preempt")
    1482                    .dwattr $C$DW$102, DW_AT_TI_symbol_name("preempt")
    1483                    .dwattr $C$DW$102, DW_AT_type(*$C$DW$T$39)
MSP430 Assembler PC v21.6.1 Tue Dec 20 13:45:43 2022

Copyright (c) 2003-2018 Texas Instruments Incorporated
adc12_a.asm                                                          PAGE   29

    1484                    .dwattr $C$DW$102, DW_AT_location[DW_OP_reg13]
    1485            
    1486 000000 0CCF          MOVA      r12,r15               ; [] |165| 
    1487                    .dwpsn  file "../MP430DriverLib/driverlib/MSP430F5xx_6xx/adc12_a.c",line 166,column 5,is_stmt,
    1488 000002 935D          CMP.B     #1,r13                ; [] |166| 
    1489 000004 2409          JEQ       $C$L10                ; [] |166| 
    1490                                                      ; [] |166| 
    1491            ;* --------------------------------------------------------------------------*
    1492                    .dwpsn  file "../MP430DriverLib/driverlib/MSP430F5xx_6xx/adc12_a.c",line 170,column 10,is_stmt
    1493 000006 0FCE          MOVA      r15,r14               ; [] |170| 
    1494 000008 532E          ADD.W     #2,r14                ; [] |170| 
    1495 00000a 4E6E          MOV.B     @r14,r14              ; [] |170| 
    1496            ;* --------------------------------------------------------------------------*
    1497            ;*   BEGIN LOOP $C$L9
    1498            ;*
    1499            ;*   Loop source line                : 173
    1500            ;*   Loop closing brace source line  : 173
    1501            ;*   Known Minimum Trip Count        : 1
    1502            ;*   Known Maximum Trip Count        : 4294967295
    1503            ;*   Known Max Trip Count Factor     : 1
    1504            ;* --------------------------------------------------------------------------*
    1505 00000c       $C$L9:    
    1506                    .dwpsn  file "../MP430DriverLib/driverlib/MSP430F5xx_6xx/adc12_a.c",line 173,column 9,is_stmt,
    1507 00000c 0FCC          MOVA      r15,r12               ; [] |173| 
    1508            $C$DW$103       .dwtag  DW_TAG_TI_branch
    1509                    .dwattr $C$DW$103, DW_AT_low_pc(0x00)
    1510                    .dwattr $C$DW$103, DW_AT_name("ADC12_A_isBusy")
    1511                    .dwattr $C$DW$103, DW_AT_TI_call
    1512            
    1513 00000e 13B0!         CALLA     #ADC12_A_isBusy       ; [] |173| 
         000010 0000 
    1514                                                      ; [] |173| 
    1515 000012 930C          TST.W     r12                   ; [] |173| 
    1516 000014 23FB          JNE       $C$L9                 ; [] |173| 
    1517                                                      ; [] |173| 
    1518            ;* --------------------------------------------------------------------------*
    1519 000016 3C06          JMP       $C$L11                ; [] |173| 
    1520                                                      ; [] |173| 
    1521            ;* --------------------------------------------------------------------------*
    1522 000018       $C$L10:    
    1523                    .dwpsn  file "../MP430DriverLib/driverlib/MSP430F5xx_6xx/adc12_a.c",line 167,column 9,is_stmt,
    1524 000018 0FCE          MOVA      r15,r14               ; [] |167| 
    1525 00001a 532E          ADD.W     #2,r14                ; [] |167| 
    1526 00001c 4E0E          MOV.W     r14,r14               ; [] |167| 
    1527 00001e F0FE          AND.B     #249,0(r14)           ; [] |167| 
         000020 00F9 
         000022 0000 
    1528            ;* --------------------------------------------------------------------------*
    1529 000024       $C$L11:    
    1530                    .dwpsn  file "../MP430DriverLib/driverlib/MSP430F5xx_6xx/adc12_a.c",line 176,column 5,is_stmt,
    1531 000024 C3EF          BIC.B     #2,0(r15)             ; [] |176| 
         000026 0000 
    1532                    .dwpsn  file "../MP430DriverLib/driverlib/MSP430F5xx_6xx/adc12_a.c",line 177,column 1,is_stmt,
    1533            $C$DW$104       .dwtag  DW_TAG_TI_branch
    1534                    .dwattr $C$DW$104, DW_AT_low_pc(0x00)
MSP430 Assembler PC v21.6.1 Tue Dec 20 13:45:43 2022

Copyright (c) 2003-2018 Texas Instruments Incorporated
adc12_a.asm                                                          PAGE   30

    1535                    .dwattr $C$DW$104, DW_AT_TI_return
    1536            
    1537 000028 0110          RETA      ; [] 
    1538                    ; [] 
    1539                    .dwattr $C$DW$98, DW_AT_TI_end_file("../MP430DriverLib/driverlib/MSP430F5xx_6xx/adc12_a.c")
    1540                    .dwattr $C$DW$98, DW_AT_TI_end_line(0xb1)
    1541                    .dwattr $C$DW$98, DW_AT_TI_end_column(0x01)
    1542                    .dwendentry
    1543                    .dwendtag $C$DW$98
    1544            
    1545 000000               .sect   ".text:ADC12_A_disable"
    1546                    .clink
    1547                    .global ADC12_A_disable
    1548            
    1549            $C$DW$105       .dwtag  DW_TAG_subprogram
    1550                    .dwattr $C$DW$105, DW_AT_name("ADC12_A_disable")
    1551                    .dwattr $C$DW$105, DW_AT_low_pc(ADC12_A_disable)
    1552                    .dwattr $C$DW$105, DW_AT_high_pc(0x00)
    1553                    .dwattr $C$DW$105, DW_AT_TI_symbol_name("ADC12_A_disable")
    1554                    .dwattr $C$DW$105, DW_AT_external
    1555                    .dwattr $C$DW$105, DW_AT_TI_begin_file("../MP430DriverLib/driverlib/MSP430F5xx_6xx/adc12_a.c")
    1556                    .dwattr $C$DW$105, DW_AT_TI_begin_line(0x39)
    1557                    .dwattr $C$DW$105, DW_AT_TI_begin_column(0x06)
    1558                    .dwattr $C$DW$105, DW_AT_decl_file("../MP430DriverLib/driverlib/MSP430F5xx_6xx/adc12_a.c")
    1559                    .dwattr $C$DW$105, DW_AT_decl_line(0x39)
    1560                    .dwattr $C$DW$105, DW_AT_decl_column(0x06)
    1561                    .dwattr $C$DW$105, DW_AT_TI_max_frame_size(0x04)
    1562                    .dwpsn  file "../MP430DriverLib/driverlib/MSP430F5xx_6xx/adc12_a.c",line 58,column 1,is_stmt,a
    1563            
    1564                    .dwfde $C$DW$CIE, ADC12_A_disable
    1565            $C$DW$106       .dwtag  DW_TAG_formal_parameter
    1566                    .dwattr $C$DW$106, DW_AT_name("baseAddress")
    1567                    .dwattr $C$DW$106, DW_AT_TI_symbol_name("baseAddress")
    1568                    .dwattr $C$DW$106, DW_AT_type(*$C$DW$T$30)
    1569                    .dwattr $C$DW$106, DW_AT_location[DW_OP_reg12]
    1570            
    1571            
    1572            ;*****************************************************************************
    1573            ;* FUNCTION NAME: ADC12_A_disable                                            *
    1574            ;*                                                                           *
    1575            ;*   Regs Modified     : SP,SR                                               *
    1576            ;*   Regs Used         : SP,SR,r12                                           *
    1577            ;*   Local Frame Size  : 0 Args + 0 Auto + 0 Save = 0 byte                   *
    1578            ;*****************************************************************************
    1579 000000       ADC12_A_disable:
    1580            ;* --------------------------------------------------------------------------*
    1581                    .dwcfi  cfa_offset, 4
    1582                    .dwcfi  save_reg_to_mem, 16, -4
    1583            ;* r12   assigned to baseAddress
    1584            $C$DW$107       .dwtag  DW_TAG_variable
    1585                    .dwattr $C$DW$107, DW_AT_name("baseAddress")
    1586                    .dwattr $C$DW$107, DW_AT_TI_symbol_name("baseAddress")
    1587                    .dwattr $C$DW$107, DW_AT_type(*$C$DW$T$30)
    1588                    .dwattr $C$DW$107, DW_AT_location[DW_OP_reg12]
    1589            
MSP430 Assembler PC v21.6.1 Tue Dec 20 13:45:43 2022

Copyright (c) 2003-2018 Texas Instruments Incorporated
adc12_a.asm                                                          PAGE   31

    1590                    .dwpsn  file "../MP430DriverLib/driverlib/MSP430F5xx_6xx/adc12_a.c",line 60,column 5,is_stmt,i
    1591 000000 F0FC          AND.B     #239,0(r12)           ; [] |60| 
         000002 00EF 
         000004 0000 
    1592                    .dwpsn  file "../MP430DriverLib/driverlib/MSP430F5xx_6xx/adc12_a.c",line 61,column 1,is_stmt,i
    1593            $C$DW$108       .dwtag  DW_TAG_TI_branch
    1594                    .dwattr $C$DW$108, DW_AT_low_pc(0x00)
    1595                    .dwattr $C$DW$108, DW_AT_TI_return
    1596            
    1597 000006 0110          RETA      ; [] 
    1598                    ; [] 
    1599                    .dwattr $C$DW$105, DW_AT_TI_end_file("../MP430DriverLib/driverlib/MSP430F5xx_6xx/adc12_a.c")
    1600                    .dwattr $C$DW$105, DW_AT_TI_end_line(0x3d)
    1601                    .dwattr $C$DW$105, DW_AT_TI_end_column(0x01)
    1602                    .dwendentry
    1603                    .dwendtag $C$DW$105
    1604            
    1605 000000               .sect   ".text:ADC12_A_configureMemory"
    1606                    .clink
    1607                    .global ADC12_A_configureMemory
    1608            
    1609            $C$DW$109       .dwtag  DW_TAG_subprogram
    1610                    .dwattr $C$DW$109, DW_AT_name("ADC12_A_configureMemory")
    1611                    .dwattr $C$DW$109, DW_AT_low_pc(ADC12_A_configureMemory)
    1612                    .dwattr $C$DW$109, DW_AT_high_pc(0x00)
    1613                    .dwattr $C$DW$109, DW_AT_TI_symbol_name("ADC12_A_configureMemory")
    1614                    .dwattr $C$DW$109, DW_AT_external
    1615                    .dwattr $C$DW$109, DW_AT_TI_begin_file("../MP430DriverLib/driverlib/MSP430F5xx_6xx/adc12_a.c")
    1616                    .dwattr $C$DW$109, DW_AT_TI_begin_line(0x57)
    1617                    .dwattr $C$DW$109, DW_AT_TI_begin_column(0x06)
    1618                    .dwattr $C$DW$109, DW_AT_decl_file("../MP430DriverLib/driverlib/MSP430F5xx_6xx/adc12_a.c")
    1619                    .dwattr $C$DW$109, DW_AT_decl_line(0x57)
    1620                    .dwattr $C$DW$109, DW_AT_decl_column(0x06)
    1621                    .dwattr $C$DW$109, DW_AT_TI_max_frame_size(0x04)
    1622                    .dwpsn  file "../MP430DriverLib/driverlib/MSP430F5xx_6xx/adc12_a.c",line 89,column 1,is_stmt,a
    1623            
    1624                    .dwfde $C$DW$CIE, ADC12_A_configureMemory
    1625            $C$DW$110       .dwtag  DW_TAG_formal_parameter
    1626                    .dwattr $C$DW$110, DW_AT_name("baseAddress")
    1627                    .dwattr $C$DW$110, DW_AT_TI_symbol_name("baseAddress")
    1628                    .dwattr $C$DW$110, DW_AT_type(*$C$DW$T$30)
    1629                    .dwattr $C$DW$110, DW_AT_location[DW_OP_reg12]
    1630            
    1631            $C$DW$111       .dwtag  DW_TAG_formal_parameter
    1632                    .dwattr $C$DW$111, DW_AT_name("param")
    1633                    .dwattr $C$DW$111, DW_AT_TI_symbol_name("param")
    1634                    .dwattr $C$DW$111, DW_AT_type(*$C$DW$T$27)
    1635                    .dwattr $C$DW$111, DW_AT_location[DW_OP_reg13]
    1636            
    1637            
    1638            ;*****************************************************************************
    1639            ;* FUNCTION NAME: ADC12_A_configureMemory                                    *
    1640            ;*                                                                           *
    1641            ;*   Regs Modified     : SP,SR,r12,r14,r15                                   *
    1642            ;*   Regs Used         : SP,SR,r12,r13,r14,r15                               *
MSP430 Assembler PC v21.6.1 Tue Dec 20 13:45:43 2022

Copyright (c) 2003-2018 Texas Instruments Incorporated
adc12_a.asm                                                          PAGE   32

    1643            ;*   Local Frame Size  : 0 Args + 0 Auto + 0 Save = 0 byte                   *
    1644            ;*****************************************************************************
    1645 000000       ADC12_A_configureMemory:
    1646            ;* --------------------------------------------------------------------------*
    1647                    .dwcfi  cfa_offset, 4
    1648                    .dwcfi  save_reg_to_mem, 16, -4
    1649            ;* r15   assigned to baseAddress
    1650            $C$DW$112       .dwtag  DW_TAG_variable
    1651                    .dwattr $C$DW$112, DW_AT_name("baseAddress")
    1652                    .dwattr $C$DW$112, DW_AT_TI_symbol_name("baseAddress")
    1653                    .dwattr $C$DW$112, DW_AT_type(*$C$DW$T$30)
    1654                    .dwattr $C$DW$112, DW_AT_location[DW_OP_reg15]
    1655            
    1656            ;* r13   assigned to param
    1657            $C$DW$113       .dwtag  DW_TAG_variable
    1658                    .dwattr $C$DW$113, DW_AT_name("param")
    1659                    .dwattr $C$DW$113, DW_AT_TI_symbol_name("param")
    1660                    .dwattr $C$DW$113, DW_AT_type(*$C$DW$T$27)
    1661                    .dwattr $C$DW$113, DW_AT_location[DW_OP_reg13]
    1662            
    1663 000000 0CCF          MOVA      r12,r15               ; [] |89| 
    1664                    .dwpsn  file "../MP430DriverLib/driverlib/MSP430F5xx_6xx/adc12_a.c",line 93,column 5,is_stmt,i
    1665 000002 432E          MOV.W     #2,r14                ; [] |93| 
    1666 000004 BF2E          BIT.W     @r15,r14              ; [] |93| 
    1667 000006 200E          JNE       $C$L12                ; [] |93| 
    1668                                                      ; [] |93| 
    1669            ;* --------------------------------------------------------------------------*
    1670                    .dwpsn  file "../MP430DriverLib/driverlib/MSP430F5xx_6xx/adc12_a.c",line 96,column 44,is_stmt,
    1671 000008 4D6C          MOV.B     @r13,r12              ; [] |96| 
    1672 00000a 503C          ADD.W     #16,r12               ; [] |96| 
         00000c 0010 
    1673                    .dwpsn  file "../MP430DriverLib/driverlib/MSP430F5xx_6xx/adc12_a.c",line 100,column 9,is_stmt,
    1674 00000e 4D5E          MOV.B     2(r13),r14            ; [] |100| 
         000010 0002 
    1675 000012 5D5E          ADD.B     1(r13),r14            ; [] |100| 
         000014 0001 
    1676 000016 5D5E          ADD.B     3(r13),r14            ; [] |100| 
         000018 0003 
    1677 00001a 5D5E          ADD.B     4(r13),r14            ; [] |100| 
         00001c 0004 
    1678 00001e 5F0C          ADD.W     r15,r12               ; [] |100| 
    1679 000020 4ECC          MOV.B     r14,0(r12)            ; [] |100| 
         000022 0000 
    1680            ;* --------------------------------------------------------------------------*
    1681 000024       $C$L12:    
    1682                    .dwpsn  file "../MP430DriverLib/driverlib/MSP430F5xx_6xx/adc12_a.c",line 106,column 1,is_stmt,
    1683            $C$DW$114       .dwtag  DW_TAG_TI_branch
    1684                    .dwattr $C$DW$114, DW_AT_low_pc(0x00)
    1685                    .dwattr $C$DW$114, DW_AT_TI_return
    1686            
    1687 000024 0110          RETA      ; [] 
    1688                    ; [] 
    1689                    .dwattr $C$DW$109, DW_AT_TI_end_file("../MP430DriverLib/driverlib/MSP430F5xx_6xx/adc12_a.c")
    1690                    .dwattr $C$DW$109, DW_AT_TI_end_line(0x6a)
    1691                    .dwattr $C$DW$109, DW_AT_TI_end_column(0x01)
MSP430 Assembler PC v21.6.1 Tue Dec 20 13:45:43 2022

Copyright (c) 2003-2018 Texas Instruments Incorporated
adc12_a.asm                                                          PAGE   33

    1692                    .dwendentry
    1693                    .dwendtag $C$DW$109
    1694            
    1695 000000               .sect   ".text:ADC12_A_clearInterrupt"
    1696                    .clink
    1697                    .global ADC12_A_clearInterrupt
    1698            
    1699            $C$DW$115       .dwtag  DW_TAG_subprogram
    1700                    .dwattr $C$DW$115, DW_AT_name("ADC12_A_clearInterrupt")
    1701                    .dwattr $C$DW$115, DW_AT_low_pc(ADC12_A_clearInterrupt)
    1702                    .dwattr $C$DW$115, DW_AT_high_pc(0x00)
    1703                    .dwattr $C$DW$115, DW_AT_TI_symbol_name("ADC12_A_clearInterrupt")
    1704                    .dwattr $C$DW$115, DW_AT_external
    1705                    .dwattr $C$DW$115, DW_AT_TI_begin_file("../MP430DriverLib/driverlib/MSP430F5xx_6xx/adc12_a.c")
    1706                    .dwattr $C$DW$115, DW_AT_TI_begin_line(0x89)
    1707                    .dwattr $C$DW$115, DW_AT_TI_begin_column(0x06)
    1708                    .dwattr $C$DW$115, DW_AT_decl_file("../MP430DriverLib/driverlib/MSP430F5xx_6xx/adc12_a.c")
    1709                    .dwattr $C$DW$115, DW_AT_decl_line(0x89)
    1710                    .dwattr $C$DW$115, DW_AT_decl_column(0x06)
    1711                    .dwattr $C$DW$115, DW_AT_TI_max_frame_size(0x04)
    1712                    .dwpsn  file "../MP430DriverLib/driverlib/MSP430F5xx_6xx/adc12_a.c",line 139,column 1,is_stmt,
    1713            
    1714                    .dwfde $C$DW$CIE, ADC12_A_clearInterrupt
    1715            $C$DW$116       .dwtag  DW_TAG_formal_parameter
    1716                    .dwattr $C$DW$116, DW_AT_name("baseAddress")
    1717                    .dwattr $C$DW$116, DW_AT_TI_symbol_name("baseAddress")
    1718                    .dwattr $C$DW$116, DW_AT_type(*$C$DW$T$30)
    1719                    .dwattr $C$DW$116, DW_AT_location[DW_OP_reg12]
    1720            
    1721            $C$DW$117       .dwtag  DW_TAG_formal_parameter
    1722                    .dwattr $C$DW$117, DW_AT_name("memoryInterruptFlagMask")
    1723                    .dwattr $C$DW$117, DW_AT_TI_symbol_name("memoryInterruptFlagMask")
    1724                    .dwattr $C$DW$117, DW_AT_type(*$C$DW$T$30)
    1725                    .dwattr $C$DW$117, DW_AT_location[DW_OP_reg13]
    1726            
    1727            
    1728            ;*****************************************************************************
    1729            ;* FUNCTION NAME: ADC12_A_clearInterrupt                                     *
    1730            ;*                                                                           *
    1731            ;*   Regs Modified     : SP,SR,r12,r15                                       *
    1732            ;*   Regs Used         : SP,SR,r12,r13,r15                                   *
    1733            ;*   Local Frame Size  : 0 Args + 0 Auto + 0 Save = 0 byte                   *
    1734            ;*****************************************************************************
    1735 000000       ADC12_A_clearInterrupt:
    1736            ;* --------------------------------------------------------------------------*
    1737                    .dwcfi  cfa_offset, 4
    1738                    .dwcfi  save_reg_to_mem, 16, -4
    1739            ;* r13   assigned to memoryInterruptFlagMask
    1740            $C$DW$118       .dwtag  DW_TAG_variable
    1741                    .dwattr $C$DW$118, DW_AT_name("memoryInterruptFlagMask")
    1742                    .dwattr $C$DW$118, DW_AT_TI_symbol_name("memoryInterruptFlagMask")
    1743                    .dwattr $C$DW$118, DW_AT_type(*$C$DW$T$30)
    1744                    .dwattr $C$DW$118, DW_AT_location[DW_OP_reg13]
    1745            
    1746                    .dwpsn  file "../MP430DriverLib/driverlib/MSP430F5xx_6xx/adc12_a.c",line 140,column 5,is_stmt,
MSP430 Assembler PC v21.6.1 Tue Dec 20 13:45:43 2022

Copyright (c) 2003-2018 Texas Instruments Incorporated
adc12_a.asm                                                          PAGE   34

    1747 000000 503C          ADD.W     #10,r12               ; [] |140| 
         000002 000A 
    1748 000004 4C0F          MOV.W     r12,r15               ; [] |140| 
    1749 000006 CD8F          BIC.W     r13,0(r15)            ; [] |140| 
         000008 0000 
    1750                    .dwpsn  file "../MP430DriverLib/driverlib/MSP430F5xx_6xx/adc12_a.c",line 141,column 1,is_stmt,
    1751            $C$DW$119       .dwtag  DW_TAG_TI_branch
    1752                    .dwattr $C$DW$119, DW_AT_low_pc(0x00)
    1753                    .dwattr $C$DW$119, DW_AT_TI_return
    1754            
    1755 00000a 0110          RETA      ; [] 
    1756                    ; [] 
    1757                    .dwattr $C$DW$115, DW_AT_TI_end_file("../MP430DriverLib/driverlib/MSP430F5xx_6xx/adc12_a.c")
    1758                    .dwattr $C$DW$115, DW_AT_TI_end_line(0x8d)
    1759                    .dwattr $C$DW$115, DW_AT_TI_end_column(0x01)
    1760                    .dwendentry
    1761                    .dwendtag $C$DW$115
    1762            
    1763            
    1764            ;******************************************************************************
    1765            ;* BUILD ATTRIBUTES                                                           *
    1766            ;******************************************************************************
    1767                    .battr "TI", Tag_File, 1, Tag_LPM_INFO(1)
    1768                    .battr "TI", Tag_File, 1, Tag_PORTS_INIT_INFO("012345678901ABCDEFGHIJ0000000000001111110000000
    1769                    .battr "TI", Tag_File, 1, Tag_LEA_INFO(1)
    1770                    .battr "TI", Tag_File, 1, Tag_HW_MPY32_INFO(2)
    1771                    .battr "TI", Tag_File, 1, Tag_HW_MPY_ISR_INFO(1)
    1772                    .battr "TI", Tag_File, 1, Tag_HW_MPY_INLINE_INFO(1)
    1773                    .battr "mspabi", Tag_File, 1, Tag_enum_size(3)
    1774            
    1775            ;******************************************************************************
    1776            ;* TYPE INFORMATION                                                           *
    1777            ;******************************************************************************
    1778            
    1779            $C$DW$T$21      .dwtag  DW_TAG_structure_type
    1780                    .dwattr $C$DW$T$21, DW_AT_byte_size(0x10)
    1781            $C$DW$120       .dwtag  DW_TAG_member
    1782                    .dwattr $C$DW$120, DW_AT_type(*$C$DW$T$14)
    1783                    .dwattr $C$DW$120, DW_AT_name("__max_align1")
    1784                    .dwattr $C$DW$120, DW_AT_TI_symbol_name("__max_align1")
    1785                    .dwattr $C$DW$120, DW_AT_data_member_location[DW_OP_plus_uconst 0x0]
    1786                    .dwattr $C$DW$120, DW_AT_accessibility(DW_ACCESS_public)
    1787                    .dwattr $C$DW$120, DW_AT_decl_file("C:/ti/ccs1110/ccs/tools/compiler/ti-cgt-msp430_21.6.1.LTS/
    1788                    .dwattr $C$DW$120, DW_AT_decl_line(0x7b)
    1789                    .dwattr $C$DW$120, DW_AT_decl_column(0x0c)
    1790            
    1791            $C$DW$121       .dwtag  DW_TAG_member
    1792                    .dwattr $C$DW$121, DW_AT_type(*$C$DW$T$18)
    1793                    .dwattr $C$DW$121, DW_AT_name("__max_align2")
    1794                    .dwattr $C$DW$121, DW_AT_TI_symbol_name("__max_align2")
    1795                    .dwattr $C$DW$121, DW_AT_data_member_location[DW_OP_plus_uconst 0x8]
    1796                    .dwattr $C$DW$121, DW_AT_accessibility(DW_ACCESS_public)
    1797                    .dwattr $C$DW$121, DW_AT_decl_file("C:/ti/ccs1110/ccs/tools/compiler/ti-cgt-msp430_21.6.1.LTS/
    1798                    .dwattr $C$DW$121, DW_AT_decl_line(0x7c)
    1799                    .dwattr $C$DW$121, DW_AT_decl_column(0x0e)
MSP430 Assembler PC v21.6.1 Tue Dec 20 13:45:43 2022

Copyright (c) 2003-2018 Texas Instruments Incorporated
adc12_a.asm                                                          PAGE   35

    1800            
    1801                    .dwattr $C$DW$T$21, DW_AT_decl_file("C:/ti/ccs1110/ccs/tools/compiler/ti-cgt-msp430_21.6.1.LTS
    1802                    .dwattr $C$DW$T$21, DW_AT_decl_line(0x7a)
    1803                    .dwattr $C$DW$T$21, DW_AT_decl_column(0x10)
    1804                    .dwendtag $C$DW$T$21
    1805            
    1806            $C$DW$T$25      .dwtag  DW_TAG_typedef
    1807                    .dwattr $C$DW$T$25, DW_AT_name("__max_align_t")
    1808                    .dwattr $C$DW$T$25, DW_AT_type(*$C$DW$T$21)
    1809                    .dwattr $C$DW$T$25, DW_AT_language(DW_LANG_C)
    1810                    .dwattr $C$DW$T$25, DW_AT_decl_file("C:/ti/ccs1110/ccs/tools/compiler/ti-cgt-msp430_21.6.1.LTS
    1811                    .dwattr $C$DW$T$25, DW_AT_decl_line(0x7d)
    1812                    .dwattr $C$DW$T$25, DW_AT_decl_column(0x03)
    1813            
    1814            
    1815            $C$DW$T$24      .dwtag  DW_TAG_structure_type
    1816                    .dwattr $C$DW$T$24, DW_AT_name("ADC12_A_configureMemoryParam")
    1817                    .dwattr $C$DW$T$24, DW_AT_byte_size(0x05)
    1818            $C$DW$122       .dwtag  DW_TAG_member
    1819                    .dwattr $C$DW$122, DW_AT_type(*$C$DW$T$23)
    1820                    .dwattr $C$DW$122, DW_AT_name("memoryBufferControlIndex")
    1821                    .dwattr $C$DW$122, DW_AT_TI_symbol_name("memoryBufferControlIndex")
    1822                    .dwattr $C$DW$122, DW_AT_data_member_location[DW_OP_plus_uconst 0x0]
    1823                    .dwattr $C$DW$122, DW_AT_accessibility(DW_ACCESS_public)
    1824                    .dwattr $C$DW$122, DW_AT_decl_file("..\MP430DriverLib\driverlib\MSP430F5xx_6xx\adc12_a.h")
    1825                    .dwattr $C$DW$122, DW_AT_decl_line(0x33)
    1826                    .dwattr $C$DW$122, DW_AT_decl_column(0x0d)
    1827            
    1828            $C$DW$123       .dwtag  DW_TAG_member
    1829                    .dwattr $C$DW$123, DW_AT_type(*$C$DW$T$23)
    1830                    .dwattr $C$DW$123, DW_AT_name("inputSourceSelect")
    1831                    .dwattr $C$DW$123, DW_AT_TI_symbol_name("inputSourceSelect")
    1832                    .dwattr $C$DW$123, DW_AT_data_member_location[DW_OP_plus_uconst 0x1]
    1833                    .dwattr $C$DW$123, DW_AT_accessibility(DW_ACCESS_public)
    1834                    .dwattr $C$DW$123, DW_AT_decl_file("..\MP430DriverLib\driverlib\MSP430F5xx_6xx\adc12_a.h")
    1835                    .dwattr $C$DW$123, DW_AT_decl_line(0x47)
    1836                    .dwattr $C$DW$123, DW_AT_decl_column(0x0d)
    1837            
    1838            $C$DW$124       .dwtag  DW_TAG_member
    1839                    .dwattr $C$DW$124, DW_AT_type(*$C$DW$T$23)
    1840                    .dwattr $C$DW$124, DW_AT_name("positiveRefVoltageSourceSelect")
    1841                    .dwattr $C$DW$124, DW_AT_TI_symbol_name("positiveRefVoltageSourceSelect")
    1842                    .dwattr $C$DW$124, DW_AT_data_member_location[DW_OP_plus_uconst 0x2]
    1843                    .dwattr $C$DW$124, DW_AT_accessibility(DW_ACCESS_public)
    1844                    .dwattr $C$DW$124, DW_AT_decl_file("..\MP430DriverLib\driverlib\MSP430F5xx_6xx\adc12_a.h")
    1845                    .dwattr $C$DW$124, DW_AT_decl_line(0x4e)
    1846                    .dwattr $C$DW$124, DW_AT_decl_column(0x0d)
    1847            
    1848            $C$DW$125       .dwtag  DW_TAG_member
    1849                    .dwattr $C$DW$125, DW_AT_type(*$C$DW$T$23)
    1850                    .dwattr $C$DW$125, DW_AT_name("negativeRefVoltageSourceSelect")
    1851                    .dwattr $C$DW$125, DW_AT_TI_symbol_name("negativeRefVoltageSourceSelect")
    1852                    .dwattr $C$DW$125, DW_AT_data_member_location[DW_OP_plus_uconst 0x3]
    1853                    .dwattr $C$DW$125, DW_AT_accessibility(DW_ACCESS_public)
    1854                    .dwattr $C$DW$125, DW_AT_decl_file("..\MP430DriverLib\driverlib\MSP430F5xx_6xx\adc12_a.h")
MSP430 Assembler PC v21.6.1 Tue Dec 20 13:45:43 2022

Copyright (c) 2003-2018 Texas Instruments Incorporated
adc12_a.asm                                                          PAGE   36

    1855                    .dwattr $C$DW$125, DW_AT_decl_line(0x54)
    1856                    .dwattr $C$DW$125, DW_AT_decl_column(0x0d)
    1857            
    1858            $C$DW$126       .dwtag  DW_TAG_member
    1859                    .dwattr $C$DW$126, DW_AT_type(*$C$DW$T$23)
    1860                    .dwattr $C$DW$126, DW_AT_name("endOfSequence")
    1861                    .dwattr $C$DW$126, DW_AT_TI_symbol_name("endOfSequence")
    1862                    .dwattr $C$DW$126, DW_AT_data_member_location[DW_OP_plus_uconst 0x4]
    1863                    .dwattr $C$DW$126, DW_AT_accessibility(DW_ACCESS_public)
    1864                    .dwattr $C$DW$126, DW_AT_decl_file("..\MP430DriverLib\driverlib\MSP430F5xx_6xx\adc12_a.h")
    1865                    .dwattr $C$DW$126, DW_AT_decl_line(0x5d)
    1866                    .dwattr $C$DW$126, DW_AT_decl_column(0x0d)
    1867            
    1868                    .dwattr $C$DW$T$24, DW_AT_decl_file("..\MP430DriverLib\driverlib\MSP430F5xx_6xx\adc12_a.h")
    1869                    .dwattr $C$DW$T$24, DW_AT_decl_line(0x20)
    1870                    .dwattr $C$DW$T$24, DW_AT_decl_column(0x10)
    1871                    .dwendtag $C$DW$T$24
    1872            
    1873            $C$DW$T$26      .dwtag  DW_TAG_typedef
    1874                    .dwattr $C$DW$T$26, DW_AT_name("ADC12_A_configureMemoryParam")
    1875                    .dwattr $C$DW$T$26, DW_AT_type(*$C$DW$T$24)
    1876                    .dwattr $C$DW$T$26, DW_AT_language(DW_LANG_C)
    1877                    .dwattr $C$DW$T$26, DW_AT_decl_file("..\MP430DriverLib\driverlib\MSP430F5xx_6xx\adc12_a.h")
    1878                    .dwattr $C$DW$T$26, DW_AT_decl_line(0x5e)
    1879                    .dwattr $C$DW$T$26, DW_AT_decl_column(0x03)
    1880            
    1881            $C$DW$T$27      .dwtag  DW_TAG_pointer_type
    1882                    .dwattr $C$DW$T$27, DW_AT_type(*$C$DW$T$26)
    1883                    .dwattr $C$DW$T$27, DW_AT_address_class(0x14)
    1884            
    1885            $C$DW$T$2       .dwtag  DW_TAG_unspecified_type
    1886                    .dwattr $C$DW$T$2, DW_AT_name("void")
    1887            
    1888            
    1889            $C$DW$T$42      .dwtag  DW_TAG_subroutine_type
    1890                    .dwattr $C$DW$T$42, DW_AT_language(DW_LANG_C)
    1891                    .dwendtag $C$DW$T$42
    1892            
    1893            $C$DW$T$43      .dwtag  DW_TAG_pointer_type
    1894                    .dwattr $C$DW$T$43, DW_AT_type(*$C$DW$T$42)
    1895                    .dwattr $C$DW$T$43, DW_AT_address_class(0x14)
    1896            
    1897            $C$DW$T$44      .dwtag  DW_TAG_typedef
    1898                    .dwattr $C$DW$T$44, DW_AT_name("__SFR_FARPTR")
    1899                    .dwattr $C$DW$T$44, DW_AT_type(*$C$DW$T$43)
    1900                    .dwattr $C$DW$T$44, DW_AT_language(DW_LANG_C)
    1901                    .dwattr $C$DW$T$44, DW_AT_decl_file("C:\ti\ccs1110\ccs\ccs_base\msp430\include\msp430f5438a.h"
    1902                    .dwattr $C$DW$T$44, DW_AT_decl_line(0x49)
    1903                    .dwattr $C$DW$T$44, DW_AT_decl_column(0x11)
    1904            
    1905            $C$DW$T$4       .dwtag  DW_TAG_base_type
    1906                    .dwattr $C$DW$T$4, DW_AT_encoding(DW_ATE_boolean)
    1907                    .dwattr $C$DW$T$4, DW_AT_name("bool")
    1908                    .dwattr $C$DW$T$4, DW_AT_byte_size(0x01)
    1909            
MSP430 Assembler PC v21.6.1 Tue Dec 20 13:45:43 2022

Copyright (c) 2003-2018 Texas Instruments Incorporated
adc12_a.asm                                                          PAGE   37

    1910            $C$DW$T$5       .dwtag  DW_TAG_base_type
    1911                    .dwattr $C$DW$T$5, DW_AT_encoding(DW_ATE_signed_char)
    1912                    .dwattr $C$DW$T$5, DW_AT_name("signed char")
    1913                    .dwattr $C$DW$T$5, DW_AT_byte_size(0x01)
    1914            
    1915            $C$DW$T$45      .dwtag  DW_TAG_typedef
    1916                    .dwattr $C$DW$T$45, DW_AT_name("__int8_t")
    1917                    .dwattr $C$DW$T$45, DW_AT_type(*$C$DW$T$5)
    1918                    .dwattr $C$DW$T$45, DW_AT_language(DW_LANG_C)
    1919                    .dwattr $C$DW$T$45, DW_AT_decl_file("C:/ti/ccs1110/ccs/tools/compiler/ti-cgt-msp430_21.6.1.LTS
    1920                    .dwattr $C$DW$T$45, DW_AT_decl_line(0x36)
    1921                    .dwattr $C$DW$T$45, DW_AT_decl_column(0x16)
    1922            
    1923            $C$DW$T$46      .dwtag  DW_TAG_typedef
    1924                    .dwattr $C$DW$T$46, DW_AT_name("__int_least8_t")
    1925                    .dwattr $C$DW$T$46, DW_AT_type(*$C$DW$T$45)
    1926                    .dwattr $C$DW$T$46, DW_AT_language(DW_LANG_C)
    1927                    .dwattr $C$DW$T$46, DW_AT_decl_file("C:/ti/ccs1110/ccs/tools/compiler/ti-cgt-msp430_21.6.1.LTS
    1928                    .dwattr $C$DW$T$46, DW_AT_decl_line(0x5a)
    1929                    .dwattr $C$DW$T$46, DW_AT_decl_column(0x12)
    1930            
    1931            $C$DW$T$47      .dwtag  DW_TAG_typedef
    1932                    .dwattr $C$DW$T$47, DW_AT_name("int_least8_t")
    1933                    .dwattr $C$DW$T$47, DW_AT_type(*$C$DW$T$46)
    1934                    .dwattr $C$DW$T$47, DW_AT_language(DW_LANG_C)
    1935                    .dwattr $C$DW$T$47, DW_AT_decl_file("C:/ti/ccs1110/ccs/tools/compiler/ti-cgt-msp430_21.6.1.LTS
    1936                    .dwattr $C$DW$T$47, DW_AT_decl_line(0x2a)
    1937                    .dwattr $C$DW$T$47, DW_AT_decl_column(0x19)
    1938            
    1939            $C$DW$T$48      .dwtag  DW_TAG_typedef
    1940                    .dwattr $C$DW$T$48, DW_AT_name("int8_t")
    1941                    .dwattr $C$DW$T$48, DW_AT_type(*$C$DW$T$45)
    1942                    .dwattr $C$DW$T$48, DW_AT_language(DW_LANG_C)
    1943                    .dwattr $C$DW$T$48, DW_AT_decl_file("C:/ti/ccs1110/ccs/tools/compiler/ti-cgt-msp430_21.6.1.LTS
    1944                    .dwattr $C$DW$T$48, DW_AT_decl_line(0x25)
    1945                    .dwattr $C$DW$T$48, DW_AT_decl_column(0x13)
    1946            
    1947            $C$DW$T$6       .dwtag  DW_TAG_base_type
    1948                    .dwattr $C$DW$T$6, DW_AT_encoding(DW_ATE_unsigned_char)
    1949                    .dwattr $C$DW$T$6, DW_AT_name("unsigned char")
    1950                    .dwattr $C$DW$T$6, DW_AT_byte_size(0x01)
    1951            
    1952            $C$DW$T$22      .dwtag  DW_TAG_typedef
    1953                    .dwattr $C$DW$T$22, DW_AT_name("__uint8_t")
    1954                    .dwattr $C$DW$T$22, DW_AT_type(*$C$DW$T$6)
    1955                    .dwattr $C$DW$T$22, DW_AT_language(DW_LANG_C)
    1956                    .dwattr $C$DW$T$22, DW_AT_decl_file("C:/ti/ccs1110/ccs/tools/compiler/ti-cgt-msp430_21.6.1.LTS
    1957                    .dwattr $C$DW$T$22, DW_AT_decl_line(0x37)
    1958                    .dwattr $C$DW$T$22, DW_AT_decl_column(0x18)
    1959            
    1960            $C$DW$T$52      .dwtag  DW_TAG_typedef
    1961                    .dwattr $C$DW$T$52, DW_AT_name("__sa_family_t")
    1962                    .dwattr $C$DW$T$52, DW_AT_type(*$C$DW$T$22)
    1963                    .dwattr $C$DW$T$52, DW_AT_language(DW_LANG_C)
    1964                    .dwattr $C$DW$T$52, DW_AT_decl_file("C:/ti/ccs1110/ccs/tools/compiler/ti-cgt-msp430_21.6.1.LTS
MSP430 Assembler PC v21.6.1 Tue Dec 20 13:45:43 2022

Copyright (c) 2003-2018 Texas Instruments Incorporated
adc12_a.asm                                                          PAGE   38

    1965                    .dwattr $C$DW$T$52, DW_AT_decl_line(0x47)
    1966                    .dwattr $C$DW$T$52, DW_AT_decl_column(0x13)
    1967            
    1968            $C$DW$T$53      .dwtag  DW_TAG_typedef
    1969                    .dwattr $C$DW$T$53, DW_AT_name("__uint_least8_t")
    1970                    .dwattr $C$DW$T$53, DW_AT_type(*$C$DW$T$22)
    1971                    .dwattr $C$DW$T$53, DW_AT_language(DW_LANG_C)
    1972                    .dwattr $C$DW$T$53, DW_AT_decl_file("C:/ti/ccs1110/ccs/tools/compiler/ti-cgt-msp430_21.6.1.LTS
    1973                    .dwattr $C$DW$T$53, DW_AT_decl_line(0x74)
    1974                    .dwattr $C$DW$T$53, DW_AT_decl_column(0x13)
    1975            
    1976            $C$DW$T$54      .dwtag  DW_TAG_typedef
    1977                    .dwattr $C$DW$T$54, DW_AT_name("uint_least8_t")
    1978                    .dwattr $C$DW$T$54, DW_AT_type(*$C$DW$T$53)
    1979                    .dwattr $C$DW$T$54, DW_AT_language(DW_LANG_C)
    1980                    .dwattr $C$DW$T$54, DW_AT_decl_file("C:/ti/ccs1110/ccs/tools/compiler/ti-cgt-msp430_21.6.1.LTS
    1981                    .dwattr $C$DW$T$54, DW_AT_decl_line(0x2f)
    1982                    .dwattr $C$DW$T$54, DW_AT_decl_column(0x1a)
    1983            
    1984            $C$DW$T$23      .dwtag  DW_TAG_typedef
    1985                    .dwattr $C$DW$T$23, DW_AT_name("uint8_t")
    1986                    .dwattr $C$DW$T$23, DW_AT_type(*$C$DW$T$22)
    1987                    .dwattr $C$DW$T$23, DW_AT_language(DW_LANG_C)
    1988                    .dwattr $C$DW$T$23, DW_AT_decl_file("C:/ti/ccs1110/ccs/tools/compiler/ti-cgt-msp430_21.6.1.LTS
    1989                    .dwattr $C$DW$T$23, DW_AT_decl_line(0x3b)
    1990                    .dwattr $C$DW$T$23, DW_AT_decl_column(0x14)
    1991            
    1992            $C$DW$T$7       .dwtag  DW_TAG_base_type
    1993                    .dwattr $C$DW$T$7, DW_AT_encoding(DW_ATE_signed_char)
    1994                    .dwattr $C$DW$T$7, DW_AT_name("wchar_t")
    1995                    .dwattr $C$DW$T$7, DW_AT_byte_size(0x02)
    1996            
    1997            $C$DW$T$8       .dwtag  DW_TAG_base_type
    1998                    .dwattr $C$DW$T$8, DW_AT_encoding(DW_ATE_signed)
    1999                    .dwattr $C$DW$T$8, DW_AT_name("short")
    2000                    .dwattr $C$DW$T$8, DW_AT_byte_size(0x02)
    2001            
    2002            $C$DW$T$9       .dwtag  DW_TAG_base_type
    2003                    .dwattr $C$DW$T$9, DW_AT_encoding(DW_ATE_unsigned)
    2004                    .dwattr $C$DW$T$9, DW_AT_name("unsigned short")
    2005                    .dwattr $C$DW$T$9, DW_AT_byte_size(0x02)
    2006            
    2007            $C$DW$T$10      .dwtag  DW_TAG_base_type
    2008                    .dwattr $C$DW$T$10, DW_AT_encoding(DW_ATE_signed)
    2009                    .dwattr $C$DW$T$10, DW_AT_name("int")
    2010                    .dwattr $C$DW$T$10, DW_AT_byte_size(0x02)
    2011            
    2012            $C$DW$T$55      .dwtag  DW_TAG_typedef
    2013                    .dwattr $C$DW$T$55, DW_AT_name("_Mbstatet")
    2014                    .dwattr $C$DW$T$55, DW_AT_type(*$C$DW$T$10)
    2015                    .dwattr $C$DW$T$55, DW_AT_language(DW_LANG_C)
    2016                    .dwattr $C$DW$T$55, DW_AT_decl_file("C:/ti/ccs1110/ccs/tools/compiler/ti-cgt-msp430_21.6.1.LTS
    2017                    .dwattr $C$DW$T$55, DW_AT_decl_line(0x8f)
    2018                    .dwattr $C$DW$T$55, DW_AT_decl_column(0x0d)
    2019            
MSP430 Assembler PC v21.6.1 Tue Dec 20 13:45:43 2022

Copyright (c) 2003-2018 Texas Instruments Incorporated
adc12_a.asm                                                          PAGE   39

    2020            $C$DW$T$56      .dwtag  DW_TAG_typedef
    2021                    .dwattr $C$DW$T$56, DW_AT_name("__mbstate_t")
    2022                    .dwattr $C$DW$T$56, DW_AT_type(*$C$DW$T$55)
    2023                    .dwattr $C$DW$T$56, DW_AT_language(DW_LANG_C)
    2024                    .dwattr $C$DW$T$56, DW_AT_decl_file("C:/ti/ccs1110/ccs/tools/compiler/ti-cgt-msp430_21.6.1.LTS
    2025                    .dwattr $C$DW$T$56, DW_AT_decl_line(0x92)
    2026                    .dwattr $C$DW$T$56, DW_AT_decl_column(0x13)
    2027            
    2028            $C$DW$T$57      .dwtag  DW_TAG_typedef
    2029                    .dwattr $C$DW$T$57, DW_AT_name("__accmode_t")
    2030                    .dwattr $C$DW$T$57, DW_AT_type(*$C$DW$T$10)
    2031                    .dwattr $C$DW$T$57, DW_AT_language(DW_LANG_C)
    2032                    .dwattr $C$DW$T$57, DW_AT_decl_file("C:/ti/ccs1110/ccs/tools/compiler/ti-cgt-msp430_21.6.1.LTS
    2033                    .dwattr $C$DW$T$57, DW_AT_decl_line(0x3b)
    2034                    .dwattr $C$DW$T$57, DW_AT_decl_column(0x0e)
    2035            
    2036            $C$DW$T$58      .dwtag  DW_TAG_typedef
    2037                    .dwattr $C$DW$T$58, DW_AT_name("__cpulevel_t")
    2038                    .dwattr $C$DW$T$58, DW_AT_type(*$C$DW$T$10)
    2039                    .dwattr $C$DW$T$58, DW_AT_language(DW_LANG_C)
    2040                    .dwattr $C$DW$T$58, DW_AT_decl_file("C:/ti/ccs1110/ccs/tools/compiler/ti-cgt-msp430_21.6.1.LTS
    2041                    .dwattr $C$DW$T$58, DW_AT_decl_line(0x50)
    2042                    .dwattr $C$DW$T$58, DW_AT_decl_column(0x0e)
    2043            
    2044            $C$DW$T$59      .dwtag  DW_TAG_typedef
    2045                    .dwattr $C$DW$T$59, DW_AT_name("__cpusetid_t")
    2046                    .dwattr $C$DW$T$59, DW_AT_type(*$C$DW$T$10)
    2047                    .dwattr $C$DW$T$59, DW_AT_language(DW_LANG_C)
    2048                    .dwattr $C$DW$T$59, DW_AT_decl_file("C:/ti/ccs1110/ccs/tools/compiler/ti-cgt-msp430_21.6.1.LTS
    2049                    .dwattr $C$DW$T$59, DW_AT_decl_line(0x51)
    2050                    .dwattr $C$DW$T$59, DW_AT_decl_column(0x0e)
    2051            
    2052            $C$DW$T$60      .dwtag  DW_TAG_typedef
    2053                    .dwattr $C$DW$T$60, DW_AT_name("__cpuwhich_t")
    2054                    .dwattr $C$DW$T$60, DW_AT_type(*$C$DW$T$10)
    2055                    .dwattr $C$DW$T$60, DW_AT_language(DW_LANG_C)
    2056                    .dwattr $C$DW$T$60, DW_AT_decl_file("C:/ti/ccs1110/ccs/tools/compiler/ti-cgt-msp430_21.6.1.LTS
    2057                    .dwattr $C$DW$T$60, DW_AT_decl_line(0x4f)
    2058                    .dwattr $C$DW$T$60, DW_AT_decl_column(0x0e)
    2059            
    2060            $C$DW$T$61      .dwtag  DW_TAG_typedef
    2061                    .dwattr $C$DW$T$61, DW_AT_name("__ct_rune_t")
    2062                    .dwattr $C$DW$T$61, DW_AT_type(*$C$DW$T$10)
    2063                    .dwattr $C$DW$T$61, DW_AT_language(DW_LANG_C)
    2064                    .dwattr $C$DW$T$61, DW_AT_decl_file("C:/ti/ccs1110/ccs/tools/compiler/ti-cgt-msp430_21.6.1.LTS
    2065                    .dwattr $C$DW$T$61, DW_AT_decl_line(0x69)
    2066                    .dwattr $C$DW$T$61, DW_AT_decl_column(0x0e)
    2067            
    2068            $C$DW$T$62      .dwtag  DW_TAG_typedef
    2069                    .dwattr $C$DW$T$62, DW_AT_name("__rune_t")
    2070                    .dwattr $C$DW$T$62, DW_AT_type(*$C$DW$T$61)
    2071                    .dwattr $C$DW$T$62, DW_AT_language(DW_LANG_C)
    2072                    .dwattr $C$DW$T$62, DW_AT_decl_file("C:/ti/ccs1110/ccs/tools/compiler/ti-cgt-msp430_21.6.1.LTS
    2073                    .dwattr $C$DW$T$62, DW_AT_decl_line(0x6c)
    2074                    .dwattr $C$DW$T$62, DW_AT_decl_column(0x15)
MSP430 Assembler PC v21.6.1 Tue Dec 20 13:45:43 2022

Copyright (c) 2003-2018 Texas Instruments Incorporated
adc12_a.asm                                                          PAGE   40

    2075            
    2076            $C$DW$T$63      .dwtag  DW_TAG_typedef
    2077                    .dwattr $C$DW$T$63, DW_AT_name("__wint_t")
    2078                    .dwattr $C$DW$T$63, DW_AT_type(*$C$DW$T$61)
    2079                    .dwattr $C$DW$T$63, DW_AT_language(DW_LANG_C)
    2080                    .dwattr $C$DW$T$63, DW_AT_decl_file("C:/ti/ccs1110/ccs/tools/compiler/ti-cgt-msp430_21.6.1.LTS
    2081                    .dwattr $C$DW$T$63, DW_AT_decl_line(0x6d)
    2082                    .dwattr $C$DW$T$63, DW_AT_decl_column(0x15)
    2083            
    2084            $C$DW$T$64      .dwtag  DW_TAG_typedef
    2085                    .dwattr $C$DW$T$64, DW_AT_name("__int16_t")
    2086                    .dwattr $C$DW$T$64, DW_AT_type(*$C$DW$T$10)
    2087                    .dwattr $C$DW$T$64, DW_AT_language(DW_LANG_C)
    2088                    .dwattr $C$DW$T$64, DW_AT_decl_file("C:/ti/ccs1110/ccs/tools/compiler/ti-cgt-msp430_21.6.1.LTS
    2089                    .dwattr $C$DW$T$64, DW_AT_decl_line(0x38)
    2090                    .dwattr $C$DW$T$64, DW_AT_decl_column(0x0f)
    2091            
    2092            $C$DW$T$65      .dwtag  DW_TAG_typedef
    2093                    .dwattr $C$DW$T$65, DW_AT_name("__int_fast16_t")
    2094                    .dwattr $C$DW$T$65, DW_AT_type(*$C$DW$T$64)
    2095                    .dwattr $C$DW$T$65, DW_AT_language(DW_LANG_C)
    2096                    .dwattr $C$DW$T$65, DW_AT_decl_file("C:/ti/ccs1110/ccs/tools/compiler/ti-cgt-msp430_21.6.1.LTS
    2097                    .dwattr $C$DW$T$65, DW_AT_decl_line(0x57)
    2098                    .dwattr $C$DW$T$65, DW_AT_decl_column(0x13)
    2099            
    2100            $C$DW$T$66      .dwtag  DW_TAG_typedef
    2101                    .dwattr $C$DW$T$66, DW_AT_name("int_fast16_t")
    2102                    .dwattr $C$DW$T$66, DW_AT_type(*$C$DW$T$65)
    2103                    .dwattr $C$DW$T$66, DW_AT_language(DW_LANG_C)
    2104                    .dwattr $C$DW$T$66, DW_AT_decl_file("C:/ti/ccs1110/ccs/tools/compiler/ti-cgt-msp430_21.6.1.LTS
    2105                    .dwattr $C$DW$T$66, DW_AT_decl_line(0x35)
    2106                    .dwattr $C$DW$T$66, DW_AT_decl_column(0x19)
    2107            
    2108            $C$DW$T$67      .dwtag  DW_TAG_typedef
    2109                    .dwattr $C$DW$T$67, DW_AT_name("__int_fast8_t")
    2110                    .dwattr $C$DW$T$67, DW_AT_type(*$C$DW$T$64)
    2111                    .dwattr $C$DW$T$67, DW_AT_language(DW_LANG_C)
    2112                    .dwattr $C$DW$T$67, DW_AT_decl_file("C:/ti/ccs1110/ccs/tools/compiler/ti-cgt-msp430_21.6.1.LTS
    2113                    .dwattr $C$DW$T$67, DW_AT_decl_line(0x56)
    2114                    .dwattr $C$DW$T$67, DW_AT_decl_column(0x13)
    2115            
    2116            $C$DW$T$68      .dwtag  DW_TAG_typedef
    2117                    .dwattr $C$DW$T$68, DW_AT_name("int_fast8_t")
    2118                    .dwattr $C$DW$T$68, DW_AT_type(*$C$DW$T$67)
    2119                    .dwattr $C$DW$T$68, DW_AT_language(DW_LANG_C)
    2120                    .dwattr $C$DW$T$68, DW_AT_decl_file("C:/ti/ccs1110/ccs/tools/compiler/ti-cgt-msp430_21.6.1.LTS
    2121                    .dwattr $C$DW$T$68, DW_AT_decl_line(0x34)
    2122                    .dwattr $C$DW$T$68, DW_AT_decl_column(0x18)
    2123            
    2124            $C$DW$T$69      .dwtag  DW_TAG_typedef
    2125                    .dwattr $C$DW$T$69, DW_AT_name("__int_least16_t")
    2126                    .dwattr $C$DW$T$69, DW_AT_type(*$C$DW$T$64)
    2127                    .dwattr $C$DW$T$69, DW_AT_language(DW_LANG_C)
    2128                    .dwattr $C$DW$T$69, DW_AT_decl_file("C:/ti/ccs1110/ccs/tools/compiler/ti-cgt-msp430_21.6.1.LTS
    2129                    .dwattr $C$DW$T$69, DW_AT_decl_line(0x5b)
MSP430 Assembler PC v21.6.1 Tue Dec 20 13:45:43 2022

Copyright (c) 2003-2018 Texas Instruments Incorporated
adc12_a.asm                                                          PAGE   41

    2130                    .dwattr $C$DW$T$69, DW_AT_decl_column(0x13)
    2131            
    2132            $C$DW$T$70      .dwtag  DW_TAG_typedef
    2133                    .dwattr $C$DW$T$70, DW_AT_name("int_least16_t")
    2134                    .dwattr $C$DW$T$70, DW_AT_type(*$C$DW$T$69)
    2135                    .dwattr $C$DW$T$70, DW_AT_language(DW_LANG_C)
    2136                    .dwattr $C$DW$T$70, DW_AT_decl_file("C:/ti/ccs1110/ccs/tools/compiler/ti-cgt-msp430_21.6.1.LTS
    2137                    .dwattr $C$DW$T$70, DW_AT_decl_line(0x2b)
    2138                    .dwattr $C$DW$T$70, DW_AT_decl_column(0x1a)
    2139            
    2140            $C$DW$T$71      .dwtag  DW_TAG_typedef
    2141                    .dwattr $C$DW$T$71, DW_AT_name("__register_t")
    2142                    .dwattr $C$DW$T$71, DW_AT_type(*$C$DW$T$64)
    2143                    .dwattr $C$DW$T$71, DW_AT_language(DW_LANG_C)
    2144                    .dwattr $C$DW$T$71, DW_AT_decl_file("C:/ti/ccs1110/ccs/tools/compiler/ti-cgt-msp430_21.6.1.LTS
    2145                    .dwattr $C$DW$T$71, DW_AT_decl_line(0x5f)
    2146                    .dwattr $C$DW$T$71, DW_AT_decl_column(0x13)
    2147            
    2148            $C$DW$T$72      .dwtag  DW_TAG_typedef
    2149                    .dwattr $C$DW$T$72, DW_AT_name("int16_t")
    2150                    .dwattr $C$DW$T$72, DW_AT_type(*$C$DW$T$64)
    2151                    .dwattr $C$DW$T$72, DW_AT_language(DW_LANG_C)
    2152                    .dwattr $C$DW$T$72, DW_AT_decl_file("C:/ti/ccs1110/ccs/tools/compiler/ti-cgt-msp430_21.6.1.LTS
    2153                    .dwattr $C$DW$T$72, DW_AT_decl_line(0x2b)
    2154                    .dwattr $C$DW$T$72, DW_AT_decl_column(0x14)
    2155            
    2156            $C$DW$T$73      .dwtag  DW_TAG_typedef
    2157                    .dwattr $C$DW$T$73, DW_AT_name("__nl_item")
    2158                    .dwattr $C$DW$T$73, DW_AT_type(*$C$DW$T$10)
    2159                    .dwattr $C$DW$T$73, DW_AT_language(DW_LANG_C)
    2160                    .dwattr $C$DW$T$73, DW_AT_decl_file("C:/ti/ccs1110/ccs/tools/compiler/ti-cgt-msp430_21.6.1.LTS
    2161                    .dwattr $C$DW$T$73, DW_AT_decl_line(0x3c)
    2162                    .dwattr $C$DW$T$73, DW_AT_decl_column(0x0e)
    2163            
    2164            $C$DW$T$74      .dwtag  DW_TAG_typedef
    2165                    .dwattr $C$DW$T$74, DW_AT_name("__ptrdiff_t")
    2166                    .dwattr $C$DW$T$74, DW_AT_type(*$C$DW$T$10)
    2167                    .dwattr $C$DW$T$74, DW_AT_language(DW_LANG_C)
    2168                    .dwattr $C$DW$T$74, DW_AT_decl_file("C:/ti/ccs1110/ccs/tools/compiler/ti-cgt-msp430_21.6.1.LTS
    2169                    .dwattr $C$DW$T$74, DW_AT_decl_line(0x5e)
    2170                    .dwattr $C$DW$T$74, DW_AT_decl_column(0x1c)
    2171            
    2172            $C$DW$T$11      .dwtag  DW_TAG_base_type
    2173                    .dwattr $C$DW$T$11, DW_AT_encoding(DW_ATE_unsigned)
    2174                    .dwattr $C$DW$T$11, DW_AT_name("unsigned int")
    2175                    .dwattr $C$DW$T$11, DW_AT_byte_size(0x02)
    2176            
    2177            $C$DW$T$75      .dwtag  DW_TAG_typedef
    2178                    .dwattr $C$DW$T$75, DW_AT_name("___wchar_t")
    2179                    .dwattr $C$DW$T$75, DW_AT_type(*$C$DW$T$11)
    2180                    .dwattr $C$DW$T$75, DW_AT_language(DW_LANG_C)
    2181                    .dwattr $C$DW$T$75, DW_AT_decl_file("C:/ti/ccs1110/ccs/tools/compiler/ti-cgt-msp430_21.6.1.LTS
    2182                    .dwattr $C$DW$T$75, DW_AT_decl_line(0x7d)
    2183                    .dwattr $C$DW$T$75, DW_AT_decl_column(0x1a)
    2184            
MSP430 Assembler PC v21.6.1 Tue Dec 20 13:45:43 2022

Copyright (c) 2003-2018 Texas Instruments Incorporated
adc12_a.asm                                                          PAGE   42

    2185            $C$DW$T$82      .dwtag  DW_TAG_typedef
    2186                    .dwattr $C$DW$T$82, DW_AT_name("__size_t")
    2187                    .dwattr $C$DW$T$82, DW_AT_type(*$C$DW$T$11)
    2188                    .dwattr $C$DW$T$82, DW_AT_language(DW_LANG_C)
    2189                    .dwattr $C$DW$T$82, DW_AT_decl_file("C:/ti/ccs1110/ccs/tools/compiler/ti-cgt-msp430_21.6.1.LTS
    2190                    .dwattr $C$DW$T$82, DW_AT_decl_line(0x61)
    2191                    .dwattr $C$DW$T$82, DW_AT_decl_column(0x19)
    2192            
    2193            $C$DW$T$29      .dwtag  DW_TAG_typedef
    2194                    .dwattr $C$DW$T$29, DW_AT_name("__uint16_t")
    2195                    .dwattr $C$DW$T$29, DW_AT_type(*$C$DW$T$11)
    2196                    .dwattr $C$DW$T$29, DW_AT_language(DW_LANG_C)
    2197                    .dwattr $C$DW$T$29, DW_AT_decl_file("C:/ti/ccs1110/ccs/tools/compiler/ti-cgt-msp430_21.6.1.LTS
    2198                    .dwattr $C$DW$T$29, DW_AT_decl_line(0x39)
    2199                    .dwattr $C$DW$T$29, DW_AT_decl_column(0x17)
    2200            
    2201            $C$DW$T$83      .dwtag  DW_TAG_typedef
    2202                    .dwattr $C$DW$T$83, DW_AT_name("__mode_t")
    2203                    .dwattr $C$DW$T$83, DW_AT_type(*$C$DW$T$29)
    2204                    .dwattr $C$DW$T$83, DW_AT_language(DW_LANG_C)
    2205                    .dwattr $C$DW$T$83, DW_AT_decl_file("C:/ti/ccs1110/ccs/tools/compiler/ti-cgt-msp430_21.6.1.LTS
    2206                    .dwattr $C$DW$T$83, DW_AT_decl_line(0x3a)
    2207                    .dwattr $C$DW$T$83, DW_AT_decl_column(0x14)
    2208            
    2209            $C$DW$T$84      .dwtag  DW_TAG_typedef
    2210                    .dwattr $C$DW$T$84, DW_AT_name("__u_register_t")
    2211                    .dwattr $C$DW$T$84, DW_AT_type(*$C$DW$T$29)
    2212                    .dwattr $C$DW$T$84, DW_AT_language(DW_LANG_C)
    2213                    .dwattr $C$DW$T$84, DW_AT_decl_file("C:/ti/ccs1110/ccs/tools/compiler/ti-cgt-msp430_21.6.1.LTS
    2214                    .dwattr $C$DW$T$84, DW_AT_decl_line(0x78)
    2215                    .dwattr $C$DW$T$84, DW_AT_decl_column(0x14)
    2216            
    2217            $C$DW$T$85      .dwtag  DW_TAG_typedef
    2218                    .dwattr $C$DW$T$85, DW_AT_name("__uint_fast16_t")
    2219                    .dwattr $C$DW$T$85, DW_AT_type(*$C$DW$T$29)
    2220                    .dwattr $C$DW$T$85, DW_AT_language(DW_LANG_C)
    2221                    .dwattr $C$DW$T$85, DW_AT_decl_file("C:/ti/ccs1110/ccs/tools/compiler/ti-cgt-msp430_21.6.1.LTS
    2222                    .dwattr $C$DW$T$85, DW_AT_decl_line(0x71)
    2223                    .dwattr $C$DW$T$85, DW_AT_decl_column(0x14)
    2224            
    2225            $C$DW$T$86      .dwtag  DW_TAG_typedef
    2226                    .dwattr $C$DW$T$86, DW_AT_name("uint_fast16_t")
    2227                    .dwattr $C$DW$T$86, DW_AT_type(*$C$DW$T$85)
    2228                    .dwattr $C$DW$T$86, DW_AT_language(DW_LANG_C)
    2229                    .dwattr $C$DW$T$86, DW_AT_decl_file("C:/ti/ccs1110/ccs/tools/compiler/ti-cgt-msp430_21.6.1.LTS
    2230                    .dwattr $C$DW$T$86, DW_AT_decl_line(0x3a)
    2231                    .dwattr $C$DW$T$86, DW_AT_decl_column(0x1a)
    2232            
    2233            $C$DW$T$87      .dwtag  DW_TAG_typedef
    2234                    .dwattr $C$DW$T$87, DW_AT_name("__uint_fast8_t")
    2235                    .dwattr $C$DW$T$87, DW_AT_type(*$C$DW$T$29)
    2236                    .dwattr $C$DW$T$87, DW_AT_language(DW_LANG_C)
    2237                    .dwattr $C$DW$T$87, DW_AT_decl_file("C:/ti/ccs1110/ccs/tools/compiler/ti-cgt-msp430_21.6.1.LTS
    2238                    .dwattr $C$DW$T$87, DW_AT_decl_line(0x70)
    2239                    .dwattr $C$DW$T$87, DW_AT_decl_column(0x14)
MSP430 Assembler PC v21.6.1 Tue Dec 20 13:45:43 2022

Copyright (c) 2003-2018 Texas Instruments Incorporated
adc12_a.asm                                                          PAGE   43

    2240            
    2241            $C$DW$T$88      .dwtag  DW_TAG_typedef
    2242                    .dwattr $C$DW$T$88, DW_AT_name("uint_fast8_t")
    2243                    .dwattr $C$DW$T$88, DW_AT_type(*$C$DW$T$87)
    2244                    .dwattr $C$DW$T$88, DW_AT_language(DW_LANG_C)
    2245                    .dwattr $C$DW$T$88, DW_AT_decl_file("C:/ti/ccs1110/ccs/tools/compiler/ti-cgt-msp430_21.6.1.LTS
    2246                    .dwattr $C$DW$T$88, DW_AT_decl_line(0x39)
    2247                    .dwattr $C$DW$T$88, DW_AT_decl_column(0x19)
    2248            
    2249            $C$DW$T$89      .dwtag  DW_TAG_typedef
    2250                    .dwattr $C$DW$T$89, DW_AT_name("__uint_least16_t")
    2251                    .dwattr $C$DW$T$89, DW_AT_type(*$C$DW$T$29)
    2252                    .dwattr $C$DW$T$89, DW_AT_language(DW_LANG_C)
    2253                    .dwattr $C$DW$T$89, DW_AT_decl_file("C:/ti/ccs1110/ccs/tools/compiler/ti-cgt-msp430_21.6.1.LTS
    2254                    .dwattr $C$DW$T$89, DW_AT_decl_line(0x75)
    2255                    .dwattr $C$DW$T$89, DW_AT_decl_column(0x14)
    2256            
    2257            $C$DW$T$90      .dwtag  DW_TAG_typedef
    2258                    .dwattr $C$DW$T$90, DW_AT_name("__char16_t")
    2259                    .dwattr $C$DW$T$90, DW_AT_type(*$C$DW$T$89)
    2260                    .dwattr $C$DW$T$90, DW_AT_language(DW_LANG_C)
    2261                    .dwattr $C$DW$T$90, DW_AT_decl_file("C:/ti/ccs1110/ccs/tools/compiler/ti-cgt-msp430_21.6.1.LTS
    2262                    .dwattr $C$DW$T$90, DW_AT_decl_line(0x71)
    2263                    .dwattr $C$DW$T$90, DW_AT_decl_column(0x1a)
    2264            
    2265            $C$DW$T$91      .dwtag  DW_TAG_typedef
    2266                    .dwattr $C$DW$T$91, DW_AT_name("uint_least16_t")
    2267                    .dwattr $C$DW$T$91, DW_AT_type(*$C$DW$T$89)
    2268                    .dwattr $C$DW$T$91, DW_AT_language(DW_LANG_C)
    2269                    .dwattr $C$DW$T$91, DW_AT_decl_file("C:/ti/ccs1110/ccs/tools/compiler/ti-cgt-msp430_21.6.1.LTS
    2270                    .dwattr $C$DW$T$91, DW_AT_decl_line(0x30)
    2271                    .dwattr $C$DW$T$91, DW_AT_decl_column(0x1a)
    2272            
    2273            $C$DW$T$30      .dwtag  DW_TAG_typedef
    2274                    .dwattr $C$DW$T$30, DW_AT_name("uint16_t")
    2275                    .dwattr $C$DW$T$30, DW_AT_type(*$C$DW$T$29)
    2276                    .dwattr $C$DW$T$30, DW_AT_language(DW_LANG_C)
    2277                    .dwattr $C$DW$T$30, DW_AT_decl_file("C:/ti/ccs1110/ccs/tools/compiler/ti-cgt-msp430_21.6.1.LTS
    2278                    .dwattr $C$DW$T$30, DW_AT_decl_line(0x41)
    2279                    .dwattr $C$DW$T$30, DW_AT_decl_column(0x15)
    2280            
    2281            $C$DW$T$95      .dwtag  DW_TAG_typedef
    2282                    .dwattr $C$DW$T$95, DW_AT_name("__useconds_t")
    2283                    .dwattr $C$DW$T$95, DW_AT_type(*$C$DW$T$11)
    2284                    .dwattr $C$DW$T$95, DW_AT_language(DW_LANG_C)
    2285                    .dwattr $C$DW$T$95, DW_AT_decl_file("C:/ti/ccs1110/ccs/tools/compiler/ti-cgt-msp430_21.6.1.LTS
    2286                    .dwattr $C$DW$T$95, DW_AT_decl_line(0x4e)
    2287                    .dwattr $C$DW$T$95, DW_AT_decl_column(0x16)
    2288            
    2289            $C$DW$T$12      .dwtag  DW_TAG_base_type
    2290                    .dwattr $C$DW$T$12, DW_AT_encoding(DW_ATE_signed)
    2291                    .dwattr $C$DW$T$12, DW_AT_name("long")
    2292                    .dwattr $C$DW$T$12, DW_AT_byte_size(0x04)
    2293            
    2294            $C$DW$T$96      .dwtag  DW_TAG_typedef
MSP430 Assembler PC v21.6.1 Tue Dec 20 13:45:43 2022

Copyright (c) 2003-2018 Texas Instruments Incorporated
adc12_a.asm                                                          PAGE   44

    2295                    .dwattr $C$DW$T$96, DW_AT_name("__int32_t")
    2296                    .dwattr $C$DW$T$96, DW_AT_type(*$C$DW$T$12)
    2297                    .dwattr $C$DW$T$96, DW_AT_language(DW_LANG_C)
    2298                    .dwattr $C$DW$T$96, DW_AT_decl_file("C:/ti/ccs1110/ccs/tools/compiler/ti-cgt-msp430_21.6.1.LTS
    2299                    .dwattr $C$DW$T$96, DW_AT_decl_line(0x3a)
    2300                    .dwattr $C$DW$T$96, DW_AT_decl_column(0x10)
    2301            
    2302            $C$DW$T$97      .dwtag  DW_TAG_typedef
    2303                    .dwattr $C$DW$T$97, DW_AT_name("__blksize_t")
    2304                    .dwattr $C$DW$T$97, DW_AT_type(*$C$DW$T$96)
    2305                    .dwattr $C$DW$T$97, DW_AT_language(DW_LANG_C)
    2306                    .dwattr $C$DW$T$97, DW_AT_decl_file("C:/ti/ccs1110/ccs/tools/compiler/ti-cgt-msp430_21.6.1.LTS
    2307                    .dwattr $C$DW$T$97, DW_AT_decl_line(0x2f)
    2308                    .dwattr $C$DW$T$97, DW_AT_decl_column(0x13)
    2309            
    2310            $C$DW$T$98      .dwtag  DW_TAG_typedef
    2311                    .dwattr $C$DW$T$98, DW_AT_name("__clockid_t")
    2312                    .dwattr $C$DW$T$98, DW_AT_type(*$C$DW$T$96)
    2313                    .dwattr $C$DW$T$98, DW_AT_language(DW_LANG_C)
    2314                    .dwattr $C$DW$T$98, DW_AT_decl_file("C:/ti/ccs1110/ccs/tools/compiler/ti-cgt-msp430_21.6.1.LTS
    2315                    .dwattr $C$DW$T$98, DW_AT_decl_line(0x31)
    2316                    .dwattr $C$DW$T$98, DW_AT_decl_column(0x13)
    2317            
    2318            $C$DW$T$99      .dwtag  DW_TAG_typedef
    2319                    .dwattr $C$DW$T$99, DW_AT_name("__critical_t")
    2320                    .dwattr $C$DW$T$99, DW_AT_type(*$C$DW$T$96)
    2321                    .dwattr $C$DW$T$99, DW_AT_language(DW_LANG_C)
    2322                    .dwattr $C$DW$T$99, DW_AT_decl_file("C:/ti/ccs1110/ccs/tools/compiler/ti-cgt-msp430_21.6.1.LTS
    2323                    .dwattr $C$DW$T$99, DW_AT_decl_line(0x4b)
    2324                    .dwattr $C$DW$T$99, DW_AT_decl_column(0x13)
    2325            
    2326            $C$DW$T$100     .dwtag  DW_TAG_typedef
    2327                    .dwattr $C$DW$T$100, DW_AT_name("__int_fast32_t")
    2328                    .dwattr $C$DW$T$100, DW_AT_type(*$C$DW$T$96)
    2329                    .dwattr $C$DW$T$100, DW_AT_language(DW_LANG_C)
    2330                    .dwattr $C$DW$T$100, DW_AT_decl_file("C:/ti/ccs1110/ccs/tools/compiler/ti-cgt-msp430_21.6.1.LT
    2331                    .dwattr $C$DW$T$100, DW_AT_decl_line(0x58)
    2332                    .dwattr $C$DW$T$100, DW_AT_decl_column(0x13)
    2333            
    2334            $C$DW$T$101     .dwtag  DW_TAG_typedef
    2335                    .dwattr $C$DW$T$101, DW_AT_name("int_fast32_t")
    2336                    .dwattr $C$DW$T$101, DW_AT_type(*$C$DW$T$100)
    2337                    .dwattr $C$DW$T$101, DW_AT_language(DW_LANG_C)
    2338                    .dwattr $C$DW$T$101, DW_AT_decl_file("C:/ti/ccs1110/ccs/tools/compiler/ti-cgt-msp430_21.6.1.LT
    2339                    .dwattr $C$DW$T$101, DW_AT_decl_line(0x36)
    2340                    .dwattr $C$DW$T$101, DW_AT_decl_column(0x19)
    2341            
    2342            $C$DW$T$102     .dwtag  DW_TAG_typedef
    2343                    .dwattr $C$DW$T$102, DW_AT_name("__int_least32_t")
    2344                    .dwattr $C$DW$T$102, DW_AT_type(*$C$DW$T$96)
    2345                    .dwattr $C$DW$T$102, DW_AT_language(DW_LANG_C)
    2346                    .dwattr $C$DW$T$102, DW_AT_decl_file("C:/ti/ccs1110/ccs/tools/compiler/ti-cgt-msp430_21.6.1.LT
    2347                    .dwattr $C$DW$T$102, DW_AT_decl_line(0x5c)
    2348                    .dwattr $C$DW$T$102, DW_AT_decl_column(0x13)
    2349            
MSP430 Assembler PC v21.6.1 Tue Dec 20 13:45:43 2022

Copyright (c) 2003-2018 Texas Instruments Incorporated
adc12_a.asm                                                          PAGE   45

    2350            $C$DW$T$103     .dwtag  DW_TAG_typedef
    2351                    .dwattr $C$DW$T$103, DW_AT_name("int_least32_t")
    2352                    .dwattr $C$DW$T$103, DW_AT_type(*$C$DW$T$102)
    2353                    .dwattr $C$DW$T$103, DW_AT_language(DW_LANG_C)
    2354                    .dwattr $C$DW$T$103, DW_AT_decl_file("C:/ti/ccs1110/ccs/tools/compiler/ti-cgt-msp430_21.6.1.LT
    2355                    .dwattr $C$DW$T$103, DW_AT_decl_line(0x2c)
    2356                    .dwattr $C$DW$T$103, DW_AT_decl_column(0x1a)
    2357            
    2358            $C$DW$T$104     .dwtag  DW_TAG_typedef
    2359                    .dwattr $C$DW$T$104, DW_AT_name("__intfptr_t")
    2360                    .dwattr $C$DW$T$104, DW_AT_type(*$C$DW$T$96)
    2361                    .dwattr $C$DW$T$104, DW_AT_language(DW_LANG_C)
    2362                    .dwattr $C$DW$T$104, DW_AT_decl_file("C:/ti/ccs1110/ccs/tools/compiler/ti-cgt-msp430_21.6.1.LT
    2363                    .dwattr $C$DW$T$104, DW_AT_decl_line(0x4e)
    2364                    .dwattr $C$DW$T$104, DW_AT_decl_column(0x13)
    2365            
    2366            $C$DW$T$105     .dwtag  DW_TAG_typedef
    2367                    .dwattr $C$DW$T$105, DW_AT_name("__intptr_t")
    2368                    .dwattr $C$DW$T$105, DW_AT_type(*$C$DW$T$96)
    2369                    .dwattr $C$DW$T$105, DW_AT_language(DW_LANG_C)
    2370                    .dwattr $C$DW$T$105, DW_AT_decl_file("C:/ti/ccs1110/ccs/tools/compiler/ti-cgt-msp430_21.6.1.LT
    2371                    .dwattr $C$DW$T$105, DW_AT_decl_line(0x51)
    2372                    .dwattr $C$DW$T$105, DW_AT_decl_column(0x13)
    2373            
    2374            $C$DW$T$106     .dwtag  DW_TAG_typedef
    2375                    .dwattr $C$DW$T$106, DW_AT_name("intptr_t")
    2376                    .dwattr $C$DW$T$106, DW_AT_type(*$C$DW$T$105)
    2377                    .dwattr $C$DW$T$106, DW_AT_language(DW_LANG_C)
    2378                    .dwattr $C$DW$T$106, DW_AT_decl_file("C:/ti/ccs1110/ccs/tools/compiler/ti-cgt-msp430_21.6.1.LT
    2379                    .dwattr $C$DW$T$106, DW_AT_decl_line(0x50)
    2380                    .dwattr $C$DW$T$106, DW_AT_decl_column(0x15)
    2381            
    2382            $C$DW$T$107     .dwtag  DW_TAG_typedef
    2383                    .dwattr $C$DW$T$107, DW_AT_name("__lwpid_t")
    2384                    .dwattr $C$DW$T$107, DW_AT_type(*$C$DW$T$96)
    2385                    .dwattr $C$DW$T$107, DW_AT_language(DW_LANG_C)
    2386                    .dwattr $C$DW$T$107, DW_AT_decl_file("C:/ti/ccs1110/ccs/tools/compiler/ti-cgt-msp430_21.6.1.LT
    2387                    .dwattr $C$DW$T$107, DW_AT_decl_line(0x39)
    2388                    .dwattr $C$DW$T$107, DW_AT_decl_column(0x13)
    2389            
    2390            $C$DW$T$108     .dwtag  DW_TAG_typedef
    2391                    .dwattr $C$DW$T$108, DW_AT_name("__pid_t")
    2392                    .dwattr $C$DW$T$108, DW_AT_type(*$C$DW$T$96)
    2393                    .dwattr $C$DW$T$108, DW_AT_language(DW_LANG_C)
    2394                    .dwattr $C$DW$T$108, DW_AT_decl_file("C:/ti/ccs1110/ccs/tools/compiler/ti-cgt-msp430_21.6.1.LT
    2395                    .dwattr $C$DW$T$108, DW_AT_decl_line(0x40)
    2396                    .dwattr $C$DW$T$108, DW_AT_decl_column(0x13)
    2397            
    2398            $C$DW$T$109     .dwtag  DW_TAG_typedef
    2399                    .dwattr $C$DW$T$109, DW_AT_name("__segsz_t")
    2400                    .dwattr $C$DW$T$109, DW_AT_type(*$C$DW$T$96)
    2401                    .dwattr $C$DW$T$109, DW_AT_language(DW_LANG_C)
    2402                    .dwattr $C$DW$T$109, DW_AT_decl_file("C:/ti/ccs1110/ccs/tools/compiler/ti-cgt-msp430_21.6.1.LT
    2403                    .dwattr $C$DW$T$109, DW_AT_decl_line(0x60)
    2404                    .dwattr $C$DW$T$109, DW_AT_decl_column(0x13)
MSP430 Assembler PC v21.6.1 Tue Dec 20 13:45:43 2022

Copyright (c) 2003-2018 Texas Instruments Incorporated
adc12_a.asm                                                          PAGE   46

    2405            
    2406            $C$DW$T$110     .dwtag  DW_TAG_typedef
    2407                    .dwattr $C$DW$T$110, DW_AT_name("__ssize_t")
    2408                    .dwattr $C$DW$T$110, DW_AT_type(*$C$DW$T$96)
    2409                    .dwattr $C$DW$T$110, DW_AT_language(DW_LANG_C)
    2410                    .dwattr $C$DW$T$110, DW_AT_decl_file("C:/ti/ccs1110/ccs/tools/compiler/ti-cgt-msp430_21.6.1.LT
    2411                    .dwattr $C$DW$T$110, DW_AT_decl_line(0x62)
    2412                    .dwattr $C$DW$T$110, DW_AT_decl_column(0x13)
    2413            
    2414            $C$DW$T$111     .dwtag  DW_TAG_typedef
    2415                    .dwattr $C$DW$T$111, DW_AT_name("int32_t")
    2416                    .dwattr $C$DW$T$111, DW_AT_type(*$C$DW$T$96)
    2417                    .dwattr $C$DW$T$111, DW_AT_language(DW_LANG_C)
    2418                    .dwattr $C$DW$T$111, DW_AT_decl_file("C:/ti/ccs1110/ccs/tools/compiler/ti-cgt-msp430_21.6.1.LT
    2419                    .dwattr $C$DW$T$111, DW_AT_decl_line(0x30)
    2420                    .dwattr $C$DW$T$111, DW_AT_decl_column(0x14)
    2421            
    2422            $C$DW$T$112     .dwtag  DW_TAG_typedef
    2423                    .dwattr $C$DW$T$112, DW_AT_name("__key_t")
    2424                    .dwattr $C$DW$T$112, DW_AT_type(*$C$DW$T$12)
    2425                    .dwattr $C$DW$T$112, DW_AT_language(DW_LANG_C)
    2426                    .dwattr $C$DW$T$112, DW_AT_decl_file("C:/ti/ccs1110/ccs/tools/compiler/ti-cgt-msp430_21.6.1.LT
    2427                    .dwattr $C$DW$T$112, DW_AT_decl_line(0x38)
    2428                    .dwattr $C$DW$T$112, DW_AT_decl_column(0x0f)
    2429            
    2430            $C$DW$T$113     .dwtag  DW_TAG_typedef
    2431                    .dwattr $C$DW$T$113, DW_AT_name("__suseconds_t")
    2432                    .dwattr $C$DW$T$113, DW_AT_type(*$C$DW$T$12)
    2433                    .dwattr $C$DW$T$113, DW_AT_language(DW_LANG_C)
    2434                    .dwattr $C$DW$T$113, DW_AT_decl_file("C:/ti/ccs1110/ccs/tools/compiler/ti-cgt-msp430_21.6.1.LT
    2435                    .dwattr $C$DW$T$113, DW_AT_decl_line(0x4a)
    2436                    .dwattr $C$DW$T$113, DW_AT_decl_column(0x0f)
    2437            
    2438            $C$DW$T$114     .dwtag  DW_TAG_typedef
    2439                    .dwattr $C$DW$T$114, DW_AT_name("_off_t")
    2440                    .dwattr $C$DW$T$114, DW_AT_type(*$C$DW$T$12)
    2441                    .dwattr $C$DW$T$114, DW_AT_language(DW_LANG_C)
    2442                    .dwattr $C$DW$T$114, DW_AT_decl_file("C:/ti/ccs1110/ccs/tools/compiler/ti-cgt-msp430_21.6.1.LT
    2443                    .dwattr $C$DW$T$114, DW_AT_decl_line(0x8d)
    2444                    .dwattr $C$DW$T$114, DW_AT_decl_column(0x12)
    2445            
    2446            $C$DW$T$115     .dwtag  DW_TAG_typedef
    2447                    .dwattr $C$DW$T$115, DW_AT_name("__off_t")
    2448                    .dwattr $C$DW$T$115, DW_AT_type(*$C$DW$T$114)
    2449                    .dwattr $C$DW$T$115, DW_AT_language(DW_LANG_C)
    2450                    .dwattr $C$DW$T$115, DW_AT_decl_file("C:/ti/ccs1110/ccs/tools/compiler/ti-cgt-msp430_21.6.1.LT
    2451                    .dwattr $C$DW$T$115, DW_AT_decl_line(0x3e)
    2452                    .dwattr $C$DW$T$115, DW_AT_decl_column(0x18)
    2453            
    2454            $C$DW$T$13      .dwtag  DW_TAG_base_type
    2455                    .dwattr $C$DW$T$13, DW_AT_encoding(DW_ATE_unsigned)
    2456                    .dwattr $C$DW$T$13, DW_AT_name("unsigned long")
    2457                    .dwattr $C$DW$T$13, DW_AT_byte_size(0x04)
    2458            
    2459            $C$DW$T$34      .dwtag  DW_TAG_typedef
MSP430 Assembler PC v21.6.1 Tue Dec 20 13:45:43 2022

Copyright (c) 2003-2018 Texas Instruments Incorporated
adc12_a.asm                                                          PAGE   47

    2460                    .dwattr $C$DW$T$34, DW_AT_name("__uint32_t")
    2461                    .dwattr $C$DW$T$34, DW_AT_type(*$C$DW$T$13)
    2462                    .dwattr $C$DW$T$34, DW_AT_language(DW_LANG_C)
    2463                    .dwattr $C$DW$T$34, DW_AT_decl_file("C:/ti/ccs1110/ccs/tools/compiler/ti-cgt-msp430_21.6.1.LTS
    2464                    .dwattr $C$DW$T$34, DW_AT_decl_line(0x3b)
    2465                    .dwattr $C$DW$T$34, DW_AT_decl_column(0x18)
    2466            
    2467            $C$DW$T$117     .dwtag  DW_TAG_typedef
    2468                    .dwattr $C$DW$T$117, DW_AT_name("__clock_t")
    2469                    .dwattr $C$DW$T$117, DW_AT_type(*$C$DW$T$34)
    2470                    .dwattr $C$DW$T$117, DW_AT_language(DW_LANG_C)
    2471                    .dwattr $C$DW$T$117, DW_AT_decl_file("C:/ti/ccs1110/ccs/tools/compiler/ti-cgt-msp430_21.6.1.LT
    2472                    .dwattr $C$DW$T$117, DW_AT_decl_line(0x4a)
    2473                    .dwattr $C$DW$T$117, DW_AT_decl_column(0x14)
    2474            
    2475            $C$DW$T$118     .dwtag  DW_TAG_typedef
    2476                    .dwattr $C$DW$T$118, DW_AT_name("__fflags_t")
    2477                    .dwattr $C$DW$T$118, DW_AT_type(*$C$DW$T$34)
    2478                    .dwattr $C$DW$T$118, DW_AT_language(DW_LANG_C)
    2479                    .dwattr $C$DW$T$118, DW_AT_decl_file("C:/ti/ccs1110/ccs/tools/compiler/ti-cgt-msp430_21.6.1.LT
    2480                    .dwattr $C$DW$T$118, DW_AT_decl_line(0x32)
    2481                    .dwattr $C$DW$T$118, DW_AT_decl_column(0x14)
    2482            
    2483            $C$DW$T$119     .dwtag  DW_TAG_typedef
    2484                    .dwattr $C$DW$T$119, DW_AT_name("__fixpt_t")
    2485                    .dwattr $C$DW$T$119, DW_AT_type(*$C$DW$T$34)
    2486                    .dwattr $C$DW$T$119, DW_AT_language(DW_LANG_C)
    2487                    .dwattr $C$DW$T$119, DW_AT_decl_file("C:/ti/ccs1110/ccs/tools/compiler/ti-cgt-msp430_21.6.1.LT
    2488                    .dwattr $C$DW$T$119, DW_AT_decl_line(0x81)
    2489                    .dwattr $C$DW$T$119, DW_AT_decl_column(0x14)
    2490            
    2491            $C$DW$T$120     .dwtag  DW_TAG_typedef
    2492                    .dwattr $C$DW$T$120, DW_AT_name("__gid_t")
    2493                    .dwattr $C$DW$T$120, DW_AT_type(*$C$DW$T$34)
    2494                    .dwattr $C$DW$T$120, DW_AT_language(DW_LANG_C)
    2495                    .dwattr $C$DW$T$120, DW_AT_decl_file("C:/ti/ccs1110/ccs/tools/compiler/ti-cgt-msp430_21.6.1.LT
    2496                    .dwattr $C$DW$T$120, DW_AT_decl_line(0x35)
    2497                    .dwattr $C$DW$T$120, DW_AT_decl_column(0x14)
    2498            
    2499            $C$DW$T$121     .dwtag  DW_TAG_typedef
    2500                    .dwattr $C$DW$T$121, DW_AT_name("__socklen_t")
    2501                    .dwattr $C$DW$T$121, DW_AT_type(*$C$DW$T$34)
    2502                    .dwattr $C$DW$T$121, DW_AT_language(DW_LANG_C)
    2503                    .dwattr $C$DW$T$121, DW_AT_decl_file("C:/ti/ccs1110/ccs/tools/compiler/ti-cgt-msp430_21.6.1.LT
    2504                    .dwattr $C$DW$T$121, DW_AT_decl_line(0x49)
    2505                    .dwattr $C$DW$T$121, DW_AT_decl_column(0x14)
    2506            
    2507            $C$DW$T$122     .dwtag  DW_TAG_typedef
    2508                    .dwattr $C$DW$T$122, DW_AT_name("__time_t")
    2509                    .dwattr $C$DW$T$122, DW_AT_type(*$C$DW$T$34)
    2510                    .dwattr $C$DW$T$122, DW_AT_language(DW_LANG_C)
    2511                    .dwattr $C$DW$T$122, DW_AT_decl_file("C:/ti/ccs1110/ccs/tools/compiler/ti-cgt-msp430_21.6.1.LT
    2512                    .dwattr $C$DW$T$122, DW_AT_decl_line(0x66)
    2513                    .dwattr $C$DW$T$122, DW_AT_decl_column(0x19)
    2514            
MSP430 Assembler PC v21.6.1 Tue Dec 20 13:45:43 2022

Copyright (c) 2003-2018 Texas Instruments Incorporated
adc12_a.asm                                                          PAGE   48

    2515            $C$DW$T$123     .dwtag  DW_TAG_typedef
    2516                    .dwattr $C$DW$T$123, DW_AT_name("__uid_t")
    2517                    .dwattr $C$DW$T$123, DW_AT_type(*$C$DW$T$34)
    2518                    .dwattr $C$DW$T$123, DW_AT_language(DW_LANG_C)
    2519                    .dwattr $C$DW$T$123, DW_AT_decl_file("C:/ti/ccs1110/ccs/tools/compiler/ti-cgt-msp430_21.6.1.LT
    2520                    .dwattr $C$DW$T$123, DW_AT_decl_line(0x4d)
    2521                    .dwattr $C$DW$T$123, DW_AT_decl_column(0x14)
    2522            
    2523            $C$DW$T$124     .dwtag  DW_TAG_typedef
    2524                    .dwattr $C$DW$T$124, DW_AT_name("__uint_fast32_t")
    2525                    .dwattr $C$DW$T$124, DW_AT_type(*$C$DW$T$34)
    2526                    .dwattr $C$DW$T$124, DW_AT_language(DW_LANG_C)
    2527                    .dwattr $C$DW$T$124, DW_AT_decl_file("C:/ti/ccs1110/ccs/tools/compiler/ti-cgt-msp430_21.6.1.LT
    2528                    .dwattr $C$DW$T$124, DW_AT_decl_line(0x72)
    2529                    .dwattr $C$DW$T$124, DW_AT_decl_column(0x14)
    2530            
    2531            $C$DW$T$125     .dwtag  DW_TAG_typedef
    2532                    .dwattr $C$DW$T$125, DW_AT_name("uint_fast32_t")
    2533                    .dwattr $C$DW$T$125, DW_AT_type(*$C$DW$T$124)
    2534                    .dwattr $C$DW$T$125, DW_AT_language(DW_LANG_C)
    2535                    .dwattr $C$DW$T$125, DW_AT_decl_file("C:/ti/ccs1110/ccs/tools/compiler/ti-cgt-msp430_21.6.1.LT
    2536                    .dwattr $C$DW$T$125, DW_AT_decl_line(0x3b)
    2537                    .dwattr $C$DW$T$125, DW_AT_decl_column(0x1a)
    2538            
    2539            $C$DW$T$126     .dwtag  DW_TAG_typedef
    2540                    .dwattr $C$DW$T$126, DW_AT_name("__uint_least32_t")
    2541                    .dwattr $C$DW$T$126, DW_AT_type(*$C$DW$T$34)
    2542                    .dwattr $C$DW$T$126, DW_AT_language(DW_LANG_C)
    2543                    .dwattr $C$DW$T$126, DW_AT_decl_file("C:/ti/ccs1110/ccs/tools/compiler/ti-cgt-msp430_21.6.1.LT
    2544                    .dwattr $C$DW$T$126, DW_AT_decl_line(0x76)
    2545                    .dwattr $C$DW$T$126, DW_AT_decl_column(0x14)
    2546            
    2547            $C$DW$T$127     .dwtag  DW_TAG_typedef
    2548                    .dwattr $C$DW$T$127, DW_AT_name("__char32_t")
    2549                    .dwattr $C$DW$T$127, DW_AT_type(*$C$DW$T$126)
    2550                    .dwattr $C$DW$T$127, DW_AT_language(DW_LANG_C)
    2551                    .dwattr $C$DW$T$127, DW_AT_decl_file("C:/ti/ccs1110/ccs/tools/compiler/ti-cgt-msp430_21.6.1.LT
    2552                    .dwattr $C$DW$T$127, DW_AT_decl_line(0x72)
    2553                    .dwattr $C$DW$T$127, DW_AT_decl_column(0x1a)
    2554            
    2555            $C$DW$T$128     .dwtag  DW_TAG_typedef
    2556                    .dwattr $C$DW$T$128, DW_AT_name("uint_least32_t")
    2557                    .dwattr $C$DW$T$128, DW_AT_type(*$C$DW$T$126)
    2558                    .dwattr $C$DW$T$128, DW_AT_language(DW_LANG_C)
    2559                    .dwattr $C$DW$T$128, DW_AT_decl_file("C:/ti/ccs1110/ccs/tools/compiler/ti-cgt-msp430_21.6.1.LT
    2560                    .dwattr $C$DW$T$128, DW_AT_decl_line(0x31)
    2561                    .dwattr $C$DW$T$128, DW_AT_decl_column(0x1a)
    2562            
    2563            $C$DW$T$129     .dwtag  DW_TAG_typedef
    2564                    .dwattr $C$DW$T$129, DW_AT_name("__uintfptr_t")
    2565                    .dwattr $C$DW$T$129, DW_AT_type(*$C$DW$T$34)
    2566                    .dwattr $C$DW$T$129, DW_AT_language(DW_LANG_C)
    2567                    .dwattr $C$DW$T$129, DW_AT_decl_file("C:/ti/ccs1110/ccs/tools/compiler/ti-cgt-msp430_21.6.1.LT
    2568                    .dwattr $C$DW$T$129, DW_AT_decl_line(0x68)
    2569                    .dwattr $C$DW$T$129, DW_AT_decl_column(0x14)
MSP430 Assembler PC v21.6.1 Tue Dec 20 13:45:43 2022

Copyright (c) 2003-2018 Texas Instruments Incorporated
adc12_a.asm                                                          PAGE   49

    2570            
    2571            $C$DW$T$130     .dwtag  DW_TAG_typedef
    2572                    .dwattr $C$DW$T$130, DW_AT_name("__uintptr_t")
    2573                    .dwattr $C$DW$T$130, DW_AT_type(*$C$DW$T$34)
    2574                    .dwattr $C$DW$T$130, DW_AT_language(DW_LANG_C)
    2575                    .dwattr $C$DW$T$130, DW_AT_decl_file("C:/ti/ccs1110/ccs/tools/compiler/ti-cgt-msp430_21.6.1.LT
    2576                    .dwattr $C$DW$T$130, DW_AT_decl_line(0x6b)
    2577                    .dwattr $C$DW$T$130, DW_AT_decl_column(0x14)
    2578            
    2579            $C$DW$T$131     .dwtag  DW_TAG_typedef
    2580                    .dwattr $C$DW$T$131, DW_AT_name("uintptr_t")
    2581                    .dwattr $C$DW$T$131, DW_AT_type(*$C$DW$T$130)
    2582                    .dwattr $C$DW$T$131, DW_AT_language(DW_LANG_C)
    2583                    .dwattr $C$DW$T$131, DW_AT_decl_file("C:/ti/ccs1110/ccs/tools/compiler/ti-cgt-msp430_21.6.1.LT
    2584                    .dwattr $C$DW$T$131, DW_AT_decl_line(0x54)
    2585                    .dwattr $C$DW$T$131, DW_AT_decl_column(0x16)
    2586            
    2587            $C$DW$T$132     .dwtag  DW_TAG_typedef
    2588                    .dwattr $C$DW$T$132, DW_AT_name("__vm_offset_t")
    2589                    .dwattr $C$DW$T$132, DW_AT_type(*$C$DW$T$34)
    2590                    .dwattr $C$DW$T$132, DW_AT_language(DW_LANG_C)
    2591                    .dwattr $C$DW$T$132, DW_AT_decl_file("C:/ti/ccs1110/ccs/tools/compiler/ti-cgt-msp430_21.6.1.LT
    2592                    .dwattr $C$DW$T$132, DW_AT_decl_line(0x79)
    2593                    .dwattr $C$DW$T$132, DW_AT_decl_column(0x14)
    2594            
    2595            $C$DW$T$133     .dwtag  DW_TAG_typedef
    2596                    .dwattr $C$DW$T$133, DW_AT_name("__vm_paddr_t")
    2597                    .dwattr $C$DW$T$133, DW_AT_type(*$C$DW$T$34)
    2598                    .dwattr $C$DW$T$133, DW_AT_language(DW_LANG_C)
    2599                    .dwattr $C$DW$T$133, DW_AT_decl_file("C:/ti/ccs1110/ccs/tools/compiler/ti-cgt-msp430_21.6.1.LT
    2600                    .dwattr $C$DW$T$133, DW_AT_decl_line(0x7a)
    2601                    .dwattr $C$DW$T$133, DW_AT_decl_column(0x14)
    2602            
    2603            $C$DW$T$134     .dwtag  DW_TAG_typedef
    2604                    .dwattr $C$DW$T$134, DW_AT_name("__vm_size_t")
    2605                    .dwattr $C$DW$T$134, DW_AT_type(*$C$DW$T$34)
    2606                    .dwattr $C$DW$T$134, DW_AT_language(DW_LANG_C)
    2607                    .dwattr $C$DW$T$134, DW_AT_decl_file("C:/ti/ccs1110/ccs/tools/compiler/ti-cgt-msp430_21.6.1.LT
    2608                    .dwattr $C$DW$T$134, DW_AT_decl_line(0x7b)
    2609                    .dwattr $C$DW$T$134, DW_AT_decl_column(0x14)
    2610            
    2611            $C$DW$T$35      .dwtag  DW_TAG_typedef
    2612                    .dwattr $C$DW$T$35, DW_AT_name("uint32_t")
    2613                    .dwattr $C$DW$T$35, DW_AT_type(*$C$DW$T$34)
    2614                    .dwattr $C$DW$T$35, DW_AT_language(DW_LANG_C)
    2615                    .dwattr $C$DW$T$35, DW_AT_decl_file("C:/ti/ccs1110/ccs/tools/compiler/ti-cgt-msp430_21.6.1.LTS
    2616                    .dwattr $C$DW$T$35, DW_AT_decl_line(0x46)
    2617                    .dwattr $C$DW$T$35, DW_AT_decl_column(0x15)
    2618            
    2619            $C$DW$T$14      .dwtag  DW_TAG_base_type
    2620                    .dwattr $C$DW$T$14, DW_AT_encoding(DW_ATE_signed)
    2621                    .dwattr $C$DW$T$14, DW_AT_name("long long")
    2622                    .dwattr $C$DW$T$14, DW_AT_byte_size(0x08)
    2623            
    2624            $C$DW$T$136     .dwtag  DW_TAG_typedef
MSP430 Assembler PC v21.6.1 Tue Dec 20 13:45:43 2022

Copyright (c) 2003-2018 Texas Instruments Incorporated
adc12_a.asm                                                          PAGE   50

    2625                    .dwattr $C$DW$T$136, DW_AT_name("__int64_t")
    2626                    .dwattr $C$DW$T$136, DW_AT_type(*$C$DW$T$14)
    2627                    .dwattr $C$DW$T$136, DW_AT_language(DW_LANG_C)
    2628                    .dwattr $C$DW$T$136, DW_AT_decl_file("C:/ti/ccs1110/ccs/tools/compiler/ti-cgt-msp430_21.6.1.LT
    2629                    .dwattr $C$DW$T$136, DW_AT_decl_line(0x40)
    2630                    .dwattr $C$DW$T$136, DW_AT_decl_column(0x14)
    2631            
    2632            $C$DW$T$137     .dwtag  DW_TAG_typedef
    2633                    .dwattr $C$DW$T$137, DW_AT_name("__blkcnt_t")
    2634                    .dwattr $C$DW$T$137, DW_AT_type(*$C$DW$T$136)
    2635                    .dwattr $C$DW$T$137, DW_AT_language(DW_LANG_C)
    2636                    .dwattr $C$DW$T$137, DW_AT_decl_file("C:/ti/ccs1110/ccs/tools/compiler/ti-cgt-msp430_21.6.1.LT
    2637                    .dwattr $C$DW$T$137, DW_AT_decl_line(0x30)
    2638                    .dwattr $C$DW$T$137, DW_AT_decl_column(0x13)
    2639            
    2640            $C$DW$T$138     .dwtag  DW_TAG_typedef
    2641                    .dwattr $C$DW$T$138, DW_AT_name("__id_t")
    2642                    .dwattr $C$DW$T$138, DW_AT_type(*$C$DW$T$136)
    2643                    .dwattr $C$DW$T$138, DW_AT_language(DW_LANG_C)
    2644                    .dwattr $C$DW$T$138, DW_AT_decl_file("C:/ti/ccs1110/ccs/tools/compiler/ti-cgt-msp430_21.6.1.LT
    2645                    .dwattr $C$DW$T$138, DW_AT_decl_line(0x36)
    2646                    .dwattr $C$DW$T$138, DW_AT_decl_column(0x13)
    2647            
    2648            $C$DW$T$139     .dwtag  DW_TAG_typedef
    2649                    .dwattr $C$DW$T$139, DW_AT_name("__int_fast64_t")
    2650                    .dwattr $C$DW$T$139, DW_AT_type(*$C$DW$T$136)
    2651                    .dwattr $C$DW$T$139, DW_AT_language(DW_LANG_C)
    2652                    .dwattr $C$DW$T$139, DW_AT_decl_file("C:/ti/ccs1110/ccs/tools/compiler/ti-cgt-msp430_21.6.1.LT
    2653                    .dwattr $C$DW$T$139, DW_AT_decl_line(0x59)
    2654                    .dwattr $C$DW$T$139, DW_AT_decl_column(0x13)
    2655            
    2656            $C$DW$T$140     .dwtag  DW_TAG_typedef
    2657                    .dwattr $C$DW$T$140, DW_AT_name("int_fast64_t")
    2658                    .dwattr $C$DW$T$140, DW_AT_type(*$C$DW$T$139)
    2659                    .dwattr $C$DW$T$140, DW_AT_language(DW_LANG_C)
    2660                    .dwattr $C$DW$T$140, DW_AT_decl_file("C:/ti/ccs1110/ccs/tools/compiler/ti-cgt-msp430_21.6.1.LT
    2661                    .dwattr $C$DW$T$140, DW_AT_decl_line(0x37)
    2662                    .dwattr $C$DW$T$140, DW_AT_decl_column(0x19)
    2663            
    2664            $C$DW$T$141     .dwtag  DW_TAG_typedef
    2665                    .dwattr $C$DW$T$141, DW_AT_name("__int_least64_t")
    2666                    .dwattr $C$DW$T$141, DW_AT_type(*$C$DW$T$136)
    2667                    .dwattr $C$DW$T$141, DW_AT_language(DW_LANG_C)
    2668                    .dwattr $C$DW$T$141, DW_AT_decl_file("C:/ti/ccs1110/ccs/tools/compiler/ti-cgt-msp430_21.6.1.LT
    2669                    .dwattr $C$DW$T$141, DW_AT_decl_line(0x5d)
    2670                    .dwattr $C$DW$T$141, DW_AT_decl_column(0x13)
    2671            
    2672            $C$DW$T$142     .dwtag  DW_TAG_typedef
    2673                    .dwattr $C$DW$T$142, DW_AT_name("int_least64_t")
    2674                    .dwattr $C$DW$T$142, DW_AT_type(*$C$DW$T$141)
    2675                    .dwattr $C$DW$T$142, DW_AT_language(DW_LANG_C)
    2676                    .dwattr $C$DW$T$142, DW_AT_decl_file("C:/ti/ccs1110/ccs/tools/compiler/ti-cgt-msp430_21.6.1.LT
    2677                    .dwattr $C$DW$T$142, DW_AT_decl_line(0x2d)
    2678                    .dwattr $C$DW$T$142, DW_AT_decl_column(0x1a)
    2679            
MSP430 Assembler PC v21.6.1 Tue Dec 20 13:45:43 2022

Copyright (c) 2003-2018 Texas Instruments Incorporated
adc12_a.asm                                                          PAGE   51

    2680            $C$DW$T$143     .dwtag  DW_TAG_typedef
    2681                    .dwattr $C$DW$T$143, DW_AT_name("__intmax_t")
    2682                    .dwattr $C$DW$T$143, DW_AT_type(*$C$DW$T$136)
    2683                    .dwattr $C$DW$T$143, DW_AT_language(DW_LANG_C)
    2684                    .dwattr $C$DW$T$143, DW_AT_decl_file("C:/ti/ccs1110/ccs/tools/compiler/ti-cgt-msp430_21.6.1.LT
    2685                    .dwattr $C$DW$T$143, DW_AT_decl_line(0x4f)
    2686                    .dwattr $C$DW$T$143, DW_AT_decl_column(0x13)
    2687            
    2688            $C$DW$T$144     .dwtag  DW_TAG_typedef
    2689                    .dwattr $C$DW$T$144, DW_AT_name("intmax_t")
    2690                    .dwattr $C$DW$T$144, DW_AT_type(*$C$DW$T$143)
    2691                    .dwattr $C$DW$T$144, DW_AT_language(DW_LANG_C)
    2692                    .dwattr $C$DW$T$144, DW_AT_decl_file("C:/ti/ccs1110/ccs/tools/compiler/ti-cgt-msp430_21.6.1.LT
    2693                    .dwattr $C$DW$T$144, DW_AT_decl_line(0x58)
    2694                    .dwattr $C$DW$T$144, DW_AT_decl_column(0x15)
    2695            
    2696            $C$DW$T$145     .dwtag  DW_TAG_typedef
    2697                    .dwattr $C$DW$T$145, DW_AT_name("__off64_t")
    2698                    .dwattr $C$DW$T$145, DW_AT_type(*$C$DW$T$136)
    2699                    .dwattr $C$DW$T$145, DW_AT_language(DW_LANG_C)
    2700                    .dwattr $C$DW$T$145, DW_AT_decl_file("C:/ti/ccs1110/ccs/tools/compiler/ti-cgt-msp430_21.6.1.LT
    2701                    .dwattr $C$DW$T$145, DW_AT_decl_line(0x3f)
    2702                    .dwattr $C$DW$T$145, DW_AT_decl_column(0x13)
    2703            
    2704            $C$DW$T$146     .dwtag  DW_TAG_typedef
    2705                    .dwattr $C$DW$T$146, DW_AT_name("__rlim_t")
    2706                    .dwattr $C$DW$T$146, DW_AT_type(*$C$DW$T$136)
    2707                    .dwattr $C$DW$T$146, DW_AT_language(DW_LANG_C)
    2708                    .dwattr $C$DW$T$146, DW_AT_decl_file("C:/ti/ccs1110/ccs/tools/compiler/ti-cgt-msp430_21.6.1.LT
    2709                    .dwattr $C$DW$T$146, DW_AT_decl_line(0x41)
    2710                    .dwattr $C$DW$T$146, DW_AT_decl_column(0x13)
    2711            
    2712            $C$DW$T$147     .dwtag  DW_TAG_typedef
    2713                    .dwattr $C$DW$T$147, DW_AT_name("int64_t")
    2714                    .dwattr $C$DW$T$147, DW_AT_type(*$C$DW$T$136)
    2715                    .dwattr $C$DW$T$147, DW_AT_language(DW_LANG_C)
    2716                    .dwattr $C$DW$T$147, DW_AT_decl_file("C:/ti/ccs1110/ccs/tools/compiler/ti-cgt-msp430_21.6.1.LT
    2717                    .dwattr $C$DW$T$147, DW_AT_decl_line(0x35)
    2718                    .dwattr $C$DW$T$147, DW_AT_decl_column(0x14)
    2719            
    2720            $C$DW$T$15      .dwtag  DW_TAG_base_type
    2721                    .dwattr $C$DW$T$15, DW_AT_encoding(DW_ATE_unsigned)
    2722                    .dwattr $C$DW$T$15, DW_AT_name("unsigned long long")
    2723                    .dwattr $C$DW$T$15, DW_AT_byte_size(0x08)
    2724            
    2725            $C$DW$T$148     .dwtag  DW_TAG_typedef
    2726                    .dwattr $C$DW$T$148, DW_AT_name("__uint64_t")
    2727                    .dwattr $C$DW$T$148, DW_AT_type(*$C$DW$T$15)
    2728                    .dwattr $C$DW$T$148, DW_AT_language(DW_LANG_C)
    2729                    .dwattr $C$DW$T$148, DW_AT_decl_file("C:/ti/ccs1110/ccs/tools/compiler/ti-cgt-msp430_21.6.1.LT
    2730                    .dwattr $C$DW$T$148, DW_AT_decl_line(0x45)
    2731                    .dwattr $C$DW$T$148, DW_AT_decl_column(0x1c)
    2732            
    2733            $C$DW$T$149     .dwtag  DW_TAG_typedef
    2734                    .dwattr $C$DW$T$149, DW_AT_name("__dev_t")
MSP430 Assembler PC v21.6.1 Tue Dec 20 13:45:43 2022

Copyright (c) 2003-2018 Texas Instruments Incorporated
adc12_a.asm                                                          PAGE   52

    2735                    .dwattr $C$DW$T$149, DW_AT_type(*$C$DW$T$148)
    2736                    .dwattr $C$DW$T$149, DW_AT_language(DW_LANG_C)
    2737                    .dwattr $C$DW$T$149, DW_AT_decl_file("C:/ti/ccs1110/ccs/tools/compiler/ti-cgt-msp430_21.6.1.LT
    2738                    .dwattr $C$DW$T$149, DW_AT_decl_line(0x7f)
    2739                    .dwattr $C$DW$T$149, DW_AT_decl_column(0x14)
    2740            
    2741            $C$DW$T$150     .dwtag  DW_TAG_typedef
    2742                    .dwattr $C$DW$T$150, DW_AT_name("__fsblkcnt_t")
    2743                    .dwattr $C$DW$T$150, DW_AT_type(*$C$DW$T$148)
    2744                    .dwattr $C$DW$T$150, DW_AT_language(DW_LANG_C)
    2745                    .dwattr $C$DW$T$150, DW_AT_decl_file("C:/ti/ccs1110/ccs/tools/compiler/ti-cgt-msp430_21.6.1.LT
    2746                    .dwattr $C$DW$T$150, DW_AT_decl_line(0x33)
    2747                    .dwattr $C$DW$T$150, DW_AT_decl_column(0x14)
    2748            
    2749            $C$DW$T$151     .dwtag  DW_TAG_typedef
    2750                    .dwattr $C$DW$T$151, DW_AT_name("__fsfilcnt_t")
    2751                    .dwattr $C$DW$T$151, DW_AT_type(*$C$DW$T$148)
    2752                    .dwattr $C$DW$T$151, DW_AT_language(DW_LANG_C)
    2753                    .dwattr $C$DW$T$151, DW_AT_decl_file("C:/ti/ccs1110/ccs/tools/compiler/ti-cgt-msp430_21.6.1.LT
    2754                    .dwattr $C$DW$T$151, DW_AT_decl_line(0x34)
    2755                    .dwattr $C$DW$T$151, DW_AT_decl_column(0x14)
    2756            
    2757            $C$DW$T$152     .dwtag  DW_TAG_typedef
    2758                    .dwattr $C$DW$T$152, DW_AT_name("__ino_t")
    2759                    .dwattr $C$DW$T$152, DW_AT_type(*$C$DW$T$148)
    2760                    .dwattr $C$DW$T$152, DW_AT_language(DW_LANG_C)
    2761                    .dwattr $C$DW$T$152, DW_AT_decl_file("C:/ti/ccs1110/ccs/tools/compiler/ti-cgt-msp430_21.6.1.LT
    2762                    .dwattr $C$DW$T$152, DW_AT_decl_line(0x37)
    2763                    .dwattr $C$DW$T$152, DW_AT_decl_column(0x14)
    2764            
    2765            $C$DW$T$153     .dwtag  DW_TAG_typedef
    2766                    .dwattr $C$DW$T$153, DW_AT_name("__nlink_t")
    2767                    .dwattr $C$DW$T$153, DW_AT_type(*$C$DW$T$148)
    2768                    .dwattr $C$DW$T$153, DW_AT_language(DW_LANG_C)
    2769                    .dwattr $C$DW$T$153, DW_AT_decl_file("C:/ti/ccs1110/ccs/tools/compiler/ti-cgt-msp430_21.6.1.LT
    2770                    .dwattr $C$DW$T$153, DW_AT_decl_line(0x3d)
    2771                    .dwattr $C$DW$T$153, DW_AT_decl_column(0x14)
    2772            
    2773            $C$DW$T$154     .dwtag  DW_TAG_typedef
    2774                    .dwattr $C$DW$T$154, DW_AT_name("__uint_fast64_t")
    2775                    .dwattr $C$DW$T$154, DW_AT_type(*$C$DW$T$148)
    2776                    .dwattr $C$DW$T$154, DW_AT_language(DW_LANG_C)
    2777                    .dwattr $C$DW$T$154, DW_AT_decl_file("C:/ti/ccs1110/ccs/tools/compiler/ti-cgt-msp430_21.6.1.LT
    2778                    .dwattr $C$DW$T$154, DW_AT_decl_line(0x73)
    2779                    .dwattr $C$DW$T$154, DW_AT_decl_column(0x14)
    2780            
    2781            $C$DW$T$155     .dwtag  DW_TAG_typedef
    2782                    .dwattr $C$DW$T$155, DW_AT_name("uint_fast64_t")
    2783                    .dwattr $C$DW$T$155, DW_AT_type(*$C$DW$T$154)
    2784                    .dwattr $C$DW$T$155, DW_AT_language(DW_LANG_C)
    2785                    .dwattr $C$DW$T$155, DW_AT_decl_file("C:/ti/ccs1110/ccs/tools/compiler/ti-cgt-msp430_21.6.1.LT
    2786                    .dwattr $C$DW$T$155, DW_AT_decl_line(0x3c)
    2787                    .dwattr $C$DW$T$155, DW_AT_decl_column(0x1a)
    2788            
    2789            $C$DW$T$156     .dwtag  DW_TAG_typedef
MSP430 Assembler PC v21.6.1 Tue Dec 20 13:45:43 2022

Copyright (c) 2003-2018 Texas Instruments Incorporated
adc12_a.asm                                                          PAGE   53

    2790                    .dwattr $C$DW$T$156, DW_AT_name("__uint_least64_t")
    2791                    .dwattr $C$DW$T$156, DW_AT_type(*$C$DW$T$148)
    2792                    .dwattr $C$DW$T$156, DW_AT_language(DW_LANG_C)
    2793                    .dwattr $C$DW$T$156, DW_AT_decl_file("C:/ti/ccs1110/ccs/tools/compiler/ti-cgt-msp430_21.6.1.LT
    2794                    .dwattr $C$DW$T$156, DW_AT_decl_line(0x77)
    2795                    .dwattr $C$DW$T$156, DW_AT_decl_column(0x14)
    2796            
    2797            $C$DW$T$157     .dwtag  DW_TAG_typedef
    2798                    .dwattr $C$DW$T$157, DW_AT_name("uint_least64_t")
    2799                    .dwattr $C$DW$T$157, DW_AT_type(*$C$DW$T$156)
    2800                    .dwattr $C$DW$T$157, DW_AT_language(DW_LANG_C)
    2801                    .dwattr $C$DW$T$157, DW_AT_decl_file("C:/ti/ccs1110/ccs/tools/compiler/ti-cgt-msp430_21.6.1.LT
    2802                    .dwattr $C$DW$T$157, DW_AT_decl_line(0x32)
    2803                    .dwattr $C$DW$T$157, DW_AT_decl_column(0x1a)
    2804            
    2805            $C$DW$T$158     .dwtag  DW_TAG_typedef
    2806                    .dwattr $C$DW$T$158, DW_AT_name("__uintmax_t")
    2807                    .dwattr $C$DW$T$158, DW_AT_type(*$C$DW$T$148)
    2808                    .dwattr $C$DW$T$158, DW_AT_language(DW_LANG_C)
    2809                    .dwattr $C$DW$T$158, DW_AT_decl_file("C:/ti/ccs1110/ccs/tools/compiler/ti-cgt-msp430_21.6.1.LT
    2810                    .dwattr $C$DW$T$158, DW_AT_decl_line(0x69)
    2811                    .dwattr $C$DW$T$158, DW_AT_decl_column(0x14)
    2812            
    2813            $C$DW$T$159     .dwtag  DW_TAG_typedef
    2814                    .dwattr $C$DW$T$159, DW_AT_name("__rman_res_t")
    2815                    .dwattr $C$DW$T$159, DW_AT_type(*$C$DW$T$158)
    2816                    .dwattr $C$DW$T$159, DW_AT_language(DW_LANG_C)
    2817                    .dwattr $C$DW$T$159, DW_AT_decl_file("C:/ti/ccs1110/ccs/tools/compiler/ti-cgt-msp430_21.6.1.LT
    2818                    .dwattr $C$DW$T$159, DW_AT_decl_line(0x9a)
    2819                    .dwattr $C$DW$T$159, DW_AT_decl_column(0x19)
    2820            
    2821            $C$DW$T$160     .dwtag  DW_TAG_typedef
    2822                    .dwattr $C$DW$T$160, DW_AT_name("uintmax_t")
    2823                    .dwattr $C$DW$T$160, DW_AT_type(*$C$DW$T$158)
    2824                    .dwattr $C$DW$T$160, DW_AT_language(DW_LANG_C)
    2825                    .dwattr $C$DW$T$160, DW_AT_decl_file("C:/ti/ccs1110/ccs/tools/compiler/ti-cgt-msp430_21.6.1.LT
    2826                    .dwattr $C$DW$T$160, DW_AT_decl_line(0x5c)
    2827                    .dwattr $C$DW$T$160, DW_AT_decl_column(0x16)
    2828            
    2829            $C$DW$T$161     .dwtag  DW_TAG_typedef
    2830                    .dwattr $C$DW$T$161, DW_AT_name("uint64_t")
    2831                    .dwattr $C$DW$T$161, DW_AT_type(*$C$DW$T$148)
    2832                    .dwattr $C$DW$T$161, DW_AT_language(DW_LANG_C)
    2833                    .dwattr $C$DW$T$161, DW_AT_decl_file("C:/ti/ccs1110/ccs/tools/compiler/ti-cgt-msp430_21.6.1.LT
    2834                    .dwattr $C$DW$T$161, DW_AT_decl_line(0x4b)
    2835                    .dwattr $C$DW$T$161, DW_AT_decl_column(0x15)
    2836            
    2837            $C$DW$T$16      .dwtag  DW_TAG_base_type
    2838                    .dwattr $C$DW$T$16, DW_AT_encoding(DW_ATE_float)
    2839                    .dwattr $C$DW$T$16, DW_AT_name("float")
    2840                    .dwattr $C$DW$T$16, DW_AT_byte_size(0x04)
    2841            
    2842            $C$DW$T$162     .dwtag  DW_TAG_typedef
    2843                    .dwattr $C$DW$T$162, DW_AT_name("__float_t")
    2844                    .dwattr $C$DW$T$162, DW_AT_type(*$C$DW$T$16)
MSP430 Assembler PC v21.6.1 Tue Dec 20 13:45:43 2022

Copyright (c) 2003-2018 Texas Instruments Incorporated
adc12_a.asm                                                          PAGE   54

    2845                    .dwattr $C$DW$T$162, DW_AT_language(DW_LANG_C)
    2846                    .dwattr $C$DW$T$162, DW_AT_decl_file("C:/ti/ccs1110/ccs/tools/compiler/ti-cgt-msp430_21.6.1.LT
    2847                    .dwattr $C$DW$T$162, DW_AT_decl_line(0x4d)
    2848                    .dwattr $C$DW$T$162, DW_AT_decl_column(0x10)
    2849            
    2850            $C$DW$T$17      .dwtag  DW_TAG_base_type
    2851                    .dwattr $C$DW$T$17, DW_AT_encoding(DW_ATE_float)
    2852                    .dwattr $C$DW$T$17, DW_AT_name("double")
    2853                    .dwattr $C$DW$T$17, DW_AT_byte_size(0x08)
    2854            
    2855            $C$DW$T$163     .dwtag  DW_TAG_typedef
    2856                    .dwattr $C$DW$T$163, DW_AT_name("__double_t")
    2857                    .dwattr $C$DW$T$163, DW_AT_type(*$C$DW$T$17)
    2858                    .dwattr $C$DW$T$163, DW_AT_language(DW_LANG_C)
    2859                    .dwattr $C$DW$T$163, DW_AT_decl_file("C:/ti/ccs1110/ccs/tools/compiler/ti-cgt-msp430_21.6.1.LT
    2860                    .dwattr $C$DW$T$163, DW_AT_decl_line(0x4c)
    2861                    .dwattr $C$DW$T$163, DW_AT_decl_column(0x11)
    2862            
    2863            $C$DW$T$18      .dwtag  DW_TAG_base_type
    2864                    .dwattr $C$DW$T$18, DW_AT_encoding(DW_ATE_float)
    2865                    .dwattr $C$DW$T$18, DW_AT_name("long double")
    2866                    .dwattr $C$DW$T$18, DW_AT_byte_size(0x08)
    2867            
    2868            $C$DW$T$39      .dwtag  DW_TAG_base_type
    2869                    .dwattr $C$DW$T$39, DW_AT_encoding(DW_ATE_unsigned_char)
    2870                    .dwattr $C$DW$T$39, DW_AT_name("unsigned char")
    2871                    .dwattr $C$DW$T$39, DW_AT_byte_size(0x01)
    2872            
    2873            $C$DW$T$166     .dwtag  DW_TAG_pointer_type
    2874                    .dwattr $C$DW$T$166, DW_AT_type(*$C$DW$T$6)
    2875                    .dwattr $C$DW$T$166, DW_AT_address_class(0x14)
    2876            
    2877            $C$DW$T$167     .dwtag  DW_TAG_typedef
    2878                    .dwattr $C$DW$T$167, DW_AT_name("__va_list")
    2879                    .dwattr $C$DW$T$167, DW_AT_type(*$C$DW$T$166)
    2880                    .dwattr $C$DW$T$167, DW_AT_language(DW_LANG_C)
    2881                    .dwattr $C$DW$T$167, DW_AT_decl_file("C:/ti/ccs1110/ccs/tools/compiler/ti-cgt-msp430_21.6.1.LT
    2882                    .dwattr $C$DW$T$167, DW_AT_decl_line(0x92)
    2883                    .dwattr $C$DW$T$167, DW_AT_decl_column(0x0f)
    2884            
    2885            
    2886            $C$DW$T$19      .dwtag  DW_TAG_structure_type
    2887                    .dwattr $C$DW$T$19, DW_AT_name("__mq")
    2888                    .dwattr $C$DW$T$19, DW_AT_declaration
    2889                    .dwattr $C$DW$T$19, DW_AT_decl_file("C:/ti/ccs1110/ccs/tools/compiler/ti-cgt-msp430_21.6.1.LTS
    2890                    .dwattr $C$DW$T$19, DW_AT_decl_line(0x4c)
    2891                    .dwattr $C$DW$T$19, DW_AT_decl_column(0x10)
    2892                    .dwendtag $C$DW$T$19
    2893            
    2894            $C$DW$T$168     .dwtag  DW_TAG_pointer_type
    2895                    .dwattr $C$DW$T$168, DW_AT_type(*$C$DW$T$19)
    2896                    .dwattr $C$DW$T$168, DW_AT_address_class(0x14)
    2897            
    2898            $C$DW$T$169     .dwtag  DW_TAG_typedef
    2899                    .dwattr $C$DW$T$169, DW_AT_name("__mqd_t")
MSP430 Assembler PC v21.6.1 Tue Dec 20 13:45:43 2022

Copyright (c) 2003-2018 Texas Instruments Incorporated
adc12_a.asm                                                          PAGE   55

    2900                    .dwattr $C$DW$T$169, DW_AT_type(*$C$DW$T$168)
    2901                    .dwattr $C$DW$T$169, DW_AT_language(DW_LANG_C)
    2902                    .dwattr $C$DW$T$169, DW_AT_decl_file("C:/ti/ccs1110/ccs/tools/compiler/ti-cgt-msp430_21.6.1.LT
    2903                    .dwattr $C$DW$T$169, DW_AT_decl_line(0x4c)
    2904                    .dwattr $C$DW$T$169, DW_AT_decl_column(0x16)
    2905            
    2906            
    2907            $C$DW$T$20      .dwtag  DW_TAG_structure_type
    2908                    .dwattr $C$DW$T$20, DW_AT_name("__timer")
    2909                    .dwattr $C$DW$T$20, DW_AT_declaration
    2910                    .dwattr $C$DW$T$20, DW_AT_decl_file("C:/ti/ccs1110/ccs/tools/compiler/ti-cgt-msp430_21.6.1.LTS
    2911                    .dwattr $C$DW$T$20, DW_AT_decl_line(0x4b)
    2912                    .dwattr $C$DW$T$20, DW_AT_decl_column(0x10)
    2913                    .dwendtag $C$DW$T$20
    2914            
    2915            $C$DW$T$170     .dwtag  DW_TAG_pointer_type
    2916                    .dwattr $C$DW$T$170, DW_AT_type(*$C$DW$T$20)
    2917                    .dwattr $C$DW$T$170, DW_AT_address_class(0x14)
    2918            
    2919            $C$DW$T$171     .dwtag  DW_TAG_typedef
    2920                    .dwattr $C$DW$T$171, DW_AT_name("__timer_t")
    2921                    .dwattr $C$DW$T$171, DW_AT_type(*$C$DW$T$170)
    2922                    .dwattr $C$DW$T$171, DW_AT_language(DW_LANG_C)
    2923                    .dwattr $C$DW$T$171, DW_AT_decl_file("C:/ti/ccs1110/ccs/tools/compiler/ti-cgt-msp430_21.6.1.LT
    2924                    .dwattr $C$DW$T$171, DW_AT_decl_line(0x4b)
    2925                    .dwattr $C$DW$T$171, DW_AT_decl_column(0x19)
    2926            
    2927                    .dwattr $C$DW$CU, DW_AT_language(DW_LANG_C)
    2928            
    2929            ;***************************************************************
    2930            ;* DWARF CIE ENTRIES                                           *
    2931            ;***************************************************************
    2932            
    2933            $C$DW$CIE       .dwcie 16
    2934                    .dwcfi  cfa_register, 1
    2935                    .dwcfi  cfa_offset, 0
    2936                    .dwcfi  same_value, 0
    2937                    .dwcfi  same_value, 1
    2938                    .dwcfi  same_value, 3
    2939                    .dwcfi  same_value, 4
    2940                    .dwcfi  same_value, 5
    2941                    .dwcfi  same_value, 6
    2942                    .dwcfi  same_value, 7
    2943                    .dwcfi  same_value, 8
    2944                    .dwcfi  same_value, 9
    2945                    .dwcfi  same_value, 10
    2946                    .dwendentry
    2947            
    2948            ;***************************************************************
    2949            ;* DWARF REGISTER MAP                                          *
    2950            ;***************************************************************
    2951            
    2952            $C$DW$127       .dwtag  DW_TAG_TI_assign_register
    2953                    .dwattr $C$DW$127, DW_AT_name("PC")
    2954                    .dwattr $C$DW$127, DW_AT_location[DW_OP_reg0]
MSP430 Assembler PC v21.6.1 Tue Dec 20 13:45:43 2022

Copyright (c) 2003-2018 Texas Instruments Incorporated
adc12_a.asm                                                          PAGE   56

    2955            
    2956            $C$DW$128       .dwtag  DW_TAG_TI_assign_register
    2957                    .dwattr $C$DW$128, DW_AT_name("SP")
    2958                    .dwattr $C$DW$128, DW_AT_location[DW_OP_reg1]
    2959            
    2960            $C$DW$129       .dwtag  DW_TAG_TI_assign_register
    2961                    .dwattr $C$DW$129, DW_AT_name("SR")
    2962                    .dwattr $C$DW$129, DW_AT_location[DW_OP_reg2]
    2963            
    2964            $C$DW$130       .dwtag  DW_TAG_TI_assign_register
    2965                    .dwattr $C$DW$130, DW_AT_name("CG")
    2966                    .dwattr $C$DW$130, DW_AT_location[DW_OP_reg3]
    2967            
    2968            $C$DW$131       .dwtag  DW_TAG_TI_assign_register
    2969                    .dwattr $C$DW$131, DW_AT_name("r4")
    2970                    .dwattr $C$DW$131, DW_AT_location[DW_OP_reg4]
    2971            
    2972            $C$DW$132       .dwtag  DW_TAG_TI_assign_register
    2973                    .dwattr $C$DW$132, DW_AT_name("r5")
    2974                    .dwattr $C$DW$132, DW_AT_location[DW_OP_reg5]
    2975            
    2976            $C$DW$133       .dwtag  DW_TAG_TI_assign_register
    2977                    .dwattr $C$DW$133, DW_AT_name("r6")
    2978                    .dwattr $C$DW$133, DW_AT_location[DW_OP_reg6]
    2979            
    2980            $C$DW$134       .dwtag  DW_TAG_TI_assign_register
    2981                    .dwattr $C$DW$134, DW_AT_name("r7")
    2982                    .dwattr $C$DW$134, DW_AT_location[DW_OP_reg7]
    2983            
    2984            $C$DW$135       .dwtag  DW_TAG_TI_assign_register
    2985                    .dwattr $C$DW$135, DW_AT_name("r8")
    2986                    .dwattr $C$DW$135, DW_AT_location[DW_OP_reg8]
    2987            
    2988            $C$DW$136       .dwtag  DW_TAG_TI_assign_register
    2989                    .dwattr $C$DW$136, DW_AT_name("r9")
    2990                    .dwattr $C$DW$136, DW_AT_location[DW_OP_reg9]
    2991            
    2992            $C$DW$137       .dwtag  DW_TAG_TI_assign_register
    2993                    .dwattr $C$DW$137, DW_AT_name("r10")
    2994                    .dwattr $C$DW$137, DW_AT_location[DW_OP_reg10]
    2995            
    2996            $C$DW$138       .dwtag  DW_TAG_TI_assign_register
    2997                    .dwattr $C$DW$138, DW_AT_name("r11")
    2998                    .dwattr $C$DW$138, DW_AT_location[DW_OP_reg11]
    2999            
    3000            $C$DW$139       .dwtag  DW_TAG_TI_assign_register
    3001                    .dwattr $C$DW$139, DW_AT_name("r12")
    3002                    .dwattr $C$DW$139, DW_AT_location[DW_OP_reg12]
    3003            
    3004            $C$DW$140       .dwtag  DW_TAG_TI_assign_register
    3005                    .dwattr $C$DW$140, DW_AT_name("r13")
    3006                    .dwattr $C$DW$140, DW_AT_location[DW_OP_reg13]
    3007            
    3008            $C$DW$141       .dwtag  DW_TAG_TI_assign_register
    3009                    .dwattr $C$DW$141, DW_AT_name("r14")
MSP430 Assembler PC v21.6.1 Tue Dec 20 13:45:43 2022

Copyright (c) 2003-2018 Texas Instruments Incorporated
adc12_a.asm                                                          PAGE   57

    3010                    .dwattr $C$DW$141, DW_AT_location[DW_OP_reg14]
    3011            
    3012            $C$DW$142       .dwtag  DW_TAG_TI_assign_register
    3013                    .dwattr $C$DW$142, DW_AT_name("r15")
    3014                    .dwattr $C$DW$142, DW_AT_location[DW_OP_reg15]
    3015            
    3016            $C$DW$143       .dwtag  DW_TAG_TI_assign_register
    3017                    .dwattr $C$DW$143, DW_AT_name("CIE_RETA")
    3018                    .dwattr $C$DW$143, DW_AT_location[DW_OP_reg16]
    3019            
    3020                    .dwendtag $C$DW$CU
    3021            

No Assembly Errors, No Assembly Warnings
