MSP430 Assembler PC v21.6.1 Tue Dec 20 13:45:47 2022

Copyright (c) 2003-2018 Texas Instruments Incorporated
gpio.asm                                                             PAGE    1

       1            ;******************************************************************************
       2            ;* MSP430 G3 C/C++ Codegen                                              PC v21.6.1.LTS *
       3            ;* Date/Time created: Tue Dec 20 13:45:47 2022                                *
       4            ;******************************************************************************
       5                    .compiler_opts --abi=eabi --diag_wrap=off --hll_source=on --mem_model:code=large --mem_model:d
       6            
       7            $C$DW$CU        .dwtag  DW_TAG_compile_unit
       8                    .dwattr $C$DW$CU, DW_AT_name("../MP430DriverLib/driverlib/MSP430F5xx_6xx/gpio.c")
       9                    .dwattr $C$DW$CU, DW_AT_producer("TI MSP430 G3 C/C++ Codegen PC v21.6.1.LTS Copyright (c) 2003
      10                    .dwattr $C$DW$CU, DW_AT_TI_version(0x01)
      11                    .dwattr $C$DW$CU, DW_AT_comp_dir("C:\Users\MCourson\workspace_v11\MZERO_HB50Board\Debug")
      12 000000               .sect   ".const:GPIO_PORT_TO_BASE"
      13                    .align  2
      14                    .elfsym GPIO_PORT_TO_BASE,SYM_SIZE(28)
      15 000000       GPIO_PORT_TO_BASE:
      16 000000 0000          .bits           0,16
      17                                    ; GPIO_PORT_TO_BASE[0] @ 0
      18 000002 0200          .bits           0x200,16
      19                                    ; GPIO_PORT_TO_BASE[1] @ 16
      20 000004 0200          .bits           0x200,16
      21                                    ; GPIO_PORT_TO_BASE[2] @ 32
      22 000006 0220          .bits           0x220,16
      23                                    ; GPIO_PORT_TO_BASE[3] @ 48
      24 000008 0220          .bits           0x220,16
      25                                    ; GPIO_PORT_TO_BASE[4] @ 64
      26 00000a 0240          .bits           0x240,16
      27                                    ; GPIO_PORT_TO_BASE[5] @ 80
      28 00000c 0240          .bits           0x240,16
      29                                    ; GPIO_PORT_TO_BASE[6] @ 96
      30 00000e 0260          .bits           0x260,16
      31                                    ; GPIO_PORT_TO_BASE[7] @ 112
      32 000010 0260          .bits           0x260,16
      33                                    ; GPIO_PORT_TO_BASE[8] @ 128
      34 000012 0280          .bits           0x280,16
      35                                    ; GPIO_PORT_TO_BASE[9] @ 144
      36 000014 0280          .bits           0x280,16
      37                                    ; GPIO_PORT_TO_BASE[10] @ 160
      38 000016 02A0          .bits           0x2a0,16
      39                                    ; GPIO_PORT_TO_BASE[11] @ 176
      40 000018 FFFF          .bits           0xffff,16
      41                                    ; GPIO_PORT_TO_BASE[12] @ 192
      42 00001a 0320          .bits           0x320,16
      43                                    ; GPIO_PORT_TO_BASE[13] @ 208
      44            
      45            $C$DW$1 .dwtag  DW_TAG_variable
      46                    .dwattr $C$DW$1, DW_AT_name("GPIO_PORT_TO_BASE")
      47                    .dwattr $C$DW$1, DW_AT_TI_symbol_name("GPIO_PORT_TO_BASE")
      48                    .dwattr $C$DW$1, DW_AT_type(*$C$DW$T$82)
      49                    .dwattr $C$DW$1, DW_AT_location[DW_OP_addr GPIO_PORT_TO_BASE]
      50                    .dwattr $C$DW$1, DW_AT_decl_file("../MP430DriverLib/driverlib/MSP430F5xx_6xx/gpio.c")
      51                    .dwattr $C$DW$1, DW_AT_decl_line(0x15)
      52                    .dwattr $C$DW$1, DW_AT_decl_column(0x17)
      53            
      54            ;       C:\ti\ccs1110\ccs\tools\compiler\ti-cgt-msp430_21.6.1.LTS\bin\opt430.exe C:\\Users\\MCourson\\
      55 000000               .sect   ".text:GPIO_toggleOutputOnPin"
MSP430 Assembler PC v21.6.1 Tue Dec 20 13:45:47 2022

Copyright (c) 2003-2018 Texas Instruments Incorporated
gpio.asm                                                             PAGE    2

      56                    .clink
      57                    .global GPIO_toggleOutputOnPin
      58            
      59            $C$DW$2 .dwtag  DW_TAG_subprogram
      60                    .dwattr $C$DW$2, DW_AT_name("GPIO_toggleOutputOnPin")
      61                    .dwattr $C$DW$2, DW_AT_low_pc(GPIO_toggleOutputOnPin)
      62                    .dwattr $C$DW$2, DW_AT_high_pc(0x00)
      63                    .dwattr $C$DW$2, DW_AT_TI_symbol_name("GPIO_toggleOutputOnPin")
      64                    .dwattr $C$DW$2, DW_AT_external
      65                    .dwattr $C$DW$2, DW_AT_TI_begin_file("../MP430DriverLib/driverlib/MSP430F5xx_6xx/gpio.c")
      66                    .dwattr $C$DW$2, DW_AT_TI_begin_line(0xe5)
      67                    .dwattr $C$DW$2, DW_AT_TI_begin_column(0x06)
      68                    .dwattr $C$DW$2, DW_AT_decl_file("../MP430DriverLib/driverlib/MSP430F5xx_6xx/gpio.c")
      69                    .dwattr $C$DW$2, DW_AT_decl_line(0xe5)
      70                    .dwattr $C$DW$2, DW_AT_decl_column(0x06)
      71                    .dwattr $C$DW$2, DW_AT_TI_max_frame_size(0x04)
      72                    .dwpsn  file "../MP430DriverLib/driverlib/MSP430F5xx_6xx/gpio.c",line 229,column 75,is_stmt,ad
      73            
      74                    .dwfde $C$DW$CIE, GPIO_toggleOutputOnPin
      75            $C$DW$3 .dwtag  DW_TAG_formal_parameter
      76                    .dwattr $C$DW$3, DW_AT_name("selectedPort")
      77                    .dwattr $C$DW$3, DW_AT_TI_symbol_name("selectedPort")
      78                    .dwattr $C$DW$3, DW_AT_type(*$C$DW$T$24)
      79                    .dwattr $C$DW$3, DW_AT_location[DW_OP_reg12]
      80            
      81            $C$DW$4 .dwtag  DW_TAG_formal_parameter
      82                    .dwattr $C$DW$4, DW_AT_name("selectedPins")
      83                    .dwattr $C$DW$4, DW_AT_TI_symbol_name("selectedPins")
      84                    .dwattr $C$DW$4, DW_AT_type(*$C$DW$T$26)
      85                    .dwattr $C$DW$4, DW_AT_location[DW_OP_reg13]
      86            
      87            
      88            ;*****************************************************************************
      89            ;* FUNCTION NAME: GPIO_toggleOutputOnPin                                     *
      90            ;*                                                                           *
      91            ;*   Regs Modified     : SP,SR,r13,r15                                       *
      92            ;*   Regs Used         : SP,SR,r12,r13,r15                                   *
      93            ;*   Local Frame Size  : 0 Args + 0 Auto + 0 Save = 0 byte                   *
      94            ;*****************************************************************************
      95 000000       GPIO_toggleOutputOnPin:
      96            ;* --------------------------------------------------------------------------*
      97                    .dwcfi  cfa_offset, 4
      98                    .dwcfi  save_reg_to_mem, 16, -4
      99            ;* r12   assigned to selectedPort
     100            $C$DW$5 .dwtag  DW_TAG_variable
     101                    .dwattr $C$DW$5, DW_AT_name("selectedPort")
     102                    .dwattr $C$DW$5, DW_AT_TI_symbol_name("selectedPort")
     103                    .dwattr $C$DW$5, DW_AT_type(*$C$DW$T$24)
     104                    .dwattr $C$DW$5, DW_AT_location[DW_OP_reg12]
     105            
     106            ;* r13   assigned to selectedPins
     107            $C$DW$6 .dwtag  DW_TAG_variable
     108                    .dwattr $C$DW$6, DW_AT_name("selectedPins")
     109                    .dwattr $C$DW$6, DW_AT_TI_symbol_name("selectedPins")
     110                    .dwattr $C$DW$6, DW_AT_type(*$C$DW$T$26)
MSP430 Assembler PC v21.6.1 Tue Dec 20 13:45:47 2022

Copyright (c) 2003-2018 Texas Instruments Incorporated
gpio.asm                                                             PAGE    3

     111                    .dwattr $C$DW$6, DW_AT_location[DW_OP_reg13]
     112            
     113            ;* r15   assigned to baseAddress
     114            $C$DW$7 .dwtag  DW_TAG_variable
     115                    .dwattr $C$DW$7, DW_AT_name("baseAddress")
     116                    .dwattr $C$DW$7, DW_AT_TI_symbol_name("baseAddress")
     117                    .dwattr $C$DW$7, DW_AT_type(*$C$DW$T$26)
     118                    .dwattr $C$DW$7, DW_AT_location[DW_OP_reg15]
     119            
     120                    .dwpsn  file "../MP430DriverLib/driverlib/MSP430F5xx_6xx/gpio.c",line 231,column 26,is_stmt,is
     121 000000 4C4F          MOV.B     r12,r15               ; [] |231| 
     122 000002 025F          RLAM.W    #1,r15                ; [] |231| 
     123 000004 1840!         MOVX.W    GPIO_PORT_TO_BASE+0(r15),r15 ; [] |231| 
         000006 4F1F 
         000008 0000 
     124                    .dwpsn  file "../MP430DriverLib/driverlib/MSP430F5xx_6xx/gpio.c",line 240,column 5,is_stmt,isa
     125 00000a B35C          BIT.B     #1,r12                ; [] |240| 
     126 00000c 2002          JNE       $C$L1                 ; [] |240| 
     127                                                      ; [] |240| 
     128            ;* --------------------------------------------------------------------------*
     129                    .dwpsn  file "../MP430DriverLib/driverlib/MSP430F5xx_6xx/gpio.c",line 241,column 9,is_stmt,isa
     130 00000e 4D4D          MOV.B     r13,r13               ; [] |241| 
     131 000010 108D          SWPB      r13                   ; [] |241| 
     132            ;* --------------------------------------------------------------------------*
     133 000012       $C$L1:    
     134                    .dwpsn  file "../MP430DriverLib/driverlib/MSP430F5xx_6xx/gpio.c",line 244,column 5,is_stmt,isa
     135 000012 532F          ADD.W     #2,r15                ; [] |244| 
     136 000014 4F0F          MOV.W     r15,r15               ; [] |244| 
     137 000016 ED8F          XOR.W     r13,0(r15)            ; [] |244| 
         000018 0000 
     138                    .dwpsn  file "../MP430DriverLib/driverlib/MSP430F5xx_6xx/gpio.c",line 245,column 1,is_stmt,isa
     139            $C$DW$8 .dwtag  DW_TAG_TI_branch
     140                    .dwattr $C$DW$8, DW_AT_low_pc(0x00)
     141                    .dwattr $C$DW$8, DW_AT_TI_return
     142            
     143 00001a 0110          RETA      ; [] 
     144                    ; [] 
     145                    .dwattr $C$DW$2, DW_AT_TI_end_file("../MP430DriverLib/driverlib/MSP430F5xx_6xx/gpio.c")
     146                    .dwattr $C$DW$2, DW_AT_TI_end_line(0xf5)
     147                    .dwattr $C$DW$2, DW_AT_TI_end_column(0x01)
     148                    .dwendentry
     149                    .dwendtag $C$DW$2
     150            
     151 000000               .sect   ".text:GPIO_setOutputLowOnPin"
     152                    .clink
     153                    .global GPIO_setOutputLowOnPin
     154            
     155            $C$DW$9 .dwtag  DW_TAG_subprogram
     156                    .dwattr $C$DW$9, DW_AT_name("GPIO_setOutputLowOnPin")
     157                    .dwattr $C$DW$9, DW_AT_low_pc(GPIO_setOutputLowOnPin)
     158                    .dwattr $C$DW$9, DW_AT_high_pc(0x00)
     159                    .dwattr $C$DW$9, DW_AT_TI_symbol_name("GPIO_setOutputLowOnPin")
     160                    .dwattr $C$DW$9, DW_AT_external
     161                    .dwattr $C$DW$9, DW_AT_TI_begin_file("../MP430DriverLib/driverlib/MSP430F5xx_6xx/gpio.c")
     162                    .dwattr $C$DW$9, DW_AT_TI_begin_line(0xd3)
MSP430 Assembler PC v21.6.1 Tue Dec 20 13:45:47 2022

Copyright (c) 2003-2018 Texas Instruments Incorporated
gpio.asm                                                             PAGE    4

     163                    .dwattr $C$DW$9, DW_AT_TI_begin_column(0x06)
     164                    .dwattr $C$DW$9, DW_AT_decl_file("../MP430DriverLib/driverlib/MSP430F5xx_6xx/gpio.c")
     165                    .dwattr $C$DW$9, DW_AT_decl_line(0xd3)
     166                    .dwattr $C$DW$9, DW_AT_decl_column(0x06)
     167                    .dwattr $C$DW$9, DW_AT_TI_max_frame_size(0x04)
     168                    .dwpsn  file "../MP430DriverLib/driverlib/MSP430F5xx_6xx/gpio.c",line 211,column 75,is_stmt,ad
     169            
     170                    .dwfde $C$DW$CIE, GPIO_setOutputLowOnPin
     171            $C$DW$10        .dwtag  DW_TAG_formal_parameter
     172                    .dwattr $C$DW$10, DW_AT_name("selectedPort")
     173                    .dwattr $C$DW$10, DW_AT_TI_symbol_name("selectedPort")
     174                    .dwattr $C$DW$10, DW_AT_type(*$C$DW$T$24)
     175                    .dwattr $C$DW$10, DW_AT_location[DW_OP_reg12]
     176            
     177            $C$DW$11        .dwtag  DW_TAG_formal_parameter
     178                    .dwattr $C$DW$11, DW_AT_name("selectedPins")
     179                    .dwattr $C$DW$11, DW_AT_TI_symbol_name("selectedPins")
     180                    .dwattr $C$DW$11, DW_AT_type(*$C$DW$T$26)
     181                    .dwattr $C$DW$11, DW_AT_location[DW_OP_reg13]
     182            
     183            
     184            ;*****************************************************************************
     185            ;* FUNCTION NAME: GPIO_setOutputLowOnPin                                     *
     186            ;*                                                                           *
     187            ;*   Regs Modified     : SP,SR,r13,r15                                       *
     188            ;*   Regs Used         : SP,SR,r12,r13,r15                                   *
     189            ;*   Local Frame Size  : 0 Args + 0 Auto + 0 Save = 0 byte                   *
     190            ;*****************************************************************************
     191 000000       GPIO_setOutputLowOnPin:
     192            ;* --------------------------------------------------------------------------*
     193                    .dwcfi  cfa_offset, 4
     194                    .dwcfi  save_reg_to_mem, 16, -4
     195            ;* r12   assigned to selectedPort
     196            $C$DW$12        .dwtag  DW_TAG_variable
     197                    .dwattr $C$DW$12, DW_AT_name("selectedPort")
     198                    .dwattr $C$DW$12, DW_AT_TI_symbol_name("selectedPort")
     199                    .dwattr $C$DW$12, DW_AT_type(*$C$DW$T$24)
     200                    .dwattr $C$DW$12, DW_AT_location[DW_OP_reg12]
     201            
     202            ;* r13   assigned to selectedPins
     203            $C$DW$13        .dwtag  DW_TAG_variable
     204                    .dwattr $C$DW$13, DW_AT_name("selectedPins")
     205                    .dwattr $C$DW$13, DW_AT_TI_symbol_name("selectedPins")
     206                    .dwattr $C$DW$13, DW_AT_type(*$C$DW$T$26)
     207                    .dwattr $C$DW$13, DW_AT_location[DW_OP_reg13]
     208            
     209            ;* r15   assigned to baseAddress
     210            $C$DW$14        .dwtag  DW_TAG_variable
     211                    .dwattr $C$DW$14, DW_AT_name("baseAddress")
     212                    .dwattr $C$DW$14, DW_AT_TI_symbol_name("baseAddress")
     213                    .dwattr $C$DW$14, DW_AT_type(*$C$DW$T$26)
     214                    .dwattr $C$DW$14, DW_AT_location[DW_OP_reg15]
     215            
     216                    .dwpsn  file "../MP430DriverLib/driverlib/MSP430F5xx_6xx/gpio.c",line 213,column 26,is_stmt,is
     217 000000 4C4F          MOV.B     r12,r15               ; [] |213| 
MSP430 Assembler PC v21.6.1 Tue Dec 20 13:45:47 2022

Copyright (c) 2003-2018 Texas Instruments Incorporated
gpio.asm                                                             PAGE    5

     218 000002 025F          RLAM.W    #1,r15                ; [] |213| 
     219 000004 1840!         MOVX.W    GPIO_PORT_TO_BASE+0(r15),r15 ; [] |213| 
         000006 4F1F 
         000008 0000 
     220                    .dwpsn  file "../MP430DriverLib/driverlib/MSP430F5xx_6xx/gpio.c",line 222,column 5,is_stmt,isa
     221 00000a B35C          BIT.B     #1,r12                ; [] |222| 
     222 00000c 2002          JNE       $C$L2                 ; [] |222| 
     223                                                      ; [] |222| 
     224            ;* --------------------------------------------------------------------------*
     225                    .dwpsn  file "../MP430DriverLib/driverlib/MSP430F5xx_6xx/gpio.c",line 223,column 9,is_stmt,isa
     226 00000e 4D4D          MOV.B     r13,r13               ; [] |223| 
     227 000010 108D          SWPB      r13                   ; [] |223| 
     228            ;* --------------------------------------------------------------------------*
     229 000012       $C$L2:    
     230                    .dwpsn  file "../MP430DriverLib/driverlib/MSP430F5xx_6xx/gpio.c",line 226,column 5,is_stmt,isa
     231 000012 532F          ADD.W     #2,r15                ; [] |226| 
     232 000014 4F0F          MOV.W     r15,r15               ; [] |226| 
     233 000016 CD8F          BIC.W     r13,0(r15)            ; [] |226| 
         000018 0000 
     234                    .dwpsn  file "../MP430DriverLib/driverlib/MSP430F5xx_6xx/gpio.c",line 227,column 1,is_stmt,isa
     235            $C$DW$15        .dwtag  DW_TAG_TI_branch
     236                    .dwattr $C$DW$15, DW_AT_low_pc(0x00)
     237                    .dwattr $C$DW$15, DW_AT_TI_return
     238            
     239 00001a 0110          RETA      ; [] 
     240                    ; [] 
     241                    .dwattr $C$DW$9, DW_AT_TI_end_file("../MP430DriverLib/driverlib/MSP430F5xx_6xx/gpio.c")
     242                    .dwattr $C$DW$9, DW_AT_TI_end_line(0xe3)
     243                    .dwattr $C$DW$9, DW_AT_TI_end_column(0x01)
     244                    .dwendentry
     245                    .dwendtag $C$DW$9
     246            
     247 000000               .sect   ".text:GPIO_setOutputHighOnPin"
     248                    .clink
     249                    .global GPIO_setOutputHighOnPin
     250            
     251            $C$DW$16        .dwtag  DW_TAG_subprogram
     252                    .dwattr $C$DW$16, DW_AT_name("GPIO_setOutputHighOnPin")
     253                    .dwattr $C$DW$16, DW_AT_low_pc(GPIO_setOutputHighOnPin)
     254                    .dwattr $C$DW$16, DW_AT_high_pc(0x00)
     255                    .dwattr $C$DW$16, DW_AT_TI_symbol_name("GPIO_setOutputHighOnPin")
     256                    .dwattr $C$DW$16, DW_AT_external
     257                    .dwattr $C$DW$16, DW_AT_TI_begin_file("../MP430DriverLib/driverlib/MSP430F5xx_6xx/gpio.c")
     258                    .dwattr $C$DW$16, DW_AT_TI_begin_line(0xc0)
     259                    .dwattr $C$DW$16, DW_AT_TI_begin_column(0x06)
     260                    .dwattr $C$DW$16, DW_AT_decl_file("../MP430DriverLib/driverlib/MSP430F5xx_6xx/gpio.c")
     261                    .dwattr $C$DW$16, DW_AT_decl_line(0xc0)
     262                    .dwattr $C$DW$16, DW_AT_decl_column(0x06)
     263                    .dwattr $C$DW$16, DW_AT_TI_max_frame_size(0x04)
     264                    .dwpsn  file "../MP430DriverLib/driverlib/MSP430F5xx_6xx/gpio.c",line 193,column 59,is_stmt,ad
     265            
     266                    .dwfde $C$DW$CIE, GPIO_setOutputHighOnPin
     267            $C$DW$17        .dwtag  DW_TAG_formal_parameter
     268                    .dwattr $C$DW$17, DW_AT_name("selectedPort")
     269                    .dwattr $C$DW$17, DW_AT_TI_symbol_name("selectedPort")
MSP430 Assembler PC v21.6.1 Tue Dec 20 13:45:47 2022

Copyright (c) 2003-2018 Texas Instruments Incorporated
gpio.asm                                                             PAGE    6

     270                    .dwattr $C$DW$17, DW_AT_type(*$C$DW$T$24)
     271                    .dwattr $C$DW$17, DW_AT_location[DW_OP_reg12]
     272            
     273            $C$DW$18        .dwtag  DW_TAG_formal_parameter
     274                    .dwattr $C$DW$18, DW_AT_name("selectedPins")
     275                    .dwattr $C$DW$18, DW_AT_TI_symbol_name("selectedPins")
     276                    .dwattr $C$DW$18, DW_AT_type(*$C$DW$T$26)
     277                    .dwattr $C$DW$18, DW_AT_location[DW_OP_reg13]
     278            
     279            
     280            ;*****************************************************************************
     281            ;* FUNCTION NAME: GPIO_setOutputHighOnPin                                    *
     282            ;*                                                                           *
     283            ;*   Regs Modified     : SP,SR,r13,r15                                       *
     284            ;*   Regs Used         : SP,SR,r12,r13,r15                                   *
     285            ;*   Local Frame Size  : 0 Args + 0 Auto + 0 Save = 0 byte                   *
     286            ;*****************************************************************************
     287 000000       GPIO_setOutputHighOnPin:
     288            ;* --------------------------------------------------------------------------*
     289                    .dwcfi  cfa_offset, 4
     290                    .dwcfi  save_reg_to_mem, 16, -4
     291            ;* r12   assigned to selectedPort
     292            $C$DW$19        .dwtag  DW_TAG_variable
     293                    .dwattr $C$DW$19, DW_AT_name("selectedPort")
     294                    .dwattr $C$DW$19, DW_AT_TI_symbol_name("selectedPort")
     295                    .dwattr $C$DW$19, DW_AT_type(*$C$DW$T$24)
     296                    .dwattr $C$DW$19, DW_AT_location[DW_OP_reg12]
     297            
     298            ;* r13   assigned to selectedPins
     299            $C$DW$20        .dwtag  DW_TAG_variable
     300                    .dwattr $C$DW$20, DW_AT_name("selectedPins")
     301                    .dwattr $C$DW$20, DW_AT_TI_symbol_name("selectedPins")
     302                    .dwattr $C$DW$20, DW_AT_type(*$C$DW$T$26)
     303                    .dwattr $C$DW$20, DW_AT_location[DW_OP_reg13]
     304            
     305            ;* r15   assigned to baseAddress
     306            $C$DW$21        .dwtag  DW_TAG_variable
     307                    .dwattr $C$DW$21, DW_AT_name("baseAddress")
     308                    .dwattr $C$DW$21, DW_AT_TI_symbol_name("baseAddress")
     309                    .dwattr $C$DW$21, DW_AT_type(*$C$DW$T$26)
     310                    .dwattr $C$DW$21, DW_AT_location[DW_OP_reg15]
     311            
     312                    .dwpsn  file "../MP430DriverLib/driverlib/MSP430F5xx_6xx/gpio.c",line 195,column 26,is_stmt,is
     313 000000 4C4F          MOV.B     r12,r15               ; [] |195| 
     314 000002 025F          RLAM.W    #1,r15                ; [] |195| 
     315 000004 1840!         MOVX.W    GPIO_PORT_TO_BASE+0(r15),r15 ; [] |195| 
         000006 4F1F 
         000008 0000 
     316                    .dwpsn  file "../MP430DriverLib/driverlib/MSP430F5xx_6xx/gpio.c",line 204,column 5,is_stmt,isa
     317 00000a B35C          BIT.B     #1,r12                ; [] |204| 
     318 00000c 2002          JNE       $C$L3                 ; [] |204| 
     319                                                      ; [] |204| 
     320            ;* --------------------------------------------------------------------------*
     321                    .dwpsn  file "../MP430DriverLib/driverlib/MSP430F5xx_6xx/gpio.c",line 205,column 9,is_stmt,isa
     322 00000e 4D4D          MOV.B     r13,r13               ; [] |205| 
MSP430 Assembler PC v21.6.1 Tue Dec 20 13:45:47 2022

Copyright (c) 2003-2018 Texas Instruments Incorporated
gpio.asm                                                             PAGE    7

     323 000010 108D          SWPB      r13                   ; [] |205| 
     324            ;* --------------------------------------------------------------------------*
     325 000012       $C$L3:    
     326                    .dwpsn  file "../MP430DriverLib/driverlib/MSP430F5xx_6xx/gpio.c",line 208,column 5,is_stmt,isa
     327 000012 532F          ADD.W     #2,r15                ; [] |208| 
     328 000014 4F0F          MOV.W     r15,r15               ; [] |208| 
     329 000016 DD8F          OR.W      r13,0(r15)            ; [] |208| 
         000018 0000 
     330                    .dwpsn  file "../MP430DriverLib/driverlib/MSP430F5xx_6xx/gpio.c",line 209,column 1,is_stmt,isa
     331            $C$DW$22        .dwtag  DW_TAG_TI_branch
     332                    .dwattr $C$DW$22, DW_AT_low_pc(0x00)
     333                    .dwattr $C$DW$22, DW_AT_TI_return
     334            
     335 00001a 0110          RETA      ; [] 
     336                    ; [] 
     337                    .dwattr $C$DW$16, DW_AT_TI_end_file("../MP430DriverLib/driverlib/MSP430F5xx_6xx/gpio.c")
     338                    .dwattr $C$DW$16, DW_AT_TI_end_line(0xd1)
     339                    .dwattr $C$DW$16, DW_AT_TI_end_column(0x01)
     340                    .dwendentry
     341                    .dwendtag $C$DW$16
     342            
     343 000000               .sect   ".text:GPIO_setDriveStrength"
     344                    .clink
     345                    .global GPIO_setDriveStrength
     346            
     347            $C$DW$23        .dwtag  DW_TAG_subprogram
     348                    .dwattr $C$DW$23, DW_AT_name("GPIO_setDriveStrength")
     349                    .dwattr $C$DW$23, DW_AT_low_pc(GPIO_setDriveStrength)
     350                    .dwattr $C$DW$23, DW_AT_high_pc(0x00)
     351                    .dwattr $C$DW$23, DW_AT_TI_symbol_name("GPIO_setDriveStrength")
     352                    .dwattr $C$DW$23, DW_AT_external
     353                    .dwattr $C$DW$23, DW_AT_TI_begin_file("../MP430DriverLib/driverlib/MSP430F5xx_6xx/gpio.c")
     354                    .dwattr $C$DW$23, DW_AT_TI_begin_line(0x1a4)
     355                    .dwattr $C$DW$23, DW_AT_TI_begin_column(0x06)
     356                    .dwattr $C$DW$23, DW_AT_decl_file("../MP430DriverLib/driverlib/MSP430F5xx_6xx/gpio.c")
     357                    .dwattr $C$DW$23, DW_AT_decl_line(0x1a4)
     358                    .dwattr $C$DW$23, DW_AT_decl_column(0x06)
     359                    .dwattr $C$DW$23, DW_AT_TI_max_frame_size(0x04)
     360                    .dwpsn  file "../MP430DriverLib/driverlib/MSP430F5xx_6xx/gpio.c",line 421,column 56,is_stmt,ad
     361            
     362                    .dwfde $C$DW$CIE, GPIO_setDriveStrength
     363            $C$DW$24        .dwtag  DW_TAG_formal_parameter
     364                    .dwattr $C$DW$24, DW_AT_name("selectedPort")
     365                    .dwattr $C$DW$24, DW_AT_TI_symbol_name("selectedPort")
     366                    .dwattr $C$DW$24, DW_AT_type(*$C$DW$T$24)
     367                    .dwattr $C$DW$24, DW_AT_location[DW_OP_reg12]
     368            
     369            $C$DW$25        .dwtag  DW_TAG_formal_parameter
     370                    .dwattr $C$DW$25, DW_AT_name("selectedPins")
     371                    .dwattr $C$DW$25, DW_AT_TI_symbol_name("selectedPins")
     372                    .dwattr $C$DW$25, DW_AT_type(*$C$DW$T$26)
     373                    .dwattr $C$DW$25, DW_AT_location[DW_OP_reg13]
     374            
     375            $C$DW$26        .dwtag  DW_TAG_formal_parameter
     376                    .dwattr $C$DW$26, DW_AT_name("driveStrength")
MSP430 Assembler PC v21.6.1 Tue Dec 20 13:45:47 2022

Copyright (c) 2003-2018 Texas Instruments Incorporated
gpio.asm                                                             PAGE    8

     377                    .dwattr $C$DW$26, DW_AT_TI_symbol_name("driveStrength")
     378                    .dwattr $C$DW$26, DW_AT_type(*$C$DW$T$24)
     379                    .dwattr $C$DW$26, DW_AT_location[DW_OP_reg14]
     380            
     381            
     382            ;*****************************************************************************
     383            ;* FUNCTION NAME: GPIO_setDriveStrength                                      *
     384            ;*                                                                           *
     385            ;*   Regs Modified     : SP,SR,r13,r15                                       *
     386            ;*   Regs Used         : SP,SR,r12,r13,r14,r15                               *
     387            ;*   Local Frame Size  : 0 Args + 0 Auto + 0 Save = 0 byte                   *
     388            ;*****************************************************************************
     389 000000       GPIO_setDriveStrength:
     390            ;* --------------------------------------------------------------------------*
     391                    .dwcfi  cfa_offset, 4
     392                    .dwcfi  save_reg_to_mem, 16, -4
     393            ;* r12   assigned to selectedPort
     394            $C$DW$27        .dwtag  DW_TAG_variable
     395                    .dwattr $C$DW$27, DW_AT_name("selectedPort")
     396                    .dwattr $C$DW$27, DW_AT_TI_symbol_name("selectedPort")
     397                    .dwattr $C$DW$27, DW_AT_type(*$C$DW$T$24)
     398                    .dwattr $C$DW$27, DW_AT_location[DW_OP_reg12]
     399            
     400            ;* r13   assigned to selectedPins
     401            $C$DW$28        .dwtag  DW_TAG_variable
     402                    .dwattr $C$DW$28, DW_AT_name("selectedPins")
     403                    .dwattr $C$DW$28, DW_AT_TI_symbol_name("selectedPins")
     404                    .dwattr $C$DW$28, DW_AT_type(*$C$DW$T$26)
     405                    .dwattr $C$DW$28, DW_AT_location[DW_OP_reg13]
     406            
     407            ;* r14   assigned to driveStrength
     408            $C$DW$29        .dwtag  DW_TAG_variable
     409                    .dwattr $C$DW$29, DW_AT_name("driveStrength")
     410                    .dwattr $C$DW$29, DW_AT_TI_symbol_name("driveStrength")
     411                    .dwattr $C$DW$29, DW_AT_type(*$C$DW$T$24)
     412                    .dwattr $C$DW$29, DW_AT_location[DW_OP_reg14]
     413            
     414            ;* r15   assigned to baseAddress
     415            $C$DW$30        .dwtag  DW_TAG_variable
     416                    .dwattr $C$DW$30, DW_AT_name("baseAddress")
     417                    .dwattr $C$DW$30, DW_AT_TI_symbol_name("baseAddress")
     418                    .dwattr $C$DW$30, DW_AT_type(*$C$DW$T$26)
     419                    .dwattr $C$DW$30, DW_AT_location[DW_OP_reg15]
     420            
     421                    .dwpsn  file "../MP430DriverLib/driverlib/MSP430F5xx_6xx/gpio.c",line 423,column 26,is_stmt,is
     422 000000 4C4F          MOV.B     r12,r15               ; [] |423| 
     423 000002 025F          RLAM.W    #1,r15                ; [] |423| 
     424 000004 1840!         MOVX.W    GPIO_PORT_TO_BASE+0(r15),r15 ; [] |423| 
         000006 4F1F 
         000008 0000 
     425                    .dwpsn  file "../MP430DriverLib/driverlib/MSP430F5xx_6xx/gpio.c",line 432,column 5,is_stmt,isa
     426 00000a B35C          BIT.B     #1,r12                ; [] |432| 
     427 00000c 2002          JNE       $C$L4                 ; [] |432| 
     428                                                      ; [] |432| 
     429            ;* --------------------------------------------------------------------------*
MSP430 Assembler PC v21.6.1 Tue Dec 20 13:45:47 2022

Copyright (c) 2003-2018 Texas Instruments Incorporated
gpio.asm                                                             PAGE    9

     430                    .dwpsn  file "../MP430DriverLib/driverlib/MSP430F5xx_6xx/gpio.c",line 433,column 9,is_stmt,isa
     431 00000e 4D4D          MOV.B     r13,r13               ; [] |433| 
     432 000010 108D          SWPB      r13                   ; [] |433| 
     433            ;* --------------------------------------------------------------------------*
     434 000012       $C$L4:    
     435                    .dwpsn  file "../MP430DriverLib/driverlib/MSP430F5xx_6xx/gpio.c",line 436,column 5,is_stmt,isa
     436 000012 934E          TST.B     r14                   ; [] |436| 
     437 000014 2005          JNE       $C$L5                 ; [] |436| 
     438                                                      ; [] |436| 
     439            ;* --------------------------------------------------------------------------*
     440                    .dwpsn  file "../MP430DriverLib/driverlib/MSP430F5xx_6xx/gpio.c",line 437,column 9,is_stmt,isa
     441 000016 523F          ADD.W     #8,r15                ; [] |437| 
     442 000018 4F0F          MOV.W     r15,r15               ; [] |437| 
     443 00001a CD8F          BIC.W     r13,0(r15)            ; [] |437| 
         00001c 0000 
     444 00001e 3C04          JMP       $C$L6                 ; [] 
     445                                                      ; [] 
     446            ;* --------------------------------------------------------------------------*
     447 000020       $C$L5:    
     448                    .dwpsn  file "../MP430DriverLib/driverlib/MSP430F5xx_6xx/gpio.c",line 439,column 9,is_stmt,isa
     449 000020 523F          ADD.W     #8,r15                ; [] |439| 
     450 000022 4F0F          MOV.W     r15,r15               ; [] |439| 
     451 000024 DD8F          OR.W      r13,0(r15)            ; [] |439| 
         000026 0000 
     452            ;* --------------------------------------------------------------------------*
     453 000028       $C$L6:    
     454                    .dwpsn  file "../MP430DriverLib/driverlib/MSP430F5xx_6xx/gpio.c",line 441,column 1,is_stmt,isa
     455            $C$DW$31        .dwtag  DW_TAG_TI_branch
     456                    .dwattr $C$DW$31, DW_AT_low_pc(0x00)
     457                    .dwattr $C$DW$31, DW_AT_TI_return
     458            
     459 000028 0110          RETA      ; [] 
     460                    ; [] 
     461                    .dwattr $C$DW$23, DW_AT_TI_end_file("../MP430DriverLib/driverlib/MSP430F5xx_6xx/gpio.c")
     462                    .dwattr $C$DW$23, DW_AT_TI_end_line(0x1b9)
     463                    .dwattr $C$DW$23, DW_AT_TI_end_column(0x01)
     464                    .dwendentry
     465                    .dwendtag $C$DW$23
     466            
     467 000000               .sect   ".text:GPIO_setAsPeripheralModuleFunctionOutputPin"
     468                    .clink
     469                    .global GPIO_setAsPeripheralModuleFunctionOutputPin
     470            
     471            $C$DW$32        .dwtag  DW_TAG_subprogram
     472                    .dwattr $C$DW$32, DW_AT_name("GPIO_setAsPeripheralModuleFunctionOutputPin")
     473                    .dwattr $C$DW$32, DW_AT_low_pc(GPIO_setAsPeripheralModuleFunctionOutputPin)
     474                    .dwattr $C$DW$32, DW_AT_high_pc(0x00)
     475                    .dwattr $C$DW$32, DW_AT_TI_symbol_name("GPIO_setAsPeripheralModuleFunctionOutputPin")
     476                    .dwattr $C$DW$32, DW_AT_external
     477                    .dwattr $C$DW$32, DW_AT_TI_begin_file("../MP430DriverLib/driverlib/MSP430F5xx_6xx/gpio.c")
     478                    .dwattr $C$DW$32, DW_AT_TI_begin_line(0x97)
     479                    .dwattr $C$DW$32, DW_AT_TI_begin_column(0x06)
     480                    .dwattr $C$DW$32, DW_AT_decl_file("../MP430DriverLib/driverlib/MSP430F5xx_6xx/gpio.c")
     481                    .dwattr $C$DW$32, DW_AT_decl_line(0x97)
     482                    .dwattr $C$DW$32, DW_AT_decl_column(0x06)
MSP430 Assembler PC v21.6.1 Tue Dec 20 13:45:47 2022

Copyright (c) 2003-2018 Texas Instruments Incorporated
gpio.asm                                                             PAGE   10

     483                    .dwattr $C$DW$32, DW_AT_TI_max_frame_size(0x04)
     484                    .dwpsn  file "../MP430DriverLib/driverlib/MSP430F5xx_6xx/gpio.c",line 153,column 3,is_stmt,add
     485            
     486                    .dwfde $C$DW$CIE, GPIO_setAsPeripheralModuleFunctionOutputPin
     487            $C$DW$33        .dwtag  DW_TAG_formal_parameter
     488                    .dwattr $C$DW$33, DW_AT_name("selectedPort")
     489                    .dwattr $C$DW$33, DW_AT_TI_symbol_name("selectedPort")
     490                    .dwattr $C$DW$33, DW_AT_type(*$C$DW$T$24)
     491                    .dwattr $C$DW$33, DW_AT_location[DW_OP_reg12]
     492            
     493            $C$DW$34        .dwtag  DW_TAG_formal_parameter
     494                    .dwattr $C$DW$34, DW_AT_name("selectedPins")
     495                    .dwattr $C$DW$34, DW_AT_TI_symbol_name("selectedPins")
     496                    .dwattr $C$DW$34, DW_AT_type(*$C$DW$T$26)
     497                    .dwattr $C$DW$34, DW_AT_location[DW_OP_reg13]
     498            
     499            
     500            ;*****************************************************************************
     501            ;* FUNCTION NAME: GPIO_setAsPeripheralModuleFunctionOutputPin                *
     502            ;*                                                                           *
     503            ;*   Regs Modified     : SP,SR,r13,r14,r15                                   *
     504            ;*   Regs Used         : SP,SR,r12,r13,r14,r15                               *
     505            ;*   Local Frame Size  : 0 Args + 0 Auto + 0 Save = 0 byte                   *
     506            ;*****************************************************************************
     507 000000       GPIO_setAsPeripheralModuleFunctionOutputPin:
     508            ;* --------------------------------------------------------------------------*
     509                    .dwcfi  cfa_offset, 4
     510                    .dwcfi  save_reg_to_mem, 16, -4
     511            ;* r12   assigned to selectedPort
     512            $C$DW$35        .dwtag  DW_TAG_variable
     513                    .dwattr $C$DW$35, DW_AT_name("selectedPort")
     514                    .dwattr $C$DW$35, DW_AT_TI_symbol_name("selectedPort")
     515                    .dwattr $C$DW$35, DW_AT_type(*$C$DW$T$24)
     516                    .dwattr $C$DW$35, DW_AT_location[DW_OP_reg12]
     517            
     518            ;* r13   assigned to selectedPins
     519            $C$DW$36        .dwtag  DW_TAG_variable
     520                    .dwattr $C$DW$36, DW_AT_name("selectedPins")
     521                    .dwattr $C$DW$36, DW_AT_TI_symbol_name("selectedPins")
     522                    .dwattr $C$DW$36, DW_AT_type(*$C$DW$T$26)
     523                    .dwattr $C$DW$36, DW_AT_location[DW_OP_reg13]
     524            
     525            ;* r15   assigned to baseAddress
     526            $C$DW$37        .dwtag  DW_TAG_variable
     527                    .dwattr $C$DW$37, DW_AT_name("baseAddress")
     528                    .dwattr $C$DW$37, DW_AT_TI_symbol_name("baseAddress")
     529                    .dwattr $C$DW$37, DW_AT_type(*$C$DW$T$26)
     530                    .dwattr $C$DW$37, DW_AT_location[DW_OP_reg15]
     531            
     532                    .dwpsn  file "../MP430DriverLib/driverlib/MSP430F5xx_6xx/gpio.c",line 155,column 26,is_stmt,is
     533 000000 4C4F          MOV.B     r12,r15               ; [] |155| 
     534 000002 025F          RLAM.W    #1,r15                ; [] |155| 
     535 000004 1840!         MOVX.W    GPIO_PORT_TO_BASE+0(r15),r15 ; [] |155| 
         000006 4F1F 
         000008 0000 
MSP430 Assembler PC v21.6.1 Tue Dec 20 13:45:47 2022

Copyright (c) 2003-2018 Texas Instruments Incorporated
gpio.asm                                                             PAGE   11

     536                    .dwpsn  file "../MP430DriverLib/driverlib/MSP430F5xx_6xx/gpio.c",line 164,column 5,is_stmt,isa
     537 00000a B35C          BIT.B     #1,r12                ; [] |164| 
     538 00000c 2002          JNE       $C$L7                 ; [] |164| 
     539                                                      ; [] |164| 
     540            ;* --------------------------------------------------------------------------*
     541                    .dwpsn  file "../MP430DriverLib/driverlib/MSP430F5xx_6xx/gpio.c",line 165,column 9,is_stmt,isa
     542 00000e 4D4D          MOV.B     r13,r13               ; [] |165| 
     543 000010 108D          SWPB      r13                   ; [] |165| 
     544            ;* --------------------------------------------------------------------------*
     545 000012       $C$L7:    
     546                    .dwpsn  file "../MP430DriverLib/driverlib/MSP430F5xx_6xx/gpio.c",line 168,column 5,is_stmt,isa
     547 000012 0FCE          MOVA      r15,r14               ; [] |168| 
     548 000014 522E          ADD.W     #4,r14                ; [] |168| 
     549 000016 4E0E          MOV.W     r14,r14               ; [] |168| 
     550 000018 DD8E          OR.W      r13,0(r14)            ; [] |168| 
         00001a 0000 
     551                    .dwpsn  file "../MP430DriverLib/driverlib/MSP430F5xx_6xx/gpio.c",line 169,column 5,is_stmt,isa
     552 00001c 503F          ADD.W     #10,r15               ; [] |169| 
         00001e 000A 
     553 000020 4F0F          MOV.W     r15,r15               ; [] |169| 
     554 000022 DD8F          OR.W      r13,0(r15)            ; [] |169| 
         000024 0000 
     555                    .dwpsn  file "../MP430DriverLib/driverlib/MSP430F5xx_6xx/gpio.c",line 170,column 1,is_stmt,isa
     556            $C$DW$38        .dwtag  DW_TAG_TI_branch
     557                    .dwattr $C$DW$38, DW_AT_low_pc(0x00)
     558                    .dwattr $C$DW$38, DW_AT_TI_return
     559            
     560 000026 0110          RETA      ; [] 
     561                    ; [] 
     562                    .dwattr $C$DW$32, DW_AT_TI_end_file("../MP430DriverLib/driverlib/MSP430F5xx_6xx/gpio.c")
     563                    .dwattr $C$DW$32, DW_AT_TI_end_line(0xaa)
     564                    .dwattr $C$DW$32, DW_AT_TI_end_column(0x01)
     565                    .dwendentry
     566                    .dwendtag $C$DW$32
     567            
     568 000000               .sect   ".text:GPIO_setAsPeripheralModuleFunctionInputPin"
     569                    .clink
     570                    .global GPIO_setAsPeripheralModuleFunctionInputPin
     571            
     572            $C$DW$39        .dwtag  DW_TAG_subprogram
     573                    .dwattr $C$DW$39, DW_AT_name("GPIO_setAsPeripheralModuleFunctionInputPin")
     574                    .dwattr $C$DW$39, DW_AT_low_pc(GPIO_setAsPeripheralModuleFunctionInputPin)
     575                    .dwattr $C$DW$39, DW_AT_high_pc(0x00)
     576                    .dwattr $C$DW$39, DW_AT_TI_symbol_name("GPIO_setAsPeripheralModuleFunctionInputPin")
     577                    .dwattr $C$DW$39, DW_AT_external
     578                    .dwattr $C$DW$39, DW_AT_TI_begin_file("../MP430DriverLib/driverlib/MSP430F5xx_6xx/gpio.c")
     579                    .dwattr $C$DW$39, DW_AT_TI_begin_line(0xac)
     580                    .dwattr $C$DW$39, DW_AT_TI_begin_column(0x06)
     581                    .dwattr $C$DW$39, DW_AT_decl_file("../MP430DriverLib/driverlib/MSP430F5xx_6xx/gpio.c")
     582                    .dwattr $C$DW$39, DW_AT_decl_line(0xac)
     583                    .dwattr $C$DW$39, DW_AT_decl_column(0x06)
     584                    .dwattr $C$DW$39, DW_AT_TI_max_frame_size(0x04)
     585                    .dwpsn  file "../MP430DriverLib/driverlib/MSP430F5xx_6xx/gpio.c",line 174,column 3,is_stmt,add
     586            
     587                    .dwfde $C$DW$CIE, GPIO_setAsPeripheralModuleFunctionInputPin
MSP430 Assembler PC v21.6.1 Tue Dec 20 13:45:47 2022

Copyright (c) 2003-2018 Texas Instruments Incorporated
gpio.asm                                                             PAGE   12

     588            $C$DW$40        .dwtag  DW_TAG_formal_parameter
     589                    .dwattr $C$DW$40, DW_AT_name("selectedPort")
     590                    .dwattr $C$DW$40, DW_AT_TI_symbol_name("selectedPort")
     591                    .dwattr $C$DW$40, DW_AT_type(*$C$DW$T$24)
     592                    .dwattr $C$DW$40, DW_AT_location[DW_OP_reg12]
     593            
     594            $C$DW$41        .dwtag  DW_TAG_formal_parameter
     595                    .dwattr $C$DW$41, DW_AT_name("selectedPins")
     596                    .dwattr $C$DW$41, DW_AT_TI_symbol_name("selectedPins")
     597                    .dwattr $C$DW$41, DW_AT_type(*$C$DW$T$26)
     598                    .dwattr $C$DW$41, DW_AT_location[DW_OP_reg13]
     599            
     600            
     601            ;*****************************************************************************
     602            ;* FUNCTION NAME: GPIO_setAsPeripheralModuleFunctionInputPin                 *
     603            ;*                                                                           *
     604            ;*   Regs Modified     : SP,SR,r13,r14,r15                                   *
     605            ;*   Regs Used         : SP,SR,r12,r13,r14,r15                               *
     606            ;*   Local Frame Size  : 0 Args + 0 Auto + 0 Save = 0 byte                   *
     607            ;*****************************************************************************
     608 000000       GPIO_setAsPeripheralModuleFunctionInputPin:
     609            ;* --------------------------------------------------------------------------*
     610                    .dwcfi  cfa_offset, 4
     611                    .dwcfi  save_reg_to_mem, 16, -4
     612            ;* r12   assigned to selectedPort
     613            $C$DW$42        .dwtag  DW_TAG_variable
     614                    .dwattr $C$DW$42, DW_AT_name("selectedPort")
     615                    .dwattr $C$DW$42, DW_AT_TI_symbol_name("selectedPort")
     616                    .dwattr $C$DW$42, DW_AT_type(*$C$DW$T$24)
     617                    .dwattr $C$DW$42, DW_AT_location[DW_OP_reg12]
     618            
     619            ;* r13   assigned to selectedPins
     620            $C$DW$43        .dwtag  DW_TAG_variable
     621                    .dwattr $C$DW$43, DW_AT_name("selectedPins")
     622                    .dwattr $C$DW$43, DW_AT_TI_symbol_name("selectedPins")
     623                    .dwattr $C$DW$43, DW_AT_type(*$C$DW$T$26)
     624                    .dwattr $C$DW$43, DW_AT_location[DW_OP_reg13]
     625            
     626            ;* r15   assigned to baseAddress
     627            $C$DW$44        .dwtag  DW_TAG_variable
     628                    .dwattr $C$DW$44, DW_AT_name("baseAddress")
     629                    .dwattr $C$DW$44, DW_AT_TI_symbol_name("baseAddress")
     630                    .dwattr $C$DW$44, DW_AT_type(*$C$DW$T$26)
     631                    .dwattr $C$DW$44, DW_AT_location[DW_OP_reg15]
     632            
     633                    .dwpsn  file "../MP430DriverLib/driverlib/MSP430F5xx_6xx/gpio.c",line 175,column 26,is_stmt,is
     634 000000 4C4F          MOV.B     r12,r15               ; [] |175| 
     635 000002 025F          RLAM.W    #1,r15                ; [] |175| 
     636 000004 1840!         MOVX.W    GPIO_PORT_TO_BASE+0(r15),r15 ; [] |175| 
         000006 4F1F 
         000008 0000 
     637                    .dwpsn  file "../MP430DriverLib/driverlib/MSP430F5xx_6xx/gpio.c",line 184,column 5,is_stmt,isa
     638 00000a B35C          BIT.B     #1,r12                ; [] |184| 
     639 00000c 2002          JNE       $C$L8                 ; [] |184| 
     640                                                      ; [] |184| 
MSP430 Assembler PC v21.6.1 Tue Dec 20 13:45:47 2022

Copyright (c) 2003-2018 Texas Instruments Incorporated
gpio.asm                                                             PAGE   13

     641            ;* --------------------------------------------------------------------------*
     642                    .dwpsn  file "../MP430DriverLib/driverlib/MSP430F5xx_6xx/gpio.c",line 185,column 9,is_stmt,isa
     643 00000e 4D4D          MOV.B     r13,r13               ; [] |185| 
     644 000010 108D          SWPB      r13                   ; [] |185| 
     645            ;* --------------------------------------------------------------------------*
     646 000012       $C$L8:    
     647                    .dwpsn  file "../MP430DriverLib/driverlib/MSP430F5xx_6xx/gpio.c",line 188,column 5,is_stmt,isa
     648 000012 0FCE          MOVA      r15,r14               ; [] |188| 
     649 000014 522E          ADD.W     #4,r14                ; [] |188| 
     650 000016 4E0E          MOV.W     r14,r14               ; [] |188| 
     651 000018 CD8E          BIC.W     r13,0(r14)            ; [] |188| 
         00001a 0000 
     652                    .dwpsn  file "../MP430DriverLib/driverlib/MSP430F5xx_6xx/gpio.c",line 189,column 5,is_stmt,isa
     653 00001c 503F          ADD.W     #10,r15               ; [] |189| 
         00001e 000A 
     654 000020 4F0F          MOV.W     r15,r15               ; [] |189| 
     655 000022 DD8F          OR.W      r13,0(r15)            ; [] |189| 
         000024 0000 
     656                    .dwpsn  file "../MP430DriverLib/driverlib/MSP430F5xx_6xx/gpio.c",line 190,column 1,is_stmt,isa
     657            $C$DW$45        .dwtag  DW_TAG_TI_branch
     658                    .dwattr $C$DW$45, DW_AT_low_pc(0x00)
     659                    .dwattr $C$DW$45, DW_AT_TI_return
     660            
     661 000026 0110          RETA      ; [] 
     662                    ; [] 
     663                    .dwattr $C$DW$39, DW_AT_TI_end_file("../MP430DriverLib/driverlib/MSP430F5xx_6xx/gpio.c")
     664                    .dwattr $C$DW$39, DW_AT_TI_end_line(0xbe)
     665                    .dwattr $C$DW$39, DW_AT_TI_end_column(0x01)
     666                    .dwendentry
     667                    .dwendtag $C$DW$39
     668            
     669 000000               .sect   ".text:GPIO_setAsOutputPin"
     670                    .clink
     671                    .global GPIO_setAsOutputPin
     672            
     673            $C$DW$46        .dwtag  DW_TAG_subprogram
     674                    .dwattr $C$DW$46, DW_AT_name("GPIO_setAsOutputPin")
     675                    .dwattr $C$DW$46, DW_AT_low_pc(GPIO_setAsOutputPin)
     676                    .dwattr $C$DW$46, DW_AT_high_pc(0x00)
     677                    .dwattr $C$DW$46, DW_AT_TI_symbol_name("GPIO_setAsOutputPin")
     678                    .dwattr $C$DW$46, DW_AT_external
     679                    .dwattr $C$DW$46, DW_AT_TI_begin_file("../MP430DriverLib/driverlib/MSP430F5xx_6xx/gpio.c")
     680                    .dwattr $C$DW$46, DW_AT_TI_begin_line(0x6e)
     681                    .dwattr $C$DW$46, DW_AT_TI_begin_column(0x06)
     682                    .dwattr $C$DW$46, DW_AT_decl_file("../MP430DriverLib/driverlib/MSP430F5xx_6xx/gpio.c")
     683                    .dwattr $C$DW$46, DW_AT_decl_line(0x6e)
     684                    .dwattr $C$DW$46, DW_AT_decl_column(0x06)
     685                    .dwattr $C$DW$46, DW_AT_TI_max_frame_size(0x04)
     686                    .dwpsn  file "../MP430DriverLib/driverlib/MSP430F5xx_6xx/gpio.c",line 110,column 71,is_stmt,ad
     687            
     688                    .dwfde $C$DW$CIE, GPIO_setAsOutputPin
     689            $C$DW$47        .dwtag  DW_TAG_formal_parameter
     690                    .dwattr $C$DW$47, DW_AT_name("selectedPort")
     691                    .dwattr $C$DW$47, DW_AT_TI_symbol_name("selectedPort")
     692                    .dwattr $C$DW$47, DW_AT_type(*$C$DW$T$24)
MSP430 Assembler PC v21.6.1 Tue Dec 20 13:45:47 2022

Copyright (c) 2003-2018 Texas Instruments Incorporated
gpio.asm                                                             PAGE   14

     693                    .dwattr $C$DW$47, DW_AT_location[DW_OP_reg12]
     694            
     695            $C$DW$48        .dwtag  DW_TAG_formal_parameter
     696                    .dwattr $C$DW$48, DW_AT_name("selectedPins")
     697                    .dwattr $C$DW$48, DW_AT_TI_symbol_name("selectedPins")
     698                    .dwattr $C$DW$48, DW_AT_type(*$C$DW$T$26)
     699                    .dwattr $C$DW$48, DW_AT_location[DW_OP_reg13]
     700            
     701            
     702            ;*****************************************************************************
     703            ;* FUNCTION NAME: GPIO_setAsOutputPin                                        *
     704            ;*                                                                           *
     705            ;*   Regs Modified     : SP,SR,r13,r14,r15                                   *
     706            ;*   Regs Used         : SP,SR,r12,r13,r14,r15                               *
     707            ;*   Local Frame Size  : 0 Args + 0 Auto + 0 Save = 0 byte                   *
     708            ;*****************************************************************************
     709 000000       GPIO_setAsOutputPin:
     710            ;* --------------------------------------------------------------------------*
     711                    .dwcfi  cfa_offset, 4
     712                    .dwcfi  save_reg_to_mem, 16, -4
     713            ;* r12   assigned to selectedPort
     714            $C$DW$49        .dwtag  DW_TAG_variable
     715                    .dwattr $C$DW$49, DW_AT_name("selectedPort")
     716                    .dwattr $C$DW$49, DW_AT_TI_symbol_name("selectedPort")
     717                    .dwattr $C$DW$49, DW_AT_type(*$C$DW$T$24)
     718                    .dwattr $C$DW$49, DW_AT_location[DW_OP_reg12]
     719            
     720            ;* r13   assigned to selectedPins
     721            $C$DW$50        .dwtag  DW_TAG_variable
     722                    .dwattr $C$DW$50, DW_AT_name("selectedPins")
     723                    .dwattr $C$DW$50, DW_AT_TI_symbol_name("selectedPins")
     724                    .dwattr $C$DW$50, DW_AT_type(*$C$DW$T$26)
     725                    .dwattr $C$DW$50, DW_AT_location[DW_OP_reg13]
     726            
     727            ;* r15   assigned to baseAddress
     728            $C$DW$51        .dwtag  DW_TAG_variable
     729                    .dwattr $C$DW$51, DW_AT_name("baseAddress")
     730                    .dwattr $C$DW$51, DW_AT_TI_symbol_name("baseAddress")
     731                    .dwattr $C$DW$51, DW_AT_type(*$C$DW$T$26)
     732                    .dwattr $C$DW$51, DW_AT_location[DW_OP_reg15]
     733            
     734                    .dwpsn  file "../MP430DriverLib/driverlib/MSP430F5xx_6xx/gpio.c",line 112,column 26,is_stmt,is
     735 000000 4C4F          MOV.B     r12,r15               ; [] |112| 
     736 000002 025F          RLAM.W    #1,r15                ; [] |112| 
     737 000004 1840!         MOVX.W    GPIO_PORT_TO_BASE+0(r15),r15 ; [] |112| 
         000006 4F1F 
         000008 0000 
     738                    .dwpsn  file "../MP430DriverLib/driverlib/MSP430F5xx_6xx/gpio.c",line 121,column 5,is_stmt,isa
     739 00000a B35C          BIT.B     #1,r12                ; [] |121| 
     740 00000c 2002          JNE       $C$L9                 ; [] |121| 
     741                                                      ; [] |121| 
     742            ;* --------------------------------------------------------------------------*
     743                    .dwpsn  file "../MP430DriverLib/driverlib/MSP430F5xx_6xx/gpio.c",line 122,column 9,is_stmt,isa
     744 00000e 4D4D          MOV.B     r13,r13               ; [] |122| 
     745 000010 108D          SWPB      r13                   ; [] |122| 
MSP430 Assembler PC v21.6.1 Tue Dec 20 13:45:47 2022

Copyright (c) 2003-2018 Texas Instruments Incorporated
gpio.asm                                                             PAGE   15

     746            ;* --------------------------------------------------------------------------*
     747 000012       $C$L9:    
     748                    .dwpsn  file "../MP430DriverLib/driverlib/MSP430F5xx_6xx/gpio.c",line 125,column 5,is_stmt,isa
     749 000012 0FCE          MOVA      r15,r14               ; [] |125| 
     750 000014 503E          ADD.W     #10,r14               ; [] |125| 
         000016 000A 
     751 000018 4E0E          MOV.W     r14,r14               ; [] |125| 
     752 00001a CD8E          BIC.W     r13,0(r14)            ; [] |125| 
         00001c 0000 
     753                    .dwpsn  file "../MP430DriverLib/driverlib/MSP430F5xx_6xx/gpio.c",line 126,column 5,is_stmt,isa
     754 00001e 522F          ADD.W     #4,r15                ; [] |126| 
     755 000020 4F0F          MOV.W     r15,r15               ; [] |126| 
     756 000022 DD8F          OR.W      r13,0(r15)            ; [] |126| 
         000024 0000 
     757                    .dwpsn  file "../MP430DriverLib/driverlib/MSP430F5xx_6xx/gpio.c",line 129,column 1,is_stmt,isa
     758            $C$DW$52        .dwtag  DW_TAG_TI_branch
     759                    .dwattr $C$DW$52, DW_AT_low_pc(0x00)
     760                    .dwattr $C$DW$52, DW_AT_TI_return
     761            
     762 000026 0110          RETA      ; [] 
     763                    ; [] 
     764                    .dwattr $C$DW$46, DW_AT_TI_end_file("../MP430DriverLib/driverlib/MSP430F5xx_6xx/gpio.c")
     765                    .dwattr $C$DW$46, DW_AT_TI_end_line(0x81)
     766                    .dwattr $C$DW$46, DW_AT_TI_end_column(0x01)
     767                    .dwendentry
     768                    .dwendtag $C$DW$46
     769            
     770 000000               .sect   ".text:GPIO_setAsInputPinWithPullUpResistor"
     771                    .clink
     772                    .global GPIO_setAsInputPinWithPullUpResistor
     773            
     774            $C$DW$53        .dwtag  DW_TAG_subprogram
     775                    .dwattr $C$DW$53, DW_AT_name("GPIO_setAsInputPinWithPullUpResistor")
     776                    .dwattr $C$DW$53, DW_AT_low_pc(GPIO_setAsInputPinWithPullUpResistor)
     777                    .dwattr $C$DW$53, DW_AT_high_pc(0x00)
     778                    .dwattr $C$DW$53, DW_AT_TI_symbol_name("GPIO_setAsInputPinWithPullUpResistor")
     779                    .dwattr $C$DW$53, DW_AT_external
     780                    .dwattr $C$DW$53, DW_AT_TI_begin_file("../MP430DriverLib/driverlib/MSP430F5xx_6xx/gpio.c")
     781                    .dwattr $C$DW$53, DW_AT_TI_begin_line(0x10e)
     782                    .dwattr $C$DW$53, DW_AT_TI_begin_column(0x06)
     783                    .dwattr $C$DW$53, DW_AT_decl_file("../MP430DriverLib/driverlib/MSP430F5xx_6xx/gpio.c")
     784                    .dwattr $C$DW$53, DW_AT_decl_line(0x10e)
     785                    .dwattr $C$DW$53, DW_AT_decl_column(0x06)
     786                    .dwattr $C$DW$53, DW_AT_TI_max_frame_size(0x04)
     787                    .dwpsn  file "../MP430DriverLib/driverlib/MSP430F5xx_6xx/gpio.c",line 271,column 72,is_stmt,ad
     788            
     789                    .dwfde $C$DW$CIE, GPIO_setAsInputPinWithPullUpResistor
     790            $C$DW$54        .dwtag  DW_TAG_formal_parameter
     791                    .dwattr $C$DW$54, DW_AT_name("selectedPort")
     792                    .dwattr $C$DW$54, DW_AT_TI_symbol_name("selectedPort")
     793                    .dwattr $C$DW$54, DW_AT_type(*$C$DW$T$24)
     794                    .dwattr $C$DW$54, DW_AT_location[DW_OP_reg12]
     795            
     796            $C$DW$55        .dwtag  DW_TAG_formal_parameter
     797                    .dwattr $C$DW$55, DW_AT_name("selectedPins")
MSP430 Assembler PC v21.6.1 Tue Dec 20 13:45:47 2022

Copyright (c) 2003-2018 Texas Instruments Incorporated
gpio.asm                                                             PAGE   16

     798                    .dwattr $C$DW$55, DW_AT_TI_symbol_name("selectedPins")
     799                    .dwattr $C$DW$55, DW_AT_type(*$C$DW$T$26)
     800                    .dwattr $C$DW$55, DW_AT_location[DW_OP_reg13]
     801            
     802            
     803            ;*****************************************************************************
     804            ;* FUNCTION NAME: GPIO_setAsInputPinWithPullUpResistor                       *
     805            ;*                                                                           *
     806            ;*   Regs Modified     : SP,SR,r13,r14,r15                                   *
     807            ;*   Regs Used         : SP,SR,r12,r13,r14,r15                               *
     808            ;*   Local Frame Size  : 0 Args + 0 Auto + 0 Save = 0 byte                   *
     809            ;*****************************************************************************
     810 000000       GPIO_setAsInputPinWithPullUpResistor:
     811            ;* --------------------------------------------------------------------------*
     812                    .dwcfi  cfa_offset, 4
     813                    .dwcfi  save_reg_to_mem, 16, -4
     814            ;* r12   assigned to selectedPort
     815            $C$DW$56        .dwtag  DW_TAG_variable
     816                    .dwattr $C$DW$56, DW_AT_name("selectedPort")
     817                    .dwattr $C$DW$56, DW_AT_TI_symbol_name("selectedPort")
     818                    .dwattr $C$DW$56, DW_AT_type(*$C$DW$T$24)
     819                    .dwattr $C$DW$56, DW_AT_location[DW_OP_reg12]
     820            
     821            ;* r13   assigned to selectedPins
     822            $C$DW$57        .dwtag  DW_TAG_variable
     823                    .dwattr $C$DW$57, DW_AT_name("selectedPins")
     824                    .dwattr $C$DW$57, DW_AT_TI_symbol_name("selectedPins")
     825                    .dwattr $C$DW$57, DW_AT_type(*$C$DW$T$26)
     826                    .dwattr $C$DW$57, DW_AT_location[DW_OP_reg13]
     827            
     828            ;* r15   assigned to baseAddress
     829            $C$DW$58        .dwtag  DW_TAG_variable
     830                    .dwattr $C$DW$58, DW_AT_name("baseAddress")
     831                    .dwattr $C$DW$58, DW_AT_TI_symbol_name("baseAddress")
     832                    .dwattr $C$DW$58, DW_AT_type(*$C$DW$T$26)
     833                    .dwattr $C$DW$58, DW_AT_location[DW_OP_reg15]
     834            
     835                    .dwpsn  file "../MP430DriverLib/driverlib/MSP430F5xx_6xx/gpio.c",line 273,column 26,is_stmt,is
     836 000000 4C4F          MOV.B     r12,r15               ; [] |273| 
     837 000002 025F          RLAM.W    #1,r15                ; [] |273| 
     838 000004 1840!         MOVX.W    GPIO_PORT_TO_BASE+0(r15),r15 ; [] |273| 
         000006 4F1F 
         000008 0000 
     839                    .dwpsn  file "../MP430DriverLib/driverlib/MSP430F5xx_6xx/gpio.c",line 282,column 5,is_stmt,isa
     840 00000a B35C          BIT.B     #1,r12                ; [] |282| 
     841 00000c 2002          JNE       $C$L10                ; [] |282| 
     842                                                      ; [] |282| 
     843            ;* --------------------------------------------------------------------------*
     844                    .dwpsn  file "../MP430DriverLib/driverlib/MSP430F5xx_6xx/gpio.c",line 283,column 9,is_stmt,isa
     845 00000e 4D4D          MOV.B     r13,r13               ; [] |283| 
     846 000010 108D          SWPB      r13                   ; [] |283| 
     847            ;* --------------------------------------------------------------------------*
     848 000012       $C$L10:    
     849                    .dwpsn  file "../MP430DriverLib/driverlib/MSP430F5xx_6xx/gpio.c",line 286,column 5,is_stmt,isa
     850 000012 0FCE          MOVA      r15,r14               ; [] |286| 
MSP430 Assembler PC v21.6.1 Tue Dec 20 13:45:47 2022

Copyright (c) 2003-2018 Texas Instruments Incorporated
gpio.asm                                                             PAGE   17

     851 000014 503E          ADD.W     #10,r14               ; [] |286| 
         000016 000A 
     852 000018 4E0E          MOV.W     r14,r14               ; [] |286| 
     853 00001a CD8E          BIC.W     r13,0(r14)            ; [] |286| 
         00001c 0000 
     854                    .dwpsn  file "../MP430DriverLib/driverlib/MSP430F5xx_6xx/gpio.c",line 287,column 5,is_stmt,isa
     855 00001e 0FCE          MOVA      r15,r14               ; [] |287| 
     856 000020 522E          ADD.W     #4,r14                ; [] |287| 
     857 000022 4E0E          MOV.W     r14,r14               ; [] |287| 
     858 000024 CD8E          BIC.W     r13,0(r14)            ; [] |287| 
         000026 0000 
     859                    .dwpsn  file "../MP430DriverLib/driverlib/MSP430F5xx_6xx/gpio.c",line 288,column 5,is_stmt,isa
     860 000028 0FCE          MOVA      r15,r14               ; [] |288| 
     861 00002a 503E          ADD.W     #6,r14                ; [] |288| 
         00002c 0006 
     862 00002e 4E0E          MOV.W     r14,r14               ; [] |288| 
     863 000030 DD8E          OR.W      r13,0(r14)            ; [] |288| 
         000032 0000 
     864                    .dwpsn  file "../MP430DriverLib/driverlib/MSP430F5xx_6xx/gpio.c",line 289,column 5,is_stmt,isa
     865 000034 532F          ADD.W     #2,r15                ; [] |289| 
     866 000036 4F0F          MOV.W     r15,r15               ; [] |289| 
     867 000038 DD8F          OR.W      r13,0(r15)            ; [] |289| 
         00003a 0000 
     868                    .dwpsn  file "../MP430DriverLib/driverlib/MSP430F5xx_6xx/gpio.c",line 290,column 1,is_stmt,isa
     869            $C$DW$59        .dwtag  DW_TAG_TI_branch
     870                    .dwattr $C$DW$59, DW_AT_low_pc(0x00)
     871                    .dwattr $C$DW$59, DW_AT_TI_return
     872            
     873 00003c 0110          RETA      ; [] 
     874                    ; [] 
     875                    .dwattr $C$DW$53, DW_AT_TI_end_file("../MP430DriverLib/driverlib/MSP430F5xx_6xx/gpio.c")
     876                    .dwattr $C$DW$53, DW_AT_TI_end_line(0x122)
     877                    .dwattr $C$DW$53, DW_AT_TI_end_column(0x01)
     878                    .dwendentry
     879                    .dwendtag $C$DW$53
     880            
     881 000000               .sect   ".text:GPIO_setAsInputPinWithPullDownResistor"
     882                    .clink
     883                    .global GPIO_setAsInputPinWithPullDownResistor
     884            
     885            $C$DW$60        .dwtag  DW_TAG_subprogram
     886                    .dwattr $C$DW$60, DW_AT_name("GPIO_setAsInputPinWithPullDownResistor")
     887                    .dwattr $C$DW$60, DW_AT_low_pc(GPIO_setAsInputPinWithPullDownResistor)
     888                    .dwattr $C$DW$60, DW_AT_high_pc(0x00)
     889                    .dwattr $C$DW$60, DW_AT_TI_symbol_name("GPIO_setAsInputPinWithPullDownResistor")
     890                    .dwattr $C$DW$60, DW_AT_external
     891                    .dwattr $C$DW$60, DW_AT_TI_begin_file("../MP430DriverLib/driverlib/MSP430F5xx_6xx/gpio.c")
     892                    .dwattr $C$DW$60, DW_AT_TI_begin_line(0xf7)
     893                    .dwattr $C$DW$60, DW_AT_TI_begin_column(0x06)
     894                    .dwattr $C$DW$60, DW_AT_decl_file("../MP430DriverLib/driverlib/MSP430F5xx_6xx/gpio.c")
     895                    .dwattr $C$DW$60, DW_AT_decl_line(0xf7)
     896                    .dwattr $C$DW$60, DW_AT_decl_column(0x06)
     897                    .dwattr $C$DW$60, DW_AT_TI_max_frame_size(0x04)
     898                    .dwpsn  file "../MP430DriverLib/driverlib/MSP430F5xx_6xx/gpio.c",line 248,column 73,is_stmt,ad
     899            
MSP430 Assembler PC v21.6.1 Tue Dec 20 13:45:47 2022

Copyright (c) 2003-2018 Texas Instruments Incorporated
gpio.asm                                                             PAGE   18

     900                    .dwfde $C$DW$CIE, GPIO_setAsInputPinWithPullDownResistor
     901            $C$DW$61        .dwtag  DW_TAG_formal_parameter
     902                    .dwattr $C$DW$61, DW_AT_name("selectedPort")
     903                    .dwattr $C$DW$61, DW_AT_TI_symbol_name("selectedPort")
     904                    .dwattr $C$DW$61, DW_AT_type(*$C$DW$T$24)
     905                    .dwattr $C$DW$61, DW_AT_location[DW_OP_reg12]
     906            
     907            $C$DW$62        .dwtag  DW_TAG_formal_parameter
     908                    .dwattr $C$DW$62, DW_AT_name("selectedPins")
     909                    .dwattr $C$DW$62, DW_AT_TI_symbol_name("selectedPins")
     910                    .dwattr $C$DW$62, DW_AT_type(*$C$DW$T$26)
     911                    .dwattr $C$DW$62, DW_AT_location[DW_OP_reg13]
     912            
     913            
     914            ;*****************************************************************************
     915            ;* FUNCTION NAME: GPIO_setAsInputPinWithPullDownResistor                     *
     916            ;*                                                                           *
     917            ;*   Regs Modified     : SP,SR,r13,r14,r15                                   *
     918            ;*   Regs Used         : SP,SR,r12,r13,r14,r15                               *
     919            ;*   Local Frame Size  : 0 Args + 0 Auto + 0 Save = 0 byte                   *
     920            ;*****************************************************************************
     921 000000       GPIO_setAsInputPinWithPullDownResistor:
     922            ;* --------------------------------------------------------------------------*
     923                    .dwcfi  cfa_offset, 4
     924                    .dwcfi  save_reg_to_mem, 16, -4
     925            ;* r12   assigned to selectedPort
     926            $C$DW$63        .dwtag  DW_TAG_variable
     927                    .dwattr $C$DW$63, DW_AT_name("selectedPort")
     928                    .dwattr $C$DW$63, DW_AT_TI_symbol_name("selectedPort")
     929                    .dwattr $C$DW$63, DW_AT_type(*$C$DW$T$24)
     930                    .dwattr $C$DW$63, DW_AT_location[DW_OP_reg12]
     931            
     932            ;* r13   assigned to selectedPins
     933            $C$DW$64        .dwtag  DW_TAG_variable
     934                    .dwattr $C$DW$64, DW_AT_name("selectedPins")
     935                    .dwattr $C$DW$64, DW_AT_TI_symbol_name("selectedPins")
     936                    .dwattr $C$DW$64, DW_AT_type(*$C$DW$T$26)
     937                    .dwattr $C$DW$64, DW_AT_location[DW_OP_reg13]
     938            
     939            ;* r15   assigned to baseAddress
     940            $C$DW$65        .dwtag  DW_TAG_variable
     941                    .dwattr $C$DW$65, DW_AT_name("baseAddress")
     942                    .dwattr $C$DW$65, DW_AT_TI_symbol_name("baseAddress")
     943                    .dwattr $C$DW$65, DW_AT_type(*$C$DW$T$26)
     944                    .dwattr $C$DW$65, DW_AT_location[DW_OP_reg15]
     945            
     946                    .dwpsn  file "../MP430DriverLib/driverlib/MSP430F5xx_6xx/gpio.c",line 250,column 26,is_stmt,is
     947 000000 4C4F          MOV.B     r12,r15               ; [] |250| 
     948 000002 025F          RLAM.W    #1,r15                ; [] |250| 
     949 000004 1840!         MOVX.W    GPIO_PORT_TO_BASE+0(r15),r15 ; [] |250| 
         000006 4F1F 
         000008 0000 
     950                    .dwpsn  file "../MP430DriverLib/driverlib/MSP430F5xx_6xx/gpio.c",line 259,column 5,is_stmt,isa
     951 00000a B35C          BIT.B     #1,r12                ; [] |259| 
     952 00000c 2002          JNE       $C$L11                ; [] |259| 
MSP430 Assembler PC v21.6.1 Tue Dec 20 13:45:47 2022

Copyright (c) 2003-2018 Texas Instruments Incorporated
gpio.asm                                                             PAGE   19

     953                                                      ; [] |259| 
     954            ;* --------------------------------------------------------------------------*
     955                    .dwpsn  file "../MP430DriverLib/driverlib/MSP430F5xx_6xx/gpio.c",line 260,column 9,is_stmt,isa
     956 00000e 4D4D          MOV.B     r13,r13               ; [] |260| 
     957 000010 108D          SWPB      r13                   ; [] |260| 
     958            ;* --------------------------------------------------------------------------*
     959 000012       $C$L11:    
     960                    .dwpsn  file "../MP430DriverLib/driverlib/MSP430F5xx_6xx/gpio.c",line 263,column 5,is_stmt,isa
     961 000012 0FCE          MOVA      r15,r14               ; [] |263| 
     962 000014 503E          ADD.W     #10,r14               ; [] |263| 
         000016 000A 
     963 000018 4E0E          MOV.W     r14,r14               ; [] |263| 
     964 00001a CD8E          BIC.W     r13,0(r14)            ; [] |263| 
         00001c 0000 
     965                    .dwpsn  file "../MP430DriverLib/driverlib/MSP430F5xx_6xx/gpio.c",line 265,column 5,is_stmt,isa
     966 00001e 0FCE          MOVA      r15,r14               ; [] |265| 
     967 000020 522E          ADD.W     #4,r14                ; [] |265| 
     968 000022 4E0E          MOV.W     r14,r14               ; [] |265| 
     969 000024 CD8E          BIC.W     r13,0(r14)            ; [] |265| 
         000026 0000 
     970                    .dwpsn  file "../MP430DriverLib/driverlib/MSP430F5xx_6xx/gpio.c",line 266,column 5,is_stmt,isa
     971 000028 0FCE          MOVA      r15,r14               ; [] |266| 
     972 00002a 503E          ADD.W     #6,r14                ; [] |266| 
         00002c 0006 
     973 00002e 4E0E          MOV.W     r14,r14               ; [] |266| 
     974 000030 DD8E          OR.W      r13,0(r14)            ; [] |266| 
         000032 0000 
     975                    .dwpsn  file "../MP430DriverLib/driverlib/MSP430F5xx_6xx/gpio.c",line 267,column 5,is_stmt,isa
     976 000034 532F          ADD.W     #2,r15                ; [] |267| 
     977 000036 4F0F          MOV.W     r15,r15               ; [] |267| 
     978 000038 CD8F          BIC.W     r13,0(r15)            ; [] |267| 
         00003a 0000 
     979                    .dwpsn  file "../MP430DriverLib/driverlib/MSP430F5xx_6xx/gpio.c",line 268,column 1,is_stmt,isa
     980            $C$DW$66        .dwtag  DW_TAG_TI_branch
     981                    .dwattr $C$DW$66, DW_AT_low_pc(0x00)
     982                    .dwattr $C$DW$66, DW_AT_TI_return
     983            
     984 00003c 0110          RETA      ; [] 
     985                    ; [] 
     986                    .dwattr $C$DW$60, DW_AT_TI_end_file("../MP430DriverLib/driverlib/MSP430F5xx_6xx/gpio.c")
     987                    .dwattr $C$DW$60, DW_AT_TI_end_line(0x10c)
     988                    .dwattr $C$DW$60, DW_AT_TI_end_column(0x01)
     989                    .dwendentry
     990                    .dwendtag $C$DW$60
     991            
     992 000000               .sect   ".text:GPIO_setAsInputPin"
     993                    .clink
     994                    .global GPIO_setAsInputPin
     995            
     996            $C$DW$67        .dwtag  DW_TAG_subprogram
     997                    .dwattr $C$DW$67, DW_AT_name("GPIO_setAsInputPin")
     998                    .dwattr $C$DW$67, DW_AT_low_pc(GPIO_setAsInputPin)
     999                    .dwattr $C$DW$67, DW_AT_high_pc(0x00)
    1000                    .dwattr $C$DW$67, DW_AT_TI_symbol_name("GPIO_setAsInputPin")
    1001                    .dwattr $C$DW$67, DW_AT_external
MSP430 Assembler PC v21.6.1 Tue Dec 20 13:45:47 2022

Copyright (c) 2003-2018 Texas Instruments Incorporated
gpio.asm                                                             PAGE   20

    1002                    .dwattr $C$DW$67, DW_AT_TI_begin_file("../MP430DriverLib/driverlib/MSP430F5xx_6xx/gpio.c")
    1003                    .dwattr $C$DW$67, DW_AT_TI_begin_line(0x83)
    1004                    .dwattr $C$DW$67, DW_AT_TI_begin_column(0x06)
    1005                    .dwattr $C$DW$67, DW_AT_decl_file("../MP430DriverLib/driverlib/MSP430F5xx_6xx/gpio.c")
    1006                    .dwattr $C$DW$67, DW_AT_decl_line(0x83)
    1007                    .dwattr $C$DW$67, DW_AT_decl_column(0x06)
    1008                    .dwattr $C$DW$67, DW_AT_TI_max_frame_size(0x04)
    1009                    .dwpsn  file "../MP430DriverLib/driverlib/MSP430F5xx_6xx/gpio.c",line 131,column 70,is_stmt,ad
    1010            
    1011                    .dwfde $C$DW$CIE, GPIO_setAsInputPin
    1012            $C$DW$68        .dwtag  DW_TAG_formal_parameter
    1013                    .dwattr $C$DW$68, DW_AT_name("selectedPort")
    1014                    .dwattr $C$DW$68, DW_AT_TI_symbol_name("selectedPort")
    1015                    .dwattr $C$DW$68, DW_AT_type(*$C$DW$T$24)
    1016                    .dwattr $C$DW$68, DW_AT_location[DW_OP_reg12]
    1017            
    1018            $C$DW$69        .dwtag  DW_TAG_formal_parameter
    1019                    .dwattr $C$DW$69, DW_AT_name("selectedPins")
    1020                    .dwattr $C$DW$69, DW_AT_TI_symbol_name("selectedPins")
    1021                    .dwattr $C$DW$69, DW_AT_type(*$C$DW$T$26)
    1022                    .dwattr $C$DW$69, DW_AT_location[DW_OP_reg13]
    1023            
    1024            
    1025            ;*****************************************************************************
    1026            ;* FUNCTION NAME: GPIO_setAsInputPin                                         *
    1027            ;*                                                                           *
    1028            ;*   Regs Modified     : SP,SR,r13,r14,r15                                   *
    1029            ;*   Regs Used         : SP,SR,r12,r13,r14,r15                               *
    1030            ;*   Local Frame Size  : 0 Args + 0 Auto + 0 Save = 0 byte                   *
    1031            ;*****************************************************************************
    1032 000000       GPIO_setAsInputPin:
    1033            ;* --------------------------------------------------------------------------*
    1034                    .dwcfi  cfa_offset, 4
    1035                    .dwcfi  save_reg_to_mem, 16, -4
    1036            ;* r12   assigned to selectedPort
    1037            $C$DW$70        .dwtag  DW_TAG_variable
    1038                    .dwattr $C$DW$70, DW_AT_name("selectedPort")
    1039                    .dwattr $C$DW$70, DW_AT_TI_symbol_name("selectedPort")
    1040                    .dwattr $C$DW$70, DW_AT_type(*$C$DW$T$24)
    1041                    .dwattr $C$DW$70, DW_AT_location[DW_OP_reg12]
    1042            
    1043            ;* r13   assigned to selectedPins
    1044            $C$DW$71        .dwtag  DW_TAG_variable
    1045                    .dwattr $C$DW$71, DW_AT_name("selectedPins")
    1046                    .dwattr $C$DW$71, DW_AT_TI_symbol_name("selectedPins")
    1047                    .dwattr $C$DW$71, DW_AT_type(*$C$DW$T$26)
    1048                    .dwattr $C$DW$71, DW_AT_location[DW_OP_reg13]
    1049            
    1050            ;* r15   assigned to baseAddress
    1051            $C$DW$72        .dwtag  DW_TAG_variable
    1052                    .dwattr $C$DW$72, DW_AT_name("baseAddress")
    1053                    .dwattr $C$DW$72, DW_AT_TI_symbol_name("baseAddress")
    1054                    .dwattr $C$DW$72, DW_AT_type(*$C$DW$T$26)
    1055                    .dwattr $C$DW$72, DW_AT_location[DW_OP_reg15]
    1056            
MSP430 Assembler PC v21.6.1 Tue Dec 20 13:45:47 2022

Copyright (c) 2003-2018 Texas Instruments Incorporated
gpio.asm                                                             PAGE   21

    1057                    .dwpsn  file "../MP430DriverLib/driverlib/MSP430F5xx_6xx/gpio.c",line 133,column 26,is_stmt,is
    1058 000000 4C4F          MOV.B     r12,r15               ; [] |133| 
    1059 000002 025F          RLAM.W    #1,r15                ; [] |133| 
    1060 000004 1840!         MOVX.W    GPIO_PORT_TO_BASE+0(r15),r15 ; [] |133| 
         000006 4F1F 
         000008 0000 
    1061                    .dwpsn  file "../MP430DriverLib/driverlib/MSP430F5xx_6xx/gpio.c",line 142,column 5,is_stmt,isa
    1062 00000a B35C          BIT.B     #1,r12                ; [] |142| 
    1063 00000c 2002          JNE       $C$L12                ; [] |142| 
    1064                                                      ; [] |142| 
    1065            ;* --------------------------------------------------------------------------*
    1066                    .dwpsn  file "../MP430DriverLib/driverlib/MSP430F5xx_6xx/gpio.c",line 143,column 9,is_stmt,isa
    1067 00000e 4D4D          MOV.B     r13,r13               ; [] |143| 
    1068 000010 108D          SWPB      r13                   ; [] |143| 
    1069            ;* --------------------------------------------------------------------------*
    1070 000012       $C$L12:    
    1071                    .dwpsn  file "../MP430DriverLib/driverlib/MSP430F5xx_6xx/gpio.c",line 146,column 5,is_stmt,isa
    1072 000012 0FCE          MOVA      r15,r14               ; [] |146| 
    1073 000014 503E          ADD.W     #10,r14               ; [] |146| 
         000016 000A 
    1074 000018 4E0E          MOV.W     r14,r14               ; [] |146| 
    1075 00001a CD8E          BIC.W     r13,0(r14)            ; [] |146| 
         00001c 0000 
    1076                    .dwpsn  file "../MP430DriverLib/driverlib/MSP430F5xx_6xx/gpio.c",line 147,column 5,is_stmt,isa
    1077 00001e 0FCE          MOVA      r15,r14               ; [] |147| 
    1078 000020 522E          ADD.W     #4,r14                ; [] |147| 
    1079 000022 4E0E          MOV.W     r14,r14               ; [] |147| 
    1080 000024 CD8E          BIC.W     r13,0(r14)            ; [] |147| 
         000026 0000 
    1081                    .dwpsn  file "../MP430DriverLib/driverlib/MSP430F5xx_6xx/gpio.c",line 148,column 5,is_stmt,isa
    1082 000028 503F          ADD.W     #6,r15                ; [] |148| 
         00002a 0006 
    1083 00002c 4F0F          MOV.W     r15,r15               ; [] |148| 
    1084 00002e CD8F          BIC.W     r13,0(r15)            ; [] |148| 
         000030 0000 
    1085                    .dwpsn  file "../MP430DriverLib/driverlib/MSP430F5xx_6xx/gpio.c",line 149,column 1,is_stmt,isa
    1086            $C$DW$73        .dwtag  DW_TAG_TI_branch
    1087                    .dwattr $C$DW$73, DW_AT_low_pc(0x00)
    1088                    .dwattr $C$DW$73, DW_AT_TI_return
    1089            
    1090 000032 0110          RETA      ; [] 
    1091                    ; [] 
    1092                    .dwattr $C$DW$67, DW_AT_TI_end_file("../MP430DriverLib/driverlib/MSP430F5xx_6xx/gpio.c")
    1093                    .dwattr $C$DW$67, DW_AT_TI_end_line(0x95)
    1094                    .dwattr $C$DW$67, DW_AT_TI_end_column(0x01)
    1095                    .dwendentry
    1096                    .dwendtag $C$DW$67
    1097            
    1098 000000               .sect   ".text:GPIO_selectInterruptEdge"
    1099                    .clink
    1100                    .global GPIO_selectInterruptEdge
    1101            
    1102            $C$DW$74        .dwtag  DW_TAG_subprogram
    1103                    .dwattr $C$DW$74, DW_AT_name("GPIO_selectInterruptEdge")
    1104                    .dwattr $C$DW$74, DW_AT_low_pc(GPIO_selectInterruptEdge)
MSP430 Assembler PC v21.6.1 Tue Dec 20 13:45:47 2022

Copyright (c) 2003-2018 Texas Instruments Incorporated
gpio.asm                                                             PAGE   22

    1105                    .dwattr $C$DW$74, DW_AT_high_pc(0x00)
    1106                    .dwattr $C$DW$74, DW_AT_TI_symbol_name("GPIO_selectInterruptEdge")
    1107                    .dwattr $C$DW$74, DW_AT_external
    1108                    .dwattr $C$DW$74, DW_AT_TI_begin_file("../MP430DriverLib/driverlib/MSP430F5xx_6xx/gpio.c")
    1109                    .dwattr $C$DW$74, DW_AT_TI_begin_line(0x18c)
    1110                    .dwattr $C$DW$74, DW_AT_TI_begin_column(0x06)
    1111                    .dwattr $C$DW$74, DW_AT_decl_file("../MP430DriverLib/driverlib/MSP430F5xx_6xx/gpio.c")
    1112                    .dwattr $C$DW$74, DW_AT_decl_line(0x18c)
    1113                    .dwattr $C$DW$74, DW_AT_decl_column(0x06)
    1114                    .dwattr $C$DW$74, DW_AT_TI_max_frame_size(0x04)
    1115                    .dwpsn  file "../MP430DriverLib/driverlib/MSP430F5xx_6xx/gpio.c",line 397,column 56,is_stmt,ad
    1116            
    1117                    .dwfde $C$DW$CIE, GPIO_selectInterruptEdge
    1118            $C$DW$75        .dwtag  DW_TAG_formal_parameter
    1119                    .dwattr $C$DW$75, DW_AT_name("selectedPort")
    1120                    .dwattr $C$DW$75, DW_AT_TI_symbol_name("selectedPort")
    1121                    .dwattr $C$DW$75, DW_AT_type(*$C$DW$T$24)
    1122                    .dwattr $C$DW$75, DW_AT_location[DW_OP_reg12]
    1123            
    1124            $C$DW$76        .dwtag  DW_TAG_formal_parameter
    1125                    .dwattr $C$DW$76, DW_AT_name("selectedPins")
    1126                    .dwattr $C$DW$76, DW_AT_TI_symbol_name("selectedPins")
    1127                    .dwattr $C$DW$76, DW_AT_type(*$C$DW$T$26)
    1128                    .dwattr $C$DW$76, DW_AT_location[DW_OP_reg13]
    1129            
    1130            $C$DW$77        .dwtag  DW_TAG_formal_parameter
    1131                    .dwattr $C$DW$77, DW_AT_name("edgeSelect")
    1132                    .dwattr $C$DW$77, DW_AT_TI_symbol_name("edgeSelect")
    1133                    .dwattr $C$DW$77, DW_AT_type(*$C$DW$T$24)
    1134                    .dwattr $C$DW$77, DW_AT_location[DW_OP_reg14]
    1135            
    1136            
    1137            ;*****************************************************************************
    1138            ;* FUNCTION NAME: GPIO_selectInterruptEdge                                   *
    1139            ;*                                                                           *
    1140            ;*   Regs Modified     : SP,SR,r13,r15                                       *
    1141            ;*   Regs Used         : SP,SR,r12,r13,r14,r15                               *
    1142            ;*   Local Frame Size  : 0 Args + 0 Auto + 0 Save = 0 byte                   *
    1143            ;*****************************************************************************
    1144 000000       GPIO_selectInterruptEdge:
    1145            ;* --------------------------------------------------------------------------*
    1146                    .dwcfi  cfa_offset, 4
    1147                    .dwcfi  save_reg_to_mem, 16, -4
    1148            ;* r12   assigned to selectedPort
    1149            $C$DW$78        .dwtag  DW_TAG_variable
    1150                    .dwattr $C$DW$78, DW_AT_name("selectedPort")
    1151                    .dwattr $C$DW$78, DW_AT_TI_symbol_name("selectedPort")
    1152                    .dwattr $C$DW$78, DW_AT_type(*$C$DW$T$24)
    1153                    .dwattr $C$DW$78, DW_AT_location[DW_OP_reg12]
    1154            
    1155            ;* r13   assigned to selectedPins
    1156            $C$DW$79        .dwtag  DW_TAG_variable
    1157                    .dwattr $C$DW$79, DW_AT_name("selectedPins")
    1158                    .dwattr $C$DW$79, DW_AT_TI_symbol_name("selectedPins")
    1159                    .dwattr $C$DW$79, DW_AT_type(*$C$DW$T$26)
MSP430 Assembler PC v21.6.1 Tue Dec 20 13:45:47 2022

Copyright (c) 2003-2018 Texas Instruments Incorporated
gpio.asm                                                             PAGE   23

    1160                    .dwattr $C$DW$79, DW_AT_location[DW_OP_reg13]
    1161            
    1162            ;* r14   assigned to edgeSelect
    1163            $C$DW$80        .dwtag  DW_TAG_variable
    1164                    .dwattr $C$DW$80, DW_AT_name("edgeSelect")
    1165                    .dwattr $C$DW$80, DW_AT_TI_symbol_name("edgeSelect")
    1166                    .dwattr $C$DW$80, DW_AT_type(*$C$DW$T$24)
    1167                    .dwattr $C$DW$80, DW_AT_location[DW_OP_reg14]
    1168            
    1169            ;* r15   assigned to baseAddress
    1170            $C$DW$81        .dwtag  DW_TAG_variable
    1171                    .dwattr $C$DW$81, DW_AT_name("baseAddress")
    1172                    .dwattr $C$DW$81, DW_AT_TI_symbol_name("baseAddress")
    1173                    .dwattr $C$DW$81, DW_AT_type(*$C$DW$T$26)
    1174                    .dwattr $C$DW$81, DW_AT_location[DW_OP_reg15]
    1175            
    1176                    .dwpsn  file "../MP430DriverLib/driverlib/MSP430F5xx_6xx/gpio.c",line 399,column 26,is_stmt,is
    1177 000000 4C4F          MOV.B     r12,r15               ; [] |399| 
    1178 000002 025F          RLAM.W    #1,r15                ; [] |399| 
    1179 000004 1840!         MOVX.W    GPIO_PORT_TO_BASE+0(r15),r15 ; [] |399| 
         000006 4F1F 
         000008 0000 
    1180                    .dwpsn  file "../MP430DriverLib/driverlib/MSP430F5xx_6xx/gpio.c",line 408,column 5,is_stmt,isa
    1181 00000a B35C          BIT.B     #1,r12                ; [] |408| 
    1182 00000c 2002          JNE       $C$L13                ; [] |408| 
    1183                                                      ; [] |408| 
    1184            ;* --------------------------------------------------------------------------*
    1185                    .dwpsn  file "../MP430DriverLib/driverlib/MSP430F5xx_6xx/gpio.c",line 409,column 9,is_stmt,isa
    1186 00000e 4D4D          MOV.B     r13,r13               ; [] |409| 
    1187 000010 108D          SWPB      r13                   ; [] |409| 
    1188            ;* --------------------------------------------------------------------------*
    1189 000012       $C$L13:    
    1190                    .dwpsn  file "../MP430DriverLib/driverlib/MSP430F5xx_6xx/gpio.c",line 412,column 5,is_stmt,isa
    1191 000012 934E          TST.B     r14                   ; [] |412| 
    1192 000014 2006          JNE       $C$L14                ; [] |412| 
    1193                                                      ; [] |412| 
    1194            ;* --------------------------------------------------------------------------*
    1195                    .dwpsn  file "../MP430DriverLib/driverlib/MSP430F5xx_6xx/gpio.c",line 413,column 9,is_stmt,isa
    1196 000016 503F          ADD.W     #24,r15               ; [] |413| 
         000018 0018 
    1197 00001a 4F0F          MOV.W     r15,r15               ; [] |413| 
    1198 00001c CD8F          BIC.W     r13,0(r15)            ; [] |413| 
         00001e 0000 
    1199 000020 3C05          JMP       $C$L15                ; [] 
    1200                                                      ; [] 
    1201            ;* --------------------------------------------------------------------------*
    1202 000022       $C$L14:    
    1203                    .dwpsn  file "../MP430DriverLib/driverlib/MSP430F5xx_6xx/gpio.c",line 416,column 9,is_stmt,isa
    1204 000022 503F          ADD.W     #24,r15               ; [] |416| 
         000024 0018 
    1205 000026 4F0F          MOV.W     r15,r15               ; [] |416| 
    1206 000028 DD8F          OR.W      r13,0(r15)            ; [] |416| 
         00002a 0000 
    1207            ;* --------------------------------------------------------------------------*
    1208 00002c       $C$L15:    
MSP430 Assembler PC v21.6.1 Tue Dec 20 13:45:47 2022

Copyright (c) 2003-2018 Texas Instruments Incorporated
gpio.asm                                                             PAGE   24

    1209                    .dwpsn  file "../MP430DriverLib/driverlib/MSP430F5xx_6xx/gpio.c",line 418,column 1,is_stmt,isa
    1210            $C$DW$82        .dwtag  DW_TAG_TI_branch
    1211                    .dwattr $C$DW$82, DW_AT_low_pc(0x00)
    1212                    .dwattr $C$DW$82, DW_AT_TI_return
    1213            
    1214 00002c 0110          RETA      ; [] 
    1215                    ; [] 
    1216                    .dwattr $C$DW$74, DW_AT_TI_end_file("../MP430DriverLib/driverlib/MSP430F5xx_6xx/gpio.c")
    1217                    .dwattr $C$DW$74, DW_AT_TI_end_line(0x1a2)
    1218                    .dwattr $C$DW$74, DW_AT_TI_end_column(0x01)
    1219                    .dwendentry
    1220                    .dwendtag $C$DW$74
    1221            
    1222 000000               .sect   ".text:GPIO_getInterruptStatus"
    1223                    .clink
    1224                    .global GPIO_getInterruptStatus
    1225            
    1226            $C$DW$83        .dwtag  DW_TAG_subprogram
    1227                    .dwattr $C$DW$83, DW_AT_name("GPIO_getInterruptStatus")
    1228                    .dwattr $C$DW$83, DW_AT_low_pc(GPIO_getInterruptStatus)
    1229                    .dwattr $C$DW$83, DW_AT_high_pc(0x00)
    1230                    .dwattr $C$DW$83, DW_AT_TI_symbol_name("GPIO_getInterruptStatus")
    1231                    .dwattr $C$DW$83, DW_AT_external
    1232                    .dwattr $C$DW$83, DW_AT_type(*$C$DW$T$26)
    1233                    .dwattr $C$DW$83, DW_AT_TI_begin_file("../MP430DriverLib/driverlib/MSP430F5xx_6xx/gpio.c")
    1234                    .dwattr $C$DW$83, DW_AT_TI_begin_line(0x160)
    1235                    .dwattr $C$DW$83, DW_AT_TI_begin_column(0x0a)
    1236                    .dwattr $C$DW$83, DW_AT_decl_file("../MP430DriverLib/driverlib/MSP430F5xx_6xx/gpio.c")
    1237                    .dwattr $C$DW$83, DW_AT_decl_line(0x160)
    1238                    .dwattr $C$DW$83, DW_AT_decl_column(0x0a)
    1239                    .dwattr $C$DW$83, DW_AT_TI_max_frame_size(0x04)
    1240                    .dwpsn  file "../MP430DriverLib/driverlib/MSP430F5xx_6xx/gpio.c",line 352,column 79,is_stmt,ad
    1241            
    1242                    .dwfde $C$DW$CIE, GPIO_getInterruptStatus
    1243            $C$DW$84        .dwtag  DW_TAG_formal_parameter
    1244                    .dwattr $C$DW$84, DW_AT_name("selectedPort")
    1245                    .dwattr $C$DW$84, DW_AT_TI_symbol_name("selectedPort")
    1246                    .dwattr $C$DW$84, DW_AT_type(*$C$DW$T$24)
    1247                    .dwattr $C$DW$84, DW_AT_location[DW_OP_reg12]
    1248            
    1249            $C$DW$85        .dwtag  DW_TAG_formal_parameter
    1250                    .dwattr $C$DW$85, DW_AT_name("selectedPins")
    1251                    .dwattr $C$DW$85, DW_AT_TI_symbol_name("selectedPins")
    1252                    .dwattr $C$DW$85, DW_AT_type(*$C$DW$T$26)
    1253                    .dwattr $C$DW$85, DW_AT_location[DW_OP_reg13]
    1254            
    1255            
    1256            ;*****************************************************************************
    1257            ;* FUNCTION NAME: GPIO_getInterruptStatus                                    *
    1258            ;*                                                                           *
    1259            ;*   Regs Modified     : SP,SR,r12,r15                                       *
    1260            ;*   Regs Used         : SP,SR,r12,r13,r15                                   *
    1261            ;*   Local Frame Size  : 0 Args + 0 Auto + 0 Save = 0 byte                   *
    1262            ;*****************************************************************************
    1263 000000       GPIO_getInterruptStatus:
MSP430 Assembler PC v21.6.1 Tue Dec 20 13:45:47 2022

Copyright (c) 2003-2018 Texas Instruments Incorporated
gpio.asm                                                             PAGE   25

    1264            ;* --------------------------------------------------------------------------*
    1265                    .dwcfi  cfa_offset, 4
    1266                    .dwcfi  save_reg_to_mem, 16, -4
    1267            ;* r12   assigned to selectedPort
    1268            $C$DW$86        .dwtag  DW_TAG_variable
    1269                    .dwattr $C$DW$86, DW_AT_name("selectedPort")
    1270                    .dwattr $C$DW$86, DW_AT_TI_symbol_name("selectedPort")
    1271                    .dwattr $C$DW$86, DW_AT_type(*$C$DW$T$24)
    1272                    .dwattr $C$DW$86, DW_AT_location[DW_OP_reg12]
    1273            
    1274            ;* r13   assigned to selectedPins
    1275            $C$DW$87        .dwtag  DW_TAG_variable
    1276                    .dwattr $C$DW$87, DW_AT_name("selectedPins")
    1277                    .dwattr $C$DW$87, DW_AT_TI_symbol_name("selectedPins")
    1278                    .dwattr $C$DW$87, DW_AT_type(*$C$DW$T$26)
    1279                    .dwattr $C$DW$87, DW_AT_location[DW_OP_reg13]
    1280            
    1281            ;* r15   assigned to baseAddress
    1282            $C$DW$88        .dwtag  DW_TAG_variable
    1283                    .dwattr $C$DW$88, DW_AT_name("baseAddress")
    1284                    .dwattr $C$DW$88, DW_AT_TI_symbol_name("baseAddress")
    1285                    .dwattr $C$DW$88, DW_AT_type(*$C$DW$T$26)
    1286                    .dwattr $C$DW$88, DW_AT_location[DW_OP_reg15]
    1287            
    1288                    .dwpsn  file "../MP430DriverLib/driverlib/MSP430F5xx_6xx/gpio.c",line 354,column 26,is_stmt,is
    1289 000000 4C4F          MOV.B     r12,r15               ; [] |354| 
    1290 000002 025F          RLAM.W    #1,r15                ; [] |354| 
    1291 000004 1840!         MOVX.W    GPIO_PORT_TO_BASE+0(r15),r15 ; [] |354| 
         000006 4F1F 
         000008 0000 
    1292                    .dwpsn  file "../MP430DriverLib/driverlib/MSP430F5xx_6xx/gpio.c",line 374,column 9,is_stmt,isa
    1293 00000a B35C          BIT.B     #1,r12                ; [] |374| 
    1294 00000c 2405          JEQ       $C$L16                ; [] |374| 
    1295                                                      ; [] |374| 
    1296            ;* --------------------------------------------------------------------------*
    1297 00000e 503F          ADD.W     #28,r15               ; [] |374| 
         000010 001C 
    1298 000012 4F2C          MOV.W     @r15,r12              ; [] |374| 
    1299 000014 FD0C          AND.W     r13,r12               ; [] |374| 
    1300 000016 3C0B          JMP       $C$L18                ; [] |374| 
    1301                                                      ; [] |374| 
    1302            ;* --------------------------------------------------------------------------*
    1303 000018       $C$L16:    
    1304 000018 B31F          BIT.W     #1,r15                ; [] |374| 
    1305 00001a 2405          JEQ       $C$L17                ; [] |374| 
    1306                                                      ; [] |374| 
    1307            ;* --------------------------------------------------------------------------*
    1308 00001c 503F          ADD.W     #28,r15               ; [] |374| 
         00001e 001C 
    1309 000020 4F6C          MOV.B     @r15,r12              ; [] |374| 
    1310 000022 FD0C          AND.W     r13,r12               ; [] |374| 
    1311 000024 3C04          JMP       $C$L18                ; [] |374| 
    1312                                                      ; [] |374| 
    1313            ;* --------------------------------------------------------------------------*
    1314 000026       $C$L17:    
MSP430 Assembler PC v21.6.1 Tue Dec 20 13:45:47 2022

Copyright (c) 2003-2018 Texas Instruments Incorporated
gpio.asm                                                             PAGE   26

    1315 000026 503F          ADD.W     #29,r15               ; [] |374| 
         000028 001D 
    1316 00002a 4F6C          MOV.B     @r15,r12              ; [] |374| 
    1317 00002c FD0C          AND.W     r13,r12               ; [] |374| 
    1318            ;* --------------------------------------------------------------------------*
    1319 00002e       $C$L18:    
    1320                    .dwpsn  file "../MP430DriverLib/driverlib/MSP430F5xx_6xx/gpio.c",line 376,column 1,is_stmt,isa
    1321            $C$DW$89        .dwtag  DW_TAG_TI_branch
    1322                    .dwattr $C$DW$89, DW_AT_low_pc(0x00)
    1323                    .dwattr $C$DW$89, DW_AT_TI_return
    1324            
    1325 00002e 0110          RETA      ; [] 
    1326                    ; [] 
    1327                    .dwattr $C$DW$83, DW_AT_TI_end_file("../MP430DriverLib/driverlib/MSP430F5xx_6xx/gpio.c")
    1328                    .dwattr $C$DW$83, DW_AT_TI_end_line(0x178)
    1329                    .dwattr $C$DW$83, DW_AT_TI_end_column(0x01)
    1330                    .dwendentry
    1331                    .dwendtag $C$DW$83
    1332            
    1333 000000               .sect   ".text:GPIO_getInputPinValue"
    1334                    .clink
    1335                    .global GPIO_getInputPinValue
    1336            
    1337            $C$DW$90        .dwtag  DW_TAG_subprogram
    1338                    .dwattr $C$DW$90, DW_AT_name("GPIO_getInputPinValue")
    1339                    .dwattr $C$DW$90, DW_AT_low_pc(GPIO_getInputPinValue)
    1340                    .dwattr $C$DW$90, DW_AT_high_pc(0x00)
    1341                    .dwattr $C$DW$90, DW_AT_TI_symbol_name("GPIO_getInputPinValue")
    1342                    .dwattr $C$DW$90, DW_AT_external
    1343                    .dwattr $C$DW$90, DW_AT_type(*$C$DW$T$24)
    1344                    .dwattr $C$DW$90, DW_AT_TI_begin_file("../MP430DriverLib/driverlib/MSP430F5xx_6xx/gpio.c")
    1345                    .dwattr $C$DW$90, DW_AT_TI_begin_line(0x124)
    1346                    .dwattr $C$DW$90, DW_AT_TI_begin_column(0x09)
    1347                    .dwattr $C$DW$90, DW_AT_decl_file("../MP430DriverLib/driverlib/MSP430F5xx_6xx/gpio.c")
    1348                    .dwattr $C$DW$90, DW_AT_decl_line(0x124)
    1349                    .dwattr $C$DW$90, DW_AT_decl_column(0x09)
    1350                    .dwattr $C$DW$90, DW_AT_TI_max_frame_size(0x04)
    1351                    .dwpsn  file "../MP430DriverLib/driverlib/MSP430F5xx_6xx/gpio.c",line 293,column 59,is_stmt,ad
    1352            
    1353                    .dwfde $C$DW$CIE, GPIO_getInputPinValue
    1354            $C$DW$91        .dwtag  DW_TAG_formal_parameter
    1355                    .dwattr $C$DW$91, DW_AT_name("selectedPort")
    1356                    .dwattr $C$DW$91, DW_AT_TI_symbol_name("selectedPort")
    1357                    .dwattr $C$DW$91, DW_AT_type(*$C$DW$T$24)
    1358                    .dwattr $C$DW$91, DW_AT_location[DW_OP_reg12]
    1359            
    1360            $C$DW$92        .dwtag  DW_TAG_formal_parameter
    1361                    .dwattr $C$DW$92, DW_AT_name("selectedPins")
    1362                    .dwattr $C$DW$92, DW_AT_TI_symbol_name("selectedPins")
    1363                    .dwattr $C$DW$92, DW_AT_type(*$C$DW$T$26)
    1364                    .dwattr $C$DW$92, DW_AT_location[DW_OP_reg13]
    1365            
    1366            
    1367            ;*****************************************************************************
    1368            ;* FUNCTION NAME: GPIO_getInputPinValue                                      *
MSP430 Assembler PC v21.6.1 Tue Dec 20 13:45:47 2022

Copyright (c) 2003-2018 Texas Instruments Incorporated
gpio.asm                                                             PAGE   27

    1369            ;*                                                                           *
    1370            ;*   Regs Modified     : SP,SR,r12,r13,r15                                   *
    1371            ;*   Regs Used         : SP,SR,r12,r13,r15                                   *
    1372            ;*   Local Frame Size  : 0 Args + 0 Auto + 0 Save = 0 byte                   *
    1373            ;*****************************************************************************
    1374 000000       GPIO_getInputPinValue:
    1375            ;* --------------------------------------------------------------------------*
    1376                    .dwcfi  cfa_offset, 4
    1377                    .dwcfi  save_reg_to_mem, 16, -4
    1378            ;* r12   assigned to selectedPort
    1379            $C$DW$93        .dwtag  DW_TAG_variable
    1380                    .dwattr $C$DW$93, DW_AT_name("selectedPort")
    1381                    .dwattr $C$DW$93, DW_AT_TI_symbol_name("selectedPort")
    1382                    .dwattr $C$DW$93, DW_AT_type(*$C$DW$T$24)
    1383                    .dwattr $C$DW$93, DW_AT_location[DW_OP_reg12]
    1384            
    1385            ;* r13   assigned to selectedPins
    1386            $C$DW$94        .dwtag  DW_TAG_variable
    1387                    .dwattr $C$DW$94, DW_AT_name("selectedPins")
    1388                    .dwattr $C$DW$94, DW_AT_TI_symbol_name("selectedPins")
    1389                    .dwattr $C$DW$94, DW_AT_type(*$C$DW$T$26)
    1390                    .dwattr $C$DW$94, DW_AT_location[DW_OP_reg13]
    1391            
    1392            ;* r15   assigned to baseAddress
    1393            $C$DW$95        .dwtag  DW_TAG_variable
    1394                    .dwattr $C$DW$95, DW_AT_name("baseAddress")
    1395                    .dwattr $C$DW$95, DW_AT_TI_symbol_name("baseAddress")
    1396                    .dwattr $C$DW$95, DW_AT_type(*$C$DW$T$26)
    1397                    .dwattr $C$DW$95, DW_AT_location[DW_OP_reg15]
    1398            
    1399                    .dwpsn  file "../MP430DriverLib/driverlib/MSP430F5xx_6xx/gpio.c",line 295,column 26,is_stmt,is
    1400 000000 4C4F          MOV.B     r12,r15               ; [] |295| 
    1401 000002 025F          RLAM.W    #1,r15                ; [] |295| 
    1402 000004 1840!         MOVX.W    GPIO_PORT_TO_BASE+0(r15),r15 ; [] |295| 
         000006 4F1F 
         000008 0000 
    1403                    .dwpsn  file "../MP430DriverLib/driverlib/MSP430F5xx_6xx/gpio.c",line 304,column 5,is_stmt,isa
    1404 00000a B35C          BIT.B     #1,r12                ; [] |304| 
    1405 00000c 2002          JNE       $C$L19                ; [] |304| 
    1406                                                      ; [] |304| 
    1407            ;* --------------------------------------------------------------------------*
    1408                    .dwpsn  file "../MP430DriverLib/driverlib/MSP430F5xx_6xx/gpio.c",line 305,column 9,is_stmt,isa
    1409 00000e 4D4D          MOV.B     r13,r13               ; [] |305| 
    1410 000010 108D          SWPB      r13                   ; [] |305| 
    1411            ;* --------------------------------------------------------------------------*
    1412 000012       $C$L19:    
    1413                    .dwpsn  file "../MP430DriverLib/driverlib/MSP430F5xx_6xx/gpio.c",line 311,column 9,is_stmt,isa
    1414 000012 434C          MOV.B     #0,r12                ; [] |311| 
    1415 000014 BF2D          BIT.W     @r15,r13              ; [] |311| 
    1416 000016 2401          JEQ       $C$L20                ; [] |311| 
    1417                                                      ; [] |311| 
    1418            ;* --------------------------------------------------------------------------*
    1419 000018 435C          MOV.B     #1,r12                ; [] |311| 
    1420            ;* --------------------------------------------------------------------------*
    1421 00001a       $C$L20:    
MSP430 Assembler PC v21.6.1 Tue Dec 20 13:45:47 2022

Copyright (c) 2003-2018 Texas Instruments Incorporated
gpio.asm                                                             PAGE   28

    1422                    .dwpsn  file "../MP430DriverLib/driverlib/MSP430F5xx_6xx/gpio.c",line 314,column 1,is_stmt,isa
    1423            $C$DW$96        .dwtag  DW_TAG_TI_branch
    1424                    .dwattr $C$DW$96, DW_AT_low_pc(0x00)
    1425                    .dwattr $C$DW$96, DW_AT_TI_return
    1426            
    1427 00001a 0110          RETA      ; [] 
    1428                    ; [] 
    1429                    .dwattr $C$DW$90, DW_AT_TI_end_file("../MP430DriverLib/driverlib/MSP430F5xx_6xx/gpio.c")
    1430                    .dwattr $C$DW$90, DW_AT_TI_end_line(0x13a)
    1431                    .dwattr $C$DW$90, DW_AT_TI_end_column(0x01)
    1432                    .dwendentry
    1433                    .dwendtag $C$DW$90
    1434            
    1435 000000               .sect   ".text:GPIO_enableInterrupt"
    1436                    .clink
    1437                    .global GPIO_enableInterrupt
    1438            
    1439            $C$DW$97        .dwtag  DW_TAG_subprogram
    1440                    .dwattr $C$DW$97, DW_AT_name("GPIO_enableInterrupt")
    1441                    .dwattr $C$DW$97, DW_AT_low_pc(GPIO_enableInterrupt)
    1442                    .dwattr $C$DW$97, DW_AT_high_pc(0x00)
    1443                    .dwattr $C$DW$97, DW_AT_TI_symbol_name("GPIO_enableInterrupt")
    1444                    .dwattr $C$DW$97, DW_AT_external
    1445                    .dwattr $C$DW$97, DW_AT_TI_begin_file("../MP430DriverLib/driverlib/MSP430F5xx_6xx/gpio.c")
    1446                    .dwattr $C$DW$97, DW_AT_TI_begin_line(0x13c)
    1447                    .dwattr $C$DW$97, DW_AT_TI_begin_column(0x06)
    1448                    .dwattr $C$DW$97, DW_AT_decl_file("../MP430DriverLib/driverlib/MSP430F5xx_6xx/gpio.c")
    1449                    .dwattr $C$DW$97, DW_AT_decl_line(0x13c)
    1450                    .dwattr $C$DW$97, DW_AT_decl_column(0x06)
    1451                    .dwattr $C$DW$97, DW_AT_TI_max_frame_size(0x04)
    1452                    .dwpsn  file "../MP430DriverLib/driverlib/MSP430F5xx_6xx/gpio.c",line 316,column 72,is_stmt,ad
    1453            
    1454                    .dwfde $C$DW$CIE, GPIO_enableInterrupt
    1455            $C$DW$98        .dwtag  DW_TAG_formal_parameter
    1456                    .dwattr $C$DW$98, DW_AT_name("selectedPort")
    1457                    .dwattr $C$DW$98, DW_AT_TI_symbol_name("selectedPort")
    1458                    .dwattr $C$DW$98, DW_AT_type(*$C$DW$T$24)
    1459                    .dwattr $C$DW$98, DW_AT_location[DW_OP_reg12]
    1460            
    1461            $C$DW$99        .dwtag  DW_TAG_formal_parameter
    1462                    .dwattr $C$DW$99, DW_AT_name("selectedPins")
    1463                    .dwattr $C$DW$99, DW_AT_TI_symbol_name("selectedPins")
    1464                    .dwattr $C$DW$99, DW_AT_type(*$C$DW$T$26)
    1465                    .dwattr $C$DW$99, DW_AT_location[DW_OP_reg13]
    1466            
    1467            
    1468            ;*****************************************************************************
    1469            ;* FUNCTION NAME: GPIO_enableInterrupt                                       *
    1470            ;*                                                                           *
    1471            ;*   Regs Modified     : SP,SR,r13,r15                                       *
    1472            ;*   Regs Used         : SP,SR,r12,r13,r15                                   *
    1473            ;*   Local Frame Size  : 0 Args + 0 Auto + 0 Save = 0 byte                   *
    1474            ;*****************************************************************************
    1475 000000       GPIO_enableInterrupt:
    1476            ;* --------------------------------------------------------------------------*
MSP430 Assembler PC v21.6.1 Tue Dec 20 13:45:47 2022

Copyright (c) 2003-2018 Texas Instruments Incorporated
gpio.asm                                                             PAGE   29

    1477                    .dwcfi  cfa_offset, 4
    1478                    .dwcfi  save_reg_to_mem, 16, -4
    1479            ;* r12   assigned to selectedPort
    1480            $C$DW$100       .dwtag  DW_TAG_variable
    1481                    .dwattr $C$DW$100, DW_AT_name("selectedPort")
    1482                    .dwattr $C$DW$100, DW_AT_TI_symbol_name("selectedPort")
    1483                    .dwattr $C$DW$100, DW_AT_type(*$C$DW$T$24)
    1484                    .dwattr $C$DW$100, DW_AT_location[DW_OP_reg12]
    1485            
    1486            ;* r13   assigned to selectedPins
    1487            $C$DW$101       .dwtag  DW_TAG_variable
    1488                    .dwattr $C$DW$101, DW_AT_name("selectedPins")
    1489                    .dwattr $C$DW$101, DW_AT_TI_symbol_name("selectedPins")
    1490                    .dwattr $C$DW$101, DW_AT_type(*$C$DW$T$26)
    1491                    .dwattr $C$DW$101, DW_AT_location[DW_OP_reg13]
    1492            
    1493            ;* r15   assigned to baseAddress
    1494            $C$DW$102       .dwtag  DW_TAG_variable
    1495                    .dwattr $C$DW$102, DW_AT_name("baseAddress")
    1496                    .dwattr $C$DW$102, DW_AT_TI_symbol_name("baseAddress")
    1497                    .dwattr $C$DW$102, DW_AT_type(*$C$DW$T$26)
    1498                    .dwattr $C$DW$102, DW_AT_location[DW_OP_reg15]
    1499            
    1500                    .dwpsn  file "../MP430DriverLib/driverlib/MSP430F5xx_6xx/gpio.c",line 318,column 26,is_stmt,is
    1501 000000 4C4F          MOV.B     r12,r15               ; [] |318| 
    1502 000002 025F          RLAM.W    #1,r15                ; [] |318| 
    1503 000004 1840!         MOVX.W    GPIO_PORT_TO_BASE+0(r15),r15 ; [] |318| 
         000006 4F1F 
         000008 0000 
    1504                    .dwpsn  file "../MP430DriverLib/driverlib/MSP430F5xx_6xx/gpio.c",line 327,column 5,is_stmt,isa
    1505 00000a B35C          BIT.B     #1,r12                ; [] |327| 
    1506 00000c 2002          JNE       $C$L21                ; [] |327| 
    1507                                                      ; [] |327| 
    1508            ;* --------------------------------------------------------------------------*
    1509                    .dwpsn  file "../MP430DriverLib/driverlib/MSP430F5xx_6xx/gpio.c",line 328,column 9,is_stmt,isa
    1510 00000e 4D4D          MOV.B     r13,r13               ; [] |328| 
    1511 000010 108D          SWPB      r13                   ; [] |328| 
    1512            ;* --------------------------------------------------------------------------*
    1513 000012       $C$L21:    
    1514                    .dwpsn  file "../MP430DriverLib/driverlib/MSP430F5xx_6xx/gpio.c",line 331,column 5,is_stmt,isa
    1515 000012 503F          ADD.W     #26,r15               ; [] |331| 
         000014 001A 
    1516 000016 4F0F          MOV.W     r15,r15               ; [] |331| 
    1517 000018 DD8F          OR.W      r13,0(r15)            ; [] |331| 
         00001a 0000 
    1518                    .dwpsn  file "../MP430DriverLib/driverlib/MSP430F5xx_6xx/gpio.c",line 332,column 1,is_stmt,isa
    1519            $C$DW$103       .dwtag  DW_TAG_TI_branch
    1520                    .dwattr $C$DW$103, DW_AT_low_pc(0x00)
    1521                    .dwattr $C$DW$103, DW_AT_TI_return
    1522            
    1523 00001c 0110          RETA      ; [] 
    1524                    ; [] 
    1525                    .dwattr $C$DW$97, DW_AT_TI_end_file("../MP430DriverLib/driverlib/MSP430F5xx_6xx/gpio.c")
    1526                    .dwattr $C$DW$97, DW_AT_TI_end_line(0x14c)
    1527                    .dwattr $C$DW$97, DW_AT_TI_end_column(0x01)
MSP430 Assembler PC v21.6.1 Tue Dec 20 13:45:47 2022

Copyright (c) 2003-2018 Texas Instruments Incorporated
gpio.asm                                                             PAGE   30

    1528                    .dwendentry
    1529                    .dwendtag $C$DW$97
    1530            
    1531 000000               .sect   ".text:GPIO_disableInterrupt"
    1532                    .clink
    1533                    .global GPIO_disableInterrupt
    1534            
    1535            $C$DW$104       .dwtag  DW_TAG_subprogram
    1536                    .dwattr $C$DW$104, DW_AT_name("GPIO_disableInterrupt")
    1537                    .dwattr $C$DW$104, DW_AT_low_pc(GPIO_disableInterrupt)
    1538                    .dwattr $C$DW$104, DW_AT_high_pc(0x00)
    1539                    .dwattr $C$DW$104, DW_AT_TI_symbol_name("GPIO_disableInterrupt")
    1540                    .dwattr $C$DW$104, DW_AT_external
    1541                    .dwattr $C$DW$104, DW_AT_TI_begin_file("../MP430DriverLib/driverlib/MSP430F5xx_6xx/gpio.c")
    1542                    .dwattr $C$DW$104, DW_AT_TI_begin_line(0x14e)
    1543                    .dwattr $C$DW$104, DW_AT_TI_begin_column(0x06)
    1544                    .dwattr $C$DW$104, DW_AT_decl_file("../MP430DriverLib/driverlib/MSP430F5xx_6xx/gpio.c")
    1545                    .dwattr $C$DW$104, DW_AT_decl_line(0x14e)
    1546                    .dwattr $C$DW$104, DW_AT_decl_column(0x06)
    1547                    .dwattr $C$DW$104, DW_AT_TI_max_frame_size(0x04)
    1548                    .dwpsn  file "../MP430DriverLib/driverlib/MSP430F5xx_6xx/gpio.c",line 334,column 73,is_stmt,ad
    1549            
    1550                    .dwfde $C$DW$CIE, GPIO_disableInterrupt
    1551            $C$DW$105       .dwtag  DW_TAG_formal_parameter
    1552                    .dwattr $C$DW$105, DW_AT_name("selectedPort")
    1553                    .dwattr $C$DW$105, DW_AT_TI_symbol_name("selectedPort")
    1554                    .dwattr $C$DW$105, DW_AT_type(*$C$DW$T$24)
    1555                    .dwattr $C$DW$105, DW_AT_location[DW_OP_reg12]
    1556            
    1557            $C$DW$106       .dwtag  DW_TAG_formal_parameter
    1558                    .dwattr $C$DW$106, DW_AT_name("selectedPins")
    1559                    .dwattr $C$DW$106, DW_AT_TI_symbol_name("selectedPins")
    1560                    .dwattr $C$DW$106, DW_AT_type(*$C$DW$T$26)
    1561                    .dwattr $C$DW$106, DW_AT_location[DW_OP_reg13]
    1562            
    1563            
    1564            ;*****************************************************************************
    1565            ;* FUNCTION NAME: GPIO_disableInterrupt                                      *
    1566            ;*                                                                           *
    1567            ;*   Regs Modified     : SP,SR,r13,r15                                       *
    1568            ;*   Regs Used         : SP,SR,r12,r13,r15                                   *
    1569            ;*   Local Frame Size  : 0 Args + 0 Auto + 0 Save = 0 byte                   *
    1570            ;*****************************************************************************
    1571 000000       GPIO_disableInterrupt:
    1572            ;* --------------------------------------------------------------------------*
    1573                    .dwcfi  cfa_offset, 4
    1574                    .dwcfi  save_reg_to_mem, 16, -4
    1575            ;* r12   assigned to selectedPort
    1576            $C$DW$107       .dwtag  DW_TAG_variable
    1577                    .dwattr $C$DW$107, DW_AT_name("selectedPort")
    1578                    .dwattr $C$DW$107, DW_AT_TI_symbol_name("selectedPort")
    1579                    .dwattr $C$DW$107, DW_AT_type(*$C$DW$T$24)
    1580                    .dwattr $C$DW$107, DW_AT_location[DW_OP_reg12]
    1581            
    1582            ;* r13   assigned to selectedPins
MSP430 Assembler PC v21.6.1 Tue Dec 20 13:45:47 2022

Copyright (c) 2003-2018 Texas Instruments Incorporated
gpio.asm                                                             PAGE   31

    1583            $C$DW$108       .dwtag  DW_TAG_variable
    1584                    .dwattr $C$DW$108, DW_AT_name("selectedPins")
    1585                    .dwattr $C$DW$108, DW_AT_TI_symbol_name("selectedPins")
    1586                    .dwattr $C$DW$108, DW_AT_type(*$C$DW$T$26)
    1587                    .dwattr $C$DW$108, DW_AT_location[DW_OP_reg13]
    1588            
    1589            ;* r15   assigned to baseAddress
    1590            $C$DW$109       .dwtag  DW_TAG_variable
    1591                    .dwattr $C$DW$109, DW_AT_name("baseAddress")
    1592                    .dwattr $C$DW$109, DW_AT_TI_symbol_name("baseAddress")
    1593                    .dwattr $C$DW$109, DW_AT_type(*$C$DW$T$26)
    1594                    .dwattr $C$DW$109, DW_AT_location[DW_OP_reg15]
    1595            
    1596                    .dwpsn  file "../MP430DriverLib/driverlib/MSP430F5xx_6xx/gpio.c",line 336,column 26,is_stmt,is
    1597 000000 4C4F          MOV.B     r12,r15               ; [] |336| 
    1598 000002 025F          RLAM.W    #1,r15                ; [] |336| 
    1599 000004 1840!         MOVX.W    GPIO_PORT_TO_BASE+0(r15),r15 ; [] |336| 
         000006 4F1F 
         000008 0000 
    1600                    .dwpsn  file "../MP430DriverLib/driverlib/MSP430F5xx_6xx/gpio.c",line 345,column 5,is_stmt,isa
    1601 00000a B35C          BIT.B     #1,r12                ; [] |345| 
    1602 00000c 2002          JNE       $C$L22                ; [] |345| 
    1603                                                      ; [] |345| 
    1604            ;* --------------------------------------------------------------------------*
    1605                    .dwpsn  file "../MP430DriverLib/driverlib/MSP430F5xx_6xx/gpio.c",line 346,column 9,is_stmt,isa
    1606 00000e 4D4D          MOV.B     r13,r13               ; [] |346| 
    1607 000010 108D          SWPB      r13                   ; [] |346| 
    1608            ;* --------------------------------------------------------------------------*
    1609 000012       $C$L22:    
    1610                    .dwpsn  file "../MP430DriverLib/driverlib/MSP430F5xx_6xx/gpio.c",line 349,column 5,is_stmt,isa
    1611 000012 503F          ADD.W     #26,r15               ; [] |349| 
         000014 001A 
    1612 000016 4F0F          MOV.W     r15,r15               ; [] |349| 
    1613 000018 CD8F          BIC.W     r13,0(r15)            ; [] |349| 
         00001a 0000 
    1614                    .dwpsn  file "../MP430DriverLib/driverlib/MSP430F5xx_6xx/gpio.c",line 350,column 1,is_stmt,isa
    1615            $C$DW$110       .dwtag  DW_TAG_TI_branch
    1616                    .dwattr $C$DW$110, DW_AT_low_pc(0x00)
    1617                    .dwattr $C$DW$110, DW_AT_TI_return
    1618            
    1619 00001c 0110          RETA      ; [] 
    1620                    ; [] 
    1621                    .dwattr $C$DW$104, DW_AT_TI_end_file("../MP430DriverLib/driverlib/MSP430F5xx_6xx/gpio.c")
    1622                    .dwattr $C$DW$104, DW_AT_TI_end_line(0x15e)
    1623                    .dwattr $C$DW$104, DW_AT_TI_end_column(0x01)
    1624                    .dwendentry
    1625                    .dwendtag $C$DW$104
    1626            
    1627 000000               .sect   ".text:GPIO_clearInterrupt"
    1628                    .clink
    1629                    .global GPIO_clearInterrupt
    1630            
    1631            $C$DW$111       .dwtag  DW_TAG_subprogram
    1632                    .dwattr $C$DW$111, DW_AT_name("GPIO_clearInterrupt")
    1633                    .dwattr $C$DW$111, DW_AT_low_pc(GPIO_clearInterrupt)
MSP430 Assembler PC v21.6.1 Tue Dec 20 13:45:47 2022

Copyright (c) 2003-2018 Texas Instruments Incorporated
gpio.asm                                                             PAGE   32

    1634                    .dwattr $C$DW$111, DW_AT_high_pc(0x00)
    1635                    .dwattr $C$DW$111, DW_AT_TI_symbol_name("GPIO_clearInterrupt")
    1636                    .dwattr $C$DW$111, DW_AT_external
    1637                    .dwattr $C$DW$111, DW_AT_TI_begin_file("../MP430DriverLib/driverlib/MSP430F5xx_6xx/gpio.c")
    1638                    .dwattr $C$DW$111, DW_AT_TI_begin_line(0x17a)
    1639                    .dwattr $C$DW$111, DW_AT_TI_begin_column(0x06)
    1640                    .dwattr $C$DW$111, DW_AT_decl_file("../MP430DriverLib/driverlib/MSP430F5xx_6xx/gpio.c")
    1641                    .dwattr $C$DW$111, DW_AT_decl_line(0x17a)
    1642                    .dwattr $C$DW$111, DW_AT_decl_column(0x06)
    1643                    .dwattr $C$DW$111, DW_AT_TI_max_frame_size(0x04)
    1644                    .dwpsn  file "../MP430DriverLib/driverlib/MSP430F5xx_6xx/gpio.c",line 378,column 71,is_stmt,ad
    1645            
    1646                    .dwfde $C$DW$CIE, GPIO_clearInterrupt
    1647            $C$DW$112       .dwtag  DW_TAG_formal_parameter
    1648                    .dwattr $C$DW$112, DW_AT_name("selectedPort")
    1649                    .dwattr $C$DW$112, DW_AT_TI_symbol_name("selectedPort")
    1650                    .dwattr $C$DW$112, DW_AT_type(*$C$DW$T$24)
    1651                    .dwattr $C$DW$112, DW_AT_location[DW_OP_reg12]
    1652            
    1653            $C$DW$113       .dwtag  DW_TAG_formal_parameter
    1654                    .dwattr $C$DW$113, DW_AT_name("selectedPins")
    1655                    .dwattr $C$DW$113, DW_AT_TI_symbol_name("selectedPins")
    1656                    .dwattr $C$DW$113, DW_AT_type(*$C$DW$T$26)
    1657                    .dwattr $C$DW$113, DW_AT_location[DW_OP_reg13]
    1658            
    1659            
    1660            ;*****************************************************************************
    1661            ;* FUNCTION NAME: GPIO_clearInterrupt                                        *
    1662            ;*                                                                           *
    1663            ;*   Regs Modified     : SP,SR,r13,r15                                       *
    1664            ;*   Regs Used         : SP,SR,r12,r13,r15                                   *
    1665            ;*   Local Frame Size  : 0 Args + 0 Auto + 0 Save = 0 byte                   *
    1666            ;*****************************************************************************
    1667 000000       GPIO_clearInterrupt:
    1668            ;* --------------------------------------------------------------------------*
    1669                    .dwcfi  cfa_offset, 4
    1670                    .dwcfi  save_reg_to_mem, 16, -4
    1671            ;* r12   assigned to selectedPort
    1672            $C$DW$114       .dwtag  DW_TAG_variable
    1673                    .dwattr $C$DW$114, DW_AT_name("selectedPort")
    1674                    .dwattr $C$DW$114, DW_AT_TI_symbol_name("selectedPort")
    1675                    .dwattr $C$DW$114, DW_AT_type(*$C$DW$T$24)
    1676                    .dwattr $C$DW$114, DW_AT_location[DW_OP_reg12]
    1677            
    1678            ;* r13   assigned to selectedPins
    1679            $C$DW$115       .dwtag  DW_TAG_variable
    1680                    .dwattr $C$DW$115, DW_AT_name("selectedPins")
    1681                    .dwattr $C$DW$115, DW_AT_TI_symbol_name("selectedPins")
    1682                    .dwattr $C$DW$115, DW_AT_type(*$C$DW$T$26)
    1683                    .dwattr $C$DW$115, DW_AT_location[DW_OP_reg13]
    1684            
    1685            ;* r15   assigned to baseAddress
    1686            $C$DW$116       .dwtag  DW_TAG_variable
    1687                    .dwattr $C$DW$116, DW_AT_name("baseAddress")
    1688                    .dwattr $C$DW$116, DW_AT_TI_symbol_name("baseAddress")
MSP430 Assembler PC v21.6.1 Tue Dec 20 13:45:47 2022

Copyright (c) 2003-2018 Texas Instruments Incorporated
gpio.asm                                                             PAGE   33

    1689                    .dwattr $C$DW$116, DW_AT_type(*$C$DW$T$26)
    1690                    .dwattr $C$DW$116, DW_AT_location[DW_OP_reg15]
    1691            
    1692                    .dwpsn  file "../MP430DriverLib/driverlib/MSP430F5xx_6xx/gpio.c",line 380,column 26,is_stmt,is
    1693 000000 4C4F          MOV.B     r12,r15               ; [] |380| 
    1694 000002 025F          RLAM.W    #1,r15                ; [] |380| 
    1695 000004 1840!         MOVX.W    GPIO_PORT_TO_BASE+0(r15),r15 ; [] |380| 
         000006 4F1F 
         000008 0000 
    1696                    .dwpsn  file "../MP430DriverLib/driverlib/MSP430F5xx_6xx/gpio.c",line 389,column 5,is_stmt,isa
    1697 00000a B35C          BIT.B     #1,r12                ; [] |389| 
    1698 00000c 2002          JNE       $C$L23                ; [] |389| 
    1699                                                      ; [] |389| 
    1700            ;* --------------------------------------------------------------------------*
    1701                    .dwpsn  file "../MP430DriverLib/driverlib/MSP430F5xx_6xx/gpio.c",line 390,column 9,is_stmt,isa
    1702 00000e 4D4D          MOV.B     r13,r13               ; [] |390| 
    1703 000010 108D          SWPB      r13                   ; [] |390| 
    1704            ;* --------------------------------------------------------------------------*
    1705 000012       $C$L23:    
    1706                    .dwpsn  file "../MP430DriverLib/driverlib/MSP430F5xx_6xx/gpio.c",line 393,column 5,is_stmt,isa
    1707 000012 503F          ADD.W     #28,r15               ; [] |393| 
         000014 001C 
    1708 000016 4F0F          MOV.W     r15,r15               ; [] |393| 
    1709 000018 CD8F          BIC.W     r13,0(r15)            ; [] |393| 
         00001a 0000 
    1710                    .dwpsn  file "../MP430DriverLib/driverlib/MSP430F5xx_6xx/gpio.c",line 394,column 1,is_stmt,isa
    1711            $C$DW$117       .dwtag  DW_TAG_TI_branch
    1712                    .dwattr $C$DW$117, DW_AT_low_pc(0x00)
    1713                    .dwattr $C$DW$117, DW_AT_TI_return
    1714            
    1715 00001c 0110          RETA      ; [] 
    1716                    ; [] 
    1717                    .dwattr $C$DW$111, DW_AT_TI_end_file("../MP430DriverLib/driverlib/MSP430F5xx_6xx/gpio.c")
    1718                    .dwattr $C$DW$111, DW_AT_TI_end_line(0x18a)
    1719                    .dwattr $C$DW$111, DW_AT_TI_end_column(0x01)
    1720                    .dwendentry
    1721                    .dwendtag $C$DW$111
    1722            
    1723            
    1724            ;******************************************************************************
    1725            ;* BUILD ATTRIBUTES                                                           *
    1726            ;******************************************************************************
    1727                    .battr "TI", Tag_File, 1, Tag_LPM_INFO(1)
    1728                    .battr "TI", Tag_File, 1, Tag_PORTS_INIT_INFO("012345678901ABCDEFGHIJ0000000000001111110000000
    1729                    .battr "TI", Tag_File, 1, Tag_LEA_INFO(1)
    1730                    .battr "TI", Tag_File, 1, Tag_HW_MPY32_INFO(2)
    1731                    .battr "TI", Tag_File, 1, Tag_HW_MPY_ISR_INFO(1)
    1732                    .battr "TI", Tag_File, 1, Tag_HW_MPY_INLINE_INFO(1)
    1733                    .battr "mspabi", Tag_File, 1, Tag_enum_size(3)
    1734            
    1735            ;******************************************************************************
    1736            ;* TYPE INFORMATION                                                           *
    1737            ;******************************************************************************
    1738            
    1739            $C$DW$T$21      .dwtag  DW_TAG_structure_type
MSP430 Assembler PC v21.6.1 Tue Dec 20 13:45:47 2022

Copyright (c) 2003-2018 Texas Instruments Incorporated
gpio.asm                                                             PAGE   34

    1740                    .dwattr $C$DW$T$21, DW_AT_byte_size(0x10)
    1741            $C$DW$118       .dwtag  DW_TAG_member
    1742                    .dwattr $C$DW$118, DW_AT_type(*$C$DW$T$14)
    1743                    .dwattr $C$DW$118, DW_AT_name("__max_align1")
    1744                    .dwattr $C$DW$118, DW_AT_TI_symbol_name("__max_align1")
    1745                    .dwattr $C$DW$118, DW_AT_data_member_location[DW_OP_plus_uconst 0x0]
    1746                    .dwattr $C$DW$118, DW_AT_accessibility(DW_ACCESS_public)
    1747                    .dwattr $C$DW$118, DW_AT_decl_file("C:/ti/ccs1110/ccs/tools/compiler/ti-cgt-msp430_21.6.1.LTS/
    1748                    .dwattr $C$DW$118, DW_AT_decl_line(0x7b)
    1749                    .dwattr $C$DW$118, DW_AT_decl_column(0x0c)
    1750            
    1751            $C$DW$119       .dwtag  DW_TAG_member
    1752                    .dwattr $C$DW$119, DW_AT_type(*$C$DW$T$18)
    1753                    .dwattr $C$DW$119, DW_AT_name("__max_align2")
    1754                    .dwattr $C$DW$119, DW_AT_TI_symbol_name("__max_align2")
    1755                    .dwattr $C$DW$119, DW_AT_data_member_location[DW_OP_plus_uconst 0x8]
    1756                    .dwattr $C$DW$119, DW_AT_accessibility(DW_ACCESS_public)
    1757                    .dwattr $C$DW$119, DW_AT_decl_file("C:/ti/ccs1110/ccs/tools/compiler/ti-cgt-msp430_21.6.1.LTS/
    1758                    .dwattr $C$DW$119, DW_AT_decl_line(0x7c)
    1759                    .dwattr $C$DW$119, DW_AT_decl_column(0x0e)
    1760            
    1761                    .dwattr $C$DW$T$21, DW_AT_decl_file("C:/ti/ccs1110/ccs/tools/compiler/ti-cgt-msp430_21.6.1.LTS
    1762                    .dwattr $C$DW$T$21, DW_AT_decl_line(0x7a)
    1763                    .dwattr $C$DW$T$21, DW_AT_decl_column(0x10)
    1764                    .dwendtag $C$DW$T$21
    1765            
    1766            $C$DW$T$22      .dwtag  DW_TAG_typedef
    1767                    .dwattr $C$DW$T$22, DW_AT_name("__max_align_t")
    1768                    .dwattr $C$DW$T$22, DW_AT_type(*$C$DW$T$21)
    1769                    .dwattr $C$DW$T$22, DW_AT_language(DW_LANG_C)
    1770                    .dwattr $C$DW$T$22, DW_AT_decl_file("C:/ti/ccs1110/ccs/tools/compiler/ti-cgt-msp430_21.6.1.LTS
    1771                    .dwattr $C$DW$T$22, DW_AT_decl_line(0x7d)
    1772                    .dwattr $C$DW$T$22, DW_AT_decl_column(0x03)
    1773            
    1774            $C$DW$T$2       .dwtag  DW_TAG_unspecified_type
    1775                    .dwattr $C$DW$T$2, DW_AT_name("void")
    1776            
    1777            
    1778            $C$DW$T$29      .dwtag  DW_TAG_subroutine_type
    1779                    .dwattr $C$DW$T$29, DW_AT_language(DW_LANG_C)
    1780                    .dwendtag $C$DW$T$29
    1781            
    1782            $C$DW$T$30      .dwtag  DW_TAG_pointer_type
    1783                    .dwattr $C$DW$T$30, DW_AT_type(*$C$DW$T$29)
    1784                    .dwattr $C$DW$T$30, DW_AT_address_class(0x14)
    1785            
    1786            $C$DW$T$31      .dwtag  DW_TAG_typedef
    1787                    .dwattr $C$DW$T$31, DW_AT_name("__SFR_FARPTR")
    1788                    .dwattr $C$DW$T$31, DW_AT_type(*$C$DW$T$30)
    1789                    .dwattr $C$DW$T$31, DW_AT_language(DW_LANG_C)
    1790                    .dwattr $C$DW$T$31, DW_AT_decl_file("C:\ti\ccs1110\ccs\ccs_base\msp430\include\msp430f5438a.h"
    1791                    .dwattr $C$DW$T$31, DW_AT_decl_line(0x49)
    1792                    .dwattr $C$DW$T$31, DW_AT_decl_column(0x11)
    1793            
    1794            $C$DW$T$4       .dwtag  DW_TAG_base_type
MSP430 Assembler PC v21.6.1 Tue Dec 20 13:45:47 2022

Copyright (c) 2003-2018 Texas Instruments Incorporated
gpio.asm                                                             PAGE   35

    1795                    .dwattr $C$DW$T$4, DW_AT_encoding(DW_ATE_boolean)
    1796                    .dwattr $C$DW$T$4, DW_AT_name("bool")
    1797                    .dwattr $C$DW$T$4, DW_AT_byte_size(0x01)
    1798            
    1799            $C$DW$T$5       .dwtag  DW_TAG_base_type
    1800                    .dwattr $C$DW$T$5, DW_AT_encoding(DW_ATE_signed_char)
    1801                    .dwattr $C$DW$T$5, DW_AT_name("signed char")
    1802                    .dwattr $C$DW$T$5, DW_AT_byte_size(0x01)
    1803            
    1804            $C$DW$T$32      .dwtag  DW_TAG_typedef
    1805                    .dwattr $C$DW$T$32, DW_AT_name("__int8_t")
    1806                    .dwattr $C$DW$T$32, DW_AT_type(*$C$DW$T$5)
    1807                    .dwattr $C$DW$T$32, DW_AT_language(DW_LANG_C)
    1808                    .dwattr $C$DW$T$32, DW_AT_decl_file("C:/ti/ccs1110/ccs/tools/compiler/ti-cgt-msp430_21.6.1.LTS
    1809                    .dwattr $C$DW$T$32, DW_AT_decl_line(0x36)
    1810                    .dwattr $C$DW$T$32, DW_AT_decl_column(0x16)
    1811            
    1812            $C$DW$T$33      .dwtag  DW_TAG_typedef
    1813                    .dwattr $C$DW$T$33, DW_AT_name("__int_least8_t")
    1814                    .dwattr $C$DW$T$33, DW_AT_type(*$C$DW$T$32)
    1815                    .dwattr $C$DW$T$33, DW_AT_language(DW_LANG_C)
    1816                    .dwattr $C$DW$T$33, DW_AT_decl_file("C:/ti/ccs1110/ccs/tools/compiler/ti-cgt-msp430_21.6.1.LTS
    1817                    .dwattr $C$DW$T$33, DW_AT_decl_line(0x5a)
    1818                    .dwattr $C$DW$T$33, DW_AT_decl_column(0x12)
    1819            
    1820            $C$DW$T$34      .dwtag  DW_TAG_typedef
    1821                    .dwattr $C$DW$T$34, DW_AT_name("int_least8_t")
    1822                    .dwattr $C$DW$T$34, DW_AT_type(*$C$DW$T$33)
    1823                    .dwattr $C$DW$T$34, DW_AT_language(DW_LANG_C)
    1824                    .dwattr $C$DW$T$34, DW_AT_decl_file("C:/ti/ccs1110/ccs/tools/compiler/ti-cgt-msp430_21.6.1.LTS
    1825                    .dwattr $C$DW$T$34, DW_AT_decl_line(0x2a)
    1826                    .dwattr $C$DW$T$34, DW_AT_decl_column(0x19)
    1827            
    1828            $C$DW$T$35      .dwtag  DW_TAG_typedef
    1829                    .dwattr $C$DW$T$35, DW_AT_name("int8_t")
    1830                    .dwattr $C$DW$T$35, DW_AT_type(*$C$DW$T$32)
    1831                    .dwattr $C$DW$T$35, DW_AT_language(DW_LANG_C)
    1832                    .dwattr $C$DW$T$35, DW_AT_decl_file("C:/ti/ccs1110/ccs/tools/compiler/ti-cgt-msp430_21.6.1.LTS
    1833                    .dwattr $C$DW$T$35, DW_AT_decl_line(0x25)
    1834                    .dwattr $C$DW$T$35, DW_AT_decl_column(0x13)
    1835            
    1836            $C$DW$T$6       .dwtag  DW_TAG_base_type
    1837                    .dwattr $C$DW$T$6, DW_AT_encoding(DW_ATE_unsigned_char)
    1838                    .dwattr $C$DW$T$6, DW_AT_name("unsigned char")
    1839                    .dwattr $C$DW$T$6, DW_AT_byte_size(0x01)
    1840            
    1841            $C$DW$T$23      .dwtag  DW_TAG_typedef
    1842                    .dwattr $C$DW$T$23, DW_AT_name("__uint8_t")
    1843                    .dwattr $C$DW$T$23, DW_AT_type(*$C$DW$T$6)
    1844                    .dwattr $C$DW$T$23, DW_AT_language(DW_LANG_C)
    1845                    .dwattr $C$DW$T$23, DW_AT_decl_file("C:/ti/ccs1110/ccs/tools/compiler/ti-cgt-msp430_21.6.1.LTS
    1846                    .dwattr $C$DW$T$23, DW_AT_decl_line(0x37)
    1847                    .dwattr $C$DW$T$23, DW_AT_decl_column(0x18)
    1848            
    1849            $C$DW$T$39      .dwtag  DW_TAG_typedef
MSP430 Assembler PC v21.6.1 Tue Dec 20 13:45:47 2022

Copyright (c) 2003-2018 Texas Instruments Incorporated
gpio.asm                                                             PAGE   36

    1850                    .dwattr $C$DW$T$39, DW_AT_name("__sa_family_t")
    1851                    .dwattr $C$DW$T$39, DW_AT_type(*$C$DW$T$23)
    1852                    .dwattr $C$DW$T$39, DW_AT_language(DW_LANG_C)
    1853                    .dwattr $C$DW$T$39, DW_AT_decl_file("C:/ti/ccs1110/ccs/tools/compiler/ti-cgt-msp430_21.6.1.LTS
    1854                    .dwattr $C$DW$T$39, DW_AT_decl_line(0x47)
    1855                    .dwattr $C$DW$T$39, DW_AT_decl_column(0x13)
    1856            
    1857            $C$DW$T$40      .dwtag  DW_TAG_typedef
    1858                    .dwattr $C$DW$T$40, DW_AT_name("__uint_least8_t")
    1859                    .dwattr $C$DW$T$40, DW_AT_type(*$C$DW$T$23)
    1860                    .dwattr $C$DW$T$40, DW_AT_language(DW_LANG_C)
    1861                    .dwattr $C$DW$T$40, DW_AT_decl_file("C:/ti/ccs1110/ccs/tools/compiler/ti-cgt-msp430_21.6.1.LTS
    1862                    .dwattr $C$DW$T$40, DW_AT_decl_line(0x74)
    1863                    .dwattr $C$DW$T$40, DW_AT_decl_column(0x13)
    1864            
    1865            $C$DW$T$41      .dwtag  DW_TAG_typedef
    1866                    .dwattr $C$DW$T$41, DW_AT_name("uint_least8_t")
    1867                    .dwattr $C$DW$T$41, DW_AT_type(*$C$DW$T$40)
    1868                    .dwattr $C$DW$T$41, DW_AT_language(DW_LANG_C)
    1869                    .dwattr $C$DW$T$41, DW_AT_decl_file("C:/ti/ccs1110/ccs/tools/compiler/ti-cgt-msp430_21.6.1.LTS
    1870                    .dwattr $C$DW$T$41, DW_AT_decl_line(0x2f)
    1871                    .dwattr $C$DW$T$41, DW_AT_decl_column(0x1a)
    1872            
    1873            $C$DW$T$24      .dwtag  DW_TAG_typedef
    1874                    .dwattr $C$DW$T$24, DW_AT_name("uint8_t")
    1875                    .dwattr $C$DW$T$24, DW_AT_type(*$C$DW$T$23)
    1876                    .dwattr $C$DW$T$24, DW_AT_language(DW_LANG_C)
    1877                    .dwattr $C$DW$T$24, DW_AT_decl_file("C:/ti/ccs1110/ccs/tools/compiler/ti-cgt-msp430_21.6.1.LTS
    1878                    .dwattr $C$DW$T$24, DW_AT_decl_line(0x3b)
    1879                    .dwattr $C$DW$T$24, DW_AT_decl_column(0x14)
    1880            
    1881            $C$DW$T$7       .dwtag  DW_TAG_base_type
    1882                    .dwattr $C$DW$T$7, DW_AT_encoding(DW_ATE_signed_char)
    1883                    .dwattr $C$DW$T$7, DW_AT_name("wchar_t")
    1884                    .dwattr $C$DW$T$7, DW_AT_byte_size(0x02)
    1885            
    1886            $C$DW$T$8       .dwtag  DW_TAG_base_type
    1887                    .dwattr $C$DW$T$8, DW_AT_encoding(DW_ATE_signed)
    1888                    .dwattr $C$DW$T$8, DW_AT_name("short")
    1889                    .dwattr $C$DW$T$8, DW_AT_byte_size(0x02)
    1890            
    1891            $C$DW$T$9       .dwtag  DW_TAG_base_type
    1892                    .dwattr $C$DW$T$9, DW_AT_encoding(DW_ATE_unsigned)
    1893                    .dwattr $C$DW$T$9, DW_AT_name("unsigned short")
    1894                    .dwattr $C$DW$T$9, DW_AT_byte_size(0x02)
    1895            
    1896            $C$DW$T$10      .dwtag  DW_TAG_base_type
    1897                    .dwattr $C$DW$T$10, DW_AT_encoding(DW_ATE_signed)
    1898                    .dwattr $C$DW$T$10, DW_AT_name("int")
    1899                    .dwattr $C$DW$T$10, DW_AT_byte_size(0x02)
    1900            
    1901            $C$DW$T$43      .dwtag  DW_TAG_typedef
    1902                    .dwattr $C$DW$T$43, DW_AT_name("_Mbstatet")
    1903                    .dwattr $C$DW$T$43, DW_AT_type(*$C$DW$T$10)
    1904                    .dwattr $C$DW$T$43, DW_AT_language(DW_LANG_C)
MSP430 Assembler PC v21.6.1 Tue Dec 20 13:45:47 2022

Copyright (c) 2003-2018 Texas Instruments Incorporated
gpio.asm                                                             PAGE   37

    1905                    .dwattr $C$DW$T$43, DW_AT_decl_file("C:/ti/ccs1110/ccs/tools/compiler/ti-cgt-msp430_21.6.1.LTS
    1906                    .dwattr $C$DW$T$43, DW_AT_decl_line(0x8f)
    1907                    .dwattr $C$DW$T$43, DW_AT_decl_column(0x0d)
    1908            
    1909            $C$DW$T$44      .dwtag  DW_TAG_typedef
    1910                    .dwattr $C$DW$T$44, DW_AT_name("__mbstate_t")
    1911                    .dwattr $C$DW$T$44, DW_AT_type(*$C$DW$T$43)
    1912                    .dwattr $C$DW$T$44, DW_AT_language(DW_LANG_C)
    1913                    .dwattr $C$DW$T$44, DW_AT_decl_file("C:/ti/ccs1110/ccs/tools/compiler/ti-cgt-msp430_21.6.1.LTS
    1914                    .dwattr $C$DW$T$44, DW_AT_decl_line(0x92)
    1915                    .dwattr $C$DW$T$44, DW_AT_decl_column(0x13)
    1916            
    1917            $C$DW$T$45      .dwtag  DW_TAG_typedef
    1918                    .dwattr $C$DW$T$45, DW_AT_name("__accmode_t")
    1919                    .dwattr $C$DW$T$45, DW_AT_type(*$C$DW$T$10)
    1920                    .dwattr $C$DW$T$45, DW_AT_language(DW_LANG_C)
    1921                    .dwattr $C$DW$T$45, DW_AT_decl_file("C:/ti/ccs1110/ccs/tools/compiler/ti-cgt-msp430_21.6.1.LTS
    1922                    .dwattr $C$DW$T$45, DW_AT_decl_line(0x3b)
    1923                    .dwattr $C$DW$T$45, DW_AT_decl_column(0x0e)
    1924            
    1925            $C$DW$T$46      .dwtag  DW_TAG_typedef
    1926                    .dwattr $C$DW$T$46, DW_AT_name("__cpulevel_t")
    1927                    .dwattr $C$DW$T$46, DW_AT_type(*$C$DW$T$10)
    1928                    .dwattr $C$DW$T$46, DW_AT_language(DW_LANG_C)
    1929                    .dwattr $C$DW$T$46, DW_AT_decl_file("C:/ti/ccs1110/ccs/tools/compiler/ti-cgt-msp430_21.6.1.LTS
    1930                    .dwattr $C$DW$T$46, DW_AT_decl_line(0x50)
    1931                    .dwattr $C$DW$T$46, DW_AT_decl_column(0x0e)
    1932            
    1933            $C$DW$T$47      .dwtag  DW_TAG_typedef
    1934                    .dwattr $C$DW$T$47, DW_AT_name("__cpusetid_t")
    1935                    .dwattr $C$DW$T$47, DW_AT_type(*$C$DW$T$10)
    1936                    .dwattr $C$DW$T$47, DW_AT_language(DW_LANG_C)
    1937                    .dwattr $C$DW$T$47, DW_AT_decl_file("C:/ti/ccs1110/ccs/tools/compiler/ti-cgt-msp430_21.6.1.LTS
    1938                    .dwattr $C$DW$T$47, DW_AT_decl_line(0x51)
    1939                    .dwattr $C$DW$T$47, DW_AT_decl_column(0x0e)
    1940            
    1941            $C$DW$T$48      .dwtag  DW_TAG_typedef
    1942                    .dwattr $C$DW$T$48, DW_AT_name("__cpuwhich_t")
    1943                    .dwattr $C$DW$T$48, DW_AT_type(*$C$DW$T$10)
    1944                    .dwattr $C$DW$T$48, DW_AT_language(DW_LANG_C)
    1945                    .dwattr $C$DW$T$48, DW_AT_decl_file("C:/ti/ccs1110/ccs/tools/compiler/ti-cgt-msp430_21.6.1.LTS
    1946                    .dwattr $C$DW$T$48, DW_AT_decl_line(0x4f)
    1947                    .dwattr $C$DW$T$48, DW_AT_decl_column(0x0e)
    1948            
    1949            $C$DW$T$49      .dwtag  DW_TAG_typedef
    1950                    .dwattr $C$DW$T$49, DW_AT_name("__ct_rune_t")
    1951                    .dwattr $C$DW$T$49, DW_AT_type(*$C$DW$T$10)
    1952                    .dwattr $C$DW$T$49, DW_AT_language(DW_LANG_C)
    1953                    .dwattr $C$DW$T$49, DW_AT_decl_file("C:/ti/ccs1110/ccs/tools/compiler/ti-cgt-msp430_21.6.1.LTS
    1954                    .dwattr $C$DW$T$49, DW_AT_decl_line(0x69)
    1955                    .dwattr $C$DW$T$49, DW_AT_decl_column(0x0e)
    1956            
    1957            $C$DW$T$50      .dwtag  DW_TAG_typedef
    1958                    .dwattr $C$DW$T$50, DW_AT_name("__rune_t")
    1959                    .dwattr $C$DW$T$50, DW_AT_type(*$C$DW$T$49)
MSP430 Assembler PC v21.6.1 Tue Dec 20 13:45:47 2022

Copyright (c) 2003-2018 Texas Instruments Incorporated
gpio.asm                                                             PAGE   38

    1960                    .dwattr $C$DW$T$50, DW_AT_language(DW_LANG_C)
    1961                    .dwattr $C$DW$T$50, DW_AT_decl_file("C:/ti/ccs1110/ccs/tools/compiler/ti-cgt-msp430_21.6.1.LTS
    1962                    .dwattr $C$DW$T$50, DW_AT_decl_line(0x6c)
    1963                    .dwattr $C$DW$T$50, DW_AT_decl_column(0x15)
    1964            
    1965            $C$DW$T$51      .dwtag  DW_TAG_typedef
    1966                    .dwattr $C$DW$T$51, DW_AT_name("__wint_t")
    1967                    .dwattr $C$DW$T$51, DW_AT_type(*$C$DW$T$49)
    1968                    .dwattr $C$DW$T$51, DW_AT_language(DW_LANG_C)
    1969                    .dwattr $C$DW$T$51, DW_AT_decl_file("C:/ti/ccs1110/ccs/tools/compiler/ti-cgt-msp430_21.6.1.LTS
    1970                    .dwattr $C$DW$T$51, DW_AT_decl_line(0x6d)
    1971                    .dwattr $C$DW$T$51, DW_AT_decl_column(0x15)
    1972            
    1973            $C$DW$T$52      .dwtag  DW_TAG_typedef
    1974                    .dwattr $C$DW$T$52, DW_AT_name("__int16_t")
    1975                    .dwattr $C$DW$T$52, DW_AT_type(*$C$DW$T$10)
    1976                    .dwattr $C$DW$T$52, DW_AT_language(DW_LANG_C)
    1977                    .dwattr $C$DW$T$52, DW_AT_decl_file("C:/ti/ccs1110/ccs/tools/compiler/ti-cgt-msp430_21.6.1.LTS
    1978                    .dwattr $C$DW$T$52, DW_AT_decl_line(0x38)
    1979                    .dwattr $C$DW$T$52, DW_AT_decl_column(0x0f)
    1980            
    1981            $C$DW$T$53      .dwtag  DW_TAG_typedef
    1982                    .dwattr $C$DW$T$53, DW_AT_name("__int_fast16_t")
    1983                    .dwattr $C$DW$T$53, DW_AT_type(*$C$DW$T$52)
    1984                    .dwattr $C$DW$T$53, DW_AT_language(DW_LANG_C)
    1985                    .dwattr $C$DW$T$53, DW_AT_decl_file("C:/ti/ccs1110/ccs/tools/compiler/ti-cgt-msp430_21.6.1.LTS
    1986                    .dwattr $C$DW$T$53, DW_AT_decl_line(0x57)
    1987                    .dwattr $C$DW$T$53, DW_AT_decl_column(0x13)
    1988            
    1989            $C$DW$T$54      .dwtag  DW_TAG_typedef
    1990                    .dwattr $C$DW$T$54, DW_AT_name("int_fast16_t")
    1991                    .dwattr $C$DW$T$54, DW_AT_type(*$C$DW$T$53)
    1992                    .dwattr $C$DW$T$54, DW_AT_language(DW_LANG_C)
    1993                    .dwattr $C$DW$T$54, DW_AT_decl_file("C:/ti/ccs1110/ccs/tools/compiler/ti-cgt-msp430_21.6.1.LTS
    1994                    .dwattr $C$DW$T$54, DW_AT_decl_line(0x35)
    1995                    .dwattr $C$DW$T$54, DW_AT_decl_column(0x19)
    1996            
    1997            $C$DW$T$55      .dwtag  DW_TAG_typedef
    1998                    .dwattr $C$DW$T$55, DW_AT_name("__int_fast8_t")
    1999                    .dwattr $C$DW$T$55, DW_AT_type(*$C$DW$T$52)
    2000                    .dwattr $C$DW$T$55, DW_AT_language(DW_LANG_C)
    2001                    .dwattr $C$DW$T$55, DW_AT_decl_file("C:/ti/ccs1110/ccs/tools/compiler/ti-cgt-msp430_21.6.1.LTS
    2002                    .dwattr $C$DW$T$55, DW_AT_decl_line(0x56)
    2003                    .dwattr $C$DW$T$55, DW_AT_decl_column(0x13)
    2004            
    2005            $C$DW$T$56      .dwtag  DW_TAG_typedef
    2006                    .dwattr $C$DW$T$56, DW_AT_name("int_fast8_t")
    2007                    .dwattr $C$DW$T$56, DW_AT_type(*$C$DW$T$55)
    2008                    .dwattr $C$DW$T$56, DW_AT_language(DW_LANG_C)
    2009                    .dwattr $C$DW$T$56, DW_AT_decl_file("C:/ti/ccs1110/ccs/tools/compiler/ti-cgt-msp430_21.6.1.LTS
    2010                    .dwattr $C$DW$T$56, DW_AT_decl_line(0x34)
    2011                    .dwattr $C$DW$T$56, DW_AT_decl_column(0x18)
    2012            
    2013            $C$DW$T$57      .dwtag  DW_TAG_typedef
    2014                    .dwattr $C$DW$T$57, DW_AT_name("__int_least16_t")
MSP430 Assembler PC v21.6.1 Tue Dec 20 13:45:47 2022

Copyright (c) 2003-2018 Texas Instruments Incorporated
gpio.asm                                                             PAGE   39

    2015                    .dwattr $C$DW$T$57, DW_AT_type(*$C$DW$T$52)
    2016                    .dwattr $C$DW$T$57, DW_AT_language(DW_LANG_C)
    2017                    .dwattr $C$DW$T$57, DW_AT_decl_file("C:/ti/ccs1110/ccs/tools/compiler/ti-cgt-msp430_21.6.1.LTS
    2018                    .dwattr $C$DW$T$57, DW_AT_decl_line(0x5b)
    2019                    .dwattr $C$DW$T$57, DW_AT_decl_column(0x13)
    2020            
    2021            $C$DW$T$58      .dwtag  DW_TAG_typedef
    2022                    .dwattr $C$DW$T$58, DW_AT_name("int_least16_t")
    2023                    .dwattr $C$DW$T$58, DW_AT_type(*$C$DW$T$57)
    2024                    .dwattr $C$DW$T$58, DW_AT_language(DW_LANG_C)
    2025                    .dwattr $C$DW$T$58, DW_AT_decl_file("C:/ti/ccs1110/ccs/tools/compiler/ti-cgt-msp430_21.6.1.LTS
    2026                    .dwattr $C$DW$T$58, DW_AT_decl_line(0x2b)
    2027                    .dwattr $C$DW$T$58, DW_AT_decl_column(0x1a)
    2028            
    2029            $C$DW$T$59      .dwtag  DW_TAG_typedef
    2030                    .dwattr $C$DW$T$59, DW_AT_name("__register_t")
    2031                    .dwattr $C$DW$T$59, DW_AT_type(*$C$DW$T$52)
    2032                    .dwattr $C$DW$T$59, DW_AT_language(DW_LANG_C)
    2033                    .dwattr $C$DW$T$59, DW_AT_decl_file("C:/ti/ccs1110/ccs/tools/compiler/ti-cgt-msp430_21.6.1.LTS
    2034                    .dwattr $C$DW$T$59, DW_AT_decl_line(0x5f)
    2035                    .dwattr $C$DW$T$59, DW_AT_decl_column(0x13)
    2036            
    2037            $C$DW$T$60      .dwtag  DW_TAG_typedef
    2038                    .dwattr $C$DW$T$60, DW_AT_name("int16_t")
    2039                    .dwattr $C$DW$T$60, DW_AT_type(*$C$DW$T$52)
    2040                    .dwattr $C$DW$T$60, DW_AT_language(DW_LANG_C)
    2041                    .dwattr $C$DW$T$60, DW_AT_decl_file("C:/ti/ccs1110/ccs/tools/compiler/ti-cgt-msp430_21.6.1.LTS
    2042                    .dwattr $C$DW$T$60, DW_AT_decl_line(0x2b)
    2043                    .dwattr $C$DW$T$60, DW_AT_decl_column(0x14)
    2044            
    2045            $C$DW$T$61      .dwtag  DW_TAG_typedef
    2046                    .dwattr $C$DW$T$61, DW_AT_name("__nl_item")
    2047                    .dwattr $C$DW$T$61, DW_AT_type(*$C$DW$T$10)
    2048                    .dwattr $C$DW$T$61, DW_AT_language(DW_LANG_C)
    2049                    .dwattr $C$DW$T$61, DW_AT_decl_file("C:/ti/ccs1110/ccs/tools/compiler/ti-cgt-msp430_21.6.1.LTS
    2050                    .dwattr $C$DW$T$61, DW_AT_decl_line(0x3c)
    2051                    .dwattr $C$DW$T$61, DW_AT_decl_column(0x0e)
    2052            
    2053            $C$DW$T$62      .dwtag  DW_TAG_typedef
    2054                    .dwattr $C$DW$T$62, DW_AT_name("__ptrdiff_t")
    2055                    .dwattr $C$DW$T$62, DW_AT_type(*$C$DW$T$10)
    2056                    .dwattr $C$DW$T$62, DW_AT_language(DW_LANG_C)
    2057                    .dwattr $C$DW$T$62, DW_AT_decl_file("C:/ti/ccs1110/ccs/tools/compiler/ti-cgt-msp430_21.6.1.LTS
    2058                    .dwattr $C$DW$T$62, DW_AT_decl_line(0x5e)
    2059                    .dwattr $C$DW$T$62, DW_AT_decl_column(0x1c)
    2060            
    2061            $C$DW$T$11      .dwtag  DW_TAG_base_type
    2062                    .dwattr $C$DW$T$11, DW_AT_encoding(DW_ATE_unsigned)
    2063                    .dwattr $C$DW$T$11, DW_AT_name("unsigned int")
    2064                    .dwattr $C$DW$T$11, DW_AT_byte_size(0x02)
    2065            
    2066            $C$DW$T$63      .dwtag  DW_TAG_typedef
    2067                    .dwattr $C$DW$T$63, DW_AT_name("___wchar_t")
    2068                    .dwattr $C$DW$T$63, DW_AT_type(*$C$DW$T$11)
    2069                    .dwattr $C$DW$T$63, DW_AT_language(DW_LANG_C)
MSP430 Assembler PC v21.6.1 Tue Dec 20 13:45:47 2022

Copyright (c) 2003-2018 Texas Instruments Incorporated
gpio.asm                                                             PAGE   40

    2070                    .dwattr $C$DW$T$63, DW_AT_decl_file("C:/ti/ccs1110/ccs/tools/compiler/ti-cgt-msp430_21.6.1.LTS
    2071                    .dwattr $C$DW$T$63, DW_AT_decl_line(0x7d)
    2072                    .dwattr $C$DW$T$63, DW_AT_decl_column(0x1a)
    2073            
    2074            $C$DW$T$70      .dwtag  DW_TAG_typedef
    2075                    .dwattr $C$DW$T$70, DW_AT_name("__size_t")
    2076                    .dwattr $C$DW$T$70, DW_AT_type(*$C$DW$T$11)
    2077                    .dwattr $C$DW$T$70, DW_AT_language(DW_LANG_C)
    2078                    .dwattr $C$DW$T$70, DW_AT_decl_file("C:/ti/ccs1110/ccs/tools/compiler/ti-cgt-msp430_21.6.1.LTS
    2079                    .dwattr $C$DW$T$70, DW_AT_decl_line(0x61)
    2080                    .dwattr $C$DW$T$70, DW_AT_decl_column(0x19)
    2081            
    2082            $C$DW$T$25      .dwtag  DW_TAG_typedef
    2083                    .dwattr $C$DW$T$25, DW_AT_name("__uint16_t")
    2084                    .dwattr $C$DW$T$25, DW_AT_type(*$C$DW$T$11)
    2085                    .dwattr $C$DW$T$25, DW_AT_language(DW_LANG_C)
    2086                    .dwattr $C$DW$T$25, DW_AT_decl_file("C:/ti/ccs1110/ccs/tools/compiler/ti-cgt-msp430_21.6.1.LTS
    2087                    .dwattr $C$DW$T$25, DW_AT_decl_line(0x39)
    2088                    .dwattr $C$DW$T$25, DW_AT_decl_column(0x17)
    2089            
    2090            $C$DW$T$71      .dwtag  DW_TAG_typedef
    2091                    .dwattr $C$DW$T$71, DW_AT_name("__mode_t")
    2092                    .dwattr $C$DW$T$71, DW_AT_type(*$C$DW$T$25)
    2093                    .dwattr $C$DW$T$71, DW_AT_language(DW_LANG_C)
    2094                    .dwattr $C$DW$T$71, DW_AT_decl_file("C:/ti/ccs1110/ccs/tools/compiler/ti-cgt-msp430_21.6.1.LTS
    2095                    .dwattr $C$DW$T$71, DW_AT_decl_line(0x3a)
    2096                    .dwattr $C$DW$T$71, DW_AT_decl_column(0x14)
    2097            
    2098            $C$DW$T$72      .dwtag  DW_TAG_typedef
    2099                    .dwattr $C$DW$T$72, DW_AT_name("__u_register_t")
    2100                    .dwattr $C$DW$T$72, DW_AT_type(*$C$DW$T$25)
    2101                    .dwattr $C$DW$T$72, DW_AT_language(DW_LANG_C)
    2102                    .dwattr $C$DW$T$72, DW_AT_decl_file("C:/ti/ccs1110/ccs/tools/compiler/ti-cgt-msp430_21.6.1.LTS
    2103                    .dwattr $C$DW$T$72, DW_AT_decl_line(0x78)
    2104                    .dwattr $C$DW$T$72, DW_AT_decl_column(0x14)
    2105            
    2106            $C$DW$T$73      .dwtag  DW_TAG_typedef
    2107                    .dwattr $C$DW$T$73, DW_AT_name("__uint_fast16_t")
    2108                    .dwattr $C$DW$T$73, DW_AT_type(*$C$DW$T$25)
    2109                    .dwattr $C$DW$T$73, DW_AT_language(DW_LANG_C)
    2110                    .dwattr $C$DW$T$73, DW_AT_decl_file("C:/ti/ccs1110/ccs/tools/compiler/ti-cgt-msp430_21.6.1.LTS
    2111                    .dwattr $C$DW$T$73, DW_AT_decl_line(0x71)
    2112                    .dwattr $C$DW$T$73, DW_AT_decl_column(0x14)
    2113            
    2114            $C$DW$T$74      .dwtag  DW_TAG_typedef
    2115                    .dwattr $C$DW$T$74, DW_AT_name("uint_fast16_t")
    2116                    .dwattr $C$DW$T$74, DW_AT_type(*$C$DW$T$73)
    2117                    .dwattr $C$DW$T$74, DW_AT_language(DW_LANG_C)
    2118                    .dwattr $C$DW$T$74, DW_AT_decl_file("C:/ti/ccs1110/ccs/tools/compiler/ti-cgt-msp430_21.6.1.LTS
    2119                    .dwattr $C$DW$T$74, DW_AT_decl_line(0x3a)
    2120                    .dwattr $C$DW$T$74, DW_AT_decl_column(0x1a)
    2121            
    2122            $C$DW$T$75      .dwtag  DW_TAG_typedef
    2123                    .dwattr $C$DW$T$75, DW_AT_name("__uint_fast8_t")
    2124                    .dwattr $C$DW$T$75, DW_AT_type(*$C$DW$T$25)
MSP430 Assembler PC v21.6.1 Tue Dec 20 13:45:47 2022

Copyright (c) 2003-2018 Texas Instruments Incorporated
gpio.asm                                                             PAGE   41

    2125                    .dwattr $C$DW$T$75, DW_AT_language(DW_LANG_C)
    2126                    .dwattr $C$DW$T$75, DW_AT_decl_file("C:/ti/ccs1110/ccs/tools/compiler/ti-cgt-msp430_21.6.1.LTS
    2127                    .dwattr $C$DW$T$75, DW_AT_decl_line(0x70)
    2128                    .dwattr $C$DW$T$75, DW_AT_decl_column(0x14)
    2129            
    2130            $C$DW$T$76      .dwtag  DW_TAG_typedef
    2131                    .dwattr $C$DW$T$76, DW_AT_name("uint_fast8_t")
    2132                    .dwattr $C$DW$T$76, DW_AT_type(*$C$DW$T$75)
    2133                    .dwattr $C$DW$T$76, DW_AT_language(DW_LANG_C)
    2134                    .dwattr $C$DW$T$76, DW_AT_decl_file("C:/ti/ccs1110/ccs/tools/compiler/ti-cgt-msp430_21.6.1.LTS
    2135                    .dwattr $C$DW$T$76, DW_AT_decl_line(0x39)
    2136                    .dwattr $C$DW$T$76, DW_AT_decl_column(0x19)
    2137            
    2138            $C$DW$T$77      .dwtag  DW_TAG_typedef
    2139                    .dwattr $C$DW$T$77, DW_AT_name("__uint_least16_t")
    2140                    .dwattr $C$DW$T$77, DW_AT_type(*$C$DW$T$25)
    2141                    .dwattr $C$DW$T$77, DW_AT_language(DW_LANG_C)
    2142                    .dwattr $C$DW$T$77, DW_AT_decl_file("C:/ti/ccs1110/ccs/tools/compiler/ti-cgt-msp430_21.6.1.LTS
    2143                    .dwattr $C$DW$T$77, DW_AT_decl_line(0x75)
    2144                    .dwattr $C$DW$T$77, DW_AT_decl_column(0x14)
    2145            
    2146            $C$DW$T$78      .dwtag  DW_TAG_typedef
    2147                    .dwattr $C$DW$T$78, DW_AT_name("__char16_t")
    2148                    .dwattr $C$DW$T$78, DW_AT_type(*$C$DW$T$77)
    2149                    .dwattr $C$DW$T$78, DW_AT_language(DW_LANG_C)
    2150                    .dwattr $C$DW$T$78, DW_AT_decl_file("C:/ti/ccs1110/ccs/tools/compiler/ti-cgt-msp430_21.6.1.LTS
    2151                    .dwattr $C$DW$T$78, DW_AT_decl_line(0x71)
    2152                    .dwattr $C$DW$T$78, DW_AT_decl_column(0x1a)
    2153            
    2154            $C$DW$T$79      .dwtag  DW_TAG_typedef
    2155                    .dwattr $C$DW$T$79, DW_AT_name("uint_least16_t")
    2156                    .dwattr $C$DW$T$79, DW_AT_type(*$C$DW$T$77)
    2157                    .dwattr $C$DW$T$79, DW_AT_language(DW_LANG_C)
    2158                    .dwattr $C$DW$T$79, DW_AT_decl_file("C:/ti/ccs1110/ccs/tools/compiler/ti-cgt-msp430_21.6.1.LTS
    2159                    .dwattr $C$DW$T$79, DW_AT_decl_line(0x30)
    2160                    .dwattr $C$DW$T$79, DW_AT_decl_column(0x1a)
    2161            
    2162            $C$DW$T$26      .dwtag  DW_TAG_typedef
    2163                    .dwattr $C$DW$T$26, DW_AT_name("uint16_t")
    2164                    .dwattr $C$DW$T$26, DW_AT_type(*$C$DW$T$25)
    2165                    .dwattr $C$DW$T$26, DW_AT_language(DW_LANG_C)
    2166                    .dwattr $C$DW$T$26, DW_AT_decl_file("C:/ti/ccs1110/ccs/tools/compiler/ti-cgt-msp430_21.6.1.LTS
    2167                    .dwattr $C$DW$T$26, DW_AT_decl_line(0x41)
    2168                    .dwattr $C$DW$T$26, DW_AT_decl_column(0x15)
    2169            
    2170            $C$DW$120       .dwtag  DW_TAG_TI_far_type
    2171                    .dwattr $C$DW$120, DW_AT_type(*$C$DW$T$26)
    2172            
    2173            $C$DW$T$81      .dwtag  DW_TAG_const_type
    2174                    .dwattr $C$DW$T$81, DW_AT_type(*$C$DW$120)
    2175            
    2176            
    2177            $C$DW$T$82      .dwtag  DW_TAG_array_type
    2178                    .dwattr $C$DW$T$82, DW_AT_type(*$C$DW$T$81)
    2179                    .dwattr $C$DW$T$82, DW_AT_language(DW_LANG_C)
MSP430 Assembler PC v21.6.1 Tue Dec 20 13:45:47 2022

Copyright (c) 2003-2018 Texas Instruments Incorporated
gpio.asm                                                             PAGE   42

    2180                    .dwattr $C$DW$T$82, DW_AT_byte_size(0x1c)
    2181            $C$DW$121       .dwtag  DW_TAG_subrange_type
    2182                    .dwattr $C$DW$121, DW_AT_upper_bound(0x0d)
    2183            
    2184                    .dwendtag $C$DW$T$82
    2185            
    2186            $C$DW$T$83      .dwtag  DW_TAG_typedef
    2187                    .dwattr $C$DW$T$83, DW_AT_name("__useconds_t")
    2188                    .dwattr $C$DW$T$83, DW_AT_type(*$C$DW$T$11)
    2189                    .dwattr $C$DW$T$83, DW_AT_language(DW_LANG_C)
    2190                    .dwattr $C$DW$T$83, DW_AT_decl_file("C:/ti/ccs1110/ccs/tools/compiler/ti-cgt-msp430_21.6.1.LTS
    2191                    .dwattr $C$DW$T$83, DW_AT_decl_line(0x4e)
    2192                    .dwattr $C$DW$T$83, DW_AT_decl_column(0x16)
    2193            
    2194            $C$DW$T$12      .dwtag  DW_TAG_base_type
    2195                    .dwattr $C$DW$T$12, DW_AT_encoding(DW_ATE_signed)
    2196                    .dwattr $C$DW$T$12, DW_AT_name("long")
    2197                    .dwattr $C$DW$T$12, DW_AT_byte_size(0x04)
    2198            
    2199            $C$DW$T$84      .dwtag  DW_TAG_typedef
    2200                    .dwattr $C$DW$T$84, DW_AT_name("__int32_t")
    2201                    .dwattr $C$DW$T$84, DW_AT_type(*$C$DW$T$12)
    2202                    .dwattr $C$DW$T$84, DW_AT_language(DW_LANG_C)
    2203                    .dwattr $C$DW$T$84, DW_AT_decl_file("C:/ti/ccs1110/ccs/tools/compiler/ti-cgt-msp430_21.6.1.LTS
    2204                    .dwattr $C$DW$T$84, DW_AT_decl_line(0x3a)
    2205                    .dwattr $C$DW$T$84, DW_AT_decl_column(0x10)
    2206            
    2207            $C$DW$T$85      .dwtag  DW_TAG_typedef
    2208                    .dwattr $C$DW$T$85, DW_AT_name("__blksize_t")
    2209                    .dwattr $C$DW$T$85, DW_AT_type(*$C$DW$T$84)
    2210                    .dwattr $C$DW$T$85, DW_AT_language(DW_LANG_C)
    2211                    .dwattr $C$DW$T$85, DW_AT_decl_file("C:/ti/ccs1110/ccs/tools/compiler/ti-cgt-msp430_21.6.1.LTS
    2212                    .dwattr $C$DW$T$85, DW_AT_decl_line(0x2f)
    2213                    .dwattr $C$DW$T$85, DW_AT_decl_column(0x13)
    2214            
    2215            $C$DW$T$86      .dwtag  DW_TAG_typedef
    2216                    .dwattr $C$DW$T$86, DW_AT_name("__clockid_t")
    2217                    .dwattr $C$DW$T$86, DW_AT_type(*$C$DW$T$84)
    2218                    .dwattr $C$DW$T$86, DW_AT_language(DW_LANG_C)
    2219                    .dwattr $C$DW$T$86, DW_AT_decl_file("C:/ti/ccs1110/ccs/tools/compiler/ti-cgt-msp430_21.6.1.LTS
    2220                    .dwattr $C$DW$T$86, DW_AT_decl_line(0x31)
    2221                    .dwattr $C$DW$T$86, DW_AT_decl_column(0x13)
    2222            
    2223            $C$DW$T$87      .dwtag  DW_TAG_typedef
    2224                    .dwattr $C$DW$T$87, DW_AT_name("__critical_t")
    2225                    .dwattr $C$DW$T$87, DW_AT_type(*$C$DW$T$84)
    2226                    .dwattr $C$DW$T$87, DW_AT_language(DW_LANG_C)
    2227                    .dwattr $C$DW$T$87, DW_AT_decl_file("C:/ti/ccs1110/ccs/tools/compiler/ti-cgt-msp430_21.6.1.LTS
    2228                    .dwattr $C$DW$T$87, DW_AT_decl_line(0x4b)
    2229                    .dwattr $C$DW$T$87, DW_AT_decl_column(0x13)
    2230            
    2231            $C$DW$T$88      .dwtag  DW_TAG_typedef
    2232                    .dwattr $C$DW$T$88, DW_AT_name("__int_fast32_t")
    2233                    .dwattr $C$DW$T$88, DW_AT_type(*$C$DW$T$84)
    2234                    .dwattr $C$DW$T$88, DW_AT_language(DW_LANG_C)
MSP430 Assembler PC v21.6.1 Tue Dec 20 13:45:47 2022

Copyright (c) 2003-2018 Texas Instruments Incorporated
gpio.asm                                                             PAGE   43

    2235                    .dwattr $C$DW$T$88, DW_AT_decl_file("C:/ti/ccs1110/ccs/tools/compiler/ti-cgt-msp430_21.6.1.LTS
    2236                    .dwattr $C$DW$T$88, DW_AT_decl_line(0x58)
    2237                    .dwattr $C$DW$T$88, DW_AT_decl_column(0x13)
    2238            
    2239            $C$DW$T$89      .dwtag  DW_TAG_typedef
    2240                    .dwattr $C$DW$T$89, DW_AT_name("int_fast32_t")
    2241                    .dwattr $C$DW$T$89, DW_AT_type(*$C$DW$T$88)
    2242                    .dwattr $C$DW$T$89, DW_AT_language(DW_LANG_C)
    2243                    .dwattr $C$DW$T$89, DW_AT_decl_file("C:/ti/ccs1110/ccs/tools/compiler/ti-cgt-msp430_21.6.1.LTS
    2244                    .dwattr $C$DW$T$89, DW_AT_decl_line(0x36)
    2245                    .dwattr $C$DW$T$89, DW_AT_decl_column(0x19)
    2246            
    2247            $C$DW$T$90      .dwtag  DW_TAG_typedef
    2248                    .dwattr $C$DW$T$90, DW_AT_name("__int_least32_t")
    2249                    .dwattr $C$DW$T$90, DW_AT_type(*$C$DW$T$84)
    2250                    .dwattr $C$DW$T$90, DW_AT_language(DW_LANG_C)
    2251                    .dwattr $C$DW$T$90, DW_AT_decl_file("C:/ti/ccs1110/ccs/tools/compiler/ti-cgt-msp430_21.6.1.LTS
    2252                    .dwattr $C$DW$T$90, DW_AT_decl_line(0x5c)
    2253                    .dwattr $C$DW$T$90, DW_AT_decl_column(0x13)
    2254            
    2255            $C$DW$T$91      .dwtag  DW_TAG_typedef
    2256                    .dwattr $C$DW$T$91, DW_AT_name("int_least32_t")
    2257                    .dwattr $C$DW$T$91, DW_AT_type(*$C$DW$T$90)
    2258                    .dwattr $C$DW$T$91, DW_AT_language(DW_LANG_C)
    2259                    .dwattr $C$DW$T$91, DW_AT_decl_file("C:/ti/ccs1110/ccs/tools/compiler/ti-cgt-msp430_21.6.1.LTS
    2260                    .dwattr $C$DW$T$91, DW_AT_decl_line(0x2c)
    2261                    .dwattr $C$DW$T$91, DW_AT_decl_column(0x1a)
    2262            
    2263            $C$DW$T$92      .dwtag  DW_TAG_typedef
    2264                    .dwattr $C$DW$T$92, DW_AT_name("__intfptr_t")
    2265                    .dwattr $C$DW$T$92, DW_AT_type(*$C$DW$T$84)
    2266                    .dwattr $C$DW$T$92, DW_AT_language(DW_LANG_C)
    2267                    .dwattr $C$DW$T$92, DW_AT_decl_file("C:/ti/ccs1110/ccs/tools/compiler/ti-cgt-msp430_21.6.1.LTS
    2268                    .dwattr $C$DW$T$92, DW_AT_decl_line(0x4e)
    2269                    .dwattr $C$DW$T$92, DW_AT_decl_column(0x13)
    2270            
    2271            $C$DW$T$93      .dwtag  DW_TAG_typedef
    2272                    .dwattr $C$DW$T$93, DW_AT_name("__intptr_t")
    2273                    .dwattr $C$DW$T$93, DW_AT_type(*$C$DW$T$84)
    2274                    .dwattr $C$DW$T$93, DW_AT_language(DW_LANG_C)
    2275                    .dwattr $C$DW$T$93, DW_AT_decl_file("C:/ti/ccs1110/ccs/tools/compiler/ti-cgt-msp430_21.6.1.LTS
    2276                    .dwattr $C$DW$T$93, DW_AT_decl_line(0x51)
    2277                    .dwattr $C$DW$T$93, DW_AT_decl_column(0x13)
    2278            
    2279            $C$DW$T$94      .dwtag  DW_TAG_typedef
    2280                    .dwattr $C$DW$T$94, DW_AT_name("intptr_t")
    2281                    .dwattr $C$DW$T$94, DW_AT_type(*$C$DW$T$93)
    2282                    .dwattr $C$DW$T$94, DW_AT_language(DW_LANG_C)
    2283                    .dwattr $C$DW$T$94, DW_AT_decl_file("C:/ti/ccs1110/ccs/tools/compiler/ti-cgt-msp430_21.6.1.LTS
    2284                    .dwattr $C$DW$T$94, DW_AT_decl_line(0x50)
    2285                    .dwattr $C$DW$T$94, DW_AT_decl_column(0x15)
    2286            
    2287            $C$DW$T$95      .dwtag  DW_TAG_typedef
    2288                    .dwattr $C$DW$T$95, DW_AT_name("__lwpid_t")
    2289                    .dwattr $C$DW$T$95, DW_AT_type(*$C$DW$T$84)
MSP430 Assembler PC v21.6.1 Tue Dec 20 13:45:47 2022

Copyright (c) 2003-2018 Texas Instruments Incorporated
gpio.asm                                                             PAGE   44

    2290                    .dwattr $C$DW$T$95, DW_AT_language(DW_LANG_C)
    2291                    .dwattr $C$DW$T$95, DW_AT_decl_file("C:/ti/ccs1110/ccs/tools/compiler/ti-cgt-msp430_21.6.1.LTS
    2292                    .dwattr $C$DW$T$95, DW_AT_decl_line(0x39)
    2293                    .dwattr $C$DW$T$95, DW_AT_decl_column(0x13)
    2294            
    2295            $C$DW$T$96      .dwtag  DW_TAG_typedef
    2296                    .dwattr $C$DW$T$96, DW_AT_name("__pid_t")
    2297                    .dwattr $C$DW$T$96, DW_AT_type(*$C$DW$T$84)
    2298                    .dwattr $C$DW$T$96, DW_AT_language(DW_LANG_C)
    2299                    .dwattr $C$DW$T$96, DW_AT_decl_file("C:/ti/ccs1110/ccs/tools/compiler/ti-cgt-msp430_21.6.1.LTS
    2300                    .dwattr $C$DW$T$96, DW_AT_decl_line(0x40)
    2301                    .dwattr $C$DW$T$96, DW_AT_decl_column(0x13)
    2302            
    2303            $C$DW$T$97      .dwtag  DW_TAG_typedef
    2304                    .dwattr $C$DW$T$97, DW_AT_name("__segsz_t")
    2305                    .dwattr $C$DW$T$97, DW_AT_type(*$C$DW$T$84)
    2306                    .dwattr $C$DW$T$97, DW_AT_language(DW_LANG_C)
    2307                    .dwattr $C$DW$T$97, DW_AT_decl_file("C:/ti/ccs1110/ccs/tools/compiler/ti-cgt-msp430_21.6.1.LTS
    2308                    .dwattr $C$DW$T$97, DW_AT_decl_line(0x60)
    2309                    .dwattr $C$DW$T$97, DW_AT_decl_column(0x13)
    2310            
    2311            $C$DW$T$98      .dwtag  DW_TAG_typedef
    2312                    .dwattr $C$DW$T$98, DW_AT_name("__ssize_t")
    2313                    .dwattr $C$DW$T$98, DW_AT_type(*$C$DW$T$84)
    2314                    .dwattr $C$DW$T$98, DW_AT_language(DW_LANG_C)
    2315                    .dwattr $C$DW$T$98, DW_AT_decl_file("C:/ti/ccs1110/ccs/tools/compiler/ti-cgt-msp430_21.6.1.LTS
    2316                    .dwattr $C$DW$T$98, DW_AT_decl_line(0x62)
    2317                    .dwattr $C$DW$T$98, DW_AT_decl_column(0x13)
    2318            
    2319            $C$DW$T$99      .dwtag  DW_TAG_typedef
    2320                    .dwattr $C$DW$T$99, DW_AT_name("int32_t")
    2321                    .dwattr $C$DW$T$99, DW_AT_type(*$C$DW$T$84)
    2322                    .dwattr $C$DW$T$99, DW_AT_language(DW_LANG_C)
    2323                    .dwattr $C$DW$T$99, DW_AT_decl_file("C:/ti/ccs1110/ccs/tools/compiler/ti-cgt-msp430_21.6.1.LTS
    2324                    .dwattr $C$DW$T$99, DW_AT_decl_line(0x30)
    2325                    .dwattr $C$DW$T$99, DW_AT_decl_column(0x14)
    2326            
    2327            $C$DW$T$100     .dwtag  DW_TAG_typedef
    2328                    .dwattr $C$DW$T$100, DW_AT_name("__key_t")
    2329                    .dwattr $C$DW$T$100, DW_AT_type(*$C$DW$T$12)
    2330                    .dwattr $C$DW$T$100, DW_AT_language(DW_LANG_C)
    2331                    .dwattr $C$DW$T$100, DW_AT_decl_file("C:/ti/ccs1110/ccs/tools/compiler/ti-cgt-msp430_21.6.1.LT
    2332                    .dwattr $C$DW$T$100, DW_AT_decl_line(0x38)
    2333                    .dwattr $C$DW$T$100, DW_AT_decl_column(0x0f)
    2334            
    2335            $C$DW$T$101     .dwtag  DW_TAG_typedef
    2336                    .dwattr $C$DW$T$101, DW_AT_name("__suseconds_t")
    2337                    .dwattr $C$DW$T$101, DW_AT_type(*$C$DW$T$12)
    2338                    .dwattr $C$DW$T$101, DW_AT_language(DW_LANG_C)
    2339                    .dwattr $C$DW$T$101, DW_AT_decl_file("C:/ti/ccs1110/ccs/tools/compiler/ti-cgt-msp430_21.6.1.LT
    2340                    .dwattr $C$DW$T$101, DW_AT_decl_line(0x4a)
    2341                    .dwattr $C$DW$T$101, DW_AT_decl_column(0x0f)
    2342            
    2343            $C$DW$T$102     .dwtag  DW_TAG_typedef
    2344                    .dwattr $C$DW$T$102, DW_AT_name("_off_t")
MSP430 Assembler PC v21.6.1 Tue Dec 20 13:45:47 2022

Copyright (c) 2003-2018 Texas Instruments Incorporated
gpio.asm                                                             PAGE   45

    2345                    .dwattr $C$DW$T$102, DW_AT_type(*$C$DW$T$12)
    2346                    .dwattr $C$DW$T$102, DW_AT_language(DW_LANG_C)
    2347                    .dwattr $C$DW$T$102, DW_AT_decl_file("C:/ti/ccs1110/ccs/tools/compiler/ti-cgt-msp430_21.6.1.LT
    2348                    .dwattr $C$DW$T$102, DW_AT_decl_line(0x8d)
    2349                    .dwattr $C$DW$T$102, DW_AT_decl_column(0x12)
    2350            
    2351            $C$DW$T$103     .dwtag  DW_TAG_typedef
    2352                    .dwattr $C$DW$T$103, DW_AT_name("__off_t")
    2353                    .dwattr $C$DW$T$103, DW_AT_type(*$C$DW$T$102)
    2354                    .dwattr $C$DW$T$103, DW_AT_language(DW_LANG_C)
    2355                    .dwattr $C$DW$T$103, DW_AT_decl_file("C:/ti/ccs1110/ccs/tools/compiler/ti-cgt-msp430_21.6.1.LT
    2356                    .dwattr $C$DW$T$103, DW_AT_decl_line(0x3e)
    2357                    .dwattr $C$DW$T$103, DW_AT_decl_column(0x18)
    2358            
    2359            $C$DW$T$13      .dwtag  DW_TAG_base_type
    2360                    .dwattr $C$DW$T$13, DW_AT_encoding(DW_ATE_unsigned)
    2361                    .dwattr $C$DW$T$13, DW_AT_name("unsigned long")
    2362                    .dwattr $C$DW$T$13, DW_AT_byte_size(0x04)
    2363            
    2364            $C$DW$T$104     .dwtag  DW_TAG_typedef
    2365                    .dwattr $C$DW$T$104, DW_AT_name("__uint32_t")
    2366                    .dwattr $C$DW$T$104, DW_AT_type(*$C$DW$T$13)
    2367                    .dwattr $C$DW$T$104, DW_AT_language(DW_LANG_C)
    2368                    .dwattr $C$DW$T$104, DW_AT_decl_file("C:/ti/ccs1110/ccs/tools/compiler/ti-cgt-msp430_21.6.1.LT
    2369                    .dwattr $C$DW$T$104, DW_AT_decl_line(0x3b)
    2370                    .dwattr $C$DW$T$104, DW_AT_decl_column(0x18)
    2371            
    2372            $C$DW$T$105     .dwtag  DW_TAG_typedef
    2373                    .dwattr $C$DW$T$105, DW_AT_name("__clock_t")
    2374                    .dwattr $C$DW$T$105, DW_AT_type(*$C$DW$T$104)
    2375                    .dwattr $C$DW$T$105, DW_AT_language(DW_LANG_C)
    2376                    .dwattr $C$DW$T$105, DW_AT_decl_file("C:/ti/ccs1110/ccs/tools/compiler/ti-cgt-msp430_21.6.1.LT
    2377                    .dwattr $C$DW$T$105, DW_AT_decl_line(0x4a)
    2378                    .dwattr $C$DW$T$105, DW_AT_decl_column(0x14)
    2379            
    2380            $C$DW$T$106     .dwtag  DW_TAG_typedef
    2381                    .dwattr $C$DW$T$106, DW_AT_name("__fflags_t")
    2382                    .dwattr $C$DW$T$106, DW_AT_type(*$C$DW$T$104)
    2383                    .dwattr $C$DW$T$106, DW_AT_language(DW_LANG_C)
    2384                    .dwattr $C$DW$T$106, DW_AT_decl_file("C:/ti/ccs1110/ccs/tools/compiler/ti-cgt-msp430_21.6.1.LT
    2385                    .dwattr $C$DW$T$106, DW_AT_decl_line(0x32)
    2386                    .dwattr $C$DW$T$106, DW_AT_decl_column(0x14)
    2387            
    2388            $C$DW$T$107     .dwtag  DW_TAG_typedef
    2389                    .dwattr $C$DW$T$107, DW_AT_name("__fixpt_t")
    2390                    .dwattr $C$DW$T$107, DW_AT_type(*$C$DW$T$104)
    2391                    .dwattr $C$DW$T$107, DW_AT_language(DW_LANG_C)
    2392                    .dwattr $C$DW$T$107, DW_AT_decl_file("C:/ti/ccs1110/ccs/tools/compiler/ti-cgt-msp430_21.6.1.LT
    2393                    .dwattr $C$DW$T$107, DW_AT_decl_line(0x81)
    2394                    .dwattr $C$DW$T$107, DW_AT_decl_column(0x14)
    2395            
    2396            $C$DW$T$108     .dwtag  DW_TAG_typedef
    2397                    .dwattr $C$DW$T$108, DW_AT_name("__gid_t")
    2398                    .dwattr $C$DW$T$108, DW_AT_type(*$C$DW$T$104)
    2399                    .dwattr $C$DW$T$108, DW_AT_language(DW_LANG_C)
MSP430 Assembler PC v21.6.1 Tue Dec 20 13:45:47 2022

Copyright (c) 2003-2018 Texas Instruments Incorporated
gpio.asm                                                             PAGE   46

    2400                    .dwattr $C$DW$T$108, DW_AT_decl_file("C:/ti/ccs1110/ccs/tools/compiler/ti-cgt-msp430_21.6.1.LT
    2401                    .dwattr $C$DW$T$108, DW_AT_decl_line(0x35)
    2402                    .dwattr $C$DW$T$108, DW_AT_decl_column(0x14)
    2403            
    2404            $C$DW$T$109     .dwtag  DW_TAG_typedef
    2405                    .dwattr $C$DW$T$109, DW_AT_name("__socklen_t")
    2406                    .dwattr $C$DW$T$109, DW_AT_type(*$C$DW$T$104)
    2407                    .dwattr $C$DW$T$109, DW_AT_language(DW_LANG_C)
    2408                    .dwattr $C$DW$T$109, DW_AT_decl_file("C:/ti/ccs1110/ccs/tools/compiler/ti-cgt-msp430_21.6.1.LT
    2409                    .dwattr $C$DW$T$109, DW_AT_decl_line(0x49)
    2410                    .dwattr $C$DW$T$109, DW_AT_decl_column(0x14)
    2411            
    2412            $C$DW$T$110     .dwtag  DW_TAG_typedef
    2413                    .dwattr $C$DW$T$110, DW_AT_name("__time_t")
    2414                    .dwattr $C$DW$T$110, DW_AT_type(*$C$DW$T$104)
    2415                    .dwattr $C$DW$T$110, DW_AT_language(DW_LANG_C)
    2416                    .dwattr $C$DW$T$110, DW_AT_decl_file("C:/ti/ccs1110/ccs/tools/compiler/ti-cgt-msp430_21.6.1.LT
    2417                    .dwattr $C$DW$T$110, DW_AT_decl_line(0x66)
    2418                    .dwattr $C$DW$T$110, DW_AT_decl_column(0x19)
    2419            
    2420            $C$DW$T$111     .dwtag  DW_TAG_typedef
    2421                    .dwattr $C$DW$T$111, DW_AT_name("__uid_t")
    2422                    .dwattr $C$DW$T$111, DW_AT_type(*$C$DW$T$104)
    2423                    .dwattr $C$DW$T$111, DW_AT_language(DW_LANG_C)
    2424                    .dwattr $C$DW$T$111, DW_AT_decl_file("C:/ti/ccs1110/ccs/tools/compiler/ti-cgt-msp430_21.6.1.LT
    2425                    .dwattr $C$DW$T$111, DW_AT_decl_line(0x4d)
    2426                    .dwattr $C$DW$T$111, DW_AT_decl_column(0x14)
    2427            
    2428            $C$DW$T$112     .dwtag  DW_TAG_typedef
    2429                    .dwattr $C$DW$T$112, DW_AT_name("__uint_fast32_t")
    2430                    .dwattr $C$DW$T$112, DW_AT_type(*$C$DW$T$104)
    2431                    .dwattr $C$DW$T$112, DW_AT_language(DW_LANG_C)
    2432                    .dwattr $C$DW$T$112, DW_AT_decl_file("C:/ti/ccs1110/ccs/tools/compiler/ti-cgt-msp430_21.6.1.LT
    2433                    .dwattr $C$DW$T$112, DW_AT_decl_line(0x72)
    2434                    .dwattr $C$DW$T$112, DW_AT_decl_column(0x14)
    2435            
    2436            $C$DW$T$113     .dwtag  DW_TAG_typedef
    2437                    .dwattr $C$DW$T$113, DW_AT_name("uint_fast32_t")
    2438                    .dwattr $C$DW$T$113, DW_AT_type(*$C$DW$T$112)
    2439                    .dwattr $C$DW$T$113, DW_AT_language(DW_LANG_C)
    2440                    .dwattr $C$DW$T$113, DW_AT_decl_file("C:/ti/ccs1110/ccs/tools/compiler/ti-cgt-msp430_21.6.1.LT
    2441                    .dwattr $C$DW$T$113, DW_AT_decl_line(0x3b)
    2442                    .dwattr $C$DW$T$113, DW_AT_decl_column(0x1a)
    2443            
    2444            $C$DW$T$114     .dwtag  DW_TAG_typedef
    2445                    .dwattr $C$DW$T$114, DW_AT_name("__uint_least32_t")
    2446                    .dwattr $C$DW$T$114, DW_AT_type(*$C$DW$T$104)
    2447                    .dwattr $C$DW$T$114, DW_AT_language(DW_LANG_C)
    2448                    .dwattr $C$DW$T$114, DW_AT_decl_file("C:/ti/ccs1110/ccs/tools/compiler/ti-cgt-msp430_21.6.1.LT
    2449                    .dwattr $C$DW$T$114, DW_AT_decl_line(0x76)
    2450                    .dwattr $C$DW$T$114, DW_AT_decl_column(0x14)
    2451            
    2452            $C$DW$T$115     .dwtag  DW_TAG_typedef
    2453                    .dwattr $C$DW$T$115, DW_AT_name("__char32_t")
    2454                    .dwattr $C$DW$T$115, DW_AT_type(*$C$DW$T$114)
MSP430 Assembler PC v21.6.1 Tue Dec 20 13:45:47 2022

Copyright (c) 2003-2018 Texas Instruments Incorporated
gpio.asm                                                             PAGE   47

    2455                    .dwattr $C$DW$T$115, DW_AT_language(DW_LANG_C)
    2456                    .dwattr $C$DW$T$115, DW_AT_decl_file("C:/ti/ccs1110/ccs/tools/compiler/ti-cgt-msp430_21.6.1.LT
    2457                    .dwattr $C$DW$T$115, DW_AT_decl_line(0x72)
    2458                    .dwattr $C$DW$T$115, DW_AT_decl_column(0x1a)
    2459            
    2460            $C$DW$T$116     .dwtag  DW_TAG_typedef
    2461                    .dwattr $C$DW$T$116, DW_AT_name("uint_least32_t")
    2462                    .dwattr $C$DW$T$116, DW_AT_type(*$C$DW$T$114)
    2463                    .dwattr $C$DW$T$116, DW_AT_language(DW_LANG_C)
    2464                    .dwattr $C$DW$T$116, DW_AT_decl_file("C:/ti/ccs1110/ccs/tools/compiler/ti-cgt-msp430_21.6.1.LT
    2465                    .dwattr $C$DW$T$116, DW_AT_decl_line(0x31)
    2466                    .dwattr $C$DW$T$116, DW_AT_decl_column(0x1a)
    2467            
    2468            $C$DW$T$117     .dwtag  DW_TAG_typedef
    2469                    .dwattr $C$DW$T$117, DW_AT_name("__uintfptr_t")
    2470                    .dwattr $C$DW$T$117, DW_AT_type(*$C$DW$T$104)
    2471                    .dwattr $C$DW$T$117, DW_AT_language(DW_LANG_C)
    2472                    .dwattr $C$DW$T$117, DW_AT_decl_file("C:/ti/ccs1110/ccs/tools/compiler/ti-cgt-msp430_21.6.1.LT
    2473                    .dwattr $C$DW$T$117, DW_AT_decl_line(0x68)
    2474                    .dwattr $C$DW$T$117, DW_AT_decl_column(0x14)
    2475            
    2476            $C$DW$T$118     .dwtag  DW_TAG_typedef
    2477                    .dwattr $C$DW$T$118, DW_AT_name("__uintptr_t")
    2478                    .dwattr $C$DW$T$118, DW_AT_type(*$C$DW$T$104)
    2479                    .dwattr $C$DW$T$118, DW_AT_language(DW_LANG_C)
    2480                    .dwattr $C$DW$T$118, DW_AT_decl_file("C:/ti/ccs1110/ccs/tools/compiler/ti-cgt-msp430_21.6.1.LT
    2481                    .dwattr $C$DW$T$118, DW_AT_decl_line(0x6b)
    2482                    .dwattr $C$DW$T$118, DW_AT_decl_column(0x14)
    2483            
    2484            $C$DW$T$119     .dwtag  DW_TAG_typedef
    2485                    .dwattr $C$DW$T$119, DW_AT_name("uintptr_t")
    2486                    .dwattr $C$DW$T$119, DW_AT_type(*$C$DW$T$118)
    2487                    .dwattr $C$DW$T$119, DW_AT_language(DW_LANG_C)
    2488                    .dwattr $C$DW$T$119, DW_AT_decl_file("C:/ti/ccs1110/ccs/tools/compiler/ti-cgt-msp430_21.6.1.LT
    2489                    .dwattr $C$DW$T$119, DW_AT_decl_line(0x54)
    2490                    .dwattr $C$DW$T$119, DW_AT_decl_column(0x16)
    2491            
    2492            $C$DW$T$120     .dwtag  DW_TAG_typedef
    2493                    .dwattr $C$DW$T$120, DW_AT_name("__vm_offset_t")
    2494                    .dwattr $C$DW$T$120, DW_AT_type(*$C$DW$T$104)
    2495                    .dwattr $C$DW$T$120, DW_AT_language(DW_LANG_C)
    2496                    .dwattr $C$DW$T$120, DW_AT_decl_file("C:/ti/ccs1110/ccs/tools/compiler/ti-cgt-msp430_21.6.1.LT
    2497                    .dwattr $C$DW$T$120, DW_AT_decl_line(0x79)
    2498                    .dwattr $C$DW$T$120, DW_AT_decl_column(0x14)
    2499            
    2500            $C$DW$T$121     .dwtag  DW_TAG_typedef
    2501                    .dwattr $C$DW$T$121, DW_AT_name("__vm_paddr_t")
    2502                    .dwattr $C$DW$T$121, DW_AT_type(*$C$DW$T$104)
    2503                    .dwattr $C$DW$T$121, DW_AT_language(DW_LANG_C)
    2504                    .dwattr $C$DW$T$121, DW_AT_decl_file("C:/ti/ccs1110/ccs/tools/compiler/ti-cgt-msp430_21.6.1.LT
    2505                    .dwattr $C$DW$T$121, DW_AT_decl_line(0x7a)
    2506                    .dwattr $C$DW$T$121, DW_AT_decl_column(0x14)
    2507            
    2508            $C$DW$T$122     .dwtag  DW_TAG_typedef
    2509                    .dwattr $C$DW$T$122, DW_AT_name("__vm_size_t")
MSP430 Assembler PC v21.6.1 Tue Dec 20 13:45:47 2022

Copyright (c) 2003-2018 Texas Instruments Incorporated
gpio.asm                                                             PAGE   48

    2510                    .dwattr $C$DW$T$122, DW_AT_type(*$C$DW$T$104)
    2511                    .dwattr $C$DW$T$122, DW_AT_language(DW_LANG_C)
    2512                    .dwattr $C$DW$T$122, DW_AT_decl_file("C:/ti/ccs1110/ccs/tools/compiler/ti-cgt-msp430_21.6.1.LT
    2513                    .dwattr $C$DW$T$122, DW_AT_decl_line(0x7b)
    2514                    .dwattr $C$DW$T$122, DW_AT_decl_column(0x14)
    2515            
    2516            $C$DW$T$123     .dwtag  DW_TAG_typedef
    2517                    .dwattr $C$DW$T$123, DW_AT_name("uint32_t")
    2518                    .dwattr $C$DW$T$123, DW_AT_type(*$C$DW$T$104)
    2519                    .dwattr $C$DW$T$123, DW_AT_language(DW_LANG_C)
    2520                    .dwattr $C$DW$T$123, DW_AT_decl_file("C:/ti/ccs1110/ccs/tools/compiler/ti-cgt-msp430_21.6.1.LT
    2521                    .dwattr $C$DW$T$123, DW_AT_decl_line(0x46)
    2522                    .dwattr $C$DW$T$123, DW_AT_decl_column(0x15)
    2523            
    2524            $C$DW$T$14      .dwtag  DW_TAG_base_type
    2525                    .dwattr $C$DW$T$14, DW_AT_encoding(DW_ATE_signed)
    2526                    .dwattr $C$DW$T$14, DW_AT_name("long long")
    2527                    .dwattr $C$DW$T$14, DW_AT_byte_size(0x08)
    2528            
    2529            $C$DW$T$124     .dwtag  DW_TAG_typedef
    2530                    .dwattr $C$DW$T$124, DW_AT_name("__int64_t")
    2531                    .dwattr $C$DW$T$124, DW_AT_type(*$C$DW$T$14)
    2532                    .dwattr $C$DW$T$124, DW_AT_language(DW_LANG_C)
    2533                    .dwattr $C$DW$T$124, DW_AT_decl_file("C:/ti/ccs1110/ccs/tools/compiler/ti-cgt-msp430_21.6.1.LT
    2534                    .dwattr $C$DW$T$124, DW_AT_decl_line(0x40)
    2535                    .dwattr $C$DW$T$124, DW_AT_decl_column(0x14)
    2536            
    2537            $C$DW$T$125     .dwtag  DW_TAG_typedef
    2538                    .dwattr $C$DW$T$125, DW_AT_name("__blkcnt_t")
    2539                    .dwattr $C$DW$T$125, DW_AT_type(*$C$DW$T$124)
    2540                    .dwattr $C$DW$T$125, DW_AT_language(DW_LANG_C)
    2541                    .dwattr $C$DW$T$125, DW_AT_decl_file("C:/ti/ccs1110/ccs/tools/compiler/ti-cgt-msp430_21.6.1.LT
    2542                    .dwattr $C$DW$T$125, DW_AT_decl_line(0x30)
    2543                    .dwattr $C$DW$T$125, DW_AT_decl_column(0x13)
    2544            
    2545            $C$DW$T$126     .dwtag  DW_TAG_typedef
    2546                    .dwattr $C$DW$T$126, DW_AT_name("__id_t")
    2547                    .dwattr $C$DW$T$126, DW_AT_type(*$C$DW$T$124)
    2548                    .dwattr $C$DW$T$126, DW_AT_language(DW_LANG_C)
    2549                    .dwattr $C$DW$T$126, DW_AT_decl_file("C:/ti/ccs1110/ccs/tools/compiler/ti-cgt-msp430_21.6.1.LT
    2550                    .dwattr $C$DW$T$126, DW_AT_decl_line(0x36)
    2551                    .dwattr $C$DW$T$126, DW_AT_decl_column(0x13)
    2552            
    2553            $C$DW$T$127     .dwtag  DW_TAG_typedef
    2554                    .dwattr $C$DW$T$127, DW_AT_name("__int_fast64_t")
    2555                    .dwattr $C$DW$T$127, DW_AT_type(*$C$DW$T$124)
    2556                    .dwattr $C$DW$T$127, DW_AT_language(DW_LANG_C)
    2557                    .dwattr $C$DW$T$127, DW_AT_decl_file("C:/ti/ccs1110/ccs/tools/compiler/ti-cgt-msp430_21.6.1.LT
    2558                    .dwattr $C$DW$T$127, DW_AT_decl_line(0x59)
    2559                    .dwattr $C$DW$T$127, DW_AT_decl_column(0x13)
    2560            
    2561            $C$DW$T$128     .dwtag  DW_TAG_typedef
    2562                    .dwattr $C$DW$T$128, DW_AT_name("int_fast64_t")
    2563                    .dwattr $C$DW$T$128, DW_AT_type(*$C$DW$T$127)
    2564                    .dwattr $C$DW$T$128, DW_AT_language(DW_LANG_C)
MSP430 Assembler PC v21.6.1 Tue Dec 20 13:45:47 2022

Copyright (c) 2003-2018 Texas Instruments Incorporated
gpio.asm                                                             PAGE   49

    2565                    .dwattr $C$DW$T$128, DW_AT_decl_file("C:/ti/ccs1110/ccs/tools/compiler/ti-cgt-msp430_21.6.1.LT
    2566                    .dwattr $C$DW$T$128, DW_AT_decl_line(0x37)
    2567                    .dwattr $C$DW$T$128, DW_AT_decl_column(0x19)
    2568            
    2569            $C$DW$T$129     .dwtag  DW_TAG_typedef
    2570                    .dwattr $C$DW$T$129, DW_AT_name("__int_least64_t")
    2571                    .dwattr $C$DW$T$129, DW_AT_type(*$C$DW$T$124)
    2572                    .dwattr $C$DW$T$129, DW_AT_language(DW_LANG_C)
    2573                    .dwattr $C$DW$T$129, DW_AT_decl_file("C:/ti/ccs1110/ccs/tools/compiler/ti-cgt-msp430_21.6.1.LT
    2574                    .dwattr $C$DW$T$129, DW_AT_decl_line(0x5d)
    2575                    .dwattr $C$DW$T$129, DW_AT_decl_column(0x13)
    2576            
    2577            $C$DW$T$130     .dwtag  DW_TAG_typedef
    2578                    .dwattr $C$DW$T$130, DW_AT_name("int_least64_t")
    2579                    .dwattr $C$DW$T$130, DW_AT_type(*$C$DW$T$129)
    2580                    .dwattr $C$DW$T$130, DW_AT_language(DW_LANG_C)
    2581                    .dwattr $C$DW$T$130, DW_AT_decl_file("C:/ti/ccs1110/ccs/tools/compiler/ti-cgt-msp430_21.6.1.LT
    2582                    .dwattr $C$DW$T$130, DW_AT_decl_line(0x2d)
    2583                    .dwattr $C$DW$T$130, DW_AT_decl_column(0x1a)
    2584            
    2585            $C$DW$T$131     .dwtag  DW_TAG_typedef
    2586                    .dwattr $C$DW$T$131, DW_AT_name("__intmax_t")
    2587                    .dwattr $C$DW$T$131, DW_AT_type(*$C$DW$T$124)
    2588                    .dwattr $C$DW$T$131, DW_AT_language(DW_LANG_C)
    2589                    .dwattr $C$DW$T$131, DW_AT_decl_file("C:/ti/ccs1110/ccs/tools/compiler/ti-cgt-msp430_21.6.1.LT
    2590                    .dwattr $C$DW$T$131, DW_AT_decl_line(0x4f)
    2591                    .dwattr $C$DW$T$131, DW_AT_decl_column(0x13)
    2592            
    2593            $C$DW$T$132     .dwtag  DW_TAG_typedef
    2594                    .dwattr $C$DW$T$132, DW_AT_name("intmax_t")
    2595                    .dwattr $C$DW$T$132, DW_AT_type(*$C$DW$T$131)
    2596                    .dwattr $C$DW$T$132, DW_AT_language(DW_LANG_C)
    2597                    .dwattr $C$DW$T$132, DW_AT_decl_file("C:/ti/ccs1110/ccs/tools/compiler/ti-cgt-msp430_21.6.1.LT
    2598                    .dwattr $C$DW$T$132, DW_AT_decl_line(0x58)
    2599                    .dwattr $C$DW$T$132, DW_AT_decl_column(0x15)
    2600            
    2601            $C$DW$T$133     .dwtag  DW_TAG_typedef
    2602                    .dwattr $C$DW$T$133, DW_AT_name("__off64_t")
    2603                    .dwattr $C$DW$T$133, DW_AT_type(*$C$DW$T$124)
    2604                    .dwattr $C$DW$T$133, DW_AT_language(DW_LANG_C)
    2605                    .dwattr $C$DW$T$133, DW_AT_decl_file("C:/ti/ccs1110/ccs/tools/compiler/ti-cgt-msp430_21.6.1.LT
    2606                    .dwattr $C$DW$T$133, DW_AT_decl_line(0x3f)
    2607                    .dwattr $C$DW$T$133, DW_AT_decl_column(0x13)
    2608            
    2609            $C$DW$T$134     .dwtag  DW_TAG_typedef
    2610                    .dwattr $C$DW$T$134, DW_AT_name("__rlim_t")
    2611                    .dwattr $C$DW$T$134, DW_AT_type(*$C$DW$T$124)
    2612                    .dwattr $C$DW$T$134, DW_AT_language(DW_LANG_C)
    2613                    .dwattr $C$DW$T$134, DW_AT_decl_file("C:/ti/ccs1110/ccs/tools/compiler/ti-cgt-msp430_21.6.1.LT
    2614                    .dwattr $C$DW$T$134, DW_AT_decl_line(0x41)
    2615                    .dwattr $C$DW$T$134, DW_AT_decl_column(0x13)
    2616            
    2617            $C$DW$T$135     .dwtag  DW_TAG_typedef
    2618                    .dwattr $C$DW$T$135, DW_AT_name("int64_t")
    2619                    .dwattr $C$DW$T$135, DW_AT_type(*$C$DW$T$124)
MSP430 Assembler PC v21.6.1 Tue Dec 20 13:45:47 2022

Copyright (c) 2003-2018 Texas Instruments Incorporated
gpio.asm                                                             PAGE   50

    2620                    .dwattr $C$DW$T$135, DW_AT_language(DW_LANG_C)
    2621                    .dwattr $C$DW$T$135, DW_AT_decl_file("C:/ti/ccs1110/ccs/tools/compiler/ti-cgt-msp430_21.6.1.LT
    2622                    .dwattr $C$DW$T$135, DW_AT_decl_line(0x35)
    2623                    .dwattr $C$DW$T$135, DW_AT_decl_column(0x14)
    2624            
    2625            $C$DW$T$15      .dwtag  DW_TAG_base_type
    2626                    .dwattr $C$DW$T$15, DW_AT_encoding(DW_ATE_unsigned)
    2627                    .dwattr $C$DW$T$15, DW_AT_name("unsigned long long")
    2628                    .dwattr $C$DW$T$15, DW_AT_byte_size(0x08)
    2629            
    2630            $C$DW$T$136     .dwtag  DW_TAG_typedef
    2631                    .dwattr $C$DW$T$136, DW_AT_name("__uint64_t")
    2632                    .dwattr $C$DW$T$136, DW_AT_type(*$C$DW$T$15)
    2633                    .dwattr $C$DW$T$136, DW_AT_language(DW_LANG_C)
    2634                    .dwattr $C$DW$T$136, DW_AT_decl_file("C:/ti/ccs1110/ccs/tools/compiler/ti-cgt-msp430_21.6.1.LT
    2635                    .dwattr $C$DW$T$136, DW_AT_decl_line(0x45)
    2636                    .dwattr $C$DW$T$136, DW_AT_decl_column(0x1c)
    2637            
    2638            $C$DW$T$137     .dwtag  DW_TAG_typedef
    2639                    .dwattr $C$DW$T$137, DW_AT_name("__dev_t")
    2640                    .dwattr $C$DW$T$137, DW_AT_type(*$C$DW$T$136)
    2641                    .dwattr $C$DW$T$137, DW_AT_language(DW_LANG_C)
    2642                    .dwattr $C$DW$T$137, DW_AT_decl_file("C:/ti/ccs1110/ccs/tools/compiler/ti-cgt-msp430_21.6.1.LT
    2643                    .dwattr $C$DW$T$137, DW_AT_decl_line(0x7f)
    2644                    .dwattr $C$DW$T$137, DW_AT_decl_column(0x14)
    2645            
    2646            $C$DW$T$138     .dwtag  DW_TAG_typedef
    2647                    .dwattr $C$DW$T$138, DW_AT_name("__fsblkcnt_t")
    2648                    .dwattr $C$DW$T$138, DW_AT_type(*$C$DW$T$136)
    2649                    .dwattr $C$DW$T$138, DW_AT_language(DW_LANG_C)
    2650                    .dwattr $C$DW$T$138, DW_AT_decl_file("C:/ti/ccs1110/ccs/tools/compiler/ti-cgt-msp430_21.6.1.LT
    2651                    .dwattr $C$DW$T$138, DW_AT_decl_line(0x33)
    2652                    .dwattr $C$DW$T$138, DW_AT_decl_column(0x14)
    2653            
    2654            $C$DW$T$139     .dwtag  DW_TAG_typedef
    2655                    .dwattr $C$DW$T$139, DW_AT_name("__fsfilcnt_t")
    2656                    .dwattr $C$DW$T$139, DW_AT_type(*$C$DW$T$136)
    2657                    .dwattr $C$DW$T$139, DW_AT_language(DW_LANG_C)
    2658                    .dwattr $C$DW$T$139, DW_AT_decl_file("C:/ti/ccs1110/ccs/tools/compiler/ti-cgt-msp430_21.6.1.LT
    2659                    .dwattr $C$DW$T$139, DW_AT_decl_line(0x34)
    2660                    .dwattr $C$DW$T$139, DW_AT_decl_column(0x14)
    2661            
    2662            $C$DW$T$140     .dwtag  DW_TAG_typedef
    2663                    .dwattr $C$DW$T$140, DW_AT_name("__ino_t")
    2664                    .dwattr $C$DW$T$140, DW_AT_type(*$C$DW$T$136)
    2665                    .dwattr $C$DW$T$140, DW_AT_language(DW_LANG_C)
    2666                    .dwattr $C$DW$T$140, DW_AT_decl_file("C:/ti/ccs1110/ccs/tools/compiler/ti-cgt-msp430_21.6.1.LT
    2667                    .dwattr $C$DW$T$140, DW_AT_decl_line(0x37)
    2668                    .dwattr $C$DW$T$140, DW_AT_decl_column(0x14)
    2669            
    2670            $C$DW$T$141     .dwtag  DW_TAG_typedef
    2671                    .dwattr $C$DW$T$141, DW_AT_name("__nlink_t")
    2672                    .dwattr $C$DW$T$141, DW_AT_type(*$C$DW$T$136)
    2673                    .dwattr $C$DW$T$141, DW_AT_language(DW_LANG_C)
    2674                    .dwattr $C$DW$T$141, DW_AT_decl_file("C:/ti/ccs1110/ccs/tools/compiler/ti-cgt-msp430_21.6.1.LT
MSP430 Assembler PC v21.6.1 Tue Dec 20 13:45:47 2022

Copyright (c) 2003-2018 Texas Instruments Incorporated
gpio.asm                                                             PAGE   51

    2675                    .dwattr $C$DW$T$141, DW_AT_decl_line(0x3d)
    2676                    .dwattr $C$DW$T$141, DW_AT_decl_column(0x14)
    2677            
    2678            $C$DW$T$142     .dwtag  DW_TAG_typedef
    2679                    .dwattr $C$DW$T$142, DW_AT_name("__uint_fast64_t")
    2680                    .dwattr $C$DW$T$142, DW_AT_type(*$C$DW$T$136)
    2681                    .dwattr $C$DW$T$142, DW_AT_language(DW_LANG_C)
    2682                    .dwattr $C$DW$T$142, DW_AT_decl_file("C:/ti/ccs1110/ccs/tools/compiler/ti-cgt-msp430_21.6.1.LT
    2683                    .dwattr $C$DW$T$142, DW_AT_decl_line(0x73)
    2684                    .dwattr $C$DW$T$142, DW_AT_decl_column(0x14)
    2685            
    2686            $C$DW$T$143     .dwtag  DW_TAG_typedef
    2687                    .dwattr $C$DW$T$143, DW_AT_name("uint_fast64_t")
    2688                    .dwattr $C$DW$T$143, DW_AT_type(*$C$DW$T$142)
    2689                    .dwattr $C$DW$T$143, DW_AT_language(DW_LANG_C)
    2690                    .dwattr $C$DW$T$143, DW_AT_decl_file("C:/ti/ccs1110/ccs/tools/compiler/ti-cgt-msp430_21.6.1.LT
    2691                    .dwattr $C$DW$T$143, DW_AT_decl_line(0x3c)
    2692                    .dwattr $C$DW$T$143, DW_AT_decl_column(0x1a)
    2693            
    2694            $C$DW$T$144     .dwtag  DW_TAG_typedef
    2695                    .dwattr $C$DW$T$144, DW_AT_name("__uint_least64_t")
    2696                    .dwattr $C$DW$T$144, DW_AT_type(*$C$DW$T$136)
    2697                    .dwattr $C$DW$T$144, DW_AT_language(DW_LANG_C)
    2698                    .dwattr $C$DW$T$144, DW_AT_decl_file("C:/ti/ccs1110/ccs/tools/compiler/ti-cgt-msp430_21.6.1.LT
    2699                    .dwattr $C$DW$T$144, DW_AT_decl_line(0x77)
    2700                    .dwattr $C$DW$T$144, DW_AT_decl_column(0x14)
    2701            
    2702            $C$DW$T$145     .dwtag  DW_TAG_typedef
    2703                    .dwattr $C$DW$T$145, DW_AT_name("uint_least64_t")
    2704                    .dwattr $C$DW$T$145, DW_AT_type(*$C$DW$T$144)
    2705                    .dwattr $C$DW$T$145, DW_AT_language(DW_LANG_C)
    2706                    .dwattr $C$DW$T$145, DW_AT_decl_file("C:/ti/ccs1110/ccs/tools/compiler/ti-cgt-msp430_21.6.1.LT
    2707                    .dwattr $C$DW$T$145, DW_AT_decl_line(0x32)
    2708                    .dwattr $C$DW$T$145, DW_AT_decl_column(0x1a)
    2709            
    2710            $C$DW$T$146     .dwtag  DW_TAG_typedef
    2711                    .dwattr $C$DW$T$146, DW_AT_name("__uintmax_t")
    2712                    .dwattr $C$DW$T$146, DW_AT_type(*$C$DW$T$136)
    2713                    .dwattr $C$DW$T$146, DW_AT_language(DW_LANG_C)
    2714                    .dwattr $C$DW$T$146, DW_AT_decl_file("C:/ti/ccs1110/ccs/tools/compiler/ti-cgt-msp430_21.6.1.LT
    2715                    .dwattr $C$DW$T$146, DW_AT_decl_line(0x69)
    2716                    .dwattr $C$DW$T$146, DW_AT_decl_column(0x14)
    2717            
    2718            $C$DW$T$147     .dwtag  DW_TAG_typedef
    2719                    .dwattr $C$DW$T$147, DW_AT_name("__rman_res_t")
    2720                    .dwattr $C$DW$T$147, DW_AT_type(*$C$DW$T$146)
    2721                    .dwattr $C$DW$T$147, DW_AT_language(DW_LANG_C)
    2722                    .dwattr $C$DW$T$147, DW_AT_decl_file("C:/ti/ccs1110/ccs/tools/compiler/ti-cgt-msp430_21.6.1.LT
    2723                    .dwattr $C$DW$T$147, DW_AT_decl_line(0x9a)
    2724                    .dwattr $C$DW$T$147, DW_AT_decl_column(0x19)
    2725            
    2726            $C$DW$T$148     .dwtag  DW_TAG_typedef
    2727                    .dwattr $C$DW$T$148, DW_AT_name("uintmax_t")
    2728                    .dwattr $C$DW$T$148, DW_AT_type(*$C$DW$T$146)
    2729                    .dwattr $C$DW$T$148, DW_AT_language(DW_LANG_C)
MSP430 Assembler PC v21.6.1 Tue Dec 20 13:45:47 2022

Copyright (c) 2003-2018 Texas Instruments Incorporated
gpio.asm                                                             PAGE   52

    2730                    .dwattr $C$DW$T$148, DW_AT_decl_file("C:/ti/ccs1110/ccs/tools/compiler/ti-cgt-msp430_21.6.1.LT
    2731                    .dwattr $C$DW$T$148, DW_AT_decl_line(0x5c)
    2732                    .dwattr $C$DW$T$148, DW_AT_decl_column(0x16)
    2733            
    2734            $C$DW$T$149     .dwtag  DW_TAG_typedef
    2735                    .dwattr $C$DW$T$149, DW_AT_name("uint64_t")
    2736                    .dwattr $C$DW$T$149, DW_AT_type(*$C$DW$T$136)
    2737                    .dwattr $C$DW$T$149, DW_AT_language(DW_LANG_C)
    2738                    .dwattr $C$DW$T$149, DW_AT_decl_file("C:/ti/ccs1110/ccs/tools/compiler/ti-cgt-msp430_21.6.1.LT
    2739                    .dwattr $C$DW$T$149, DW_AT_decl_line(0x4b)
    2740                    .dwattr $C$DW$T$149, DW_AT_decl_column(0x15)
    2741            
    2742            $C$DW$T$16      .dwtag  DW_TAG_base_type
    2743                    .dwattr $C$DW$T$16, DW_AT_encoding(DW_ATE_float)
    2744                    .dwattr $C$DW$T$16, DW_AT_name("float")
    2745                    .dwattr $C$DW$T$16, DW_AT_byte_size(0x04)
    2746            
    2747            $C$DW$T$150     .dwtag  DW_TAG_typedef
    2748                    .dwattr $C$DW$T$150, DW_AT_name("__float_t")
    2749                    .dwattr $C$DW$T$150, DW_AT_type(*$C$DW$T$16)
    2750                    .dwattr $C$DW$T$150, DW_AT_language(DW_LANG_C)
    2751                    .dwattr $C$DW$T$150, DW_AT_decl_file("C:/ti/ccs1110/ccs/tools/compiler/ti-cgt-msp430_21.6.1.LT
    2752                    .dwattr $C$DW$T$150, DW_AT_decl_line(0x4d)
    2753                    .dwattr $C$DW$T$150, DW_AT_decl_column(0x10)
    2754            
    2755            $C$DW$T$17      .dwtag  DW_TAG_base_type
    2756                    .dwattr $C$DW$T$17, DW_AT_encoding(DW_ATE_float)
    2757                    .dwattr $C$DW$T$17, DW_AT_name("double")
    2758                    .dwattr $C$DW$T$17, DW_AT_byte_size(0x08)
    2759            
    2760            $C$DW$T$151     .dwtag  DW_TAG_typedef
    2761                    .dwattr $C$DW$T$151, DW_AT_name("__double_t")
    2762                    .dwattr $C$DW$T$151, DW_AT_type(*$C$DW$T$17)
    2763                    .dwattr $C$DW$T$151, DW_AT_language(DW_LANG_C)
    2764                    .dwattr $C$DW$T$151, DW_AT_decl_file("C:/ti/ccs1110/ccs/tools/compiler/ti-cgt-msp430_21.6.1.LT
    2765                    .dwattr $C$DW$T$151, DW_AT_decl_line(0x4c)
    2766                    .dwattr $C$DW$T$151, DW_AT_decl_column(0x11)
    2767            
    2768            $C$DW$T$18      .dwtag  DW_TAG_base_type
    2769                    .dwattr $C$DW$T$18, DW_AT_encoding(DW_ATE_float)
    2770                    .dwattr $C$DW$T$18, DW_AT_name("long double")
    2771                    .dwattr $C$DW$T$18, DW_AT_byte_size(0x08)
    2772            
    2773            $C$DW$T$153     .dwtag  DW_TAG_pointer_type
    2774                    .dwattr $C$DW$T$153, DW_AT_type(*$C$DW$T$6)
    2775                    .dwattr $C$DW$T$153, DW_AT_address_class(0x14)
    2776            
    2777            $C$DW$T$154     .dwtag  DW_TAG_typedef
    2778                    .dwattr $C$DW$T$154, DW_AT_name("__va_list")
    2779                    .dwattr $C$DW$T$154, DW_AT_type(*$C$DW$T$153)
    2780                    .dwattr $C$DW$T$154, DW_AT_language(DW_LANG_C)
    2781                    .dwattr $C$DW$T$154, DW_AT_decl_file("C:/ti/ccs1110/ccs/tools/compiler/ti-cgt-msp430_21.6.1.LT
    2782                    .dwattr $C$DW$T$154, DW_AT_decl_line(0x92)
    2783                    .dwattr $C$DW$T$154, DW_AT_decl_column(0x0f)
    2784            
MSP430 Assembler PC v21.6.1 Tue Dec 20 13:45:47 2022

Copyright (c) 2003-2018 Texas Instruments Incorporated
gpio.asm                                                             PAGE   53

    2785            
    2786            $C$DW$T$19      .dwtag  DW_TAG_structure_type
    2787                    .dwattr $C$DW$T$19, DW_AT_name("__mq")
    2788                    .dwattr $C$DW$T$19, DW_AT_declaration
    2789                    .dwattr $C$DW$T$19, DW_AT_decl_file("C:/ti/ccs1110/ccs/tools/compiler/ti-cgt-msp430_21.6.1.LTS
    2790                    .dwattr $C$DW$T$19, DW_AT_decl_line(0x4c)
    2791                    .dwattr $C$DW$T$19, DW_AT_decl_column(0x10)
    2792                    .dwendtag $C$DW$T$19
    2793            
    2794            $C$DW$T$155     .dwtag  DW_TAG_pointer_type
    2795                    .dwattr $C$DW$T$155, DW_AT_type(*$C$DW$T$19)
    2796                    .dwattr $C$DW$T$155, DW_AT_address_class(0x14)
    2797            
    2798            $C$DW$T$156     .dwtag  DW_TAG_typedef
    2799                    .dwattr $C$DW$T$156, DW_AT_name("__mqd_t")
    2800                    .dwattr $C$DW$T$156, DW_AT_type(*$C$DW$T$155)
    2801                    .dwattr $C$DW$T$156, DW_AT_language(DW_LANG_C)
    2802                    .dwattr $C$DW$T$156, DW_AT_decl_file("C:/ti/ccs1110/ccs/tools/compiler/ti-cgt-msp430_21.6.1.LT
    2803                    .dwattr $C$DW$T$156, DW_AT_decl_line(0x4c)
    2804                    .dwattr $C$DW$T$156, DW_AT_decl_column(0x16)
    2805            
    2806            
    2807            $C$DW$T$20      .dwtag  DW_TAG_structure_type
    2808                    .dwattr $C$DW$T$20, DW_AT_name("__timer")
    2809                    .dwattr $C$DW$T$20, DW_AT_declaration
    2810                    .dwattr $C$DW$T$20, DW_AT_decl_file("C:/ti/ccs1110/ccs/tools/compiler/ti-cgt-msp430_21.6.1.LTS
    2811                    .dwattr $C$DW$T$20, DW_AT_decl_line(0x4b)
    2812                    .dwattr $C$DW$T$20, DW_AT_decl_column(0x10)
    2813                    .dwendtag $C$DW$T$20
    2814            
    2815            $C$DW$T$157     .dwtag  DW_TAG_pointer_type
    2816                    .dwattr $C$DW$T$157, DW_AT_type(*$C$DW$T$20)
    2817                    .dwattr $C$DW$T$157, DW_AT_address_class(0x14)
    2818            
    2819            $C$DW$T$158     .dwtag  DW_TAG_typedef
    2820                    .dwattr $C$DW$T$158, DW_AT_name("__timer_t")
    2821                    .dwattr $C$DW$T$158, DW_AT_type(*$C$DW$T$157)
    2822                    .dwattr $C$DW$T$158, DW_AT_language(DW_LANG_C)
    2823                    .dwattr $C$DW$T$158, DW_AT_decl_file("C:/ti/ccs1110/ccs/tools/compiler/ti-cgt-msp430_21.6.1.LT
    2824                    .dwattr $C$DW$T$158, DW_AT_decl_line(0x4b)
    2825                    .dwattr $C$DW$T$158, DW_AT_decl_column(0x19)
    2826            
    2827                    .dwattr $C$DW$CU, DW_AT_language(DW_LANG_C)
    2828            
    2829            ;***************************************************************
    2830            ;* DWARF CIE ENTRIES                                           *
    2831            ;***************************************************************
    2832            
    2833            $C$DW$CIE       .dwcie 16
    2834                    .dwcfi  cfa_register, 1
    2835                    .dwcfi  cfa_offset, 0
    2836                    .dwcfi  same_value, 0
    2837                    .dwcfi  same_value, 1
    2838                    .dwcfi  same_value, 3
    2839                    .dwcfi  same_value, 4
MSP430 Assembler PC v21.6.1 Tue Dec 20 13:45:47 2022

Copyright (c) 2003-2018 Texas Instruments Incorporated
gpio.asm                                                             PAGE   54

    2840                    .dwcfi  same_value, 5
    2841                    .dwcfi  same_value, 6
    2842                    .dwcfi  same_value, 7
    2843                    .dwcfi  same_value, 8
    2844                    .dwcfi  same_value, 9
    2845                    .dwcfi  same_value, 10
    2846                    .dwendentry
    2847            
    2848            ;***************************************************************
    2849            ;* DWARF REGISTER MAP                                          *
    2850            ;***************************************************************
    2851            
    2852            $C$DW$122       .dwtag  DW_TAG_TI_assign_register
    2853                    .dwattr $C$DW$122, DW_AT_name("PC")
    2854                    .dwattr $C$DW$122, DW_AT_location[DW_OP_reg0]
    2855            
    2856            $C$DW$123       .dwtag  DW_TAG_TI_assign_register
    2857                    .dwattr $C$DW$123, DW_AT_name("SP")
    2858                    .dwattr $C$DW$123, DW_AT_location[DW_OP_reg1]
    2859            
    2860            $C$DW$124       .dwtag  DW_TAG_TI_assign_register
    2861                    .dwattr $C$DW$124, DW_AT_name("SR")
    2862                    .dwattr $C$DW$124, DW_AT_location[DW_OP_reg2]
    2863            
    2864            $C$DW$125       .dwtag  DW_TAG_TI_assign_register
    2865                    .dwattr $C$DW$125, DW_AT_name("CG")
    2866                    .dwattr $C$DW$125, DW_AT_location[DW_OP_reg3]
    2867            
    2868            $C$DW$126       .dwtag  DW_TAG_TI_assign_register
    2869                    .dwattr $C$DW$126, DW_AT_name("r4")
    2870                    .dwattr $C$DW$126, DW_AT_location[DW_OP_reg4]
    2871            
    2872            $C$DW$127       .dwtag  DW_TAG_TI_assign_register
    2873                    .dwattr $C$DW$127, DW_AT_name("r5")
    2874                    .dwattr $C$DW$127, DW_AT_location[DW_OP_reg5]
    2875            
    2876            $C$DW$128       .dwtag  DW_TAG_TI_assign_register
    2877                    .dwattr $C$DW$128, DW_AT_name("r6")
    2878                    .dwattr $C$DW$128, DW_AT_location[DW_OP_reg6]
    2879            
    2880            $C$DW$129       .dwtag  DW_TAG_TI_assign_register
    2881                    .dwattr $C$DW$129, DW_AT_name("r7")
    2882                    .dwattr $C$DW$129, DW_AT_location[DW_OP_reg7]
    2883            
    2884            $C$DW$130       .dwtag  DW_TAG_TI_assign_register
    2885                    .dwattr $C$DW$130, DW_AT_name("r8")
    2886                    .dwattr $C$DW$130, DW_AT_location[DW_OP_reg8]
    2887            
    2888            $C$DW$131       .dwtag  DW_TAG_TI_assign_register
    2889                    .dwattr $C$DW$131, DW_AT_name("r9")
    2890                    .dwattr $C$DW$131, DW_AT_location[DW_OP_reg9]
    2891            
    2892            $C$DW$132       .dwtag  DW_TAG_TI_assign_register
    2893                    .dwattr $C$DW$132, DW_AT_name("r10")
    2894                    .dwattr $C$DW$132, DW_AT_location[DW_OP_reg10]
MSP430 Assembler PC v21.6.1 Tue Dec 20 13:45:47 2022

Copyright (c) 2003-2018 Texas Instruments Incorporated
gpio.asm                                                             PAGE   55

    2895            
    2896            $C$DW$133       .dwtag  DW_TAG_TI_assign_register
    2897                    .dwattr $C$DW$133, DW_AT_name("r11")
    2898                    .dwattr $C$DW$133, DW_AT_location[DW_OP_reg11]
    2899            
    2900            $C$DW$134       .dwtag  DW_TAG_TI_assign_register
    2901                    .dwattr $C$DW$134, DW_AT_name("r12")
    2902                    .dwattr $C$DW$134, DW_AT_location[DW_OP_reg12]
    2903            
    2904            $C$DW$135       .dwtag  DW_TAG_TI_assign_register
    2905                    .dwattr $C$DW$135, DW_AT_name("r13")
    2906                    .dwattr $C$DW$135, DW_AT_location[DW_OP_reg13]
    2907            
    2908            $C$DW$136       .dwtag  DW_TAG_TI_assign_register
    2909                    .dwattr $C$DW$136, DW_AT_name("r14")
    2910                    .dwattr $C$DW$136, DW_AT_location[DW_OP_reg14]
    2911            
    2912            $C$DW$137       .dwtag  DW_TAG_TI_assign_register
    2913                    .dwattr $C$DW$137, DW_AT_name("r15")
    2914                    .dwattr $C$DW$137, DW_AT_location[DW_OP_reg15]
    2915            
    2916            $C$DW$138       .dwtag  DW_TAG_TI_assign_register
    2917                    .dwattr $C$DW$138, DW_AT_name("CIE_RETA")
    2918                    .dwattr $C$DW$138, DW_AT_location[DW_OP_reg16]
    2919            
    2920                    .dwendtag $C$DW$CU
    2921            

No Assembly Errors, No Assembly Warnings
