MSP430 Assembler PC v21.6.1 Tue Dec 20 13:45:48 2022

Copyright (c) 2003-2018 Texas Instruments Incorporated
mpy32.asm                                                            PAGE    1

       1            ;******************************************************************************
       2            ;* MSP430 G3 C/C++ Codegen                                              PC v21.6.1.LTS *
       3            ;* Date/Time created: Tue Dec 20 13:45:48 2022                                *
       4            ;******************************************************************************
       5                    .compiler_opts --abi=eabi --diag_wrap=off --hll_source=on --mem_model:code=large --mem_model:d
       6            
       7            $C$DW$CU        .dwtag  DW_TAG_compile_unit
       8                    .dwattr $C$DW$CU, DW_AT_name("../MP430DriverLib/driverlib/MSP430F5xx_6xx/mpy32.c")
       9                    .dwattr $C$DW$CU, DW_AT_producer("TI MSP430 G3 C/C++ Codegen PC v21.6.1.LTS Copyright (c) 2003
      10                    .dwattr $C$DW$CU, DW_AT_TI_version(0x01)
      11                    .dwattr $C$DW$CU, DW_AT_comp_dir("C:\Users\MCourson\workspace_v11\MZERO_HB50Board\Debug")
      12            ;       C:\ti\ccs1110\ccs\tools\compiler\ti-cgt-msp430_21.6.1.LTS\bin\opt430.exe C:\\Users\\MCourson\\
      13 000000               .sect   ".text:MPY32_setWriteDelay"
      14                    .clink
      15                    .global MPY32_setWriteDelay
      16            
      17            $C$DW$1 .dwtag  DW_TAG_subprogram
      18                    .dwattr $C$DW$1, DW_AT_name("MPY32_setWriteDelay")
      19                    .dwattr $C$DW$1, DW_AT_low_pc(MPY32_setWriteDelay)
      20                    .dwattr $C$DW$1, DW_AT_high_pc(0x00)
      21                    .dwattr $C$DW$1, DW_AT_TI_symbol_name("MPY32_setWriteDelay")
      22                    .dwattr $C$DW$1, DW_AT_external
      23                    .dwattr $C$DW$1, DW_AT_TI_begin_file("../MP430DriverLib/driverlib/MSP430F5xx_6xx/mpy32.c")
      24                    .dwattr $C$DW$1, DW_AT_TI_begin_line(0x15)
      25                    .dwattr $C$DW$1, DW_AT_TI_begin_column(0x06)
      26                    .dwattr $C$DW$1, DW_AT_decl_file("../MP430DriverLib/driverlib/MSP430F5xx_6xx/mpy32.c")
      27                    .dwattr $C$DW$1, DW_AT_decl_line(0x15)
      28                    .dwattr $C$DW$1, DW_AT_decl_column(0x06)
      29                    .dwattr $C$DW$1, DW_AT_TI_max_frame_size(0x04)
      30                    .dwpsn  file "../MP430DriverLib/driverlib/MSP430F5xx_6xx/mpy32.c",line 22,column 1,is_stmt,add
      31            
      32                    .dwfde $C$DW$CIE, MPY32_setWriteDelay
      33            $C$DW$2 .dwtag  DW_TAG_formal_parameter
      34                    .dwattr $C$DW$2, DW_AT_name("writeDelaySelect")
      35                    .dwattr $C$DW$2, DW_AT_TI_symbol_name("writeDelaySelect")
      36                    .dwattr $C$DW$2, DW_AT_type(*$C$DW$T$24)
      37                    .dwattr $C$DW$2, DW_AT_location[DW_OP_reg12]
      38            
      39            
      40            ;*****************************************************************************
      41            ;* FUNCTION NAME: MPY32_setWriteDelay                                        *
      42            ;*                                                                           *
      43            ;*   Regs Modified     : SP,SR                                               *
      44            ;*   Regs Used         : SP,SR,r12                                           *
      45            ;*   Local Frame Size  : 0 Args + 0 Auto + 0 Save = 0 byte                   *
      46            ;*****************************************************************************
      47 000000       MPY32_setWriteDelay:
      48            ;* --------------------------------------------------------------------------*
      49                    .dwcfi  cfa_offset, 4
      50                    .dwcfi  save_reg_to_mem, 16, -4
      51            ;* r12   assigned to writeDelaySelect
      52            $C$DW$3 .dwtag  DW_TAG_variable
      53                    .dwattr $C$DW$3, DW_AT_name("writeDelaySelect")
      54                    .dwattr $C$DW$3, DW_AT_TI_symbol_name("writeDelaySelect")
      55                    .dwattr $C$DW$3, DW_AT_type(*$C$DW$T$24)
MSP430 Assembler PC v21.6.1 Tue Dec 20 13:45:48 2022

Copyright (c) 2003-2018 Texas Instruments Incorporated
mpy32.asm                                                            PAGE    2

      56                    .dwattr $C$DW$3, DW_AT_location[DW_OP_reg12]
      57            
      58                    .dwpsn  file "../MP430DriverLib/driverlib/MSP430F5xx_6xx/mpy32.c",line 23,column 5,is_stmt,isa
      59 000000 F0B2          AND.W     #64767,&0x4ec         ; [] |23| 
         000002 FCFF 
         000004 04EC 
      60                    .dwpsn  file "../MP430DriverLib/driverlib/MSP430F5xx_6xx/mpy32.c",line 24,column 5,is_stmt,isa
      61 000006 DC82          OR.W      r12,&0x4ec            ; [] |24| 
         000008 04EC 
      62                    .dwpsn  file "../MP430DriverLib/driverlib/MSP430F5xx_6xx/mpy32.c",line 25,column 1,is_stmt,isa
      63            $C$DW$4 .dwtag  DW_TAG_TI_branch
      64                    .dwattr $C$DW$4, DW_AT_low_pc(0x00)
      65                    .dwattr $C$DW$4, DW_AT_TI_return
      66            
      67 00000a 0110          RETA      ; [] 
      68                    ; [] 
      69                    .dwattr $C$DW$1, DW_AT_TI_end_file("../MP430DriverLib/driverlib/MSP430F5xx_6xx/mpy32.c")
      70                    .dwattr $C$DW$1, DW_AT_TI_end_line(0x19)
      71                    .dwattr $C$DW$1, DW_AT_TI_end_column(0x01)
      72                    .dwendentry
      73                    .dwendtag $C$DW$1
      74            
      75 000000               .sect   ".text:MPY32_setOperandTwo8Bit"
      76                    .clink
      77                    .global MPY32_setOperandTwo8Bit
      78            
      79            $C$DW$5 .dwtag  DW_TAG_subprogram
      80                    .dwattr $C$DW$5, DW_AT_name("MPY32_setOperandTwo8Bit")
      81                    .dwattr $C$DW$5, DW_AT_low_pc(MPY32_setOperandTwo8Bit)
      82                    .dwattr $C$DW$5, DW_AT_high_pc(0x00)
      83                    .dwattr $C$DW$5, DW_AT_TI_symbol_name("MPY32_setOperandTwo8Bit")
      84                    .dwattr $C$DW$5, DW_AT_external
      85                    .dwattr $C$DW$5, DW_AT_TI_begin_file("../MP430DriverLib/driverlib/MSP430F5xx_6xx/mpy32.c")
      86                    .dwattr $C$DW$5, DW_AT_TI_begin_line(0x55)
      87                    .dwattr $C$DW$5, DW_AT_TI_begin_column(0x06)
      88                    .dwattr $C$DW$5, DW_AT_decl_file("../MP430DriverLib/driverlib/MSP430F5xx_6xx/mpy32.c")
      89                    .dwattr $C$DW$5, DW_AT_decl_line(0x55)
      90                    .dwattr $C$DW$5, DW_AT_decl_column(0x06)
      91                    .dwattr $C$DW$5, DW_AT_TI_max_frame_size(0x04)
      92                    .dwpsn  file "../MP430DriverLib/driverlib/MSP430F5xx_6xx/mpy32.c",line 86,column 1,is_stmt,add
      93            
      94                    .dwfde $C$DW$CIE, MPY32_setOperandTwo8Bit
      95            $C$DW$6 .dwtag  DW_TAG_formal_parameter
      96                    .dwattr $C$DW$6, DW_AT_name("operand")
      97                    .dwattr $C$DW$6, DW_AT_TI_symbol_name("operand")
      98                    .dwattr $C$DW$6, DW_AT_type(*$C$DW$T$28)
      99                    .dwattr $C$DW$6, DW_AT_location[DW_OP_reg12]
     100            
     101            
     102            ;*****************************************************************************
     103            ;* FUNCTION NAME: MPY32_setOperandTwo8Bit                                    *
     104            ;*                                                                           *
     105            ;*   Regs Modified     : SP                                                  *
     106            ;*   Regs Used         : SP,r12                                              *
     107            ;*   Local Frame Size  : 0 Args + 0 Auto + 0 Save = 0 byte                   *
MSP430 Assembler PC v21.6.1 Tue Dec 20 13:45:48 2022

Copyright (c) 2003-2018 Texas Instruments Incorporated
mpy32.asm                                                            PAGE    3

     108            ;*****************************************************************************
     109 000000       MPY32_setOperandTwo8Bit:
     110            ;* --------------------------------------------------------------------------*
     111                    .dwcfi  cfa_offset, 4
     112                    .dwcfi  save_reg_to_mem, 16, -4
     113            ;* r12   assigned to operand
     114            $C$DW$7 .dwtag  DW_TAG_variable
     115                    .dwattr $C$DW$7, DW_AT_name("operand")
     116                    .dwattr $C$DW$7, DW_AT_TI_symbol_name("operand")
     117                    .dwattr $C$DW$7, DW_AT_type(*$C$DW$T$28)
     118                    .dwattr $C$DW$7, DW_AT_location[DW_OP_reg12]
     119            
     120                    .dwpsn  file "../MP430DriverLib/driverlib/MSP430F5xx_6xx/mpy32.c",line 87,column 5,is_stmt,isa
     121 000000 4CC2          MOV.B     r12,&0x4c8            ; [] |87| 
         000002 04C8 
     122                    .dwpsn  file "../MP430DriverLib/driverlib/MSP430F5xx_6xx/mpy32.c",line 88,column 1,is_stmt,isa
     123            $C$DW$8 .dwtag  DW_TAG_TI_branch
     124                    .dwattr $C$DW$8, DW_AT_low_pc(0x00)
     125                    .dwattr $C$DW$8, DW_AT_TI_return
     126            
     127 000004 0110          RETA      ; [] 
     128                    ; [] 
     129                    .dwattr $C$DW$5, DW_AT_TI_end_file("../MP430DriverLib/driverlib/MSP430F5xx_6xx/mpy32.c")
     130                    .dwattr $C$DW$5, DW_AT_TI_end_line(0x58)
     131                    .dwattr $C$DW$5, DW_AT_TI_end_column(0x01)
     132                    .dwendentry
     133                    .dwendtag $C$DW$5
     134            
     135 000000               .sect   ".text:MPY32_setOperandTwo32Bit"
     136                    .clink
     137                    .global MPY32_setOperandTwo32Bit
     138            
     139            $C$DW$9 .dwtag  DW_TAG_subprogram
     140                    .dwattr $C$DW$9, DW_AT_name("MPY32_setOperandTwo32Bit")
     141                    .dwattr $C$DW$9, DW_AT_low_pc(MPY32_setOperandTwo32Bit)
     142                    .dwattr $C$DW$9, DW_AT_high_pc(0x00)
     143                    .dwattr $C$DW$9, DW_AT_TI_symbol_name("MPY32_setOperandTwo32Bit")
     144                    .dwattr $C$DW$9, DW_AT_external
     145                    .dwattr $C$DW$9, DW_AT_TI_begin_file("../MP430DriverLib/driverlib/MSP430F5xx_6xx/mpy32.c")
     146                    .dwattr $C$DW$9, DW_AT_TI_begin_line(0x65)
     147                    .dwattr $C$DW$9, DW_AT_TI_begin_column(0x06)
     148                    .dwattr $C$DW$9, DW_AT_decl_file("../MP430DriverLib/driverlib/MSP430F5xx_6xx/mpy32.c")
     149                    .dwattr $C$DW$9, DW_AT_decl_line(0x65)
     150                    .dwattr $C$DW$9, DW_AT_decl_column(0x06)
     151                    .dwattr $C$DW$9, DW_AT_TI_max_frame_size(0x04)
     152                    .dwpsn  file "../MP430DriverLib/driverlib/MSP430F5xx_6xx/mpy32.c",line 102,column 1,is_stmt,ad
     153            
     154                    .dwfde $C$DW$CIE, MPY32_setOperandTwo32Bit
     155            $C$DW$10        .dwtag  DW_TAG_formal_parameter
     156                    .dwattr $C$DW$10, DW_AT_name("operand")
     157                    .dwattr $C$DW$10, DW_AT_TI_symbol_name("operand")
     158                    .dwattr $C$DW$10, DW_AT_type(*$C$DW$T$32)
     159                    .dwattr $C$DW$10, DW_AT_location[DW_OP_reg12 DW_OP_piece 2 DW_OP_reg13 DW_OP_piece 2]
     160            
     161            
MSP430 Assembler PC v21.6.1 Tue Dec 20 13:45:48 2022

Copyright (c) 2003-2018 Texas Instruments Incorporated
mpy32.asm                                                            PAGE    4

     162            ;*****************************************************************************
     163            ;* FUNCTION NAME: MPY32_setOperandTwo32Bit                                   *
     164            ;*                                                                           *
     165            ;*   Regs Modified     : SP                                                  *
     166            ;*   Regs Used         : SP,r12,r13                                          *
     167            ;*   Local Frame Size  : 0 Args + 0 Auto + 0 Save = 0 byte                   *
     168            ;*****************************************************************************
     169 000000       MPY32_setOperandTwo32Bit:
     170            ;* --------------------------------------------------------------------------*
     171                    .dwcfi  cfa_offset, 4
     172                    .dwcfi  save_reg_to_mem, 16, -4
     173            ;* r12   assigned to operand
     174            $C$DW$11        .dwtag  DW_TAG_variable
     175                    .dwattr $C$DW$11, DW_AT_name("operand")
     176                    .dwattr $C$DW$11, DW_AT_TI_symbol_name("operand")
     177                    .dwattr $C$DW$11, DW_AT_type(*$C$DW$T$32)
     178                    .dwattr $C$DW$11, DW_AT_location[DW_OP_reg12 DW_OP_piece 2 DW_OP_reg13 DW_OP_piece 2]
     179            
     180                    .dwpsn  file "../MP430DriverLib/driverlib/MSP430F5xx_6xx/mpy32.c",line 103,column 5,is_stmt,is
     181 000000 4C82          MOV.W     r12,&0x4e0            ; [] |103| 
         000002 04E0 
     182                    .dwpsn  file "../MP430DriverLib/driverlib/MSP430F5xx_6xx/mpy32.c",line 104,column 5,is_stmt,is
     183 000004 4D82          MOV.W     r13,&0x4e2            ; [] |104| 
         000006 04E2 
     184                    .dwpsn  file "../MP430DriverLib/driverlib/MSP430F5xx_6xx/mpy32.c",line 105,column 1,is_stmt,is
     185            $C$DW$12        .dwtag  DW_TAG_TI_branch
     186                    .dwattr $C$DW$12, DW_AT_low_pc(0x00)
     187                    .dwattr $C$DW$12, DW_AT_TI_return
     188            
     189 000008 0110          RETA      ; [] 
     190                    ; [] 
     191                    .dwattr $C$DW$9, DW_AT_TI_end_file("../MP430DriverLib/driverlib/MSP430F5xx_6xx/mpy32.c")
     192                    .dwattr $C$DW$9, DW_AT_TI_end_line(0x69)
     193                    .dwattr $C$DW$9, DW_AT_TI_end_column(0x01)
     194                    .dwendentry
     195                    .dwendtag $C$DW$9
     196            
     197 000000               .sect   ".text:MPY32_setOperandTwo24Bit"
     198                    .clink
     199                    .global MPY32_setOperandTwo24Bit
     200            
     201            $C$DW$13        .dwtag  DW_TAG_subprogram
     202                    .dwattr $C$DW$13, DW_AT_name("MPY32_setOperandTwo24Bit")
     203                    .dwattr $C$DW$13, DW_AT_low_pc(MPY32_setOperandTwo24Bit)
     204                    .dwattr $C$DW$13, DW_AT_high_pc(0x00)
     205                    .dwattr $C$DW$13, DW_AT_TI_symbol_name("MPY32_setOperandTwo24Bit")
     206                    .dwattr $C$DW$13, DW_AT_external
     207                    .dwattr $C$DW$13, DW_AT_TI_begin_file("../MP430DriverLib/driverlib/MSP430F5xx_6xx/mpy32.c")
     208                    .dwattr $C$DW$13, DW_AT_TI_begin_line(0x5f)
     209                    .dwattr $C$DW$13, DW_AT_TI_begin_column(0x06)
     210                    .dwattr $C$DW$13, DW_AT_decl_file("../MP430DriverLib/driverlib/MSP430F5xx_6xx/mpy32.c")
     211                    .dwattr $C$DW$13, DW_AT_decl_line(0x5f)
     212                    .dwattr $C$DW$13, DW_AT_decl_column(0x06)
     213                    .dwattr $C$DW$13, DW_AT_TI_max_frame_size(0x04)
     214                    .dwpsn  file "../MP430DriverLib/driverlib/MSP430F5xx_6xx/mpy32.c",line 96,column 1,is_stmt,add
MSP430 Assembler PC v21.6.1 Tue Dec 20 13:45:48 2022

Copyright (c) 2003-2018 Texas Instruments Incorporated
mpy32.asm                                                            PAGE    5

     215            
     216                    .dwfde $C$DW$CIE, MPY32_setOperandTwo24Bit
     217            $C$DW$14        .dwtag  DW_TAG_formal_parameter
     218                    .dwattr $C$DW$14, DW_AT_name("operand")
     219                    .dwattr $C$DW$14, DW_AT_TI_symbol_name("operand")
     220                    .dwattr $C$DW$14, DW_AT_type(*$C$DW$T$32)
     221                    .dwattr $C$DW$14, DW_AT_location[DW_OP_reg12 DW_OP_piece 2 DW_OP_reg13 DW_OP_piece 2]
     222            
     223            
     224            ;*****************************************************************************
     225            ;* FUNCTION NAME: MPY32_setOperandTwo24Bit                                   *
     226            ;*                                                                           *
     227            ;*   Regs Modified     : SP                                                  *
     228            ;*   Regs Used         : SP,r12,r13                                          *
     229            ;*   Local Frame Size  : 0 Args + 0 Auto + 0 Save = 0 byte                   *
     230            ;*****************************************************************************
     231 000000       MPY32_setOperandTwo24Bit:
     232            ;* --------------------------------------------------------------------------*
     233                    .dwcfi  cfa_offset, 4
     234                    .dwcfi  save_reg_to_mem, 16, -4
     235            ;* r12   assigned to operand
     236            $C$DW$15        .dwtag  DW_TAG_variable
     237                    .dwattr $C$DW$15, DW_AT_name("operand")
     238                    .dwattr $C$DW$15, DW_AT_TI_symbol_name("operand")
     239                    .dwattr $C$DW$15, DW_AT_type(*$C$DW$T$32)
     240                    .dwattr $C$DW$15, DW_AT_location[DW_OP_reg12 DW_OP_piece 2 DW_OP_reg13 DW_OP_piece 2]
     241            
     242                    .dwpsn  file "../MP430DriverLib/driverlib/MSP430F5xx_6xx/mpy32.c",line 97,column 5,is_stmt,isa
     243 000000 4C82          MOV.W     r12,&0x4e0            ; [] |97| 
         000002 04E0 
     244                    .dwpsn  file "../MP430DriverLib/driverlib/MSP430F5xx_6xx/mpy32.c",line 98,column 5,is_stmt,isa
     245 000004 4DC2          MOV.B     r13,&0x4e2            ; [] |98| 
         000006 04E2 
     246                    .dwpsn  file "../MP430DriverLib/driverlib/MSP430F5xx_6xx/mpy32.c",line 99,column 1,is_stmt,isa
     247            $C$DW$16        .dwtag  DW_TAG_TI_branch
     248                    .dwattr $C$DW$16, DW_AT_low_pc(0x00)
     249                    .dwattr $C$DW$16, DW_AT_TI_return
     250            
     251 000008 0110          RETA      ; [] 
     252                    ; [] 
     253                    .dwattr $C$DW$13, DW_AT_TI_end_file("../MP430DriverLib/driverlib/MSP430F5xx_6xx/mpy32.c")
     254                    .dwattr $C$DW$13, DW_AT_TI_end_line(0x63)
     255                    .dwattr $C$DW$13, DW_AT_TI_end_column(0x01)
     256                    .dwendentry
     257                    .dwendtag $C$DW$13
     258            
     259 000000               .sect   ".text:MPY32_setOperandTwo16Bit"
     260                    .clink
     261                    .global MPY32_setOperandTwo16Bit
     262            
     263            $C$DW$17        .dwtag  DW_TAG_subprogram
     264                    .dwattr $C$DW$17, DW_AT_name("MPY32_setOperandTwo16Bit")
     265                    .dwattr $C$DW$17, DW_AT_low_pc(MPY32_setOperandTwo16Bit)
     266                    .dwattr $C$DW$17, DW_AT_high_pc(0x00)
     267                    .dwattr $C$DW$17, DW_AT_TI_symbol_name("MPY32_setOperandTwo16Bit")
MSP430 Assembler PC v21.6.1 Tue Dec 20 13:45:48 2022

Copyright (c) 2003-2018 Texas Instruments Incorporated
mpy32.asm                                                            PAGE    6

     268                    .dwattr $C$DW$17, DW_AT_external
     269                    .dwattr $C$DW$17, DW_AT_TI_begin_file("../MP430DriverLib/driverlib/MSP430F5xx_6xx/mpy32.c")
     270                    .dwattr $C$DW$17, DW_AT_TI_begin_line(0x5a)
     271                    .dwattr $C$DW$17, DW_AT_TI_begin_column(0x06)
     272                    .dwattr $C$DW$17, DW_AT_decl_file("../MP430DriverLib/driverlib/MSP430F5xx_6xx/mpy32.c")
     273                    .dwattr $C$DW$17, DW_AT_decl_line(0x5a)
     274                    .dwattr $C$DW$17, DW_AT_decl_column(0x06)
     275                    .dwattr $C$DW$17, DW_AT_TI_max_frame_size(0x04)
     276                    .dwpsn  file "../MP430DriverLib/driverlib/MSP430F5xx_6xx/mpy32.c",line 91,column 1,is_stmt,add
     277            
     278                    .dwfde $C$DW$CIE, MPY32_setOperandTwo16Bit
     279            $C$DW$18        .dwtag  DW_TAG_formal_parameter
     280                    .dwattr $C$DW$18, DW_AT_name("operand")
     281                    .dwattr $C$DW$18, DW_AT_TI_symbol_name("operand")
     282                    .dwattr $C$DW$18, DW_AT_type(*$C$DW$T$24)
     283                    .dwattr $C$DW$18, DW_AT_location[DW_OP_reg12]
     284            
     285            
     286            ;*****************************************************************************
     287            ;* FUNCTION NAME: MPY32_setOperandTwo16Bit                                   *
     288            ;*                                                                           *
     289            ;*   Regs Modified     : SP                                                  *
     290            ;*   Regs Used         : SP,r12                                              *
     291            ;*   Local Frame Size  : 0 Args + 0 Auto + 0 Save = 0 byte                   *
     292            ;*****************************************************************************
     293 000000       MPY32_setOperandTwo16Bit:
     294            ;* --------------------------------------------------------------------------*
     295                    .dwcfi  cfa_offset, 4
     296                    .dwcfi  save_reg_to_mem, 16, -4
     297            ;* r12   assigned to operand
     298            $C$DW$19        .dwtag  DW_TAG_variable
     299                    .dwattr $C$DW$19, DW_AT_name("operand")
     300                    .dwattr $C$DW$19, DW_AT_TI_symbol_name("operand")
     301                    .dwattr $C$DW$19, DW_AT_type(*$C$DW$T$24)
     302                    .dwattr $C$DW$19, DW_AT_location[DW_OP_reg12]
     303            
     304                    .dwpsn  file "../MP430DriverLib/driverlib/MSP430F5xx_6xx/mpy32.c",line 92,column 5,is_stmt,isa
     305 000000 4C82          MOV.W     r12,&0x4c8            ; [] |92| 
         000002 04C8 
     306                    .dwpsn  file "../MP430DriverLib/driverlib/MSP430F5xx_6xx/mpy32.c",line 93,column 1,is_stmt,isa
     307            $C$DW$20        .dwtag  DW_TAG_TI_branch
     308                    .dwattr $C$DW$20, DW_AT_low_pc(0x00)
     309                    .dwattr $C$DW$20, DW_AT_TI_return
     310            
     311 000004 0110          RETA      ; [] 
     312                    ; [] 
     313                    .dwattr $C$DW$17, DW_AT_TI_end_file("../MP430DriverLib/driverlib/MSP430F5xx_6xx/mpy32.c")
     314                    .dwattr $C$DW$17, DW_AT_TI_end_line(0x5d)
     315                    .dwattr $C$DW$17, DW_AT_TI_end_column(0x01)
     316                    .dwendentry
     317                    .dwendtag $C$DW$17
     318            
     319 000000               .sect   ".text:MPY32_setOperandOne8Bit"
     320                    .clink
     321                    .global MPY32_setOperandOne8Bit
MSP430 Assembler PC v21.6.1 Tue Dec 20 13:45:48 2022

Copyright (c) 2003-2018 Texas Instruments Incorporated
mpy32.asm                                                            PAGE    7

     322            
     323            $C$DW$21        .dwtag  DW_TAG_subprogram
     324                    .dwattr $C$DW$21, DW_AT_name("MPY32_setOperandOne8Bit")
     325                    .dwattr $C$DW$21, DW_AT_low_pc(MPY32_setOperandOne8Bit)
     326                    .dwattr $C$DW$21, DW_AT_high_pc(0x00)
     327                    .dwattr $C$DW$21, DW_AT_TI_symbol_name("MPY32_setOperandOne8Bit")
     328                    .dwattr $C$DW$21, DW_AT_external
     329                    .dwattr $C$DW$21, DW_AT_TI_begin_file("../MP430DriverLib/driverlib/MSP430F5xx_6xx/mpy32.c")
     330                    .dwattr $C$DW$21, DW_AT_TI_begin_line(0x39)
     331                    .dwattr $C$DW$21, DW_AT_TI_begin_column(0x06)
     332                    .dwattr $C$DW$21, DW_AT_decl_file("../MP430DriverLib/driverlib/MSP430F5xx_6xx/mpy32.c")
     333                    .dwattr $C$DW$21, DW_AT_decl_line(0x39)
     334                    .dwattr $C$DW$21, DW_AT_decl_column(0x06)
     335                    .dwattr $C$DW$21, DW_AT_TI_max_frame_size(0x04)
     336                    .dwpsn  file "../MP430DriverLib/driverlib/MSP430F5xx_6xx/mpy32.c",line 59,column 1,is_stmt,add
     337            
     338                    .dwfde $C$DW$CIE, MPY32_setOperandOne8Bit
     339            $C$DW$22        .dwtag  DW_TAG_formal_parameter
     340                    .dwattr $C$DW$22, DW_AT_name("multiplicationType")
     341                    .dwattr $C$DW$22, DW_AT_TI_symbol_name("multiplicationType")
     342                    .dwattr $C$DW$22, DW_AT_type(*$C$DW$T$28)
     343                    .dwattr $C$DW$22, DW_AT_location[DW_OP_reg12]
     344            
     345            $C$DW$23        .dwtag  DW_TAG_formal_parameter
     346                    .dwattr $C$DW$23, DW_AT_name("operand")
     347                    .dwattr $C$DW$23, DW_AT_TI_symbol_name("operand")
     348                    .dwattr $C$DW$23, DW_AT_type(*$C$DW$T$28)
     349                    .dwattr $C$DW$23, DW_AT_location[DW_OP_reg13]
     350            
     351            
     352            ;*****************************************************************************
     353            ;* FUNCTION NAME: MPY32_setOperandOne8Bit                                    *
     354            ;*                                                                           *
     355            ;*   Regs Modified     : SP,SR,r12                                           *
     356            ;*   Regs Used         : SP,SR,r12,r13                                       *
     357            ;*   Local Frame Size  : 0 Args + 0 Auto + 0 Save = 0 byte                   *
     358            ;*****************************************************************************
     359 000000       MPY32_setOperandOne8Bit:
     360            ;* --------------------------------------------------------------------------*
     361                    .dwcfi  cfa_offset, 4
     362                    .dwcfi  save_reg_to_mem, 16, -4
     363            ;* r12   assigned to multiplicationType
     364            $C$DW$24        .dwtag  DW_TAG_variable
     365                    .dwattr $C$DW$24, DW_AT_name("multiplicationType")
     366                    .dwattr $C$DW$24, DW_AT_TI_symbol_name("multiplicationType")
     367                    .dwattr $C$DW$24, DW_AT_type(*$C$DW$T$28)
     368                    .dwattr $C$DW$24, DW_AT_location[DW_OP_reg12]
     369            
     370            ;* r13   assigned to operand
     371            $C$DW$25        .dwtag  DW_TAG_variable
     372                    .dwattr $C$DW$25, DW_AT_name("operand")
     373                    .dwattr $C$DW$25, DW_AT_TI_symbol_name("operand")
     374                    .dwattr $C$DW$25, DW_AT_type(*$C$DW$T$28)
     375                    .dwattr $C$DW$25, DW_AT_location[DW_OP_reg13]
     376            
MSP430 Assembler PC v21.6.1 Tue Dec 20 13:45:48 2022

Copyright (c) 2003-2018 Texas Instruments Incorporated
mpy32.asm                                                            PAGE    8

     377                    .dwpsn  file "../MP430DriverLib/driverlib/MSP430F5xx_6xx/mpy32.c",line 60,column 5,is_stmt,isa
     378 000000 4C4C          MOV.B     r12,r12               ; [] |60| 
     379 000002 503C          ADD.W     #1216,r12             ; [] |60| 
         000004 04C0 
     380 000006 4DCC          MOV.B     r13,0(r12)            ; [] |60| 
         000008 0000 
     381                    .dwpsn  file "../MP430DriverLib/driverlib/MSP430F5xx_6xx/mpy32.c",line 61,column 1,is_stmt,isa
     382            $C$DW$26        .dwtag  DW_TAG_TI_branch
     383                    .dwattr $C$DW$26, DW_AT_low_pc(0x00)
     384                    .dwattr $C$DW$26, DW_AT_TI_return
     385            
     386 00000a 0110          RETA      ; [] 
     387                    ; [] 
     388                    .dwattr $C$DW$21, DW_AT_TI_end_file("../MP430DriverLib/driverlib/MSP430F5xx_6xx/mpy32.c")
     389                    .dwattr $C$DW$21, DW_AT_TI_end_line(0x3d)
     390                    .dwattr $C$DW$21, DW_AT_TI_end_column(0x01)
     391                    .dwendentry
     392                    .dwendtag $C$DW$21
     393            
     394 000000               .sect   ".text:MPY32_setOperandOne32Bit"
     395                    .clink
     396                    .global MPY32_setOperandOne32Bit
     397            
     398            $C$DW$27        .dwtag  DW_TAG_subprogram
     399                    .dwattr $C$DW$27, DW_AT_name("MPY32_setOperandOne32Bit")
     400                    .dwattr $C$DW$27, DW_AT_low_pc(MPY32_setOperandOne32Bit)
     401                    .dwattr $C$DW$27, DW_AT_high_pc(0x00)
     402                    .dwattr $C$DW$27, DW_AT_TI_symbol_name("MPY32_setOperandOne32Bit")
     403                    .dwattr $C$DW$27, DW_AT_external
     404                    .dwattr $C$DW$27, DW_AT_TI_begin_file("../MP430DriverLib/driverlib/MSP430F5xx_6xx/mpy32.c")
     405                    .dwattr $C$DW$27, DW_AT_TI_begin_line(0x4d)
     406                    .dwattr $C$DW$27, DW_AT_TI_begin_column(0x06)
     407                    .dwattr $C$DW$27, DW_AT_decl_file("../MP430DriverLib/driverlib/MSP430F5xx_6xx/mpy32.c")
     408                    .dwattr $C$DW$27, DW_AT_decl_line(0x4d)
     409                    .dwattr $C$DW$27, DW_AT_decl_column(0x06)
     410                    .dwattr $C$DW$27, DW_AT_TI_max_frame_size(0x04)
     411                    .dwpsn  file "../MP430DriverLib/driverlib/MSP430F5xx_6xx/mpy32.c",line 79,column 1,is_stmt,add
     412            
     413                    .dwfde $C$DW$CIE, MPY32_setOperandOne32Bit
     414            $C$DW$28        .dwtag  DW_TAG_formal_parameter
     415                    .dwattr $C$DW$28, DW_AT_name("multiplicationType")
     416                    .dwattr $C$DW$28, DW_AT_TI_symbol_name("multiplicationType")
     417                    .dwattr $C$DW$28, DW_AT_type(*$C$DW$T$28)
     418                    .dwattr $C$DW$28, DW_AT_location[DW_OP_reg12]
     419            
     420            $C$DW$29        .dwtag  DW_TAG_formal_parameter
     421                    .dwattr $C$DW$29, DW_AT_name("operand")
     422                    .dwattr $C$DW$29, DW_AT_TI_symbol_name("operand")
     423                    .dwattr $C$DW$29, DW_AT_type(*$C$DW$T$32)
     424                    .dwattr $C$DW$29, DW_AT_location[DW_OP_reg13 DW_OP_piece 2 DW_OP_reg14 DW_OP_piece 2]
     425            
     426            
     427            ;*****************************************************************************
     428            ;* FUNCTION NAME: MPY32_setOperandOne32Bit                                   *
     429            ;*                                                                           *
MSP430 Assembler PC v21.6.1 Tue Dec 20 13:45:48 2022

Copyright (c) 2003-2018 Texas Instruments Incorporated
mpy32.asm                                                            PAGE    9

     430            ;*   Regs Modified     : SP,SR,r12,r15                                       *
     431            ;*   Regs Used         : SP,SR,r12,r13,r14,r15                               *
     432            ;*   Local Frame Size  : 0 Args + 0 Auto + 0 Save = 0 byte                   *
     433            ;*****************************************************************************
     434 000000       MPY32_setOperandOne32Bit:
     435            ;* --------------------------------------------------------------------------*
     436                    .dwcfi  cfa_offset, 4
     437                    .dwcfi  save_reg_to_mem, 16, -4
     438            ;* r12   assigned to multiplicationType
     439            $C$DW$30        .dwtag  DW_TAG_variable
     440                    .dwattr $C$DW$30, DW_AT_name("multiplicationType")
     441                    .dwattr $C$DW$30, DW_AT_TI_symbol_name("multiplicationType")
     442                    .dwattr $C$DW$30, DW_AT_type(*$C$DW$T$28)
     443                    .dwattr $C$DW$30, DW_AT_location[DW_OP_reg12]
     444            
     445            ;* r13   assigned to operand
     446            $C$DW$31        .dwtag  DW_TAG_variable
     447                    .dwattr $C$DW$31, DW_AT_name("operand")
     448                    .dwattr $C$DW$31, DW_AT_TI_symbol_name("operand")
     449                    .dwattr $C$DW$31, DW_AT_type(*$C$DW$T$32)
     450                    .dwattr $C$DW$31, DW_AT_location[DW_OP_reg13 DW_OP_piece 2 DW_OP_reg14 DW_OP_piece 2]
     451            
     452                    .dwpsn  file "../MP430DriverLib/driverlib/MSP430F5xx_6xx/mpy32.c",line 81,column 5,is_stmt,isa
     453 000000 5C4C          RLA.B     r12                   ; [] |81| 
     454 000002 4C4F          MOV.B     r12,r15               ; [] |81| 
     455 000004 503F          ADD.W     #1232,r15             ; [] |81| 
         000006 04D0 
     456 000008 4D8F          MOV.W     r13,0(r15)            ; [] |81| 
         00000a 0000 
     457                    .dwpsn  file "../MP430DriverLib/driverlib/MSP430F5xx_6xx/mpy32.c",line 82,column 5,is_stmt,isa
     458 00000c 4C4C          MOV.B     r12,r12               ; [] |82| 
     459 00000e 503C          ADD.W     #1234,r12             ; [] |82| 
         000010 04D2 
     460 000012 4E8C          MOV.W     r14,0(r12)            ; [] |82| 
         000014 0000 
     461                    .dwpsn  file "../MP430DriverLib/driverlib/MSP430F5xx_6xx/mpy32.c",line 83,column 1,is_stmt,isa
     462            $C$DW$32        .dwtag  DW_TAG_TI_branch
     463                    .dwattr $C$DW$32, DW_AT_low_pc(0x00)
     464                    .dwattr $C$DW$32, DW_AT_TI_return
     465            
     466 000016 0110          RETA      ; [] 
     467                    ; [] 
     468                    .dwattr $C$DW$27, DW_AT_TI_end_file("../MP430DriverLib/driverlib/MSP430F5xx_6xx/mpy32.c")
     469                    .dwattr $C$DW$27, DW_AT_TI_end_line(0x53)
     470                    .dwattr $C$DW$27, DW_AT_TI_end_column(0x01)
     471                    .dwendentry
     472                    .dwendtag $C$DW$27
     473            
     474 000000               .sect   ".text:MPY32_setOperandOne24Bit"
     475                    .clink
     476                    .global MPY32_setOperandOne24Bit
     477            
     478            $C$DW$33        .dwtag  DW_TAG_subprogram
     479                    .dwattr $C$DW$33, DW_AT_name("MPY32_setOperandOne24Bit")
     480                    .dwattr $C$DW$33, DW_AT_low_pc(MPY32_setOperandOne24Bit)
MSP430 Assembler PC v21.6.1 Tue Dec 20 13:45:48 2022

Copyright (c) 2003-2018 Texas Instruments Incorporated
mpy32.asm                                                            PAGE   10

     481                    .dwattr $C$DW$33, DW_AT_high_pc(0x00)
     482                    .dwattr $C$DW$33, DW_AT_TI_symbol_name("MPY32_setOperandOne24Bit")
     483                    .dwattr $C$DW$33, DW_AT_external
     484                    .dwattr $C$DW$33, DW_AT_TI_begin_file("../MP430DriverLib/driverlib/MSP430F5xx_6xx/mpy32.c")
     485                    .dwattr $C$DW$33, DW_AT_TI_begin_line(0x45)
     486                    .dwattr $C$DW$33, DW_AT_TI_begin_column(0x06)
     487                    .dwattr $C$DW$33, DW_AT_decl_file("../MP430DriverLib/driverlib/MSP430F5xx_6xx/mpy32.c")
     488                    .dwattr $C$DW$33, DW_AT_decl_line(0x45)
     489                    .dwattr $C$DW$33, DW_AT_decl_column(0x06)
     490                    .dwattr $C$DW$33, DW_AT_TI_max_frame_size(0x04)
     491                    .dwpsn  file "../MP430DriverLib/driverlib/MSP430F5xx_6xx/mpy32.c",line 71,column 1,is_stmt,add
     492            
     493                    .dwfde $C$DW$CIE, MPY32_setOperandOne24Bit
     494            $C$DW$34        .dwtag  DW_TAG_formal_parameter
     495                    .dwattr $C$DW$34, DW_AT_name("multiplicationType")
     496                    .dwattr $C$DW$34, DW_AT_TI_symbol_name("multiplicationType")
     497                    .dwattr $C$DW$34, DW_AT_type(*$C$DW$T$28)
     498                    .dwattr $C$DW$34, DW_AT_location[DW_OP_reg12]
     499            
     500            $C$DW$35        .dwtag  DW_TAG_formal_parameter
     501                    .dwattr $C$DW$35, DW_AT_name("operand")
     502                    .dwattr $C$DW$35, DW_AT_TI_symbol_name("operand")
     503                    .dwattr $C$DW$35, DW_AT_type(*$C$DW$T$32)
     504                    .dwattr $C$DW$35, DW_AT_location[DW_OP_reg13 DW_OP_piece 2 DW_OP_reg14 DW_OP_piece 2]
     505            
     506            
     507            ;*****************************************************************************
     508            ;* FUNCTION NAME: MPY32_setOperandOne24Bit                                   *
     509            ;*                                                                           *
     510            ;*   Regs Modified     : SP,SR,r12,r15                                       *
     511            ;*   Regs Used         : SP,SR,r12,r13,r14,r15                               *
     512            ;*   Local Frame Size  : 0 Args + 0 Auto + 0 Save = 0 byte                   *
     513            ;*****************************************************************************
     514 000000       MPY32_setOperandOne24Bit:
     515            ;* --------------------------------------------------------------------------*
     516                    .dwcfi  cfa_offset, 4
     517                    .dwcfi  save_reg_to_mem, 16, -4
     518            ;* r12   assigned to multiplicationType
     519            $C$DW$36        .dwtag  DW_TAG_variable
     520                    .dwattr $C$DW$36, DW_AT_name("multiplicationType")
     521                    .dwattr $C$DW$36, DW_AT_TI_symbol_name("multiplicationType")
     522                    .dwattr $C$DW$36, DW_AT_type(*$C$DW$T$28)
     523                    .dwattr $C$DW$36, DW_AT_location[DW_OP_reg12]
     524            
     525            ;* r13   assigned to operand
     526            $C$DW$37        .dwtag  DW_TAG_variable
     527                    .dwattr $C$DW$37, DW_AT_name("operand")
     528                    .dwattr $C$DW$37, DW_AT_TI_symbol_name("operand")
     529                    .dwattr $C$DW$37, DW_AT_type(*$C$DW$T$32)
     530                    .dwattr $C$DW$37, DW_AT_location[DW_OP_reg13 DW_OP_piece 2 DW_OP_reg14 DW_OP_piece 2]
     531            
     532                    .dwpsn  file "../MP430DriverLib/driverlib/MSP430F5xx_6xx/mpy32.c",line 73,column 5,is_stmt,isa
     533 000000 5C4C          RLA.B     r12                   ; [] |73| 
     534 000002 4C4F          MOV.B     r12,r15               ; [] |73| 
     535 000004 503F          ADD.W     #1232,r15             ; [] |73| 
MSP430 Assembler PC v21.6.1 Tue Dec 20 13:45:48 2022

Copyright (c) 2003-2018 Texas Instruments Incorporated
mpy32.asm                                                            PAGE   11

         000006 04D0 
     536 000008 4D8F          MOV.W     r13,0(r15)            ; [] |73| 
         00000a 0000 
     537                    .dwpsn  file "../MP430DriverLib/driverlib/MSP430F5xx_6xx/mpy32.c",line 74,column 5,is_stmt,isa
     538 00000c 4C4C          MOV.B     r12,r12               ; [] |74| 
     539 00000e 503C          ADD.W     #1234,r12             ; [] |74| 
         000010 04D2 
     540 000012 4ECC          MOV.B     r14,0(r12)            ; [] |74| 
         000014 0000 
     541                    .dwpsn  file "../MP430DriverLib/driverlib/MSP430F5xx_6xx/mpy32.c",line 75,column 1,is_stmt,isa
     542            $C$DW$38        .dwtag  DW_TAG_TI_branch
     543                    .dwattr $C$DW$38, DW_AT_low_pc(0x00)
     544                    .dwattr $C$DW$38, DW_AT_TI_return
     545            
     546 000016 0110          RETA      ; [] 
     547                    ; [] 
     548                    .dwattr $C$DW$33, DW_AT_TI_end_file("../MP430DriverLib/driverlib/MSP430F5xx_6xx/mpy32.c")
     549                    .dwattr $C$DW$33, DW_AT_TI_end_line(0x4b)
     550                    .dwattr $C$DW$33, DW_AT_TI_end_column(0x01)
     551                    .dwendentry
     552                    .dwendtag $C$DW$33
     553            
     554 000000               .sect   ".text:MPY32_setOperandOne16Bit"
     555                    .clink
     556                    .global MPY32_setOperandOne16Bit
     557            
     558            $C$DW$39        .dwtag  DW_TAG_subprogram
     559                    .dwattr $C$DW$39, DW_AT_name("MPY32_setOperandOne16Bit")
     560                    .dwattr $C$DW$39, DW_AT_low_pc(MPY32_setOperandOne16Bit)
     561                    .dwattr $C$DW$39, DW_AT_high_pc(0x00)
     562                    .dwattr $C$DW$39, DW_AT_TI_symbol_name("MPY32_setOperandOne16Bit")
     563                    .dwattr $C$DW$39, DW_AT_external
     564                    .dwattr $C$DW$39, DW_AT_TI_begin_file("../MP430DriverLib/driverlib/MSP430F5xx_6xx/mpy32.c")
     565                    .dwattr $C$DW$39, DW_AT_TI_begin_line(0x3f)
     566                    .dwattr $C$DW$39, DW_AT_TI_begin_column(0x06)
     567                    .dwattr $C$DW$39, DW_AT_decl_file("../MP430DriverLib/driverlib/MSP430F5xx_6xx/mpy32.c")
     568                    .dwattr $C$DW$39, DW_AT_decl_line(0x3f)
     569                    .dwattr $C$DW$39, DW_AT_decl_column(0x06)
     570                    .dwattr $C$DW$39, DW_AT_TI_max_frame_size(0x04)
     571                    .dwpsn  file "../MP430DriverLib/driverlib/MSP430F5xx_6xx/mpy32.c",line 65,column 1,is_stmt,add
     572            
     573                    .dwfde $C$DW$CIE, MPY32_setOperandOne16Bit
     574            $C$DW$40        .dwtag  DW_TAG_formal_parameter
     575                    .dwattr $C$DW$40, DW_AT_name("multiplicationType")
     576                    .dwattr $C$DW$40, DW_AT_TI_symbol_name("multiplicationType")
     577                    .dwattr $C$DW$40, DW_AT_type(*$C$DW$T$28)
     578                    .dwattr $C$DW$40, DW_AT_location[DW_OP_reg12]
     579            
     580            $C$DW$41        .dwtag  DW_TAG_formal_parameter
     581                    .dwattr $C$DW$41, DW_AT_name("operand")
     582                    .dwattr $C$DW$41, DW_AT_TI_symbol_name("operand")
     583                    .dwattr $C$DW$41, DW_AT_type(*$C$DW$T$24)
     584                    .dwattr $C$DW$41, DW_AT_location[DW_OP_reg13]
     585            
     586            
MSP430 Assembler PC v21.6.1 Tue Dec 20 13:45:48 2022

Copyright (c) 2003-2018 Texas Instruments Incorporated
mpy32.asm                                                            PAGE   12

     587            ;*****************************************************************************
     588            ;* FUNCTION NAME: MPY32_setOperandOne16Bit                                   *
     589            ;*                                                                           *
     590            ;*   Regs Modified     : SP,SR,r12                                           *
     591            ;*   Regs Used         : SP,SR,r12,r13                                       *
     592            ;*   Local Frame Size  : 0 Args + 0 Auto + 0 Save = 0 byte                   *
     593            ;*****************************************************************************
     594 000000       MPY32_setOperandOne16Bit:
     595            ;* --------------------------------------------------------------------------*
     596                    .dwcfi  cfa_offset, 4
     597                    .dwcfi  save_reg_to_mem, 16, -4
     598            ;* r12   assigned to multiplicationType
     599            $C$DW$42        .dwtag  DW_TAG_variable
     600                    .dwattr $C$DW$42, DW_AT_name("multiplicationType")
     601                    .dwattr $C$DW$42, DW_AT_TI_symbol_name("multiplicationType")
     602                    .dwattr $C$DW$42, DW_AT_type(*$C$DW$T$28)
     603                    .dwattr $C$DW$42, DW_AT_location[DW_OP_reg12]
     604            
     605            ;* r13   assigned to operand
     606            $C$DW$43        .dwtag  DW_TAG_variable
     607                    .dwattr $C$DW$43, DW_AT_name("operand")
     608                    .dwattr $C$DW$43, DW_AT_TI_symbol_name("operand")
     609                    .dwattr $C$DW$43, DW_AT_type(*$C$DW$T$24)
     610                    .dwattr $C$DW$43, DW_AT_location[DW_OP_reg13]
     611            
     612                    .dwpsn  file "../MP430DriverLib/driverlib/MSP430F5xx_6xx/mpy32.c",line 66,column 5,is_stmt,isa
     613 000000 4C4C          MOV.B     r12,r12               ; [] |66| 
     614 000002 503C          ADD.W     #1216,r12             ; [] |66| 
         000004 04C0 
     615 000006 4D8C          MOV.W     r13,0(r12)            ; [] |66| 
         000008 0000 
     616                    .dwpsn  file "../MP430DriverLib/driverlib/MSP430F5xx_6xx/mpy32.c",line 67,column 1,is_stmt,isa
     617            $C$DW$44        .dwtag  DW_TAG_TI_branch
     618                    .dwattr $C$DW$44, DW_AT_low_pc(0x00)
     619                    .dwattr $C$DW$44, DW_AT_TI_return
     620            
     621 00000a 0110          RETA      ; [] 
     622                    ; [] 
     623                    .dwattr $C$DW$39, DW_AT_TI_end_file("../MP430DriverLib/driverlib/MSP430F5xx_6xx/mpy32.c")
     624                    .dwattr $C$DW$39, DW_AT_TI_end_line(0x43)
     625                    .dwattr $C$DW$39, DW_AT_TI_end_column(0x01)
     626                    .dwendentry
     627                    .dwendtag $C$DW$39
     628            
     629 000000               .sect   ".text:MPY32_preloadResult"
     630                    .clink
     631                    .global MPY32_preloadResult
     632            
     633            $C$DW$45        .dwtag  DW_TAG_subprogram
     634                    .dwattr $C$DW$45, DW_AT_name("MPY32_preloadResult")
     635                    .dwattr $C$DW$45, DW_AT_low_pc(MPY32_preloadResult)
     636                    .dwattr $C$DW$45, DW_AT_high_pc(0x00)
     637                    .dwattr $C$DW$45, DW_AT_TI_symbol_name("MPY32_preloadResult")
     638                    .dwattr $C$DW$45, DW_AT_external
     639                    .dwattr $C$DW$45, DW_AT_TI_begin_file("../MP430DriverLib/driverlib/MSP430F5xx_6xx/mpy32.c")
MSP430 Assembler PC v21.6.1 Tue Dec 20 13:45:48 2022

Copyright (c) 2003-2018 Texas Instruments Incorporated
mpy32.asm                                                            PAGE   13

     640                    .dwattr $C$DW$45, DW_AT_TI_begin_line(0x83)
     641                    .dwattr $C$DW$45, DW_AT_TI_begin_column(0x06)
     642                    .dwattr $C$DW$45, DW_AT_decl_file("../MP430DriverLib/driverlib/MSP430F5xx_6xx/mpy32.c")
     643                    .dwattr $C$DW$45, DW_AT_decl_line(0x83)
     644                    .dwattr $C$DW$45, DW_AT_decl_column(0x06)
     645                    .dwattr $C$DW$45, DW_AT_TI_max_frame_size(0x04)
     646                    .dwpsn  file "../MP430DriverLib/driverlib/MSP430F5xx_6xx/mpy32.c",line 132,column 1,is_stmt,ad
     647            
     648                    .dwfde $C$DW$CIE, MPY32_preloadResult
     649            $C$DW$46        .dwtag  DW_TAG_formal_parameter
     650                    .dwattr $C$DW$46, DW_AT_name("result")
     651                    .dwattr $C$DW$46, DW_AT_TI_symbol_name("result")
     652                    .dwattr $C$DW$46, DW_AT_type(*$C$DW$T$37)
     653                    .dwattr $C$DW$46, DW_AT_location[DW_OP_reg12 DW_OP_piece 2 DW_OP_reg13 DW_OP_piece 2 DW_OP_reg
     654            
     655            
     656            ;*****************************************************************************
     657            ;* FUNCTION NAME: MPY32_preloadResult                                        *
     658            ;*                                                                           *
     659            ;*   Regs Modified     : SP                                                  *
     660            ;*   Regs Used         : SP,r12,r13,r14,r15                                  *
     661            ;*   Local Frame Size  : 0 Args + 0 Auto + 0 Save = 0 byte                   *
     662            ;*****************************************************************************
     663 000000       MPY32_preloadResult:
     664            ;* --------------------------------------------------------------------------*
     665                    .dwcfi  cfa_offset, 4
     666                    .dwcfi  save_reg_to_mem, 16, -4
     667            ;* r12   assigned to result
     668            $C$DW$47        .dwtag  DW_TAG_variable
     669                    .dwattr $C$DW$47, DW_AT_name("result")
     670                    .dwattr $C$DW$47, DW_AT_TI_symbol_name("result")
     671                    .dwattr $C$DW$47, DW_AT_type(*$C$DW$T$37)
     672                    .dwattr $C$DW$47, DW_AT_location[DW_OP_reg12 DW_OP_piece 2 DW_OP_reg13 DW_OP_piece 2 DW_OP_reg
     673            
     674                    .dwpsn  file "../MP430DriverLib/driverlib/MSP430F5xx_6xx/mpy32.c",line 133,column 5,is_stmt,is
     675 000000 4C82          MOV.W     r12,&0x4e4            ; [] |133| 
         000002 04E4 
     676                    .dwpsn  file "../MP430DriverLib/driverlib/MSP430F5xx_6xx/mpy32.c",line 134,column 5,is_stmt,is
     677 000004 4D82          MOV.W     r13,&0x4e6            ; [] |134| 
         000006 04E6 
     678                    .dwpsn  file "../MP430DriverLib/driverlib/MSP430F5xx_6xx/mpy32.c",line 135,column 5,is_stmt,is
     679 000008 4E82          MOV.W     r14,&0x4e8            ; [] |135| 
         00000a 04E8 
     680                    .dwpsn  file "../MP430DriverLib/driverlib/MSP430F5xx_6xx/mpy32.c",line 136,column 5,is_stmt,is
     681 00000c 4F82          MOV.W     r15,&0x4ea            ; [] |136| 
         00000e 04EA 
     682                    .dwpsn  file "../MP430DriverLib/driverlib/MSP430F5xx_6xx/mpy32.c",line 137,column 1,is_stmt,is
     683            $C$DW$48        .dwtag  DW_TAG_TI_branch
     684                    .dwattr $C$DW$48, DW_AT_low_pc(0x00)
     685                    .dwattr $C$DW$48, DW_AT_TI_return
     686            
     687 000010 0110          RETA      ; [] 
     688                    ; [] 
     689                    .dwattr $C$DW$45, DW_AT_TI_end_file("../MP430DriverLib/driverlib/MSP430F5xx_6xx/mpy32.c")
     690                    .dwattr $C$DW$45, DW_AT_TI_end_line(0x89)
MSP430 Assembler PC v21.6.1 Tue Dec 20 13:45:48 2022

Copyright (c) 2003-2018 Texas Instruments Incorporated
mpy32.asm                                                            PAGE   14

     691                    .dwattr $C$DW$45, DW_AT_TI_end_column(0x01)
     692                    .dwendentry
     693                    .dwendtag $C$DW$45
     694            
     695 000000               .sect   ".text:MPY32_getSumExtension"
     696                    .clink
     697                    .global MPY32_getSumExtension
     698            
     699            $C$DW$49        .dwtag  DW_TAG_subprogram
     700                    .dwattr $C$DW$49, DW_AT_name("MPY32_getSumExtension")
     701                    .dwattr $C$DW$49, DW_AT_low_pc(MPY32_getSumExtension)
     702                    .dwattr $C$DW$49, DW_AT_high_pc(0x00)
     703                    .dwattr $C$DW$49, DW_AT_TI_symbol_name("MPY32_getSumExtension")
     704                    .dwattr $C$DW$49, DW_AT_external
     705                    .dwattr $C$DW$49, DW_AT_type(*$C$DW$T$24)
     706                    .dwattr $C$DW$49, DW_AT_TI_begin_file("../MP430DriverLib/driverlib/MSP430F5xx_6xx/mpy32.c")
     707                    .dwattr $C$DW$49, DW_AT_TI_begin_line(0x76)
     708                    .dwattr $C$DW$49, DW_AT_TI_begin_column(0x0a)
     709                    .dwattr $C$DW$49, DW_AT_decl_file("../MP430DriverLib/driverlib/MSP430F5xx_6xx/mpy32.c")
     710                    .dwattr $C$DW$49, DW_AT_decl_line(0x76)
     711                    .dwattr $C$DW$49, DW_AT_decl_column(0x0a)
     712                    .dwattr $C$DW$49, DW_AT_TI_max_frame_size(0x04)
     713                    .dwpsn  file "../MP430DriverLib/driverlib/MSP430F5xx_6xx/mpy32.c",line 119,column 1,is_stmt,ad
     714            
     715                    .dwfde $C$DW$CIE, MPY32_getSumExtension
     716            
     717            ;*****************************************************************************
     718            ;* FUNCTION NAME: MPY32_getSumExtension                                      *
     719            ;*                                                                           *
     720            ;*   Regs Modified     : SP,r12                                              *
     721            ;*   Regs Used         : SP,r12                                              *
     722            ;*   Local Frame Size  : 0 Args + 0 Auto + 0 Save = 0 byte                   *
     723            ;*****************************************************************************
     724 000000       MPY32_getSumExtension:
     725            ;* --------------------------------------------------------------------------*
     726                    .dwcfi  cfa_offset, 4
     727                    .dwcfi  save_reg_to_mem, 16, -4
     728                    .dwpsn  file "../MP430DriverLib/driverlib/MSP430F5xx_6xx/mpy32.c",line 120,column 5,is_stmt,is
     729 000000 421C          MOV.W     &0x4ce,r12            ; [] |120| 
         000002 04CE 
     730                    .dwpsn  file "../MP430DriverLib/driverlib/MSP430F5xx_6xx/mpy32.c",line 121,column 1,is_stmt,is
     731            $C$DW$50        .dwtag  DW_TAG_TI_branch
     732                    .dwattr $C$DW$50, DW_AT_low_pc(0x00)
     733                    .dwattr $C$DW$50, DW_AT_TI_return
     734            
     735 000004 0110          RETA      ; [] 
     736                    ; [] 
     737                    .dwattr $C$DW$49, DW_AT_TI_end_file("../MP430DriverLib/driverlib/MSP430F5xx_6xx/mpy32.c")
     738                    .dwattr $C$DW$49, DW_AT_TI_end_line(0x79)
     739                    .dwattr $C$DW$49, DW_AT_TI_end_column(0x01)
     740                    .dwendentry
     741                    .dwendtag $C$DW$49
     742            
     743 000000               .sect   ".text:MPY32_getSaturationMode"
     744                    .clink
MSP430 Assembler PC v21.6.1 Tue Dec 20 13:45:48 2022

Copyright (c) 2003-2018 Texas Instruments Incorporated
mpy32.asm                                                            PAGE   15

     745                    .global MPY32_getSaturationMode
     746            
     747            $C$DW$51        .dwtag  DW_TAG_subprogram
     748                    .dwattr $C$DW$51, DW_AT_name("MPY32_getSaturationMode")
     749                    .dwattr $C$DW$51, DW_AT_low_pc(MPY32_getSaturationMode)
     750                    .dwattr $C$DW$51, DW_AT_high_pc(0x00)
     751                    .dwattr $C$DW$51, DW_AT_TI_symbol_name("MPY32_getSaturationMode")
     752                    .dwattr $C$DW$51, DW_AT_external
     753                    .dwattr $C$DW$51, DW_AT_type(*$C$DW$T$28)
     754                    .dwattr $C$DW$51, DW_AT_TI_begin_file("../MP430DriverLib/driverlib/MSP430F5xx_6xx/mpy32.c")
     755                    .dwattr $C$DW$51, DW_AT_TI_begin_line(0x25)
     756                    .dwattr $C$DW$51, DW_AT_TI_begin_column(0x09)
     757                    .dwattr $C$DW$51, DW_AT_decl_file("../MP430DriverLib/driverlib/MSP430F5xx_6xx/mpy32.c")
     758                    .dwattr $C$DW$51, DW_AT_decl_line(0x25)
     759                    .dwattr $C$DW$51, DW_AT_decl_column(0x09)
     760                    .dwattr $C$DW$51, DW_AT_TI_max_frame_size(0x04)
     761                    .dwpsn  file "../MP430DriverLib/driverlib/MSP430F5xx_6xx/mpy32.c",line 38,column 1,is_stmt,add
     762            
     763                    .dwfde $C$DW$CIE, MPY32_getSaturationMode
     764            
     765            ;*****************************************************************************
     766            ;* FUNCTION NAME: MPY32_getSaturationMode                                    *
     767            ;*                                                                           *
     768            ;*   Regs Modified     : SP,SR,r12                                           *
     769            ;*   Regs Used         : SP,SR,r12                                           *
     770            ;*   Local Frame Size  : 0 Args + 0 Auto + 0 Save = 0 byte                   *
     771            ;*****************************************************************************
     772 000000       MPY32_getSaturationMode:
     773            ;* --------------------------------------------------------------------------*
     774                    .dwcfi  cfa_offset, 4
     775                    .dwcfi  save_reg_to_mem, 16, -4
     776                    .dwpsn  file "../MP430DriverLib/driverlib/MSP430F5xx_6xx/mpy32.c",line 39,column 5,is_stmt,isa
     777 000000 423C          MOV.W     #8,r12                ; [] |39| 
     778 000002 F25C          AND.B     &0x4ec,r12            ; [] |39| 
         000004 04EC 
     779                    .dwpsn  file "../MP430DriverLib/driverlib/MSP430F5xx_6xx/mpy32.c",line 40,column 1,is_stmt,isa
     780            $C$DW$52        .dwtag  DW_TAG_TI_branch
     781                    .dwattr $C$DW$52, DW_AT_low_pc(0x00)
     782                    .dwattr $C$DW$52, DW_AT_TI_return
     783            
     784 000006 0110          RETA      ; [] 
     785                    ; [] 
     786                    .dwattr $C$DW$51, DW_AT_TI_end_file("../MP430DriverLib/driverlib/MSP430F5xx_6xx/mpy32.c")
     787                    .dwattr $C$DW$51, DW_AT_TI_end_line(0x28)
     788                    .dwattr $C$DW$51, DW_AT_TI_end_column(0x01)
     789                    .dwendentry
     790                    .dwendtag $C$DW$51
     791            
     792 000000               .sect   ".text:MPY32_getResult"
     793                    .clink
     794                    .global MPY32_getResult
     795            
     796            $C$DW$53        .dwtag  DW_TAG_subprogram
     797                    .dwattr $C$DW$53, DW_AT_name("MPY32_getResult")
     798                    .dwattr $C$DW$53, DW_AT_low_pc(MPY32_getResult)
MSP430 Assembler PC v21.6.1 Tue Dec 20 13:45:48 2022

Copyright (c) 2003-2018 Texas Instruments Incorporated
mpy32.asm                                                            PAGE   16

     799                    .dwattr $C$DW$53, DW_AT_high_pc(0x00)
     800                    .dwattr $C$DW$53, DW_AT_TI_symbol_name("MPY32_getResult")
     801                    .dwattr $C$DW$53, DW_AT_external
     802                    .dwattr $C$DW$53, DW_AT_type(*$C$DW$T$37)
     803                    .dwattr $C$DW$53, DW_AT_TI_begin_file("../MP430DriverLib/driverlib/MSP430F5xx_6xx/mpy32.c")
     804                    .dwattr $C$DW$53, DW_AT_TI_begin_line(0x6b)
     805                    .dwattr $C$DW$53, DW_AT_TI_begin_column(0x0a)
     806                    .dwattr $C$DW$53, DW_AT_decl_file("../MP430DriverLib/driverlib/MSP430F5xx_6xx/mpy32.c")
     807                    .dwattr $C$DW$53, DW_AT_decl_line(0x6b)
     808                    .dwattr $C$DW$53, DW_AT_decl_column(0x0a)
     809                    .dwattr $C$DW$53, DW_AT_TI_max_frame_size(0x04)
     810                    .dwpsn  file "../MP430DriverLib/driverlib/MSP430F5xx_6xx/mpy32.c",line 108,column 1,is_stmt,ad
     811            
     812                    .dwfde $C$DW$CIE, MPY32_getResult
     813            
     814            ;*****************************************************************************
     815            ;* FUNCTION NAME: MPY32_getResult                                            *
     816            ;*                                                                           *
     817            ;*   Regs Modified     : SP,SR,r12,r13,r14,r15                               *
     818            ;*   Regs Used         : SP,SR,r12,r13,r14,r15                               *
     819            ;*   Local Frame Size  : 0 Args + 0 Auto + 0 Save = 0 byte                   *
     820            ;*****************************************************************************
     821 000000       MPY32_getResult:
     822            ;* --------------------------------------------------------------------------*
     823                    .dwcfi  cfa_offset, 4
     824                    .dwcfi  save_reg_to_mem, 16, -4
     825            ;* r12   assigned to result
     826            $C$DW$54        .dwtag  DW_TAG_variable
     827                    .dwattr $C$DW$54, DW_AT_name("result")
     828                    .dwattr $C$DW$54, DW_AT_TI_symbol_name("result")
     829                    .dwattr $C$DW$54, DW_AT_type(*$C$DW$T$37)
     830                    .dwattr $C$DW$54, DW_AT_location[DW_OP_reg12 DW_OP_piece 2 DW_OP_reg13 DW_OP_piece 2 DW_OP_reg
     831            
     832                    .dwpsn  file "../MP430DriverLib/driverlib/MSP430F5xx_6xx/mpy32.c",line 111,column 5,is_stmt,is
     833 000000 421C          MOV.W     &0x4e4,r12            ; [] |111| 
         000002 04E4 
     834 000004 430D          MOV.W     #0,r13                ; [] |111| 
     835 000006 430E          MOV.W     #0,r14                ; [] |111| 
     836 000008 430F          MOV.W     #0,r15                ; [] |111| 
     837                    .dwpsn  file "../MP430DriverLib/driverlib/MSP430F5xx_6xx/mpy32.c",line 112,column 5,is_stmt,is
     838 00000a 530C          ADD.W     #0,r12                ; [] |112| 
     839 00000c 621D          ADDC.W    &0x4e6,r13            ; [] |112| 
         00000e 04E6 
     840 000010 630E          ADDC.W    #0,r14                ; [] |112| 
     841 000012 630F          ADDC.W    #0,r15                ; [] |112| 
     842                    .dwpsn  file "../MP430DriverLib/driverlib/MSP430F5xx_6xx/mpy32.c",line 113,column 5,is_stmt,is
     843 000014 530C          ADD.W     #0,r12                ; [] |113| 
     844 000016 630D          ADDC.W    #0,r13                ; [] |113| 
     845 000018 621E          ADDC.W    &0x4e8,r14            ; [] |113| 
         00001a 04E8 
     846 00001c 630F          ADDC.W    #0,r15                ; [] |113| 
     847                    .dwpsn  file "../MP430DriverLib/driverlib/MSP430F5xx_6xx/mpy32.c",line 114,column 5,is_stmt,is
     848 00001e 530C          ADD.W     #0,r12                ; [] |114| 
     849 000020 630D          ADDC.W    #0,r13                ; [] |114| 
     850 000022 630E          ADDC.W    #0,r14                ; [] |114| 
MSP430 Assembler PC v21.6.1 Tue Dec 20 13:45:48 2022

Copyright (c) 2003-2018 Texas Instruments Incorporated
mpy32.asm                                                            PAGE   17

     851 000024 621F          ADDC.W    &0x4ea,r15            ; [] |114| 
         000026 04EA 
     852                    .dwpsn  file "../MP430DriverLib/driverlib/MSP430F5xx_6xx/mpy32.c",line 115,column 5,is_stmt,is
     853                    .dwpsn  file "../MP430DriverLib/driverlib/MSP430F5xx_6xx/mpy32.c",line 116,column 1,is_stmt,is
     854            $C$DW$55        .dwtag  DW_TAG_TI_branch
     855                    .dwattr $C$DW$55, DW_AT_low_pc(0x00)
     856                    .dwattr $C$DW$55, DW_AT_TI_return
     857            
     858 000028 0110          RETA      ; [] 
     859                    ; [] 
     860                    .dwattr $C$DW$53, DW_AT_TI_end_file("../MP430DriverLib/driverlib/MSP430F5xx_6xx/mpy32.c")
     861                    .dwattr $C$DW$53, DW_AT_TI_end_line(0x74)
     862                    .dwattr $C$DW$53, DW_AT_TI_end_column(0x01)
     863                    .dwendentry
     864                    .dwendtag $C$DW$53
     865            
     866 000000               .sect   ".text:MPY32_getFractionalMode"
     867                    .clink
     868                    .global MPY32_getFractionalMode
     869            
     870            $C$DW$56        .dwtag  DW_TAG_subprogram
     871                    .dwattr $C$DW$56, DW_AT_name("MPY32_getFractionalMode")
     872                    .dwattr $C$DW$56, DW_AT_low_pc(MPY32_getFractionalMode)
     873                    .dwattr $C$DW$56, DW_AT_high_pc(0x00)
     874                    .dwattr $C$DW$56, DW_AT_TI_symbol_name("MPY32_getFractionalMode")
     875                    .dwattr $C$DW$56, DW_AT_external
     876                    .dwattr $C$DW$56, DW_AT_type(*$C$DW$T$28)
     877                    .dwattr $C$DW$56, DW_AT_TI_begin_file("../MP430DriverLib/driverlib/MSP430F5xx_6xx/mpy32.c")
     878                    .dwattr $C$DW$56, DW_AT_TI_begin_line(0x34)
     879                    .dwattr $C$DW$56, DW_AT_TI_begin_column(0x09)
     880                    .dwattr $C$DW$56, DW_AT_decl_file("../MP430DriverLib/driverlib/MSP430F5xx_6xx/mpy32.c")
     881                    .dwattr $C$DW$56, DW_AT_decl_line(0x34)
     882                    .dwattr $C$DW$56, DW_AT_decl_column(0x09)
     883                    .dwattr $C$DW$56, DW_AT_TI_max_frame_size(0x04)
     884                    .dwpsn  file "../MP430DriverLib/driverlib/MSP430F5xx_6xx/mpy32.c",line 53,column 1,is_stmt,add
     885            
     886                    .dwfde $C$DW$CIE, MPY32_getFractionalMode
     887            
     888            ;*****************************************************************************
     889            ;* FUNCTION NAME: MPY32_getFractionalMode                                    *
     890            ;*                                                                           *
     891            ;*   Regs Modified     : SP,SR,r12                                           *
     892            ;*   Regs Used         : SP,SR,r12                                           *
     893            ;*   Local Frame Size  : 0 Args + 0 Auto + 0 Save = 0 byte                   *
     894            ;*****************************************************************************
     895 000000       MPY32_getFractionalMode:
     896            ;* --------------------------------------------------------------------------*
     897                    .dwcfi  cfa_offset, 4
     898                    .dwcfi  save_reg_to_mem, 16, -4
     899                    .dwpsn  file "../MP430DriverLib/driverlib/MSP430F5xx_6xx/mpy32.c",line 54,column 5,is_stmt,isa
     900 000000 422C          MOV.W     #4,r12                ; [] |54| 
     901 000002 F25C          AND.B     &0x4ec,r12            ; [] |54| 
         000004 04EC 
     902                    .dwpsn  file "../MP430DriverLib/driverlib/MSP430F5xx_6xx/mpy32.c",line 55,column 1,is_stmt,isa
     903            $C$DW$57        .dwtag  DW_TAG_TI_branch
MSP430 Assembler PC v21.6.1 Tue Dec 20 13:45:48 2022

Copyright (c) 2003-2018 Texas Instruments Incorporated
mpy32.asm                                                            PAGE   18

     904                    .dwattr $C$DW$57, DW_AT_low_pc(0x00)
     905                    .dwattr $C$DW$57, DW_AT_TI_return
     906            
     907 000006 0110          RETA      ; [] 
     908                    ; [] 
     909                    .dwattr $C$DW$56, DW_AT_TI_end_file("../MP430DriverLib/driverlib/MSP430F5xx_6xx/mpy32.c")
     910                    .dwattr $C$DW$56, DW_AT_TI_end_line(0x37)
     911                    .dwattr $C$DW$56, DW_AT_TI_end_column(0x01)
     912                    .dwendentry
     913                    .dwendtag $C$DW$56
     914            
     915 000000               .sect   ".text:MPY32_getCarryBitValue"
     916                    .clink
     917                    .global MPY32_getCarryBitValue
     918            
     919            $C$DW$58        .dwtag  DW_TAG_subprogram
     920                    .dwattr $C$DW$58, DW_AT_name("MPY32_getCarryBitValue")
     921                    .dwattr $C$DW$58, DW_AT_low_pc(MPY32_getCarryBitValue)
     922                    .dwattr $C$DW$58, DW_AT_high_pc(0x00)
     923                    .dwattr $C$DW$58, DW_AT_TI_symbol_name("MPY32_getCarryBitValue")
     924                    .dwattr $C$DW$58, DW_AT_external
     925                    .dwattr $C$DW$58, DW_AT_type(*$C$DW$T$24)
     926                    .dwattr $C$DW$58, DW_AT_TI_begin_file("../MP430DriverLib/driverlib/MSP430F5xx_6xx/mpy32.c")
     927                    .dwattr $C$DW$58, DW_AT_TI_begin_line(0x7b)
     928                    .dwattr $C$DW$58, DW_AT_TI_begin_column(0x0a)
     929                    .dwattr $C$DW$58, DW_AT_decl_file("../MP430DriverLib/driverlib/MSP430F5xx_6xx/mpy32.c")
     930                    .dwattr $C$DW$58, DW_AT_decl_line(0x7b)
     931                    .dwattr $C$DW$58, DW_AT_decl_column(0x0a)
     932                    .dwattr $C$DW$58, DW_AT_TI_max_frame_size(0x04)
     933                    .dwpsn  file "../MP430DriverLib/driverlib/MSP430F5xx_6xx/mpy32.c",line 124,column 1,is_stmt,ad
     934            
     935                    .dwfde $C$DW$CIE, MPY32_getCarryBitValue
     936            
     937            ;*****************************************************************************
     938            ;* FUNCTION NAME: MPY32_getCarryBitValue                                     *
     939            ;*                                                                           *
     940            ;*   Regs Modified     : SP,r12                                              *
     941            ;*   Regs Used         : SP,r12                                              *
     942            ;*   Local Frame Size  : 0 Args + 0 Auto + 0 Save = 0 byte                   *
     943            ;*****************************************************************************
     944 000000       MPY32_getCarryBitValue:
     945            ;* --------------------------------------------------------------------------*
     946                    .dwcfi  cfa_offset, 4
     947                    .dwcfi  save_reg_to_mem, 16, -4
     948                    .dwpsn  file "../MP430DriverLib/driverlib/MSP430F5xx_6xx/mpy32.c",line 125,column 5,is_stmt,is
     949 000000 431C          MOV.W     #1,r12                ; [] |125| 
     950 000002 D21C          OR.W      &0x4ec,r12            ; [] |125| 
         000004 04EC 
     951                    .dwpsn  file "../MP430DriverLib/driverlib/MSP430F5xx_6xx/mpy32.c",line 126,column 1,is_stmt,is
     952            $C$DW$59        .dwtag  DW_TAG_TI_branch
     953                    .dwattr $C$DW$59, DW_AT_low_pc(0x00)
     954                    .dwattr $C$DW$59, DW_AT_TI_return
     955            
     956 000006 0110          RETA      ; [] 
     957                    ; [] 
MSP430 Assembler PC v21.6.1 Tue Dec 20 13:45:48 2022

Copyright (c) 2003-2018 Texas Instruments Incorporated
mpy32.asm                                                            PAGE   19

     958                    .dwattr $C$DW$58, DW_AT_TI_end_file("../MP430DriverLib/driverlib/MSP430F5xx_6xx/mpy32.c")
     959                    .dwattr $C$DW$58, DW_AT_TI_end_line(0x7e)
     960                    .dwattr $C$DW$58, DW_AT_TI_end_column(0x01)
     961                    .dwendentry
     962                    .dwendtag $C$DW$58
     963            
     964 000000               .sect   ".text:MPY32_enableSaturationMode"
     965                    .clink
     966                    .global MPY32_enableSaturationMode
     967            
     968            $C$DW$60        .dwtag  DW_TAG_subprogram
     969                    .dwattr $C$DW$60, DW_AT_name("MPY32_enableSaturationMode")
     970                    .dwattr $C$DW$60, DW_AT_low_pc(MPY32_enableSaturationMode)
     971                    .dwattr $C$DW$60, DW_AT_high_pc(0x00)
     972                    .dwattr $C$DW$60, DW_AT_TI_symbol_name("MPY32_enableSaturationMode")
     973                    .dwattr $C$DW$60, DW_AT_external
     974                    .dwattr $C$DW$60, DW_AT_TI_begin_file("../MP430DriverLib/driverlib/MSP430F5xx_6xx/mpy32.c")
     975                    .dwattr $C$DW$60, DW_AT_TI_begin_line(0x1b)
     976                    .dwattr $C$DW$60, DW_AT_TI_begin_column(0x06)
     977                    .dwattr $C$DW$60, DW_AT_decl_file("../MP430DriverLib/driverlib/MSP430F5xx_6xx/mpy32.c")
     978                    .dwattr $C$DW$60, DW_AT_decl_line(0x1b)
     979                    .dwattr $C$DW$60, DW_AT_decl_column(0x06)
     980                    .dwattr $C$DW$60, DW_AT_TI_max_frame_size(0x04)
     981                    .dwpsn  file "../MP430DriverLib/driverlib/MSP430F5xx_6xx/mpy32.c",line 28,column 1,is_stmt,add
     982            
     983                    .dwfde $C$DW$CIE, MPY32_enableSaturationMode
     984            
     985            ;*****************************************************************************
     986            ;* FUNCTION NAME: MPY32_enableSaturationMode                                 *
     987            ;*                                                                           *
     988            ;*   Regs Modified     : SP                                                  *
     989            ;*   Regs Used         : SP                                                  *
     990            ;*   Local Frame Size  : 0 Args + 0 Auto + 0 Save = 0 byte                   *
     991            ;*****************************************************************************
     992 000000       MPY32_enableSaturationMode:
     993            ;* --------------------------------------------------------------------------*
     994                    .dwcfi  cfa_offset, 4
     995                    .dwcfi  save_reg_to_mem, 16, -4
     996                    .dwpsn  file "../MP430DriverLib/driverlib/MSP430F5xx_6xx/mpy32.c",line 29,column 5,is_stmt,isa
     997 000000 D2F2          OR.B      #8,&0x4ec             ; [] |29| 
         000002 04EC 
     998                    .dwpsn  file "../MP430DriverLib/driverlib/MSP430F5xx_6xx/mpy32.c",line 30,column 1,is_stmt,isa
     999            $C$DW$61        .dwtag  DW_TAG_TI_branch
    1000                    .dwattr $C$DW$61, DW_AT_low_pc(0x00)
    1001                    .dwattr $C$DW$61, DW_AT_TI_return
    1002            
    1003 000004 0110          RETA      ; [] 
    1004                    ; [] 
    1005                    .dwattr $C$DW$60, DW_AT_TI_end_file("../MP430DriverLib/driverlib/MSP430F5xx_6xx/mpy32.c")
    1006                    .dwattr $C$DW$60, DW_AT_TI_end_line(0x1e)
    1007                    .dwattr $C$DW$60, DW_AT_TI_end_column(0x01)
    1008                    .dwendentry
    1009                    .dwendtag $C$DW$60
    1010            
    1011 000000               .sect   ".text:MPY32_enableFractionalMode"
MSP430 Assembler PC v21.6.1 Tue Dec 20 13:45:48 2022

Copyright (c) 2003-2018 Texas Instruments Incorporated
mpy32.asm                                                            PAGE   20

    1012                    .clink
    1013                    .global MPY32_enableFractionalMode
    1014            
    1015            $C$DW$62        .dwtag  DW_TAG_subprogram
    1016                    .dwattr $C$DW$62, DW_AT_name("MPY32_enableFractionalMode")
    1017                    .dwattr $C$DW$62, DW_AT_low_pc(MPY32_enableFractionalMode)
    1018                    .dwattr $C$DW$62, DW_AT_high_pc(0x00)
    1019                    .dwattr $C$DW$62, DW_AT_TI_symbol_name("MPY32_enableFractionalMode")
    1020                    .dwattr $C$DW$62, DW_AT_external
    1021                    .dwattr $C$DW$62, DW_AT_TI_begin_file("../MP430DriverLib/driverlib/MSP430F5xx_6xx/mpy32.c")
    1022                    .dwattr $C$DW$62, DW_AT_TI_begin_line(0x2a)
    1023                    .dwattr $C$DW$62, DW_AT_TI_begin_column(0x06)
    1024                    .dwattr $C$DW$62, DW_AT_decl_file("../MP430DriverLib/driverlib/MSP430F5xx_6xx/mpy32.c")
    1025                    .dwattr $C$DW$62, DW_AT_decl_line(0x2a)
    1026                    .dwattr $C$DW$62, DW_AT_decl_column(0x06)
    1027                    .dwattr $C$DW$62, DW_AT_TI_max_frame_size(0x04)
    1028                    .dwpsn  file "../MP430DriverLib/driverlib/MSP430F5xx_6xx/mpy32.c",line 43,column 1,is_stmt,add
    1029            
    1030                    .dwfde $C$DW$CIE, MPY32_enableFractionalMode
    1031            
    1032            ;*****************************************************************************
    1033            ;* FUNCTION NAME: MPY32_enableFractionalMode                                 *
    1034            ;*                                                                           *
    1035            ;*   Regs Modified     : SP                                                  *
    1036            ;*   Regs Used         : SP                                                  *
    1037            ;*   Local Frame Size  : 0 Args + 0 Auto + 0 Save = 0 byte                   *
    1038            ;*****************************************************************************
    1039 000000       MPY32_enableFractionalMode:
    1040            ;* --------------------------------------------------------------------------*
    1041                    .dwcfi  cfa_offset, 4
    1042                    .dwcfi  save_reg_to_mem, 16, -4
    1043                    .dwpsn  file "../MP430DriverLib/driverlib/MSP430F5xx_6xx/mpy32.c",line 44,column 5,is_stmt,isa
    1044 000000 D2E2          OR.B      #4,&0x4ec             ; [] |44| 
         000002 04EC 
    1045                    .dwpsn  file "../MP430DriverLib/driverlib/MSP430F5xx_6xx/mpy32.c",line 45,column 1,is_stmt,isa
    1046            $C$DW$63        .dwtag  DW_TAG_TI_branch
    1047                    .dwattr $C$DW$63, DW_AT_low_pc(0x00)
    1048                    .dwattr $C$DW$63, DW_AT_TI_return
    1049            
    1050 000004 0110          RETA      ; [] 
    1051                    ; [] 
    1052                    .dwattr $C$DW$62, DW_AT_TI_end_file("../MP430DriverLib/driverlib/MSP430F5xx_6xx/mpy32.c")
    1053                    .dwattr $C$DW$62, DW_AT_TI_end_line(0x2d)
    1054                    .dwattr $C$DW$62, DW_AT_TI_end_column(0x01)
    1055                    .dwendentry
    1056                    .dwendtag $C$DW$62
    1057            
    1058 000000               .sect   ".text:MPY32_disableSaturationMode"
    1059                    .clink
    1060                    .global MPY32_disableSaturationMode
    1061            
    1062            $C$DW$64        .dwtag  DW_TAG_subprogram
    1063                    .dwattr $C$DW$64, DW_AT_name("MPY32_disableSaturationMode")
    1064                    .dwattr $C$DW$64, DW_AT_low_pc(MPY32_disableSaturationMode)
    1065                    .dwattr $C$DW$64, DW_AT_high_pc(0x00)
MSP430 Assembler PC v21.6.1 Tue Dec 20 13:45:48 2022

Copyright (c) 2003-2018 Texas Instruments Incorporated
mpy32.asm                                                            PAGE   21

    1066                    .dwattr $C$DW$64, DW_AT_TI_symbol_name("MPY32_disableSaturationMode")
    1067                    .dwattr $C$DW$64, DW_AT_external
    1068                    .dwattr $C$DW$64, DW_AT_TI_begin_file("../MP430DriverLib/driverlib/MSP430F5xx_6xx/mpy32.c")
    1069                    .dwattr $C$DW$64, DW_AT_TI_begin_line(0x20)
    1070                    .dwattr $C$DW$64, DW_AT_TI_begin_column(0x06)
    1071                    .dwattr $C$DW$64, DW_AT_decl_file("../MP430DriverLib/driverlib/MSP430F5xx_6xx/mpy32.c")
    1072                    .dwattr $C$DW$64, DW_AT_decl_line(0x20)
    1073                    .dwattr $C$DW$64, DW_AT_decl_column(0x06)
    1074                    .dwattr $C$DW$64, DW_AT_TI_max_frame_size(0x04)
    1075                    .dwpsn  file "../MP430DriverLib/driverlib/MSP430F5xx_6xx/mpy32.c",line 33,column 1,is_stmt,add
    1076            
    1077                    .dwfde $C$DW$CIE, MPY32_disableSaturationMode
    1078            
    1079            ;*****************************************************************************
    1080            ;* FUNCTION NAME: MPY32_disableSaturationMode                                *
    1081            ;*                                                                           *
    1082            ;*   Regs Modified     : SP                                                  *
    1083            ;*   Regs Used         : SP                                                  *
    1084            ;*   Local Frame Size  : 0 Args + 0 Auto + 0 Save = 0 byte                   *
    1085            ;*****************************************************************************
    1086 000000       MPY32_disableSaturationMode:
    1087            ;* --------------------------------------------------------------------------*
    1088                    .dwcfi  cfa_offset, 4
    1089                    .dwcfi  save_reg_to_mem, 16, -4
    1090                    .dwpsn  file "../MP430DriverLib/driverlib/MSP430F5xx_6xx/mpy32.c",line 34,column 5,is_stmt,isa
    1091 000000 C2F2          BIC.B     #8,&0x4ec             ; [] |34| 
         000002 04EC 
    1092                    .dwpsn  file "../MP430DriverLib/driverlib/MSP430F5xx_6xx/mpy32.c",line 35,column 1,is_stmt,isa
    1093            $C$DW$65        .dwtag  DW_TAG_TI_branch
    1094                    .dwattr $C$DW$65, DW_AT_low_pc(0x00)
    1095                    .dwattr $C$DW$65, DW_AT_TI_return
    1096            
    1097 000004 0110          RETA      ; [] 
    1098                    ; [] 
    1099                    .dwattr $C$DW$64, DW_AT_TI_end_file("../MP430DriverLib/driverlib/MSP430F5xx_6xx/mpy32.c")
    1100                    .dwattr $C$DW$64, DW_AT_TI_end_line(0x23)
    1101                    .dwattr $C$DW$64, DW_AT_TI_end_column(0x01)
    1102                    .dwendentry
    1103                    .dwendtag $C$DW$64
    1104            
    1105 000000               .sect   ".text:MPY32_disableFractionalMode"
    1106                    .clink
    1107                    .global MPY32_disableFractionalMode
    1108            
    1109            $C$DW$66        .dwtag  DW_TAG_subprogram
    1110                    .dwattr $C$DW$66, DW_AT_name("MPY32_disableFractionalMode")
    1111                    .dwattr $C$DW$66, DW_AT_low_pc(MPY32_disableFractionalMode)
    1112                    .dwattr $C$DW$66, DW_AT_high_pc(0x00)
    1113                    .dwattr $C$DW$66, DW_AT_TI_symbol_name("MPY32_disableFractionalMode")
    1114                    .dwattr $C$DW$66, DW_AT_external
    1115                    .dwattr $C$DW$66, DW_AT_TI_begin_file("../MP430DriverLib/driverlib/MSP430F5xx_6xx/mpy32.c")
    1116                    .dwattr $C$DW$66, DW_AT_TI_begin_line(0x2f)
    1117                    .dwattr $C$DW$66, DW_AT_TI_begin_column(0x06)
    1118                    .dwattr $C$DW$66, DW_AT_decl_file("../MP430DriverLib/driverlib/MSP430F5xx_6xx/mpy32.c")
    1119                    .dwattr $C$DW$66, DW_AT_decl_line(0x2f)
MSP430 Assembler PC v21.6.1 Tue Dec 20 13:45:48 2022

Copyright (c) 2003-2018 Texas Instruments Incorporated
mpy32.asm                                                            PAGE   22

    1120                    .dwattr $C$DW$66, DW_AT_decl_column(0x06)
    1121                    .dwattr $C$DW$66, DW_AT_TI_max_frame_size(0x04)
    1122                    .dwpsn  file "../MP430DriverLib/driverlib/MSP430F5xx_6xx/mpy32.c",line 48,column 1,is_stmt,add
    1123            
    1124                    .dwfde $C$DW$CIE, MPY32_disableFractionalMode
    1125            
    1126            ;*****************************************************************************
    1127            ;* FUNCTION NAME: MPY32_disableFractionalMode                                *
    1128            ;*                                                                           *
    1129            ;*   Regs Modified     : SP                                                  *
    1130            ;*   Regs Used         : SP                                                  *
    1131            ;*   Local Frame Size  : 0 Args + 0 Auto + 0 Save = 0 byte                   *
    1132            ;*****************************************************************************
    1133 000000       MPY32_disableFractionalMode:
    1134            ;* --------------------------------------------------------------------------*
    1135                    .dwcfi  cfa_offset, 4
    1136                    .dwcfi  save_reg_to_mem, 16, -4
    1137                    .dwpsn  file "../MP430DriverLib/driverlib/MSP430F5xx_6xx/mpy32.c",line 49,column 5,is_stmt,isa
    1138 000000 C2E2          BIC.B     #4,&0x4ec             ; [] |49| 
         000002 04EC 
    1139                    .dwpsn  file "../MP430DriverLib/driverlib/MSP430F5xx_6xx/mpy32.c",line 50,column 1,is_stmt,isa
    1140            $C$DW$67        .dwtag  DW_TAG_TI_branch
    1141                    .dwattr $C$DW$67, DW_AT_low_pc(0x00)
    1142                    .dwattr $C$DW$67, DW_AT_TI_return
    1143            
    1144 000004 0110          RETA      ; [] 
    1145                    ; [] 
    1146                    .dwattr $C$DW$66, DW_AT_TI_end_file("../MP430DriverLib/driverlib/MSP430F5xx_6xx/mpy32.c")
    1147                    .dwattr $C$DW$66, DW_AT_TI_end_line(0x32)
    1148                    .dwattr $C$DW$66, DW_AT_TI_end_column(0x01)
    1149                    .dwendentry
    1150                    .dwendtag $C$DW$66
    1151            
    1152 000000               .sect   ".text:MPY32_clearCarryBitValue"
    1153                    .clink
    1154                    .global MPY32_clearCarryBitValue
    1155            
    1156            $C$DW$68        .dwtag  DW_TAG_subprogram
    1157                    .dwattr $C$DW$68, DW_AT_name("MPY32_clearCarryBitValue")
    1158                    .dwattr $C$DW$68, DW_AT_low_pc(MPY32_clearCarryBitValue)
    1159                    .dwattr $C$DW$68, DW_AT_high_pc(0x00)
    1160                    .dwattr $C$DW$68, DW_AT_TI_symbol_name("MPY32_clearCarryBitValue")
    1161                    .dwattr $C$DW$68, DW_AT_external
    1162                    .dwattr $C$DW$68, DW_AT_TI_begin_file("../MP430DriverLib/driverlib/MSP430F5xx_6xx/mpy32.c")
    1163                    .dwattr $C$DW$68, DW_AT_TI_begin_line(0x7f)
    1164                    .dwattr $C$DW$68, DW_AT_TI_begin_column(0x06)
    1165                    .dwattr $C$DW$68, DW_AT_decl_file("../MP430DriverLib/driverlib/MSP430F5xx_6xx/mpy32.c")
    1166                    .dwattr $C$DW$68, DW_AT_decl_line(0x7f)
    1167                    .dwattr $C$DW$68, DW_AT_decl_column(0x06)
    1168                    .dwattr $C$DW$68, DW_AT_TI_max_frame_size(0x04)
    1169                    .dwpsn  file "../MP430DriverLib/driverlib/MSP430F5xx_6xx/mpy32.c",line 128,column 1,is_stmt,ad
    1170            
    1171                    .dwfde $C$DW$CIE, MPY32_clearCarryBitValue
    1172            
    1173            ;*****************************************************************************
MSP430 Assembler PC v21.6.1 Tue Dec 20 13:45:48 2022

Copyright (c) 2003-2018 Texas Instruments Incorporated
mpy32.asm                                                            PAGE   23

    1174            ;* FUNCTION NAME: MPY32_clearCarryBitValue                                   *
    1175            ;*                                                                           *
    1176            ;*   Regs Modified     : SP                                                  *
    1177            ;*   Regs Used         : SP                                                  *
    1178            ;*   Local Frame Size  : 0 Args + 0 Auto + 0 Save = 0 byte                   *
    1179            ;*****************************************************************************
    1180 000000       MPY32_clearCarryBitValue:
    1181            ;* --------------------------------------------------------------------------*
    1182                    .dwcfi  cfa_offset, 4
    1183                    .dwcfi  save_reg_to_mem, 16, -4
    1184                    .dwpsn  file "../MP430DriverLib/driverlib/MSP430F5xx_6xx/mpy32.c",line 129,column 5,is_stmt,is
    1185 000000 C392          BIC.W     #1,&0x4ec             ; [] |129| 
         000002 04EC 
    1186                    .dwpsn  file "../MP430DriverLib/driverlib/MSP430F5xx_6xx/mpy32.c",line 130,column 1,is_stmt,is
    1187            $C$DW$69        .dwtag  DW_TAG_TI_branch
    1188                    .dwattr $C$DW$69, DW_AT_low_pc(0x00)
    1189                    .dwattr $C$DW$69, DW_AT_TI_return
    1190            
    1191 000004 0110          RETA      ; [] 
    1192                    ; [] 
    1193                    .dwattr $C$DW$68, DW_AT_TI_end_file("../MP430DriverLib/driverlib/MSP430F5xx_6xx/mpy32.c")
    1194                    .dwattr $C$DW$68, DW_AT_TI_end_line(0x82)
    1195                    .dwattr $C$DW$68, DW_AT_TI_end_column(0x01)
    1196                    .dwendentry
    1197                    .dwendtag $C$DW$68
    1198            
    1199            
    1200            ;******************************************************************************
    1201            ;* BUILD ATTRIBUTES                                                           *
    1202            ;******************************************************************************
    1203                    .battr "TI", Tag_File, 1, Tag_LPM_INFO(1)
    1204                    .battr "TI", Tag_File, 1, Tag_PORTS_INIT_INFO("012345678901ABCDEFGHIJ0000000000001111110000000
    1205                    .battr "TI", Tag_File, 1, Tag_LEA_INFO(1)
    1206                    .battr "TI", Tag_File, 1, Tag_HW_MPY32_INFO(2)
    1207                    .battr "TI", Tag_File, 1, Tag_HW_MPY_ISR_INFO(1)
    1208                    .battr "TI", Tag_File, 1, Tag_HW_MPY_INLINE_INFO(1)
    1209                    .battr "mspabi", Tag_File, 1, Tag_enum_size(3)
    1210            
    1211            ;******************************************************************************
    1212            ;* TYPE INFORMATION                                                           *
    1213            ;******************************************************************************
    1214            
    1215            $C$DW$T$21      .dwtag  DW_TAG_structure_type
    1216                    .dwattr $C$DW$T$21, DW_AT_byte_size(0x10)
    1217            $C$DW$70        .dwtag  DW_TAG_member
    1218                    .dwattr $C$DW$70, DW_AT_type(*$C$DW$T$14)
    1219                    .dwattr $C$DW$70, DW_AT_name("__max_align1")
    1220                    .dwattr $C$DW$70, DW_AT_TI_symbol_name("__max_align1")
    1221                    .dwattr $C$DW$70, DW_AT_data_member_location[DW_OP_plus_uconst 0x0]
    1222                    .dwattr $C$DW$70, DW_AT_accessibility(DW_ACCESS_public)
    1223                    .dwattr $C$DW$70, DW_AT_decl_file("C:/ti/ccs1110/ccs/tools/compiler/ti-cgt-msp430_21.6.1.LTS/i
    1224                    .dwattr $C$DW$70, DW_AT_decl_line(0x7b)
    1225                    .dwattr $C$DW$70, DW_AT_decl_column(0x0c)
    1226            
    1227            $C$DW$71        .dwtag  DW_TAG_member
MSP430 Assembler PC v21.6.1 Tue Dec 20 13:45:48 2022

Copyright (c) 2003-2018 Texas Instruments Incorporated
mpy32.asm                                                            PAGE   24

    1228                    .dwattr $C$DW$71, DW_AT_type(*$C$DW$T$18)
    1229                    .dwattr $C$DW$71, DW_AT_name("__max_align2")
    1230                    .dwattr $C$DW$71, DW_AT_TI_symbol_name("__max_align2")
    1231                    .dwattr $C$DW$71, DW_AT_data_member_location[DW_OP_plus_uconst 0x8]
    1232                    .dwattr $C$DW$71, DW_AT_accessibility(DW_ACCESS_public)
    1233                    .dwattr $C$DW$71, DW_AT_decl_file("C:/ti/ccs1110/ccs/tools/compiler/ti-cgt-msp430_21.6.1.LTS/i
    1234                    .dwattr $C$DW$71, DW_AT_decl_line(0x7c)
    1235                    .dwattr $C$DW$71, DW_AT_decl_column(0x0e)
    1236            
    1237                    .dwattr $C$DW$T$21, DW_AT_decl_file("C:/ti/ccs1110/ccs/tools/compiler/ti-cgt-msp430_21.6.1.LTS
    1238                    .dwattr $C$DW$T$21, DW_AT_decl_line(0x7a)
    1239                    .dwattr $C$DW$T$21, DW_AT_decl_column(0x10)
    1240                    .dwendtag $C$DW$T$21
    1241            
    1242            $C$DW$T$22      .dwtag  DW_TAG_typedef
    1243                    .dwattr $C$DW$T$22, DW_AT_name("__max_align_t")
    1244                    .dwattr $C$DW$T$22, DW_AT_type(*$C$DW$T$21)
    1245                    .dwattr $C$DW$T$22, DW_AT_language(DW_LANG_C)
    1246                    .dwattr $C$DW$T$22, DW_AT_decl_file("C:/ti/ccs1110/ccs/tools/compiler/ti-cgt-msp430_21.6.1.LTS
    1247                    .dwattr $C$DW$T$22, DW_AT_decl_line(0x7d)
    1248                    .dwattr $C$DW$T$22, DW_AT_decl_column(0x03)
    1249            
    1250            $C$DW$T$2       .dwtag  DW_TAG_unspecified_type
    1251                    .dwattr $C$DW$T$2, DW_AT_name("void")
    1252            
    1253            
    1254            $C$DW$T$39      .dwtag  DW_TAG_subroutine_type
    1255                    .dwattr $C$DW$T$39, DW_AT_language(DW_LANG_C)
    1256                    .dwendtag $C$DW$T$39
    1257            
    1258            $C$DW$T$40      .dwtag  DW_TAG_pointer_type
    1259                    .dwattr $C$DW$T$40, DW_AT_type(*$C$DW$T$39)
    1260                    .dwattr $C$DW$T$40, DW_AT_address_class(0x14)
    1261            
    1262            $C$DW$T$41      .dwtag  DW_TAG_typedef
    1263                    .dwattr $C$DW$T$41, DW_AT_name("__SFR_FARPTR")
    1264                    .dwattr $C$DW$T$41, DW_AT_type(*$C$DW$T$40)
    1265                    .dwattr $C$DW$T$41, DW_AT_language(DW_LANG_C)
    1266                    .dwattr $C$DW$T$41, DW_AT_decl_file("C:\ti\ccs1110\ccs\ccs_base\msp430\include\msp430f5438a.h"
    1267                    .dwattr $C$DW$T$41, DW_AT_decl_line(0x49)
    1268                    .dwattr $C$DW$T$41, DW_AT_decl_column(0x11)
    1269            
    1270            $C$DW$T$4       .dwtag  DW_TAG_base_type
    1271                    .dwattr $C$DW$T$4, DW_AT_encoding(DW_ATE_boolean)
    1272                    .dwattr $C$DW$T$4, DW_AT_name("bool")
    1273                    .dwattr $C$DW$T$4, DW_AT_byte_size(0x01)
    1274            
    1275            $C$DW$T$5       .dwtag  DW_TAG_base_type
    1276                    .dwattr $C$DW$T$5, DW_AT_encoding(DW_ATE_signed_char)
    1277                    .dwattr $C$DW$T$5, DW_AT_name("signed char")
    1278                    .dwattr $C$DW$T$5, DW_AT_byte_size(0x01)
    1279            
    1280            $C$DW$T$42      .dwtag  DW_TAG_typedef
    1281                    .dwattr $C$DW$T$42, DW_AT_name("__int8_t")
    1282                    .dwattr $C$DW$T$42, DW_AT_type(*$C$DW$T$5)
MSP430 Assembler PC v21.6.1 Tue Dec 20 13:45:48 2022

Copyright (c) 2003-2018 Texas Instruments Incorporated
mpy32.asm                                                            PAGE   25

    1283                    .dwattr $C$DW$T$42, DW_AT_language(DW_LANG_C)
    1284                    .dwattr $C$DW$T$42, DW_AT_decl_file("C:/ti/ccs1110/ccs/tools/compiler/ti-cgt-msp430_21.6.1.LTS
    1285                    .dwattr $C$DW$T$42, DW_AT_decl_line(0x36)
    1286                    .dwattr $C$DW$T$42, DW_AT_decl_column(0x16)
    1287            
    1288            $C$DW$T$43      .dwtag  DW_TAG_typedef
    1289                    .dwattr $C$DW$T$43, DW_AT_name("__int_least8_t")
    1290                    .dwattr $C$DW$T$43, DW_AT_type(*$C$DW$T$42)
    1291                    .dwattr $C$DW$T$43, DW_AT_language(DW_LANG_C)
    1292                    .dwattr $C$DW$T$43, DW_AT_decl_file("C:/ti/ccs1110/ccs/tools/compiler/ti-cgt-msp430_21.6.1.LTS
    1293                    .dwattr $C$DW$T$43, DW_AT_decl_line(0x5a)
    1294                    .dwattr $C$DW$T$43, DW_AT_decl_column(0x12)
    1295            
    1296            $C$DW$T$44      .dwtag  DW_TAG_typedef
    1297                    .dwattr $C$DW$T$44, DW_AT_name("int_least8_t")
    1298                    .dwattr $C$DW$T$44, DW_AT_type(*$C$DW$T$43)
    1299                    .dwattr $C$DW$T$44, DW_AT_language(DW_LANG_C)
    1300                    .dwattr $C$DW$T$44, DW_AT_decl_file("C:/ti/ccs1110/ccs/tools/compiler/ti-cgt-msp430_21.6.1.LTS
    1301                    .dwattr $C$DW$T$44, DW_AT_decl_line(0x2a)
    1302                    .dwattr $C$DW$T$44, DW_AT_decl_column(0x19)
    1303            
    1304            $C$DW$T$45      .dwtag  DW_TAG_typedef
    1305                    .dwattr $C$DW$T$45, DW_AT_name("int8_t")
    1306                    .dwattr $C$DW$T$45, DW_AT_type(*$C$DW$T$42)
    1307                    .dwattr $C$DW$T$45, DW_AT_language(DW_LANG_C)
    1308                    .dwattr $C$DW$T$45, DW_AT_decl_file("C:/ti/ccs1110/ccs/tools/compiler/ti-cgt-msp430_21.6.1.LTS
    1309                    .dwattr $C$DW$T$45, DW_AT_decl_line(0x25)
    1310                    .dwattr $C$DW$T$45, DW_AT_decl_column(0x13)
    1311            
    1312            $C$DW$T$6       .dwtag  DW_TAG_base_type
    1313                    .dwattr $C$DW$T$6, DW_AT_encoding(DW_ATE_unsigned_char)
    1314                    .dwattr $C$DW$T$6, DW_AT_name("unsigned char")
    1315                    .dwattr $C$DW$T$6, DW_AT_byte_size(0x01)
    1316            
    1317            $C$DW$T$27      .dwtag  DW_TAG_typedef
    1318                    .dwattr $C$DW$T$27, DW_AT_name("__uint8_t")
    1319                    .dwattr $C$DW$T$27, DW_AT_type(*$C$DW$T$6)
    1320                    .dwattr $C$DW$T$27, DW_AT_language(DW_LANG_C)
    1321                    .dwattr $C$DW$T$27, DW_AT_decl_file("C:/ti/ccs1110/ccs/tools/compiler/ti-cgt-msp430_21.6.1.LTS
    1322                    .dwattr $C$DW$T$27, DW_AT_decl_line(0x37)
    1323                    .dwattr $C$DW$T$27, DW_AT_decl_column(0x18)
    1324            
    1325            $C$DW$T$49      .dwtag  DW_TAG_typedef
    1326                    .dwattr $C$DW$T$49, DW_AT_name("__sa_family_t")
    1327                    .dwattr $C$DW$T$49, DW_AT_type(*$C$DW$T$27)
    1328                    .dwattr $C$DW$T$49, DW_AT_language(DW_LANG_C)
    1329                    .dwattr $C$DW$T$49, DW_AT_decl_file("C:/ti/ccs1110/ccs/tools/compiler/ti-cgt-msp430_21.6.1.LTS
    1330                    .dwattr $C$DW$T$49, DW_AT_decl_line(0x47)
    1331                    .dwattr $C$DW$T$49, DW_AT_decl_column(0x13)
    1332            
    1333            $C$DW$T$50      .dwtag  DW_TAG_typedef
    1334                    .dwattr $C$DW$T$50, DW_AT_name("__uint_least8_t")
    1335                    .dwattr $C$DW$T$50, DW_AT_type(*$C$DW$T$27)
    1336                    .dwattr $C$DW$T$50, DW_AT_language(DW_LANG_C)
    1337                    .dwattr $C$DW$T$50, DW_AT_decl_file("C:/ti/ccs1110/ccs/tools/compiler/ti-cgt-msp430_21.6.1.LTS
MSP430 Assembler PC v21.6.1 Tue Dec 20 13:45:48 2022

Copyright (c) 2003-2018 Texas Instruments Incorporated
mpy32.asm                                                            PAGE   26

    1338                    .dwattr $C$DW$T$50, DW_AT_decl_line(0x74)
    1339                    .dwattr $C$DW$T$50, DW_AT_decl_column(0x13)
    1340            
    1341            $C$DW$T$51      .dwtag  DW_TAG_typedef
    1342                    .dwattr $C$DW$T$51, DW_AT_name("uint_least8_t")
    1343                    .dwattr $C$DW$T$51, DW_AT_type(*$C$DW$T$50)
    1344                    .dwattr $C$DW$T$51, DW_AT_language(DW_LANG_C)
    1345                    .dwattr $C$DW$T$51, DW_AT_decl_file("C:/ti/ccs1110/ccs/tools/compiler/ti-cgt-msp430_21.6.1.LTS
    1346                    .dwattr $C$DW$T$51, DW_AT_decl_line(0x2f)
    1347                    .dwattr $C$DW$T$51, DW_AT_decl_column(0x1a)
    1348            
    1349            $C$DW$T$28      .dwtag  DW_TAG_typedef
    1350                    .dwattr $C$DW$T$28, DW_AT_name("uint8_t")
    1351                    .dwattr $C$DW$T$28, DW_AT_type(*$C$DW$T$27)
    1352                    .dwattr $C$DW$T$28, DW_AT_language(DW_LANG_C)
    1353                    .dwattr $C$DW$T$28, DW_AT_decl_file("C:/ti/ccs1110/ccs/tools/compiler/ti-cgt-msp430_21.6.1.LTS
    1354                    .dwattr $C$DW$T$28, DW_AT_decl_line(0x3b)
    1355                    .dwattr $C$DW$T$28, DW_AT_decl_column(0x14)
    1356            
    1357            $C$DW$T$7       .dwtag  DW_TAG_base_type
    1358                    .dwattr $C$DW$T$7, DW_AT_encoding(DW_ATE_signed_char)
    1359                    .dwattr $C$DW$T$7, DW_AT_name("wchar_t")
    1360                    .dwattr $C$DW$T$7, DW_AT_byte_size(0x02)
    1361            
    1362            $C$DW$T$8       .dwtag  DW_TAG_base_type
    1363                    .dwattr $C$DW$T$8, DW_AT_encoding(DW_ATE_signed)
    1364                    .dwattr $C$DW$T$8, DW_AT_name("short")
    1365                    .dwattr $C$DW$T$8, DW_AT_byte_size(0x02)
    1366            
    1367            $C$DW$T$9       .dwtag  DW_TAG_base_type
    1368                    .dwattr $C$DW$T$9, DW_AT_encoding(DW_ATE_unsigned)
    1369                    .dwattr $C$DW$T$9, DW_AT_name("unsigned short")
    1370                    .dwattr $C$DW$T$9, DW_AT_byte_size(0x02)
    1371            
    1372            $C$DW$T$10      .dwtag  DW_TAG_base_type
    1373                    .dwattr $C$DW$T$10, DW_AT_encoding(DW_ATE_signed)
    1374                    .dwattr $C$DW$T$10, DW_AT_name("int")
    1375                    .dwattr $C$DW$T$10, DW_AT_byte_size(0x02)
    1376            
    1377            $C$DW$T$53      .dwtag  DW_TAG_typedef
    1378                    .dwattr $C$DW$T$53, DW_AT_name("_Mbstatet")
    1379                    .dwattr $C$DW$T$53, DW_AT_type(*$C$DW$T$10)
    1380                    .dwattr $C$DW$T$53, DW_AT_language(DW_LANG_C)
    1381                    .dwattr $C$DW$T$53, DW_AT_decl_file("C:/ti/ccs1110/ccs/tools/compiler/ti-cgt-msp430_21.6.1.LTS
    1382                    .dwattr $C$DW$T$53, DW_AT_decl_line(0x8f)
    1383                    .dwattr $C$DW$T$53, DW_AT_decl_column(0x0d)
    1384            
    1385            $C$DW$T$54      .dwtag  DW_TAG_typedef
    1386                    .dwattr $C$DW$T$54, DW_AT_name("__mbstate_t")
    1387                    .dwattr $C$DW$T$54, DW_AT_type(*$C$DW$T$53)
    1388                    .dwattr $C$DW$T$54, DW_AT_language(DW_LANG_C)
    1389                    .dwattr $C$DW$T$54, DW_AT_decl_file("C:/ti/ccs1110/ccs/tools/compiler/ti-cgt-msp430_21.6.1.LTS
    1390                    .dwattr $C$DW$T$54, DW_AT_decl_line(0x92)
    1391                    .dwattr $C$DW$T$54, DW_AT_decl_column(0x13)
    1392            
MSP430 Assembler PC v21.6.1 Tue Dec 20 13:45:48 2022

Copyright (c) 2003-2018 Texas Instruments Incorporated
mpy32.asm                                                            PAGE   27

    1393            $C$DW$T$55      .dwtag  DW_TAG_typedef
    1394                    .dwattr $C$DW$T$55, DW_AT_name("__accmode_t")
    1395                    .dwattr $C$DW$T$55, DW_AT_type(*$C$DW$T$10)
    1396                    .dwattr $C$DW$T$55, DW_AT_language(DW_LANG_C)
    1397                    .dwattr $C$DW$T$55, DW_AT_decl_file("C:/ti/ccs1110/ccs/tools/compiler/ti-cgt-msp430_21.6.1.LTS
    1398                    .dwattr $C$DW$T$55, DW_AT_decl_line(0x3b)
    1399                    .dwattr $C$DW$T$55, DW_AT_decl_column(0x0e)
    1400            
    1401            $C$DW$T$56      .dwtag  DW_TAG_typedef
    1402                    .dwattr $C$DW$T$56, DW_AT_name("__cpulevel_t")
    1403                    .dwattr $C$DW$T$56, DW_AT_type(*$C$DW$T$10)
    1404                    .dwattr $C$DW$T$56, DW_AT_language(DW_LANG_C)
    1405                    .dwattr $C$DW$T$56, DW_AT_decl_file("C:/ti/ccs1110/ccs/tools/compiler/ti-cgt-msp430_21.6.1.LTS
    1406                    .dwattr $C$DW$T$56, DW_AT_decl_line(0x50)
    1407                    .dwattr $C$DW$T$56, DW_AT_decl_column(0x0e)
    1408            
    1409            $C$DW$T$57      .dwtag  DW_TAG_typedef
    1410                    .dwattr $C$DW$T$57, DW_AT_name("__cpusetid_t")
    1411                    .dwattr $C$DW$T$57, DW_AT_type(*$C$DW$T$10)
    1412                    .dwattr $C$DW$T$57, DW_AT_language(DW_LANG_C)
    1413                    .dwattr $C$DW$T$57, DW_AT_decl_file("C:/ti/ccs1110/ccs/tools/compiler/ti-cgt-msp430_21.6.1.LTS
    1414                    .dwattr $C$DW$T$57, DW_AT_decl_line(0x51)
    1415                    .dwattr $C$DW$T$57, DW_AT_decl_column(0x0e)
    1416            
    1417            $C$DW$T$58      .dwtag  DW_TAG_typedef
    1418                    .dwattr $C$DW$T$58, DW_AT_name("__cpuwhich_t")
    1419                    .dwattr $C$DW$T$58, DW_AT_type(*$C$DW$T$10)
    1420                    .dwattr $C$DW$T$58, DW_AT_language(DW_LANG_C)
    1421                    .dwattr $C$DW$T$58, DW_AT_decl_file("C:/ti/ccs1110/ccs/tools/compiler/ti-cgt-msp430_21.6.1.LTS
    1422                    .dwattr $C$DW$T$58, DW_AT_decl_line(0x4f)
    1423                    .dwattr $C$DW$T$58, DW_AT_decl_column(0x0e)
    1424            
    1425            $C$DW$T$59      .dwtag  DW_TAG_typedef
    1426                    .dwattr $C$DW$T$59, DW_AT_name("__ct_rune_t")
    1427                    .dwattr $C$DW$T$59, DW_AT_type(*$C$DW$T$10)
    1428                    .dwattr $C$DW$T$59, DW_AT_language(DW_LANG_C)
    1429                    .dwattr $C$DW$T$59, DW_AT_decl_file("C:/ti/ccs1110/ccs/tools/compiler/ti-cgt-msp430_21.6.1.LTS
    1430                    .dwattr $C$DW$T$59, DW_AT_decl_line(0x69)
    1431                    .dwattr $C$DW$T$59, DW_AT_decl_column(0x0e)
    1432            
    1433            $C$DW$T$60      .dwtag  DW_TAG_typedef
    1434                    .dwattr $C$DW$T$60, DW_AT_name("__rune_t")
    1435                    .dwattr $C$DW$T$60, DW_AT_type(*$C$DW$T$59)
    1436                    .dwattr $C$DW$T$60, DW_AT_language(DW_LANG_C)
    1437                    .dwattr $C$DW$T$60, DW_AT_decl_file("C:/ti/ccs1110/ccs/tools/compiler/ti-cgt-msp430_21.6.1.LTS
    1438                    .dwattr $C$DW$T$60, DW_AT_decl_line(0x6c)
    1439                    .dwattr $C$DW$T$60, DW_AT_decl_column(0x15)
    1440            
    1441            $C$DW$T$61      .dwtag  DW_TAG_typedef
    1442                    .dwattr $C$DW$T$61, DW_AT_name("__wint_t")
    1443                    .dwattr $C$DW$T$61, DW_AT_type(*$C$DW$T$59)
    1444                    .dwattr $C$DW$T$61, DW_AT_language(DW_LANG_C)
    1445                    .dwattr $C$DW$T$61, DW_AT_decl_file("C:/ti/ccs1110/ccs/tools/compiler/ti-cgt-msp430_21.6.1.LTS
    1446                    .dwattr $C$DW$T$61, DW_AT_decl_line(0x6d)
    1447                    .dwattr $C$DW$T$61, DW_AT_decl_column(0x15)
MSP430 Assembler PC v21.6.1 Tue Dec 20 13:45:48 2022

Copyright (c) 2003-2018 Texas Instruments Incorporated
mpy32.asm                                                            PAGE   28

    1448            
    1449            $C$DW$T$62      .dwtag  DW_TAG_typedef
    1450                    .dwattr $C$DW$T$62, DW_AT_name("__int16_t")
    1451                    .dwattr $C$DW$T$62, DW_AT_type(*$C$DW$T$10)
    1452                    .dwattr $C$DW$T$62, DW_AT_language(DW_LANG_C)
    1453                    .dwattr $C$DW$T$62, DW_AT_decl_file("C:/ti/ccs1110/ccs/tools/compiler/ti-cgt-msp430_21.6.1.LTS
    1454                    .dwattr $C$DW$T$62, DW_AT_decl_line(0x38)
    1455                    .dwattr $C$DW$T$62, DW_AT_decl_column(0x0f)
    1456            
    1457            $C$DW$T$63      .dwtag  DW_TAG_typedef
    1458                    .dwattr $C$DW$T$63, DW_AT_name("__int_fast16_t")
    1459                    .dwattr $C$DW$T$63, DW_AT_type(*$C$DW$T$62)
    1460                    .dwattr $C$DW$T$63, DW_AT_language(DW_LANG_C)
    1461                    .dwattr $C$DW$T$63, DW_AT_decl_file("C:/ti/ccs1110/ccs/tools/compiler/ti-cgt-msp430_21.6.1.LTS
    1462                    .dwattr $C$DW$T$63, DW_AT_decl_line(0x57)
    1463                    .dwattr $C$DW$T$63, DW_AT_decl_column(0x13)
    1464            
    1465            $C$DW$T$64      .dwtag  DW_TAG_typedef
    1466                    .dwattr $C$DW$T$64, DW_AT_name("int_fast16_t")
    1467                    .dwattr $C$DW$T$64, DW_AT_type(*$C$DW$T$63)
    1468                    .dwattr $C$DW$T$64, DW_AT_language(DW_LANG_C)
    1469                    .dwattr $C$DW$T$64, DW_AT_decl_file("C:/ti/ccs1110/ccs/tools/compiler/ti-cgt-msp430_21.6.1.LTS
    1470                    .dwattr $C$DW$T$64, DW_AT_decl_line(0x35)
    1471                    .dwattr $C$DW$T$64, DW_AT_decl_column(0x19)
    1472            
    1473            $C$DW$T$65      .dwtag  DW_TAG_typedef
    1474                    .dwattr $C$DW$T$65, DW_AT_name("__int_fast8_t")
    1475                    .dwattr $C$DW$T$65, DW_AT_type(*$C$DW$T$62)
    1476                    .dwattr $C$DW$T$65, DW_AT_language(DW_LANG_C)
    1477                    .dwattr $C$DW$T$65, DW_AT_decl_file("C:/ti/ccs1110/ccs/tools/compiler/ti-cgt-msp430_21.6.1.LTS
    1478                    .dwattr $C$DW$T$65, DW_AT_decl_line(0x56)
    1479                    .dwattr $C$DW$T$65, DW_AT_decl_column(0x13)
    1480            
    1481            $C$DW$T$66      .dwtag  DW_TAG_typedef
    1482                    .dwattr $C$DW$T$66, DW_AT_name("int_fast8_t")
    1483                    .dwattr $C$DW$T$66, DW_AT_type(*$C$DW$T$65)
    1484                    .dwattr $C$DW$T$66, DW_AT_language(DW_LANG_C)
    1485                    .dwattr $C$DW$T$66, DW_AT_decl_file("C:/ti/ccs1110/ccs/tools/compiler/ti-cgt-msp430_21.6.1.LTS
    1486                    .dwattr $C$DW$T$66, DW_AT_decl_line(0x34)
    1487                    .dwattr $C$DW$T$66, DW_AT_decl_column(0x18)
    1488            
    1489            $C$DW$T$67      .dwtag  DW_TAG_typedef
    1490                    .dwattr $C$DW$T$67, DW_AT_name("__int_least16_t")
    1491                    .dwattr $C$DW$T$67, DW_AT_type(*$C$DW$T$62)
    1492                    .dwattr $C$DW$T$67, DW_AT_language(DW_LANG_C)
    1493                    .dwattr $C$DW$T$67, DW_AT_decl_file("C:/ti/ccs1110/ccs/tools/compiler/ti-cgt-msp430_21.6.1.LTS
    1494                    .dwattr $C$DW$T$67, DW_AT_decl_line(0x5b)
    1495                    .dwattr $C$DW$T$67, DW_AT_decl_column(0x13)
    1496            
    1497            $C$DW$T$68      .dwtag  DW_TAG_typedef
    1498                    .dwattr $C$DW$T$68, DW_AT_name("int_least16_t")
    1499                    .dwattr $C$DW$T$68, DW_AT_type(*$C$DW$T$67)
    1500                    .dwattr $C$DW$T$68, DW_AT_language(DW_LANG_C)
    1501                    .dwattr $C$DW$T$68, DW_AT_decl_file("C:/ti/ccs1110/ccs/tools/compiler/ti-cgt-msp430_21.6.1.LTS
    1502                    .dwattr $C$DW$T$68, DW_AT_decl_line(0x2b)
MSP430 Assembler PC v21.6.1 Tue Dec 20 13:45:48 2022

Copyright (c) 2003-2018 Texas Instruments Incorporated
mpy32.asm                                                            PAGE   29

    1503                    .dwattr $C$DW$T$68, DW_AT_decl_column(0x1a)
    1504            
    1505            $C$DW$T$69      .dwtag  DW_TAG_typedef
    1506                    .dwattr $C$DW$T$69, DW_AT_name("__register_t")
    1507                    .dwattr $C$DW$T$69, DW_AT_type(*$C$DW$T$62)
    1508                    .dwattr $C$DW$T$69, DW_AT_language(DW_LANG_C)
    1509                    .dwattr $C$DW$T$69, DW_AT_decl_file("C:/ti/ccs1110/ccs/tools/compiler/ti-cgt-msp430_21.6.1.LTS
    1510                    .dwattr $C$DW$T$69, DW_AT_decl_line(0x5f)
    1511                    .dwattr $C$DW$T$69, DW_AT_decl_column(0x13)
    1512            
    1513            $C$DW$T$70      .dwtag  DW_TAG_typedef
    1514                    .dwattr $C$DW$T$70, DW_AT_name("int16_t")
    1515                    .dwattr $C$DW$T$70, DW_AT_type(*$C$DW$T$62)
    1516                    .dwattr $C$DW$T$70, DW_AT_language(DW_LANG_C)
    1517                    .dwattr $C$DW$T$70, DW_AT_decl_file("C:/ti/ccs1110/ccs/tools/compiler/ti-cgt-msp430_21.6.1.LTS
    1518                    .dwattr $C$DW$T$70, DW_AT_decl_line(0x2b)
    1519                    .dwattr $C$DW$T$70, DW_AT_decl_column(0x14)
    1520            
    1521            $C$DW$T$71      .dwtag  DW_TAG_typedef
    1522                    .dwattr $C$DW$T$71, DW_AT_name("__nl_item")
    1523                    .dwattr $C$DW$T$71, DW_AT_type(*$C$DW$T$10)
    1524                    .dwattr $C$DW$T$71, DW_AT_language(DW_LANG_C)
    1525                    .dwattr $C$DW$T$71, DW_AT_decl_file("C:/ti/ccs1110/ccs/tools/compiler/ti-cgt-msp430_21.6.1.LTS
    1526                    .dwattr $C$DW$T$71, DW_AT_decl_line(0x3c)
    1527                    .dwattr $C$DW$T$71, DW_AT_decl_column(0x0e)
    1528            
    1529            $C$DW$T$72      .dwtag  DW_TAG_typedef
    1530                    .dwattr $C$DW$T$72, DW_AT_name("__ptrdiff_t")
    1531                    .dwattr $C$DW$T$72, DW_AT_type(*$C$DW$T$10)
    1532                    .dwattr $C$DW$T$72, DW_AT_language(DW_LANG_C)
    1533                    .dwattr $C$DW$T$72, DW_AT_decl_file("C:/ti/ccs1110/ccs/tools/compiler/ti-cgt-msp430_21.6.1.LTS
    1534                    .dwattr $C$DW$T$72, DW_AT_decl_line(0x5e)
    1535                    .dwattr $C$DW$T$72, DW_AT_decl_column(0x1c)
    1536            
    1537            $C$DW$T$11      .dwtag  DW_TAG_base_type
    1538                    .dwattr $C$DW$T$11, DW_AT_encoding(DW_ATE_unsigned)
    1539                    .dwattr $C$DW$T$11, DW_AT_name("unsigned int")
    1540                    .dwattr $C$DW$T$11, DW_AT_byte_size(0x02)
    1541            
    1542            $C$DW$T$73      .dwtag  DW_TAG_typedef
    1543                    .dwattr $C$DW$T$73, DW_AT_name("___wchar_t")
    1544                    .dwattr $C$DW$T$73, DW_AT_type(*$C$DW$T$11)
    1545                    .dwattr $C$DW$T$73, DW_AT_language(DW_LANG_C)
    1546                    .dwattr $C$DW$T$73, DW_AT_decl_file("C:/ti/ccs1110/ccs/tools/compiler/ti-cgt-msp430_21.6.1.LTS
    1547                    .dwattr $C$DW$T$73, DW_AT_decl_line(0x7d)
    1548                    .dwattr $C$DW$T$73, DW_AT_decl_column(0x1a)
    1549            
    1550            $C$DW$T$77      .dwtag  DW_TAG_typedef
    1551                    .dwattr $C$DW$T$77, DW_AT_name("__size_t")
    1552                    .dwattr $C$DW$T$77, DW_AT_type(*$C$DW$T$11)
    1553                    .dwattr $C$DW$T$77, DW_AT_language(DW_LANG_C)
    1554                    .dwattr $C$DW$T$77, DW_AT_decl_file("C:/ti/ccs1110/ccs/tools/compiler/ti-cgt-msp430_21.6.1.LTS
    1555                    .dwattr $C$DW$T$77, DW_AT_decl_line(0x61)
    1556                    .dwattr $C$DW$T$77, DW_AT_decl_column(0x19)
    1557            
MSP430 Assembler PC v21.6.1 Tue Dec 20 13:45:48 2022

Copyright (c) 2003-2018 Texas Instruments Incorporated
mpy32.asm                                                            PAGE   30

    1558            $C$DW$T$23      .dwtag  DW_TAG_typedef
    1559                    .dwattr $C$DW$T$23, DW_AT_name("__uint16_t")
    1560                    .dwattr $C$DW$T$23, DW_AT_type(*$C$DW$T$11)
    1561                    .dwattr $C$DW$T$23, DW_AT_language(DW_LANG_C)
    1562                    .dwattr $C$DW$T$23, DW_AT_decl_file("C:/ti/ccs1110/ccs/tools/compiler/ti-cgt-msp430_21.6.1.LTS
    1563                    .dwattr $C$DW$T$23, DW_AT_decl_line(0x39)
    1564                    .dwattr $C$DW$T$23, DW_AT_decl_column(0x17)
    1565            
    1566            $C$DW$T$78      .dwtag  DW_TAG_typedef
    1567                    .dwattr $C$DW$T$78, DW_AT_name("__mode_t")
    1568                    .dwattr $C$DW$T$78, DW_AT_type(*$C$DW$T$23)
    1569                    .dwattr $C$DW$T$78, DW_AT_language(DW_LANG_C)
    1570                    .dwattr $C$DW$T$78, DW_AT_decl_file("C:/ti/ccs1110/ccs/tools/compiler/ti-cgt-msp430_21.6.1.LTS
    1571                    .dwattr $C$DW$T$78, DW_AT_decl_line(0x3a)
    1572                    .dwattr $C$DW$T$78, DW_AT_decl_column(0x14)
    1573            
    1574            $C$DW$T$79      .dwtag  DW_TAG_typedef
    1575                    .dwattr $C$DW$T$79, DW_AT_name("__u_register_t")
    1576                    .dwattr $C$DW$T$79, DW_AT_type(*$C$DW$T$23)
    1577                    .dwattr $C$DW$T$79, DW_AT_language(DW_LANG_C)
    1578                    .dwattr $C$DW$T$79, DW_AT_decl_file("C:/ti/ccs1110/ccs/tools/compiler/ti-cgt-msp430_21.6.1.LTS
    1579                    .dwattr $C$DW$T$79, DW_AT_decl_line(0x78)
    1580                    .dwattr $C$DW$T$79, DW_AT_decl_column(0x14)
    1581            
    1582            $C$DW$T$80      .dwtag  DW_TAG_typedef
    1583                    .dwattr $C$DW$T$80, DW_AT_name("__uint_fast16_t")
    1584                    .dwattr $C$DW$T$80, DW_AT_type(*$C$DW$T$23)
    1585                    .dwattr $C$DW$T$80, DW_AT_language(DW_LANG_C)
    1586                    .dwattr $C$DW$T$80, DW_AT_decl_file("C:/ti/ccs1110/ccs/tools/compiler/ti-cgt-msp430_21.6.1.LTS
    1587                    .dwattr $C$DW$T$80, DW_AT_decl_line(0x71)
    1588                    .dwattr $C$DW$T$80, DW_AT_decl_column(0x14)
    1589            
    1590            $C$DW$T$81      .dwtag  DW_TAG_typedef
    1591                    .dwattr $C$DW$T$81, DW_AT_name("uint_fast16_t")
    1592                    .dwattr $C$DW$T$81, DW_AT_type(*$C$DW$T$80)
    1593                    .dwattr $C$DW$T$81, DW_AT_language(DW_LANG_C)
    1594                    .dwattr $C$DW$T$81, DW_AT_decl_file("C:/ti/ccs1110/ccs/tools/compiler/ti-cgt-msp430_21.6.1.LTS
    1595                    .dwattr $C$DW$T$81, DW_AT_decl_line(0x3a)
    1596                    .dwattr $C$DW$T$81, DW_AT_decl_column(0x1a)
    1597            
    1598            $C$DW$T$82      .dwtag  DW_TAG_typedef
    1599                    .dwattr $C$DW$T$82, DW_AT_name("__uint_fast8_t")
    1600                    .dwattr $C$DW$T$82, DW_AT_type(*$C$DW$T$23)
    1601                    .dwattr $C$DW$T$82, DW_AT_language(DW_LANG_C)
    1602                    .dwattr $C$DW$T$82, DW_AT_decl_file("C:/ti/ccs1110/ccs/tools/compiler/ti-cgt-msp430_21.6.1.LTS
    1603                    .dwattr $C$DW$T$82, DW_AT_decl_line(0x70)
    1604                    .dwattr $C$DW$T$82, DW_AT_decl_column(0x14)
    1605            
    1606            $C$DW$T$83      .dwtag  DW_TAG_typedef
    1607                    .dwattr $C$DW$T$83, DW_AT_name("uint_fast8_t")
    1608                    .dwattr $C$DW$T$83, DW_AT_type(*$C$DW$T$82)
    1609                    .dwattr $C$DW$T$83, DW_AT_language(DW_LANG_C)
    1610                    .dwattr $C$DW$T$83, DW_AT_decl_file("C:/ti/ccs1110/ccs/tools/compiler/ti-cgt-msp430_21.6.1.LTS
    1611                    .dwattr $C$DW$T$83, DW_AT_decl_line(0x39)
    1612                    .dwattr $C$DW$T$83, DW_AT_decl_column(0x19)
MSP430 Assembler PC v21.6.1 Tue Dec 20 13:45:48 2022

Copyright (c) 2003-2018 Texas Instruments Incorporated
mpy32.asm                                                            PAGE   31

    1613            
    1614            $C$DW$T$84      .dwtag  DW_TAG_typedef
    1615                    .dwattr $C$DW$T$84, DW_AT_name("__uint_least16_t")
    1616                    .dwattr $C$DW$T$84, DW_AT_type(*$C$DW$T$23)
    1617                    .dwattr $C$DW$T$84, DW_AT_language(DW_LANG_C)
    1618                    .dwattr $C$DW$T$84, DW_AT_decl_file("C:/ti/ccs1110/ccs/tools/compiler/ti-cgt-msp430_21.6.1.LTS
    1619                    .dwattr $C$DW$T$84, DW_AT_decl_line(0x75)
    1620                    .dwattr $C$DW$T$84, DW_AT_decl_column(0x14)
    1621            
    1622            $C$DW$T$85      .dwtag  DW_TAG_typedef
    1623                    .dwattr $C$DW$T$85, DW_AT_name("__char16_t")
    1624                    .dwattr $C$DW$T$85, DW_AT_type(*$C$DW$T$84)
    1625                    .dwattr $C$DW$T$85, DW_AT_language(DW_LANG_C)
    1626                    .dwattr $C$DW$T$85, DW_AT_decl_file("C:/ti/ccs1110/ccs/tools/compiler/ti-cgt-msp430_21.6.1.LTS
    1627                    .dwattr $C$DW$T$85, DW_AT_decl_line(0x71)
    1628                    .dwattr $C$DW$T$85, DW_AT_decl_column(0x1a)
    1629            
    1630            $C$DW$T$86      .dwtag  DW_TAG_typedef
    1631                    .dwattr $C$DW$T$86, DW_AT_name("uint_least16_t")
    1632                    .dwattr $C$DW$T$86, DW_AT_type(*$C$DW$T$84)
    1633                    .dwattr $C$DW$T$86, DW_AT_language(DW_LANG_C)
    1634                    .dwattr $C$DW$T$86, DW_AT_decl_file("C:/ti/ccs1110/ccs/tools/compiler/ti-cgt-msp430_21.6.1.LTS
    1635                    .dwattr $C$DW$T$86, DW_AT_decl_line(0x30)
    1636                    .dwattr $C$DW$T$86, DW_AT_decl_column(0x1a)
    1637            
    1638            $C$DW$T$24      .dwtag  DW_TAG_typedef
    1639                    .dwattr $C$DW$T$24, DW_AT_name("uint16_t")
    1640                    .dwattr $C$DW$T$24, DW_AT_type(*$C$DW$T$23)
    1641                    .dwattr $C$DW$T$24, DW_AT_language(DW_LANG_C)
    1642                    .dwattr $C$DW$T$24, DW_AT_decl_file("C:/ti/ccs1110/ccs/tools/compiler/ti-cgt-msp430_21.6.1.LTS
    1643                    .dwattr $C$DW$T$24, DW_AT_decl_line(0x41)
    1644                    .dwattr $C$DW$T$24, DW_AT_decl_column(0x15)
    1645            
    1646            $C$DW$T$88      .dwtag  DW_TAG_typedef
    1647                    .dwattr $C$DW$T$88, DW_AT_name("__useconds_t")
    1648                    .dwattr $C$DW$T$88, DW_AT_type(*$C$DW$T$11)
    1649                    .dwattr $C$DW$T$88, DW_AT_language(DW_LANG_C)
    1650                    .dwattr $C$DW$T$88, DW_AT_decl_file("C:/ti/ccs1110/ccs/tools/compiler/ti-cgt-msp430_21.6.1.LTS
    1651                    .dwattr $C$DW$T$88, DW_AT_decl_line(0x4e)
    1652                    .dwattr $C$DW$T$88, DW_AT_decl_column(0x16)
    1653            
    1654            $C$DW$T$12      .dwtag  DW_TAG_base_type
    1655                    .dwattr $C$DW$T$12, DW_AT_encoding(DW_ATE_signed)
    1656                    .dwattr $C$DW$T$12, DW_AT_name("long")
    1657                    .dwattr $C$DW$T$12, DW_AT_byte_size(0x04)
    1658            
    1659            $C$DW$T$89      .dwtag  DW_TAG_typedef
    1660                    .dwattr $C$DW$T$89, DW_AT_name("__int32_t")
    1661                    .dwattr $C$DW$T$89, DW_AT_type(*$C$DW$T$12)
    1662                    .dwattr $C$DW$T$89, DW_AT_language(DW_LANG_C)
    1663                    .dwattr $C$DW$T$89, DW_AT_decl_file("C:/ti/ccs1110/ccs/tools/compiler/ti-cgt-msp430_21.6.1.LTS
    1664                    .dwattr $C$DW$T$89, DW_AT_decl_line(0x3a)
    1665                    .dwattr $C$DW$T$89, DW_AT_decl_column(0x10)
    1666            
    1667            $C$DW$T$90      .dwtag  DW_TAG_typedef
MSP430 Assembler PC v21.6.1 Tue Dec 20 13:45:48 2022

Copyright (c) 2003-2018 Texas Instruments Incorporated
mpy32.asm                                                            PAGE   32

    1668                    .dwattr $C$DW$T$90, DW_AT_name("__blksize_t")
    1669                    .dwattr $C$DW$T$90, DW_AT_type(*$C$DW$T$89)
    1670                    .dwattr $C$DW$T$90, DW_AT_language(DW_LANG_C)
    1671                    .dwattr $C$DW$T$90, DW_AT_decl_file("C:/ti/ccs1110/ccs/tools/compiler/ti-cgt-msp430_21.6.1.LTS
    1672                    .dwattr $C$DW$T$90, DW_AT_decl_line(0x2f)
    1673                    .dwattr $C$DW$T$90, DW_AT_decl_column(0x13)
    1674            
    1675            $C$DW$T$91      .dwtag  DW_TAG_typedef
    1676                    .dwattr $C$DW$T$91, DW_AT_name("__clockid_t")
    1677                    .dwattr $C$DW$T$91, DW_AT_type(*$C$DW$T$89)
    1678                    .dwattr $C$DW$T$91, DW_AT_language(DW_LANG_C)
    1679                    .dwattr $C$DW$T$91, DW_AT_decl_file("C:/ti/ccs1110/ccs/tools/compiler/ti-cgt-msp430_21.6.1.LTS
    1680                    .dwattr $C$DW$T$91, DW_AT_decl_line(0x31)
    1681                    .dwattr $C$DW$T$91, DW_AT_decl_column(0x13)
    1682            
    1683            $C$DW$T$92      .dwtag  DW_TAG_typedef
    1684                    .dwattr $C$DW$T$92, DW_AT_name("__critical_t")
    1685                    .dwattr $C$DW$T$92, DW_AT_type(*$C$DW$T$89)
    1686                    .dwattr $C$DW$T$92, DW_AT_language(DW_LANG_C)
    1687                    .dwattr $C$DW$T$92, DW_AT_decl_file("C:/ti/ccs1110/ccs/tools/compiler/ti-cgt-msp430_21.6.1.LTS
    1688                    .dwattr $C$DW$T$92, DW_AT_decl_line(0x4b)
    1689                    .dwattr $C$DW$T$92, DW_AT_decl_column(0x13)
    1690            
    1691            $C$DW$T$93      .dwtag  DW_TAG_typedef
    1692                    .dwattr $C$DW$T$93, DW_AT_name("__int_fast32_t")
    1693                    .dwattr $C$DW$T$93, DW_AT_type(*$C$DW$T$89)
    1694                    .dwattr $C$DW$T$93, DW_AT_language(DW_LANG_C)
    1695                    .dwattr $C$DW$T$93, DW_AT_decl_file("C:/ti/ccs1110/ccs/tools/compiler/ti-cgt-msp430_21.6.1.LTS
    1696                    .dwattr $C$DW$T$93, DW_AT_decl_line(0x58)
    1697                    .dwattr $C$DW$T$93, DW_AT_decl_column(0x13)
    1698            
    1699            $C$DW$T$94      .dwtag  DW_TAG_typedef
    1700                    .dwattr $C$DW$T$94, DW_AT_name("int_fast32_t")
    1701                    .dwattr $C$DW$T$94, DW_AT_type(*$C$DW$T$93)
    1702                    .dwattr $C$DW$T$94, DW_AT_language(DW_LANG_C)
    1703                    .dwattr $C$DW$T$94, DW_AT_decl_file("C:/ti/ccs1110/ccs/tools/compiler/ti-cgt-msp430_21.6.1.LTS
    1704                    .dwattr $C$DW$T$94, DW_AT_decl_line(0x36)
    1705                    .dwattr $C$DW$T$94, DW_AT_decl_column(0x19)
    1706            
    1707            $C$DW$T$95      .dwtag  DW_TAG_typedef
    1708                    .dwattr $C$DW$T$95, DW_AT_name("__int_least32_t")
    1709                    .dwattr $C$DW$T$95, DW_AT_type(*$C$DW$T$89)
    1710                    .dwattr $C$DW$T$95, DW_AT_language(DW_LANG_C)
    1711                    .dwattr $C$DW$T$95, DW_AT_decl_file("C:/ti/ccs1110/ccs/tools/compiler/ti-cgt-msp430_21.6.1.LTS
    1712                    .dwattr $C$DW$T$95, DW_AT_decl_line(0x5c)
    1713                    .dwattr $C$DW$T$95, DW_AT_decl_column(0x13)
    1714            
    1715            $C$DW$T$96      .dwtag  DW_TAG_typedef
    1716                    .dwattr $C$DW$T$96, DW_AT_name("int_least32_t")
    1717                    .dwattr $C$DW$T$96, DW_AT_type(*$C$DW$T$95)
    1718                    .dwattr $C$DW$T$96, DW_AT_language(DW_LANG_C)
    1719                    .dwattr $C$DW$T$96, DW_AT_decl_file("C:/ti/ccs1110/ccs/tools/compiler/ti-cgt-msp430_21.6.1.LTS
    1720                    .dwattr $C$DW$T$96, DW_AT_decl_line(0x2c)
    1721                    .dwattr $C$DW$T$96, DW_AT_decl_column(0x1a)
    1722            
MSP430 Assembler PC v21.6.1 Tue Dec 20 13:45:48 2022

Copyright (c) 2003-2018 Texas Instruments Incorporated
mpy32.asm                                                            PAGE   33

    1723            $C$DW$T$97      .dwtag  DW_TAG_typedef
    1724                    .dwattr $C$DW$T$97, DW_AT_name("__intfptr_t")
    1725                    .dwattr $C$DW$T$97, DW_AT_type(*$C$DW$T$89)
    1726                    .dwattr $C$DW$T$97, DW_AT_language(DW_LANG_C)
    1727                    .dwattr $C$DW$T$97, DW_AT_decl_file("C:/ti/ccs1110/ccs/tools/compiler/ti-cgt-msp430_21.6.1.LTS
    1728                    .dwattr $C$DW$T$97, DW_AT_decl_line(0x4e)
    1729                    .dwattr $C$DW$T$97, DW_AT_decl_column(0x13)
    1730            
    1731            $C$DW$T$98      .dwtag  DW_TAG_typedef
    1732                    .dwattr $C$DW$T$98, DW_AT_name("__intptr_t")
    1733                    .dwattr $C$DW$T$98, DW_AT_type(*$C$DW$T$89)
    1734                    .dwattr $C$DW$T$98, DW_AT_language(DW_LANG_C)
    1735                    .dwattr $C$DW$T$98, DW_AT_decl_file("C:/ti/ccs1110/ccs/tools/compiler/ti-cgt-msp430_21.6.1.LTS
    1736                    .dwattr $C$DW$T$98, DW_AT_decl_line(0x51)
    1737                    .dwattr $C$DW$T$98, DW_AT_decl_column(0x13)
    1738            
    1739            $C$DW$T$99      .dwtag  DW_TAG_typedef
    1740                    .dwattr $C$DW$T$99, DW_AT_name("intptr_t")
    1741                    .dwattr $C$DW$T$99, DW_AT_type(*$C$DW$T$98)
    1742                    .dwattr $C$DW$T$99, DW_AT_language(DW_LANG_C)
    1743                    .dwattr $C$DW$T$99, DW_AT_decl_file("C:/ti/ccs1110/ccs/tools/compiler/ti-cgt-msp430_21.6.1.LTS
    1744                    .dwattr $C$DW$T$99, DW_AT_decl_line(0x50)
    1745                    .dwattr $C$DW$T$99, DW_AT_decl_column(0x15)
    1746            
    1747            $C$DW$T$100     .dwtag  DW_TAG_typedef
    1748                    .dwattr $C$DW$T$100, DW_AT_name("__lwpid_t")
    1749                    .dwattr $C$DW$T$100, DW_AT_type(*$C$DW$T$89)
    1750                    .dwattr $C$DW$T$100, DW_AT_language(DW_LANG_C)
    1751                    .dwattr $C$DW$T$100, DW_AT_decl_file("C:/ti/ccs1110/ccs/tools/compiler/ti-cgt-msp430_21.6.1.LT
    1752                    .dwattr $C$DW$T$100, DW_AT_decl_line(0x39)
    1753                    .dwattr $C$DW$T$100, DW_AT_decl_column(0x13)
    1754            
    1755            $C$DW$T$101     .dwtag  DW_TAG_typedef
    1756                    .dwattr $C$DW$T$101, DW_AT_name("__pid_t")
    1757                    .dwattr $C$DW$T$101, DW_AT_type(*$C$DW$T$89)
    1758                    .dwattr $C$DW$T$101, DW_AT_language(DW_LANG_C)
    1759                    .dwattr $C$DW$T$101, DW_AT_decl_file("C:/ti/ccs1110/ccs/tools/compiler/ti-cgt-msp430_21.6.1.LT
    1760                    .dwattr $C$DW$T$101, DW_AT_decl_line(0x40)
    1761                    .dwattr $C$DW$T$101, DW_AT_decl_column(0x13)
    1762            
    1763            $C$DW$T$102     .dwtag  DW_TAG_typedef
    1764                    .dwattr $C$DW$T$102, DW_AT_name("__segsz_t")
    1765                    .dwattr $C$DW$T$102, DW_AT_type(*$C$DW$T$89)
    1766                    .dwattr $C$DW$T$102, DW_AT_language(DW_LANG_C)
    1767                    .dwattr $C$DW$T$102, DW_AT_decl_file("C:/ti/ccs1110/ccs/tools/compiler/ti-cgt-msp430_21.6.1.LT
    1768                    .dwattr $C$DW$T$102, DW_AT_decl_line(0x60)
    1769                    .dwattr $C$DW$T$102, DW_AT_decl_column(0x13)
    1770            
    1771            $C$DW$T$103     .dwtag  DW_TAG_typedef
    1772                    .dwattr $C$DW$T$103, DW_AT_name("__ssize_t")
    1773                    .dwattr $C$DW$T$103, DW_AT_type(*$C$DW$T$89)
    1774                    .dwattr $C$DW$T$103, DW_AT_language(DW_LANG_C)
    1775                    .dwattr $C$DW$T$103, DW_AT_decl_file("C:/ti/ccs1110/ccs/tools/compiler/ti-cgt-msp430_21.6.1.LT
    1776                    .dwattr $C$DW$T$103, DW_AT_decl_line(0x62)
    1777                    .dwattr $C$DW$T$103, DW_AT_decl_column(0x13)
MSP430 Assembler PC v21.6.1 Tue Dec 20 13:45:48 2022

Copyright (c) 2003-2018 Texas Instruments Incorporated
mpy32.asm                                                            PAGE   34

    1778            
    1779            $C$DW$T$104     .dwtag  DW_TAG_typedef
    1780                    .dwattr $C$DW$T$104, DW_AT_name("int32_t")
    1781                    .dwattr $C$DW$T$104, DW_AT_type(*$C$DW$T$89)
    1782                    .dwattr $C$DW$T$104, DW_AT_language(DW_LANG_C)
    1783                    .dwattr $C$DW$T$104, DW_AT_decl_file("C:/ti/ccs1110/ccs/tools/compiler/ti-cgt-msp430_21.6.1.LT
    1784                    .dwattr $C$DW$T$104, DW_AT_decl_line(0x30)
    1785                    .dwattr $C$DW$T$104, DW_AT_decl_column(0x14)
    1786            
    1787            $C$DW$T$105     .dwtag  DW_TAG_typedef
    1788                    .dwattr $C$DW$T$105, DW_AT_name("__key_t")
    1789                    .dwattr $C$DW$T$105, DW_AT_type(*$C$DW$T$12)
    1790                    .dwattr $C$DW$T$105, DW_AT_language(DW_LANG_C)
    1791                    .dwattr $C$DW$T$105, DW_AT_decl_file("C:/ti/ccs1110/ccs/tools/compiler/ti-cgt-msp430_21.6.1.LT
    1792                    .dwattr $C$DW$T$105, DW_AT_decl_line(0x38)
    1793                    .dwattr $C$DW$T$105, DW_AT_decl_column(0x0f)
    1794            
    1795            $C$DW$T$106     .dwtag  DW_TAG_typedef
    1796                    .dwattr $C$DW$T$106, DW_AT_name("__suseconds_t")
    1797                    .dwattr $C$DW$T$106, DW_AT_type(*$C$DW$T$12)
    1798                    .dwattr $C$DW$T$106, DW_AT_language(DW_LANG_C)
    1799                    .dwattr $C$DW$T$106, DW_AT_decl_file("C:/ti/ccs1110/ccs/tools/compiler/ti-cgt-msp430_21.6.1.LT
    1800                    .dwattr $C$DW$T$106, DW_AT_decl_line(0x4a)
    1801                    .dwattr $C$DW$T$106, DW_AT_decl_column(0x0f)
    1802            
    1803            $C$DW$T$107     .dwtag  DW_TAG_typedef
    1804                    .dwattr $C$DW$T$107, DW_AT_name("_off_t")
    1805                    .dwattr $C$DW$T$107, DW_AT_type(*$C$DW$T$12)
    1806                    .dwattr $C$DW$T$107, DW_AT_language(DW_LANG_C)
    1807                    .dwattr $C$DW$T$107, DW_AT_decl_file("C:/ti/ccs1110/ccs/tools/compiler/ti-cgt-msp430_21.6.1.LT
    1808                    .dwattr $C$DW$T$107, DW_AT_decl_line(0x8d)
    1809                    .dwattr $C$DW$T$107, DW_AT_decl_column(0x12)
    1810            
    1811            $C$DW$T$108     .dwtag  DW_TAG_typedef
    1812                    .dwattr $C$DW$T$108, DW_AT_name("__off_t")
    1813                    .dwattr $C$DW$T$108, DW_AT_type(*$C$DW$T$107)
    1814                    .dwattr $C$DW$T$108, DW_AT_language(DW_LANG_C)
    1815                    .dwattr $C$DW$T$108, DW_AT_decl_file("C:/ti/ccs1110/ccs/tools/compiler/ti-cgt-msp430_21.6.1.LT
    1816                    .dwattr $C$DW$T$108, DW_AT_decl_line(0x3e)
    1817                    .dwattr $C$DW$T$108, DW_AT_decl_column(0x18)
    1818            
    1819            $C$DW$T$13      .dwtag  DW_TAG_base_type
    1820                    .dwattr $C$DW$T$13, DW_AT_encoding(DW_ATE_unsigned)
    1821                    .dwattr $C$DW$T$13, DW_AT_name("unsigned long")
    1822                    .dwattr $C$DW$T$13, DW_AT_byte_size(0x04)
    1823            
    1824            $C$DW$T$31      .dwtag  DW_TAG_typedef
    1825                    .dwattr $C$DW$T$31, DW_AT_name("__uint32_t")
    1826                    .dwattr $C$DW$T$31, DW_AT_type(*$C$DW$T$13)
    1827                    .dwattr $C$DW$T$31, DW_AT_language(DW_LANG_C)
    1828                    .dwattr $C$DW$T$31, DW_AT_decl_file("C:/ti/ccs1110/ccs/tools/compiler/ti-cgt-msp430_21.6.1.LTS
    1829                    .dwattr $C$DW$T$31, DW_AT_decl_line(0x3b)
    1830                    .dwattr $C$DW$T$31, DW_AT_decl_column(0x18)
    1831            
    1832            $C$DW$T$109     .dwtag  DW_TAG_typedef
MSP430 Assembler PC v21.6.1 Tue Dec 20 13:45:48 2022

Copyright (c) 2003-2018 Texas Instruments Incorporated
mpy32.asm                                                            PAGE   35

    1833                    .dwattr $C$DW$T$109, DW_AT_name("__clock_t")
    1834                    .dwattr $C$DW$T$109, DW_AT_type(*$C$DW$T$31)
    1835                    .dwattr $C$DW$T$109, DW_AT_language(DW_LANG_C)
    1836                    .dwattr $C$DW$T$109, DW_AT_decl_file("C:/ti/ccs1110/ccs/tools/compiler/ti-cgt-msp430_21.6.1.LT
    1837                    .dwattr $C$DW$T$109, DW_AT_decl_line(0x4a)
    1838                    .dwattr $C$DW$T$109, DW_AT_decl_column(0x14)
    1839            
    1840            $C$DW$T$110     .dwtag  DW_TAG_typedef
    1841                    .dwattr $C$DW$T$110, DW_AT_name("__fflags_t")
    1842                    .dwattr $C$DW$T$110, DW_AT_type(*$C$DW$T$31)
    1843                    .dwattr $C$DW$T$110, DW_AT_language(DW_LANG_C)
    1844                    .dwattr $C$DW$T$110, DW_AT_decl_file("C:/ti/ccs1110/ccs/tools/compiler/ti-cgt-msp430_21.6.1.LT
    1845                    .dwattr $C$DW$T$110, DW_AT_decl_line(0x32)
    1846                    .dwattr $C$DW$T$110, DW_AT_decl_column(0x14)
    1847            
    1848            $C$DW$T$111     .dwtag  DW_TAG_typedef
    1849                    .dwattr $C$DW$T$111, DW_AT_name("__fixpt_t")
    1850                    .dwattr $C$DW$T$111, DW_AT_type(*$C$DW$T$31)
    1851                    .dwattr $C$DW$T$111, DW_AT_language(DW_LANG_C)
    1852                    .dwattr $C$DW$T$111, DW_AT_decl_file("C:/ti/ccs1110/ccs/tools/compiler/ti-cgt-msp430_21.6.1.LT
    1853                    .dwattr $C$DW$T$111, DW_AT_decl_line(0x81)
    1854                    .dwattr $C$DW$T$111, DW_AT_decl_column(0x14)
    1855            
    1856            $C$DW$T$112     .dwtag  DW_TAG_typedef
    1857                    .dwattr $C$DW$T$112, DW_AT_name("__gid_t")
    1858                    .dwattr $C$DW$T$112, DW_AT_type(*$C$DW$T$31)
    1859                    .dwattr $C$DW$T$112, DW_AT_language(DW_LANG_C)
    1860                    .dwattr $C$DW$T$112, DW_AT_decl_file("C:/ti/ccs1110/ccs/tools/compiler/ti-cgt-msp430_21.6.1.LT
    1861                    .dwattr $C$DW$T$112, DW_AT_decl_line(0x35)
    1862                    .dwattr $C$DW$T$112, DW_AT_decl_column(0x14)
    1863            
    1864            $C$DW$T$113     .dwtag  DW_TAG_typedef
    1865                    .dwattr $C$DW$T$113, DW_AT_name("__socklen_t")
    1866                    .dwattr $C$DW$T$113, DW_AT_type(*$C$DW$T$31)
    1867                    .dwattr $C$DW$T$113, DW_AT_language(DW_LANG_C)
    1868                    .dwattr $C$DW$T$113, DW_AT_decl_file("C:/ti/ccs1110/ccs/tools/compiler/ti-cgt-msp430_21.6.1.LT
    1869                    .dwattr $C$DW$T$113, DW_AT_decl_line(0x49)
    1870                    .dwattr $C$DW$T$113, DW_AT_decl_column(0x14)
    1871            
    1872            $C$DW$T$114     .dwtag  DW_TAG_typedef
    1873                    .dwattr $C$DW$T$114, DW_AT_name("__time_t")
    1874                    .dwattr $C$DW$T$114, DW_AT_type(*$C$DW$T$31)
    1875                    .dwattr $C$DW$T$114, DW_AT_language(DW_LANG_C)
    1876                    .dwattr $C$DW$T$114, DW_AT_decl_file("C:/ti/ccs1110/ccs/tools/compiler/ti-cgt-msp430_21.6.1.LT
    1877                    .dwattr $C$DW$T$114, DW_AT_decl_line(0x66)
    1878                    .dwattr $C$DW$T$114, DW_AT_decl_column(0x19)
    1879            
    1880            $C$DW$T$115     .dwtag  DW_TAG_typedef
    1881                    .dwattr $C$DW$T$115, DW_AT_name("__uid_t")
    1882                    .dwattr $C$DW$T$115, DW_AT_type(*$C$DW$T$31)
    1883                    .dwattr $C$DW$T$115, DW_AT_language(DW_LANG_C)
    1884                    .dwattr $C$DW$T$115, DW_AT_decl_file("C:/ti/ccs1110/ccs/tools/compiler/ti-cgt-msp430_21.6.1.LT
    1885                    .dwattr $C$DW$T$115, DW_AT_decl_line(0x4d)
    1886                    .dwattr $C$DW$T$115, DW_AT_decl_column(0x14)
    1887            
MSP430 Assembler PC v21.6.1 Tue Dec 20 13:45:48 2022

Copyright (c) 2003-2018 Texas Instruments Incorporated
mpy32.asm                                                            PAGE   36

    1888            $C$DW$T$116     .dwtag  DW_TAG_typedef
    1889                    .dwattr $C$DW$T$116, DW_AT_name("__uint_fast32_t")
    1890                    .dwattr $C$DW$T$116, DW_AT_type(*$C$DW$T$31)
    1891                    .dwattr $C$DW$T$116, DW_AT_language(DW_LANG_C)
    1892                    .dwattr $C$DW$T$116, DW_AT_decl_file("C:/ti/ccs1110/ccs/tools/compiler/ti-cgt-msp430_21.6.1.LT
    1893                    .dwattr $C$DW$T$116, DW_AT_decl_line(0x72)
    1894                    .dwattr $C$DW$T$116, DW_AT_decl_column(0x14)
    1895            
    1896            $C$DW$T$117     .dwtag  DW_TAG_typedef
    1897                    .dwattr $C$DW$T$117, DW_AT_name("uint_fast32_t")
    1898                    .dwattr $C$DW$T$117, DW_AT_type(*$C$DW$T$116)
    1899                    .dwattr $C$DW$T$117, DW_AT_language(DW_LANG_C)
    1900                    .dwattr $C$DW$T$117, DW_AT_decl_file("C:/ti/ccs1110/ccs/tools/compiler/ti-cgt-msp430_21.6.1.LT
    1901                    .dwattr $C$DW$T$117, DW_AT_decl_line(0x3b)
    1902                    .dwattr $C$DW$T$117, DW_AT_decl_column(0x1a)
    1903            
    1904            $C$DW$T$118     .dwtag  DW_TAG_typedef
    1905                    .dwattr $C$DW$T$118, DW_AT_name("__uint_least32_t")
    1906                    .dwattr $C$DW$T$118, DW_AT_type(*$C$DW$T$31)
    1907                    .dwattr $C$DW$T$118, DW_AT_language(DW_LANG_C)
    1908                    .dwattr $C$DW$T$118, DW_AT_decl_file("C:/ti/ccs1110/ccs/tools/compiler/ti-cgt-msp430_21.6.1.LT
    1909                    .dwattr $C$DW$T$118, DW_AT_decl_line(0x76)
    1910                    .dwattr $C$DW$T$118, DW_AT_decl_column(0x14)
    1911            
    1912            $C$DW$T$119     .dwtag  DW_TAG_typedef
    1913                    .dwattr $C$DW$T$119, DW_AT_name("__char32_t")
    1914                    .dwattr $C$DW$T$119, DW_AT_type(*$C$DW$T$118)
    1915                    .dwattr $C$DW$T$119, DW_AT_language(DW_LANG_C)
    1916                    .dwattr $C$DW$T$119, DW_AT_decl_file("C:/ti/ccs1110/ccs/tools/compiler/ti-cgt-msp430_21.6.1.LT
    1917                    .dwattr $C$DW$T$119, DW_AT_decl_line(0x72)
    1918                    .dwattr $C$DW$T$119, DW_AT_decl_column(0x1a)
    1919            
    1920            $C$DW$T$120     .dwtag  DW_TAG_typedef
    1921                    .dwattr $C$DW$T$120, DW_AT_name("uint_least32_t")
    1922                    .dwattr $C$DW$T$120, DW_AT_type(*$C$DW$T$118)
    1923                    .dwattr $C$DW$T$120, DW_AT_language(DW_LANG_C)
    1924                    .dwattr $C$DW$T$120, DW_AT_decl_file("C:/ti/ccs1110/ccs/tools/compiler/ti-cgt-msp430_21.6.1.LT
    1925                    .dwattr $C$DW$T$120, DW_AT_decl_line(0x31)
    1926                    .dwattr $C$DW$T$120, DW_AT_decl_column(0x1a)
    1927            
    1928            $C$DW$T$121     .dwtag  DW_TAG_typedef
    1929                    .dwattr $C$DW$T$121, DW_AT_name("__uintfptr_t")
    1930                    .dwattr $C$DW$T$121, DW_AT_type(*$C$DW$T$31)
    1931                    .dwattr $C$DW$T$121, DW_AT_language(DW_LANG_C)
    1932                    .dwattr $C$DW$T$121, DW_AT_decl_file("C:/ti/ccs1110/ccs/tools/compiler/ti-cgt-msp430_21.6.1.LT
    1933                    .dwattr $C$DW$T$121, DW_AT_decl_line(0x68)
    1934                    .dwattr $C$DW$T$121, DW_AT_decl_column(0x14)
    1935            
    1936            $C$DW$T$122     .dwtag  DW_TAG_typedef
    1937                    .dwattr $C$DW$T$122, DW_AT_name("__uintptr_t")
    1938                    .dwattr $C$DW$T$122, DW_AT_type(*$C$DW$T$31)
    1939                    .dwattr $C$DW$T$122, DW_AT_language(DW_LANG_C)
    1940                    .dwattr $C$DW$T$122, DW_AT_decl_file("C:/ti/ccs1110/ccs/tools/compiler/ti-cgt-msp430_21.6.1.LT
    1941                    .dwattr $C$DW$T$122, DW_AT_decl_line(0x6b)
    1942                    .dwattr $C$DW$T$122, DW_AT_decl_column(0x14)
MSP430 Assembler PC v21.6.1 Tue Dec 20 13:45:48 2022

Copyright (c) 2003-2018 Texas Instruments Incorporated
mpy32.asm                                                            PAGE   37

    1943            
    1944            $C$DW$T$123     .dwtag  DW_TAG_typedef
    1945                    .dwattr $C$DW$T$123, DW_AT_name("uintptr_t")
    1946                    .dwattr $C$DW$T$123, DW_AT_type(*$C$DW$T$122)
    1947                    .dwattr $C$DW$T$123, DW_AT_language(DW_LANG_C)
    1948                    .dwattr $C$DW$T$123, DW_AT_decl_file("C:/ti/ccs1110/ccs/tools/compiler/ti-cgt-msp430_21.6.1.LT
    1949                    .dwattr $C$DW$T$123, DW_AT_decl_line(0x54)
    1950                    .dwattr $C$DW$T$123, DW_AT_decl_column(0x16)
    1951            
    1952            $C$DW$T$124     .dwtag  DW_TAG_typedef
    1953                    .dwattr $C$DW$T$124, DW_AT_name("__vm_offset_t")
    1954                    .dwattr $C$DW$T$124, DW_AT_type(*$C$DW$T$31)
    1955                    .dwattr $C$DW$T$124, DW_AT_language(DW_LANG_C)
    1956                    .dwattr $C$DW$T$124, DW_AT_decl_file("C:/ti/ccs1110/ccs/tools/compiler/ti-cgt-msp430_21.6.1.LT
    1957                    .dwattr $C$DW$T$124, DW_AT_decl_line(0x79)
    1958                    .dwattr $C$DW$T$124, DW_AT_decl_column(0x14)
    1959            
    1960            $C$DW$T$125     .dwtag  DW_TAG_typedef
    1961                    .dwattr $C$DW$T$125, DW_AT_name("__vm_paddr_t")
    1962                    .dwattr $C$DW$T$125, DW_AT_type(*$C$DW$T$31)
    1963                    .dwattr $C$DW$T$125, DW_AT_language(DW_LANG_C)
    1964                    .dwattr $C$DW$T$125, DW_AT_decl_file("C:/ti/ccs1110/ccs/tools/compiler/ti-cgt-msp430_21.6.1.LT
    1965                    .dwattr $C$DW$T$125, DW_AT_decl_line(0x7a)
    1966                    .dwattr $C$DW$T$125, DW_AT_decl_column(0x14)
    1967            
    1968            $C$DW$T$126     .dwtag  DW_TAG_typedef
    1969                    .dwattr $C$DW$T$126, DW_AT_name("__vm_size_t")
    1970                    .dwattr $C$DW$T$126, DW_AT_type(*$C$DW$T$31)
    1971                    .dwattr $C$DW$T$126, DW_AT_language(DW_LANG_C)
    1972                    .dwattr $C$DW$T$126, DW_AT_decl_file("C:/ti/ccs1110/ccs/tools/compiler/ti-cgt-msp430_21.6.1.LT
    1973                    .dwattr $C$DW$T$126, DW_AT_decl_line(0x7b)
    1974                    .dwattr $C$DW$T$126, DW_AT_decl_column(0x14)
    1975            
    1976            $C$DW$T$32      .dwtag  DW_TAG_typedef
    1977                    .dwattr $C$DW$T$32, DW_AT_name("uint32_t")
    1978                    .dwattr $C$DW$T$32, DW_AT_type(*$C$DW$T$31)
    1979                    .dwattr $C$DW$T$32, DW_AT_language(DW_LANG_C)
    1980                    .dwattr $C$DW$T$32, DW_AT_decl_file("C:/ti/ccs1110/ccs/tools/compiler/ti-cgt-msp430_21.6.1.LTS
    1981                    .dwattr $C$DW$T$32, DW_AT_decl_line(0x46)
    1982                    .dwattr $C$DW$T$32, DW_AT_decl_column(0x15)
    1983            
    1984            $C$DW$T$14      .dwtag  DW_TAG_base_type
    1985                    .dwattr $C$DW$T$14, DW_AT_encoding(DW_ATE_signed)
    1986                    .dwattr $C$DW$T$14, DW_AT_name("long long")
    1987                    .dwattr $C$DW$T$14, DW_AT_byte_size(0x08)
    1988            
    1989            $C$DW$T$127     .dwtag  DW_TAG_typedef
    1990                    .dwattr $C$DW$T$127, DW_AT_name("__int64_t")
    1991                    .dwattr $C$DW$T$127, DW_AT_type(*$C$DW$T$14)
    1992                    .dwattr $C$DW$T$127, DW_AT_language(DW_LANG_C)
    1993                    .dwattr $C$DW$T$127, DW_AT_decl_file("C:/ti/ccs1110/ccs/tools/compiler/ti-cgt-msp430_21.6.1.LT
    1994                    .dwattr $C$DW$T$127, DW_AT_decl_line(0x40)
    1995                    .dwattr $C$DW$T$127, DW_AT_decl_column(0x14)
    1996            
    1997            $C$DW$T$128     .dwtag  DW_TAG_typedef
MSP430 Assembler PC v21.6.1 Tue Dec 20 13:45:48 2022

Copyright (c) 2003-2018 Texas Instruments Incorporated
mpy32.asm                                                            PAGE   38

    1998                    .dwattr $C$DW$T$128, DW_AT_name("__blkcnt_t")
    1999                    .dwattr $C$DW$T$128, DW_AT_type(*$C$DW$T$127)
    2000                    .dwattr $C$DW$T$128, DW_AT_language(DW_LANG_C)
    2001                    .dwattr $C$DW$T$128, DW_AT_decl_file("C:/ti/ccs1110/ccs/tools/compiler/ti-cgt-msp430_21.6.1.LT
    2002                    .dwattr $C$DW$T$128, DW_AT_decl_line(0x30)
    2003                    .dwattr $C$DW$T$128, DW_AT_decl_column(0x13)
    2004            
    2005            $C$DW$T$129     .dwtag  DW_TAG_typedef
    2006                    .dwattr $C$DW$T$129, DW_AT_name("__id_t")
    2007                    .dwattr $C$DW$T$129, DW_AT_type(*$C$DW$T$127)
    2008                    .dwattr $C$DW$T$129, DW_AT_language(DW_LANG_C)
    2009                    .dwattr $C$DW$T$129, DW_AT_decl_file("C:/ti/ccs1110/ccs/tools/compiler/ti-cgt-msp430_21.6.1.LT
    2010                    .dwattr $C$DW$T$129, DW_AT_decl_line(0x36)
    2011                    .dwattr $C$DW$T$129, DW_AT_decl_column(0x13)
    2012            
    2013            $C$DW$T$130     .dwtag  DW_TAG_typedef
    2014                    .dwattr $C$DW$T$130, DW_AT_name("__int_fast64_t")
    2015                    .dwattr $C$DW$T$130, DW_AT_type(*$C$DW$T$127)
    2016                    .dwattr $C$DW$T$130, DW_AT_language(DW_LANG_C)
    2017                    .dwattr $C$DW$T$130, DW_AT_decl_file("C:/ti/ccs1110/ccs/tools/compiler/ti-cgt-msp430_21.6.1.LT
    2018                    .dwattr $C$DW$T$130, DW_AT_decl_line(0x59)
    2019                    .dwattr $C$DW$T$130, DW_AT_decl_column(0x13)
    2020            
    2021            $C$DW$T$131     .dwtag  DW_TAG_typedef
    2022                    .dwattr $C$DW$T$131, DW_AT_name("int_fast64_t")
    2023                    .dwattr $C$DW$T$131, DW_AT_type(*$C$DW$T$130)
    2024                    .dwattr $C$DW$T$131, DW_AT_language(DW_LANG_C)
    2025                    .dwattr $C$DW$T$131, DW_AT_decl_file("C:/ti/ccs1110/ccs/tools/compiler/ti-cgt-msp430_21.6.1.LT
    2026                    .dwattr $C$DW$T$131, DW_AT_decl_line(0x37)
    2027                    .dwattr $C$DW$T$131, DW_AT_decl_column(0x19)
    2028            
    2029            $C$DW$T$132     .dwtag  DW_TAG_typedef
    2030                    .dwattr $C$DW$T$132, DW_AT_name("__int_least64_t")
    2031                    .dwattr $C$DW$T$132, DW_AT_type(*$C$DW$T$127)
    2032                    .dwattr $C$DW$T$132, DW_AT_language(DW_LANG_C)
    2033                    .dwattr $C$DW$T$132, DW_AT_decl_file("C:/ti/ccs1110/ccs/tools/compiler/ti-cgt-msp430_21.6.1.LT
    2034                    .dwattr $C$DW$T$132, DW_AT_decl_line(0x5d)
    2035                    .dwattr $C$DW$T$132, DW_AT_decl_column(0x13)
    2036            
    2037            $C$DW$T$133     .dwtag  DW_TAG_typedef
    2038                    .dwattr $C$DW$T$133, DW_AT_name("int_least64_t")
    2039                    .dwattr $C$DW$T$133, DW_AT_type(*$C$DW$T$132)
    2040                    .dwattr $C$DW$T$133, DW_AT_language(DW_LANG_C)
    2041                    .dwattr $C$DW$T$133, DW_AT_decl_file("C:/ti/ccs1110/ccs/tools/compiler/ti-cgt-msp430_21.6.1.LT
    2042                    .dwattr $C$DW$T$133, DW_AT_decl_line(0x2d)
    2043                    .dwattr $C$DW$T$133, DW_AT_decl_column(0x1a)
    2044            
    2045            $C$DW$T$134     .dwtag  DW_TAG_typedef
    2046                    .dwattr $C$DW$T$134, DW_AT_name("__intmax_t")
    2047                    .dwattr $C$DW$T$134, DW_AT_type(*$C$DW$T$127)
    2048                    .dwattr $C$DW$T$134, DW_AT_language(DW_LANG_C)
    2049                    .dwattr $C$DW$T$134, DW_AT_decl_file("C:/ti/ccs1110/ccs/tools/compiler/ti-cgt-msp430_21.6.1.LT
    2050                    .dwattr $C$DW$T$134, DW_AT_decl_line(0x4f)
    2051                    .dwattr $C$DW$T$134, DW_AT_decl_column(0x13)
    2052            
MSP430 Assembler PC v21.6.1 Tue Dec 20 13:45:48 2022

Copyright (c) 2003-2018 Texas Instruments Incorporated
mpy32.asm                                                            PAGE   39

    2053            $C$DW$T$135     .dwtag  DW_TAG_typedef
    2054                    .dwattr $C$DW$T$135, DW_AT_name("intmax_t")
    2055                    .dwattr $C$DW$T$135, DW_AT_type(*$C$DW$T$134)
    2056                    .dwattr $C$DW$T$135, DW_AT_language(DW_LANG_C)
    2057                    .dwattr $C$DW$T$135, DW_AT_decl_file("C:/ti/ccs1110/ccs/tools/compiler/ti-cgt-msp430_21.6.1.LT
    2058                    .dwattr $C$DW$T$135, DW_AT_decl_line(0x58)
    2059                    .dwattr $C$DW$T$135, DW_AT_decl_column(0x15)
    2060            
    2061            $C$DW$T$136     .dwtag  DW_TAG_typedef
    2062                    .dwattr $C$DW$T$136, DW_AT_name("__off64_t")
    2063                    .dwattr $C$DW$T$136, DW_AT_type(*$C$DW$T$127)
    2064                    .dwattr $C$DW$T$136, DW_AT_language(DW_LANG_C)
    2065                    .dwattr $C$DW$T$136, DW_AT_decl_file("C:/ti/ccs1110/ccs/tools/compiler/ti-cgt-msp430_21.6.1.LT
    2066                    .dwattr $C$DW$T$136, DW_AT_decl_line(0x3f)
    2067                    .dwattr $C$DW$T$136, DW_AT_decl_column(0x13)
    2068            
    2069            $C$DW$T$137     .dwtag  DW_TAG_typedef
    2070                    .dwattr $C$DW$T$137, DW_AT_name("__rlim_t")
    2071                    .dwattr $C$DW$T$137, DW_AT_type(*$C$DW$T$127)
    2072                    .dwattr $C$DW$T$137, DW_AT_language(DW_LANG_C)
    2073                    .dwattr $C$DW$T$137, DW_AT_decl_file("C:/ti/ccs1110/ccs/tools/compiler/ti-cgt-msp430_21.6.1.LT
    2074                    .dwattr $C$DW$T$137, DW_AT_decl_line(0x41)
    2075                    .dwattr $C$DW$T$137, DW_AT_decl_column(0x13)
    2076            
    2077            $C$DW$T$138     .dwtag  DW_TAG_typedef
    2078                    .dwattr $C$DW$T$138, DW_AT_name("int64_t")
    2079                    .dwattr $C$DW$T$138, DW_AT_type(*$C$DW$T$127)
    2080                    .dwattr $C$DW$T$138, DW_AT_language(DW_LANG_C)
    2081                    .dwattr $C$DW$T$138, DW_AT_decl_file("C:/ti/ccs1110/ccs/tools/compiler/ti-cgt-msp430_21.6.1.LT
    2082                    .dwattr $C$DW$T$138, DW_AT_decl_line(0x35)
    2083                    .dwattr $C$DW$T$138, DW_AT_decl_column(0x14)
    2084            
    2085            $C$DW$T$15      .dwtag  DW_TAG_base_type
    2086                    .dwattr $C$DW$T$15, DW_AT_encoding(DW_ATE_unsigned)
    2087                    .dwattr $C$DW$T$15, DW_AT_name("unsigned long long")
    2088                    .dwattr $C$DW$T$15, DW_AT_byte_size(0x08)
    2089            
    2090            $C$DW$T$36      .dwtag  DW_TAG_typedef
    2091                    .dwattr $C$DW$T$36, DW_AT_name("__uint64_t")
    2092                    .dwattr $C$DW$T$36, DW_AT_type(*$C$DW$T$15)
    2093                    .dwattr $C$DW$T$36, DW_AT_language(DW_LANG_C)
    2094                    .dwattr $C$DW$T$36, DW_AT_decl_file("C:/ti/ccs1110/ccs/tools/compiler/ti-cgt-msp430_21.6.1.LTS
    2095                    .dwattr $C$DW$T$36, DW_AT_decl_line(0x45)
    2096                    .dwattr $C$DW$T$36, DW_AT_decl_column(0x1c)
    2097            
    2098            $C$DW$T$140     .dwtag  DW_TAG_typedef
    2099                    .dwattr $C$DW$T$140, DW_AT_name("__dev_t")
    2100                    .dwattr $C$DW$T$140, DW_AT_type(*$C$DW$T$36)
    2101                    .dwattr $C$DW$T$140, DW_AT_language(DW_LANG_C)
    2102                    .dwattr $C$DW$T$140, DW_AT_decl_file("C:/ti/ccs1110/ccs/tools/compiler/ti-cgt-msp430_21.6.1.LT
    2103                    .dwattr $C$DW$T$140, DW_AT_decl_line(0x7f)
    2104                    .dwattr $C$DW$T$140, DW_AT_decl_column(0x14)
    2105            
    2106            $C$DW$T$141     .dwtag  DW_TAG_typedef
    2107                    .dwattr $C$DW$T$141, DW_AT_name("__fsblkcnt_t")
MSP430 Assembler PC v21.6.1 Tue Dec 20 13:45:48 2022

Copyright (c) 2003-2018 Texas Instruments Incorporated
mpy32.asm                                                            PAGE   40

    2108                    .dwattr $C$DW$T$141, DW_AT_type(*$C$DW$T$36)
    2109                    .dwattr $C$DW$T$141, DW_AT_language(DW_LANG_C)
    2110                    .dwattr $C$DW$T$141, DW_AT_decl_file("C:/ti/ccs1110/ccs/tools/compiler/ti-cgt-msp430_21.6.1.LT
    2111                    .dwattr $C$DW$T$141, DW_AT_decl_line(0x33)
    2112                    .dwattr $C$DW$T$141, DW_AT_decl_column(0x14)
    2113            
    2114            $C$DW$T$142     .dwtag  DW_TAG_typedef
    2115                    .dwattr $C$DW$T$142, DW_AT_name("__fsfilcnt_t")
    2116                    .dwattr $C$DW$T$142, DW_AT_type(*$C$DW$T$36)
    2117                    .dwattr $C$DW$T$142, DW_AT_language(DW_LANG_C)
    2118                    .dwattr $C$DW$T$142, DW_AT_decl_file("C:/ti/ccs1110/ccs/tools/compiler/ti-cgt-msp430_21.6.1.LT
    2119                    .dwattr $C$DW$T$142, DW_AT_decl_line(0x34)
    2120                    .dwattr $C$DW$T$142, DW_AT_decl_column(0x14)
    2121            
    2122            $C$DW$T$143     .dwtag  DW_TAG_typedef
    2123                    .dwattr $C$DW$T$143, DW_AT_name("__ino_t")
    2124                    .dwattr $C$DW$T$143, DW_AT_type(*$C$DW$T$36)
    2125                    .dwattr $C$DW$T$143, DW_AT_language(DW_LANG_C)
    2126                    .dwattr $C$DW$T$143, DW_AT_decl_file("C:/ti/ccs1110/ccs/tools/compiler/ti-cgt-msp430_21.6.1.LT
    2127                    .dwattr $C$DW$T$143, DW_AT_decl_line(0x37)
    2128                    .dwattr $C$DW$T$143, DW_AT_decl_column(0x14)
    2129            
    2130            $C$DW$T$144     .dwtag  DW_TAG_typedef
    2131                    .dwattr $C$DW$T$144, DW_AT_name("__nlink_t")
    2132                    .dwattr $C$DW$T$144, DW_AT_type(*$C$DW$T$36)
    2133                    .dwattr $C$DW$T$144, DW_AT_language(DW_LANG_C)
    2134                    .dwattr $C$DW$T$144, DW_AT_decl_file("C:/ti/ccs1110/ccs/tools/compiler/ti-cgt-msp430_21.6.1.LT
    2135                    .dwattr $C$DW$T$144, DW_AT_decl_line(0x3d)
    2136                    .dwattr $C$DW$T$144, DW_AT_decl_column(0x14)
    2137            
    2138            $C$DW$T$145     .dwtag  DW_TAG_typedef
    2139                    .dwattr $C$DW$T$145, DW_AT_name("__uint_fast64_t")
    2140                    .dwattr $C$DW$T$145, DW_AT_type(*$C$DW$T$36)
    2141                    .dwattr $C$DW$T$145, DW_AT_language(DW_LANG_C)
    2142                    .dwattr $C$DW$T$145, DW_AT_decl_file("C:/ti/ccs1110/ccs/tools/compiler/ti-cgt-msp430_21.6.1.LT
    2143                    .dwattr $C$DW$T$145, DW_AT_decl_line(0x73)
    2144                    .dwattr $C$DW$T$145, DW_AT_decl_column(0x14)
    2145            
    2146            $C$DW$T$146     .dwtag  DW_TAG_typedef
    2147                    .dwattr $C$DW$T$146, DW_AT_name("uint_fast64_t")
    2148                    .dwattr $C$DW$T$146, DW_AT_type(*$C$DW$T$145)
    2149                    .dwattr $C$DW$T$146, DW_AT_language(DW_LANG_C)
    2150                    .dwattr $C$DW$T$146, DW_AT_decl_file("C:/ti/ccs1110/ccs/tools/compiler/ti-cgt-msp430_21.6.1.LT
    2151                    .dwattr $C$DW$T$146, DW_AT_decl_line(0x3c)
    2152                    .dwattr $C$DW$T$146, DW_AT_decl_column(0x1a)
    2153            
    2154            $C$DW$T$147     .dwtag  DW_TAG_typedef
    2155                    .dwattr $C$DW$T$147, DW_AT_name("__uint_least64_t")
    2156                    .dwattr $C$DW$T$147, DW_AT_type(*$C$DW$T$36)
    2157                    .dwattr $C$DW$T$147, DW_AT_language(DW_LANG_C)
    2158                    .dwattr $C$DW$T$147, DW_AT_decl_file("C:/ti/ccs1110/ccs/tools/compiler/ti-cgt-msp430_21.6.1.LT
    2159                    .dwattr $C$DW$T$147, DW_AT_decl_line(0x77)
    2160                    .dwattr $C$DW$T$147, DW_AT_decl_column(0x14)
    2161            
    2162            $C$DW$T$148     .dwtag  DW_TAG_typedef
MSP430 Assembler PC v21.6.1 Tue Dec 20 13:45:48 2022

Copyright (c) 2003-2018 Texas Instruments Incorporated
mpy32.asm                                                            PAGE   41

    2163                    .dwattr $C$DW$T$148, DW_AT_name("uint_least64_t")
    2164                    .dwattr $C$DW$T$148, DW_AT_type(*$C$DW$T$147)
    2165                    .dwattr $C$DW$T$148, DW_AT_language(DW_LANG_C)
    2166                    .dwattr $C$DW$T$148, DW_AT_decl_file("C:/ti/ccs1110/ccs/tools/compiler/ti-cgt-msp430_21.6.1.LT
    2167                    .dwattr $C$DW$T$148, DW_AT_decl_line(0x32)
    2168                    .dwattr $C$DW$T$148, DW_AT_decl_column(0x1a)
    2169            
    2170            $C$DW$T$149     .dwtag  DW_TAG_typedef
    2171                    .dwattr $C$DW$T$149, DW_AT_name("__uintmax_t")
    2172                    .dwattr $C$DW$T$149, DW_AT_type(*$C$DW$T$36)
    2173                    .dwattr $C$DW$T$149, DW_AT_language(DW_LANG_C)
    2174                    .dwattr $C$DW$T$149, DW_AT_decl_file("C:/ti/ccs1110/ccs/tools/compiler/ti-cgt-msp430_21.6.1.LT
    2175                    .dwattr $C$DW$T$149, DW_AT_decl_line(0x69)
    2176                    .dwattr $C$DW$T$149, DW_AT_decl_column(0x14)
    2177            
    2178            $C$DW$T$150     .dwtag  DW_TAG_typedef
    2179                    .dwattr $C$DW$T$150, DW_AT_name("__rman_res_t")
    2180                    .dwattr $C$DW$T$150, DW_AT_type(*$C$DW$T$149)
    2181                    .dwattr $C$DW$T$150, DW_AT_language(DW_LANG_C)
    2182                    .dwattr $C$DW$T$150, DW_AT_decl_file("C:/ti/ccs1110/ccs/tools/compiler/ti-cgt-msp430_21.6.1.LT
    2183                    .dwattr $C$DW$T$150, DW_AT_decl_line(0x9a)
    2184                    .dwattr $C$DW$T$150, DW_AT_decl_column(0x19)
    2185            
    2186            $C$DW$T$151     .dwtag  DW_TAG_typedef
    2187                    .dwattr $C$DW$T$151, DW_AT_name("uintmax_t")
    2188                    .dwattr $C$DW$T$151, DW_AT_type(*$C$DW$T$149)
    2189                    .dwattr $C$DW$T$151, DW_AT_language(DW_LANG_C)
    2190                    .dwattr $C$DW$T$151, DW_AT_decl_file("C:/ti/ccs1110/ccs/tools/compiler/ti-cgt-msp430_21.6.1.LT
    2191                    .dwattr $C$DW$T$151, DW_AT_decl_line(0x5c)
    2192                    .dwattr $C$DW$T$151, DW_AT_decl_column(0x16)
    2193            
    2194            $C$DW$T$37      .dwtag  DW_TAG_typedef
    2195                    .dwattr $C$DW$T$37, DW_AT_name("uint64_t")
    2196                    .dwattr $C$DW$T$37, DW_AT_type(*$C$DW$T$36)
    2197                    .dwattr $C$DW$T$37, DW_AT_language(DW_LANG_C)
    2198                    .dwattr $C$DW$T$37, DW_AT_decl_file("C:/ti/ccs1110/ccs/tools/compiler/ti-cgt-msp430_21.6.1.LTS
    2199                    .dwattr $C$DW$T$37, DW_AT_decl_line(0x4b)
    2200                    .dwattr $C$DW$T$37, DW_AT_decl_column(0x15)
    2201            
    2202            $C$DW$T$16      .dwtag  DW_TAG_base_type
    2203                    .dwattr $C$DW$T$16, DW_AT_encoding(DW_ATE_float)
    2204                    .dwattr $C$DW$T$16, DW_AT_name("float")
    2205                    .dwattr $C$DW$T$16, DW_AT_byte_size(0x04)
    2206            
    2207            $C$DW$T$153     .dwtag  DW_TAG_typedef
    2208                    .dwattr $C$DW$T$153, DW_AT_name("__float_t")
    2209                    .dwattr $C$DW$T$153, DW_AT_type(*$C$DW$T$16)
    2210                    .dwattr $C$DW$T$153, DW_AT_language(DW_LANG_C)
    2211                    .dwattr $C$DW$T$153, DW_AT_decl_file("C:/ti/ccs1110/ccs/tools/compiler/ti-cgt-msp430_21.6.1.LT
    2212                    .dwattr $C$DW$T$153, DW_AT_decl_line(0x4d)
    2213                    .dwattr $C$DW$T$153, DW_AT_decl_column(0x10)
    2214            
    2215            $C$DW$T$17      .dwtag  DW_TAG_base_type
    2216                    .dwattr $C$DW$T$17, DW_AT_encoding(DW_ATE_float)
    2217                    .dwattr $C$DW$T$17, DW_AT_name("double")
MSP430 Assembler PC v21.6.1 Tue Dec 20 13:45:48 2022

Copyright (c) 2003-2018 Texas Instruments Incorporated
mpy32.asm                                                            PAGE   42

    2218                    .dwattr $C$DW$T$17, DW_AT_byte_size(0x08)
    2219            
    2220            $C$DW$T$154     .dwtag  DW_TAG_typedef
    2221                    .dwattr $C$DW$T$154, DW_AT_name("__double_t")
    2222                    .dwattr $C$DW$T$154, DW_AT_type(*$C$DW$T$17)
    2223                    .dwattr $C$DW$T$154, DW_AT_language(DW_LANG_C)
    2224                    .dwattr $C$DW$T$154, DW_AT_decl_file("C:/ti/ccs1110/ccs/tools/compiler/ti-cgt-msp430_21.6.1.LT
    2225                    .dwattr $C$DW$T$154, DW_AT_decl_line(0x4c)
    2226                    .dwattr $C$DW$T$154, DW_AT_decl_column(0x11)
    2227            
    2228            $C$DW$T$18      .dwtag  DW_TAG_base_type
    2229                    .dwattr $C$DW$T$18, DW_AT_encoding(DW_ATE_float)
    2230                    .dwattr $C$DW$T$18, DW_AT_name("long double")
    2231                    .dwattr $C$DW$T$18, DW_AT_byte_size(0x08)
    2232            
    2233            $C$DW$T$156     .dwtag  DW_TAG_pointer_type
    2234                    .dwattr $C$DW$T$156, DW_AT_type(*$C$DW$T$6)
    2235                    .dwattr $C$DW$T$156, DW_AT_address_class(0x14)
    2236            
    2237            $C$DW$T$157     .dwtag  DW_TAG_typedef
    2238                    .dwattr $C$DW$T$157, DW_AT_name("__va_list")
    2239                    .dwattr $C$DW$T$157, DW_AT_type(*$C$DW$T$156)
    2240                    .dwattr $C$DW$T$157, DW_AT_language(DW_LANG_C)
    2241                    .dwattr $C$DW$T$157, DW_AT_decl_file("C:/ti/ccs1110/ccs/tools/compiler/ti-cgt-msp430_21.6.1.LT
    2242                    .dwattr $C$DW$T$157, DW_AT_decl_line(0x92)
    2243                    .dwattr $C$DW$T$157, DW_AT_decl_column(0x0f)
    2244            
    2245            
    2246            $C$DW$T$19      .dwtag  DW_TAG_structure_type
    2247                    .dwattr $C$DW$T$19, DW_AT_name("__mq")
    2248                    .dwattr $C$DW$T$19, DW_AT_declaration
    2249                    .dwattr $C$DW$T$19, DW_AT_decl_file("C:/ti/ccs1110/ccs/tools/compiler/ti-cgt-msp430_21.6.1.LTS
    2250                    .dwattr $C$DW$T$19, DW_AT_decl_line(0x4c)
    2251                    .dwattr $C$DW$T$19, DW_AT_decl_column(0x10)
    2252                    .dwendtag $C$DW$T$19
    2253            
    2254            $C$DW$T$158     .dwtag  DW_TAG_pointer_type
    2255                    .dwattr $C$DW$T$158, DW_AT_type(*$C$DW$T$19)
    2256                    .dwattr $C$DW$T$158, DW_AT_address_class(0x14)
    2257            
    2258            $C$DW$T$159     .dwtag  DW_TAG_typedef
    2259                    .dwattr $C$DW$T$159, DW_AT_name("__mqd_t")
    2260                    .dwattr $C$DW$T$159, DW_AT_type(*$C$DW$T$158)
    2261                    .dwattr $C$DW$T$159, DW_AT_language(DW_LANG_C)
    2262                    .dwattr $C$DW$T$159, DW_AT_decl_file("C:/ti/ccs1110/ccs/tools/compiler/ti-cgt-msp430_21.6.1.LT
    2263                    .dwattr $C$DW$T$159, DW_AT_decl_line(0x4c)
    2264                    .dwattr $C$DW$T$159, DW_AT_decl_column(0x16)
    2265            
    2266            
    2267            $C$DW$T$20      .dwtag  DW_TAG_structure_type
    2268                    .dwattr $C$DW$T$20, DW_AT_name("__timer")
    2269                    .dwattr $C$DW$T$20, DW_AT_declaration
    2270                    .dwattr $C$DW$T$20, DW_AT_decl_file("C:/ti/ccs1110/ccs/tools/compiler/ti-cgt-msp430_21.6.1.LTS
    2271                    .dwattr $C$DW$T$20, DW_AT_decl_line(0x4b)
    2272                    .dwattr $C$DW$T$20, DW_AT_decl_column(0x10)
MSP430 Assembler PC v21.6.1 Tue Dec 20 13:45:48 2022

Copyright (c) 2003-2018 Texas Instruments Incorporated
mpy32.asm                                                            PAGE   43

    2273                    .dwendtag $C$DW$T$20
    2274            
    2275            $C$DW$T$160     .dwtag  DW_TAG_pointer_type
    2276                    .dwattr $C$DW$T$160, DW_AT_type(*$C$DW$T$20)
    2277                    .dwattr $C$DW$T$160, DW_AT_address_class(0x14)
    2278            
    2279            $C$DW$T$161     .dwtag  DW_TAG_typedef
    2280                    .dwattr $C$DW$T$161, DW_AT_name("__timer_t")
    2281                    .dwattr $C$DW$T$161, DW_AT_type(*$C$DW$T$160)
    2282                    .dwattr $C$DW$T$161, DW_AT_language(DW_LANG_C)
    2283                    .dwattr $C$DW$T$161, DW_AT_decl_file("C:/ti/ccs1110/ccs/tools/compiler/ti-cgt-msp430_21.6.1.LT
    2284                    .dwattr $C$DW$T$161, DW_AT_decl_line(0x4b)
    2285                    .dwattr $C$DW$T$161, DW_AT_decl_column(0x19)
    2286            
    2287                    .dwattr $C$DW$CU, DW_AT_language(DW_LANG_C)
    2288            
    2289            ;***************************************************************
    2290            ;* DWARF CIE ENTRIES                                           *
    2291            ;***************************************************************
    2292            
    2293            $C$DW$CIE       .dwcie 16
    2294                    .dwcfi  cfa_register, 1
    2295                    .dwcfi  cfa_offset, 0
    2296                    .dwcfi  same_value, 0
    2297                    .dwcfi  same_value, 1
    2298                    .dwcfi  same_value, 3
    2299                    .dwcfi  same_value, 4
    2300                    .dwcfi  same_value, 5
    2301                    .dwcfi  same_value, 6
    2302                    .dwcfi  same_value, 7
    2303                    .dwcfi  same_value, 8
    2304                    .dwcfi  same_value, 9
    2305                    .dwcfi  same_value, 10
    2306                    .dwendentry
    2307            
    2308            ;***************************************************************
    2309            ;* DWARF REGISTER MAP                                          *
    2310            ;***************************************************************
    2311            
    2312            $C$DW$72        .dwtag  DW_TAG_TI_assign_register
    2313                    .dwattr $C$DW$72, DW_AT_name("PC")
    2314                    .dwattr $C$DW$72, DW_AT_location[DW_OP_reg0]
    2315            
    2316            $C$DW$73        .dwtag  DW_TAG_TI_assign_register
    2317                    .dwattr $C$DW$73, DW_AT_name("SP")
    2318                    .dwattr $C$DW$73, DW_AT_location[DW_OP_reg1]
    2319            
    2320            $C$DW$74        .dwtag  DW_TAG_TI_assign_register
    2321                    .dwattr $C$DW$74, DW_AT_name("SR")
    2322                    .dwattr $C$DW$74, DW_AT_location[DW_OP_reg2]
    2323            
    2324            $C$DW$75        .dwtag  DW_TAG_TI_assign_register
    2325                    .dwattr $C$DW$75, DW_AT_name("CG")
    2326                    .dwattr $C$DW$75, DW_AT_location[DW_OP_reg3]
    2327            
MSP430 Assembler PC v21.6.1 Tue Dec 20 13:45:48 2022

Copyright (c) 2003-2018 Texas Instruments Incorporated
mpy32.asm                                                            PAGE   44

    2328            $C$DW$76        .dwtag  DW_TAG_TI_assign_register
    2329                    .dwattr $C$DW$76, DW_AT_name("r4")
    2330                    .dwattr $C$DW$76, DW_AT_location[DW_OP_reg4]
    2331            
    2332            $C$DW$77        .dwtag  DW_TAG_TI_assign_register
    2333                    .dwattr $C$DW$77, DW_AT_name("r5")
    2334                    .dwattr $C$DW$77, DW_AT_location[DW_OP_reg5]
    2335            
    2336            $C$DW$78        .dwtag  DW_TAG_TI_assign_register
    2337                    .dwattr $C$DW$78, DW_AT_name("r6")
    2338                    .dwattr $C$DW$78, DW_AT_location[DW_OP_reg6]
    2339            
    2340            $C$DW$79        .dwtag  DW_TAG_TI_assign_register
    2341                    .dwattr $C$DW$79, DW_AT_name("r7")
    2342                    .dwattr $C$DW$79, DW_AT_location[DW_OP_reg7]
    2343            
    2344            $C$DW$80        .dwtag  DW_TAG_TI_assign_register
    2345                    .dwattr $C$DW$80, DW_AT_name("r8")
    2346                    .dwattr $C$DW$80, DW_AT_location[DW_OP_reg8]
    2347            
    2348            $C$DW$81        .dwtag  DW_TAG_TI_assign_register
    2349                    .dwattr $C$DW$81, DW_AT_name("r9")
    2350                    .dwattr $C$DW$81, DW_AT_location[DW_OP_reg9]
    2351            
    2352            $C$DW$82        .dwtag  DW_TAG_TI_assign_register
    2353                    .dwattr $C$DW$82, DW_AT_name("r10")
    2354                    .dwattr $C$DW$82, DW_AT_location[DW_OP_reg10]
    2355            
    2356            $C$DW$83        .dwtag  DW_TAG_TI_assign_register
    2357                    .dwattr $C$DW$83, DW_AT_name("r11")
    2358                    .dwattr $C$DW$83, DW_AT_location[DW_OP_reg11]
    2359            
    2360            $C$DW$84        .dwtag  DW_TAG_TI_assign_register
    2361                    .dwattr $C$DW$84, DW_AT_name("r12")
    2362                    .dwattr $C$DW$84, DW_AT_location[DW_OP_reg12]
    2363            
    2364            $C$DW$85        .dwtag  DW_TAG_TI_assign_register
    2365                    .dwattr $C$DW$85, DW_AT_name("r13")
    2366                    .dwattr $C$DW$85, DW_AT_location[DW_OP_reg13]
    2367            
    2368            $C$DW$86        .dwtag  DW_TAG_TI_assign_register
    2369                    .dwattr $C$DW$86, DW_AT_name("r14")
    2370                    .dwattr $C$DW$86, DW_AT_location[DW_OP_reg14]
    2371            
    2372            $C$DW$87        .dwtag  DW_TAG_TI_assign_register
    2373                    .dwattr $C$DW$87, DW_AT_name("r15")
    2374                    .dwattr $C$DW$87, DW_AT_location[DW_OP_reg15]
    2375            
    2376            $C$DW$88        .dwtag  DW_TAG_TI_assign_register
    2377                    .dwattr $C$DW$88, DW_AT_name("CIE_RETA")
    2378                    .dwattr $C$DW$88, DW_AT_location[DW_OP_reg16]
    2379            
    2380                    .dwendtag $C$DW$CU
    2381            

No Assembly Errors, No Assembly Warnings
