MSP430 Assembler PC v21.6.1 Tue Dec 20 13:45:52 2022

Copyright (c) 2003-2018 Texas Instruments Incorporated
timer_a.asm                                                          PAGE    1

       1            ;******************************************************************************
       2            ;* MSP430 G3 C/C++ Codegen                                              PC v21.6.1.LTS *
       3            ;* Date/Time created: Tue Dec 20 13:45:52 2022                                *
       4            ;******************************************************************************
       5                    .compiler_opts --abi=eabi --diag_wrap=off --hll_source=on --mem_model:code=large --mem_model:d
       6            
       7            $C$DW$CU        .dwtag  DW_TAG_compile_unit
       8                    .dwattr $C$DW$CU, DW_AT_name("../MP430DriverLib/driverlib/MSP430F5xx_6xx/timer_a.c")
       9                    .dwattr $C$DW$CU, DW_AT_producer("TI MSP430 G3 C/C++ Codegen PC v21.6.1.LTS Copyright (c) 2003
      10                    .dwattr $C$DW$CU, DW_AT_TI_version(0x01)
      11                    .dwattr $C$DW$CU, DW_AT_comp_dir("C:\Users\MCourson\workspace_v11\MZERO_HB50Board\Debug")
      12            ;       C:\ti\ccs1110\ccs\tools\compiler\ti-cgt-msp430_21.6.1.LTS\bin\opt430.exe C:\\Users\\MCourson\\
      13 000000               .sect   ".text:Timer_A_stop"
      14                    .clink
      15                    .global Timer_A_stop
      16            
      17            $C$DW$1 .dwtag  DW_TAG_subprogram
      18                    .dwattr $C$DW$1, DW_AT_name("Timer_A_stop")
      19                    .dwattr $C$DW$1, DW_AT_low_pc(Timer_A_stop)
      20                    .dwattr $C$DW$1, DW_AT_high_pc(0x00)
      21                    .dwattr $C$DW$1, DW_AT_TI_symbol_name("Timer_A_stop")
      22                    .dwattr $C$DW$1, DW_AT_external
      23                    .dwattr $C$DW$1, DW_AT_TI_begin_file("../MP430DriverLib/driverlib/MSP430F5xx_6xx/timer_a.c")
      24                    .dwattr $C$DW$1, DW_AT_TI_begin_line(0x10e)
      25                    .dwattr $C$DW$1, DW_AT_TI_begin_column(0x06)
      26                    .dwattr $C$DW$1, DW_AT_decl_file("../MP430DriverLib/driverlib/MSP430F5xx_6xx/timer_a.c")
      27                    .dwattr $C$DW$1, DW_AT_decl_line(0x10e)
      28                    .dwattr $C$DW$1, DW_AT_decl_column(0x06)
      29                    .dwattr $C$DW$1, DW_AT_TI_max_frame_size(0x04)
      30                    .dwpsn  file "../MP430DriverLib/driverlib/MSP430F5xx_6xx/timer_a.c",line 271,column 1,is_stmt,
      31            
      32                    .dwfde $C$DW$CIE, Timer_A_stop
      33            $C$DW$2 .dwtag  DW_TAG_formal_parameter
      34                    .dwattr $C$DW$2, DW_AT_name("baseAddress")
      35                    .dwattr $C$DW$2, DW_AT_TI_symbol_name("baseAddress")
      36                    .dwattr $C$DW$2, DW_AT_type(*$C$DW$T$23)
      37                    .dwattr $C$DW$2, DW_AT_location[DW_OP_reg12]
      38            
      39            
      40            ;*****************************************************************************
      41            ;* FUNCTION NAME: Timer_A_stop                                               *
      42            ;*                                                                           *
      43            ;*   Regs Modified     : SP,SR                                               *
      44            ;*   Regs Used         : SP,SR,r12                                           *
      45            ;*   Local Frame Size  : 0 Args + 0 Auto + 0 Save = 0 byte                   *
      46            ;*****************************************************************************
      47 000000       Timer_A_stop:
      48            ;* --------------------------------------------------------------------------*
      49                    .dwcfi  cfa_offset, 4
      50                    .dwcfi  save_reg_to_mem, 16, -4
      51            ;* r12   assigned to baseAddress
      52            $C$DW$3 .dwtag  DW_TAG_variable
      53                    .dwattr $C$DW$3, DW_AT_name("baseAddress")
      54                    .dwattr $C$DW$3, DW_AT_TI_symbol_name("baseAddress")
      55                    .dwattr $C$DW$3, DW_AT_type(*$C$DW$T$23)
MSP430 Assembler PC v21.6.1 Tue Dec 20 13:45:52 2022

Copyright (c) 2003-2018 Texas Instruments Incorporated
timer_a.asm                                                          PAGE    2

      56                    .dwattr $C$DW$3, DW_AT_location[DW_OP_reg12]
      57            
      58                    .dwpsn  file "../MP430DriverLib/driverlib/MSP430F5xx_6xx/timer_a.c",line 272,column 5,is_stmt,
      59 000000 F0BC          AND.W     #65487,0(r12)         ; [] |272| 
         000002 FFCF 
         000004 0000 
      60                    .dwpsn  file "../MP430DriverLib/driverlib/MSP430F5xx_6xx/timer_a.c",line 273,column 1,is_stmt,
      61            $C$DW$4 .dwtag  DW_TAG_TI_branch
      62                    .dwattr $C$DW$4, DW_AT_low_pc(0x00)
      63                    .dwattr $C$DW$4, DW_AT_TI_return
      64            
      65 000006 0110          RETA      ; [] 
      66                    ; [] 
      67                    .dwattr $C$DW$1, DW_AT_TI_end_file("../MP430DriverLib/driverlib/MSP430F5xx_6xx/timer_a.c")
      68                    .dwattr $C$DW$1, DW_AT_TI_end_line(0x111)
      69                    .dwattr $C$DW$1, DW_AT_TI_end_column(0x01)
      70                    .dwendentry
      71                    .dwendtag $C$DW$1
      72            
      73 000000               .sect   ".text:Timer_A_startCounter"
      74                    .clink
      75                    .global Timer_A_startCounter
      76            
      77            $C$DW$5 .dwtag  DW_TAG_subprogram
      78                    .dwattr $C$DW$5, DW_AT_name("Timer_A_startCounter")
      79                    .dwattr $C$DW$5, DW_AT_low_pc(Timer_A_startCounter)
      80                    .dwattr $C$DW$5, DW_AT_high_pc(0x00)
      81                    .dwattr $C$DW$5, DW_AT_TI_symbol_name("Timer_A_startCounter")
      82                    .dwattr $C$DW$5, DW_AT_external
      83                    .dwattr $C$DW$5, DW_AT_TI_begin_file("../MP430DriverLib/driverlib/MSP430F5xx_6xx/timer_a.c")
      84                    .dwattr $C$DW$5, DW_AT_TI_begin_line(0x15)
      85                    .dwattr $C$DW$5, DW_AT_TI_begin_column(0x06)
      86                    .dwattr $C$DW$5, DW_AT_decl_file("../MP430DriverLib/driverlib/MSP430F5xx_6xx/timer_a.c")
      87                    .dwattr $C$DW$5, DW_AT_decl_line(0x15)
      88                    .dwattr $C$DW$5, DW_AT_decl_column(0x06)
      89                    .dwattr $C$DW$5, DW_AT_TI_max_frame_size(0x04)
      90                    .dwpsn  file "../MP430DriverLib/driverlib/MSP430F5xx_6xx/timer_a.c",line 24,column 1,is_stmt,a
      91            
      92                    .dwfde $C$DW$CIE, Timer_A_startCounter
      93            $C$DW$6 .dwtag  DW_TAG_formal_parameter
      94                    .dwattr $C$DW$6, DW_AT_name("baseAddress")
      95                    .dwattr $C$DW$6, DW_AT_TI_symbol_name("baseAddress")
      96                    .dwattr $C$DW$6, DW_AT_type(*$C$DW$T$23)
      97                    .dwattr $C$DW$6, DW_AT_location[DW_OP_reg12]
      98            
      99            $C$DW$7 .dwtag  DW_TAG_formal_parameter
     100                    .dwattr $C$DW$7, DW_AT_name("timerMode")
     101                    .dwattr $C$DW$7, DW_AT_TI_symbol_name("timerMode")
     102                    .dwattr $C$DW$7, DW_AT_type(*$C$DW$T$23)
     103                    .dwattr $C$DW$7, DW_AT_location[DW_OP_reg13]
     104            
     105            
     106            ;*****************************************************************************
     107            ;* FUNCTION NAME: Timer_A_startCounter                                       *
     108            ;*                                                                           *
MSP430 Assembler PC v21.6.1 Tue Dec 20 13:45:52 2022

Copyright (c) 2003-2018 Texas Instruments Incorporated
timer_a.asm                                                          PAGE    3

     109            ;*   Regs Modified     : SP,SR                                               *
     110            ;*   Regs Used         : SP,SR,r12,r13                                       *
     111            ;*   Local Frame Size  : 0 Args + 0 Auto + 0 Save = 0 byte                   *
     112            ;*****************************************************************************
     113 000000       Timer_A_startCounter:
     114            ;* --------------------------------------------------------------------------*
     115                    .dwcfi  cfa_offset, 4
     116                    .dwcfi  save_reg_to_mem, 16, -4
     117            ;* r12   assigned to baseAddress
     118            $C$DW$8 .dwtag  DW_TAG_variable
     119                    .dwattr $C$DW$8, DW_AT_name("baseAddress")
     120                    .dwattr $C$DW$8, DW_AT_TI_symbol_name("baseAddress")
     121                    .dwattr $C$DW$8, DW_AT_type(*$C$DW$T$23)
     122                    .dwattr $C$DW$8, DW_AT_location[DW_OP_reg12]
     123            
     124            ;* r13   assigned to timerMode
     125            $C$DW$9 .dwtag  DW_TAG_variable
     126                    .dwattr $C$DW$9, DW_AT_name("timerMode")
     127                    .dwattr $C$DW$9, DW_AT_TI_symbol_name("timerMode")
     128                    .dwattr $C$DW$9, DW_AT_type(*$C$DW$T$23)
     129                    .dwattr $C$DW$9, DW_AT_location[DW_OP_reg13]
     130            
     131                    .dwpsn  file "../MP430DriverLib/driverlib/MSP430F5xx_6xx/timer_a.c",line 25,column 5,is_stmt,i
     132 000000 F0BC          AND.W     #65487,0(r12)         ; [] |25| 
         000002 FFCF 
         000004 0000 
     133                    .dwpsn  file "../MP430DriverLib/driverlib/MSP430F5xx_6xx/timer_a.c",line 26,column 5,is_stmt,i
     134 000006 DD8C          OR.W      r13,0(r12)            ; [] |26| 
         000008 0000 
     135                    .dwpsn  file "../MP430DriverLib/driverlib/MSP430F5xx_6xx/timer_a.c",line 27,column 1,is_stmt,i
     136            $C$DW$10        .dwtag  DW_TAG_TI_branch
     137                    .dwattr $C$DW$10, DW_AT_low_pc(0x00)
     138                    .dwattr $C$DW$10, DW_AT_TI_return
     139            
     140 00000a 0110          RETA      ; [] 
     141                    ; [] 
     142                    .dwattr $C$DW$5, DW_AT_TI_end_file("../MP430DriverLib/driverlib/MSP430F5xx_6xx/timer_a.c")
     143                    .dwattr $C$DW$5, DW_AT_TI_end_line(0x1b)
     144                    .dwattr $C$DW$5, DW_AT_TI_end_column(0x01)
     145                    .dwendentry
     146                    .dwendtag $C$DW$5
     147            
     148 000000               .sect   ".text:Timer_A_setOutputMode"
     149                    .clink
     150                    .global Timer_A_setOutputMode
     151            
     152            $C$DW$11        .dwtag  DW_TAG_subprogram
     153                    .dwattr $C$DW$11, DW_AT_name("Timer_A_setOutputMode")
     154                    .dwattr $C$DW$11, DW_AT_low_pc(Timer_A_setOutputMode)
     155                    .dwattr $C$DW$11, DW_AT_high_pc(0x00)
     156                    .dwattr $C$DW$11, DW_AT_TI_symbol_name("Timer_A_setOutputMode")
     157                    .dwattr $C$DW$11, DW_AT_external
     158                    .dwattr $C$DW$11, DW_AT_TI_begin_file("../MP430DriverLib/driverlib/MSP430F5xx_6xx/timer_a.c")
     159                    .dwattr $C$DW$11, DW_AT_TI_begin_line(0x11b)
     160                    .dwattr $C$DW$11, DW_AT_TI_begin_column(0x06)
MSP430 Assembler PC v21.6.1 Tue Dec 20 13:45:52 2022

Copyright (c) 2003-2018 Texas Instruments Incorporated
timer_a.asm                                                          PAGE    4

     161                    .dwattr $C$DW$11, DW_AT_decl_file("../MP430DriverLib/driverlib/MSP430F5xx_6xx/timer_a.c")
     162                    .dwattr $C$DW$11, DW_AT_decl_line(0x11b)
     163                    .dwattr $C$DW$11, DW_AT_decl_column(0x06)
     164                    .dwattr $C$DW$11, DW_AT_TI_max_frame_size(0x04)
     165                    .dwpsn  file "../MP430DriverLib/driverlib/MSP430F5xx_6xx/timer_a.c",line 286,column 1,is_stmt,
     166            
     167                    .dwfde $C$DW$CIE, Timer_A_setOutputMode
     168            $C$DW$12        .dwtag  DW_TAG_formal_parameter
     169                    .dwattr $C$DW$12, DW_AT_name("baseAddress")
     170                    .dwattr $C$DW$12, DW_AT_TI_symbol_name("baseAddress")
     171                    .dwattr $C$DW$12, DW_AT_type(*$C$DW$T$23)
     172                    .dwattr $C$DW$12, DW_AT_location[DW_OP_reg12]
     173            
     174            $C$DW$13        .dwtag  DW_TAG_formal_parameter
     175                    .dwattr $C$DW$13, DW_AT_name("compareRegister")
     176                    .dwattr $C$DW$13, DW_AT_TI_symbol_name("compareRegister")
     177                    .dwattr $C$DW$13, DW_AT_type(*$C$DW$T$23)
     178                    .dwattr $C$DW$13, DW_AT_location[DW_OP_reg13]
     179            
     180            $C$DW$14        .dwtag  DW_TAG_formal_parameter
     181                    .dwattr $C$DW$14, DW_AT_name("compareOutputMode")
     182                    .dwattr $C$DW$14, DW_AT_TI_symbol_name("compareOutputMode")
     183                    .dwattr $C$DW$14, DW_AT_type(*$C$DW$T$23)
     184                    .dwattr $C$DW$14, DW_AT_location[DW_OP_reg14]
     185            
     186            
     187            ;*****************************************************************************
     188            ;* FUNCTION NAME: Timer_A_setOutputMode                                      *
     189            ;*                                                                           *
     190            ;*   Regs Modified     : SP,SR,r12,r14,r15                                   *
     191            ;*   Regs Used         : SP,SR,r12,r13,r14,r15                               *
     192            ;*   Local Frame Size  : 0 Args + 0 Auto + 0 Save = 0 byte                   *
     193            ;*****************************************************************************
     194 000000       Timer_A_setOutputMode:
     195            ;* --------------------------------------------------------------------------*
     196                    .dwcfi  cfa_offset, 4
     197                    .dwcfi  save_reg_to_mem, 16, -4
     198            ;* r12   assigned to baseAddress
     199            $C$DW$15        .dwtag  DW_TAG_variable
     200                    .dwattr $C$DW$15, DW_AT_name("baseAddress")
     201                    .dwattr $C$DW$15, DW_AT_TI_symbol_name("baseAddress")
     202                    .dwattr $C$DW$15, DW_AT_type(*$C$DW$T$23)
     203                    .dwattr $C$DW$15, DW_AT_location[DW_OP_reg12]
     204            
     205            ;* r13   assigned to compareRegister
     206            $C$DW$16        .dwtag  DW_TAG_variable
     207                    .dwattr $C$DW$16, DW_AT_name("compareRegister")
     208                    .dwattr $C$DW$16, DW_AT_TI_symbol_name("compareRegister")
     209                    .dwattr $C$DW$16, DW_AT_type(*$C$DW$T$23)
     210                    .dwattr $C$DW$16, DW_AT_location[DW_OP_reg13]
     211            
     212            ;* r15   assigned to compareOutputMode
     213            $C$DW$17        .dwtag  DW_TAG_variable
     214                    .dwattr $C$DW$17, DW_AT_name("compareOutputMode")
     215                    .dwattr $C$DW$17, DW_AT_TI_symbol_name("compareOutputMode")
MSP430 Assembler PC v21.6.1 Tue Dec 20 13:45:52 2022

Copyright (c) 2003-2018 Texas Instruments Incorporated
timer_a.asm                                                          PAGE    5

     216                    .dwattr $C$DW$17, DW_AT_type(*$C$DW$T$23)
     217                    .dwattr $C$DW$17, DW_AT_location[DW_OP_reg15]
     218            
     219            ;* r14   assigned to temp
     220            $C$DW$18        .dwtag  DW_TAG_variable
     221                    .dwattr $C$DW$18, DW_AT_name("temp")
     222                    .dwattr $C$DW$18, DW_AT_TI_symbol_name("temp")
     223                    .dwattr $C$DW$18, DW_AT_type(*$C$DW$T$23)
     224                    .dwattr $C$DW$18, DW_AT_location[DW_OP_reg14]
     225            
     226 000000 0ECF          MOVA      r14,r15               ; [] |286| 
     227                    .dwpsn  file "../MP430DriverLib/driverlib/MSP430F5xx_6xx/timer_a.c",line 287,column 19,is_stmt
     228 000002 0CCE          MOVA      r12,r14               ; [] |287| 
     229 000004 5D0E          ADD.W     r13,r14               ; [] |287| 
     230 000006 4E2E          MOV.W     @r14,r14              ; [] |287| 
     231                    .dwpsn  file "../MP430DriverLib/driverlib/MSP430F5xx_6xx/timer_a.c",line 288,column 5,is_stmt,
     232 000008 F03E          AND.W     #65311,r14            ; [] |288| 
         00000a FF1F 
     233 00000c DF0E          OR.W      r15,r14               ; [] |288| 
     234 00000e 5D0C          ADD.W     r13,r12               ; [] |288| 
     235 000010 4E8C          MOV.W     r14,0(r12)            ; [] |288| 
         000012 0000 
     236                    .dwpsn  file "../MP430DriverLib/driverlib/MSP430F5xx_6xx/timer_a.c",line 289,column 1,is_stmt,
     237            $C$DW$19        .dwtag  DW_TAG_TI_branch
     238                    .dwattr $C$DW$19, DW_AT_low_pc(0x00)
     239                    .dwattr $C$DW$19, DW_AT_TI_return
     240            
     241 000014 0110          RETA      ; [] 
     242                    ; [] 
     243                    .dwattr $C$DW$11, DW_AT_TI_end_file("../MP430DriverLib/driverlib/MSP430F5xx_6xx/timer_a.c")
     244                    .dwattr $C$DW$11, DW_AT_TI_end_line(0x121)
     245                    .dwattr $C$DW$11, DW_AT_TI_end_column(0x01)
     246                    .dwendentry
     247                    .dwendtag $C$DW$11
     248            
     249 000000               .sect   ".text:Timer_A_setOutputForOutputModeOutBitValue"
     250                    .clink
     251                    .global Timer_A_setOutputForOutputModeOutBitValue
     252            
     253            $C$DW$20        .dwtag  DW_TAG_subprogram
     254                    .dwattr $C$DW$20, DW_AT_name("Timer_A_setOutputForOutputModeOutBitValue")
     255                    .dwattr $C$DW$20, DW_AT_low_pc(Timer_A_setOutputForOutputModeOutBitValue)
     256                    .dwattr $C$DW$20, DW_AT_high_pc(0x00)
     257                    .dwattr $C$DW$20, DW_AT_TI_symbol_name("Timer_A_setOutputForOutputModeOutBitValue")
     258                    .dwattr $C$DW$20, DW_AT_external
     259                    .dwattr $C$DW$20, DW_AT_TI_begin_file("../MP430DriverLib/driverlib/MSP430F5xx_6xx/timer_a.c")
     260                    .dwattr $C$DW$20, DW_AT_TI_begin_line(0xe8)
     261                    .dwattr $C$DW$20, DW_AT_TI_begin_column(0x06)
     262                    .dwattr $C$DW$20, DW_AT_decl_file("../MP430DriverLib/driverlib/MSP430F5xx_6xx/timer_a.c")
     263                    .dwattr $C$DW$20, DW_AT_decl_line(0xe8)
     264                    .dwattr $C$DW$20, DW_AT_decl_column(0x06)
     265                    .dwattr $C$DW$20, DW_AT_TI_max_frame_size(0x04)
     266                    .dwpsn  file "../MP430DriverLib/driverlib/MSP430F5xx_6xx/timer_a.c",line 237,column 1,is_stmt,
     267            
     268                    .dwfde $C$DW$CIE, Timer_A_setOutputForOutputModeOutBitValue
MSP430 Assembler PC v21.6.1 Tue Dec 20 13:45:52 2022

Copyright (c) 2003-2018 Texas Instruments Incorporated
timer_a.asm                                                          PAGE    6

     269            $C$DW$21        .dwtag  DW_TAG_formal_parameter
     270                    .dwattr $C$DW$21, DW_AT_name("baseAddress")
     271                    .dwattr $C$DW$21, DW_AT_TI_symbol_name("baseAddress")
     272                    .dwattr $C$DW$21, DW_AT_type(*$C$DW$T$23)
     273                    .dwattr $C$DW$21, DW_AT_location[DW_OP_reg12]
     274            
     275            $C$DW$22        .dwtag  DW_TAG_formal_parameter
     276                    .dwattr $C$DW$22, DW_AT_name("captureCompareRegister")
     277                    .dwattr $C$DW$22, DW_AT_TI_symbol_name("captureCompareRegister")
     278                    .dwattr $C$DW$22, DW_AT_type(*$C$DW$T$23)
     279                    .dwattr $C$DW$22, DW_AT_location[DW_OP_reg13]
     280            
     281            $C$DW$23        .dwtag  DW_TAG_formal_parameter
     282                    .dwattr $C$DW$23, DW_AT_name("outputModeOutBitValue")
     283                    .dwattr $C$DW$23, DW_AT_TI_symbol_name("outputModeOutBitValue")
     284                    .dwattr $C$DW$23, DW_AT_type(*$C$DW$T$58)
     285                    .dwattr $C$DW$23, DW_AT_location[DW_OP_reg14]
     286            
     287            
     288            ;*****************************************************************************
     289            ;* FUNCTION NAME: Timer_A_setOutputForOutputModeOutBitValue                  *
     290            ;*                                                                           *
     291            ;*   Regs Modified     : SP,SR,r12,r14,r15                                   *
     292            ;*   Regs Used         : SP,SR,r12,r13,r14,r15                               *
     293            ;*   Local Frame Size  : 0 Args + 0 Auto + 0 Save = 0 byte                   *
     294            ;*****************************************************************************
     295 000000       Timer_A_setOutputForOutputModeOutBitValue:
     296            ;* --------------------------------------------------------------------------*
     297                    .dwcfi  cfa_offset, 4
     298                    .dwcfi  save_reg_to_mem, 16, -4
     299            ;* r12   assigned to baseAddress
     300            $C$DW$24        .dwtag  DW_TAG_variable
     301                    .dwattr $C$DW$24, DW_AT_name("baseAddress")
     302                    .dwattr $C$DW$24, DW_AT_TI_symbol_name("baseAddress")
     303                    .dwattr $C$DW$24, DW_AT_type(*$C$DW$T$23)
     304                    .dwattr $C$DW$24, DW_AT_location[DW_OP_reg12]
     305            
     306            ;* r13   assigned to captureCompareRegister
     307            $C$DW$25        .dwtag  DW_TAG_variable
     308                    .dwattr $C$DW$25, DW_AT_name("captureCompareRegister")
     309                    .dwattr $C$DW$25, DW_AT_TI_symbol_name("captureCompareRegister")
     310                    .dwattr $C$DW$25, DW_AT_type(*$C$DW$T$23)
     311                    .dwattr $C$DW$25, DW_AT_location[DW_OP_reg13]
     312            
     313            ;* r14   assigned to outputModeOutBitValue
     314            $C$DW$26        .dwtag  DW_TAG_variable
     315                    .dwattr $C$DW$26, DW_AT_name("outputModeOutBitValue")
     316                    .dwattr $C$DW$26, DW_AT_TI_symbol_name("outputModeOutBitValue")
     317                    .dwattr $C$DW$26, DW_AT_type(*$C$DW$T$58)
     318                    .dwattr $C$DW$26, DW_AT_location[DW_OP_reg14]
     319            
     320                    .dwpsn  file "../MP430DriverLib/driverlib/MSP430F5xx_6xx/timer_a.c",line 239,column 5,is_stmt,
     321 000000 0CCF          MOVA      r12,r15               ; [] |239| 
     322 000002 5D0F          ADD.W     r13,r15               ; [] |239| 
     323 000004 4F0F          MOV.W     r15,r15               ; [] |239| 
MSP430 Assembler PC v21.6.1 Tue Dec 20 13:45:52 2022

Copyright (c) 2003-2018 Texas Instruments Incorporated
timer_a.asm                                                          PAGE    7

     324 000006 C2AF          BIC.W     #4,0(r15)             ; [] |239| 
         000008 0000 
     325                    .dwpsn  file "../MP430DriverLib/driverlib/MSP430F5xx_6xx/timer_a.c",line 240,column 5,is_stmt,
     326 00000a 5D0C          ADD.W     r13,r12               ; [] |240| 
     327 00000c 4C0F          MOV.W     r12,r15               ; [] |240| 
     328 00000e 4E4E          MOV.B     r14,r14               ; [] |240| 
     329 000010 DE8F          OR.W      r14,0(r15)            ; [] |240| 
         000012 0000 
     330                    .dwpsn  file "../MP430DriverLib/driverlib/MSP430F5xx_6xx/timer_a.c",line 241,column 1,is_stmt,
     331            $C$DW$27        .dwtag  DW_TAG_TI_branch
     332                    .dwattr $C$DW$27, DW_AT_low_pc(0x00)
     333                    .dwattr $C$DW$27, DW_AT_TI_return
     334            
     335 000014 0110          RETA      ; [] 
     336                    ; [] 
     337                    .dwattr $C$DW$20, DW_AT_TI_end_file("../MP430DriverLib/driverlib/MSP430F5xx_6xx/timer_a.c")
     338                    .dwattr $C$DW$20, DW_AT_TI_end_line(0xf1)
     339                    .dwattr $C$DW$20, DW_AT_TI_end_column(0x01)
     340                    .dwendentry
     341                    .dwendtag $C$DW$20
     342            
     343 000000               .sect   ".text:Timer_A_setCompareValue"
     344                    .clink
     345                    .global Timer_A_setCompareValue
     346            
     347            $C$DW$28        .dwtag  DW_TAG_subprogram
     348                    .dwattr $C$DW$28, DW_AT_name("Timer_A_setCompareValue")
     349                    .dwattr $C$DW$28, DW_AT_low_pc(Timer_A_setCompareValue)
     350                    .dwattr $C$DW$28, DW_AT_high_pc(0x00)
     351                    .dwattr $C$DW$28, DW_AT_TI_symbol_name("Timer_A_setCompareValue")
     352                    .dwattr $C$DW$28, DW_AT_external
     353                    .dwattr $C$DW$28, DW_AT_TI_begin_file("../MP430DriverLib/driverlib/MSP430F5xx_6xx/timer_a.c")
     354                    .dwattr $C$DW$28, DW_AT_TI_begin_line(0x113)
     355                    .dwattr $C$DW$28, DW_AT_TI_begin_column(0x06)
     356                    .dwattr $C$DW$28, DW_AT_decl_file("../MP430DriverLib/driverlib/MSP430F5xx_6xx/timer_a.c")
     357                    .dwattr $C$DW$28, DW_AT_decl_line(0x113)
     358                    .dwattr $C$DW$28, DW_AT_decl_column(0x06)
     359                    .dwattr $C$DW$28, DW_AT_TI_max_frame_size(0x04)
     360                    .dwpsn  file "../MP430DriverLib/driverlib/MSP430F5xx_6xx/timer_a.c",line 279,column 1,is_stmt,
     361            
     362                    .dwfde $C$DW$CIE, Timer_A_setCompareValue
     363            $C$DW$29        .dwtag  DW_TAG_formal_parameter
     364                    .dwattr $C$DW$29, DW_AT_name("baseAddress")
     365                    .dwattr $C$DW$29, DW_AT_TI_symbol_name("baseAddress")
     366                    .dwattr $C$DW$29, DW_AT_type(*$C$DW$T$23)
     367                    .dwattr $C$DW$29, DW_AT_location[DW_OP_reg12]
     368            
     369            $C$DW$30        .dwtag  DW_TAG_formal_parameter
     370                    .dwattr $C$DW$30, DW_AT_name("compareRegister")
     371                    .dwattr $C$DW$30, DW_AT_TI_symbol_name("compareRegister")
     372                    .dwattr $C$DW$30, DW_AT_type(*$C$DW$T$23)
     373                    .dwattr $C$DW$30, DW_AT_location[DW_OP_reg13]
     374            
     375            $C$DW$31        .dwtag  DW_TAG_formal_parameter
     376                    .dwattr $C$DW$31, DW_AT_name("compareValue")
MSP430 Assembler PC v21.6.1 Tue Dec 20 13:45:52 2022

Copyright (c) 2003-2018 Texas Instruments Incorporated
timer_a.asm                                                          PAGE    8

     377                    .dwattr $C$DW$31, DW_AT_TI_symbol_name("compareValue")
     378                    .dwattr $C$DW$31, DW_AT_type(*$C$DW$T$23)
     379                    .dwattr $C$DW$31, DW_AT_location[DW_OP_reg14]
     380            
     381            
     382            ;*****************************************************************************
     383            ;* FUNCTION NAME: Timer_A_setCompareValue                                    *
     384            ;*                                                                           *
     385            ;*   Regs Modified     : SP,SR,r12                                           *
     386            ;*   Regs Used         : SP,SR,r12,r13,r14                                   *
     387            ;*   Local Frame Size  : 0 Args + 0 Auto + 0 Save = 0 byte                   *
     388            ;*****************************************************************************
     389 000000       Timer_A_setCompareValue:
     390            ;* --------------------------------------------------------------------------*
     391                    .dwcfi  cfa_offset, 4
     392                    .dwcfi  save_reg_to_mem, 16, -4
     393            ;* r13   assigned to compareRegister
     394            $C$DW$32        .dwtag  DW_TAG_variable
     395                    .dwattr $C$DW$32, DW_AT_name("compareRegister")
     396                    .dwattr $C$DW$32, DW_AT_TI_symbol_name("compareRegister")
     397                    .dwattr $C$DW$32, DW_AT_type(*$C$DW$T$23)
     398                    .dwattr $C$DW$32, DW_AT_location[DW_OP_reg13]
     399            
     400            ;* r14   assigned to compareValue
     401            $C$DW$33        .dwtag  DW_TAG_variable
     402                    .dwattr $C$DW$33, DW_AT_name("compareValue")
     403                    .dwattr $C$DW$33, DW_AT_TI_symbol_name("compareValue")
     404                    .dwattr $C$DW$33, DW_AT_type(*$C$DW$T$23)
     405                    .dwattr $C$DW$33, DW_AT_location[DW_OP_reg14]
     406            
     407                    .dwpsn  file "../MP430DriverLib/driverlib/MSP430F5xx_6xx/timer_a.c",line 280,column 5,is_stmt,
     408 000000 5D0C          ADD.W     r13,r12               ; [] |280| 
     409 000002 503C          ADD.W     #16,r12               ; [] |280| 
         000004 0010 
     410 000006 4E8C          MOV.W     r14,0(r12)            ; [] |280| 
         000008 0000 
     411                    .dwpsn  file "../MP430DriverLib/driverlib/MSP430F5xx_6xx/timer_a.c",line 281,column 1,is_stmt,
     412            $C$DW$34        .dwtag  DW_TAG_TI_branch
     413                    .dwattr $C$DW$34, DW_AT_low_pc(0x00)
     414                    .dwattr $C$DW$34, DW_AT_TI_return
     415            
     416 00000a 0110          RETA      ; [] 
     417                    ; [] 
     418                    .dwattr $C$DW$28, DW_AT_TI_end_file("../MP430DriverLib/driverlib/MSP430F5xx_6xx/timer_a.c")
     419                    .dwattr $C$DW$28, DW_AT_TI_end_line(0x119)
     420                    .dwattr $C$DW$28, DW_AT_TI_end_column(0x01)
     421                    .dwendentry
     422                    .dwendtag $C$DW$28
     423            
     424 000000               .sect   ".text:Timer_A_outputPWM"
     425                    .clink
     426                    .global Timer_A_outputPWM
     427            
     428            $C$DW$35        .dwtag  DW_TAG_subprogram
     429                    .dwattr $C$DW$35, DW_AT_name("Timer_A_outputPWM")
MSP430 Assembler PC v21.6.1 Tue Dec 20 13:45:52 2022

Copyright (c) 2003-2018 Texas Instruments Incorporated
timer_a.asm                                                          PAGE    9

     430                    .dwattr $C$DW$35, DW_AT_low_pc(Timer_A_outputPWM)
     431                    .dwattr $C$DW$35, DW_AT_high_pc(0x00)
     432                    .dwattr $C$DW$35, DW_AT_TI_symbol_name("Timer_A_outputPWM")
     433                    .dwattr $C$DW$35, DW_AT_external
     434                    .dwattr $C$DW$35, DW_AT_TI_begin_file("../MP430DriverLib/driverlib/MSP430F5xx_6xx/timer_a.c")
     435                    .dwattr $C$DW$35, DW_AT_TI_begin_line(0xf3)
     436                    .dwattr $C$DW$35, DW_AT_TI_begin_column(0x06)
     437                    .dwattr $C$DW$35, DW_AT_decl_file("../MP430DriverLib/driverlib/MSP430F5xx_6xx/timer_a.c")
     438                    .dwattr $C$DW$35, DW_AT_decl_line(0xf3)
     439                    .dwattr $C$DW$35, DW_AT_decl_column(0x06)
     440                    .dwattr $C$DW$35, DW_AT_TI_max_frame_size(0x04)
     441                    .dwpsn  file "../MP430DriverLib/driverlib/MSP430F5xx_6xx/timer_a.c",line 244,column 1,is_stmt,
     442            
     443                    .dwfde $C$DW$CIE, Timer_A_outputPWM
     444            $C$DW$36        .dwtag  DW_TAG_formal_parameter
     445                    .dwattr $C$DW$36, DW_AT_name("baseAddress")
     446                    .dwattr $C$DW$36, DW_AT_TI_symbol_name("baseAddress")
     447                    .dwattr $C$DW$36, DW_AT_type(*$C$DW$T$23)
     448                    .dwattr $C$DW$36, DW_AT_location[DW_OP_reg12]
     449            
     450            $C$DW$37        .dwtag  DW_TAG_formal_parameter
     451                    .dwattr $C$DW$37, DW_AT_name("param")
     452                    .dwattr $C$DW$37, DW_AT_TI_symbol_name("param")
     453                    .dwattr $C$DW$37, DW_AT_type(*$C$DW$T$48)
     454                    .dwattr $C$DW$37, DW_AT_location[DW_OP_reg13]
     455            
     456            
     457            ;*****************************************************************************
     458            ;* FUNCTION NAME: Timer_A_outputPWM                                          *
     459            ;*                                                                           *
     460            ;*   Regs Modified     : SP,SR,r12,r14,r15                                   *
     461            ;*   Regs Used         : SP,SR,r12,r13,r14,r15                               *
     462            ;*   Local Frame Size  : 0 Args + 0 Auto + 0 Save = 0 byte                   *
     463            ;*****************************************************************************
     464 000000       Timer_A_outputPWM:
     465            ;* --------------------------------------------------------------------------*
     466                    .dwcfi  cfa_offset, 4
     467                    .dwcfi  save_reg_to_mem, 16, -4
     468            ;* r12   assigned to baseAddress
     469            $C$DW$38        .dwtag  DW_TAG_variable
     470                    .dwattr $C$DW$38, DW_AT_name("baseAddress")
     471                    .dwattr $C$DW$38, DW_AT_TI_symbol_name("baseAddress")
     472                    .dwattr $C$DW$38, DW_AT_type(*$C$DW$T$23)
     473                    .dwattr $C$DW$38, DW_AT_location[DW_OP_reg12]
     474            
     475            ;* r13   assigned to param
     476            $C$DW$39        .dwtag  DW_TAG_variable
     477                    .dwattr $C$DW$39, DW_AT_name("param")
     478                    .dwattr $C$DW$39, DW_AT_TI_symbol_name("param")
     479                    .dwattr $C$DW$39, DW_AT_type(*$C$DW$T$48)
     480                    .dwattr $C$DW$39, DW_AT_location[DW_OP_reg13]
     481            
     482                    .dwpsn  file "../MP430DriverLib/driverlib/MSP430F5xx_6xx/timer_a.c",line 245,column 5,is_stmt,
     483 000000 F0BC          AND.W     #64521,0(r12)         ; [] |245| 
         000002 FC09 
MSP430 Assembler PC v21.6.1 Tue Dec 20 13:45:52 2022

Copyright (c) 2003-2018 Texas Instruments Incorporated
timer_a.asm                                                          PAGE   10

         000004 0000 
     484                    .dwpsn  file "../MP430DriverLib/driverlib/MSP430F5xx_6xx/timer_a.c",line 251,column 5,is_stmt,
     485 000006 0CCF          MOVA      r12,r15               ; [] |251| 
     486 000008 503F          ADD.W     #32,r15               ; [] |251| 
         00000a 0020 
     487 00000c 4F0F          MOV.W     r15,r15               ; [] |251| 
     488 00000e F0BF          AND.W     #65528,0(r15)         ; [] |251| 
         000010 FFF8 
         000012 0000 
     489                    .dwpsn  file "../MP430DriverLib/driverlib/MSP430F5xx_6xx/timer_a.c",line 253,column 5,is_stmt,
     490 000014 0CCF          MOVA      r12,r15               ; [] |253| 
     491 000016 503F          ADD.W     #32,r15               ; [] |253| 
         000018 0020 
     492 00001a 4F0E          MOV.W     r15,r14               ; [] |253| 
     493 00001c 403F          MOV.W     #7,r15                ; [] |253| 
         00001e 0007 
     494 000020 FD1F          AND.W     2(r13),r15            ; [] |253| 
         000022 0002 
     495 000024 DF8E          OR.W      r15,0(r14)            ; [] |253| 
         000026 0000 
     496                    .dwpsn  file "../MP430DriverLib/driverlib/MSP430F5xx_6xx/timer_a.c",line 254,column 5,is_stmt,
     497 000028 403F          MOV.W     #8184,r15             ; [] |254| 
         00002a 1FF8 
     498 00002c FD1F          AND.W     2(r13),r15            ; [] |254| 
         00002e 0002 
     499 000030 0A5F          RLAM.W    #3,r15                ; [] |254| 
     500 000032 5D2F          ADD.W     @r13,r15              ; [] |254| 
     501 000034 503F          ADD.W     #20,r15               ; [] |254| 
         000036 0014 
     502 000038 DF8C          OR.W      r15,0(r12)            ; [] |254| 
         00003a 0000 
     503                    .dwpsn  file "../MP430DriverLib/driverlib/MSP430F5xx_6xx/timer_a.c",line 259,column 5,is_stmt,
     504 00003c 0CCF          MOVA      r12,r15               ; [] |259| 
     505 00003e 503F          ADD.W     #18,r15               ; [] |259| 
         000040 0012 
     506 000042 4D9F          MOV.W     4(r13),0(r15)         ; [] |259| 
         000044 0004 
         000046 0000 
     507                    .dwpsn  file "../MP430DriverLib/driverlib/MSP430F5xx_6xx/timer_a.c",line 261,column 5,is_stmt,
     508 000048 0CCF          MOVA      r12,r15               ; [] |261| 
     509 00004a 532F          ADD.W     #2,r15                ; [] |261| 
     510 00004c 4F0F          MOV.W     r15,r15               ; [] |261| 
     511 00004e F0BF          AND.W     #65295,0(r15)         ; [] |261| 
         000050 FF0F 
         000052 0000 
     512                    .dwpsn  file "../MP430DriverLib/driverlib/MSP430F5xx_6xx/timer_a.c",line 265,column 5,is_stmt,
     513 000054 0CCF          MOVA      r12,r15               ; [] |265| 
     514 000056 5D1F          ADD.W     6(r13),r15            ; [] |265| 
         000058 0006 
     515 00005a 4F0F          MOV.W     r15,r15               ; [] |265| 
     516 00005c DD9F          OR.W      8(r13),0(r15)         ; [] |265| 
         00005e 0008 
         000060 0000 
     517                    .dwpsn  file "../MP430DriverLib/driverlib/MSP430F5xx_6xx/timer_a.c",line 267,column 5,is_stmt,
     518 000062 5D1C          ADD.W     6(r13),r12            ; [] |267| 
MSP430 Assembler PC v21.6.1 Tue Dec 20 13:45:52 2022

Copyright (c) 2003-2018 Texas Instruments Incorporated
timer_a.asm                                                          PAGE   11

         000064 0006 
     519 000066 503C          ADD.W     #16,r12               ; [] |267| 
         000068 0010 
     520 00006a 4D9C          MOV.W     10(r13),0(r12)        ; [] |267| 
         00006c 000A 
         00006e 0000 
     521                    .dwpsn  file "../MP430DriverLib/driverlib/MSP430F5xx_6xx/timer_a.c",line 268,column 1,is_stmt,
     522            $C$DW$40        .dwtag  DW_TAG_TI_branch
     523                    .dwattr $C$DW$40, DW_AT_low_pc(0x00)
     524                    .dwattr $C$DW$40, DW_AT_TI_return
     525            
     526 000070 0110          RETA      ; [] 
     527                    ; [] 
     528                    .dwattr $C$DW$35, DW_AT_TI_end_file("../MP430DriverLib/driverlib/MSP430F5xx_6xx/timer_a.c")
     529                    .dwattr $C$DW$35, DW_AT_TI_end_line(0x10c)
     530                    .dwattr $C$DW$35, DW_AT_TI_end_column(0x01)
     531                    .dwendentry
     532                    .dwendtag $C$DW$35
     533            
     534 000000               .sect   ".text:Timer_A_initUpMode"
     535                    .clink
     536                    .global Timer_A_initUpMode
     537            
     538            $C$DW$41        .dwtag  DW_TAG_subprogram
     539                    .dwattr $C$DW$41, DW_AT_name("Timer_A_initUpMode")
     540                    .dwattr $C$DW$41, DW_AT_low_pc(Timer_A_initUpMode)
     541                    .dwattr $C$DW$41, DW_AT_high_pc(0x00)
     542                    .dwattr $C$DW$41, DW_AT_TI_symbol_name("Timer_A_initUpMode")
     543                    .dwattr $C$DW$41, DW_AT_external
     544                    .dwattr $C$DW$41, DW_AT_TI_begin_file("../MP430DriverLib/driverlib/MSP430F5xx_6xx/timer_a.c")
     545                    .dwattr $C$DW$41, DW_AT_TI_begin_line(0x35)
     546                    .dwattr $C$DW$41, DW_AT_TI_begin_column(0x06)
     547                    .dwattr $C$DW$41, DW_AT_decl_file("../MP430DriverLib/driverlib/MSP430F5xx_6xx/timer_a.c")
     548                    .dwattr $C$DW$41, DW_AT_decl_line(0x35)
     549                    .dwattr $C$DW$41, DW_AT_decl_column(0x06)
     550                    .dwattr $C$DW$41, DW_AT_TI_max_frame_size(0x04)
     551                    .dwpsn  file "../MP430DriverLib/driverlib/MSP430F5xx_6xx/timer_a.c",line 55,column 1,is_stmt,a
     552            
     553                    .dwfde $C$DW$CIE, Timer_A_initUpMode
     554            $C$DW$42        .dwtag  DW_TAG_formal_parameter
     555                    .dwattr $C$DW$42, DW_AT_name("baseAddress")
     556                    .dwattr $C$DW$42, DW_AT_TI_symbol_name("baseAddress")
     557                    .dwattr $C$DW$42, DW_AT_type(*$C$DW$T$23)
     558                    .dwattr $C$DW$42, DW_AT_location[DW_OP_reg12]
     559            
     560            $C$DW$43        .dwtag  DW_TAG_formal_parameter
     561                    .dwattr $C$DW$43, DW_AT_name("param")
     562                    .dwattr $C$DW$43, DW_AT_TI_symbol_name("param")
     563                    .dwattr $C$DW$43, DW_AT_type(*$C$DW$T$45)
     564                    .dwattr $C$DW$43, DW_AT_location[DW_OP_reg13]
     565            
     566            
     567            ;*****************************************************************************
     568            ;* FUNCTION NAME: Timer_A_initUpMode                                         *
     569            ;*                                                                           *
MSP430 Assembler PC v21.6.1 Tue Dec 20 13:45:52 2022

Copyright (c) 2003-2018 Texas Instruments Incorporated
timer_a.asm                                                          PAGE   12

     570            ;*   Regs Modified     : SP,SR,r12,r14,r15                                   *
     571            ;*   Regs Used         : SP,SR,r12,r13,r14,r15                               *
     572            ;*   Local Frame Size  : 0 Args + 0 Auto + 0 Save = 0 byte                   *
     573            ;*****************************************************************************
     574 000000       Timer_A_initUpMode:
     575            ;* --------------------------------------------------------------------------*
     576                    .dwcfi  cfa_offset, 4
     577                    .dwcfi  save_reg_to_mem, 16, -4
     578            ;* r12   assigned to baseAddress
     579            $C$DW$44        .dwtag  DW_TAG_variable
     580                    .dwattr $C$DW$44, DW_AT_name("baseAddress")
     581                    .dwattr $C$DW$44, DW_AT_TI_symbol_name("baseAddress")
     582                    .dwattr $C$DW$44, DW_AT_type(*$C$DW$T$23)
     583                    .dwattr $C$DW$44, DW_AT_location[DW_OP_reg12]
     584            
     585            ;* r13   assigned to param
     586            $C$DW$45        .dwtag  DW_TAG_variable
     587                    .dwattr $C$DW$45, DW_AT_name("param")
     588                    .dwattr $C$DW$45, DW_AT_TI_symbol_name("param")
     589                    .dwattr $C$DW$45, DW_AT_type(*$C$DW$T$45)
     590                    .dwattr $C$DW$45, DW_AT_location[DW_OP_reg13]
     591            
     592                    .dwpsn  file "../MP430DriverLib/driverlib/MSP430F5xx_6xx/timer_a.c",line 57,column 5,is_stmt,i
     593 000000 F0BC          AND.W     #64521,0(r12)         ; [] |57| 
         000002 FC09 
         000004 0000 
     594                    .dwpsn  file "../MP430DriverLib/driverlib/MSP430F5xx_6xx/timer_a.c",line 64,column 5,is_stmt,i
     595 000006 0CCF          MOVA      r12,r15               ; [] |64| 
     596 000008 503F          ADD.W     #32,r15               ; [] |64| 
         00000a 0020 
     597 00000c 4F0F          MOV.W     r15,r15               ; [] |64| 
     598 00000e F0BF          AND.W     #65528,0(r15)         ; [] |64| 
         000010 FFF8 
         000012 0000 
     599                    .dwpsn  file "../MP430DriverLib/driverlib/MSP430F5xx_6xx/timer_a.c",line 66,column 5,is_stmt,i
     600 000014 0CCF          MOVA      r12,r15               ; [] |66| 
     601 000016 503F          ADD.W     #32,r15               ; [] |66| 
         000018 0020 
     602 00001a 4F0E          MOV.W     r15,r14               ; [] |66| 
     603 00001c 403F          MOV.W     #7,r15                ; [] |66| 
         00001e 0007 
     604 000020 FD1F          AND.W     2(r13),r15            ; [] |66| 
         000022 0002 
     605 000024 DF8E          OR.W      r15,0(r14)            ; [] |66| 
         000026 0000 
     606                    .dwpsn  file "../MP430DriverLib/driverlib/MSP430F5xx_6xx/timer_a.c",line 67,column 5,is_stmt,i
     607 000028 4D1F          MOV.W     10(r13),r15           ; [] |67| 
         00002a 000A 
     608 00002c 5D2F          ADD.W     @r13,r15              ; [] |67| 
     609 00002e 5D1F          ADD.W     6(r13),r15            ; [] |67| 
         000030 0006 
     610 000032 403E          MOV.W     #8184,r14             ; [] |67| 
         000034 1FF8 
     611 000036 FD1E          AND.W     2(r13),r14            ; [] |67| 
         000038 0002 
MSP430 Assembler PC v21.6.1 Tue Dec 20 13:45:52 2022

Copyright (c) 2003-2018 Texas Instruments Incorporated
timer_a.asm                                                          PAGE   13

     612 00003a 0A5E          RLAM.W    #3,r14                ; [] |67| 
     613 00003c 5F0E          ADD.W     r15,r14               ; [] |67| 
     614 00003e DE8C          OR.W      r14,0(r12)            ; [] |67| 
         000040 0000 
     615                    .dwpsn  file "../MP430DriverLib/driverlib/MSP430F5xx_6xx/timer_a.c",line 72,column 5,is_stmt,i
     616 000042 93CD          TST.B     12(r13)               ; [] |72| 
         000044 000C 
     617 000046 2403          JEQ       $C$L1                 ; [] |72| 
     618                                                      ; [] |72| 
     619            ;* --------------------------------------------------------------------------*
     620                    .dwpsn  file "../MP430DriverLib/driverlib/MSP430F5xx_6xx/timer_a.c",line 73,column 9,is_stmt,i
     621 000048 D0BC          OR.W      #16,0(r12)            ; [] |73| 
         00004a 0010 
         00004c 0000 
     622            ;* --------------------------------------------------------------------------*
     623 00004e       $C$L1:    
     624                    .dwpsn  file "../MP430DriverLib/driverlib/MSP430F5xx_6xx/timer_a.c",line 76,column 5,is_stmt,i
     625 00004e 90BD          CMP.W     #16,8(r13)            ; [] |76| 
         000050 0010 
         000052 0008 
     626 000054 2407          JEQ       $C$L2                 ; [] |76| 
     627                                                      ; [] |76| 
     628            ;* --------------------------------------------------------------------------*
     629                    .dwpsn  file "../MP430DriverLib/driverlib/MSP430F5xx_6xx/timer_a.c",line 80,column 9,is_stmt,i
     630 000056 0CCF          MOVA      r12,r15               ; [] |80| 
     631 000058 532F          ADD.W     #2,r15                ; [] |80| 
     632 00005a 4F0F          MOV.W     r15,r15               ; [] |80| 
     633 00005c F0BF          AND.W     #65519,0(r15)         ; [] |80| 
         00005e FFEF 
         000060 0000 
     634 000062 3C06          JMP       $C$L3                 ; [] |80| 
     635                                                      ; [] |80| 
     636            ;* --------------------------------------------------------------------------*
     637 000064       $C$L2:    
     638                    .dwpsn  file "../MP430DriverLib/driverlib/MSP430F5xx_6xx/timer_a.c",line 78,column 9,is_stmt,i
     639 000064 0CCF          MOVA      r12,r15               ; [] |78| 
     640 000066 532F          ADD.W     #2,r15                ; [] |78| 
     641 000068 4F0F          MOV.W     r15,r15               ; [] |78| 
     642 00006a D0BF          OR.W      #16,0(r15)            ; [] |78| 
         00006c 0010 
         00006e 0000 
     643            ;* --------------------------------------------------------------------------*
     644 000070       $C$L3:    
     645                    .dwpsn  file "../MP430DriverLib/driverlib/MSP430F5xx_6xx/timer_a.c",line 83,column 5,is_stmt,i
     646 000070 503C          ADD.W     #18,r12               ; [] |83| 
         000072 0012 
     647 000074 4D9C          MOV.W     4(r13),0(r12)         ; [] |83| 
         000076 0004 
         000078 0000 
     648                    .dwpsn  file "../MP430DriverLib/driverlib/MSP430F5xx_6xx/timer_a.c",line 84,column 1,is_stmt,i
     649            $C$DW$46        .dwtag  DW_TAG_TI_branch
     650                    .dwattr $C$DW$46, DW_AT_low_pc(0x00)
     651                    .dwattr $C$DW$46, DW_AT_TI_return
     652            
     653 00007a 0110          RETA      ; [] 
MSP430 Assembler PC v21.6.1 Tue Dec 20 13:45:52 2022

Copyright (c) 2003-2018 Texas Instruments Incorporated
timer_a.asm                                                          PAGE   14

     654                    ; [] 
     655                    .dwattr $C$DW$41, DW_AT_TI_end_file("../MP430DriverLib/driverlib/MSP430F5xx_6xx/timer_a.c")
     656                    .dwattr $C$DW$41, DW_AT_TI_end_line(0x54)
     657                    .dwattr $C$DW$41, DW_AT_TI_end_column(0x01)
     658                    .dwendentry
     659                    .dwendtag $C$DW$41
     660            
     661 000000               .sect   ".text:Timer_A_initUpDownMode"
     662                    .clink
     663                    .global Timer_A_initUpDownMode
     664            
     665            $C$DW$47        .dwtag  DW_TAG_subprogram
     666                    .dwattr $C$DW$47, DW_AT_name("Timer_A_initUpDownMode")
     667                    .dwattr $C$DW$47, DW_AT_low_pc(Timer_A_initUpDownMode)
     668                    .dwattr $C$DW$47, DW_AT_high_pc(0x00)
     669                    .dwattr $C$DW$47, DW_AT_TI_symbol_name("Timer_A_initUpDownMode")
     670                    .dwattr $C$DW$47, DW_AT_external
     671                    .dwattr $C$DW$47, DW_AT_TI_begin_file("../MP430DriverLib/driverlib/MSP430F5xx_6xx/timer_a.c")
     672                    .dwattr $C$DW$47, DW_AT_TI_begin_line(0x56)
     673                    .dwattr $C$DW$47, DW_AT_TI_begin_column(0x06)
     674                    .dwattr $C$DW$47, DW_AT_decl_file("../MP430DriverLib/driverlib/MSP430F5xx_6xx/timer_a.c")
     675                    .dwattr $C$DW$47, DW_AT_decl_line(0x56)
     676                    .dwattr $C$DW$47, DW_AT_decl_column(0x06)
     677                    .dwattr $C$DW$47, DW_AT_TI_max_frame_size(0x04)
     678                    .dwpsn  file "../MP430DriverLib/driverlib/MSP430F5xx_6xx/timer_a.c",line 88,column 1,is_stmt,a
     679            
     680                    .dwfde $C$DW$CIE, Timer_A_initUpDownMode
     681            $C$DW$48        .dwtag  DW_TAG_formal_parameter
     682                    .dwattr $C$DW$48, DW_AT_name("baseAddress")
     683                    .dwattr $C$DW$48, DW_AT_TI_symbol_name("baseAddress")
     684                    .dwattr $C$DW$48, DW_AT_type(*$C$DW$T$23)
     685                    .dwattr $C$DW$48, DW_AT_location[DW_OP_reg12]
     686            
     687            $C$DW$49        .dwtag  DW_TAG_formal_parameter
     688                    .dwattr $C$DW$49, DW_AT_name("param")
     689                    .dwattr $C$DW$49, DW_AT_TI_symbol_name("param")
     690                    .dwattr $C$DW$49, DW_AT_type(*$C$DW$T$42)
     691                    .dwattr $C$DW$49, DW_AT_location[DW_OP_reg13]
     692            
     693            
     694            ;*****************************************************************************
     695            ;* FUNCTION NAME: Timer_A_initUpDownMode                                     *
     696            ;*                                                                           *
     697            ;*   Regs Modified     : SP,SR,r12,r14,r15                                   *
     698            ;*   Regs Used         : SP,SR,r12,r13,r14,r15                               *
     699            ;*   Local Frame Size  : 0 Args + 0 Auto + 0 Save = 0 byte                   *
     700            ;*****************************************************************************
     701 000000       Timer_A_initUpDownMode:
     702            ;* --------------------------------------------------------------------------*
     703                    .dwcfi  cfa_offset, 4
     704                    .dwcfi  save_reg_to_mem, 16, -4
     705            ;* r12   assigned to baseAddress
     706            $C$DW$50        .dwtag  DW_TAG_variable
     707                    .dwattr $C$DW$50, DW_AT_name("baseAddress")
     708                    .dwattr $C$DW$50, DW_AT_TI_symbol_name("baseAddress")
MSP430 Assembler PC v21.6.1 Tue Dec 20 13:45:52 2022

Copyright (c) 2003-2018 Texas Instruments Incorporated
timer_a.asm                                                          PAGE   15

     709                    .dwattr $C$DW$50, DW_AT_type(*$C$DW$T$23)
     710                    .dwattr $C$DW$50, DW_AT_location[DW_OP_reg12]
     711            
     712            ;* r13   assigned to param
     713            $C$DW$51        .dwtag  DW_TAG_variable
     714                    .dwattr $C$DW$51, DW_AT_name("param")
     715                    .dwattr $C$DW$51, DW_AT_TI_symbol_name("param")
     716                    .dwattr $C$DW$51, DW_AT_type(*$C$DW$T$42)
     717                    .dwattr $C$DW$51, DW_AT_location[DW_OP_reg13]
     718            
     719                    .dwpsn  file "../MP430DriverLib/driverlib/MSP430F5xx_6xx/timer_a.c",line 89,column 5,is_stmt,i
     720 000000 F0BC          AND.W     #64521,0(r12)         ; [] |89| 
         000002 FC09 
         000004 0000 
     721                    .dwpsn  file "../MP430DriverLib/driverlib/MSP430F5xx_6xx/timer_a.c",line 96,column 5,is_stmt,i
     722 000006 0CCF          MOVA      r12,r15               ; [] |96| 
     723 000008 503F          ADD.W     #32,r15               ; [] |96| 
         00000a 0020 
     724 00000c 4F0F          MOV.W     r15,r15               ; [] |96| 
     725 00000e F0BF          AND.W     #65528,0(r15)         ; [] |96| 
         000010 FFF8 
         000012 0000 
     726                    .dwpsn  file "../MP430DriverLib/driverlib/MSP430F5xx_6xx/timer_a.c",line 98,column 5,is_stmt,i
     727 000014 0CCF          MOVA      r12,r15               ; [] |98| 
     728 000016 503F          ADD.W     #32,r15               ; [] |98| 
         000018 0020 
     729 00001a 4F0E          MOV.W     r15,r14               ; [] |98| 
     730 00001c 403F          MOV.W     #7,r15                ; [] |98| 
         00001e 0007 
     731 000020 FD1F          AND.W     2(r13),r15            ; [] |98| 
         000022 0002 
     732 000024 DF8E          OR.W      r15,0(r14)            ; [] |98| 
         000026 0000 
     733                    .dwpsn  file "../MP430DriverLib/driverlib/MSP430F5xx_6xx/timer_a.c",line 99,column 5,is_stmt,i
     734 000028 4D1F          MOV.W     10(r13),r15           ; [] |99| 
         00002a 000A 
     735 00002c 5D2F          ADD.W     @r13,r15              ; [] |99| 
     736 00002e 5D1F          ADD.W     6(r13),r15            ; [] |99| 
         000030 0006 
     737 000032 403E          MOV.W     #8184,r14             ; [] |99| 
         000034 1FF8 
     738 000036 FD1E          AND.W     2(r13),r14            ; [] |99| 
         000038 0002 
     739 00003a 0A5E          RLAM.W    #3,r14                ; [] |99| 
     740 00003c 5F0E          ADD.W     r15,r14               ; [] |99| 
     741 00003e DE8C          OR.W      r14,0(r12)            ; [] |99| 
         000040 0000 
     742                    .dwpsn  file "../MP430DriverLib/driverlib/MSP430F5xx_6xx/timer_a.c",line 104,column 5,is_stmt,
     743 000042 93CD          TST.B     12(r13)               ; [] |104| 
         000044 000C 
     744 000046 2403          JEQ       $C$L4                 ; [] |104| 
     745                                                      ; [] |104| 
     746            ;* --------------------------------------------------------------------------*
     747                    .dwpsn  file "../MP430DriverLib/driverlib/MSP430F5xx_6xx/timer_a.c",line 105,column 9,is_stmt,
     748 000048 D0BC          OR.W      #48,0(r12)            ; [] |105| 
MSP430 Assembler PC v21.6.1 Tue Dec 20 13:45:52 2022

Copyright (c) 2003-2018 Texas Instruments Incorporated
timer_a.asm                                                          PAGE   16

         00004a 0030 
         00004c 0000 
     749            ;* --------------------------------------------------------------------------*
     750 00004e       $C$L4:    
     751                    .dwpsn  file "../MP430DriverLib/driverlib/MSP430F5xx_6xx/timer_a.c",line 108,column 5,is_stmt,
     752 00004e 90BD          CMP.W     #16,8(r13)            ; [] |108| 
         000050 0010 
         000052 0008 
     753 000054 2407          JEQ       $C$L5                 ; [] |108| 
     754                                                      ; [] |108| 
     755            ;* --------------------------------------------------------------------------*
     756                    .dwpsn  file "../MP430DriverLib/driverlib/MSP430F5xx_6xx/timer_a.c",line 112,column 9,is_stmt,
     757 000056 0CCF          MOVA      r12,r15               ; [] |112| 
     758 000058 532F          ADD.W     #2,r15                ; [] |112| 
     759 00005a 4F0F          MOV.W     r15,r15               ; [] |112| 
     760 00005c F0BF          AND.W     #65519,0(r15)         ; [] |112| 
         00005e FFEF 
         000060 0000 
     761 000062 3C06          JMP       $C$L6                 ; [] |112| 
     762                                                      ; [] |112| 
     763            ;* --------------------------------------------------------------------------*
     764 000064       $C$L5:    
     765                    .dwpsn  file "../MP430DriverLib/driverlib/MSP430F5xx_6xx/timer_a.c",line 110,column 9,is_stmt,
     766 000064 0CCF          MOVA      r12,r15               ; [] |110| 
     767 000066 532F          ADD.W     #2,r15                ; [] |110| 
     768 000068 4F0F          MOV.W     r15,r15               ; [] |110| 
     769 00006a D0BF          OR.W      #16,0(r15)            ; [] |110| 
         00006c 0010 
         00006e 0000 
     770            ;* --------------------------------------------------------------------------*
     771 000070       $C$L6:    
     772                    .dwpsn  file "../MP430DriverLib/driverlib/MSP430F5xx_6xx/timer_a.c",line 115,column 5,is_stmt,
     773 000070 503C          ADD.W     #18,r12               ; [] |115| 
         000072 0012 
     774 000074 4D9C          MOV.W     4(r13),0(r12)         ; [] |115| 
         000076 0004 
         000078 0000 
     775                    .dwpsn  file "../MP430DriverLib/driverlib/MSP430F5xx_6xx/timer_a.c",line 116,column 1,is_stmt,
     776            $C$DW$52        .dwtag  DW_TAG_TI_branch
     777                    .dwattr $C$DW$52, DW_AT_low_pc(0x00)
     778                    .dwattr $C$DW$52, DW_AT_TI_return
     779            
     780 00007a 0110          RETA      ; [] 
     781                    ; [] 
     782                    .dwattr $C$DW$47, DW_AT_TI_end_file("../MP430DriverLib/driverlib/MSP430F5xx_6xx/timer_a.c")
     783                    .dwattr $C$DW$47, DW_AT_TI_end_line(0x74)
     784                    .dwattr $C$DW$47, DW_AT_TI_end_column(0x01)
     785                    .dwendentry
     786                    .dwendtag $C$DW$47
     787            
     788 000000               .sect   ".text:Timer_A_initContinuousMode"
     789                    .clink
     790                    .global Timer_A_initContinuousMode
     791            
     792            $C$DW$53        .dwtag  DW_TAG_subprogram
MSP430 Assembler PC v21.6.1 Tue Dec 20 13:45:52 2022

Copyright (c) 2003-2018 Texas Instruments Incorporated
timer_a.asm                                                          PAGE   17

     793                    .dwattr $C$DW$53, DW_AT_name("Timer_A_initContinuousMode")
     794                    .dwattr $C$DW$53, DW_AT_low_pc(Timer_A_initContinuousMode)
     795                    .dwattr $C$DW$53, DW_AT_high_pc(0x00)
     796                    .dwattr $C$DW$53, DW_AT_TI_symbol_name("Timer_A_initContinuousMode")
     797                    .dwattr $C$DW$53, DW_AT_external
     798                    .dwattr $C$DW$53, DW_AT_TI_begin_file("../MP430DriverLib/driverlib/MSP430F5xx_6xx/timer_a.c")
     799                    .dwattr $C$DW$53, DW_AT_TI_begin_line(0x1d)
     800                    .dwattr $C$DW$53, DW_AT_TI_begin_column(0x06)
     801                    .dwattr $C$DW$53, DW_AT_decl_file("../MP430DriverLib/driverlib/MSP430F5xx_6xx/timer_a.c")
     802                    .dwattr $C$DW$53, DW_AT_decl_line(0x1d)
     803                    .dwattr $C$DW$53, DW_AT_decl_column(0x06)
     804                    .dwattr $C$DW$53, DW_AT_TI_max_frame_size(0x04)
     805                    .dwpsn  file "../MP430DriverLib/driverlib/MSP430F5xx_6xx/timer_a.c",line 31,column 1,is_stmt,a
     806            
     807                    .dwfde $C$DW$CIE, Timer_A_initContinuousMode
     808            $C$DW$54        .dwtag  DW_TAG_formal_parameter
     809                    .dwattr $C$DW$54, DW_AT_name("baseAddress")
     810                    .dwattr $C$DW$54, DW_AT_TI_symbol_name("baseAddress")
     811                    .dwattr $C$DW$54, DW_AT_type(*$C$DW$T$23)
     812                    .dwattr $C$DW$54, DW_AT_location[DW_OP_reg12]
     813            
     814            $C$DW$55        .dwtag  DW_TAG_formal_parameter
     815                    .dwattr $C$DW$55, DW_AT_name("param")
     816                    .dwattr $C$DW$55, DW_AT_TI_symbol_name("param")
     817                    .dwattr $C$DW$55, DW_AT_type(*$C$DW$T$39)
     818                    .dwattr $C$DW$55, DW_AT_location[DW_OP_reg13]
     819            
     820            
     821            ;*****************************************************************************
     822            ;* FUNCTION NAME: Timer_A_initContinuousMode                                 *
     823            ;*                                                                           *
     824            ;*   Regs Modified     : SP,SR,r14,r15                                       *
     825            ;*   Regs Used         : SP,SR,r12,r13,r14,r15                               *
     826            ;*   Local Frame Size  : 0 Args + 0 Auto + 0 Save = 0 byte                   *
     827            ;*****************************************************************************
     828 000000       Timer_A_initContinuousMode:
     829            ;* --------------------------------------------------------------------------*
     830                    .dwcfi  cfa_offset, 4
     831                    .dwcfi  save_reg_to_mem, 16, -4
     832            ;* r12   assigned to baseAddress
     833            $C$DW$56        .dwtag  DW_TAG_variable
     834                    .dwattr $C$DW$56, DW_AT_name("baseAddress")
     835                    .dwattr $C$DW$56, DW_AT_TI_symbol_name("baseAddress")
     836                    .dwattr $C$DW$56, DW_AT_type(*$C$DW$T$23)
     837                    .dwattr $C$DW$56, DW_AT_location[DW_OP_reg12]
     838            
     839            ;* r13   assigned to param
     840            $C$DW$57        .dwtag  DW_TAG_variable
     841                    .dwattr $C$DW$57, DW_AT_name("param")
     842                    .dwattr $C$DW$57, DW_AT_TI_symbol_name("param")
     843                    .dwattr $C$DW$57, DW_AT_type(*$C$DW$T$39)
     844                    .dwattr $C$DW$57, DW_AT_location[DW_OP_reg13]
     845            
     846                    .dwpsn  file "../MP430DriverLib/driverlib/MSP430F5xx_6xx/timer_a.c",line 33,column 5,is_stmt,i
     847 000000 F0BC          AND.W     #64521,0(r12)         ; [] |33| 
MSP430 Assembler PC v21.6.1 Tue Dec 20 13:45:52 2022

Copyright (c) 2003-2018 Texas Instruments Incorporated
timer_a.asm                                                          PAGE   18

         000002 FC09 
         000004 0000 
     848                    .dwpsn  file "../MP430DriverLib/driverlib/MSP430F5xx_6xx/timer_a.c",line 40,column 5,is_stmt,i
     849 000006 0CCF          MOVA      r12,r15               ; [] |40| 
     850 000008 503F          ADD.W     #32,r15               ; [] |40| 
         00000a 0020 
     851 00000c 4F0F          MOV.W     r15,r15               ; [] |40| 
     852 00000e F0BF          AND.W     #65528,0(r15)         ; [] |40| 
         000010 FFF8 
         000012 0000 
     853                    .dwpsn  file "../MP430DriverLib/driverlib/MSP430F5xx_6xx/timer_a.c",line 42,column 5,is_stmt,i
     854 000014 0CCF          MOVA      r12,r15               ; [] |42| 
     855 000016 503F          ADD.W     #32,r15               ; [] |42| 
         000018 0020 
     856 00001a 4F0E          MOV.W     r15,r14               ; [] |42| 
     857 00001c 403F          MOV.W     #7,r15                ; [] |42| 
         00001e 0007 
     858 000020 FD1F          AND.W     2(r13),r15            ; [] |42| 
         000022 0002 
     859 000024 DF8E          OR.W      r15,0(r14)            ; [] |42| 
         000026 0000 
     860                    .dwpsn  file "../MP430DriverLib/driverlib/MSP430F5xx_6xx/timer_a.c",line 43,column 5,is_stmt,i
     861 000028 4D1F          MOV.W     6(r13),r15            ; [] |43| 
         00002a 0006 
     862 00002c 5D2F          ADD.W     @r13,r15              ; [] |43| 
     863 00002e 5D1F          ADD.W     4(r13),r15            ; [] |43| 
         000030 0004 
     864 000032 403E          MOV.W     #8184,r14             ; [] |43| 
         000034 1FF8 
     865 000036 FD1E          AND.W     2(r13),r14            ; [] |43| 
         000038 0002 
     866 00003a 0A5E          RLAM.W    #3,r14                ; [] |43| 
     867 00003c 5F0E          ADD.W     r15,r14               ; [] |43| 
     868 00003e DE8C          OR.W      r14,0(r12)            ; [] |43| 
         000040 0000 
     869                    .dwpsn  file "../MP430DriverLib/driverlib/MSP430F5xx_6xx/timer_a.c",line 48,column 5,is_stmt,i
     870 000042 93CD          TST.B     8(r13)                ; [] |48| 
         000044 0008 
     871 000046 2403          JEQ       $C$L7                 ; [] |48| 
     872                                                      ; [] |48| 
     873            ;* --------------------------------------------------------------------------*
     874                    .dwpsn  file "../MP430DriverLib/driverlib/MSP430F5xx_6xx/timer_a.c",line 49,column 9,is_stmt,i
     875 000048 D0BC          OR.W      #32,0(r12)            ; [] |49| 
         00004a 0020 
         00004c 0000 
     876            ;* --------------------------------------------------------------------------*
     877 00004e       $C$L7:    
     878                    .dwpsn  file "../MP430DriverLib/driverlib/MSP430F5xx_6xx/timer_a.c",line 51,column 1,is_stmt,i
     879            $C$DW$58        .dwtag  DW_TAG_TI_branch
     880                    .dwattr $C$DW$58, DW_AT_low_pc(0x00)
     881                    .dwattr $C$DW$58, DW_AT_TI_return
     882            
     883 00004e 0110          RETA      ; [] 
     884                    ; [] 
     885                    .dwattr $C$DW$53, DW_AT_TI_end_file("../MP430DriverLib/driverlib/MSP430F5xx_6xx/timer_a.c")
MSP430 Assembler PC v21.6.1 Tue Dec 20 13:45:52 2022

Copyright (c) 2003-2018 Texas Instruments Incorporated
timer_a.asm                                                          PAGE   19

     886                    .dwattr $C$DW$53, DW_AT_TI_end_line(0x33)
     887                    .dwattr $C$DW$53, DW_AT_TI_end_column(0x01)
     888                    .dwendentry
     889                    .dwendtag $C$DW$53
     890            
     891 000000               .sect   ".text:Timer_A_initCompareMode"
     892                    .clink
     893                    .global Timer_A_initCompareMode
     894            
     895            $C$DW$59        .dwtag  DW_TAG_subprogram
     896                    .dwattr $C$DW$59, DW_AT_name("Timer_A_initCompareMode")
     897                    .dwattr $C$DW$59, DW_AT_low_pc(Timer_A_initCompareMode)
     898                    .dwattr $C$DW$59, DW_AT_high_pc(0x00)
     899                    .dwattr $C$DW$59, DW_AT_TI_symbol_name("Timer_A_initCompareMode")
     900                    .dwattr $C$DW$59, DW_AT_external
     901                    .dwattr $C$DW$59, DW_AT_TI_begin_file("../MP430DriverLib/driverlib/MSP430F5xx_6xx/timer_a.c")
     902                    .dwattr $C$DW$59, DW_AT_TI_begin_line(0x8c)
     903                    .dwattr $C$DW$59, DW_AT_TI_begin_column(0x06)
     904                    .dwattr $C$DW$59, DW_AT_decl_file("../MP430DriverLib/driverlib/MSP430F5xx_6xx/timer_a.c")
     905                    .dwattr $C$DW$59, DW_AT_decl_line(0x8c)
     906                    .dwattr $C$DW$59, DW_AT_decl_column(0x06)
     907                    .dwattr $C$DW$59, DW_AT_TI_max_frame_size(0x04)
     908                    .dwpsn  file "../MP430DriverLib/driverlib/MSP430F5xx_6xx/timer_a.c",line 142,column 1,is_stmt,
     909            
     910                    .dwfde $C$DW$CIE, Timer_A_initCompareMode
     911            $C$DW$60        .dwtag  DW_TAG_formal_parameter
     912                    .dwattr $C$DW$60, DW_AT_name("baseAddress")
     913                    .dwattr $C$DW$60, DW_AT_TI_symbol_name("baseAddress")
     914                    .dwattr $C$DW$60, DW_AT_type(*$C$DW$T$23)
     915                    .dwattr $C$DW$60, DW_AT_location[DW_OP_reg12]
     916            
     917            $C$DW$61        .dwtag  DW_TAG_formal_parameter
     918                    .dwattr $C$DW$61, DW_AT_name("param")
     919                    .dwattr $C$DW$61, DW_AT_TI_symbol_name("param")
     920                    .dwattr $C$DW$61, DW_AT_type(*$C$DW$T$36)
     921                    .dwattr $C$DW$61, DW_AT_location[DW_OP_reg13]
     922            
     923            
     924            ;*****************************************************************************
     925            ;* FUNCTION NAME: Timer_A_initCompareMode                                    *
     926            ;*                                                                           *
     927            ;*   Regs Modified     : SP,SR,r12,r14,r15                                   *
     928            ;*   Regs Used         : SP,SR,r12,r13,r14,r15                               *
     929            ;*   Local Frame Size  : 0 Args + 0 Auto + 0 Save = 0 byte                   *
     930            ;*****************************************************************************
     931 000000       Timer_A_initCompareMode:
     932            ;* --------------------------------------------------------------------------*
     933                    .dwcfi  cfa_offset, 4
     934                    .dwcfi  save_reg_to_mem, 16, -4
     935            ;* r12   assigned to baseAddress
     936            $C$DW$62        .dwtag  DW_TAG_variable
     937                    .dwattr $C$DW$62, DW_AT_name("baseAddress")
     938                    .dwattr $C$DW$62, DW_AT_TI_symbol_name("baseAddress")
     939                    .dwattr $C$DW$62, DW_AT_type(*$C$DW$T$23)
     940                    .dwattr $C$DW$62, DW_AT_location[DW_OP_reg12]
MSP430 Assembler PC v21.6.1 Tue Dec 20 13:45:52 2022

Copyright (c) 2003-2018 Texas Instruments Incorporated
timer_a.asm                                                          PAGE   20

     941            
     942            ;* r13   assigned to param
     943            $C$DW$63        .dwtag  DW_TAG_variable
     944                    .dwattr $C$DW$63, DW_AT_name("param")
     945                    .dwattr $C$DW$63, DW_AT_TI_symbol_name("param")
     946                    .dwattr $C$DW$63, DW_AT_type(*$C$DW$T$36)
     947                    .dwattr $C$DW$63, DW_AT_location[DW_OP_reg13]
     948            
     949                    .dwpsn  file "../MP430DriverLib/driverlib/MSP430F5xx_6xx/timer_a.c",line 143,column 5,is_stmt,
     950 000000 0CCF          MOVA      r12,r15               ; [] |143| 
     951 000002 5D2F          ADD.W     @r13,r15              ; [] |143| 
     952 000004 4F0F          MOV.W     r15,r15               ; [] |143| 
     953 000006 F0BF          AND.W     #65279,0(r15)         ; [] |143| 
         000008 FEFF 
         00000a 0000 
     954                    .dwpsn  file "../MP430DriverLib/driverlib/MSP430F5xx_6xx/timer_a.c",line 145,column 5,is_stmt,
     955 00000c 0CCF          MOVA      r12,r15               ; [] |145| 
     956 00000e 5D2F          ADD.W     @r13,r15              ; [] |145| 
     957 000010 4F0F          MOV.W     r15,r15               ; [] |145| 
     958 000012 F0BF          AND.W     #65295,0(r15)         ; [] |145| 
         000014 FF0F 
         000016 0000 
     959                    .dwpsn  file "../MP430DriverLib/driverlib/MSP430F5xx_6xx/timer_a.c",line 150,column 5,is_stmt,
     960 000018 0CCF          MOVA      r12,r15               ; [] |150| 
     961 00001a 5D2F          ADD.W     @r13,r15              ; [] |150| 
     962 00001c 4F0E          MOV.W     r15,r14               ; [] |150| 
     963 00001e 4D1F          MOV.W     4(r13),r15            ; [] |150| 
         000020 0004 
     964 000022 5D1F          ADD.W     2(r13),r15            ; [] |150| 
         000024 0002 
     965 000026 DF8E          OR.W      r15,0(r14)            ; [] |150| 
         000028 0000 
     966                    .dwpsn  file "../MP430DriverLib/driverlib/MSP430F5xx_6xx/timer_a.c",line 154,column 5,is_stmt,
     967 00002a 5D2C          ADD.W     @r13,r12              ; [] |154| 
     968 00002c 503C          ADD.W     #16,r12               ; [] |154| 
         00002e 0010 
     969 000030 4D9C          MOV.W     6(r13),0(r12)         ; [] |154| 
         000032 0006 
         000034 0000 
     970                    .dwpsn  file "../MP430DriverLib/driverlib/MSP430F5xx_6xx/timer_a.c",line 155,column 1,is_stmt,
     971            $C$DW$64        .dwtag  DW_TAG_TI_branch
     972                    .dwattr $C$DW$64, DW_AT_low_pc(0x00)
     973                    .dwattr $C$DW$64, DW_AT_TI_return
     974            
     975 000036 0110          RETA      ; [] 
     976                    ; [] 
     977                    .dwattr $C$DW$59, DW_AT_TI_end_file("../MP430DriverLib/driverlib/MSP430F5xx_6xx/timer_a.c")
     978                    .dwattr $C$DW$59, DW_AT_TI_end_line(0x9b)
     979                    .dwattr $C$DW$59, DW_AT_TI_end_column(0x01)
     980                    .dwendentry
     981                    .dwendtag $C$DW$59
     982            
     983 000000               .sect   ".text:Timer_A_initCaptureMode"
     984                    .clink
     985                    .global Timer_A_initCaptureMode
MSP430 Assembler PC v21.6.1 Tue Dec 20 13:45:52 2022

Copyright (c) 2003-2018 Texas Instruments Incorporated
timer_a.asm                                                          PAGE   21

     986            
     987            $C$DW$65        .dwtag  DW_TAG_subprogram
     988                    .dwattr $C$DW$65, DW_AT_name("Timer_A_initCaptureMode")
     989                    .dwattr $C$DW$65, DW_AT_low_pc(Timer_A_initCaptureMode)
     990                    .dwattr $C$DW$65, DW_AT_high_pc(0x00)
     991                    .dwattr $C$DW$65, DW_AT_TI_symbol_name("Timer_A_initCaptureMode")
     992                    .dwattr $C$DW$65, DW_AT_external
     993                    .dwattr $C$DW$65, DW_AT_TI_begin_file("../MP430DriverLib/driverlib/MSP430F5xx_6xx/timer_a.c")
     994                    .dwattr $C$DW$65, DW_AT_TI_begin_line(0x76)
     995                    .dwattr $C$DW$65, DW_AT_TI_begin_column(0x06)
     996                    .dwattr $C$DW$65, DW_AT_decl_file("../MP430DriverLib/driverlib/MSP430F5xx_6xx/timer_a.c")
     997                    .dwattr $C$DW$65, DW_AT_decl_line(0x76)
     998                    .dwattr $C$DW$65, DW_AT_decl_column(0x06)
     999                    .dwattr $C$DW$65, DW_AT_TI_max_frame_size(0x04)
    1000                    .dwpsn  file "../MP430DriverLib/driverlib/MSP430F5xx_6xx/timer_a.c",line 120,column 1,is_stmt,
    1001            
    1002                    .dwfde $C$DW$CIE, Timer_A_initCaptureMode
    1003            $C$DW$66        .dwtag  DW_TAG_formal_parameter
    1004                    .dwattr $C$DW$66, DW_AT_name("baseAddress")
    1005                    .dwattr $C$DW$66, DW_AT_TI_symbol_name("baseAddress")
    1006                    .dwattr $C$DW$66, DW_AT_type(*$C$DW$T$23)
    1007                    .dwattr $C$DW$66, DW_AT_location[DW_OP_reg12]
    1008            
    1009            $C$DW$67        .dwtag  DW_TAG_formal_parameter
    1010                    .dwattr $C$DW$67, DW_AT_name("param")
    1011                    .dwattr $C$DW$67, DW_AT_TI_symbol_name("param")
    1012                    .dwattr $C$DW$67, DW_AT_type(*$C$DW$T$33)
    1013                    .dwattr $C$DW$67, DW_AT_location[DW_OP_reg13]
    1014            
    1015            
    1016            ;*****************************************************************************
    1017            ;* FUNCTION NAME: Timer_A_initCaptureMode                                    *
    1018            ;*                                                                           *
    1019            ;*   Regs Modified     : SP,SR,r12,r14,r15                                   *
    1020            ;*   Regs Used         : SP,SR,r12,r13,r14,r15                               *
    1021            ;*   Local Frame Size  : 0 Args + 0 Auto + 0 Save = 0 byte                   *
    1022            ;*****************************************************************************
    1023 000000       Timer_A_initCaptureMode:
    1024            ;* --------------------------------------------------------------------------*
    1025                    .dwcfi  cfa_offset, 4
    1026                    .dwcfi  save_reg_to_mem, 16, -4
    1027            ;* r12   assigned to baseAddress
    1028            $C$DW$68        .dwtag  DW_TAG_variable
    1029                    .dwattr $C$DW$68, DW_AT_name("baseAddress")
    1030                    .dwattr $C$DW$68, DW_AT_TI_symbol_name("baseAddress")
    1031                    .dwattr $C$DW$68, DW_AT_type(*$C$DW$T$23)
    1032                    .dwattr $C$DW$68, DW_AT_location[DW_OP_reg12]
    1033            
    1034            ;* r13   assigned to param
    1035            $C$DW$69        .dwtag  DW_TAG_variable
    1036                    .dwattr $C$DW$69, DW_AT_name("param")
    1037                    .dwattr $C$DW$69, DW_AT_TI_symbol_name("param")
    1038                    .dwattr $C$DW$69, DW_AT_type(*$C$DW$T$33)
    1039                    .dwattr $C$DW$69, DW_AT_location[DW_OP_reg13]
    1040            
MSP430 Assembler PC v21.6.1 Tue Dec 20 13:45:52 2022

Copyright (c) 2003-2018 Texas Instruments Incorporated
timer_a.asm                                                          PAGE   22

    1041                    .dwpsn  file "../MP430DriverLib/driverlib/MSP430F5xx_6xx/timer_a.c",line 121,column 5,is_stmt,
    1042 000000 0CCF          MOVA      r12,r15               ; [] |121| 
    1043 000002 5D2F          ADD.W     @r13,r15              ; [] |121| 
    1044 000004 4F0F          MOV.W     r15,r15               ; [] |121| 
    1045 000006 D0BF          OR.W      #256,0(r15)           ; [] |121| 
         000008 0100 
         00000a 0000 
    1046                    .dwpsn  file "../MP430DriverLib/driverlib/MSP430F5xx_6xx/timer_a.c",line 123,column 5,is_stmt,
    1047 00000c 0CCF          MOVA      r12,r15               ; [] |123| 
    1048 00000e 5D2F          ADD.W     @r13,r15              ; [] |123| 
    1049 000010 4F0F          MOV.W     r15,r15               ; [] |123| 
    1050 000012 F0BF          AND.W     #18425,0(r15)         ; [] |123| 
         000014 47F9 
         000016 0000 
    1051                    .dwpsn  file "../MP430DriverLib/driverlib/MSP430F5xx_6xx/timer_a.c",line 132,column 5,is_stmt,
    1052 000018 5D2C          ADD.W     @r13,r12              ; [] |132| 
    1053 00001a 4C0E          MOV.W     r12,r14               ; [] |132| 
    1054 00001c 4D1F          MOV.W     4(r13),r15            ; [] |132| 
         00001e 0004 
    1055 000020 5D1F          ADD.W     2(r13),r15            ; [] |132| 
         000022 0002 
    1056 000024 5D1F          ADD.W     6(r13),r15            ; [] |132| 
         000026 0006 
    1057 000028 5D1F          ADD.W     8(r13),r15            ; [] |132| 
         00002a 0008 
    1058 00002c 5D1F          ADD.W     10(r13),r15           ; [] |132| 
         00002e 000A 
    1059 000030 DF8E          OR.W      r15,0(r14)            ; [] |132| 
         000032 0000 
    1060                    .dwpsn  file "../MP430DriverLib/driverlib/MSP430F5xx_6xx/timer_a.c",line 138,column 1,is_stmt,
    1061            $C$DW$70        .dwtag  DW_TAG_TI_branch
    1062                    .dwattr $C$DW$70, DW_AT_low_pc(0x00)
    1063                    .dwattr $C$DW$70, DW_AT_TI_return
    1064            
    1065 000034 0110          RETA      ; [] 
    1066                    ; [] 
    1067                    .dwattr $C$DW$65, DW_AT_TI_end_file("../MP430DriverLib/driverlib/MSP430F5xx_6xx/timer_a.c")
    1068                    .dwattr $C$DW$65, DW_AT_TI_end_line(0x8a)
    1069                    .dwattr $C$DW$65, DW_AT_TI_end_column(0x01)
    1070                    .dwendentry
    1071                    .dwendtag $C$DW$65
    1072            
    1073 000000               .sect   ".text:Timer_A_getSynchronizedCaptureCompareInput"
    1074                    .clink
    1075                    .global Timer_A_getSynchronizedCaptureCompareInput
    1076            
    1077            $C$DW$71        .dwtag  DW_TAG_subprogram
    1078                    .dwattr $C$DW$71, DW_AT_name("Timer_A_getSynchronizedCaptureCompareInput")
    1079                    .dwattr $C$DW$71, DW_AT_low_pc(Timer_A_getSynchronizedCaptureCompareInput)
    1080                    .dwattr $C$DW$71, DW_AT_high_pc(0x00)
    1081                    .dwattr $C$DW$71, DW_AT_TI_symbol_name("Timer_A_getSynchronizedCaptureCompareInput")
    1082                    .dwattr $C$DW$71, DW_AT_external
    1083                    .dwattr $C$DW$71, DW_AT_type(*$C$DW$T$58)
    1084                    .dwattr $C$DW$71, DW_AT_TI_begin_file("../MP430DriverLib/driverlib/MSP430F5xx_6xx/timer_a.c")
    1085                    .dwattr $C$DW$71, DW_AT_TI_begin_line(0xc7)
MSP430 Assembler PC v21.6.1 Tue Dec 20 13:45:52 2022

Copyright (c) 2003-2018 Texas Instruments Incorporated
timer_a.asm                                                          PAGE   23

    1086                    .dwattr $C$DW$71, DW_AT_TI_begin_column(0x09)
    1087                    .dwattr $C$DW$71, DW_AT_decl_file("../MP430DriverLib/driverlib/MSP430F5xx_6xx/timer_a.c")
    1088                    .dwattr $C$DW$71, DW_AT_decl_line(0xc7)
    1089                    .dwattr $C$DW$71, DW_AT_decl_column(0x09)
    1090                    .dwattr $C$DW$71, DW_AT_TI_max_frame_size(0x04)
    1091                    .dwpsn  file "../MP430DriverLib/driverlib/MSP430F5xx_6xx/timer_a.c",line 204,column 1,is_stmt,
    1092            
    1093                    .dwfde $C$DW$CIE, Timer_A_getSynchronizedCaptureCompareInput
    1094            $C$DW$72        .dwtag  DW_TAG_formal_parameter
    1095                    .dwattr $C$DW$72, DW_AT_name("baseAddress")
    1096                    .dwattr $C$DW$72, DW_AT_TI_symbol_name("baseAddress")
    1097                    .dwattr $C$DW$72, DW_AT_type(*$C$DW$T$23)
    1098                    .dwattr $C$DW$72, DW_AT_location[DW_OP_reg12]
    1099            
    1100            $C$DW$73        .dwtag  DW_TAG_formal_parameter
    1101                    .dwattr $C$DW$73, DW_AT_name("captureCompareRegister")
    1102                    .dwattr $C$DW$73, DW_AT_TI_symbol_name("captureCompareRegister")
    1103                    .dwattr $C$DW$73, DW_AT_type(*$C$DW$T$23)
    1104                    .dwattr $C$DW$73, DW_AT_location[DW_OP_reg13]
    1105            
    1106            $C$DW$74        .dwtag  DW_TAG_formal_parameter
    1107                    .dwattr $C$DW$74, DW_AT_name("synchronized")
    1108                    .dwattr $C$DW$74, DW_AT_TI_symbol_name("synchronized")
    1109                    .dwattr $C$DW$74, DW_AT_type(*$C$DW$T$23)
    1110                    .dwattr $C$DW$74, DW_AT_location[DW_OP_reg14]
    1111            
    1112            
    1113            ;*****************************************************************************
    1114            ;* FUNCTION NAME: Timer_A_getSynchronizedCaptureCompareInput                 *
    1115            ;*                                                                           *
    1116            ;*   Regs Modified     : SP,SR,r12,r15                                       *
    1117            ;*   Regs Used         : SP,SR,r12,r13,r14,r15                               *
    1118            ;*   Local Frame Size  : 0 Args + 0 Auto + 0 Save = 0 byte                   *
    1119            ;*****************************************************************************
    1120 000000       Timer_A_getSynchronizedCaptureCompareInput:
    1121            ;* --------------------------------------------------------------------------*
    1122                    .dwcfi  cfa_offset, 4
    1123                    .dwcfi  save_reg_to_mem, 16, -4
    1124            ;* r13   assigned to captureCompareRegister
    1125            $C$DW$75        .dwtag  DW_TAG_variable
    1126                    .dwattr $C$DW$75, DW_AT_name("captureCompareRegister")
    1127                    .dwattr $C$DW$75, DW_AT_TI_symbol_name("captureCompareRegister")
    1128                    .dwattr $C$DW$75, DW_AT_type(*$C$DW$T$23)
    1129                    .dwattr $C$DW$75, DW_AT_location[DW_OP_reg13]
    1130            
    1131            ;* r14   assigned to synchronized
    1132            $C$DW$76        .dwtag  DW_TAG_variable
    1133                    .dwattr $C$DW$76, DW_AT_name("synchronized")
    1134                    .dwattr $C$DW$76, DW_AT_TI_symbol_name("synchronized")
    1135                    .dwattr $C$DW$76, DW_AT_type(*$C$DW$T$23)
    1136                    .dwattr $C$DW$76, DW_AT_location[DW_OP_reg14]
    1137            
    1138                    .dwpsn  file "../MP430DriverLib/driverlib/MSP430F5xx_6xx/timer_a.c",line 206,column 9,is_stmt,
    1139 000000 434F          MOV.B     #0,r15                ; [] |206| 
    1140 000002 5D0C          ADD.W     r13,r12               ; [] |206| 
MSP430 Assembler PC v21.6.1 Tue Dec 20 13:45:52 2022

Copyright (c) 2003-2018 Texas Instruments Incorporated
timer_a.asm                                                          PAGE   24

    1141 000004 BC2E          BIT.W     @r12,r14              ; [] |206| 
    1142 000006 2401          JEQ       $C$L8                 ; [] |206| 
    1143                                                      ; [] |206| 
    1144            ;* --------------------------------------------------------------------------*
    1145 000008 435F          MOV.B     #1,r15                ; [] |206| 
    1146            ;* --------------------------------------------------------------------------*
    1147 00000a       $C$L8:    
    1148 00000a 0FCC          MOVA      r15,r12               ; [] |206| 
    1149                    .dwpsn  file "../MP430DriverLib/driverlib/MSP430F5xx_6xx/timer_a.c",line 210,column 1,is_stmt,
    1150            $C$DW$77        .dwtag  DW_TAG_TI_branch
    1151                    .dwattr $C$DW$77, DW_AT_low_pc(0x00)
    1152                    .dwattr $C$DW$77, DW_AT_TI_return
    1153            
    1154 00000c 0110          RETA      ; [] 
    1155                    ; [] 
    1156                    .dwattr $C$DW$71, DW_AT_TI_end_file("../MP430DriverLib/driverlib/MSP430F5xx_6xx/timer_a.c")
    1157                    .dwattr $C$DW$71, DW_AT_TI_end_line(0xd2)
    1158                    .dwattr $C$DW$71, DW_AT_TI_end_column(0x01)
    1159                    .dwendentry
    1160                    .dwendtag $C$DW$71
    1161            
    1162 000000               .sect   ".text:Timer_A_getOutputForOutputModeOutBitValue"
    1163                    .clink
    1164                    .global Timer_A_getOutputForOutputModeOutBitValue
    1165            
    1166            $C$DW$78        .dwtag  DW_TAG_subprogram
    1167                    .dwattr $C$DW$78, DW_AT_name("Timer_A_getOutputForOutputModeOutBitValue")
    1168                    .dwattr $C$DW$78, DW_AT_low_pc(Timer_A_getOutputForOutputModeOutBitValue)
    1169                    .dwattr $C$DW$78, DW_AT_high_pc(0x00)
    1170                    .dwattr $C$DW$78, DW_AT_TI_symbol_name("Timer_A_getOutputForOutputModeOutBitValue")
    1171                    .dwattr $C$DW$78, DW_AT_external
    1172                    .dwattr $C$DW$78, DW_AT_type(*$C$DW$T$58)
    1173                    .dwattr $C$DW$78, DW_AT_TI_begin_file("../MP430DriverLib/driverlib/MSP430F5xx_6xx/timer_a.c")
    1174                    .dwattr $C$DW$78, DW_AT_TI_begin_line(0xd4)
    1175                    .dwattr $C$DW$78, DW_AT_TI_begin_column(0x09)
    1176                    .dwattr $C$DW$78, DW_AT_decl_file("../MP430DriverLib/driverlib/MSP430F5xx_6xx/timer_a.c")
    1177                    .dwattr $C$DW$78, DW_AT_decl_line(0xd4)
    1178                    .dwattr $C$DW$78, DW_AT_decl_column(0x09)
    1179                    .dwattr $C$DW$78, DW_AT_TI_max_frame_size(0x04)
    1180                    .dwpsn  file "../MP430DriverLib/driverlib/MSP430F5xx_6xx/timer_a.c",line 216,column 1,is_stmt,
    1181            
    1182                    .dwfde $C$DW$CIE, Timer_A_getOutputForOutputModeOutBitValue
    1183            $C$DW$79        .dwtag  DW_TAG_formal_parameter
    1184                    .dwattr $C$DW$79, DW_AT_name("baseAddress")
    1185                    .dwattr $C$DW$79, DW_AT_TI_symbol_name("baseAddress")
    1186                    .dwattr $C$DW$79, DW_AT_type(*$C$DW$T$23)
    1187                    .dwattr $C$DW$79, DW_AT_location[DW_OP_reg12]
    1188            
    1189            $C$DW$80        .dwtag  DW_TAG_formal_parameter
    1190                    .dwattr $C$DW$80, DW_AT_name("captureCompareRegister")
    1191                    .dwattr $C$DW$80, DW_AT_TI_symbol_name("captureCompareRegister")
    1192                    .dwattr $C$DW$80, DW_AT_type(*$C$DW$T$23)
    1193                    .dwattr $C$DW$80, DW_AT_location[DW_OP_reg13]
    1194            
    1195            
MSP430 Assembler PC v21.6.1 Tue Dec 20 13:45:52 2022

Copyright (c) 2003-2018 Texas Instruments Incorporated
timer_a.asm                                                          PAGE   25

    1196            ;*****************************************************************************
    1197            ;* FUNCTION NAME: Timer_A_getOutputForOutputModeOutBitValue                  *
    1198            ;*                                                                           *
    1199            ;*   Regs Modified     : SP,SR,r12,r15                                       *
    1200            ;*   Regs Used         : SP,SR,r12,r13,r15                                   *
    1201            ;*   Local Frame Size  : 0 Args + 0 Auto + 0 Save = 0 byte                   *
    1202            ;*****************************************************************************
    1203 000000       Timer_A_getOutputForOutputModeOutBitValue:
    1204            ;* --------------------------------------------------------------------------*
    1205                    .dwcfi  cfa_offset, 4
    1206                    .dwcfi  save_reg_to_mem, 16, -4
    1207            ;* r13   assigned to captureCompareRegister
    1208            $C$DW$81        .dwtag  DW_TAG_variable
    1209                    .dwattr $C$DW$81, DW_AT_name("captureCompareRegister")
    1210                    .dwattr $C$DW$81, DW_AT_TI_symbol_name("captureCompareRegister")
    1211                    .dwattr $C$DW$81, DW_AT_type(*$C$DW$T$23)
    1212                    .dwattr $C$DW$81, DW_AT_location[DW_OP_reg13]
    1213            
    1214                    .dwpsn  file "../MP430DriverLib/driverlib/MSP430F5xx_6xx/timer_a.c",line 218,column 9,is_stmt,
    1215 000000 5D0C          ADD.W     r13,r12               ; [] |218| 
    1216 000002 422F          MOV.W     #4,r15                ; [] |218| 
    1217 000004 BC2F          BIT.W     @r12,r15              ; [] |218| 
    1218 000006 2402          JEQ       $C$L9                 ; [] |218| 
    1219                                                      ; [] |218| 
    1220            ;* --------------------------------------------------------------------------*
    1221 000008 426C          MOV.B     #4,r12                ; [] |218| 
    1222 00000a 3C01          JMP       $C$L10                ; [] |218| 
    1223                                                      ; [] |218| 
    1224            ;* --------------------------------------------------------------------------*
    1225 00000c       $C$L9:    
    1226 00000c 434C          MOV.B     #0,r12                ; [] |218| 
    1227            ;* --------------------------------------------------------------------------*
    1228 00000e       $C$L10:    
    1229                    .dwpsn  file "../MP430DriverLib/driverlib/MSP430F5xx_6xx/timer_a.c",line 222,column 1,is_stmt,
    1230            $C$DW$82        .dwtag  DW_TAG_TI_branch
    1231                    .dwattr $C$DW$82, DW_AT_low_pc(0x00)
    1232                    .dwattr $C$DW$82, DW_AT_TI_return
    1233            
    1234 00000e 0110          RETA      ; [] 
    1235                    ; [] 
    1236                    .dwattr $C$DW$78, DW_AT_TI_end_file("../MP430DriverLib/driverlib/MSP430F5xx_6xx/timer_a.c")
    1237                    .dwattr $C$DW$78, DW_AT_TI_end_line(0xde)
    1238                    .dwattr $C$DW$78, DW_AT_TI_end_column(0x01)
    1239                    .dwendentry
    1240                    .dwendtag $C$DW$78
    1241            
    1242 000000               .sect   ".text:Timer_A_getInterruptStatus"
    1243                    .clink
    1244                    .global Timer_A_getInterruptStatus
    1245            
    1246            $C$DW$83        .dwtag  DW_TAG_subprogram
    1247                    .dwattr $C$DW$83, DW_AT_name("Timer_A_getInterruptStatus")
    1248                    .dwattr $C$DW$83, DW_AT_low_pc(Timer_A_getInterruptStatus)
    1249                    .dwattr $C$DW$83, DW_AT_high_pc(0x00)
    1250                    .dwattr $C$DW$83, DW_AT_TI_symbol_name("Timer_A_getInterruptStatus")
MSP430 Assembler PC v21.6.1 Tue Dec 20 13:45:52 2022

Copyright (c) 2003-2018 Texas Instruments Incorporated
timer_a.asm                                                          PAGE   26

    1251                    .dwattr $C$DW$83, DW_AT_external
    1252                    .dwattr $C$DW$83, DW_AT_type(*$C$DW$T$155)
    1253                    .dwattr $C$DW$83, DW_AT_TI_begin_file("../MP430DriverLib/driverlib/MSP430F5xx_6xx/timer_a.c")
    1254                    .dwattr $C$DW$83, DW_AT_TI_begin_line(0xa7)
    1255                    .dwattr $C$DW$83, DW_AT_TI_begin_column(0x0a)
    1256                    .dwattr $C$DW$83, DW_AT_decl_file("../MP430DriverLib/driverlib/MSP430F5xx_6xx/timer_a.c")
    1257                    .dwattr $C$DW$83, DW_AT_decl_line(0xa7)
    1258                    .dwattr $C$DW$83, DW_AT_decl_column(0x0a)
    1259                    .dwattr $C$DW$83, DW_AT_TI_max_frame_size(0x04)
    1260                    .dwpsn  file "../MP430DriverLib/driverlib/MSP430F5xx_6xx/timer_a.c",line 168,column 1,is_stmt,
    1261            
    1262                    .dwfde $C$DW$CIE, Timer_A_getInterruptStatus
    1263            $C$DW$84        .dwtag  DW_TAG_formal_parameter
    1264                    .dwattr $C$DW$84, DW_AT_name("baseAddress")
    1265                    .dwattr $C$DW$84, DW_AT_TI_symbol_name("baseAddress")
    1266                    .dwattr $C$DW$84, DW_AT_type(*$C$DW$T$23)
    1267                    .dwattr $C$DW$84, DW_AT_location[DW_OP_reg12]
    1268            
    1269            
    1270            ;*****************************************************************************
    1271            ;* FUNCTION NAME: Timer_A_getInterruptStatus                                 *
    1272            ;*                                                                           *
    1273            ;*   Regs Modified     : SP,SR,r12,r13,r15                                   *
    1274            ;*   Regs Used         : SP,SR,r12,r13,r15                                   *
    1275            ;*   Local Frame Size  : 0 Args + 0 Auto + 0 Save = 0 byte                   *
    1276            ;*****************************************************************************
    1277 000000       Timer_A_getInterruptStatus:
    1278            ;* --------------------------------------------------------------------------*
    1279                    .dwcfi  cfa_offset, 4
    1280                    .dwcfi  save_reg_to_mem, 16, -4
    1281            ;* r12   assigned to baseAddress
    1282            $C$DW$85        .dwtag  DW_TAG_variable
    1283                    .dwattr $C$DW$85, DW_AT_name("baseAddress")
    1284                    .dwattr $C$DW$85, DW_AT_TI_symbol_name("baseAddress")
    1285                    .dwattr $C$DW$85, DW_AT_type(*$C$DW$T$23)
    1286                    .dwattr $C$DW$85, DW_AT_location[DW_OP_reg12]
    1287            
    1288                    .dwpsn  file "../MP430DriverLib/driverlib/MSP430F5xx_6xx/timer_a.c",line 169,column 5,is_stmt,
    1289 000000 431F          MOV.W     #1,r15                ; [] |169| 
    1290 000002 FC2F          AND.W     @r12,r15              ; [] |169| 
    1291 000004 0FCC          MOVA      r15,r12               ; [] |169| 
    1292 000006 430D          MOV.W     #0,r13                ; [] |169| 
    1293                    .dwpsn  file "../MP430DriverLib/driverlib/MSP430F5xx_6xx/timer_a.c",line 170,column 1,is_stmt,
    1294            $C$DW$86        .dwtag  DW_TAG_TI_branch
    1295                    .dwattr $C$DW$86, DW_AT_low_pc(0x00)
    1296                    .dwattr $C$DW$86, DW_AT_TI_return
    1297            
    1298 000008 0110          RETA      ; [] 
    1299                    ; [] 
    1300                    .dwattr $C$DW$83, DW_AT_TI_end_file("../MP430DriverLib/driverlib/MSP430F5xx_6xx/timer_a.c")
    1301                    .dwattr $C$DW$83, DW_AT_TI_end_line(0xaa)
    1302                    .dwattr $C$DW$83, DW_AT_TI_end_column(0x01)
    1303                    .dwendentry
    1304                    .dwendtag $C$DW$83
    1305            
MSP430 Assembler PC v21.6.1 Tue Dec 20 13:45:52 2022

Copyright (c) 2003-2018 Texas Instruments Incorporated
timer_a.asm                                                          PAGE   27

    1306 000000               .sect   ".text:Timer_A_getCounterValue"
    1307                    .clink
    1308                    .global Timer_A_getCounterValue
    1309            
    1310            $C$DW$87        .dwtag  DW_TAG_subprogram
    1311                    .dwattr $C$DW$87, DW_AT_name("Timer_A_getCounterValue")
    1312                    .dwattr $C$DW$87, DW_AT_low_pc(Timer_A_getCounterValue)
    1313                    .dwattr $C$DW$87, DW_AT_high_pc(0x00)
    1314                    .dwattr $C$DW$87, DW_AT_TI_symbol_name("Timer_A_getCounterValue")
    1315                    .dwattr $C$DW$87, DW_AT_external
    1316                    .dwattr $C$DW$87, DW_AT_type(*$C$DW$T$23)
    1317                    .dwattr $C$DW$87, DW_AT_TI_begin_file("../MP430DriverLib/driverlib/MSP430F5xx_6xx/timer_a.c")
    1318                    .dwattr $C$DW$87, DW_AT_TI_begin_line(0x12e)
    1319                    .dwattr $C$DW$87, DW_AT_TI_begin_column(0x0a)
    1320                    .dwattr $C$DW$87, DW_AT_decl_file("../MP430DriverLib/driverlib/MSP430F5xx_6xx/timer_a.c")
    1321                    .dwattr $C$DW$87, DW_AT_decl_line(0x12e)
    1322                    .dwattr $C$DW$87, DW_AT_decl_column(0x0a)
    1323                    .dwattr $C$DW$87, DW_AT_TI_max_frame_size(0x04)
    1324                    .dwpsn  file "../MP430DriverLib/driverlib/MSP430F5xx_6xx/timer_a.c",line 303,column 1,is_stmt,
    1325            
    1326                    .dwfde $C$DW$CIE, Timer_A_getCounterValue
    1327            $C$DW$88        .dwtag  DW_TAG_formal_parameter
    1328                    .dwattr $C$DW$88, DW_AT_name("baseAddress")
    1329                    .dwattr $C$DW$88, DW_AT_TI_symbol_name("baseAddress")
    1330                    .dwattr $C$DW$88, DW_AT_type(*$C$DW$T$23)
    1331                    .dwattr $C$DW$88, DW_AT_location[DW_OP_reg12]
    1332            
    1333            
    1334            ;*****************************************************************************
    1335            ;* FUNCTION NAME: Timer_A_getCounterValue                                    *
    1336            ;*                                                                           *
    1337            ;*   Regs Modified     : SP,SR,r12,r13,r14,r15                               *
    1338            ;*   Regs Used         : SP,SR,r12,r13,r14,r15                               *
    1339            ;*   Local Frame Size  : 0 Args + 0 Auto + 0 Save = 0 byte                   *
    1340            ;*****************************************************************************
    1341 000000       Timer_A_getCounterValue:
    1342            ;* --------------------------------------------------------------------------*
    1343                    .dwcfi  cfa_offset, 4
    1344                    .dwcfi  save_reg_to_mem, 16, -4
    1345            ;* r12   assigned to baseAddress
    1346            $C$DW$89        .dwtag  DW_TAG_variable
    1347                    .dwattr $C$DW$89, DW_AT_name("baseAddress")
    1348                    .dwattr $C$DW$89, DW_AT_TI_symbol_name("baseAddress")
    1349                    .dwattr $C$DW$89, DW_AT_type(*$C$DW$T$23)
    1350                    .dwattr $C$DW$89, DW_AT_location[DW_OP_reg12]
    1351            
    1352            ;* r14   assigned to voteOne
    1353            $C$DW$90        .dwtag  DW_TAG_variable
    1354                    .dwattr $C$DW$90, DW_AT_name("voteOne")
    1355                    .dwattr $C$DW$90, DW_AT_TI_symbol_name("voteOne")
    1356                    .dwattr $C$DW$90, DW_AT_type(*$C$DW$T$23)
    1357                    .dwattr $C$DW$90, DW_AT_location[DW_OP_reg14]
    1358            
    1359            ;* r15   assigned to voteTwo
    1360            $C$DW$91        .dwtag  DW_TAG_variable
MSP430 Assembler PC v21.6.1 Tue Dec 20 13:45:52 2022

Copyright (c) 2003-2018 Texas Instruments Incorporated
timer_a.asm                                                          PAGE   28

    1361                    .dwattr $C$DW$91, DW_AT_name("voteTwo")
    1362                    .dwattr $C$DW$91, DW_AT_TI_symbol_name("voteTwo")
    1363                    .dwattr $C$DW$91, DW_AT_type(*$C$DW$T$23)
    1364                    .dwattr $C$DW$91, DW_AT_location[DW_OP_reg15]
    1365            
    1366            ;* r13   assigned to res
    1367            $C$DW$92        .dwtag  DW_TAG_variable
    1368                    .dwattr $C$DW$92, DW_AT_name("res")
    1369                    .dwattr $C$DW$92, DW_AT_TI_symbol_name("res")
    1370                    .dwattr $C$DW$92, DW_AT_type(*$C$DW$T$23)
    1371                    .dwattr $C$DW$92, DW_AT_location[DW_OP_reg13]
    1372            
    1373                    .dwpsn  file "../MP430DriverLib/driverlib/MSP430F5xx_6xx/timer_a.c",line 306,column 5,is_stmt,
    1374 000000 0CCF          MOVA      r12,r15               ; [] |306| 
    1375 000002 503F          ADD.W     #16,r15               ; [] |306| 
         000004 0010 
    1376 000006 4F2F          MOV.W     @r15,r15              ; [] |306| 
    1377            ;* --------------------------------------------------------------------------*
    1378            ;*   BEGIN LOOP $C$L11
    1379            ;*
    1380            ;*   Loop source line                : 308
    1381            ;*   Loop closing brace source line  : 321
    1382            ;*   Known Minimum Trip Count        : 1
    1383            ;*   Known Maximum Trip Count        : 4294967295
    1384            ;*   Known Max Trip Count Factor     : 1
    1385            ;* --------------------------------------------------------------------------*
    1386 000008       $C$L11:    
    1387                    .dwpsn  file "../MP430DriverLib/driverlib/MSP430F5xx_6xx/timer_a.c",line 310,column 9,is_stmt,
    1388 000008 0FCE          MOVA      r15,r14               ; [] |310| 
    1389                    .dwpsn  file "../MP430DriverLib/driverlib/MSP430F5xx_6xx/timer_a.c",line 311,column 9,is_stmt,
    1390 00000a 0CCF          MOVA      r12,r15               ; [] |311| 
    1391 00000c 503F          ADD.W     #16,r15               ; [] |311| 
         00000e 0010 
    1392 000010 4F2F          MOV.W     @r15,r15              ; [] |311| 
    1393                    .dwpsn  file "../MP430DriverLib/driverlib/MSP430F5xx_6xx/timer_a.c",line 314,column 4,is_stmt,
    1394 000012 9F0E          CMP.W     r15,r14               ; [] |314| 
    1395 000014 2C03          JHS       $C$L12                ; [] |314| 
    1396                                                      ; [] |314| 
    1397            ;* --------------------------------------------------------------------------*
    1398 000016 0FCD          MOVA      r15,r13               ; [] |314| 
    1399 000018 8E0D          SUB.W     r14,r13               ; [] |314| 
    1400 00001a 3C06          JMP       $C$L14                ; [] |314| 
    1401                                                      ; [] |314| 
    1402            ;* --------------------------------------------------------------------------*
    1403 00001c       $C$L12:    
    1404 00001c 9E0F          CMP.W     r14,r15               ; [] |314| 
    1405 00001e 2C03          JHS       $C$L13                ; [] |314| 
    1406                                                      ; [] |314| 
    1407            ;* --------------------------------------------------------------------------*
    1408 000020 0ECD          MOVA      r14,r13               ; [] |314| 
    1409 000022 8F0D          SUB.W     r15,r13               ; [] |314| 
    1410 000024 3C01          JMP       $C$L14                ; [] |314| 
    1411                                                      ; [] |314| 
    1412            ;* --------------------------------------------------------------------------*
    1413 000026       $C$L13:    
MSP430 Assembler PC v21.6.1 Tue Dec 20 13:45:52 2022

Copyright (c) 2003-2018 Texas Instruments Incorporated
timer_a.asm                                                          PAGE   29

    1414 000026 430D          MOV.W     #0,r13                ; [] |314| 
    1415            ;* --------------------------------------------------------------------------*
    1416 000028       $C$L14:    
    1417                    .dwpsn  file "../MP430DriverLib/driverlib/MSP430F5xx_6xx/timer_a.c",line 321,column 15,is_stmt
    1418 000028 903D          CMP.W     #51,r13               ; [] |321| 
         00002a 0033 
    1419 00002c 2FED          JHS       $C$L11                ; [] |321| 
    1420                                                      ; [] |321| 
    1421            ;* --------------------------------------------------------------------------*
    1422                    .dwpsn  file "../MP430DriverLib/driverlib/MSP430F5xx_6xx/timer_a.c",line 323,column 5,is_stmt,
    1423 00002e 0FCC          MOVA      r15,r12               ; [] |323| 
    1424                    .dwpsn  file "../MP430DriverLib/driverlib/MSP430F5xx_6xx/timer_a.c",line 324,column 1,is_stmt,
    1425            $C$DW$93        .dwtag  DW_TAG_TI_branch
    1426                    .dwattr $C$DW$93, DW_AT_low_pc(0x00)
    1427                    .dwattr $C$DW$93, DW_AT_TI_return
    1428            
    1429 000030 0110          RETA      ; [] 
    1430                    ; [] 
    1431                    .dwattr $C$DW$87, DW_AT_TI_end_file("../MP430DriverLib/driverlib/MSP430F5xx_6xx/timer_a.c")
    1432                    .dwattr $C$DW$87, DW_AT_TI_end_line(0x144)
    1433                    .dwattr $C$DW$87, DW_AT_TI_end_column(0x01)
    1434                    .dwendentry
    1435                    .dwendtag $C$DW$87
    1436            
    1437 000000               .sect   ".text:Timer_A_getCaptureCompareInterruptStatus"
    1438                    .clink
    1439                    .global Timer_A_getCaptureCompareInterruptStatus
    1440            
    1441            $C$DW$94        .dwtag  DW_TAG_subprogram
    1442                    .dwattr $C$DW$94, DW_AT_name("Timer_A_getCaptureCompareInterruptStatus")
    1443                    .dwattr $C$DW$94, DW_AT_low_pc(Timer_A_getCaptureCompareInterruptStatus)
    1444                    .dwattr $C$DW$94, DW_AT_high_pc(0x00)
    1445                    .dwattr $C$DW$94, DW_AT_TI_symbol_name("Timer_A_getCaptureCompareInterruptStatus")
    1446                    .dwattr $C$DW$94, DW_AT_external
    1447                    .dwattr $C$DW$94, DW_AT_type(*$C$DW$T$155)
    1448                    .dwattr $C$DW$94, DW_AT_TI_begin_file("../MP430DriverLib/driverlib/MSP430F5xx_6xx/timer_a.c")
    1449                    .dwattr $C$DW$94, DW_AT_TI_begin_line(0xba)
    1450                    .dwattr $C$DW$94, DW_AT_TI_begin_column(0x0a)
    1451                    .dwattr $C$DW$94, DW_AT_decl_file("../MP430DriverLib/driverlib/MSP430F5xx_6xx/timer_a.c")
    1452                    .dwattr $C$DW$94, DW_AT_decl_line(0xba)
    1453                    .dwattr $C$DW$94, DW_AT_decl_column(0x0a)
    1454                    .dwattr $C$DW$94, DW_AT_TI_max_frame_size(0x04)
    1455                    .dwpsn  file "../MP430DriverLib/driverlib/MSP430F5xx_6xx/timer_a.c",line 190,column 1,is_stmt,
    1456            
    1457                    .dwfde $C$DW$CIE, Timer_A_getCaptureCompareInterruptStatus
    1458            $C$DW$95        .dwtag  DW_TAG_formal_parameter
    1459                    .dwattr $C$DW$95, DW_AT_name("baseAddress")
    1460                    .dwattr $C$DW$95, DW_AT_TI_symbol_name("baseAddress")
    1461                    .dwattr $C$DW$95, DW_AT_type(*$C$DW$T$23)
    1462                    .dwattr $C$DW$95, DW_AT_location[DW_OP_reg12]
    1463            
    1464            $C$DW$96        .dwtag  DW_TAG_formal_parameter
    1465                    .dwattr $C$DW$96, DW_AT_name("captureCompareRegister")
    1466                    .dwattr $C$DW$96, DW_AT_TI_symbol_name("captureCompareRegister")
    1467                    .dwattr $C$DW$96, DW_AT_type(*$C$DW$T$23)
MSP430 Assembler PC v21.6.1 Tue Dec 20 13:45:52 2022

Copyright (c) 2003-2018 Texas Instruments Incorporated
timer_a.asm                                                          PAGE   30

    1468                    .dwattr $C$DW$96, DW_AT_location[DW_OP_reg13]
    1469            
    1470            $C$DW$97        .dwtag  DW_TAG_formal_parameter
    1471                    .dwattr $C$DW$97, DW_AT_name("mask")
    1472                    .dwattr $C$DW$97, DW_AT_TI_symbol_name("mask")
    1473                    .dwattr $C$DW$97, DW_AT_type(*$C$DW$T$23)
    1474                    .dwattr $C$DW$97, DW_AT_location[DW_OP_reg14]
    1475            
    1476            
    1477            ;*****************************************************************************
    1478            ;* FUNCTION NAME: Timer_A_getCaptureCompareInterruptStatus                   *
    1479            ;*                                                                           *
    1480            ;*   Regs Modified     : SP,SR,r12,r13,r14                                   *
    1481            ;*   Regs Used         : SP,SR,r12,r13,r14                                   *
    1482            ;*   Local Frame Size  : 0 Args + 0 Auto + 0 Save = 0 byte                   *
    1483            ;*****************************************************************************
    1484 000000       Timer_A_getCaptureCompareInterruptStatus:
    1485            ;* --------------------------------------------------------------------------*
    1486                    .dwcfi  cfa_offset, 4
    1487                    .dwcfi  save_reg_to_mem, 16, -4
    1488            ;* r13   assigned to captureCompareRegister
    1489            $C$DW$98        .dwtag  DW_TAG_variable
    1490                    .dwattr $C$DW$98, DW_AT_name("captureCompareRegister")
    1491                    .dwattr $C$DW$98, DW_AT_TI_symbol_name("captureCompareRegister")
    1492                    .dwattr $C$DW$98, DW_AT_type(*$C$DW$T$23)
    1493                    .dwattr $C$DW$98, DW_AT_location[DW_OP_reg13]
    1494            
    1495                    .dwpsn  file "../MP430DriverLib/driverlib/MSP430F5xx_6xx/timer_a.c",line 191,column 5,is_stmt,
    1496 000000 5D0C          ADD.W     r13,r12               ; [] |191| 
    1497 000002 FC2E          AND.W     @r12,r14              ; [] |191| 
    1498 000004 0ECC          MOVA      r14,r12               ; [] |191| 
    1499 000006 430D          MOV.W     #0,r13                ; [] |191| 
    1500                    .dwpsn  file "../MP430DriverLib/driverlib/MSP430F5xx_6xx/timer_a.c",line 192,column 1,is_stmt,
    1501            $C$DW$99        .dwtag  DW_TAG_TI_branch
    1502                    .dwattr $C$DW$99, DW_AT_low_pc(0x00)
    1503                    .dwattr $C$DW$99, DW_AT_TI_return
    1504            
    1505 000008 0110          RETA      ; [] 
    1506                    ; [] 
    1507                    .dwattr $C$DW$94, DW_AT_TI_end_file("../MP430DriverLib/driverlib/MSP430F5xx_6xx/timer_a.c")
    1508                    .dwattr $C$DW$94, DW_AT_TI_end_line(0xc0)
    1509                    .dwattr $C$DW$94, DW_AT_TI_end_column(0x01)
    1510                    .dwendentry
    1511                    .dwendtag $C$DW$94
    1512            
    1513 000000               .sect   ".text:Timer_A_getCaptureCompareCount"
    1514                    .clink
    1515                    .global Timer_A_getCaptureCompareCount
    1516            
    1517            $C$DW$100       .dwtag  DW_TAG_subprogram
    1518                    .dwattr $C$DW$100, DW_AT_name("Timer_A_getCaptureCompareCount")
    1519                    .dwattr $C$DW$100, DW_AT_low_pc(Timer_A_getCaptureCompareCount)
    1520                    .dwattr $C$DW$100, DW_AT_high_pc(0x00)
    1521                    .dwattr $C$DW$100, DW_AT_TI_symbol_name("Timer_A_getCaptureCompareCount")
    1522                    .dwattr $C$DW$100, DW_AT_external
MSP430 Assembler PC v21.6.1 Tue Dec 20 13:45:52 2022

Copyright (c) 2003-2018 Texas Instruments Incorporated
timer_a.asm                                                          PAGE   31

    1523                    .dwattr $C$DW$100, DW_AT_type(*$C$DW$T$23)
    1524                    .dwattr $C$DW$100, DW_AT_TI_begin_file("../MP430DriverLib/driverlib/MSP430F5xx_6xx/timer_a.c")
    1525                    .dwattr $C$DW$100, DW_AT_TI_begin_line(0xe0)
    1526                    .dwattr $C$DW$100, DW_AT_TI_begin_column(0x0a)
    1527                    .dwattr $C$DW$100, DW_AT_decl_file("../MP430DriverLib/driverlib/MSP430F5xx_6xx/timer_a.c")
    1528                    .dwattr $C$DW$100, DW_AT_decl_line(0xe0)
    1529                    .dwattr $C$DW$100, DW_AT_decl_column(0x0a)
    1530                    .dwattr $C$DW$100, DW_AT_TI_max_frame_size(0x04)
    1531                    .dwpsn  file "../MP430DriverLib/driverlib/MSP430F5xx_6xx/timer_a.c",line 228,column 1,is_stmt,
    1532            
    1533                    .dwfde $C$DW$CIE, Timer_A_getCaptureCompareCount
    1534            $C$DW$101       .dwtag  DW_TAG_formal_parameter
    1535                    .dwattr $C$DW$101, DW_AT_name("baseAddress")
    1536                    .dwattr $C$DW$101, DW_AT_TI_symbol_name("baseAddress")
    1537                    .dwattr $C$DW$101, DW_AT_type(*$C$DW$T$23)
    1538                    .dwattr $C$DW$101, DW_AT_location[DW_OP_reg12]
    1539            
    1540            $C$DW$102       .dwtag  DW_TAG_formal_parameter
    1541                    .dwattr $C$DW$102, DW_AT_name("captureCompareRegister")
    1542                    .dwattr $C$DW$102, DW_AT_TI_symbol_name("captureCompareRegister")
    1543                    .dwattr $C$DW$102, DW_AT_type(*$C$DW$T$23)
    1544                    .dwattr $C$DW$102, DW_AT_location[DW_OP_reg13]
    1545            
    1546            
    1547            ;*****************************************************************************
    1548            ;* FUNCTION NAME: Timer_A_getCaptureCompareCount                             *
    1549            ;*                                                                           *
    1550            ;*   Regs Modified     : SP,SR,r12                                           *
    1551            ;*   Regs Used         : SP,SR,r12,r13                                       *
    1552            ;*   Local Frame Size  : 0 Args + 0 Auto + 0 Save = 0 byte                   *
    1553            ;*****************************************************************************
    1554 000000       Timer_A_getCaptureCompareCount:
    1555            ;* --------------------------------------------------------------------------*
    1556                    .dwcfi  cfa_offset, 4
    1557                    .dwcfi  save_reg_to_mem, 16, -4
    1558            ;* r13   assigned to captureCompareRegister
    1559            $C$DW$103       .dwtag  DW_TAG_variable
    1560                    .dwattr $C$DW$103, DW_AT_name("captureCompareRegister")
    1561                    .dwattr $C$DW$103, DW_AT_TI_symbol_name("captureCompareRegister")
    1562                    .dwattr $C$DW$103, DW_AT_type(*$C$DW$T$23)
    1563                    .dwattr $C$DW$103, DW_AT_location[DW_OP_reg13]
    1564            
    1565                    .dwpsn  file "../MP430DriverLib/driverlib/MSP430F5xx_6xx/timer_a.c",line 229,column 5,is_stmt,
    1566 000000 5D0C          ADD.W     r13,r12               ; [] |229| 
    1567 000002 503C          ADD.W     #16,r12               ; [] |229| 
         000004 0010 
    1568 000006 4C2C          MOV.W     @r12,r12              ; [] |229| 
    1569                    .dwpsn  file "../MP430DriverLib/driverlib/MSP430F5xx_6xx/timer_a.c",line 230,column 1,is_stmt,
    1570            $C$DW$104       .dwtag  DW_TAG_TI_branch
    1571                    .dwattr $C$DW$104, DW_AT_low_pc(0x00)
    1572                    .dwattr $C$DW$104, DW_AT_TI_return
    1573            
    1574 000008 0110          RETA      ; [] 
    1575                    ; [] 
    1576                    .dwattr $C$DW$100, DW_AT_TI_end_file("../MP430DriverLib/driverlib/MSP430F5xx_6xx/timer_a.c")
MSP430 Assembler PC v21.6.1 Tue Dec 20 13:45:52 2022

Copyright (c) 2003-2018 Texas Instruments Incorporated
timer_a.asm                                                          PAGE   32

    1577                    .dwattr $C$DW$100, DW_AT_TI_end_line(0xe6)
    1578                    .dwattr $C$DW$100, DW_AT_TI_end_column(0x01)
    1579                    .dwendentry
    1580                    .dwendtag $C$DW$100
    1581            
    1582 000000               .sect   ".text:Timer_A_enableInterrupt"
    1583                    .clink
    1584                    .global Timer_A_enableInterrupt
    1585            
    1586            $C$DW$105       .dwtag  DW_TAG_subprogram
    1587                    .dwattr $C$DW$105, DW_AT_name("Timer_A_enableInterrupt")
    1588                    .dwattr $C$DW$105, DW_AT_low_pc(Timer_A_enableInterrupt)
    1589                    .dwattr $C$DW$105, DW_AT_high_pc(0x00)
    1590                    .dwattr $C$DW$105, DW_AT_TI_symbol_name("Timer_A_enableInterrupt")
    1591                    .dwattr $C$DW$105, DW_AT_external
    1592                    .dwattr $C$DW$105, DW_AT_TI_begin_file("../MP430DriverLib/driverlib/MSP430F5xx_6xx/timer_a.c")
    1593                    .dwattr $C$DW$105, DW_AT_TI_begin_line(0x9d)
    1594                    .dwattr $C$DW$105, DW_AT_TI_begin_column(0x06)
    1595                    .dwattr $C$DW$105, DW_AT_decl_file("../MP430DriverLib/driverlib/MSP430F5xx_6xx/timer_a.c")
    1596                    .dwattr $C$DW$105, DW_AT_decl_line(0x9d)
    1597                    .dwattr $C$DW$105, DW_AT_decl_column(0x06)
    1598                    .dwattr $C$DW$105, DW_AT_TI_max_frame_size(0x04)
    1599                    .dwpsn  file "../MP430DriverLib/driverlib/MSP430F5xx_6xx/timer_a.c",line 158,column 1,is_stmt,
    1600            
    1601                    .dwfde $C$DW$CIE, Timer_A_enableInterrupt
    1602            $C$DW$106       .dwtag  DW_TAG_formal_parameter
    1603                    .dwattr $C$DW$106, DW_AT_name("baseAddress")
    1604                    .dwattr $C$DW$106, DW_AT_TI_symbol_name("baseAddress")
    1605                    .dwattr $C$DW$106, DW_AT_type(*$C$DW$T$23)
    1606                    .dwattr $C$DW$106, DW_AT_location[DW_OP_reg12]
    1607            
    1608            
    1609            ;*****************************************************************************
    1610            ;* FUNCTION NAME: Timer_A_enableInterrupt                                    *
    1611            ;*                                                                           *
    1612            ;*   Regs Modified     : SP                                                  *
    1613            ;*   Regs Used         : SP,r12                                              *
    1614            ;*   Local Frame Size  : 0 Args + 0 Auto + 0 Save = 0 byte                   *
    1615            ;*****************************************************************************
    1616 000000       Timer_A_enableInterrupt:
    1617            ;* --------------------------------------------------------------------------*
    1618                    .dwcfi  cfa_offset, 4
    1619                    .dwcfi  save_reg_to_mem, 16, -4
    1620            ;* r12   assigned to baseAddress
    1621            $C$DW$107       .dwtag  DW_TAG_variable
    1622                    .dwattr $C$DW$107, DW_AT_name("baseAddress")
    1623                    .dwattr $C$DW$107, DW_AT_TI_symbol_name("baseAddress")
    1624                    .dwattr $C$DW$107, DW_AT_type(*$C$DW$T$23)
    1625                    .dwattr $C$DW$107, DW_AT_location[DW_OP_reg12]
    1626            
    1627                    .dwpsn  file "../MP430DriverLib/driverlib/MSP430F5xx_6xx/timer_a.c",line 159,column 5,is_stmt,
    1628 000000 D3AC          OR.W      #2,0(r12)             ; [] |159| 
         000002 0000 
    1629                    .dwpsn  file "../MP430DriverLib/driverlib/MSP430F5xx_6xx/timer_a.c",line 160,column 1,is_stmt,
    1630            $C$DW$108       .dwtag  DW_TAG_TI_branch
MSP430 Assembler PC v21.6.1 Tue Dec 20 13:45:52 2022

Copyright (c) 2003-2018 Texas Instruments Incorporated
timer_a.asm                                                          PAGE   33

    1631                    .dwattr $C$DW$108, DW_AT_low_pc(0x00)
    1632                    .dwattr $C$DW$108, DW_AT_TI_return
    1633            
    1634 000004 0110          RETA      ; [] 
    1635                    ; [] 
    1636                    .dwattr $C$DW$105, DW_AT_TI_end_file("../MP430DriverLib/driverlib/MSP430F5xx_6xx/timer_a.c")
    1637                    .dwattr $C$DW$105, DW_AT_TI_end_line(0xa0)
    1638                    .dwattr $C$DW$105, DW_AT_TI_end_column(0x01)
    1639                    .dwendentry
    1640                    .dwendtag $C$DW$105
    1641            
    1642 000000               .sect   ".text:Timer_A_enableCaptureCompareInterrupt"
    1643                    .clink
    1644                    .global Timer_A_enableCaptureCompareInterrupt
    1645            
    1646            $C$DW$109       .dwtag  DW_TAG_subprogram
    1647                    .dwattr $C$DW$109, DW_AT_name("Timer_A_enableCaptureCompareInterrupt")
    1648                    .dwattr $C$DW$109, DW_AT_low_pc(Timer_A_enableCaptureCompareInterrupt)
    1649                    .dwattr $C$DW$109, DW_AT_high_pc(0x00)
    1650                    .dwattr $C$DW$109, DW_AT_TI_symbol_name("Timer_A_enableCaptureCompareInterrupt")
    1651                    .dwattr $C$DW$109, DW_AT_external
    1652                    .dwattr $C$DW$109, DW_AT_TI_begin_file("../MP430DriverLib/driverlib/MSP430F5xx_6xx/timer_a.c")
    1653                    .dwattr $C$DW$109, DW_AT_TI_begin_line(0xac)
    1654                    .dwattr $C$DW$109, DW_AT_TI_begin_column(0x06)
    1655                    .dwattr $C$DW$109, DW_AT_decl_file("../MP430DriverLib/driverlib/MSP430F5xx_6xx/timer_a.c")
    1656                    .dwattr $C$DW$109, DW_AT_decl_line(0xac)
    1657                    .dwattr $C$DW$109, DW_AT_decl_column(0x06)
    1658                    .dwattr $C$DW$109, DW_AT_TI_max_frame_size(0x04)
    1659                    .dwpsn  file "../MP430DriverLib/driverlib/MSP430F5xx_6xx/timer_a.c",line 175,column 1,is_stmt,
    1660            
    1661                    .dwfde $C$DW$CIE, Timer_A_enableCaptureCompareInterrupt
    1662            $C$DW$110       .dwtag  DW_TAG_formal_parameter
    1663                    .dwattr $C$DW$110, DW_AT_name("baseAddress")
    1664                    .dwattr $C$DW$110, DW_AT_TI_symbol_name("baseAddress")
    1665                    .dwattr $C$DW$110, DW_AT_type(*$C$DW$T$23)
    1666                    .dwattr $C$DW$110, DW_AT_location[DW_OP_reg12]
    1667            
    1668            $C$DW$111       .dwtag  DW_TAG_formal_parameter
    1669                    .dwattr $C$DW$111, DW_AT_name("captureCompareRegister")
    1670                    .dwattr $C$DW$111, DW_AT_TI_symbol_name("captureCompareRegister")
    1671                    .dwattr $C$DW$111, DW_AT_type(*$C$DW$T$23)
    1672                    .dwattr $C$DW$111, DW_AT_location[DW_OP_reg13]
    1673            
    1674            
    1675            ;*****************************************************************************
    1676            ;* FUNCTION NAME: Timer_A_enableCaptureCompareInterrupt                      *
    1677            ;*                                                                           *
    1678            ;*   Regs Modified     : SP,SR,r12,r15                                       *
    1679            ;*   Regs Used         : SP,SR,r12,r13,r15                                   *
    1680            ;*   Local Frame Size  : 0 Args + 0 Auto + 0 Save = 0 byte                   *
    1681            ;*****************************************************************************
    1682 000000       Timer_A_enableCaptureCompareInterrupt:
    1683            ;* --------------------------------------------------------------------------*
    1684                    .dwcfi  cfa_offset, 4
    1685                    .dwcfi  save_reg_to_mem, 16, -4
MSP430 Assembler PC v21.6.1 Tue Dec 20 13:45:52 2022

Copyright (c) 2003-2018 Texas Instruments Incorporated
timer_a.asm                                                          PAGE   34

    1686            ;* r13   assigned to captureCompareRegister
    1687            $C$DW$112       .dwtag  DW_TAG_variable
    1688                    .dwattr $C$DW$112, DW_AT_name("captureCompareRegister")
    1689                    .dwattr $C$DW$112, DW_AT_TI_symbol_name("captureCompareRegister")
    1690                    .dwattr $C$DW$112, DW_AT_type(*$C$DW$T$23)
    1691                    .dwattr $C$DW$112, DW_AT_location[DW_OP_reg13]
    1692            
    1693                    .dwpsn  file "../MP430DriverLib/driverlib/MSP430F5xx_6xx/timer_a.c",line 176,column 5,is_stmt,
    1694 000000 5D0C          ADD.W     r13,r12               ; [] |176| 
    1695 000002 4C0F          MOV.W     r12,r15               ; [] |176| 
    1696 000004 D0BF          OR.W      #16,0(r15)            ; [] |176| 
         000006 0010 
         000008 0000 
    1697                    .dwpsn  file "../MP430DriverLib/driverlib/MSP430F5xx_6xx/timer_a.c",line 177,column 1,is_stmt,
    1698            $C$DW$113       .dwtag  DW_TAG_TI_branch
    1699                    .dwattr $C$DW$113, DW_AT_low_pc(0x00)
    1700                    .dwattr $C$DW$113, DW_AT_TI_return
    1701            
    1702 00000a 0110          RETA      ; [] 
    1703                    ; [] 
    1704                    .dwattr $C$DW$109, DW_AT_TI_end_file("../MP430DriverLib/driverlib/MSP430F5xx_6xx/timer_a.c")
    1705                    .dwattr $C$DW$109, DW_AT_TI_end_line(0xb1)
    1706                    .dwattr $C$DW$109, DW_AT_TI_end_column(0x01)
    1707                    .dwendentry
    1708                    .dwendtag $C$DW$109
    1709            
    1710 000000               .sect   ".text:Timer_A_disableInterrupt"
    1711                    .clink
    1712                    .global Timer_A_disableInterrupt
    1713            
    1714            $C$DW$114       .dwtag  DW_TAG_subprogram
    1715                    .dwattr $C$DW$114, DW_AT_name("Timer_A_disableInterrupt")
    1716                    .dwattr $C$DW$114, DW_AT_low_pc(Timer_A_disableInterrupt)
    1717                    .dwattr $C$DW$114, DW_AT_high_pc(0x00)
    1718                    .dwattr $C$DW$114, DW_AT_TI_symbol_name("Timer_A_disableInterrupt")
    1719                    .dwattr $C$DW$114, DW_AT_external
    1720                    .dwattr $C$DW$114, DW_AT_TI_begin_file("../MP430DriverLib/driverlib/MSP430F5xx_6xx/timer_a.c")
    1721                    .dwattr $C$DW$114, DW_AT_TI_begin_line(0xa2)
    1722                    .dwattr $C$DW$114, DW_AT_TI_begin_column(0x06)
    1723                    .dwattr $C$DW$114, DW_AT_decl_file("../MP430DriverLib/driverlib/MSP430F5xx_6xx/timer_a.c")
    1724                    .dwattr $C$DW$114, DW_AT_decl_line(0xa2)
    1725                    .dwattr $C$DW$114, DW_AT_decl_column(0x06)
    1726                    .dwattr $C$DW$114, DW_AT_TI_max_frame_size(0x04)
    1727                    .dwpsn  file "../MP430DriverLib/driverlib/MSP430F5xx_6xx/timer_a.c",line 163,column 1,is_stmt,
    1728            
    1729                    .dwfde $C$DW$CIE, Timer_A_disableInterrupt
    1730            $C$DW$115       .dwtag  DW_TAG_formal_parameter
    1731                    .dwattr $C$DW$115, DW_AT_name("baseAddress")
    1732                    .dwattr $C$DW$115, DW_AT_TI_symbol_name("baseAddress")
    1733                    .dwattr $C$DW$115, DW_AT_type(*$C$DW$T$23)
    1734                    .dwattr $C$DW$115, DW_AT_location[DW_OP_reg12]
    1735            
    1736            
    1737            ;*****************************************************************************
    1738            ;* FUNCTION NAME: Timer_A_disableInterrupt                                   *
MSP430 Assembler PC v21.6.1 Tue Dec 20 13:45:52 2022

Copyright (c) 2003-2018 Texas Instruments Incorporated
timer_a.asm                                                          PAGE   35

    1739            ;*                                                                           *
    1740            ;*   Regs Modified     : SP                                                  *
    1741            ;*   Regs Used         : SP,r12                                              *
    1742            ;*   Local Frame Size  : 0 Args + 0 Auto + 0 Save = 0 byte                   *
    1743            ;*****************************************************************************
    1744 000000       Timer_A_disableInterrupt:
    1745            ;* --------------------------------------------------------------------------*
    1746                    .dwcfi  cfa_offset, 4
    1747                    .dwcfi  save_reg_to_mem, 16, -4
    1748            ;* r12   assigned to baseAddress
    1749            $C$DW$116       .dwtag  DW_TAG_variable
    1750                    .dwattr $C$DW$116, DW_AT_name("baseAddress")
    1751                    .dwattr $C$DW$116, DW_AT_TI_symbol_name("baseAddress")
    1752                    .dwattr $C$DW$116, DW_AT_type(*$C$DW$T$23)
    1753                    .dwattr $C$DW$116, DW_AT_location[DW_OP_reg12]
    1754            
    1755                    .dwpsn  file "../MP430DriverLib/driverlib/MSP430F5xx_6xx/timer_a.c",line 164,column 5,is_stmt,
    1756 000000 C3AC          BIC.W     #2,0(r12)             ; [] |164| 
         000002 0000 
    1757                    .dwpsn  file "../MP430DriverLib/driverlib/MSP430F5xx_6xx/timer_a.c",line 165,column 1,is_stmt,
    1758            $C$DW$117       .dwtag  DW_TAG_TI_branch
    1759                    .dwattr $C$DW$117, DW_AT_low_pc(0x00)
    1760                    .dwattr $C$DW$117, DW_AT_TI_return
    1761            
    1762 000004 0110          RETA      ; [] 
    1763                    ; [] 
    1764                    .dwattr $C$DW$114, DW_AT_TI_end_file("../MP430DriverLib/driverlib/MSP430F5xx_6xx/timer_a.c")
    1765                    .dwattr $C$DW$114, DW_AT_TI_end_line(0xa5)
    1766                    .dwattr $C$DW$114, DW_AT_TI_end_column(0x01)
    1767                    .dwendentry
    1768                    .dwendtag $C$DW$114
    1769            
    1770 000000               .sect   ".text:Timer_A_disableCaptureCompareInterrupt"
    1771                    .clink
    1772                    .global Timer_A_disableCaptureCompareInterrupt
    1773            
    1774            $C$DW$118       .dwtag  DW_TAG_subprogram
    1775                    .dwattr $C$DW$118, DW_AT_name("Timer_A_disableCaptureCompareInterrupt")
    1776                    .dwattr $C$DW$118, DW_AT_low_pc(Timer_A_disableCaptureCompareInterrupt)
    1777                    .dwattr $C$DW$118, DW_AT_high_pc(0x00)
    1778                    .dwattr $C$DW$118, DW_AT_TI_symbol_name("Timer_A_disableCaptureCompareInterrupt")
    1779                    .dwattr $C$DW$118, DW_AT_external
    1780                    .dwattr $C$DW$118, DW_AT_TI_begin_file("../MP430DriverLib/driverlib/MSP430F5xx_6xx/timer_a.c")
    1781                    .dwattr $C$DW$118, DW_AT_TI_begin_line(0xb3)
    1782                    .dwattr $C$DW$118, DW_AT_TI_begin_column(0x06)
    1783                    .dwattr $C$DW$118, DW_AT_decl_file("../MP430DriverLib/driverlib/MSP430F5xx_6xx/timer_a.c")
    1784                    .dwattr $C$DW$118, DW_AT_decl_line(0xb3)
    1785                    .dwattr $C$DW$118, DW_AT_decl_column(0x06)
    1786                    .dwattr $C$DW$118, DW_AT_TI_max_frame_size(0x04)
    1787                    .dwpsn  file "../MP430DriverLib/driverlib/MSP430F5xx_6xx/timer_a.c",line 182,column 1,is_stmt,
    1788            
    1789                    .dwfde $C$DW$CIE, Timer_A_disableCaptureCompareInterrupt
    1790            $C$DW$119       .dwtag  DW_TAG_formal_parameter
    1791                    .dwattr $C$DW$119, DW_AT_name("baseAddress")
    1792                    .dwattr $C$DW$119, DW_AT_TI_symbol_name("baseAddress")
MSP430 Assembler PC v21.6.1 Tue Dec 20 13:45:52 2022

Copyright (c) 2003-2018 Texas Instruments Incorporated
timer_a.asm                                                          PAGE   36

    1793                    .dwattr $C$DW$119, DW_AT_type(*$C$DW$T$23)
    1794                    .dwattr $C$DW$119, DW_AT_location[DW_OP_reg12]
    1795            
    1796            $C$DW$120       .dwtag  DW_TAG_formal_parameter
    1797                    .dwattr $C$DW$120, DW_AT_name("captureCompareRegister")
    1798                    .dwattr $C$DW$120, DW_AT_TI_symbol_name("captureCompareRegister")
    1799                    .dwattr $C$DW$120, DW_AT_type(*$C$DW$T$23)
    1800                    .dwattr $C$DW$120, DW_AT_location[DW_OP_reg13]
    1801            
    1802            
    1803            ;*****************************************************************************
    1804            ;* FUNCTION NAME: Timer_A_disableCaptureCompareInterrupt                     *
    1805            ;*                                                                           *
    1806            ;*   Regs Modified     : SP,SR,r12,r15                                       *
    1807            ;*   Regs Used         : SP,SR,r12,r13,r15                                   *
    1808            ;*   Local Frame Size  : 0 Args + 0 Auto + 0 Save = 0 byte                   *
    1809            ;*****************************************************************************
    1810 000000       Timer_A_disableCaptureCompareInterrupt:
    1811            ;* --------------------------------------------------------------------------*
    1812                    .dwcfi  cfa_offset, 4
    1813                    .dwcfi  save_reg_to_mem, 16, -4
    1814            ;* r13   assigned to captureCompareRegister
    1815            $C$DW$121       .dwtag  DW_TAG_variable
    1816                    .dwattr $C$DW$121, DW_AT_name("captureCompareRegister")
    1817                    .dwattr $C$DW$121, DW_AT_TI_symbol_name("captureCompareRegister")
    1818                    .dwattr $C$DW$121, DW_AT_type(*$C$DW$T$23)
    1819                    .dwattr $C$DW$121, DW_AT_location[DW_OP_reg13]
    1820            
    1821                    .dwpsn  file "../MP430DriverLib/driverlib/MSP430F5xx_6xx/timer_a.c",line 183,column 5,is_stmt,
    1822 000000 5D0C          ADD.W     r13,r12               ; [] |183| 
    1823 000002 4C0F          MOV.W     r12,r15               ; [] |183| 
    1824 000004 F0BF          AND.W     #65519,0(r15)         ; [] |183| 
         000006 FFEF 
         000008 0000 
    1825                    .dwpsn  file "../MP430DriverLib/driverlib/MSP430F5xx_6xx/timer_a.c",line 184,column 1,is_stmt,
    1826            $C$DW$122       .dwtag  DW_TAG_TI_branch
    1827                    .dwattr $C$DW$122, DW_AT_low_pc(0x00)
    1828                    .dwattr $C$DW$122, DW_AT_TI_return
    1829            
    1830 00000a 0110          RETA      ; [] 
    1831                    ; [] 
    1832                    .dwattr $C$DW$118, DW_AT_TI_end_file("../MP430DriverLib/driverlib/MSP430F5xx_6xx/timer_a.c")
    1833                    .dwattr $C$DW$118, DW_AT_TI_end_line(0xb8)
    1834                    .dwattr $C$DW$118, DW_AT_TI_end_column(0x01)
    1835                    .dwendentry
    1836                    .dwendtag $C$DW$118
    1837            
    1838 000000               .sect   ".text:Timer_A_clearTimerInterrupt"
    1839                    .clink
    1840                    .global Timer_A_clearTimerInterrupt
    1841            
    1842            $C$DW$123       .dwtag  DW_TAG_subprogram
    1843                    .dwattr $C$DW$123, DW_AT_name("Timer_A_clearTimerInterrupt")
    1844                    .dwattr $C$DW$123, DW_AT_low_pc(Timer_A_clearTimerInterrupt)
    1845                    .dwattr $C$DW$123, DW_AT_high_pc(0x00)
MSP430 Assembler PC v21.6.1 Tue Dec 20 13:45:52 2022

Copyright (c) 2003-2018 Texas Instruments Incorporated
timer_a.asm                                                          PAGE   37

    1846                    .dwattr $C$DW$123, DW_AT_TI_symbol_name("Timer_A_clearTimerInterrupt")
    1847                    .dwattr $C$DW$123, DW_AT_external
    1848                    .dwattr $C$DW$123, DW_AT_TI_begin_file("../MP430DriverLib/driverlib/MSP430F5xx_6xx/timer_a.c")
    1849                    .dwattr $C$DW$123, DW_AT_TI_begin_line(0x122)
    1850                    .dwattr $C$DW$123, DW_AT_TI_begin_column(0x06)
    1851                    .dwattr $C$DW$123, DW_AT_decl_file("../MP430DriverLib/driverlib/MSP430F5xx_6xx/timer_a.c")
    1852                    .dwattr $C$DW$123, DW_AT_decl_line(0x122)
    1853                    .dwattr $C$DW$123, DW_AT_decl_column(0x06)
    1854                    .dwattr $C$DW$123, DW_AT_TI_max_frame_size(0x04)
    1855                    .dwpsn  file "../MP430DriverLib/driverlib/MSP430F5xx_6xx/timer_a.c",line 291,column 1,is_stmt,
    1856            
    1857                    .dwfde $C$DW$CIE, Timer_A_clearTimerInterrupt
    1858            $C$DW$124       .dwtag  DW_TAG_formal_parameter
    1859                    .dwattr $C$DW$124, DW_AT_name("baseAddress")
    1860                    .dwattr $C$DW$124, DW_AT_TI_symbol_name("baseAddress")
    1861                    .dwattr $C$DW$124, DW_AT_type(*$C$DW$T$23)
    1862                    .dwattr $C$DW$124, DW_AT_location[DW_OP_reg12]
    1863            
    1864            
    1865            ;*****************************************************************************
    1866            ;* FUNCTION NAME: Timer_A_clearTimerInterrupt                                *
    1867            ;*                                                                           *
    1868            ;*   Regs Modified     : SP                                                  *
    1869            ;*   Regs Used         : SP,r12                                              *
    1870            ;*   Local Frame Size  : 0 Args + 0 Auto + 0 Save = 0 byte                   *
    1871            ;*****************************************************************************
    1872 000000       Timer_A_clearTimerInterrupt:
    1873            ;* --------------------------------------------------------------------------*
    1874                    .dwcfi  cfa_offset, 4
    1875                    .dwcfi  save_reg_to_mem, 16, -4
    1876            ;* r12   assigned to baseAddress
    1877            $C$DW$125       .dwtag  DW_TAG_variable
    1878                    .dwattr $C$DW$125, DW_AT_name("baseAddress")
    1879                    .dwattr $C$DW$125, DW_AT_TI_symbol_name("baseAddress")
    1880                    .dwattr $C$DW$125, DW_AT_type(*$C$DW$T$23)
    1881                    .dwattr $C$DW$125, DW_AT_location[DW_OP_reg12]
    1882            
    1883                    .dwpsn  file "../MP430DriverLib/driverlib/MSP430F5xx_6xx/timer_a.c",line 292,column 5,is_stmt,
    1884 000000 C39C          BIC.W     #1,0(r12)             ; [] |292| 
         000002 0000 
    1885                    .dwpsn  file "../MP430DriverLib/driverlib/MSP430F5xx_6xx/timer_a.c",line 293,column 1,is_stmt,
    1886            $C$DW$126       .dwtag  DW_TAG_TI_branch
    1887                    .dwattr $C$DW$126, DW_AT_low_pc(0x00)
    1888                    .dwattr $C$DW$126, DW_AT_TI_return
    1889            
    1890 000004 0110          RETA      ; [] 
    1891                    ; [] 
    1892                    .dwattr $C$DW$123, DW_AT_TI_end_file("../MP430DriverLib/driverlib/MSP430F5xx_6xx/timer_a.c")
    1893                    .dwattr $C$DW$123, DW_AT_TI_end_line(0x125)
    1894                    .dwattr $C$DW$123, DW_AT_TI_end_column(0x01)
    1895                    .dwendentry
    1896                    .dwendtag $C$DW$123
    1897            
    1898 000000               .sect   ".text:Timer_A_clearCaptureCompareInterrupt"
    1899                    .clink
MSP430 Assembler PC v21.6.1 Tue Dec 20 13:45:52 2022

Copyright (c) 2003-2018 Texas Instruments Incorporated
timer_a.asm                                                          PAGE   38

    1900                    .global Timer_A_clearCaptureCompareInterrupt
    1901            
    1902            $C$DW$127       .dwtag  DW_TAG_subprogram
    1903                    .dwattr $C$DW$127, DW_AT_name("Timer_A_clearCaptureCompareInterrupt")
    1904                    .dwattr $C$DW$127, DW_AT_low_pc(Timer_A_clearCaptureCompareInterrupt)
    1905                    .dwattr $C$DW$127, DW_AT_high_pc(0x00)
    1906                    .dwattr $C$DW$127, DW_AT_TI_symbol_name("Timer_A_clearCaptureCompareInterrupt")
    1907                    .dwattr $C$DW$127, DW_AT_external
    1908                    .dwattr $C$DW$127, DW_AT_TI_begin_file("../MP430DriverLib/driverlib/MSP430F5xx_6xx/timer_a.c")
    1909                    .dwattr $C$DW$127, DW_AT_TI_begin_line(0x127)
    1910                    .dwattr $C$DW$127, DW_AT_TI_begin_column(0x06)
    1911                    .dwattr $C$DW$127, DW_AT_decl_file("../MP430DriverLib/driverlib/MSP430F5xx_6xx/timer_a.c")
    1912                    .dwattr $C$DW$127, DW_AT_decl_line(0x127)
    1913                    .dwattr $C$DW$127, DW_AT_decl_column(0x06)
    1914                    .dwattr $C$DW$127, DW_AT_TI_max_frame_size(0x04)
    1915                    .dwpsn  file "../MP430DriverLib/driverlib/MSP430F5xx_6xx/timer_a.c",line 298,column 1,is_stmt,
    1916            
    1917                    .dwfde $C$DW$CIE, Timer_A_clearCaptureCompareInterrupt
    1918            $C$DW$128       .dwtag  DW_TAG_formal_parameter
    1919                    .dwattr $C$DW$128, DW_AT_name("baseAddress")
    1920                    .dwattr $C$DW$128, DW_AT_TI_symbol_name("baseAddress")
    1921                    .dwattr $C$DW$128, DW_AT_type(*$C$DW$T$23)
    1922                    .dwattr $C$DW$128, DW_AT_location[DW_OP_reg12]
    1923            
    1924            $C$DW$129       .dwtag  DW_TAG_formal_parameter
    1925                    .dwattr $C$DW$129, DW_AT_name("captureCompareRegister")
    1926                    .dwattr $C$DW$129, DW_AT_TI_symbol_name("captureCompareRegister")
    1927                    .dwattr $C$DW$129, DW_AT_type(*$C$DW$T$23)
    1928                    .dwattr $C$DW$129, DW_AT_location[DW_OP_reg13]
    1929            
    1930            
    1931            ;*****************************************************************************
    1932            ;* FUNCTION NAME: Timer_A_clearCaptureCompareInterrupt                       *
    1933            ;*                                                                           *
    1934            ;*   Regs Modified     : SP,SR,r12,r15                                       *
    1935            ;*   Regs Used         : SP,SR,r12,r13,r15                                   *
    1936            ;*   Local Frame Size  : 0 Args + 0 Auto + 0 Save = 0 byte                   *
    1937            ;*****************************************************************************
    1938 000000       Timer_A_clearCaptureCompareInterrupt:
    1939            ;* --------------------------------------------------------------------------*
    1940                    .dwcfi  cfa_offset, 4
    1941                    .dwcfi  save_reg_to_mem, 16, -4
    1942            ;* r13   assigned to captureCompareRegister
    1943            $C$DW$130       .dwtag  DW_TAG_variable
    1944                    .dwattr $C$DW$130, DW_AT_name("captureCompareRegister")
    1945                    .dwattr $C$DW$130, DW_AT_TI_symbol_name("captureCompareRegister")
    1946                    .dwattr $C$DW$130, DW_AT_type(*$C$DW$T$23)
    1947                    .dwattr $C$DW$130, DW_AT_location[DW_OP_reg13]
    1948            
    1949                    .dwpsn  file "../MP430DriverLib/driverlib/MSP430F5xx_6xx/timer_a.c",line 299,column 5,is_stmt,
    1950 000000 5D0C          ADD.W     r13,r12               ; [] |299| 
    1951 000002 4C0F          MOV.W     r12,r15               ; [] |299| 
    1952 000004 C39F          BIC.W     #1,0(r15)             ; [] |299| 
         000006 0000 
    1953                    .dwpsn  file "../MP430DriverLib/driverlib/MSP430F5xx_6xx/timer_a.c",line 300,column 1,is_stmt,
MSP430 Assembler PC v21.6.1 Tue Dec 20 13:45:52 2022

Copyright (c) 2003-2018 Texas Instruments Incorporated
timer_a.asm                                                          PAGE   39

    1954            $C$DW$131       .dwtag  DW_TAG_TI_branch
    1955                    .dwattr $C$DW$131, DW_AT_low_pc(0x00)
    1956                    .dwattr $C$DW$131, DW_AT_TI_return
    1957            
    1958 000008 0110          RETA      ; [] 
    1959                    ; [] 
    1960                    .dwattr $C$DW$127, DW_AT_TI_end_file("../MP430DriverLib/driverlib/MSP430F5xx_6xx/timer_a.c")
    1961                    .dwattr $C$DW$127, DW_AT_TI_end_line(0x12c)
    1962                    .dwattr $C$DW$127, DW_AT_TI_end_column(0x01)
    1963                    .dwendentry
    1964                    .dwendtag $C$DW$127
    1965            
    1966 000000               .sect   ".text:Timer_A_clear"
    1967                    .clink
    1968                    .global Timer_A_clear
    1969            
    1970            $C$DW$132       .dwtag  DW_TAG_subprogram
    1971                    .dwattr $C$DW$132, DW_AT_name("Timer_A_clear")
    1972                    .dwattr $C$DW$132, DW_AT_low_pc(Timer_A_clear)
    1973                    .dwattr $C$DW$132, DW_AT_high_pc(0x00)
    1974                    .dwattr $C$DW$132, DW_AT_TI_symbol_name("Timer_A_clear")
    1975                    .dwattr $C$DW$132, DW_AT_external
    1976                    .dwattr $C$DW$132, DW_AT_TI_begin_file("../MP430DriverLib/driverlib/MSP430F5xx_6xx/timer_a.c")
    1977                    .dwattr $C$DW$132, DW_AT_TI_begin_line(0xc2)
    1978                    .dwattr $C$DW$132, DW_AT_TI_begin_column(0x06)
    1979                    .dwattr $C$DW$132, DW_AT_decl_file("../MP430DriverLib/driverlib/MSP430F5xx_6xx/timer_a.c")
    1980                    .dwattr $C$DW$132, DW_AT_decl_line(0xc2)
    1981                    .dwattr $C$DW$132, DW_AT_decl_column(0x06)
    1982                    .dwattr $C$DW$132, DW_AT_TI_max_frame_size(0x04)
    1983                    .dwpsn  file "../MP430DriverLib/driverlib/MSP430F5xx_6xx/timer_a.c",line 195,column 1,is_stmt,
    1984            
    1985                    .dwfde $C$DW$CIE, Timer_A_clear
    1986            $C$DW$133       .dwtag  DW_TAG_formal_parameter
    1987                    .dwattr $C$DW$133, DW_AT_name("baseAddress")
    1988                    .dwattr $C$DW$133, DW_AT_TI_symbol_name("baseAddress")
    1989                    .dwattr $C$DW$133, DW_AT_type(*$C$DW$T$23)
    1990                    .dwattr $C$DW$133, DW_AT_location[DW_OP_reg12]
    1991            
    1992            
    1993            ;*****************************************************************************
    1994            ;* FUNCTION NAME: Timer_A_clear                                              *
    1995            ;*                                                                           *
    1996            ;*   Regs Modified     : SP                                                  *
    1997            ;*   Regs Used         : SP,r12                                              *
    1998            ;*   Local Frame Size  : 0 Args + 0 Auto + 0 Save = 0 byte                   *
    1999            ;*****************************************************************************
    2000 000000       Timer_A_clear:
    2001            ;* --------------------------------------------------------------------------*
    2002                    .dwcfi  cfa_offset, 4
    2003                    .dwcfi  save_reg_to_mem, 16, -4
    2004            ;* r12   assigned to baseAddress
    2005            $C$DW$134       .dwtag  DW_TAG_variable
    2006                    .dwattr $C$DW$134, DW_AT_name("baseAddress")
    2007                    .dwattr $C$DW$134, DW_AT_TI_symbol_name("baseAddress")
    2008                    .dwattr $C$DW$134, DW_AT_type(*$C$DW$T$23)
MSP430 Assembler PC v21.6.1 Tue Dec 20 13:45:52 2022

Copyright (c) 2003-2018 Texas Instruments Incorporated
timer_a.asm                                                          PAGE   40

    2009                    .dwattr $C$DW$134, DW_AT_location[DW_OP_reg12]
    2010            
    2011                    .dwpsn  file "../MP430DriverLib/driverlib/MSP430F5xx_6xx/timer_a.c",line 196,column 5,is_stmt,
    2012 000000 D2AC          OR.W      #4,0(r12)             ; [] |196| 
         000002 0000 
    2013                    .dwpsn  file "../MP430DriverLib/driverlib/MSP430F5xx_6xx/timer_a.c",line 197,column 1,is_stmt,
    2014            $C$DW$135       .dwtag  DW_TAG_TI_branch
    2015                    .dwattr $C$DW$135, DW_AT_low_pc(0x00)
    2016                    .dwattr $C$DW$135, DW_AT_TI_return
    2017            
    2018 000004 0110          RETA      ; [] 
    2019                    ; [] 
    2020                    .dwattr $C$DW$132, DW_AT_TI_end_file("../MP430DriverLib/driverlib/MSP430F5xx_6xx/timer_a.c")
    2021                    .dwattr $C$DW$132, DW_AT_TI_end_line(0xc5)
    2022                    .dwattr $C$DW$132, DW_AT_TI_end_column(0x01)
    2023                    .dwendentry
    2024                    .dwendtag $C$DW$132
    2025            
    2026            
    2027            ;******************************************************************************
    2028            ;* BUILD ATTRIBUTES                                                           *
    2029            ;******************************************************************************
    2030                    .battr "TI", Tag_File, 1, Tag_LPM_INFO(1)
    2031                    .battr "TI", Tag_File, 1, Tag_PORTS_INIT_INFO("012345678901ABCDEFGHIJ0000000000001111110000000
    2032                    .battr "TI", Tag_File, 1, Tag_LEA_INFO(1)
    2033                    .battr "TI", Tag_File, 1, Tag_HW_MPY32_INFO(2)
    2034                    .battr "TI", Tag_File, 1, Tag_HW_MPY_ISR_INFO(1)
    2035                    .battr "TI", Tag_File, 1, Tag_HW_MPY_INLINE_INFO(1)
    2036                    .battr "mspabi", Tag_File, 1, Tag_enum_size(3)
    2037            
    2038            ;******************************************************************************
    2039            ;* TYPE INFORMATION                                                           *
    2040            ;******************************************************************************
    2041            
    2042            $C$DW$T$21      .dwtag  DW_TAG_structure_type
    2043                    .dwattr $C$DW$T$21, DW_AT_byte_size(0x10)
    2044            $C$DW$136       .dwtag  DW_TAG_member
    2045                    .dwattr $C$DW$136, DW_AT_type(*$C$DW$T$14)
    2046                    .dwattr $C$DW$136, DW_AT_name("__max_align1")
    2047                    .dwattr $C$DW$136, DW_AT_TI_symbol_name("__max_align1")
    2048                    .dwattr $C$DW$136, DW_AT_data_member_location[DW_OP_plus_uconst 0x0]
    2049                    .dwattr $C$DW$136, DW_AT_accessibility(DW_ACCESS_public)
    2050                    .dwattr $C$DW$136, DW_AT_decl_file("C:/ti/ccs1110/ccs/tools/compiler/ti-cgt-msp430_21.6.1.LTS/
    2051                    .dwattr $C$DW$136, DW_AT_decl_line(0x7b)
    2052                    .dwattr $C$DW$136, DW_AT_decl_column(0x0c)
    2053            
    2054            $C$DW$137       .dwtag  DW_TAG_member
    2055                    .dwattr $C$DW$137, DW_AT_type(*$C$DW$T$18)
    2056                    .dwattr $C$DW$137, DW_AT_name("__max_align2")
    2057                    .dwattr $C$DW$137, DW_AT_TI_symbol_name("__max_align2")
    2058                    .dwattr $C$DW$137, DW_AT_data_member_location[DW_OP_plus_uconst 0x8]
    2059                    .dwattr $C$DW$137, DW_AT_accessibility(DW_ACCESS_public)
    2060                    .dwattr $C$DW$137, DW_AT_decl_file("C:/ti/ccs1110/ccs/tools/compiler/ti-cgt-msp430_21.6.1.LTS/
    2061                    .dwattr $C$DW$137, DW_AT_decl_line(0x7c)
    2062                    .dwattr $C$DW$137, DW_AT_decl_column(0x0e)
MSP430 Assembler PC v21.6.1 Tue Dec 20 13:45:52 2022

Copyright (c) 2003-2018 Texas Instruments Incorporated
timer_a.asm                                                          PAGE   41

    2063            
    2064                    .dwattr $C$DW$T$21, DW_AT_decl_file("C:/ti/ccs1110/ccs/tools/compiler/ti-cgt-msp430_21.6.1.LTS
    2065                    .dwattr $C$DW$T$21, DW_AT_decl_line(0x7a)
    2066                    .dwattr $C$DW$T$21, DW_AT_decl_column(0x10)
    2067                    .dwendtag $C$DW$T$21
    2068            
    2069            $C$DW$T$31      .dwtag  DW_TAG_typedef
    2070                    .dwattr $C$DW$T$31, DW_AT_name("__max_align_t")
    2071                    .dwattr $C$DW$T$31, DW_AT_type(*$C$DW$T$21)
    2072                    .dwattr $C$DW$T$31, DW_AT_language(DW_LANG_C)
    2073                    .dwattr $C$DW$T$31, DW_AT_decl_file("C:/ti/ccs1110/ccs/tools/compiler/ti-cgt-msp430_21.6.1.LTS
    2074                    .dwattr $C$DW$T$31, DW_AT_decl_line(0x7d)
    2075                    .dwattr $C$DW$T$31, DW_AT_decl_column(0x03)
    2076            
    2077            
    2078            $C$DW$T$24      .dwtag  DW_TAG_structure_type
    2079                    .dwattr $C$DW$T$24, DW_AT_name("Timer_A_initCaptureModeParam")
    2080                    .dwattr $C$DW$T$24, DW_AT_byte_size(0x0c)
    2081            $C$DW$138       .dwtag  DW_TAG_member
    2082                    .dwattr $C$DW$138, DW_AT_type(*$C$DW$T$23)
    2083                    .dwattr $C$DW$138, DW_AT_name("captureRegister")
    2084                    .dwattr $C$DW$138, DW_AT_TI_symbol_name("captureRegister")
    2085                    .dwattr $C$DW$138, DW_AT_data_member_location[DW_OP_plus_uconst 0x0]
    2086                    .dwattr $C$DW$138, DW_AT_accessibility(DW_ACCESS_public)
    2087                    .dwattr $C$DW$138, DW_AT_decl_file("..\MP430DriverLib\driverlib\MSP430F5xx_6xx\timer_a.h")
    2088                    .dwattr $C$DW$138, DW_AT_decl_line(0x68)
    2089                    .dwattr $C$DW$138, DW_AT_decl_column(0x0e)
    2090            
    2091            $C$DW$139       .dwtag  DW_TAG_member
    2092                    .dwattr $C$DW$139, DW_AT_type(*$C$DW$T$23)
    2093                    .dwattr $C$DW$139, DW_AT_name("captureMode")
    2094                    .dwattr $C$DW$139, DW_AT_TI_symbol_name("captureMode")
    2095                    .dwattr $C$DW$139, DW_AT_data_member_location[DW_OP_plus_uconst 0x2]
    2096                    .dwattr $C$DW$139, DW_AT_accessibility(DW_ACCESS_public)
    2097                    .dwattr $C$DW$139, DW_AT_decl_file("..\MP430DriverLib\driverlib\MSP430F5xx_6xx\timer_a.h")
    2098                    .dwattr $C$DW$139, DW_AT_decl_line(0x6f)
    2099                    .dwattr $C$DW$139, DW_AT_decl_column(0x0e)
    2100            
    2101            $C$DW$140       .dwtag  DW_TAG_member
    2102                    .dwattr $C$DW$140, DW_AT_type(*$C$DW$T$23)
    2103                    .dwattr $C$DW$140, DW_AT_name("captureInputSelect")
    2104                    .dwattr $C$DW$140, DW_AT_TI_symbol_name("captureInputSelect")
    2105                    .dwattr $C$DW$140, DW_AT_data_member_location[DW_OP_plus_uconst 0x4]
    2106                    .dwattr $C$DW$140, DW_AT_accessibility(DW_ACCESS_public)
    2107                    .dwattr $C$DW$140, DW_AT_decl_file("..\MP430DriverLib\driverlib\MSP430F5xx_6xx\timer_a.h")
    2108                    .dwattr $C$DW$140, DW_AT_decl_line(0x76)
    2109                    .dwattr $C$DW$140, DW_AT_decl_column(0x0e)
    2110            
    2111            $C$DW$141       .dwtag  DW_TAG_member
    2112                    .dwattr $C$DW$141, DW_AT_type(*$C$DW$T$23)
    2113                    .dwattr $C$DW$141, DW_AT_name("synchronizeCaptureSource")
    2114                    .dwattr $C$DW$141, DW_AT_TI_symbol_name("synchronizeCaptureSource")
    2115                    .dwattr $C$DW$141, DW_AT_data_member_location[DW_OP_plus_uconst 0x6]
    2116                    .dwattr $C$DW$141, DW_AT_accessibility(DW_ACCESS_public)
    2117                    .dwattr $C$DW$141, DW_AT_decl_file("..\MP430DriverLib\driverlib\MSP430F5xx_6xx\timer_a.h")
MSP430 Assembler PC v21.6.1 Tue Dec 20 13:45:52 2022

Copyright (c) 2003-2018 Texas Instruments Incorporated
timer_a.asm                                                          PAGE   42

    2118                    .dwattr $C$DW$141, DW_AT_decl_line(0x7b)
    2119                    .dwattr $C$DW$141, DW_AT_decl_column(0x0e)
    2120            
    2121            $C$DW$142       .dwtag  DW_TAG_member
    2122                    .dwattr $C$DW$142, DW_AT_type(*$C$DW$T$23)
    2123                    .dwattr $C$DW$142, DW_AT_name("captureInterruptEnable")
    2124                    .dwattr $C$DW$142, DW_AT_TI_symbol_name("captureInterruptEnable")
    2125                    .dwattr $C$DW$142, DW_AT_data_member_location[DW_OP_plus_uconst 0x8]
    2126                    .dwattr $C$DW$142, DW_AT_accessibility(DW_ACCESS_public)
    2127                    .dwattr $C$DW$142, DW_AT_decl_file("..\MP430DriverLib\driverlib\MSP430F5xx_6xx\timer_a.h")
    2128                    .dwattr $C$DW$142, DW_AT_decl_line(0x80)
    2129                    .dwattr $C$DW$142, DW_AT_decl_column(0x0e)
    2130            
    2131            $C$DW$143       .dwtag  DW_TAG_member
    2132                    .dwattr $C$DW$143, DW_AT_type(*$C$DW$T$23)
    2133                    .dwattr $C$DW$143, DW_AT_name("captureOutputMode")
    2134                    .dwattr $C$DW$143, DW_AT_TI_symbol_name("captureOutputMode")
    2135                    .dwattr $C$DW$143, DW_AT_data_member_location[DW_OP_plus_uconst 0xa]
    2136                    .dwattr $C$DW$143, DW_AT_accessibility(DW_ACCESS_public)
    2137                    .dwattr $C$DW$143, DW_AT_decl_file("..\MP430DriverLib\driverlib\MSP430F5xx_6xx\timer_a.h")
    2138                    .dwattr $C$DW$143, DW_AT_decl_line(0x8b)
    2139                    .dwattr $C$DW$143, DW_AT_decl_column(0x0e)
    2140            
    2141                    .dwattr $C$DW$T$24, DW_AT_decl_file("..\MP430DriverLib\driverlib\MSP430F5xx_6xx\timer_a.h")
    2142                    .dwattr $C$DW$T$24, DW_AT_decl_line(0x5d)
    2143                    .dwattr $C$DW$T$24, DW_AT_decl_column(0x10)
    2144                    .dwendtag $C$DW$T$24
    2145            
    2146            $C$DW$T$32      .dwtag  DW_TAG_typedef
    2147                    .dwattr $C$DW$T$32, DW_AT_name("Timer_A_initCaptureModeParam")
    2148                    .dwattr $C$DW$T$32, DW_AT_type(*$C$DW$T$24)
    2149                    .dwattr $C$DW$T$32, DW_AT_language(DW_LANG_C)
    2150                    .dwattr $C$DW$T$32, DW_AT_decl_file("..\MP430DriverLib\driverlib\MSP430F5xx_6xx\timer_a.h")
    2151                    .dwattr $C$DW$T$32, DW_AT_decl_line(0x8c)
    2152                    .dwattr $C$DW$T$32, DW_AT_decl_column(0x03)
    2153            
    2154            $C$DW$T$33      .dwtag  DW_TAG_pointer_type
    2155                    .dwattr $C$DW$T$33, DW_AT_type(*$C$DW$T$32)
    2156                    .dwattr $C$DW$T$33, DW_AT_address_class(0x14)
    2157            
    2158            
    2159            $C$DW$T$25      .dwtag  DW_TAG_structure_type
    2160                    .dwattr $C$DW$T$25, DW_AT_name("Timer_A_initCompareModeParam")
    2161                    .dwattr $C$DW$T$25, DW_AT_byte_size(0x08)
    2162            $C$DW$144       .dwtag  DW_TAG_member
    2163                    .dwattr $C$DW$144, DW_AT_type(*$C$DW$T$23)
    2164                    .dwattr $C$DW$144, DW_AT_name("compareRegister")
    2165                    .dwattr $C$DW$144, DW_AT_TI_symbol_name("compareRegister")
    2166                    .dwattr $C$DW$144, DW_AT_data_member_location[DW_OP_plus_uconst 0x0]
    2167                    .dwattr $C$DW$144, DW_AT_accessibility(DW_ACCESS_public)
    2168                    .dwattr $C$DW$144, DW_AT_decl_file("..\MP430DriverLib\driverlib\MSP430F5xx_6xx\timer_a.h")
    2169                    .dwattr $C$DW$144, DW_AT_decl_line(0x155)
    2170                    .dwattr $C$DW$144, DW_AT_decl_column(0x0e)
    2171            
    2172            $C$DW$145       .dwtag  DW_TAG_member
MSP430 Assembler PC v21.6.1 Tue Dec 20 13:45:52 2022

Copyright (c) 2003-2018 Texas Instruments Incorporated
timer_a.asm                                                          PAGE   43

    2173                    .dwattr $C$DW$145, DW_AT_type(*$C$DW$T$23)
    2174                    .dwattr $C$DW$145, DW_AT_name("compareInterruptEnable")
    2175                    .dwattr $C$DW$145, DW_AT_TI_symbol_name("compareInterruptEnable")
    2176                    .dwattr $C$DW$145, DW_AT_data_member_location[DW_OP_plus_uconst 0x2]
    2177                    .dwattr $C$DW$145, DW_AT_accessibility(DW_ACCESS_public)
    2178                    .dwattr $C$DW$145, DW_AT_decl_file("..\MP430DriverLib\driverlib\MSP430F5xx_6xx\timer_a.h")
    2179                    .dwattr $C$DW$145, DW_AT_decl_line(0x15a)
    2180                    .dwattr $C$DW$145, DW_AT_decl_column(0x0e)
    2181            
    2182            $C$DW$146       .dwtag  DW_TAG_member
    2183                    .dwattr $C$DW$146, DW_AT_type(*$C$DW$T$23)
    2184                    .dwattr $C$DW$146, DW_AT_name("compareOutputMode")
    2185                    .dwattr $C$DW$146, DW_AT_TI_symbol_name("compareOutputMode")
    2186                    .dwattr $C$DW$146, DW_AT_data_member_location[DW_OP_plus_uconst 0x4]
    2187                    .dwattr $C$DW$146, DW_AT_accessibility(DW_ACCESS_public)
    2188                    .dwattr $C$DW$146, DW_AT_decl_file("..\MP430DriverLib\driverlib\MSP430F5xx_6xx\timer_a.h")
    2189                    .dwattr $C$DW$146, DW_AT_decl_line(0x165)
    2190                    .dwattr $C$DW$146, DW_AT_decl_column(0x0e)
    2191            
    2192            $C$DW$147       .dwtag  DW_TAG_member
    2193                    .dwattr $C$DW$147, DW_AT_type(*$C$DW$T$23)
    2194                    .dwattr $C$DW$147, DW_AT_name("compareValue")
    2195                    .dwattr $C$DW$147, DW_AT_TI_symbol_name("compareValue")
    2196                    .dwattr $C$DW$147, DW_AT_data_member_location[DW_OP_plus_uconst 0x6]
    2197                    .dwattr $C$DW$147, DW_AT_accessibility(DW_ACCESS_public)
    2198                    .dwattr $C$DW$147, DW_AT_decl_file("..\MP430DriverLib\driverlib\MSP430F5xx_6xx\timer_a.h")
    2199                    .dwattr $C$DW$147, DW_AT_decl_line(0x167)
    2200                    .dwattr $C$DW$147, DW_AT_decl_column(0x0e)
    2201            
    2202                    .dwattr $C$DW$T$25, DW_AT_decl_file("..\MP430DriverLib\driverlib\MSP430F5xx_6xx\timer_a.h")
    2203                    .dwattr $C$DW$T$25, DW_AT_decl_line(0x14a)
    2204                    .dwattr $C$DW$T$25, DW_AT_decl_column(0x10)
    2205                    .dwendtag $C$DW$T$25
    2206            
    2207            $C$DW$T$35      .dwtag  DW_TAG_typedef
    2208                    .dwattr $C$DW$T$35, DW_AT_name("Timer_A_initCompareModeParam")
    2209                    .dwattr $C$DW$T$35, DW_AT_type(*$C$DW$T$25)
    2210                    .dwattr $C$DW$T$35, DW_AT_language(DW_LANG_C)
    2211                    .dwattr $C$DW$T$35, DW_AT_decl_file("..\MP430DriverLib\driverlib\MSP430F5xx_6xx\timer_a.h")
    2212                    .dwattr $C$DW$T$35, DW_AT_decl_line(0x168)
    2213                    .dwattr $C$DW$T$35, DW_AT_decl_column(0x03)
    2214            
    2215            $C$DW$T$36      .dwtag  DW_TAG_pointer_type
    2216                    .dwattr $C$DW$T$36, DW_AT_type(*$C$DW$T$35)
    2217                    .dwattr $C$DW$T$36, DW_AT_address_class(0x14)
    2218            
    2219            
    2220            $C$DW$T$27      .dwtag  DW_TAG_structure_type
    2221                    .dwattr $C$DW$T$27, DW_AT_name("Timer_A_initContinuousModeParam")
    2222                    .dwattr $C$DW$T$27, DW_AT_byte_size(0x0a)
    2223            $C$DW$148       .dwtag  DW_TAG_member
    2224                    .dwattr $C$DW$148, DW_AT_type(*$C$DW$T$23)
    2225                    .dwattr $C$DW$148, DW_AT_name("clockSource")
    2226                    .dwattr $C$DW$148, DW_AT_TI_symbol_name("clockSource")
    2227                    .dwattr $C$DW$148, DW_AT_data_member_location[DW_OP_plus_uconst 0x0]
MSP430 Assembler PC v21.6.1 Tue Dec 20 13:45:52 2022

Copyright (c) 2003-2018 Texas Instruments Incorporated
timer_a.asm                                                          PAGE   44

    2228                    .dwattr $C$DW$148, DW_AT_accessibility(DW_ACCESS_public)
    2229                    .dwattr $C$DW$148, DW_AT_decl_file("..\MP430DriverLib\driverlib\MSP430F5xx_6xx\timer_a.h")
    2230                    .dwattr $C$DW$148, DW_AT_decl_line(0x30)
    2231                    .dwattr $C$DW$148, DW_AT_decl_column(0x0e)
    2232            
    2233            $C$DW$149       .dwtag  DW_TAG_member
    2234                    .dwattr $C$DW$149, DW_AT_type(*$C$DW$T$23)
    2235                    .dwattr $C$DW$149, DW_AT_name("clockSourceDivider")
    2236                    .dwattr $C$DW$149, DW_AT_TI_symbol_name("clockSourceDivider")
    2237                    .dwattr $C$DW$149, DW_AT_data_member_location[DW_OP_plus_uconst 0x2]
    2238                    .dwattr $C$DW$149, DW_AT_accessibility(DW_ACCESS_public)
    2239                    .dwattr $C$DW$149, DW_AT_decl_file("..\MP430DriverLib\driverlib\MSP430F5xx_6xx\timer_a.h")
    2240                    .dwattr $C$DW$149, DW_AT_decl_line(0x47)
    2241                    .dwattr $C$DW$149, DW_AT_decl_column(0x0e)
    2242            
    2243            $C$DW$150       .dwtag  DW_TAG_member
    2244                    .dwattr $C$DW$150, DW_AT_type(*$C$DW$T$23)
    2245                    .dwattr $C$DW$150, DW_AT_name("timerInterruptEnable_TAIE")
    2246                    .dwattr $C$DW$150, DW_AT_TI_symbol_name("timerInterruptEnable_TAIE")
    2247                    .dwattr $C$DW$150, DW_AT_data_member_location[DW_OP_plus_uconst 0x4]
    2248                    .dwattr $C$DW$150, DW_AT_accessibility(DW_ACCESS_public)
    2249                    .dwattr $C$DW$150, DW_AT_decl_file("..\MP430DriverLib\driverlib\MSP430F5xx_6xx\timer_a.h")
    2250                    .dwattr $C$DW$150, DW_AT_decl_line(0x4c)
    2251                    .dwattr $C$DW$150, DW_AT_decl_column(0x0e)
    2252            
    2253            $C$DW$151       .dwtag  DW_TAG_member
    2254                    .dwattr $C$DW$151, DW_AT_type(*$C$DW$T$23)
    2255                    .dwattr $C$DW$151, DW_AT_name("timerClear")
    2256                    .dwattr $C$DW$151, DW_AT_TI_symbol_name("timerClear")
    2257                    .dwattr $C$DW$151, DW_AT_data_member_location[DW_OP_plus_uconst 0x6]
    2258                    .dwattr $C$DW$151, DW_AT_accessibility(DW_ACCESS_public)
    2259                    .dwattr $C$DW$151, DW_AT_decl_file("..\MP430DriverLib\driverlib\MSP430F5xx_6xx\timer_a.h")
    2260                    .dwattr $C$DW$151, DW_AT_decl_line(0x52)
    2261                    .dwattr $C$DW$151, DW_AT_decl_column(0x0e)
    2262            
    2263            $C$DW$152       .dwtag  DW_TAG_member
    2264                    .dwattr $C$DW$152, DW_AT_type(*$C$DW$T$26)
    2265                    .dwattr $C$DW$152, DW_AT_name("startTimer")
    2266                    .dwattr $C$DW$152, DW_AT_TI_symbol_name("startTimer")
    2267                    .dwattr $C$DW$152, DW_AT_data_member_location[DW_OP_plus_uconst 0x8]
    2268                    .dwattr $C$DW$152, DW_AT_accessibility(DW_ACCESS_public)
    2269                    .dwattr $C$DW$152, DW_AT_decl_file("..\MP430DriverLib\driverlib\MSP430F5xx_6xx\timer_a.h")
    2270                    .dwattr $C$DW$152, DW_AT_decl_line(0x54)
    2271                    .dwattr $C$DW$152, DW_AT_decl_column(0x0a)
    2272            
    2273                    .dwattr $C$DW$T$27, DW_AT_decl_file("..\MP430DriverLib\driverlib\MSP430F5xx_6xx\timer_a.h")
    2274                    .dwattr $C$DW$T$27, DW_AT_decl_line(0x29)
    2275                    .dwattr $C$DW$T$27, DW_AT_decl_column(0x10)
    2276                    .dwendtag $C$DW$T$27
    2277            
    2278            $C$DW$T$38      .dwtag  DW_TAG_typedef
    2279                    .dwattr $C$DW$T$38, DW_AT_name("Timer_A_initContinuousModeParam")
    2280                    .dwattr $C$DW$T$38, DW_AT_type(*$C$DW$T$27)
    2281                    .dwattr $C$DW$T$38, DW_AT_language(DW_LANG_C)
    2282                    .dwattr $C$DW$T$38, DW_AT_decl_file("..\MP430DriverLib\driverlib\MSP430F5xx_6xx\timer_a.h")
MSP430 Assembler PC v21.6.1 Tue Dec 20 13:45:52 2022

Copyright (c) 2003-2018 Texas Instruments Incorporated
timer_a.asm                                                          PAGE   45

    2283                    .dwattr $C$DW$T$38, DW_AT_decl_line(0x55)
    2284                    .dwattr $C$DW$T$38, DW_AT_decl_column(0x03)
    2285            
    2286            $C$DW$T$39      .dwtag  DW_TAG_pointer_type
    2287                    .dwattr $C$DW$T$39, DW_AT_type(*$C$DW$T$38)
    2288                    .dwattr $C$DW$T$39, DW_AT_address_class(0x14)
    2289            
    2290            
    2291            $C$DW$T$28      .dwtag  DW_TAG_structure_type
    2292                    .dwattr $C$DW$T$28, DW_AT_name("Timer_A_initUpDownModeParam")
    2293                    .dwattr $C$DW$T$28, DW_AT_byte_size(0x0e)
    2294            $C$DW$153       .dwtag  DW_TAG_member
    2295                    .dwattr $C$DW$153, DW_AT_type(*$C$DW$T$23)
    2296                    .dwattr $C$DW$153, DW_AT_name("clockSource")
    2297                    .dwattr $C$DW$153, DW_AT_TI_symbol_name("clockSource")
    2298                    .dwattr $C$DW$153, DW_AT_data_member_location[DW_OP_plus_uconst 0x0]
    2299                    .dwattr $C$DW$153, DW_AT_accessibility(DW_ACCESS_public)
    2300                    .dwattr $C$DW$153, DW_AT_decl_file("..\MP430DriverLib\driverlib\MSP430F5xx_6xx\timer_a.h")
    2301                    .dwattr $C$DW$153, DW_AT_decl_line(0x9b)
    2302                    .dwattr $C$DW$153, DW_AT_decl_column(0x0e)
    2303            
    2304            $C$DW$154       .dwtag  DW_TAG_member
    2305                    .dwattr $C$DW$154, DW_AT_type(*$C$DW$T$23)
    2306                    .dwattr $C$DW$154, DW_AT_name("clockSourceDivider")
    2307                    .dwattr $C$DW$154, DW_AT_TI_symbol_name("clockSourceDivider")
    2308                    .dwattr $C$DW$154, DW_AT_data_member_location[DW_OP_plus_uconst 0x2]
    2309                    .dwattr $C$DW$154, DW_AT_accessibility(DW_ACCESS_public)
    2310                    .dwattr $C$DW$154, DW_AT_decl_file("..\MP430DriverLib\driverlib\MSP430F5xx_6xx\timer_a.h")
    2311                    .dwattr $C$DW$154, DW_AT_decl_line(0xb2)
    2312                    .dwattr $C$DW$154, DW_AT_decl_column(0x0e)
    2313            
    2314            $C$DW$155       .dwtag  DW_TAG_member
    2315                    .dwattr $C$DW$155, DW_AT_type(*$C$DW$T$23)
    2316                    .dwattr $C$DW$155, DW_AT_name("timerPeriod")
    2317                    .dwattr $C$DW$155, DW_AT_TI_symbol_name("timerPeriod")
    2318                    .dwattr $C$DW$155, DW_AT_data_member_location[DW_OP_plus_uconst 0x4]
    2319                    .dwattr $C$DW$155, DW_AT_accessibility(DW_ACCESS_public)
    2320                    .dwattr $C$DW$155, DW_AT_decl_file("..\MP430DriverLib\driverlib\MSP430F5xx_6xx\timer_a.h")
    2321                    .dwattr $C$DW$155, DW_AT_decl_line(0xb4)
    2322                    .dwattr $C$DW$155, DW_AT_decl_column(0x0e)
    2323            
    2324            $C$DW$156       .dwtag  DW_TAG_member
    2325                    .dwattr $C$DW$156, DW_AT_type(*$C$DW$T$23)
    2326                    .dwattr $C$DW$156, DW_AT_name("timerInterruptEnable_TAIE")
    2327                    .dwattr $C$DW$156, DW_AT_TI_symbol_name("timerInterruptEnable_TAIE")
    2328                    .dwattr $C$DW$156, DW_AT_data_member_location[DW_OP_plus_uconst 0x6]
    2329                    .dwattr $C$DW$156, DW_AT_accessibility(DW_ACCESS_public)
    2330                    .dwattr $C$DW$156, DW_AT_decl_file("..\MP430DriverLib\driverlib\MSP430F5xx_6xx\timer_a.h")
    2331                    .dwattr $C$DW$156, DW_AT_decl_line(0xb9)
    2332                    .dwattr $C$DW$156, DW_AT_decl_column(0x0e)
    2333            
    2334            $C$DW$157       .dwtag  DW_TAG_member
    2335                    .dwattr $C$DW$157, DW_AT_type(*$C$DW$T$23)
    2336                    .dwattr $C$DW$157, DW_AT_name("captureCompareInterruptEnable_CCR0_CCIE")
    2337                    .dwattr $C$DW$157, DW_AT_TI_symbol_name("captureCompareInterruptEnable_CCR0_CCIE")
MSP430 Assembler PC v21.6.1 Tue Dec 20 13:45:52 2022

Copyright (c) 2003-2018 Texas Instruments Incorporated
timer_a.asm                                                          PAGE   46

    2338                    .dwattr $C$DW$157, DW_AT_data_member_location[DW_OP_plus_uconst 0x8]
    2339                    .dwattr $C$DW$157, DW_AT_accessibility(DW_ACCESS_public)
    2340                    .dwattr $C$DW$157, DW_AT_decl_file("..\MP430DriverLib\driverlib\MSP430F5xx_6xx\timer_a.h")
    2341                    .dwattr $C$DW$157, DW_AT_decl_line(0xbe)
    2342                    .dwattr $C$DW$157, DW_AT_decl_column(0x0e)
    2343            
    2344            $C$DW$158       .dwtag  DW_TAG_member
    2345                    .dwattr $C$DW$158, DW_AT_type(*$C$DW$T$23)
    2346                    .dwattr $C$DW$158, DW_AT_name("timerClear")
    2347                    .dwattr $C$DW$158, DW_AT_TI_symbol_name("timerClear")
    2348                    .dwattr $C$DW$158, DW_AT_data_member_location[DW_OP_plus_uconst 0xa]
    2349                    .dwattr $C$DW$158, DW_AT_accessibility(DW_ACCESS_public)
    2350                    .dwattr $C$DW$158, DW_AT_decl_file("..\MP430DriverLib\driverlib\MSP430F5xx_6xx\timer_a.h")
    2351                    .dwattr $C$DW$158, DW_AT_decl_line(0xc4)
    2352                    .dwattr $C$DW$158, DW_AT_decl_column(0x0e)
    2353            
    2354            $C$DW$159       .dwtag  DW_TAG_member
    2355                    .dwattr $C$DW$159, DW_AT_type(*$C$DW$T$26)
    2356                    .dwattr $C$DW$159, DW_AT_name("startTimer")
    2357                    .dwattr $C$DW$159, DW_AT_TI_symbol_name("startTimer")
    2358                    .dwattr $C$DW$159, DW_AT_data_member_location[DW_OP_plus_uconst 0xc]
    2359                    .dwattr $C$DW$159, DW_AT_accessibility(DW_ACCESS_public)
    2360                    .dwattr $C$DW$159, DW_AT_decl_file("..\MP430DriverLib\driverlib\MSP430F5xx_6xx\timer_a.h")
    2361                    .dwattr $C$DW$159, DW_AT_decl_line(0xc6)
    2362                    .dwattr $C$DW$159, DW_AT_decl_column(0x0a)
    2363            
    2364                    .dwattr $C$DW$T$28, DW_AT_decl_file("..\MP430DriverLib\driverlib\MSP430F5xx_6xx\timer_a.h")
    2365                    .dwattr $C$DW$T$28, DW_AT_decl_line(0x94)
    2366                    .dwattr $C$DW$T$28, DW_AT_decl_column(0x10)
    2367                    .dwendtag $C$DW$T$28
    2368            
    2369            $C$DW$T$41      .dwtag  DW_TAG_typedef
    2370                    .dwattr $C$DW$T$41, DW_AT_name("Timer_A_initUpDownModeParam")
    2371                    .dwattr $C$DW$T$41, DW_AT_type(*$C$DW$T$28)
    2372                    .dwattr $C$DW$T$41, DW_AT_language(DW_LANG_C)
    2373                    .dwattr $C$DW$T$41, DW_AT_decl_file("..\MP430DriverLib\driverlib\MSP430F5xx_6xx\timer_a.h")
    2374                    .dwattr $C$DW$T$41, DW_AT_decl_line(0xc7)
    2375                    .dwattr $C$DW$T$41, DW_AT_decl_column(0x03)
    2376            
    2377            $C$DW$T$42      .dwtag  DW_TAG_pointer_type
    2378                    .dwattr $C$DW$T$42, DW_AT_type(*$C$DW$T$41)
    2379                    .dwattr $C$DW$T$42, DW_AT_address_class(0x14)
    2380            
    2381            
    2382            $C$DW$T$29      .dwtag  DW_TAG_structure_type
    2383                    .dwattr $C$DW$T$29, DW_AT_name("Timer_A_initUpModeParam")
    2384                    .dwattr $C$DW$T$29, DW_AT_byte_size(0x0e)
    2385            $C$DW$160       .dwtag  DW_TAG_member
    2386                    .dwattr $C$DW$160, DW_AT_type(*$C$DW$T$23)
    2387                    .dwattr $C$DW$160, DW_AT_name("clockSource")
    2388                    .dwattr $C$DW$160, DW_AT_TI_symbol_name("clockSource")
    2389                    .dwattr $C$DW$160, DW_AT_data_member_location[DW_OP_plus_uconst 0x0]
    2390                    .dwattr $C$DW$160, DW_AT_accessibility(DW_ACCESS_public)
    2391                    .dwattr $C$DW$160, DW_AT_decl_file("..\MP430DriverLib\driverlib\MSP430F5xx_6xx\timer_a.h")
    2392                    .dwattr $C$DW$160, DW_AT_decl_line(0x115)
MSP430 Assembler PC v21.6.1 Tue Dec 20 13:45:52 2022

Copyright (c) 2003-2018 Texas Instruments Incorporated
timer_a.asm                                                          PAGE   47

    2393                    .dwattr $C$DW$160, DW_AT_decl_column(0x0e)
    2394            
    2395            $C$DW$161       .dwtag  DW_TAG_member
    2396                    .dwattr $C$DW$161, DW_AT_type(*$C$DW$T$23)
    2397                    .dwattr $C$DW$161, DW_AT_name("clockSourceDivider")
    2398                    .dwattr $C$DW$161, DW_AT_TI_symbol_name("clockSourceDivider")
    2399                    .dwattr $C$DW$161, DW_AT_data_member_location[DW_OP_plus_uconst 0x2]
    2400                    .dwattr $C$DW$161, DW_AT_accessibility(DW_ACCESS_public)
    2401                    .dwattr $C$DW$161, DW_AT_decl_file("..\MP430DriverLib\driverlib\MSP430F5xx_6xx\timer_a.h")
    2402                    .dwattr $C$DW$161, DW_AT_decl_line(0x12c)
    2403                    .dwattr $C$DW$161, DW_AT_decl_column(0x0e)
    2404            
    2405            $C$DW$162       .dwtag  DW_TAG_member
    2406                    .dwattr $C$DW$162, DW_AT_type(*$C$DW$T$23)
    2407                    .dwattr $C$DW$162, DW_AT_name("timerPeriod")
    2408                    .dwattr $C$DW$162, DW_AT_TI_symbol_name("timerPeriod")
    2409                    .dwattr $C$DW$162, DW_AT_data_member_location[DW_OP_plus_uconst 0x4]
    2410                    .dwattr $C$DW$162, DW_AT_accessibility(DW_ACCESS_public)
    2411                    .dwattr $C$DW$162, DW_AT_decl_file("..\MP430DriverLib\driverlib\MSP430F5xx_6xx\timer_a.h")
    2412                    .dwattr $C$DW$162, DW_AT_decl_line(0x12f)
    2413                    .dwattr $C$DW$162, DW_AT_decl_column(0x0e)
    2414            
    2415            $C$DW$163       .dwtag  DW_TAG_member
    2416                    .dwattr $C$DW$163, DW_AT_type(*$C$DW$T$23)
    2417                    .dwattr $C$DW$163, DW_AT_name("timerInterruptEnable_TAIE")
    2418                    .dwattr $C$DW$163, DW_AT_TI_symbol_name("timerInterruptEnable_TAIE")
    2419                    .dwattr $C$DW$163, DW_AT_data_member_location[DW_OP_plus_uconst 0x6]
    2420                    .dwattr $C$DW$163, DW_AT_accessibility(DW_ACCESS_public)
    2421                    .dwattr $C$DW$163, DW_AT_decl_file("..\MP430DriverLib\driverlib\MSP430F5xx_6xx\timer_a.h")
    2422                    .dwattr $C$DW$163, DW_AT_decl_line(0x134)
    2423                    .dwattr $C$DW$163, DW_AT_decl_column(0x0e)
    2424            
    2425            $C$DW$164       .dwtag  DW_TAG_member
    2426                    .dwattr $C$DW$164, DW_AT_type(*$C$DW$T$23)
    2427                    .dwattr $C$DW$164, DW_AT_name("captureCompareInterruptEnable_CCR0_CCIE")
    2428                    .dwattr $C$DW$164, DW_AT_TI_symbol_name("captureCompareInterruptEnable_CCR0_CCIE")
    2429                    .dwattr $C$DW$164, DW_AT_data_member_location[DW_OP_plus_uconst 0x8]
    2430                    .dwattr $C$DW$164, DW_AT_accessibility(DW_ACCESS_public)
    2431                    .dwattr $C$DW$164, DW_AT_decl_file("..\MP430DriverLib\driverlib\MSP430F5xx_6xx\timer_a.h")
    2432                    .dwattr $C$DW$164, DW_AT_decl_line(0x139)
    2433                    .dwattr $C$DW$164, DW_AT_decl_column(0x0e)
    2434            
    2435            $C$DW$165       .dwtag  DW_TAG_member
    2436                    .dwattr $C$DW$165, DW_AT_type(*$C$DW$T$23)
    2437                    .dwattr $C$DW$165, DW_AT_name("timerClear")
    2438                    .dwattr $C$DW$165, DW_AT_TI_symbol_name("timerClear")
    2439                    .dwattr $C$DW$165, DW_AT_data_member_location[DW_OP_plus_uconst 0xa]
    2440                    .dwattr $C$DW$165, DW_AT_accessibility(DW_ACCESS_public)
    2441                    .dwattr $C$DW$165, DW_AT_decl_file("..\MP430DriverLib\driverlib\MSP430F5xx_6xx\timer_a.h")
    2442                    .dwattr $C$DW$165, DW_AT_decl_line(0x13f)
    2443                    .dwattr $C$DW$165, DW_AT_decl_column(0x0e)
    2444            
    2445            $C$DW$166       .dwtag  DW_TAG_member
    2446                    .dwattr $C$DW$166, DW_AT_type(*$C$DW$T$26)
    2447                    .dwattr $C$DW$166, DW_AT_name("startTimer")
MSP430 Assembler PC v21.6.1 Tue Dec 20 13:45:52 2022

Copyright (c) 2003-2018 Texas Instruments Incorporated
timer_a.asm                                                          PAGE   48

    2448                    .dwattr $C$DW$166, DW_AT_TI_symbol_name("startTimer")
    2449                    .dwattr $C$DW$166, DW_AT_data_member_location[DW_OP_plus_uconst 0xc]
    2450                    .dwattr $C$DW$166, DW_AT_accessibility(DW_ACCESS_public)
    2451                    .dwattr $C$DW$166, DW_AT_decl_file("..\MP430DriverLib\driverlib\MSP430F5xx_6xx\timer_a.h")
    2452                    .dwattr $C$DW$166, DW_AT_decl_line(0x141)
    2453                    .dwattr $C$DW$166, DW_AT_decl_column(0x0a)
    2454            
    2455                    .dwattr $C$DW$T$29, DW_AT_decl_file("..\MP430DriverLib\driverlib\MSP430F5xx_6xx\timer_a.h")
    2456                    .dwattr $C$DW$T$29, DW_AT_decl_line(0x10e)
    2457                    .dwattr $C$DW$T$29, DW_AT_decl_column(0x10)
    2458                    .dwendtag $C$DW$T$29
    2459            
    2460            $C$DW$T$44      .dwtag  DW_TAG_typedef
    2461                    .dwattr $C$DW$T$44, DW_AT_name("Timer_A_initUpModeParam")
    2462                    .dwattr $C$DW$T$44, DW_AT_type(*$C$DW$T$29)
    2463                    .dwattr $C$DW$T$44, DW_AT_language(DW_LANG_C)
    2464                    .dwattr $C$DW$T$44, DW_AT_decl_file("..\MP430DriverLib\driverlib\MSP430F5xx_6xx\timer_a.h")
    2465                    .dwattr $C$DW$T$44, DW_AT_decl_line(0x142)
    2466                    .dwattr $C$DW$T$44, DW_AT_decl_column(0x03)
    2467            
    2468            $C$DW$T$45      .dwtag  DW_TAG_pointer_type
    2469                    .dwattr $C$DW$T$45, DW_AT_type(*$C$DW$T$44)
    2470                    .dwattr $C$DW$T$45, DW_AT_address_class(0x14)
    2471            
    2472            
    2473            $C$DW$T$30      .dwtag  DW_TAG_structure_type
    2474                    .dwattr $C$DW$T$30, DW_AT_name("Timer_A_outputPWMParam")
    2475                    .dwattr $C$DW$T$30, DW_AT_byte_size(0x0c)
    2476            $C$DW$167       .dwtag  DW_TAG_member
    2477                    .dwattr $C$DW$167, DW_AT_type(*$C$DW$T$23)
    2478                    .dwattr $C$DW$167, DW_AT_name("clockSource")
    2479                    .dwattr $C$DW$167, DW_AT_TI_symbol_name("clockSource")
    2480                    .dwattr $C$DW$167, DW_AT_data_member_location[DW_OP_plus_uconst 0x0]
    2481                    .dwattr $C$DW$167, DW_AT_accessibility(DW_ACCESS_public)
    2482                    .dwattr $C$DW$167, DW_AT_decl_file("..\MP430DriverLib\driverlib\MSP430F5xx_6xx\timer_a.h")
    2483                    .dwattr $C$DW$167, DW_AT_decl_line(0xd5)
    2484                    .dwattr $C$DW$167, DW_AT_decl_column(0x0e)
    2485            
    2486            $C$DW$168       .dwtag  DW_TAG_member
    2487                    .dwattr $C$DW$168, DW_AT_type(*$C$DW$T$23)
    2488                    .dwattr $C$DW$168, DW_AT_name("clockSourceDivider")
    2489                    .dwattr $C$DW$168, DW_AT_TI_symbol_name("clockSourceDivider")
    2490                    .dwattr $C$DW$168, DW_AT_data_member_location[DW_OP_plus_uconst 0x2]
    2491                    .dwattr $C$DW$168, DW_AT_accessibility(DW_ACCESS_public)
    2492                    .dwattr $C$DW$168, DW_AT_decl_file("..\MP430DriverLib\driverlib\MSP430F5xx_6xx\timer_a.h")
    2493                    .dwattr $C$DW$168, DW_AT_decl_line(0xec)
    2494                    .dwattr $C$DW$168, DW_AT_decl_column(0x0e)
    2495            
    2496            $C$DW$169       .dwtag  DW_TAG_member
    2497                    .dwattr $C$DW$169, DW_AT_type(*$C$DW$T$23)
    2498                    .dwattr $C$DW$169, DW_AT_name("timerPeriod")
    2499                    .dwattr $C$DW$169, DW_AT_TI_symbol_name("timerPeriod")
    2500                    .dwattr $C$DW$169, DW_AT_data_member_location[DW_OP_plus_uconst 0x4]
    2501                    .dwattr $C$DW$169, DW_AT_accessibility(DW_ACCESS_public)
    2502                    .dwattr $C$DW$169, DW_AT_decl_file("..\MP430DriverLib\driverlib\MSP430F5xx_6xx\timer_a.h")
MSP430 Assembler PC v21.6.1 Tue Dec 20 13:45:52 2022

Copyright (c) 2003-2018 Texas Instruments Incorporated
timer_a.asm                                                          PAGE   49

    2503                    .dwattr $C$DW$169, DW_AT_decl_line(0xee)
    2504                    .dwattr $C$DW$169, DW_AT_decl_column(0x0e)
    2505            
    2506            $C$DW$170       .dwtag  DW_TAG_member
    2507                    .dwattr $C$DW$170, DW_AT_type(*$C$DW$T$23)
    2508                    .dwattr $C$DW$170, DW_AT_name("compareRegister")
    2509                    .dwattr $C$DW$170, DW_AT_TI_symbol_name("compareRegister")
    2510                    .dwattr $C$DW$170, DW_AT_data_member_location[DW_OP_plus_uconst 0x6]
    2511                    .dwattr $C$DW$170, DW_AT_accessibility(DW_ACCESS_public)
    2512                    .dwattr $C$DW$170, DW_AT_decl_file("..\MP430DriverLib\driverlib\MSP430F5xx_6xx\timer_a.h")
    2513                    .dwattr $C$DW$170, DW_AT_decl_line(0xf9)
    2514                    .dwattr $C$DW$170, DW_AT_decl_column(0x0e)
    2515            
    2516            $C$DW$171       .dwtag  DW_TAG_member
    2517                    .dwattr $C$DW$171, DW_AT_type(*$C$DW$T$23)
    2518                    .dwattr $C$DW$171, DW_AT_name("compareOutputMode")
    2519                    .dwattr $C$DW$171, DW_AT_TI_symbol_name("compareOutputMode")
    2520                    .dwattr $C$DW$171, DW_AT_data_member_location[DW_OP_plus_uconst 0x8]
    2521                    .dwattr $C$DW$171, DW_AT_accessibility(DW_ACCESS_public)
    2522                    .dwattr $C$DW$171, DW_AT_decl_file("..\MP430DriverLib\driverlib\MSP430F5xx_6xx\timer_a.h")
    2523                    .dwattr $C$DW$171, DW_AT_decl_line(0x104)
    2524                    .dwattr $C$DW$171, DW_AT_decl_column(0x0e)
    2525            
    2526            $C$DW$172       .dwtag  DW_TAG_member
    2527                    .dwattr $C$DW$172, DW_AT_type(*$C$DW$T$23)
    2528                    .dwattr $C$DW$172, DW_AT_name("dutyCycle")
    2529                    .dwattr $C$DW$172, DW_AT_TI_symbol_name("dutyCycle")
    2530                    .dwattr $C$DW$172, DW_AT_data_member_location[DW_OP_plus_uconst 0xa]
    2531                    .dwattr $C$DW$172, DW_AT_accessibility(DW_ACCESS_public)
    2532                    .dwattr $C$DW$172, DW_AT_decl_file("..\MP430DriverLib\driverlib\MSP430F5xx_6xx\timer_a.h")
    2533                    .dwattr $C$DW$172, DW_AT_decl_line(0x106)
    2534                    .dwattr $C$DW$172, DW_AT_decl_column(0x0e)
    2535            
    2536                    .dwattr $C$DW$T$30, DW_AT_decl_file("..\MP430DriverLib\driverlib\MSP430F5xx_6xx\timer_a.h")
    2537                    .dwattr $C$DW$T$30, DW_AT_decl_line(0xce)
    2538                    .dwattr $C$DW$T$30, DW_AT_decl_column(0x10)
    2539                    .dwendtag $C$DW$T$30
    2540            
    2541            $C$DW$T$47      .dwtag  DW_TAG_typedef
    2542                    .dwattr $C$DW$T$47, DW_AT_name("Timer_A_outputPWMParam")
    2543                    .dwattr $C$DW$T$47, DW_AT_type(*$C$DW$T$30)
    2544                    .dwattr $C$DW$T$47, DW_AT_language(DW_LANG_C)
    2545                    .dwattr $C$DW$T$47, DW_AT_decl_file("..\MP430DriverLib\driverlib\MSP430F5xx_6xx\timer_a.h")
    2546                    .dwattr $C$DW$T$47, DW_AT_decl_line(0x107)
    2547                    .dwattr $C$DW$T$47, DW_AT_decl_column(0x03)
    2548            
    2549            $C$DW$T$48      .dwtag  DW_TAG_pointer_type
    2550                    .dwattr $C$DW$T$48, DW_AT_type(*$C$DW$T$47)
    2551                    .dwattr $C$DW$T$48, DW_AT_address_class(0x14)
    2552            
    2553            $C$DW$T$2       .dwtag  DW_TAG_unspecified_type
    2554                    .dwattr $C$DW$T$2, DW_AT_name("void")
    2555            
    2556            
    2557            $C$DW$T$62      .dwtag  DW_TAG_subroutine_type
MSP430 Assembler PC v21.6.1 Tue Dec 20 13:45:52 2022

Copyright (c) 2003-2018 Texas Instruments Incorporated
timer_a.asm                                                          PAGE   50

    2558                    .dwattr $C$DW$T$62, DW_AT_language(DW_LANG_C)
    2559                    .dwendtag $C$DW$T$62
    2560            
    2561            $C$DW$T$63      .dwtag  DW_TAG_pointer_type
    2562                    .dwattr $C$DW$T$63, DW_AT_type(*$C$DW$T$62)
    2563                    .dwattr $C$DW$T$63, DW_AT_address_class(0x14)
    2564            
    2565            $C$DW$T$64      .dwtag  DW_TAG_typedef
    2566                    .dwattr $C$DW$T$64, DW_AT_name("__SFR_FARPTR")
    2567                    .dwattr $C$DW$T$64, DW_AT_type(*$C$DW$T$63)
    2568                    .dwattr $C$DW$T$64, DW_AT_language(DW_LANG_C)
    2569                    .dwattr $C$DW$T$64, DW_AT_decl_file("C:\ti\ccs1110\ccs\ccs_base\msp430\include\msp430f5438a.h"
    2570                    .dwattr $C$DW$T$64, DW_AT_decl_line(0x49)
    2571                    .dwattr $C$DW$T$64, DW_AT_decl_column(0x11)
    2572            
    2573            $C$DW$T$4       .dwtag  DW_TAG_base_type
    2574                    .dwattr $C$DW$T$4, DW_AT_encoding(DW_ATE_boolean)
    2575                    .dwattr $C$DW$T$4, DW_AT_name("bool")
    2576                    .dwattr $C$DW$T$4, DW_AT_byte_size(0x01)
    2577            
    2578            $C$DW$T$5       .dwtag  DW_TAG_base_type
    2579                    .dwattr $C$DW$T$5, DW_AT_encoding(DW_ATE_signed_char)
    2580                    .dwattr $C$DW$T$5, DW_AT_name("signed char")
    2581                    .dwattr $C$DW$T$5, DW_AT_byte_size(0x01)
    2582            
    2583            $C$DW$T$65      .dwtag  DW_TAG_typedef
    2584                    .dwattr $C$DW$T$65, DW_AT_name("__int8_t")
    2585                    .dwattr $C$DW$T$65, DW_AT_type(*$C$DW$T$5)
    2586                    .dwattr $C$DW$T$65, DW_AT_language(DW_LANG_C)
    2587                    .dwattr $C$DW$T$65, DW_AT_decl_file("C:/ti/ccs1110/ccs/tools/compiler/ti-cgt-msp430_21.6.1.LTS
    2588                    .dwattr $C$DW$T$65, DW_AT_decl_line(0x36)
    2589                    .dwattr $C$DW$T$65, DW_AT_decl_column(0x16)
    2590            
    2591            $C$DW$T$66      .dwtag  DW_TAG_typedef
    2592                    .dwattr $C$DW$T$66, DW_AT_name("__int_least8_t")
    2593                    .dwattr $C$DW$T$66, DW_AT_type(*$C$DW$T$65)
    2594                    .dwattr $C$DW$T$66, DW_AT_language(DW_LANG_C)
    2595                    .dwattr $C$DW$T$66, DW_AT_decl_file("C:/ti/ccs1110/ccs/tools/compiler/ti-cgt-msp430_21.6.1.LTS
    2596                    .dwattr $C$DW$T$66, DW_AT_decl_line(0x5a)
    2597                    .dwattr $C$DW$T$66, DW_AT_decl_column(0x12)
    2598            
    2599            $C$DW$T$67      .dwtag  DW_TAG_typedef
    2600                    .dwattr $C$DW$T$67, DW_AT_name("int_least8_t")
    2601                    .dwattr $C$DW$T$67, DW_AT_type(*$C$DW$T$66)
    2602                    .dwattr $C$DW$T$67, DW_AT_language(DW_LANG_C)
    2603                    .dwattr $C$DW$T$67, DW_AT_decl_file("C:/ti/ccs1110/ccs/tools/compiler/ti-cgt-msp430_21.6.1.LTS
    2604                    .dwattr $C$DW$T$67, DW_AT_decl_line(0x2a)
    2605                    .dwattr $C$DW$T$67, DW_AT_decl_column(0x19)
    2606            
    2607            $C$DW$T$68      .dwtag  DW_TAG_typedef
    2608                    .dwattr $C$DW$T$68, DW_AT_name("int8_t")
    2609                    .dwattr $C$DW$T$68, DW_AT_type(*$C$DW$T$65)
    2610                    .dwattr $C$DW$T$68, DW_AT_language(DW_LANG_C)
    2611                    .dwattr $C$DW$T$68, DW_AT_decl_file("C:/ti/ccs1110/ccs/tools/compiler/ti-cgt-msp430_21.6.1.LTS
    2612                    .dwattr $C$DW$T$68, DW_AT_decl_line(0x25)
MSP430 Assembler PC v21.6.1 Tue Dec 20 13:45:52 2022

Copyright (c) 2003-2018 Texas Instruments Incorporated
timer_a.asm                                                          PAGE   51

    2613                    .dwattr $C$DW$T$68, DW_AT_decl_column(0x13)
    2614            
    2615            $C$DW$T$6       .dwtag  DW_TAG_base_type
    2616                    .dwattr $C$DW$T$6, DW_AT_encoding(DW_ATE_unsigned_char)
    2617                    .dwattr $C$DW$T$6, DW_AT_name("unsigned char")
    2618                    .dwattr $C$DW$T$6, DW_AT_byte_size(0x01)
    2619            
    2620            $C$DW$T$57      .dwtag  DW_TAG_typedef
    2621                    .dwattr $C$DW$T$57, DW_AT_name("__uint8_t")
    2622                    .dwattr $C$DW$T$57, DW_AT_type(*$C$DW$T$6)
    2623                    .dwattr $C$DW$T$57, DW_AT_language(DW_LANG_C)
    2624                    .dwattr $C$DW$T$57, DW_AT_decl_file("C:/ti/ccs1110/ccs/tools/compiler/ti-cgt-msp430_21.6.1.LTS
    2625                    .dwattr $C$DW$T$57, DW_AT_decl_line(0x37)
    2626                    .dwattr $C$DW$T$57, DW_AT_decl_column(0x18)
    2627            
    2628            $C$DW$T$71      .dwtag  DW_TAG_typedef
    2629                    .dwattr $C$DW$T$71, DW_AT_name("__sa_family_t")
    2630                    .dwattr $C$DW$T$71, DW_AT_type(*$C$DW$T$57)
    2631                    .dwattr $C$DW$T$71, DW_AT_language(DW_LANG_C)
    2632                    .dwattr $C$DW$T$71, DW_AT_decl_file("C:/ti/ccs1110/ccs/tools/compiler/ti-cgt-msp430_21.6.1.LTS
    2633                    .dwattr $C$DW$T$71, DW_AT_decl_line(0x47)
    2634                    .dwattr $C$DW$T$71, DW_AT_decl_column(0x13)
    2635            
    2636            $C$DW$T$72      .dwtag  DW_TAG_typedef
    2637                    .dwattr $C$DW$T$72, DW_AT_name("__uint_least8_t")
    2638                    .dwattr $C$DW$T$72, DW_AT_type(*$C$DW$T$57)
    2639                    .dwattr $C$DW$T$72, DW_AT_language(DW_LANG_C)
    2640                    .dwattr $C$DW$T$72, DW_AT_decl_file("C:/ti/ccs1110/ccs/tools/compiler/ti-cgt-msp430_21.6.1.LTS
    2641                    .dwattr $C$DW$T$72, DW_AT_decl_line(0x74)
    2642                    .dwattr $C$DW$T$72, DW_AT_decl_column(0x13)
    2643            
    2644            $C$DW$T$73      .dwtag  DW_TAG_typedef
    2645                    .dwattr $C$DW$T$73, DW_AT_name("uint_least8_t")
    2646                    .dwattr $C$DW$T$73, DW_AT_type(*$C$DW$T$72)
    2647                    .dwattr $C$DW$T$73, DW_AT_language(DW_LANG_C)
    2648                    .dwattr $C$DW$T$73, DW_AT_decl_file("C:/ti/ccs1110/ccs/tools/compiler/ti-cgt-msp430_21.6.1.LTS
    2649                    .dwattr $C$DW$T$73, DW_AT_decl_line(0x2f)
    2650                    .dwattr $C$DW$T$73, DW_AT_decl_column(0x1a)
    2651            
    2652            $C$DW$T$58      .dwtag  DW_TAG_typedef
    2653                    .dwattr $C$DW$T$58, DW_AT_name("uint8_t")
    2654                    .dwattr $C$DW$T$58, DW_AT_type(*$C$DW$T$57)
    2655                    .dwattr $C$DW$T$58, DW_AT_language(DW_LANG_C)
    2656                    .dwattr $C$DW$T$58, DW_AT_decl_file("C:/ti/ccs1110/ccs/tools/compiler/ti-cgt-msp430_21.6.1.LTS
    2657                    .dwattr $C$DW$T$58, DW_AT_decl_line(0x3b)
    2658                    .dwattr $C$DW$T$58, DW_AT_decl_column(0x14)
    2659            
    2660            $C$DW$T$7       .dwtag  DW_TAG_base_type
    2661                    .dwattr $C$DW$T$7, DW_AT_encoding(DW_ATE_signed_char)
    2662                    .dwattr $C$DW$T$7, DW_AT_name("wchar_t")
    2663                    .dwattr $C$DW$T$7, DW_AT_byte_size(0x02)
    2664            
    2665            $C$DW$T$8       .dwtag  DW_TAG_base_type
    2666                    .dwattr $C$DW$T$8, DW_AT_encoding(DW_ATE_signed)
    2667                    .dwattr $C$DW$T$8, DW_AT_name("short")
MSP430 Assembler PC v21.6.1 Tue Dec 20 13:45:52 2022

Copyright (c) 2003-2018 Texas Instruments Incorporated
timer_a.asm                                                          PAGE   52

    2668                    .dwattr $C$DW$T$8, DW_AT_byte_size(0x02)
    2669            
    2670            $C$DW$T$9       .dwtag  DW_TAG_base_type
    2671                    .dwattr $C$DW$T$9, DW_AT_encoding(DW_ATE_unsigned)
    2672                    .dwattr $C$DW$T$9, DW_AT_name("unsigned short")
    2673                    .dwattr $C$DW$T$9, DW_AT_byte_size(0x02)
    2674            
    2675            $C$DW$T$10      .dwtag  DW_TAG_base_type
    2676                    .dwattr $C$DW$T$10, DW_AT_encoding(DW_ATE_signed)
    2677                    .dwattr $C$DW$T$10, DW_AT_name("int")
    2678                    .dwattr $C$DW$T$10, DW_AT_byte_size(0x02)
    2679            
    2680            $C$DW$T$76      .dwtag  DW_TAG_typedef
    2681                    .dwattr $C$DW$T$76, DW_AT_name("_Mbstatet")
    2682                    .dwattr $C$DW$T$76, DW_AT_type(*$C$DW$T$10)
    2683                    .dwattr $C$DW$T$76, DW_AT_language(DW_LANG_C)
    2684                    .dwattr $C$DW$T$76, DW_AT_decl_file("C:/ti/ccs1110/ccs/tools/compiler/ti-cgt-msp430_21.6.1.LTS
    2685                    .dwattr $C$DW$T$76, DW_AT_decl_line(0x8f)
    2686                    .dwattr $C$DW$T$76, DW_AT_decl_column(0x0d)
    2687            
    2688            $C$DW$T$77      .dwtag  DW_TAG_typedef
    2689                    .dwattr $C$DW$T$77, DW_AT_name("__mbstate_t")
    2690                    .dwattr $C$DW$T$77, DW_AT_type(*$C$DW$T$76)
    2691                    .dwattr $C$DW$T$77, DW_AT_language(DW_LANG_C)
    2692                    .dwattr $C$DW$T$77, DW_AT_decl_file("C:/ti/ccs1110/ccs/tools/compiler/ti-cgt-msp430_21.6.1.LTS
    2693                    .dwattr $C$DW$T$77, DW_AT_decl_line(0x92)
    2694                    .dwattr $C$DW$T$77, DW_AT_decl_column(0x13)
    2695            
    2696            $C$DW$T$78      .dwtag  DW_TAG_typedef
    2697                    .dwattr $C$DW$T$78, DW_AT_name("__accmode_t")
    2698                    .dwattr $C$DW$T$78, DW_AT_type(*$C$DW$T$10)
    2699                    .dwattr $C$DW$T$78, DW_AT_language(DW_LANG_C)
    2700                    .dwattr $C$DW$T$78, DW_AT_decl_file("C:/ti/ccs1110/ccs/tools/compiler/ti-cgt-msp430_21.6.1.LTS
    2701                    .dwattr $C$DW$T$78, DW_AT_decl_line(0x3b)
    2702                    .dwattr $C$DW$T$78, DW_AT_decl_column(0x0e)
    2703            
    2704            $C$DW$T$79      .dwtag  DW_TAG_typedef
    2705                    .dwattr $C$DW$T$79, DW_AT_name("__cpulevel_t")
    2706                    .dwattr $C$DW$T$79, DW_AT_type(*$C$DW$T$10)
    2707                    .dwattr $C$DW$T$79, DW_AT_language(DW_LANG_C)
    2708                    .dwattr $C$DW$T$79, DW_AT_decl_file("C:/ti/ccs1110/ccs/tools/compiler/ti-cgt-msp430_21.6.1.LTS
    2709                    .dwattr $C$DW$T$79, DW_AT_decl_line(0x50)
    2710                    .dwattr $C$DW$T$79, DW_AT_decl_column(0x0e)
    2711            
    2712            $C$DW$T$80      .dwtag  DW_TAG_typedef
    2713                    .dwattr $C$DW$T$80, DW_AT_name("__cpusetid_t")
    2714                    .dwattr $C$DW$T$80, DW_AT_type(*$C$DW$T$10)
    2715                    .dwattr $C$DW$T$80, DW_AT_language(DW_LANG_C)
    2716                    .dwattr $C$DW$T$80, DW_AT_decl_file("C:/ti/ccs1110/ccs/tools/compiler/ti-cgt-msp430_21.6.1.LTS
    2717                    .dwattr $C$DW$T$80, DW_AT_decl_line(0x51)
    2718                    .dwattr $C$DW$T$80, DW_AT_decl_column(0x0e)
    2719            
    2720            $C$DW$T$81      .dwtag  DW_TAG_typedef
    2721                    .dwattr $C$DW$T$81, DW_AT_name("__cpuwhich_t")
    2722                    .dwattr $C$DW$T$81, DW_AT_type(*$C$DW$T$10)
MSP430 Assembler PC v21.6.1 Tue Dec 20 13:45:52 2022

Copyright (c) 2003-2018 Texas Instruments Incorporated
timer_a.asm                                                          PAGE   53

    2723                    .dwattr $C$DW$T$81, DW_AT_language(DW_LANG_C)
    2724                    .dwattr $C$DW$T$81, DW_AT_decl_file("C:/ti/ccs1110/ccs/tools/compiler/ti-cgt-msp430_21.6.1.LTS
    2725                    .dwattr $C$DW$T$81, DW_AT_decl_line(0x4f)
    2726                    .dwattr $C$DW$T$81, DW_AT_decl_column(0x0e)
    2727            
    2728            $C$DW$T$82      .dwtag  DW_TAG_typedef
    2729                    .dwattr $C$DW$T$82, DW_AT_name("__ct_rune_t")
    2730                    .dwattr $C$DW$T$82, DW_AT_type(*$C$DW$T$10)
    2731                    .dwattr $C$DW$T$82, DW_AT_language(DW_LANG_C)
    2732                    .dwattr $C$DW$T$82, DW_AT_decl_file("C:/ti/ccs1110/ccs/tools/compiler/ti-cgt-msp430_21.6.1.LTS
    2733                    .dwattr $C$DW$T$82, DW_AT_decl_line(0x69)
    2734                    .dwattr $C$DW$T$82, DW_AT_decl_column(0x0e)
    2735            
    2736            $C$DW$T$83      .dwtag  DW_TAG_typedef
    2737                    .dwattr $C$DW$T$83, DW_AT_name("__rune_t")
    2738                    .dwattr $C$DW$T$83, DW_AT_type(*$C$DW$T$82)
    2739                    .dwattr $C$DW$T$83, DW_AT_language(DW_LANG_C)
    2740                    .dwattr $C$DW$T$83, DW_AT_decl_file("C:/ti/ccs1110/ccs/tools/compiler/ti-cgt-msp430_21.6.1.LTS
    2741                    .dwattr $C$DW$T$83, DW_AT_decl_line(0x6c)
    2742                    .dwattr $C$DW$T$83, DW_AT_decl_column(0x15)
    2743            
    2744            $C$DW$T$84      .dwtag  DW_TAG_typedef
    2745                    .dwattr $C$DW$T$84, DW_AT_name("__wint_t")
    2746                    .dwattr $C$DW$T$84, DW_AT_type(*$C$DW$T$82)
    2747                    .dwattr $C$DW$T$84, DW_AT_language(DW_LANG_C)
    2748                    .dwattr $C$DW$T$84, DW_AT_decl_file("C:/ti/ccs1110/ccs/tools/compiler/ti-cgt-msp430_21.6.1.LTS
    2749                    .dwattr $C$DW$T$84, DW_AT_decl_line(0x6d)
    2750                    .dwattr $C$DW$T$84, DW_AT_decl_column(0x15)
    2751            
    2752            $C$DW$T$85      .dwtag  DW_TAG_typedef
    2753                    .dwattr $C$DW$T$85, DW_AT_name("__int16_t")
    2754                    .dwattr $C$DW$T$85, DW_AT_type(*$C$DW$T$10)
    2755                    .dwattr $C$DW$T$85, DW_AT_language(DW_LANG_C)
    2756                    .dwattr $C$DW$T$85, DW_AT_decl_file("C:/ti/ccs1110/ccs/tools/compiler/ti-cgt-msp430_21.6.1.LTS
    2757                    .dwattr $C$DW$T$85, DW_AT_decl_line(0x38)
    2758                    .dwattr $C$DW$T$85, DW_AT_decl_column(0x0f)
    2759            
    2760            $C$DW$T$86      .dwtag  DW_TAG_typedef
    2761                    .dwattr $C$DW$T$86, DW_AT_name("__int_fast16_t")
    2762                    .dwattr $C$DW$T$86, DW_AT_type(*$C$DW$T$85)
    2763                    .dwattr $C$DW$T$86, DW_AT_language(DW_LANG_C)
    2764                    .dwattr $C$DW$T$86, DW_AT_decl_file("C:/ti/ccs1110/ccs/tools/compiler/ti-cgt-msp430_21.6.1.LTS
    2765                    .dwattr $C$DW$T$86, DW_AT_decl_line(0x57)
    2766                    .dwattr $C$DW$T$86, DW_AT_decl_column(0x13)
    2767            
    2768            $C$DW$T$87      .dwtag  DW_TAG_typedef
    2769                    .dwattr $C$DW$T$87, DW_AT_name("int_fast16_t")
    2770                    .dwattr $C$DW$T$87, DW_AT_type(*$C$DW$T$86)
    2771                    .dwattr $C$DW$T$87, DW_AT_language(DW_LANG_C)
    2772                    .dwattr $C$DW$T$87, DW_AT_decl_file("C:/ti/ccs1110/ccs/tools/compiler/ti-cgt-msp430_21.6.1.LTS
    2773                    .dwattr $C$DW$T$87, DW_AT_decl_line(0x35)
    2774                    .dwattr $C$DW$T$87, DW_AT_decl_column(0x19)
    2775            
    2776            $C$DW$T$88      .dwtag  DW_TAG_typedef
    2777                    .dwattr $C$DW$T$88, DW_AT_name("__int_fast8_t")
MSP430 Assembler PC v21.6.1 Tue Dec 20 13:45:52 2022

Copyright (c) 2003-2018 Texas Instruments Incorporated
timer_a.asm                                                          PAGE   54

    2778                    .dwattr $C$DW$T$88, DW_AT_type(*$C$DW$T$85)
    2779                    .dwattr $C$DW$T$88, DW_AT_language(DW_LANG_C)
    2780                    .dwattr $C$DW$T$88, DW_AT_decl_file("C:/ti/ccs1110/ccs/tools/compiler/ti-cgt-msp430_21.6.1.LTS
    2781                    .dwattr $C$DW$T$88, DW_AT_decl_line(0x56)
    2782                    .dwattr $C$DW$T$88, DW_AT_decl_column(0x13)
    2783            
    2784            $C$DW$T$89      .dwtag  DW_TAG_typedef
    2785                    .dwattr $C$DW$T$89, DW_AT_name("int_fast8_t")
    2786                    .dwattr $C$DW$T$89, DW_AT_type(*$C$DW$T$88)
    2787                    .dwattr $C$DW$T$89, DW_AT_language(DW_LANG_C)
    2788                    .dwattr $C$DW$T$89, DW_AT_decl_file("C:/ti/ccs1110/ccs/tools/compiler/ti-cgt-msp430_21.6.1.LTS
    2789                    .dwattr $C$DW$T$89, DW_AT_decl_line(0x34)
    2790                    .dwattr $C$DW$T$89, DW_AT_decl_column(0x18)
    2791            
    2792            $C$DW$T$90      .dwtag  DW_TAG_typedef
    2793                    .dwattr $C$DW$T$90, DW_AT_name("__int_least16_t")
    2794                    .dwattr $C$DW$T$90, DW_AT_type(*$C$DW$T$85)
    2795                    .dwattr $C$DW$T$90, DW_AT_language(DW_LANG_C)
    2796                    .dwattr $C$DW$T$90, DW_AT_decl_file("C:/ti/ccs1110/ccs/tools/compiler/ti-cgt-msp430_21.6.1.LTS
    2797                    .dwattr $C$DW$T$90, DW_AT_decl_line(0x5b)
    2798                    .dwattr $C$DW$T$90, DW_AT_decl_column(0x13)
    2799            
    2800            $C$DW$T$91      .dwtag  DW_TAG_typedef
    2801                    .dwattr $C$DW$T$91, DW_AT_name("int_least16_t")
    2802                    .dwattr $C$DW$T$91, DW_AT_type(*$C$DW$T$90)
    2803                    .dwattr $C$DW$T$91, DW_AT_language(DW_LANG_C)
    2804                    .dwattr $C$DW$T$91, DW_AT_decl_file("C:/ti/ccs1110/ccs/tools/compiler/ti-cgt-msp430_21.6.1.LTS
    2805                    .dwattr $C$DW$T$91, DW_AT_decl_line(0x2b)
    2806                    .dwattr $C$DW$T$91, DW_AT_decl_column(0x1a)
    2807            
    2808            $C$DW$T$92      .dwtag  DW_TAG_typedef
    2809                    .dwattr $C$DW$T$92, DW_AT_name("__register_t")
    2810                    .dwattr $C$DW$T$92, DW_AT_type(*$C$DW$T$85)
    2811                    .dwattr $C$DW$T$92, DW_AT_language(DW_LANG_C)
    2812                    .dwattr $C$DW$T$92, DW_AT_decl_file("C:/ti/ccs1110/ccs/tools/compiler/ti-cgt-msp430_21.6.1.LTS
    2813                    .dwattr $C$DW$T$92, DW_AT_decl_line(0x5f)
    2814                    .dwattr $C$DW$T$92, DW_AT_decl_column(0x13)
    2815            
    2816            $C$DW$T$93      .dwtag  DW_TAG_typedef
    2817                    .dwattr $C$DW$T$93, DW_AT_name("int16_t")
    2818                    .dwattr $C$DW$T$93, DW_AT_type(*$C$DW$T$85)
    2819                    .dwattr $C$DW$T$93, DW_AT_language(DW_LANG_C)
    2820                    .dwattr $C$DW$T$93, DW_AT_decl_file("C:/ti/ccs1110/ccs/tools/compiler/ti-cgt-msp430_21.6.1.LTS
    2821                    .dwattr $C$DW$T$93, DW_AT_decl_line(0x2b)
    2822                    .dwattr $C$DW$T$93, DW_AT_decl_column(0x14)
    2823            
    2824            $C$DW$T$94      .dwtag  DW_TAG_typedef
    2825                    .dwattr $C$DW$T$94, DW_AT_name("__nl_item")
    2826                    .dwattr $C$DW$T$94, DW_AT_type(*$C$DW$T$10)
    2827                    .dwattr $C$DW$T$94, DW_AT_language(DW_LANG_C)
    2828                    .dwattr $C$DW$T$94, DW_AT_decl_file("C:/ti/ccs1110/ccs/tools/compiler/ti-cgt-msp430_21.6.1.LTS
    2829                    .dwattr $C$DW$T$94, DW_AT_decl_line(0x3c)
    2830                    .dwattr $C$DW$T$94, DW_AT_decl_column(0x0e)
    2831            
    2832            $C$DW$T$95      .dwtag  DW_TAG_typedef
MSP430 Assembler PC v21.6.1 Tue Dec 20 13:45:52 2022

Copyright (c) 2003-2018 Texas Instruments Incorporated
timer_a.asm                                                          PAGE   55

    2833                    .dwattr $C$DW$T$95, DW_AT_name("__ptrdiff_t")
    2834                    .dwattr $C$DW$T$95, DW_AT_type(*$C$DW$T$10)
    2835                    .dwattr $C$DW$T$95, DW_AT_language(DW_LANG_C)
    2836                    .dwattr $C$DW$T$95, DW_AT_decl_file("C:/ti/ccs1110/ccs/tools/compiler/ti-cgt-msp430_21.6.1.LTS
    2837                    .dwattr $C$DW$T$95, DW_AT_decl_line(0x5e)
    2838                    .dwattr $C$DW$T$95, DW_AT_decl_column(0x1c)
    2839            
    2840            $C$DW$T$11      .dwtag  DW_TAG_base_type
    2841                    .dwattr $C$DW$T$11, DW_AT_encoding(DW_ATE_unsigned)
    2842                    .dwattr $C$DW$T$11, DW_AT_name("unsigned int")
    2843                    .dwattr $C$DW$T$11, DW_AT_byte_size(0x02)
    2844            
    2845            $C$DW$T$96      .dwtag  DW_TAG_typedef
    2846                    .dwattr $C$DW$T$96, DW_AT_name("___wchar_t")
    2847                    .dwattr $C$DW$T$96, DW_AT_type(*$C$DW$T$11)
    2848                    .dwattr $C$DW$T$96, DW_AT_language(DW_LANG_C)
    2849                    .dwattr $C$DW$T$96, DW_AT_decl_file("C:/ti/ccs1110/ccs/tools/compiler/ti-cgt-msp430_21.6.1.LTS
    2850                    .dwattr $C$DW$T$96, DW_AT_decl_line(0x7d)
    2851                    .dwattr $C$DW$T$96, DW_AT_decl_column(0x1a)
    2852            
    2853            $C$DW$T$101     .dwtag  DW_TAG_typedef
    2854                    .dwattr $C$DW$T$101, DW_AT_name("__size_t")
    2855                    .dwattr $C$DW$T$101, DW_AT_type(*$C$DW$T$11)
    2856                    .dwattr $C$DW$T$101, DW_AT_language(DW_LANG_C)
    2857                    .dwattr $C$DW$T$101, DW_AT_decl_file("C:/ti/ccs1110/ccs/tools/compiler/ti-cgt-msp430_21.6.1.LT
    2858                    .dwattr $C$DW$T$101, DW_AT_decl_line(0x61)
    2859                    .dwattr $C$DW$T$101, DW_AT_decl_column(0x19)
    2860            
    2861            $C$DW$T$22      .dwtag  DW_TAG_typedef
    2862                    .dwattr $C$DW$T$22, DW_AT_name("__uint16_t")
    2863                    .dwattr $C$DW$T$22, DW_AT_type(*$C$DW$T$11)
    2864                    .dwattr $C$DW$T$22, DW_AT_language(DW_LANG_C)
    2865                    .dwattr $C$DW$T$22, DW_AT_decl_file("C:/ti/ccs1110/ccs/tools/compiler/ti-cgt-msp430_21.6.1.LTS
    2866                    .dwattr $C$DW$T$22, DW_AT_decl_line(0x39)
    2867                    .dwattr $C$DW$T$22, DW_AT_decl_column(0x17)
    2868            
    2869            $C$DW$T$102     .dwtag  DW_TAG_typedef
    2870                    .dwattr $C$DW$T$102, DW_AT_name("__mode_t")
    2871                    .dwattr $C$DW$T$102, DW_AT_type(*$C$DW$T$22)
    2872                    .dwattr $C$DW$T$102, DW_AT_language(DW_LANG_C)
    2873                    .dwattr $C$DW$T$102, DW_AT_decl_file("C:/ti/ccs1110/ccs/tools/compiler/ti-cgt-msp430_21.6.1.LT
    2874                    .dwattr $C$DW$T$102, DW_AT_decl_line(0x3a)
    2875                    .dwattr $C$DW$T$102, DW_AT_decl_column(0x14)
    2876            
    2877            $C$DW$T$103     .dwtag  DW_TAG_typedef
    2878                    .dwattr $C$DW$T$103, DW_AT_name("__u_register_t")
    2879                    .dwattr $C$DW$T$103, DW_AT_type(*$C$DW$T$22)
    2880                    .dwattr $C$DW$T$103, DW_AT_language(DW_LANG_C)
    2881                    .dwattr $C$DW$T$103, DW_AT_decl_file("C:/ti/ccs1110/ccs/tools/compiler/ti-cgt-msp430_21.6.1.LT
    2882                    .dwattr $C$DW$T$103, DW_AT_decl_line(0x78)
    2883                    .dwattr $C$DW$T$103, DW_AT_decl_column(0x14)
    2884            
    2885            $C$DW$T$104     .dwtag  DW_TAG_typedef
    2886                    .dwattr $C$DW$T$104, DW_AT_name("__uint_fast16_t")
    2887                    .dwattr $C$DW$T$104, DW_AT_type(*$C$DW$T$22)
MSP430 Assembler PC v21.6.1 Tue Dec 20 13:45:52 2022

Copyright (c) 2003-2018 Texas Instruments Incorporated
timer_a.asm                                                          PAGE   56

    2888                    .dwattr $C$DW$T$104, DW_AT_language(DW_LANG_C)
    2889                    .dwattr $C$DW$T$104, DW_AT_decl_file("C:/ti/ccs1110/ccs/tools/compiler/ti-cgt-msp430_21.6.1.LT
    2890                    .dwattr $C$DW$T$104, DW_AT_decl_line(0x71)
    2891                    .dwattr $C$DW$T$104, DW_AT_decl_column(0x14)
    2892            
    2893            $C$DW$T$105     .dwtag  DW_TAG_typedef
    2894                    .dwattr $C$DW$T$105, DW_AT_name("uint_fast16_t")
    2895                    .dwattr $C$DW$T$105, DW_AT_type(*$C$DW$T$104)
    2896                    .dwattr $C$DW$T$105, DW_AT_language(DW_LANG_C)
    2897                    .dwattr $C$DW$T$105, DW_AT_decl_file("C:/ti/ccs1110/ccs/tools/compiler/ti-cgt-msp430_21.6.1.LT
    2898                    .dwattr $C$DW$T$105, DW_AT_decl_line(0x3a)
    2899                    .dwattr $C$DW$T$105, DW_AT_decl_column(0x1a)
    2900            
    2901            $C$DW$T$106     .dwtag  DW_TAG_typedef
    2902                    .dwattr $C$DW$T$106, DW_AT_name("__uint_fast8_t")
    2903                    .dwattr $C$DW$T$106, DW_AT_type(*$C$DW$T$22)
    2904                    .dwattr $C$DW$T$106, DW_AT_language(DW_LANG_C)
    2905                    .dwattr $C$DW$T$106, DW_AT_decl_file("C:/ti/ccs1110/ccs/tools/compiler/ti-cgt-msp430_21.6.1.LT
    2906                    .dwattr $C$DW$T$106, DW_AT_decl_line(0x70)
    2907                    .dwattr $C$DW$T$106, DW_AT_decl_column(0x14)
    2908            
    2909            $C$DW$T$107     .dwtag  DW_TAG_typedef
    2910                    .dwattr $C$DW$T$107, DW_AT_name("uint_fast8_t")
    2911                    .dwattr $C$DW$T$107, DW_AT_type(*$C$DW$T$106)
    2912                    .dwattr $C$DW$T$107, DW_AT_language(DW_LANG_C)
    2913                    .dwattr $C$DW$T$107, DW_AT_decl_file("C:/ti/ccs1110/ccs/tools/compiler/ti-cgt-msp430_21.6.1.LT
    2914                    .dwattr $C$DW$T$107, DW_AT_decl_line(0x39)
    2915                    .dwattr $C$DW$T$107, DW_AT_decl_column(0x19)
    2916            
    2917            $C$DW$T$108     .dwtag  DW_TAG_typedef
    2918                    .dwattr $C$DW$T$108, DW_AT_name("__uint_least16_t")
    2919                    .dwattr $C$DW$T$108, DW_AT_type(*$C$DW$T$22)
    2920                    .dwattr $C$DW$T$108, DW_AT_language(DW_LANG_C)
    2921                    .dwattr $C$DW$T$108, DW_AT_decl_file("C:/ti/ccs1110/ccs/tools/compiler/ti-cgt-msp430_21.6.1.LT
    2922                    .dwattr $C$DW$T$108, DW_AT_decl_line(0x75)
    2923                    .dwattr $C$DW$T$108, DW_AT_decl_column(0x14)
    2924            
    2925            $C$DW$T$109     .dwtag  DW_TAG_typedef
    2926                    .dwattr $C$DW$T$109, DW_AT_name("__char16_t")
    2927                    .dwattr $C$DW$T$109, DW_AT_type(*$C$DW$T$108)
    2928                    .dwattr $C$DW$T$109, DW_AT_language(DW_LANG_C)
    2929                    .dwattr $C$DW$T$109, DW_AT_decl_file("C:/ti/ccs1110/ccs/tools/compiler/ti-cgt-msp430_21.6.1.LT
    2930                    .dwattr $C$DW$T$109, DW_AT_decl_line(0x71)
    2931                    .dwattr $C$DW$T$109, DW_AT_decl_column(0x1a)
    2932            
    2933            $C$DW$T$110     .dwtag  DW_TAG_typedef
    2934                    .dwattr $C$DW$T$110, DW_AT_name("uint_least16_t")
    2935                    .dwattr $C$DW$T$110, DW_AT_type(*$C$DW$T$108)
    2936                    .dwattr $C$DW$T$110, DW_AT_language(DW_LANG_C)
    2937                    .dwattr $C$DW$T$110, DW_AT_decl_file("C:/ti/ccs1110/ccs/tools/compiler/ti-cgt-msp430_21.6.1.LT
    2938                    .dwattr $C$DW$T$110, DW_AT_decl_line(0x30)
    2939                    .dwattr $C$DW$T$110, DW_AT_decl_column(0x1a)
    2940            
    2941            $C$DW$T$23      .dwtag  DW_TAG_typedef
    2942                    .dwattr $C$DW$T$23, DW_AT_name("uint16_t")
MSP430 Assembler PC v21.6.1 Tue Dec 20 13:45:52 2022

Copyright (c) 2003-2018 Texas Instruments Incorporated
timer_a.asm                                                          PAGE   57

    2943                    .dwattr $C$DW$T$23, DW_AT_type(*$C$DW$T$22)
    2944                    .dwattr $C$DW$T$23, DW_AT_language(DW_LANG_C)
    2945                    .dwattr $C$DW$T$23, DW_AT_decl_file("C:/ti/ccs1110/ccs/tools/compiler/ti-cgt-msp430_21.6.1.LTS
    2946                    .dwattr $C$DW$T$23, DW_AT_decl_line(0x41)
    2947                    .dwattr $C$DW$T$23, DW_AT_decl_column(0x15)
    2948            
    2949            $C$DW$T$113     .dwtag  DW_TAG_typedef
    2950                    .dwattr $C$DW$T$113, DW_AT_name("__useconds_t")
    2951                    .dwattr $C$DW$T$113, DW_AT_type(*$C$DW$T$11)
    2952                    .dwattr $C$DW$T$113, DW_AT_language(DW_LANG_C)
    2953                    .dwattr $C$DW$T$113, DW_AT_decl_file("C:/ti/ccs1110/ccs/tools/compiler/ti-cgt-msp430_21.6.1.LT
    2954                    .dwattr $C$DW$T$113, DW_AT_decl_line(0x4e)
    2955                    .dwattr $C$DW$T$113, DW_AT_decl_column(0x16)
    2956            
    2957            $C$DW$T$12      .dwtag  DW_TAG_base_type
    2958                    .dwattr $C$DW$T$12, DW_AT_encoding(DW_ATE_signed)
    2959                    .dwattr $C$DW$T$12, DW_AT_name("long")
    2960                    .dwattr $C$DW$T$12, DW_AT_byte_size(0x04)
    2961            
    2962            $C$DW$T$114     .dwtag  DW_TAG_typedef
    2963                    .dwattr $C$DW$T$114, DW_AT_name("__int32_t")
    2964                    .dwattr $C$DW$T$114, DW_AT_type(*$C$DW$T$12)
    2965                    .dwattr $C$DW$T$114, DW_AT_language(DW_LANG_C)
    2966                    .dwattr $C$DW$T$114, DW_AT_decl_file("C:/ti/ccs1110/ccs/tools/compiler/ti-cgt-msp430_21.6.1.LT
    2967                    .dwattr $C$DW$T$114, DW_AT_decl_line(0x3a)
    2968                    .dwattr $C$DW$T$114, DW_AT_decl_column(0x10)
    2969            
    2970            $C$DW$T$115     .dwtag  DW_TAG_typedef
    2971                    .dwattr $C$DW$T$115, DW_AT_name("__blksize_t")
    2972                    .dwattr $C$DW$T$115, DW_AT_type(*$C$DW$T$114)
    2973                    .dwattr $C$DW$T$115, DW_AT_language(DW_LANG_C)
    2974                    .dwattr $C$DW$T$115, DW_AT_decl_file("C:/ti/ccs1110/ccs/tools/compiler/ti-cgt-msp430_21.6.1.LT
    2975                    .dwattr $C$DW$T$115, DW_AT_decl_line(0x2f)
    2976                    .dwattr $C$DW$T$115, DW_AT_decl_column(0x13)
    2977            
    2978            $C$DW$T$116     .dwtag  DW_TAG_typedef
    2979                    .dwattr $C$DW$T$116, DW_AT_name("__clockid_t")
    2980                    .dwattr $C$DW$T$116, DW_AT_type(*$C$DW$T$114)
    2981                    .dwattr $C$DW$T$116, DW_AT_language(DW_LANG_C)
    2982                    .dwattr $C$DW$T$116, DW_AT_decl_file("C:/ti/ccs1110/ccs/tools/compiler/ti-cgt-msp430_21.6.1.LT
    2983                    .dwattr $C$DW$T$116, DW_AT_decl_line(0x31)
    2984                    .dwattr $C$DW$T$116, DW_AT_decl_column(0x13)
    2985            
    2986            $C$DW$T$117     .dwtag  DW_TAG_typedef
    2987                    .dwattr $C$DW$T$117, DW_AT_name("__critical_t")
    2988                    .dwattr $C$DW$T$117, DW_AT_type(*$C$DW$T$114)
    2989                    .dwattr $C$DW$T$117, DW_AT_language(DW_LANG_C)
    2990                    .dwattr $C$DW$T$117, DW_AT_decl_file("C:/ti/ccs1110/ccs/tools/compiler/ti-cgt-msp430_21.6.1.LT
    2991                    .dwattr $C$DW$T$117, DW_AT_decl_line(0x4b)
    2992                    .dwattr $C$DW$T$117, DW_AT_decl_column(0x13)
    2993            
    2994            $C$DW$T$118     .dwtag  DW_TAG_typedef
    2995                    .dwattr $C$DW$T$118, DW_AT_name("__int_fast32_t")
    2996                    .dwattr $C$DW$T$118, DW_AT_type(*$C$DW$T$114)
    2997                    .dwattr $C$DW$T$118, DW_AT_language(DW_LANG_C)
MSP430 Assembler PC v21.6.1 Tue Dec 20 13:45:52 2022

Copyright (c) 2003-2018 Texas Instruments Incorporated
timer_a.asm                                                          PAGE   58

    2998                    .dwattr $C$DW$T$118, DW_AT_decl_file("C:/ti/ccs1110/ccs/tools/compiler/ti-cgt-msp430_21.6.1.LT
    2999                    .dwattr $C$DW$T$118, DW_AT_decl_line(0x58)
    3000                    .dwattr $C$DW$T$118, DW_AT_decl_column(0x13)
    3001            
    3002            $C$DW$T$119     .dwtag  DW_TAG_typedef
    3003                    .dwattr $C$DW$T$119, DW_AT_name("int_fast32_t")
    3004                    .dwattr $C$DW$T$119, DW_AT_type(*$C$DW$T$118)
    3005                    .dwattr $C$DW$T$119, DW_AT_language(DW_LANG_C)
    3006                    .dwattr $C$DW$T$119, DW_AT_decl_file("C:/ti/ccs1110/ccs/tools/compiler/ti-cgt-msp430_21.6.1.LT
    3007                    .dwattr $C$DW$T$119, DW_AT_decl_line(0x36)
    3008                    .dwattr $C$DW$T$119, DW_AT_decl_column(0x19)
    3009            
    3010            $C$DW$T$120     .dwtag  DW_TAG_typedef
    3011                    .dwattr $C$DW$T$120, DW_AT_name("__int_least32_t")
    3012                    .dwattr $C$DW$T$120, DW_AT_type(*$C$DW$T$114)
    3013                    .dwattr $C$DW$T$120, DW_AT_language(DW_LANG_C)
    3014                    .dwattr $C$DW$T$120, DW_AT_decl_file("C:/ti/ccs1110/ccs/tools/compiler/ti-cgt-msp430_21.6.1.LT
    3015                    .dwattr $C$DW$T$120, DW_AT_decl_line(0x5c)
    3016                    .dwattr $C$DW$T$120, DW_AT_decl_column(0x13)
    3017            
    3018            $C$DW$T$121     .dwtag  DW_TAG_typedef
    3019                    .dwattr $C$DW$T$121, DW_AT_name("int_least32_t")
    3020                    .dwattr $C$DW$T$121, DW_AT_type(*$C$DW$T$120)
    3021                    .dwattr $C$DW$T$121, DW_AT_language(DW_LANG_C)
    3022                    .dwattr $C$DW$T$121, DW_AT_decl_file("C:/ti/ccs1110/ccs/tools/compiler/ti-cgt-msp430_21.6.1.LT
    3023                    .dwattr $C$DW$T$121, DW_AT_decl_line(0x2c)
    3024                    .dwattr $C$DW$T$121, DW_AT_decl_column(0x1a)
    3025            
    3026            $C$DW$T$122     .dwtag  DW_TAG_typedef
    3027                    .dwattr $C$DW$T$122, DW_AT_name("__intfptr_t")
    3028                    .dwattr $C$DW$T$122, DW_AT_type(*$C$DW$T$114)
    3029                    .dwattr $C$DW$T$122, DW_AT_language(DW_LANG_C)
    3030                    .dwattr $C$DW$T$122, DW_AT_decl_file("C:/ti/ccs1110/ccs/tools/compiler/ti-cgt-msp430_21.6.1.LT
    3031                    .dwattr $C$DW$T$122, DW_AT_decl_line(0x4e)
    3032                    .dwattr $C$DW$T$122, DW_AT_decl_column(0x13)
    3033            
    3034            $C$DW$T$123     .dwtag  DW_TAG_typedef
    3035                    .dwattr $C$DW$T$123, DW_AT_name("__intptr_t")
    3036                    .dwattr $C$DW$T$123, DW_AT_type(*$C$DW$T$114)
    3037                    .dwattr $C$DW$T$123, DW_AT_language(DW_LANG_C)
    3038                    .dwattr $C$DW$T$123, DW_AT_decl_file("C:/ti/ccs1110/ccs/tools/compiler/ti-cgt-msp430_21.6.1.LT
    3039                    .dwattr $C$DW$T$123, DW_AT_decl_line(0x51)
    3040                    .dwattr $C$DW$T$123, DW_AT_decl_column(0x13)
    3041            
    3042            $C$DW$T$124     .dwtag  DW_TAG_typedef
    3043                    .dwattr $C$DW$T$124, DW_AT_name("intptr_t")
    3044                    .dwattr $C$DW$T$124, DW_AT_type(*$C$DW$T$123)
    3045                    .dwattr $C$DW$T$124, DW_AT_language(DW_LANG_C)
    3046                    .dwattr $C$DW$T$124, DW_AT_decl_file("C:/ti/ccs1110/ccs/tools/compiler/ti-cgt-msp430_21.6.1.LT
    3047                    .dwattr $C$DW$T$124, DW_AT_decl_line(0x50)
    3048                    .dwattr $C$DW$T$124, DW_AT_decl_column(0x15)
    3049            
    3050            $C$DW$T$125     .dwtag  DW_TAG_typedef
    3051                    .dwattr $C$DW$T$125, DW_AT_name("__lwpid_t")
    3052                    .dwattr $C$DW$T$125, DW_AT_type(*$C$DW$T$114)
MSP430 Assembler PC v21.6.1 Tue Dec 20 13:45:52 2022

Copyright (c) 2003-2018 Texas Instruments Incorporated
timer_a.asm                                                          PAGE   59

    3053                    .dwattr $C$DW$T$125, DW_AT_language(DW_LANG_C)
    3054                    .dwattr $C$DW$T$125, DW_AT_decl_file("C:/ti/ccs1110/ccs/tools/compiler/ti-cgt-msp430_21.6.1.LT
    3055                    .dwattr $C$DW$T$125, DW_AT_decl_line(0x39)
    3056                    .dwattr $C$DW$T$125, DW_AT_decl_column(0x13)
    3057            
    3058            $C$DW$T$126     .dwtag  DW_TAG_typedef
    3059                    .dwattr $C$DW$T$126, DW_AT_name("__pid_t")
    3060                    .dwattr $C$DW$T$126, DW_AT_type(*$C$DW$T$114)
    3061                    .dwattr $C$DW$T$126, DW_AT_language(DW_LANG_C)
    3062                    .dwattr $C$DW$T$126, DW_AT_decl_file("C:/ti/ccs1110/ccs/tools/compiler/ti-cgt-msp430_21.6.1.LT
    3063                    .dwattr $C$DW$T$126, DW_AT_decl_line(0x40)
    3064                    .dwattr $C$DW$T$126, DW_AT_decl_column(0x13)
    3065            
    3066            $C$DW$T$127     .dwtag  DW_TAG_typedef
    3067                    .dwattr $C$DW$T$127, DW_AT_name("__segsz_t")
    3068                    .dwattr $C$DW$T$127, DW_AT_type(*$C$DW$T$114)
    3069                    .dwattr $C$DW$T$127, DW_AT_language(DW_LANG_C)
    3070                    .dwattr $C$DW$T$127, DW_AT_decl_file("C:/ti/ccs1110/ccs/tools/compiler/ti-cgt-msp430_21.6.1.LT
    3071                    .dwattr $C$DW$T$127, DW_AT_decl_line(0x60)
    3072                    .dwattr $C$DW$T$127, DW_AT_decl_column(0x13)
    3073            
    3074            $C$DW$T$128     .dwtag  DW_TAG_typedef
    3075                    .dwattr $C$DW$T$128, DW_AT_name("__ssize_t")
    3076                    .dwattr $C$DW$T$128, DW_AT_type(*$C$DW$T$114)
    3077                    .dwattr $C$DW$T$128, DW_AT_language(DW_LANG_C)
    3078                    .dwattr $C$DW$T$128, DW_AT_decl_file("C:/ti/ccs1110/ccs/tools/compiler/ti-cgt-msp430_21.6.1.LT
    3079                    .dwattr $C$DW$T$128, DW_AT_decl_line(0x62)
    3080                    .dwattr $C$DW$T$128, DW_AT_decl_column(0x13)
    3081            
    3082            $C$DW$T$129     .dwtag  DW_TAG_typedef
    3083                    .dwattr $C$DW$T$129, DW_AT_name("int32_t")
    3084                    .dwattr $C$DW$T$129, DW_AT_type(*$C$DW$T$114)
    3085                    .dwattr $C$DW$T$129, DW_AT_language(DW_LANG_C)
    3086                    .dwattr $C$DW$T$129, DW_AT_decl_file("C:/ti/ccs1110/ccs/tools/compiler/ti-cgt-msp430_21.6.1.LT
    3087                    .dwattr $C$DW$T$129, DW_AT_decl_line(0x30)
    3088                    .dwattr $C$DW$T$129, DW_AT_decl_column(0x14)
    3089            
    3090            $C$DW$T$130     .dwtag  DW_TAG_typedef
    3091                    .dwattr $C$DW$T$130, DW_AT_name("__key_t")
    3092                    .dwattr $C$DW$T$130, DW_AT_type(*$C$DW$T$12)
    3093                    .dwattr $C$DW$T$130, DW_AT_language(DW_LANG_C)
    3094                    .dwattr $C$DW$T$130, DW_AT_decl_file("C:/ti/ccs1110/ccs/tools/compiler/ti-cgt-msp430_21.6.1.LT
    3095                    .dwattr $C$DW$T$130, DW_AT_decl_line(0x38)
    3096                    .dwattr $C$DW$T$130, DW_AT_decl_column(0x0f)
    3097            
    3098            $C$DW$T$131     .dwtag  DW_TAG_typedef
    3099                    .dwattr $C$DW$T$131, DW_AT_name("__suseconds_t")
    3100                    .dwattr $C$DW$T$131, DW_AT_type(*$C$DW$T$12)
    3101                    .dwattr $C$DW$T$131, DW_AT_language(DW_LANG_C)
    3102                    .dwattr $C$DW$T$131, DW_AT_decl_file("C:/ti/ccs1110/ccs/tools/compiler/ti-cgt-msp430_21.6.1.LT
    3103                    .dwattr $C$DW$T$131, DW_AT_decl_line(0x4a)
    3104                    .dwattr $C$DW$T$131, DW_AT_decl_column(0x0f)
    3105            
    3106            $C$DW$T$132     .dwtag  DW_TAG_typedef
    3107                    .dwattr $C$DW$T$132, DW_AT_name("_off_t")
MSP430 Assembler PC v21.6.1 Tue Dec 20 13:45:52 2022

Copyright (c) 2003-2018 Texas Instruments Incorporated
timer_a.asm                                                          PAGE   60

    3108                    .dwattr $C$DW$T$132, DW_AT_type(*$C$DW$T$12)
    3109                    .dwattr $C$DW$T$132, DW_AT_language(DW_LANG_C)
    3110                    .dwattr $C$DW$T$132, DW_AT_decl_file("C:/ti/ccs1110/ccs/tools/compiler/ti-cgt-msp430_21.6.1.LT
    3111                    .dwattr $C$DW$T$132, DW_AT_decl_line(0x8d)
    3112                    .dwattr $C$DW$T$132, DW_AT_decl_column(0x12)
    3113            
    3114            $C$DW$T$133     .dwtag  DW_TAG_typedef
    3115                    .dwattr $C$DW$T$133, DW_AT_name("__off_t")
    3116                    .dwattr $C$DW$T$133, DW_AT_type(*$C$DW$T$132)
    3117                    .dwattr $C$DW$T$133, DW_AT_language(DW_LANG_C)
    3118                    .dwattr $C$DW$T$133, DW_AT_decl_file("C:/ti/ccs1110/ccs/tools/compiler/ti-cgt-msp430_21.6.1.LT
    3119                    .dwattr $C$DW$T$133, DW_AT_decl_line(0x3e)
    3120                    .dwattr $C$DW$T$133, DW_AT_decl_column(0x18)
    3121            
    3122            $C$DW$T$13      .dwtag  DW_TAG_base_type
    3123                    .dwattr $C$DW$T$13, DW_AT_encoding(DW_ATE_unsigned)
    3124                    .dwattr $C$DW$T$13, DW_AT_name("unsigned long")
    3125                    .dwattr $C$DW$T$13, DW_AT_byte_size(0x04)
    3126            
    3127            $C$DW$T$136     .dwtag  DW_TAG_typedef
    3128                    .dwattr $C$DW$T$136, DW_AT_name("__uint32_t")
    3129                    .dwattr $C$DW$T$136, DW_AT_type(*$C$DW$T$13)
    3130                    .dwattr $C$DW$T$136, DW_AT_language(DW_LANG_C)
    3131                    .dwattr $C$DW$T$136, DW_AT_decl_file("C:/ti/ccs1110/ccs/tools/compiler/ti-cgt-msp430_21.6.1.LT
    3132                    .dwattr $C$DW$T$136, DW_AT_decl_line(0x3b)
    3133                    .dwattr $C$DW$T$136, DW_AT_decl_column(0x18)
    3134            
    3135            $C$DW$T$137     .dwtag  DW_TAG_typedef
    3136                    .dwattr $C$DW$T$137, DW_AT_name("__clock_t")
    3137                    .dwattr $C$DW$T$137, DW_AT_type(*$C$DW$T$136)
    3138                    .dwattr $C$DW$T$137, DW_AT_language(DW_LANG_C)
    3139                    .dwattr $C$DW$T$137, DW_AT_decl_file("C:/ti/ccs1110/ccs/tools/compiler/ti-cgt-msp430_21.6.1.LT
    3140                    .dwattr $C$DW$T$137, DW_AT_decl_line(0x4a)
    3141                    .dwattr $C$DW$T$137, DW_AT_decl_column(0x14)
    3142            
    3143            $C$DW$T$138     .dwtag  DW_TAG_typedef
    3144                    .dwattr $C$DW$T$138, DW_AT_name("__fflags_t")
    3145                    .dwattr $C$DW$T$138, DW_AT_type(*$C$DW$T$136)
    3146                    .dwattr $C$DW$T$138, DW_AT_language(DW_LANG_C)
    3147                    .dwattr $C$DW$T$138, DW_AT_decl_file("C:/ti/ccs1110/ccs/tools/compiler/ti-cgt-msp430_21.6.1.LT
    3148                    .dwattr $C$DW$T$138, DW_AT_decl_line(0x32)
    3149                    .dwattr $C$DW$T$138, DW_AT_decl_column(0x14)
    3150            
    3151            $C$DW$T$139     .dwtag  DW_TAG_typedef
    3152                    .dwattr $C$DW$T$139, DW_AT_name("__fixpt_t")
    3153                    .dwattr $C$DW$T$139, DW_AT_type(*$C$DW$T$136)
    3154                    .dwattr $C$DW$T$139, DW_AT_language(DW_LANG_C)
    3155                    .dwattr $C$DW$T$139, DW_AT_decl_file("C:/ti/ccs1110/ccs/tools/compiler/ti-cgt-msp430_21.6.1.LT
    3156                    .dwattr $C$DW$T$139, DW_AT_decl_line(0x81)
    3157                    .dwattr $C$DW$T$139, DW_AT_decl_column(0x14)
    3158            
    3159            $C$DW$T$140     .dwtag  DW_TAG_typedef
    3160                    .dwattr $C$DW$T$140, DW_AT_name("__gid_t")
    3161                    .dwattr $C$DW$T$140, DW_AT_type(*$C$DW$T$136)
    3162                    .dwattr $C$DW$T$140, DW_AT_language(DW_LANG_C)
MSP430 Assembler PC v21.6.1 Tue Dec 20 13:45:52 2022

Copyright (c) 2003-2018 Texas Instruments Incorporated
timer_a.asm                                                          PAGE   61

    3163                    .dwattr $C$DW$T$140, DW_AT_decl_file("C:/ti/ccs1110/ccs/tools/compiler/ti-cgt-msp430_21.6.1.LT
    3164                    .dwattr $C$DW$T$140, DW_AT_decl_line(0x35)
    3165                    .dwattr $C$DW$T$140, DW_AT_decl_column(0x14)
    3166            
    3167            $C$DW$T$141     .dwtag  DW_TAG_typedef
    3168                    .dwattr $C$DW$T$141, DW_AT_name("__socklen_t")
    3169                    .dwattr $C$DW$T$141, DW_AT_type(*$C$DW$T$136)
    3170                    .dwattr $C$DW$T$141, DW_AT_language(DW_LANG_C)
    3171                    .dwattr $C$DW$T$141, DW_AT_decl_file("C:/ti/ccs1110/ccs/tools/compiler/ti-cgt-msp430_21.6.1.LT
    3172                    .dwattr $C$DW$T$141, DW_AT_decl_line(0x49)
    3173                    .dwattr $C$DW$T$141, DW_AT_decl_column(0x14)
    3174            
    3175            $C$DW$T$142     .dwtag  DW_TAG_typedef
    3176                    .dwattr $C$DW$T$142, DW_AT_name("__time_t")
    3177                    .dwattr $C$DW$T$142, DW_AT_type(*$C$DW$T$136)
    3178                    .dwattr $C$DW$T$142, DW_AT_language(DW_LANG_C)
    3179                    .dwattr $C$DW$T$142, DW_AT_decl_file("C:/ti/ccs1110/ccs/tools/compiler/ti-cgt-msp430_21.6.1.LT
    3180                    .dwattr $C$DW$T$142, DW_AT_decl_line(0x66)
    3181                    .dwattr $C$DW$T$142, DW_AT_decl_column(0x19)
    3182            
    3183            $C$DW$T$143     .dwtag  DW_TAG_typedef
    3184                    .dwattr $C$DW$T$143, DW_AT_name("__uid_t")
    3185                    .dwattr $C$DW$T$143, DW_AT_type(*$C$DW$T$136)
    3186                    .dwattr $C$DW$T$143, DW_AT_language(DW_LANG_C)
    3187                    .dwattr $C$DW$T$143, DW_AT_decl_file("C:/ti/ccs1110/ccs/tools/compiler/ti-cgt-msp430_21.6.1.LT
    3188                    .dwattr $C$DW$T$143, DW_AT_decl_line(0x4d)
    3189                    .dwattr $C$DW$T$143, DW_AT_decl_column(0x14)
    3190            
    3191            $C$DW$T$144     .dwtag  DW_TAG_typedef
    3192                    .dwattr $C$DW$T$144, DW_AT_name("__uint_fast32_t")
    3193                    .dwattr $C$DW$T$144, DW_AT_type(*$C$DW$T$136)
    3194                    .dwattr $C$DW$T$144, DW_AT_language(DW_LANG_C)
    3195                    .dwattr $C$DW$T$144, DW_AT_decl_file("C:/ti/ccs1110/ccs/tools/compiler/ti-cgt-msp430_21.6.1.LT
    3196                    .dwattr $C$DW$T$144, DW_AT_decl_line(0x72)
    3197                    .dwattr $C$DW$T$144, DW_AT_decl_column(0x14)
    3198            
    3199            $C$DW$T$145     .dwtag  DW_TAG_typedef
    3200                    .dwattr $C$DW$T$145, DW_AT_name("uint_fast32_t")
    3201                    .dwattr $C$DW$T$145, DW_AT_type(*$C$DW$T$144)
    3202                    .dwattr $C$DW$T$145, DW_AT_language(DW_LANG_C)
    3203                    .dwattr $C$DW$T$145, DW_AT_decl_file("C:/ti/ccs1110/ccs/tools/compiler/ti-cgt-msp430_21.6.1.LT
    3204                    .dwattr $C$DW$T$145, DW_AT_decl_line(0x3b)
    3205                    .dwattr $C$DW$T$145, DW_AT_decl_column(0x1a)
    3206            
    3207            $C$DW$T$146     .dwtag  DW_TAG_typedef
    3208                    .dwattr $C$DW$T$146, DW_AT_name("__uint_least32_t")
    3209                    .dwattr $C$DW$T$146, DW_AT_type(*$C$DW$T$136)
    3210                    .dwattr $C$DW$T$146, DW_AT_language(DW_LANG_C)
    3211                    .dwattr $C$DW$T$146, DW_AT_decl_file("C:/ti/ccs1110/ccs/tools/compiler/ti-cgt-msp430_21.6.1.LT
    3212                    .dwattr $C$DW$T$146, DW_AT_decl_line(0x76)
    3213                    .dwattr $C$DW$T$146, DW_AT_decl_column(0x14)
    3214            
    3215            $C$DW$T$147     .dwtag  DW_TAG_typedef
    3216                    .dwattr $C$DW$T$147, DW_AT_name("__char32_t")
    3217                    .dwattr $C$DW$T$147, DW_AT_type(*$C$DW$T$146)
MSP430 Assembler PC v21.6.1 Tue Dec 20 13:45:52 2022

Copyright (c) 2003-2018 Texas Instruments Incorporated
timer_a.asm                                                          PAGE   62

    3218                    .dwattr $C$DW$T$147, DW_AT_language(DW_LANG_C)
    3219                    .dwattr $C$DW$T$147, DW_AT_decl_file("C:/ti/ccs1110/ccs/tools/compiler/ti-cgt-msp430_21.6.1.LT
    3220                    .dwattr $C$DW$T$147, DW_AT_decl_line(0x72)
    3221                    .dwattr $C$DW$T$147, DW_AT_decl_column(0x1a)
    3222            
    3223            $C$DW$T$148     .dwtag  DW_TAG_typedef
    3224                    .dwattr $C$DW$T$148, DW_AT_name("uint_least32_t")
    3225                    .dwattr $C$DW$T$148, DW_AT_type(*$C$DW$T$146)
    3226                    .dwattr $C$DW$T$148, DW_AT_language(DW_LANG_C)
    3227                    .dwattr $C$DW$T$148, DW_AT_decl_file("C:/ti/ccs1110/ccs/tools/compiler/ti-cgt-msp430_21.6.1.LT
    3228                    .dwattr $C$DW$T$148, DW_AT_decl_line(0x31)
    3229                    .dwattr $C$DW$T$148, DW_AT_decl_column(0x1a)
    3230            
    3231            $C$DW$T$149     .dwtag  DW_TAG_typedef
    3232                    .dwattr $C$DW$T$149, DW_AT_name("__uintfptr_t")
    3233                    .dwattr $C$DW$T$149, DW_AT_type(*$C$DW$T$136)
    3234                    .dwattr $C$DW$T$149, DW_AT_language(DW_LANG_C)
    3235                    .dwattr $C$DW$T$149, DW_AT_decl_file("C:/ti/ccs1110/ccs/tools/compiler/ti-cgt-msp430_21.6.1.LT
    3236                    .dwattr $C$DW$T$149, DW_AT_decl_line(0x68)
    3237                    .dwattr $C$DW$T$149, DW_AT_decl_column(0x14)
    3238            
    3239            $C$DW$T$150     .dwtag  DW_TAG_typedef
    3240                    .dwattr $C$DW$T$150, DW_AT_name("__uintptr_t")
    3241                    .dwattr $C$DW$T$150, DW_AT_type(*$C$DW$T$136)
    3242                    .dwattr $C$DW$T$150, DW_AT_language(DW_LANG_C)
    3243                    .dwattr $C$DW$T$150, DW_AT_decl_file("C:/ti/ccs1110/ccs/tools/compiler/ti-cgt-msp430_21.6.1.LT
    3244                    .dwattr $C$DW$T$150, DW_AT_decl_line(0x6b)
    3245                    .dwattr $C$DW$T$150, DW_AT_decl_column(0x14)
    3246            
    3247            $C$DW$T$151     .dwtag  DW_TAG_typedef
    3248                    .dwattr $C$DW$T$151, DW_AT_name("uintptr_t")
    3249                    .dwattr $C$DW$T$151, DW_AT_type(*$C$DW$T$150)
    3250                    .dwattr $C$DW$T$151, DW_AT_language(DW_LANG_C)
    3251                    .dwattr $C$DW$T$151, DW_AT_decl_file("C:/ti/ccs1110/ccs/tools/compiler/ti-cgt-msp430_21.6.1.LT
    3252                    .dwattr $C$DW$T$151, DW_AT_decl_line(0x54)
    3253                    .dwattr $C$DW$T$151, DW_AT_decl_column(0x16)
    3254            
    3255            $C$DW$T$152     .dwtag  DW_TAG_typedef
    3256                    .dwattr $C$DW$T$152, DW_AT_name("__vm_offset_t")
    3257                    .dwattr $C$DW$T$152, DW_AT_type(*$C$DW$T$136)
    3258                    .dwattr $C$DW$T$152, DW_AT_language(DW_LANG_C)
    3259                    .dwattr $C$DW$T$152, DW_AT_decl_file("C:/ti/ccs1110/ccs/tools/compiler/ti-cgt-msp430_21.6.1.LT
    3260                    .dwattr $C$DW$T$152, DW_AT_decl_line(0x79)
    3261                    .dwattr $C$DW$T$152, DW_AT_decl_column(0x14)
    3262            
    3263            $C$DW$T$153     .dwtag  DW_TAG_typedef
    3264                    .dwattr $C$DW$T$153, DW_AT_name("__vm_paddr_t")
    3265                    .dwattr $C$DW$T$153, DW_AT_type(*$C$DW$T$136)
    3266                    .dwattr $C$DW$T$153, DW_AT_language(DW_LANG_C)
    3267                    .dwattr $C$DW$T$153, DW_AT_decl_file("C:/ti/ccs1110/ccs/tools/compiler/ti-cgt-msp430_21.6.1.LT
    3268                    .dwattr $C$DW$T$153, DW_AT_decl_line(0x7a)
    3269                    .dwattr $C$DW$T$153, DW_AT_decl_column(0x14)
    3270            
    3271            $C$DW$T$154     .dwtag  DW_TAG_typedef
    3272                    .dwattr $C$DW$T$154, DW_AT_name("__vm_size_t")
MSP430 Assembler PC v21.6.1 Tue Dec 20 13:45:52 2022

Copyright (c) 2003-2018 Texas Instruments Incorporated
timer_a.asm                                                          PAGE   63

    3273                    .dwattr $C$DW$T$154, DW_AT_type(*$C$DW$T$136)
    3274                    .dwattr $C$DW$T$154, DW_AT_language(DW_LANG_C)
    3275                    .dwattr $C$DW$T$154, DW_AT_decl_file("C:/ti/ccs1110/ccs/tools/compiler/ti-cgt-msp430_21.6.1.LT
    3276                    .dwattr $C$DW$T$154, DW_AT_decl_line(0x7b)
    3277                    .dwattr $C$DW$T$154, DW_AT_decl_column(0x14)
    3278            
    3279            $C$DW$T$155     .dwtag  DW_TAG_typedef
    3280                    .dwattr $C$DW$T$155, DW_AT_name("uint32_t")
    3281                    .dwattr $C$DW$T$155, DW_AT_type(*$C$DW$T$136)
    3282                    .dwattr $C$DW$T$155, DW_AT_language(DW_LANG_C)
    3283                    .dwattr $C$DW$T$155, DW_AT_decl_file("C:/ti/ccs1110/ccs/tools/compiler/ti-cgt-msp430_21.6.1.LT
