MSP430 Assembler PC v21.6.1 Tue Dec 20 13:45:53 2022

Copyright (c) 2003-2018 Texas Instruments Incorporated
tlv.asm                                                              PAGE    1

       1            ;******************************************************************************
       2            ;* MSP430 G3 C/C++ Codegen                                              PC v21.6.1.LTS *
       3            ;* Date/Time created: Tue Dec 20 13:45:53 2022                                *
       4            ;******************************************************************************
       5                    .compiler_opts --abi=eabi --diag_wrap=off --hll_source=on --mem_model:code=large --mem_model:d
       6            
       7            $C$DW$CU        .dwtag  DW_TAG_compile_unit
       8                    .dwattr $C$DW$CU, DW_AT_name("../MP430DriverLib/driverlib/MSP430F5xx_6xx/tlv.c")
       9                    .dwattr $C$DW$CU, DW_AT_producer("TI MSP430 G3 C/C++ Codegen PC v21.6.1.LTS Copyright (c) 2003
      10                    .dwattr $C$DW$CU, DW_AT_TI_version(0x01)
      11                    .dwattr $C$DW$CU, DW_AT_comp_dir("C:\Users\MCourson\workspace_v11\MZERO_HB50Board\Debug")
      12            ;       C:\ti\ccs1110\ccs\tools\compiler\ti-cgt-msp430_21.6.1.LTS\bin\opt430.exe C:\\Users\\MCourson\\
      13 000000               .sect   ".text:TLV_getInfo"
      14                    .clink
      15                    .global TLV_getInfo
      16            
      17            $C$DW$1 .dwtag  DW_TAG_subprogram
      18                    .dwattr $C$DW$1, DW_AT_name("TLV_getInfo")
      19                    .dwattr $C$DW$1, DW_AT_low_pc(TLV_getInfo)
      20                    .dwattr $C$DW$1, DW_AT_high_pc(0x00)
      21                    .dwattr $C$DW$1, DW_AT_TI_symbol_name("TLV_getInfo")
      22                    .dwattr $C$DW$1, DW_AT_external
      23                    .dwattr $C$DW$1, DW_AT_TI_begin_file("../MP430DriverLib/driverlib/MSP430F5xx_6xx/tlv.c")
      24                    .dwattr $C$DW$1, DW_AT_TI_begin_line(0x15)
      25                    .dwattr $C$DW$1, DW_AT_TI_begin_column(0x06)
      26                    .dwattr $C$DW$1, DW_AT_decl_file("../MP430DriverLib/driverlib/MSP430F5xx_6xx/tlv.c")
      27                    .dwattr $C$DW$1, DW_AT_decl_line(0x15)
      28                    .dwattr $C$DW$1, DW_AT_decl_column(0x06)
      29                    .dwattr $C$DW$1, DW_AT_TI_max_frame_size(0x08)
      30                    .dwpsn  file "../MP430DriverLib/driverlib/MSP430F5xx_6xx/tlv.c",line 26,column 1,is_stmt,addre
      31            
      32                    .dwfde $C$DW$CIE, TLV_getInfo
      33            $C$DW$2 .dwtag  DW_TAG_formal_parameter
      34                    .dwattr $C$DW$2, DW_AT_name("tag")
      35                    .dwattr $C$DW$2, DW_AT_TI_symbol_name("tag")
      36                    .dwattr $C$DW$2, DW_AT_type(*$C$DW$T$35)
      37                    .dwattr $C$DW$2, DW_AT_location[DW_OP_reg12]
      38            
      39            $C$DW$3 .dwtag  DW_TAG_formal_parameter
      40                    .dwattr $C$DW$3, DW_AT_name("instance")
      41                    .dwattr $C$DW$3, DW_AT_TI_symbol_name("instance")
      42                    .dwattr $C$DW$3, DW_AT_type(*$C$DW$T$35)
      43                    .dwattr $C$DW$3, DW_AT_location[DW_OP_reg13]
      44            
      45            $C$DW$4 .dwtag  DW_TAG_formal_parameter
      46                    .dwattr $C$DW$4, DW_AT_name("length")
      47                    .dwattr $C$DW$4, DW_AT_TI_symbol_name("length")
      48                    .dwattr $C$DW$4, DW_AT_type(*$C$DW$T$36)
      49                    .dwattr $C$DW$4, DW_AT_location[DW_OP_reg14]
      50            
      51            $C$DW$5 .dwtag  DW_TAG_formal_parameter
      52                    .dwattr $C$DW$5, DW_AT_name("data_address")
      53                    .dwattr $C$DW$5, DW_AT_TI_symbol_name("data_address")
      54                    .dwattr $C$DW$5, DW_AT_type(*$C$DW$T$38)
      55                    .dwattr $C$DW$5, DW_AT_location[DW_OP_reg15]
MSP430 Assembler PC v21.6.1 Tue Dec 20 13:45:53 2022

Copyright (c) 2003-2018 Texas Instruments Incorporated
tlv.asm                                                              PAGE    2

      56            
      57            
      58            ;*****************************************************************************
      59            ;* FUNCTION NAME: TLV_getInfo                                                *
      60            ;*                                                                           *
      61            ;*   Regs Modified     : SP,SR,r10,r11,r13                                   *
      62            ;*   Regs Used         : SP,SR,r10,r11,r12,r13,r14,r15                       *
      63            ;*   Local Frame Size  : 0 Args + 0 Auto + 4 Save = 4 byte                   *
      64            ;*****************************************************************************
      65 000000       TLV_getInfo:
      66            ;* --------------------------------------------------------------------------*
      67                    .dwcfi  cfa_offset, 4
      68                    .dwcfi  save_reg_to_mem, 16, -4
      69 000000 140A          PUSHM.A   #1,r10                ; [] 
      70                    .dwcfi  save_reg_to_mem, 10, -8
      71                    .dwcfi  cfa_offset, 8
      72            ;* r12   assigned to tag
      73            $C$DW$6 .dwtag  DW_TAG_variable
      74                    .dwattr $C$DW$6, DW_AT_name("tag")
      75                    .dwattr $C$DW$6, DW_AT_TI_symbol_name("tag")
      76                    .dwattr $C$DW$6, DW_AT_type(*$C$DW$T$35)
      77                    .dwattr $C$DW$6, DW_AT_location[DW_OP_reg12]
      78            
      79            ;* r13   assigned to instance
      80            $C$DW$7 .dwtag  DW_TAG_variable
      81                    .dwattr $C$DW$7, DW_AT_name("instance")
      82                    .dwattr $C$DW$7, DW_AT_TI_symbol_name("instance")
      83                    .dwattr $C$DW$7, DW_AT_type(*$C$DW$T$35)
      84                    .dwattr $C$DW$7, DW_AT_location[DW_OP_reg13]
      85            
      86            ;* r14   assigned to length
      87            $C$DW$8 .dwtag  DW_TAG_variable
      88                    .dwattr $C$DW$8, DW_AT_name("length")
      89                    .dwattr $C$DW$8, DW_AT_TI_symbol_name("length")
      90                    .dwattr $C$DW$8, DW_AT_type(*$C$DW$T$36)
      91                    .dwattr $C$DW$8, DW_AT_location[DW_OP_reg14]
      92            
      93            ;* r15   assigned to data_address
      94            $C$DW$9 .dwtag  DW_TAG_variable
      95                    .dwattr $C$DW$9, DW_AT_name("data_address")
      96                    .dwattr $C$DW$9, DW_AT_TI_symbol_name("data_address")
      97                    .dwattr $C$DW$9, DW_AT_type(*$C$DW$T$38)
      98                    .dwattr $C$DW$9, DW_AT_location[DW_OP_reg15]
      99            
     100            ;* r11   assigned to TLV_address
     101            $C$DW$10        .dwtag  DW_TAG_variable
     102                    .dwattr $C$DW$10, DW_AT_name("TLV_address")
     103                    .dwattr $C$DW$10, DW_AT_TI_symbol_name("TLV_address")
     104                    .dwattr $C$DW$10, DW_AT_type(*$C$DW$T$161)
     105                    .dwattr $C$DW$10, DW_AT_location[DW_OP_reg11]
     106            
     107                    .dwpsn  file "../MP430DriverLib/driverlib/MSP430F5xx_6xx/tlv.c",line 28,column 23,is_stmt,isa 
     108 000002 403B          MOV.W     #6664,r11             ; [] |28| 
         000004 1A08 
     109                    .dwpsn  file "../MP430DriverLib/driverlib/MSP430F5xx_6xx/tlv.c",line 30,column 5,is_stmt,isa 0
MSP430 Assembler PC v21.6.1 Tue Dec 20 13:45:53 2022

Copyright (c) 2003-2018 Texas Instruments Incorporated
tlv.asm                                                              PAGE    3

     110 000006 3C09          JMP       $C$L3                 ; [] |30| 
     111                                                      ; [] |30| 
     112            ;* --------------------------------------------------------------------------*
     113 000008       $C$L1:    
     114                    .dwpsn  file "../MP430DriverLib/driverlib/MSP430F5xx_6xx/tlv.c",line 34,column 9,is_stmt,isa 0
     115 000008 9B6C          CMP.B     @r11,r12              ; [] |34| 
     116 00000a 2001          JNE       $C$L2                 ; [] |34| 
     117                                                      ; [] |34| 
     118            ;* --------------------------------------------------------------------------*
     119                    .dwpsn  file "../MP430DriverLib/driverlib/MSP430F5xx_6xx/tlv.c",line 37,column 13,is_stmt,isa 
     120 00000c 835D          SUB.B     #1,r13                ; [] |37| 
     121            ;* --------------------------------------------------------------------------*
     122 00000e       $C$L2:    
     123                    .dwpsn  file "../MP430DriverLib/driverlib/MSP430F5xx_6xx/tlv.c",line 40,column 9,is_stmt,isa 0
     124 00000e 4B5A          MOV.B     1(r11),r10            ; [] |40| 
         000010 0001 
     125 000012 532A          ADD.W     #2,r10                ; [] |40| 
     126 000014 0E4A          RLAM.A    #4,r10                ; [] |40| 
     127 000016 0D4A          RRAM.A    #4,r10                ; [] |40| 
     128 000018 0AEB          ADDA      r10,r11               ; [] |40| 
     129            ;* --------------------------------------------------------------------------*
     130            ;*   BEGIN LOOP $C$L3
     131            ;* --------------------------------------------------------------------------*
     132 00001a       $C$L3:    
     133                    .dwpsn  file "../MP430DriverLib/driverlib/MSP430F5xx_6xx/tlv.c",line 30,column 11,is_stmt,isa 
     134 00001a 009B          CMPA      #6911,r11             ; [] |30| 
         00001c 1AFF 
     135 00001e 2C08          JHS       $C$L5                 ; [] |30| 
     136                                                      ; [] |30| 
     137            ;* --------------------------------------------------------------------------*
     138 000020 9B6C          CMP.B     @r11,r12              ; [] |30| 
     139 000022 2002          JNE       $C$L4                 ; [] |30| 
     140                                                      ; [] |30| 
     141            ;* --------------------------------------------------------------------------*
     142 000024 934D          TST.B     r13                   ; [] |30| 
     143 000026 2404          JEQ       $C$L5                 ; [] |30| 
     144                                                      ; [] |30| 
     145            ;* --------------------------------------------------------------------------*
     146 000028       $C$L4:    
     147 000028 403A          MOV.W     #255,r10              ; [] |30| 
         00002a 00FF 
     148 00002c 9B6A          CMP.B     @r11,r10              ; [] |30| 
     149 00002e 23EC          JNE       $C$L1                 ; [] |30| 
     150                                                      ; [] |30| 
     151            ;* --------------------------------------------------------------------------*
     152 000030       $C$L5:    
     153                    .dwpsn  file "../MP430DriverLib/driverlib/MSP430F5xx_6xx/tlv.c",line 44,column 5,is_stmt,isa 0
     154 000030 9B6C          CMP.B     @r11,r12              ; [] |44| 
     155 000032 2406          JEQ       $C$L6                 ; [] |44| 
     156                                                      ; [] |44| 
     157            ;* --------------------------------------------------------------------------*
     158                    .dwpsn  file "../MP430DriverLib/driverlib/MSP430F5xx_6xx/tlv.c",line 55,column 9,is_stmt,isa 0
     159 000034 43CE          MOV.B     #0,0(r14)             ; [] |55| 
         000036 0000 
     160                    .dwpsn  file "../MP430DriverLib/driverlib/MSP430F5xx_6xx/tlv.c",line 57,column 9,is_stmt,isa 0
MSP430 Assembler PC v21.6.1 Tue Dec 20 13:45:53 2022

Copyright (c) 2003-2018 Texas Instruments Incorporated
tlv.asm                                                              PAGE    4

     161 000038 1800          MOVX.A    #0,0(r15)             ; [] |57| 
         00003a 43CF 
         00003c 0000 
     162 00003e 3C06          JMP       $C$L7                 ; [] |57| 
     163                                                      ; [] |57| 
     164            ;* --------------------------------------------------------------------------*
     165 000040       $C$L6:    
     166                    .dwpsn  file "../MP430DriverLib/driverlib/MSP430F5xx_6xx/tlv.c",line 47,column 9,is_stmt,isa 0
     167 000040 4BDE          MOV.B     1(r11),0(r14)         ; [] |47| 
         000042 0001 
         000044 0000 
     168                    .dwpsn  file "../MP430DriverLib/driverlib/MSP430F5xx_6xx/tlv.c",line 49,column 9,is_stmt,isa 0
     169 000046 03EB          ADDA      #2,r11                ; [] |49| 
     170 000048 0B7F          MOVX.A    r11,0(r15)            ; [] |49| 
         00004a 0000 
     171            ;* --------------------------------------------------------------------------*
     172 00004c       $C$L7:    
     173                    .dwpsn  file "../MP430DriverLib/driverlib/MSP430F5xx_6xx/tlv.c",line 59,column 1,is_stmt,isa 0
     174 00004c 160A          POPM.A    #1,r10                ; [] 
     175                    .dwcfi  restore_reg, 10
     176                    .dwcfi  cfa_offset, 4
     177            $C$DW$11        .dwtag  DW_TAG_TI_branch
     178                    .dwattr $C$DW$11, DW_AT_low_pc(0x00)
     179                    .dwattr $C$DW$11, DW_AT_TI_return
     180            
     181 00004e 0110          RETA      ; [] 
     182                    ; [] 
     183                    .dwattr $C$DW$1, DW_AT_TI_end_file("../MP430DriverLib/driverlib/MSP430F5xx_6xx/tlv.c")
     184                    .dwattr $C$DW$1, DW_AT_TI_end_line(0x3b)
     185                    .dwattr $C$DW$1, DW_AT_TI_end_column(0x01)
     186                    .dwendentry
     187                    .dwendtag $C$DW$1
     188            
     189 000000               .sect   ".text:TLV_getMemory"
     190                    .clink
     191                    .global TLV_getMemory
     192            
     193            $C$DW$12        .dwtag  DW_TAG_subprogram
     194                    .dwattr $C$DW$12, DW_AT_name("TLV_getMemory")
     195                    .dwattr $C$DW$12, DW_AT_low_pc(TLV_getMemory)
     196                    .dwattr $C$DW$12, DW_AT_high_pc(0x00)
     197                    .dwattr $C$DW$12, DW_AT_TI_symbol_name("TLV_getMemory")
     198                    .dwattr $C$DW$12, DW_AT_external
     199                    .dwattr $C$DW$12, DW_AT_type(*$C$DW$T$23)
     200                    .dwattr $C$DW$12, DW_AT_TI_begin_file("../MP430DriverLib/driverlib/MSP430F5xx_6xx/tlv.c")
     201                    .dwattr $C$DW$12, DW_AT_TI_begin_line(0x44)
     202                    .dwattr $C$DW$12, DW_AT_TI_begin_column(0x0a)
     203                    .dwattr $C$DW$12, DW_AT_decl_file("../MP430DriverLib/driverlib/MSP430F5xx_6xx/tlv.c")
     204                    .dwattr $C$DW$12, DW_AT_decl_line(0x44)
     205                    .dwattr $C$DW$12, DW_AT_decl_column(0x0a)
     206                    .dwattr $C$DW$12, DW_AT_TI_max_frame_size(0x0e)
     207                    .dwpsn  file "../MP430DriverLib/driverlib/MSP430F5xx_6xx/tlv.c",line 69,column 1,is_stmt,addre
     208            
     209                    .dwfde $C$DW$CIE, TLV_getMemory
     210            $C$DW$13        .dwtag  DW_TAG_formal_parameter
MSP430 Assembler PC v21.6.1 Tue Dec 20 13:45:53 2022

Copyright (c) 2003-2018 Texas Instruments Incorporated
tlv.asm                                                              PAGE    5

     211                    .dwattr $C$DW$13, DW_AT_name("instance")
     212                    .dwattr $C$DW$13, DW_AT_TI_symbol_name("instance")
     213                    .dwattr $C$DW$13, DW_AT_type(*$C$DW$T$35)
     214                    .dwattr $C$DW$13, DW_AT_location[DW_OP_reg12]
     215            
     216            
     217            ;*****************************************************************************
     218            ;* FUNCTION NAME: TLV_getMemory                                              *
     219            ;*                                                                           *
     220            ;*   Regs Modified     : SP,SR,r10,r11,r12,r13,r14,r15                       *
     221            ;*   Regs Used         : SP,SR,r10,r11,r12,r13,r14,r15                       *
     222            ;*   Local Frame Size  : 0 Args + 6 Auto + 4 Save = 10 byte                  *
     223            ;*****************************************************************************
     224 000000       TLV_getMemory:
     225            ;* --------------------------------------------------------------------------*
     226                    .dwcfi  cfa_offset, 4
     227                    .dwcfi  save_reg_to_mem, 16, -4
     228 000000 140A          PUSHM.A   #1,r10                ; [] 
     229                    .dwcfi  save_reg_to_mem, 10, -8
     230                    .dwcfi  cfa_offset, 8
     231 000002 00B1          SUBA      #6,SP                 ; [] 
         000004 0006 
     232                    .dwcfi  cfa_offset, 14
     233            $C$DW$14        .dwtag  DW_TAG_variable
     234                    .dwattr $C$DW$14, DW_AT_name("pPDTAG")
     235                    .dwattr $C$DW$14, DW_AT_TI_symbol_name("pPDTAG")
     236                    .dwattr $C$DW$14, DW_AT_type(*$C$DW$T$36)
     237                    .dwattr $C$DW$14, DW_AT_location[DW_OP_breg1 0]
     238            
     239            $C$DW$15        .dwtag  DW_TAG_variable
     240                    .dwattr $C$DW$15, DW_AT_name("bPDTAG_bytes")
     241                    .dwattr $C$DW$15, DW_AT_TI_symbol_name("bPDTAG_bytes")
     242                    .dwattr $C$DW$15, DW_AT_type(*$C$DW$T$35)
     243                    .dwattr $C$DW$15, DW_AT_location[DW_OP_breg1 4]
     244            
     245            ;* r10   assigned to instance
     246            $C$DW$16        .dwtag  DW_TAG_variable
     247                    .dwattr $C$DW$16, DW_AT_name("instance")
     248                    .dwattr $C$DW$16, DW_AT_TI_symbol_name("instance")
     249                    .dwattr $C$DW$16, DW_AT_type(*$C$DW$T$35)
     250                    .dwattr $C$DW$16, DW_AT_location[DW_OP_reg10]
     251            
     252            ;* r15   assigned to count
     253            $C$DW$17        .dwtag  DW_TAG_variable
     254                    .dwattr $C$DW$17, DW_AT_name("count")
     255                    .dwattr $C$DW$17, DW_AT_TI_symbol_name("count")
     256                    .dwattr $C$DW$17, DW_AT_type(*$C$DW$T$23)
     257                    .dwattr $C$DW$17, DW_AT_location[DW_OP_reg15]
     258            
     259 000006 0CCA          MOVA      r12,r10               ; [] |69| 
     260                    .dwpsn  file "../MP430DriverLib/driverlib/MSP430F5xx_6xx/tlv.c",line 75,column 5,is_stmt,isa 0
     261 000008 5A4A          RLA.B     r10                   ; [] |75| 
     262                    .dwpsn  file "../MP430DriverLib/driverlib/MSP430F5xx_6xx/tlv.c",line 79,column 5,is_stmt,isa 0
     263 00000a 436C          MOV.B     #2,r12                ; [] |79| 
     264 00000c 434D          MOV.B     #0,r13                ; [] |79| 
MSP430 Assembler PC v21.6.1 Tue Dec 20 13:45:53 2022

Copyright (c) 2003-2018 Texas Instruments Incorporated
tlv.asm                                                              PAGE    6

     265 00000e 01CE          MOVX.A    SP,r14                ; [] |79| 
     266 000010 00AE          ADDX.A    #4,r14                ; [] |79| 
         000012 0004 
     267 000014 01CF          MOVX.A    SP,r15                ; [] |79| 
     268            $C$DW$18        .dwtag  DW_TAG_TI_branch
     269                    .dwattr $C$DW$18, DW_AT_low_pc(0x00)
     270                    .dwattr $C$DW$18, DW_AT_name("TLV_getInfo")
     271                    .dwattr $C$DW$18, DW_AT_TI_call
     272            
     273 000016 13B0!         CALLA     #TLV_getInfo          ; [] |79| 
         000018 0000 
     274                                                      ; [] |79| 
     275                    .dwpsn  file "../MP430DriverLib/driverlib/MSP430F5xx_6xx/tlv.c",line 84,column 5,is_stmt,isa 0
     276 00001a 1800          TSTX.A    0(SP)                 ; [] |84| 
         00001c 93C1 
         00001e 0000 
     277 000020 2423          JEQ       $C$L11                ; [] |84| 
     278                                                      ; [] |84| 
     279            ;* --------------------------------------------------------------------------*
     280                    .dwpsn  file "../MP430DriverLib/driverlib/MSP430F5xx_6xx/tlv.c",line 86,column 25,is_stmt,isa 
     281 000022 430F          MOV.W     #0,r15                ; [] |86| 
     282 000024 4A4E          MOV.B     r10,r14               ; [] |86| 
     283 000026 9F0E          CMP.W     r15,r14               ; [] |86| 
     284 000028 281F          JLO       $C$L11                ; [] |86| 
     285                                                      ; [] |86| 
     286            ;* --------------------------------------------------------------------------*
     287            ;*   BEGIN LOOP $C$L8
     288            ;*
     289            ;*   Loop source line                : 86
     290            ;*   Loop closing brace source line  : 97
     291            ;*   Known Minimum Trip Count        : 1
     292            ;*   Known Maximum Trip Count        : 4294967295
     293            ;*   Known Max Trip Count Factor     : 1
     294            ;* --------------------------------------------------------------------------*
     295 00002a       $C$L8:    
     296                    .dwpsn  file "../MP430DriverLib/driverlib/MSP430F5xx_6xx/tlv.c",line 88,column 13,is_stmt,isa 
     297 00002a 4F0E          MOV.W     r15,r14               ; [] |88| 
     298 00002c 1800          ADDX.A    0(SP),r14             ; [] |88| 
         00002e 515E 
         000030 0000 
     299 000032 93CE          TST.B     0(r14)                ; [] |88| 
         000034 0000 
     300 000036 2002          JNE       $C$L9                 ; [] |88| 
     301                                                      ; [] |88| 
     302            ;* --------------------------------------------------------------------------*
     303                    .dwpsn  file "../MP430DriverLib/driverlib/MSP430F5xx_6xx/tlv.c",line 91,column 17,is_stmt,isa 
     304 000038 430C          MOV.W     #0,r12                ; [] |91| 
     305 00003a 3C17          JMP       $C$L12                ; [] |91| 
     306                                                      ; [] |91| 
     307            ;* --------------------------------------------------------------------------*
     308 00003c       $C$L9:    
     309                    .dwpsn  file "../MP430DriverLib/driverlib/MSP430F5xx_6xx/tlv.c",line 93,column 13,is_stmt,isa 
     310 00003c 4A4E          MOV.B     r10,r14               ; [] |93| 
     311 00003e 9E0F          CMP.W     r14,r15               ; [] |93| 
     312 000040 200F          JNE       $C$L10                ; [] |93| 
MSP430 Assembler PC v21.6.1 Tue Dec 20 13:45:53 2022

Copyright (c) 2003-2018 Texas Instruments Incorporated
tlv.asm                                                              PAGE    7

     313                                                      ; [] |93| 
     314            ;* --------------------------------------------------------------------------*
     315                    .dwpsn  file "../MP430DriverLib/driverlib/MSP430F5xx_6xx/tlv.c",line 95,column 17,is_stmt,isa 
     316 000042 4F0E          MOV.W     r15,r14               ; [] |95| 
     317 000044 1800          ADDX.A    0(SP),r14             ; [] |95| 
         000046 515E 
         000048 0000 
     318 00004a 4E6E          MOV.B     @r14,r14              ; [] |95| 
     319 00004c 531F          ADD.W     #1,r15                ; [] |95| 
     320 00004e 4F0F          MOV.W     r15,r15               ; [] |95| 
     321 000050 1800          ADDX.A    0(SP),r15             ; [] |95| 
         000052 515F 
         000054 0000 
     322 000056 4F6C          MOV.B     @r15,r12              ; [] |95| 
     323 000058 1847          RPT #8 || RLAX.W r12 ; [] |95| 
         00005a 5C0C 
     324 00005c DE0C          OR.W      r14,r12               ; [] |95| 
     325 00005e 3C05          JMP       $C$L12                ; [] |95| 
     326                                                      ; [] |95| 
     327            ;* --------------------------------------------------------------------------*
     328 000060       $C$L10:    
     329                    .dwpsn  file "../MP430DriverLib/driverlib/MSP430F5xx_6xx/tlv.c",line 86,column 25,is_stmt,isa 
     330 000060 532F          ADD.W     #2,r15                ; [] |86| 
     331 000062 4A4E          MOV.B     r10,r14               ; [] |86| 
     332 000064 9F0E          CMP.W     r15,r14               ; [] |86| 
     333 000066 2FE1          JHS       $C$L8                 ; [] |86| 
     334                                                      ; [] |86| 
     335            ;* --------------------------------------------------------------------------*
     336 000068       $C$L11:    
     337                    .dwpsn  file "../MP430DriverLib/driverlib/MSP430F5xx_6xx/tlv.c",line 101,column 5,is_stmt,isa 
     338 000068 430C          MOV.W     #0,r12                ; [] |101| 
     339            ;* --------------------------------------------------------------------------*
     340 00006a       $C$L12:    
     341                    .dwpsn  file "../MP430DriverLib/driverlib/MSP430F5xx_6xx/tlv.c",line 102,column 1,is_stmt,isa 
     342 00006a 00A1          ADDA      #6,SP                 ; [] 
         00006c 0006 
     343                    .dwcfi  cfa_offset, 8
     344 00006e 160A          POPM.A    #1,r10                ; [] 
     345                    .dwcfi  restore_reg, 10
     346                    .dwcfi  cfa_offset, 4
     347            $C$DW$19        .dwtag  DW_TAG_TI_branch
     348                    .dwattr $C$DW$19, DW_AT_low_pc(0x00)
     349                    .dwattr $C$DW$19, DW_AT_TI_return
     350            
     351 000070 0110          RETA      ; [] 
     352                    ; [] 
     353                    .dwattr $C$DW$12, DW_AT_TI_end_file("../MP430DriverLib/driverlib/MSP430F5xx_6xx/tlv.c")
     354                    .dwattr $C$DW$12, DW_AT_TI_end_line(0x66)
     355                    .dwattr $C$DW$12, DW_AT_TI_end_column(0x01)
     356                    .dwendentry
     357                    .dwendtag $C$DW$12
     358            
     359 000000               .sect   ".text:TLV_getPeripheral"
     360                    .clink
     361                    .global TLV_getPeripheral
MSP430 Assembler PC v21.6.1 Tue Dec 20 13:45:53 2022

Copyright (c) 2003-2018 Texas Instruments Incorporated
tlv.asm                                                              PAGE    8

     362            
     363            $C$DW$20        .dwtag  DW_TAG_subprogram
     364                    .dwattr $C$DW$20, DW_AT_name("TLV_getPeripheral")
     365                    .dwattr $C$DW$20, DW_AT_low_pc(TLV_getPeripheral)
     366                    .dwattr $C$DW$20, DW_AT_high_pc(0x00)
     367                    .dwattr $C$DW$20, DW_AT_TI_symbol_name("TLV_getPeripheral")
     368                    .dwattr $C$DW$20, DW_AT_external
     369                    .dwattr $C$DW$20, DW_AT_type(*$C$DW$T$23)
     370                    .dwattr $C$DW$20, DW_AT_TI_begin_file("../MP430DriverLib/driverlib/MSP430F5xx_6xx/tlv.c")
     371                    .dwattr $C$DW$20, DW_AT_TI_begin_line(0x68)
     372                    .dwattr $C$DW$20, DW_AT_TI_begin_column(0x0a)
     373                    .dwattr $C$DW$20, DW_AT_decl_file("../MP430DriverLib/driverlib/MSP430F5xx_6xx/tlv.c")
     374                    .dwattr $C$DW$20, DW_AT_decl_line(0x68)
     375                    .dwattr $C$DW$20, DW_AT_decl_column(0x0a)
     376                    .dwattr $C$DW$20, DW_AT_TI_max_frame_size(0x16)
     377                    .dwpsn  file "../MP430DriverLib/driverlib/MSP430F5xx_6xx/tlv.c",line 107,column 1,is_stmt,addr
     378            
     379                    .dwfde $C$DW$CIE, TLV_getPeripheral
     380            $C$DW$21        .dwtag  DW_TAG_formal_parameter
     381                    .dwattr $C$DW$21, DW_AT_name("tag")
     382                    .dwattr $C$DW$21, DW_AT_TI_symbol_name("tag")
     383                    .dwattr $C$DW$21, DW_AT_type(*$C$DW$T$35)
     384                    .dwattr $C$DW$21, DW_AT_location[DW_OP_reg12]
     385            
     386            $C$DW$22        .dwtag  DW_TAG_formal_parameter
     387                    .dwattr $C$DW$22, DW_AT_name("instance")
     388                    .dwattr $C$DW$22, DW_AT_TI_symbol_name("instance")
     389                    .dwattr $C$DW$22, DW_AT_type(*$C$DW$T$35)
     390                    .dwattr $C$DW$22, DW_AT_location[DW_OP_reg13]
     391            
     392            
     393            ;*****************************************************************************
     394            ;* FUNCTION NAME: TLV_getPeripheral                                          *
     395            ;*                                                                           *
     396            ;*   Regs Modified     : SP,SR,r8,r9,r10,r11,r12,r13,r14,r15                 *
     397            ;*   Regs Used         : SP,SR,r8,r9,r10,r11,r12,r13,r14,r15                 *
     398            ;*   Local Frame Size  : 0 Args + 6 Auto + 12 Save = 18 byte                 *
     399            ;*****************************************************************************
     400 000000       TLV_getPeripheral:
     401            ;* --------------------------------------------------------------------------*
     402                    .dwcfi  cfa_offset, 4
     403                    .dwcfi  save_reg_to_mem, 16, -4
     404 000000 142A          PUSHM.A   #3,r10                ; [] 
     405                    .dwcfi  save_reg_to_mem, 10, -8
     406                    .dwcfi  save_reg_to_mem, 9, -12
     407                    .dwcfi  save_reg_to_mem, 8, -16
     408                    .dwcfi  cfa_offset, 16
     409 000002 00B1          SUBA      #6,SP                 ; [] 
         000004 0006 
     410                    .dwcfi  cfa_offset, 22
     411            $C$DW$23        .dwtag  DW_TAG_variable
     412                    .dwattr $C$DW$23, DW_AT_name("pPDTAG")
     413                    .dwattr $C$DW$23, DW_AT_TI_symbol_name("pPDTAG")
     414                    .dwattr $C$DW$23, DW_AT_type(*$C$DW$T$36)
     415                    .dwattr $C$DW$23, DW_AT_location[DW_OP_breg1 0]
MSP430 Assembler PC v21.6.1 Tue Dec 20 13:45:53 2022

Copyright (c) 2003-2018 Texas Instruments Incorporated
tlv.asm                                                              PAGE    9

     416            
     417            $C$DW$24        .dwtag  DW_TAG_variable
     418                    .dwattr $C$DW$24, DW_AT_name("bPDTAG_bytes")
     419                    .dwattr $C$DW$24, DW_AT_TI_symbol_name("bPDTAG_bytes")
     420                    .dwattr $C$DW$24, DW_AT_type(*$C$DW$T$35)
     421                    .dwattr $C$DW$24, DW_AT_location[DW_OP_breg1 4]
     422            
     423            ;* r8    assigned to tag
     424            $C$DW$25        .dwtag  DW_TAG_variable
     425                    .dwattr $C$DW$25, DW_AT_name("tag")
     426                    .dwattr $C$DW$25, DW_AT_TI_symbol_name("tag")
     427                    .dwattr $C$DW$25, DW_AT_type(*$C$DW$T$35)
     428                    .dwattr $C$DW$25, DW_AT_location[DW_OP_reg8]
     429            
     430            ;* r9    assigned to instance
     431            $C$DW$26        .dwtag  DW_TAG_variable
     432                    .dwattr $C$DW$26, DW_AT_name("instance")
     433                    .dwattr $C$DW$26, DW_AT_TI_symbol_name("instance")
     434                    .dwattr $C$DW$26, DW_AT_type(*$C$DW$T$35)
     435                    .dwattr $C$DW$26, DW_AT_location[DW_OP_reg9]
     436            
     437            ;* r10   assigned to count
     438            $C$DW$27        .dwtag  DW_TAG_variable
     439                    .dwattr $C$DW$27, DW_AT_name("count")
     440                    .dwattr $C$DW$27, DW_AT_TI_symbol_name("count")
     441                    .dwattr $C$DW$27, DW_AT_type(*$C$DW$T$23)
     442                    .dwattr $C$DW$27, DW_AT_location[DW_OP_reg10]
     443            
     444            ;* r15   assigned to pcount
     445            $C$DW$28        .dwtag  DW_TAG_variable
     446                    .dwattr $C$DW$28, DW_AT_name("pcount")
     447                    .dwattr $C$DW$28, DW_AT_TI_symbol_name("pcount")
     448                    .dwattr $C$DW$28, DW_AT_type(*$C$DW$T$23)
     449                    .dwattr $C$DW$28, DW_AT_location[DW_OP_reg15]
     450            
     451 000006 0DC9          MOVA      r13,r9                ; [] |107| 
     452 000008 0CC8          MOVA      r12,r8                ; [] |107| 
     453                    .dwpsn  file "../MP430DriverLib/driverlib/MSP430F5xx_6xx/tlv.c",line 110,column 20,is_stmt,isa
     454 00000a 430A          MOV.W     #0,r10                ; [] |110| 
     455                    .dwpsn  file "../MP430DriverLib/driverlib/MSP430F5xx_6xx/tlv.c",line 114,column 5,is_stmt,isa 
     456 00000c 436C          MOV.B     #2,r12                ; [] |114| 
     457 00000e 434D          MOV.B     #0,r13                ; [] |114| 
     458 000010 01CE          MOVX.A    SP,r14                ; [] |114| 
     459 000012 00AE          ADDX.A    #4,r14                ; [] |114| 
         000014 0004 
     460 000016 01CF          MOVX.A    SP,r15                ; [] |114| 
     461            $C$DW$29        .dwtag  DW_TAG_TI_branch
     462                    .dwattr $C$DW$29, DW_AT_low_pc(0x00)
     463                    .dwattr $C$DW$29, DW_AT_name("TLV_getInfo")
     464                    .dwattr $C$DW$29, DW_AT_TI_call
     465            
     466 000018 13B0!         CALLA     #TLV_getInfo          ; [] |114| 
         00001a 0000 
     467                                                      ; [] |114| 
     468                    .dwpsn  file "../MP430DriverLib/driverlib/MSP430F5xx_6xx/tlv.c",line 119,column 5,is_stmt,isa 
MSP430 Assembler PC v21.6.1 Tue Dec 20 13:45:53 2022

Copyright (c) 2003-2018 Texas Instruments Incorporated
tlv.asm                                                              PAGE   10

     469 00001c 1800          TSTX.A    0(SP)                 ; [] |119| 
         00001e 93C1 
         000020 0000 
     470 000022 2436          JEQ       $C$L18                ; [] |119| 
     471                                                      ; [] |119| 
     472            ;* --------------------------------------------------------------------------*
     473                    .dwpsn  file "../MP430DriverLib/driverlib/MSP430F5xx_6xx/tlv.c",line 122,column 9,is_stmt,isa 
     474 000024 3C01          JMP       $C$L14                ; [] |122| 
     475                                                      ; [] |122| 
     476            ;* --------------------------------------------------------------------------*
     477 000026       $C$L13:    
     478                    .dwpsn  file "../MP430DriverLib/driverlib/MSP430F5xx_6xx/tlv.c",line 124,column 13,is_stmt,isa
     479 000026 531A          ADD.W     #1,r10                ; [] |124| 
     480            ;* --------------------------------------------------------------------------*
     481            ;*   BEGIN LOOP $C$L14
     482            ;* --------------------------------------------------------------------------*
     483 000028       $C$L14:    
     484                    .dwpsn  file "../MP430DriverLib/driverlib/MSP430F5xx_6xx/tlv.c",line 125,column 9,is_stmt,isa 
     485 000028 4A4C          MOV.B     r10,r12               ; [] |125| 
     486            $C$DW$30        .dwtag  DW_TAG_TI_branch
     487                    .dwattr $C$DW$30, DW_AT_low_pc(0x00)
     488                    .dwattr $C$DW$30, DW_AT_name("TLV_getMemory")
     489                    .dwattr $C$DW$30, DW_AT_TI_call
     490            
     491 00002a 13B0!         CALLA     #TLV_getMemory        ; [] |125| 
         00002c 0000 
     492                                                      ; [] |125| 
     493 00002e 930C          TST.W     r12                   ; [] |125| 
     494 000030 23FA          JNE       $C$L13                ; [] |125| 
     495                                                      ; [] |125| 
     496            ;* --------------------------------------------------------------------------*
     497                    .dwpsn  file "../MP430DriverLib/driverlib/MSP430F5xx_6xx/tlv.c",line 127,column 9,is_stmt,isa 
     498 000032 0ACF          MOVA      r10,r15               ; [] |127| 
     499 000034 025F          RLAM.W    #1,r15                ; [] |127| 
     500 000036 531F          ADD.W     #1,r15                ; [] |127| 
     501 000038 4F0F          MOV.W     r15,r15               ; [] |127| 
     502 00003a 1800          ADDX.A    0(SP),r15             ; [] |127| 
         00003c 515F 
         00003e 0000 
     503 000040 4F6F          MOV.B     @r15,r15              ; [] |127| 
     504                    .dwpsn  file "../MP430DriverLib/driverlib/MSP430F5xx_6xx/tlv.c",line 131,column 9,is_stmt,isa 
     505 000042 531A          ADD.W     #1,r10                ; [] |131| 
     506 000044 025A          RLAM.W    #1,r10                ; [] |131| 
     507 000046 4A0E          MOV.W     r10,r14               ; [] |131| 
     508 000048 1800          ADDX.A    r14,0(SP)             ; [] |131| 
         00004a 5EC1 
         00004c 0000 
     509                    .dwpsn  file "../MP430DriverLib/driverlib/MSP430F5xx_6xx/tlv.c",line 138,column 25,is_stmt,isa
     510 00004e 025F          RLAM.W    #1,r15                ; [] |138| 
     511 000050 430A          MOV.W     #0,r10                ; [] |138| 
     512 000052 9A0F          CMP.W     r10,r15               ; [] |138| 
     513 000054 281D          JLO       $C$L18                ; [] |138| 
     514                                                      ; [] |138| 
     515            ;* --------------------------------------------------------------------------*
     516            ;*   BEGIN LOOP $C$L15
MSP430 Assembler PC v21.6.1 Tue Dec 20 13:45:53 2022

Copyright (c) 2003-2018 Texas Instruments Incorporated
tlv.asm                                                              PAGE   11

     517            ;*
     518            ;*   Loop source line                : 138
     519            ;*   Loop closing brace source line  : 154
     520            ;*   Known Minimum Trip Count        : 1
     521            ;*   Known Maximum Trip Count        : 4294967295
     522            ;*   Known Max Trip Count Factor     : 1
     523            ;* --------------------------------------------------------------------------*
     524 000056       $C$L15:    
     525                    .dwpsn  file "../MP430DriverLib/driverlib/MSP430F5xx_6xx/tlv.c",line 140,column 13,is_stmt,isa
     526 000056 0ACE          MOVA      r10,r14               ; [] |140| 
     527 000058 531E          ADD.W     #1,r14                ; [] |140| 
     528 00005a 4E0E          MOV.W     r14,r14               ; [] |140| 
     529 00005c 1800          ADDX.A    0(SP),r14             ; [] |140| 
         00005e 515E 
         000060 0000 
     530 000062 9E68          CMP.B     @r14,r8               ; [] |140| 
     531 000064 2012          JNE       $C$L17                ; [] |140| 
     532                                                      ; [] |140| 
     533            ;* --------------------------------------------------------------------------*
     534                    .dwpsn  file "../MP430DriverLib/driverlib/MSP430F5xx_6xx/tlv.c",line 143,column 17,is_stmt,isa
     535 000066 9349          TST.B     r9                    ; [] |143| 
     536 000068 200F          JNE       $C$L16                ; [] |143| 
     537                                                      ; [] |143| 
     538            ;* --------------------------------------------------------------------------*
     539                    .dwpsn  file "../MP430DriverLib/driverlib/MSP430F5xx_6xx/tlv.c",line 151,column 21,is_stmt,isa
     540 00006a 4A0F          MOV.W     r10,r15               ; [] |151| 
     541 00006c 1800          ADDX.A    0(SP),r15             ; [] |151| 
         00006e 515F 
         000070 0000 
     542 000072 4F6F          MOV.B     @r15,r15              ; [] |151| 
     543 000074 531A          ADD.W     #1,r10                ; [] |151| 
     544 000076 4A0E          MOV.W     r10,r14               ; [] |151| 
     545 000078 1800          ADDX.A    0(SP),r14             ; [] |151| 
         00007a 515E 
         00007c 0000 
     546 00007e 4E6C          MOV.B     @r14,r12              ; [] |151| 
     547 000080 1847          RPT #8 || RLAX.W r12 ; [] |151| 
         000082 5C0C 
     548 000084 DF0C          OR.W      r15,r12               ; [] |151| 
     549 000086 3C05          JMP       $C$L19                ; [] |151| 
     550                                                      ; [] |151| 
     551            ;* --------------------------------------------------------------------------*
     552 000088       $C$L16:    
     553                    .dwpsn  file "../MP430DriverLib/driverlib/MSP430F5xx_6xx/tlv.c",line 146,column 21,is_stmt,isa
     554 000088 8359          SUB.B     #1,r9                 ; [] |146| 
     555            ;* --------------------------------------------------------------------------*
     556 00008a       $C$L17:    
     557                    .dwpsn  file "../MP430DriverLib/driverlib/MSP430F5xx_6xx/tlv.c",line 138,column 25,is_stmt,isa
     558 00008a 532A          ADD.W     #2,r10                ; [] |138| 
     559 00008c 9A0F          CMP.W     r10,r15               ; [] |138| 
     560 00008e 2FE3          JHS       $C$L15                ; [] |138| 
     561                                                      ; [] |138| 
     562            ;* --------------------------------------------------------------------------*
     563 000090       $C$L18:    
     564                    .dwpsn  file "../MP430DriverLib/driverlib/MSP430F5xx_6xx/tlv.c",line 158,column 5,is_stmt,isa 
MSP430 Assembler PC v21.6.1 Tue Dec 20 13:45:53 2022

Copyright (c) 2003-2018 Texas Instruments Incorporated
tlv.asm                                                              PAGE   12

     565 000090 430C          MOV.W     #0,r12                ; [] |158| 
     566            ;* --------------------------------------------------------------------------*
     567 000092       $C$L19:    
     568                    .dwpsn  file "../MP430DriverLib/driverlib/MSP430F5xx_6xx/tlv.c",line 159,column 1,is_stmt,isa 
     569 000092 00A1          ADDA      #6,SP                 ; [] 
         000094 0006 
     570                    .dwcfi  cfa_offset, 16
     571 000096 1628          POPM.A    #3,r10                ; [] 
     572                    .dwcfi  restore_reg, 8
     573                    .dwcfi  restore_reg, 9
     574                    .dwcfi  restore_reg, 10
     575                    .dwcfi  cfa_offset, 4
     576            $C$DW$31        .dwtag  DW_TAG_TI_branch
     577                    .dwattr $C$DW$31, DW_AT_low_pc(0x00)
     578                    .dwattr $C$DW$31, DW_AT_TI_return
     579            
     580 000098 0110          RETA      ; [] 
     581                    ; [] 
     582                    .dwattr $C$DW$20, DW_AT_TI_end_file("../MP430DriverLib/driverlib/MSP430F5xx_6xx/tlv.c")
     583                    .dwattr $C$DW$20, DW_AT_TI_end_line(0x9f)
     584                    .dwattr $C$DW$20, DW_AT_TI_end_column(0x01)
     585                    .dwendentry
     586                    .dwendtag $C$DW$20
     587            
     588 000000               .sect   ".text:TLV_getInterrupt"
     589                    .clink
     590                    .global TLV_getInterrupt
     591            
     592            $C$DW$32        .dwtag  DW_TAG_subprogram
     593                    .dwattr $C$DW$32, DW_AT_name("TLV_getInterrupt")
     594                    .dwattr $C$DW$32, DW_AT_low_pc(TLV_getInterrupt)
     595                    .dwattr $C$DW$32, DW_AT_high_pc(0x00)
     596                    .dwattr $C$DW$32, DW_AT_TI_symbol_name("TLV_getInterrupt")
     597                    .dwattr $C$DW$32, DW_AT_external
     598                    .dwattr $C$DW$32, DW_AT_type(*$C$DW$T$35)
     599                    .dwattr $C$DW$32, DW_AT_TI_begin_file("../MP430DriverLib/driverlib/MSP430F5xx_6xx/tlv.c")
     600                    .dwattr $C$DW$32, DW_AT_TI_begin_line(0xa1)
     601                    .dwattr $C$DW$32, DW_AT_TI_begin_column(0x09)
     602                    .dwattr $C$DW$32, DW_AT_decl_file("../MP430DriverLib/driverlib/MSP430F5xx_6xx/tlv.c")
     603                    .dwattr $C$DW$32, DW_AT_decl_line(0xa1)
     604                    .dwattr $C$DW$32, DW_AT_decl_column(0x09)
     605                    .dwattr $C$DW$32, DW_AT_TI_max_frame_size(0x12)
     606                    .dwpsn  file "../MP430DriverLib/driverlib/MSP430F5xx_6xx/tlv.c",line 162,column 1,is_stmt,addr
     607            
     608                    .dwfde $C$DW$CIE, TLV_getInterrupt
     609            $C$DW$33        .dwtag  DW_TAG_formal_parameter
     610                    .dwattr $C$DW$33, DW_AT_name("tag")
     611                    .dwattr $C$DW$33, DW_AT_TI_symbol_name("tag")
     612                    .dwattr $C$DW$33, DW_AT_type(*$C$DW$T$35)
     613                    .dwattr $C$DW$33, DW_AT_location[DW_OP_reg12]
     614            
     615            
     616            ;*****************************************************************************
     617            ;* FUNCTION NAME: TLV_getInterrupt                                           *
     618            ;*                                                                           *
MSP430 Assembler PC v21.6.1 Tue Dec 20 13:45:53 2022

Copyright (c) 2003-2018 Texas Instruments Incorporated
tlv.asm                                                              PAGE   13

     619            ;*   Regs Modified     : SP,SR,r9,r10,r11,r12,r13,r14,r15                    *
     620            ;*   Regs Used         : SP,SR,r9,r10,r11,r12,r13,r14,r15                    *
     621            ;*   Local Frame Size  : 0 Args + 6 Auto + 8 Save = 14 byte                  *
     622            ;*****************************************************************************
     623 000000       TLV_getInterrupt:
     624            ;* --------------------------------------------------------------------------*
     625                    .dwcfi  cfa_offset, 4
     626                    .dwcfi  save_reg_to_mem, 16, -4
     627 000000 141A          PUSHM.A   #2,r10                ; [] 
     628                    .dwcfi  save_reg_to_mem, 10, -8
     629                    .dwcfi  save_reg_to_mem, 9, -12
     630                    .dwcfi  cfa_offset, 12
     631 000002 00B1          SUBA      #6,SP                 ; [] 
         000004 0006 
     632                    .dwcfi  cfa_offset, 18
     633            $C$DW$34        .dwtag  DW_TAG_variable
     634                    .dwattr $C$DW$34, DW_AT_name("pPDTAG")
     635                    .dwattr $C$DW$34, DW_AT_TI_symbol_name("pPDTAG")
     636                    .dwattr $C$DW$34, DW_AT_type(*$C$DW$T$36)
     637                    .dwattr $C$DW$34, DW_AT_location[DW_OP_breg1 0]
     638            
     639            $C$DW$35        .dwtag  DW_TAG_variable
     640                    .dwattr $C$DW$35, DW_AT_name("bPDTAG_bytes")
     641                    .dwattr $C$DW$35, DW_AT_TI_symbol_name("bPDTAG_bytes")
     642                    .dwattr $C$DW$35, DW_AT_type(*$C$DW$T$35)
     643                    .dwattr $C$DW$35, DW_AT_location[DW_OP_breg1 4]
     644            
     645            ;* r9    assigned to tag
     646            $C$DW$36        .dwtag  DW_TAG_variable
     647                    .dwattr $C$DW$36, DW_AT_name("tag")
     648                    .dwattr $C$DW$36, DW_AT_TI_symbol_name("tag")
     649                    .dwattr $C$DW$36, DW_AT_type(*$C$DW$T$35)
     650                    .dwattr $C$DW$36, DW_AT_location[DW_OP_reg9]
     651            
     652            ;* r10   assigned to count
     653            $C$DW$37        .dwtag  DW_TAG_variable
     654                    .dwattr $C$DW$37, DW_AT_name("count")
     655                    .dwattr $C$DW$37, DW_AT_TI_symbol_name("count")
     656                    .dwattr $C$DW$37, DW_AT_type(*$C$DW$T$23)
     657                    .dwattr $C$DW$37, DW_AT_location[DW_OP_reg10]
     658            
     659            ;* r15   assigned to pcount
     660            $C$DW$38        .dwtag  DW_TAG_variable
     661                    .dwattr $C$DW$38, DW_AT_name("pcount")
     662                    .dwattr $C$DW$38, DW_AT_TI_symbol_name("pcount")
     663                    .dwattr $C$DW$38, DW_AT_type(*$C$DW$T$23)
     664                    .dwattr $C$DW$38, DW_AT_location[DW_OP_reg15]
     665            
     666 000006 0CC9          MOVA      r12,r9                ; [] |162| 
     667                    .dwpsn  file "../MP430DriverLib/driverlib/MSP430F5xx_6xx/tlv.c",line 165,column 20,is_stmt,isa
     668 000008 430A          MOV.W     #0,r10                ; [] |165| 
     669                    .dwpsn  file "../MP430DriverLib/driverlib/MSP430F5xx_6xx/tlv.c",line 169,column 5,is_stmt,isa 
     670 00000a 436C          MOV.B     #2,r12                ; [] |169| 
     671 00000c 434D          MOV.B     #0,r13                ; [] |169| 
     672 00000e 01CE          MOVX.A    SP,r14                ; [] |169| 
MSP430 Assembler PC v21.6.1 Tue Dec 20 13:45:53 2022

Copyright (c) 2003-2018 Texas Instruments Incorporated
tlv.asm                                                              PAGE   14

     673 000010 00AE          ADDX.A    #4,r14                ; [] |169| 
         000012 0004 
     674 000014 01CF          MOVX.A    SP,r15                ; [] |169| 
     675            $C$DW$39        .dwtag  DW_TAG_TI_branch
     676                    .dwattr $C$DW$39, DW_AT_low_pc(0x00)
     677                    .dwattr $C$DW$39, DW_AT_name("TLV_getInfo")
     678                    .dwattr $C$DW$39, DW_AT_TI_call
     679            
     680 000016 13B0!         CALLA     #TLV_getInfo          ; [] |169| 
         000018 0000 
     681                                                      ; [] |169| 
     682                    .dwpsn  file "../MP430DriverLib/driverlib/MSP430F5xx_6xx/tlv.c",line 174,column 5,is_stmt,isa 
     683 00001a 1800          TSTX.A    0(SP)                 ; [] |174| 
         00001c 93C1 
         00001e 0000 
     684 000020 2430          JEQ       $C$L25                ; [] |174| 
     685                                                      ; [] |174| 
     686            ;* --------------------------------------------------------------------------*
     687                    .dwpsn  file "../MP430DriverLib/driverlib/MSP430F5xx_6xx/tlv.c",line 177,column 9,is_stmt,isa 
     688 000022 3C01          JMP       $C$L21                ; [] |177| 
     689                                                      ; [] |177| 
     690            ;* --------------------------------------------------------------------------*
     691 000024       $C$L20:    
     692                    .dwpsn  file "../MP430DriverLib/driverlib/MSP430F5xx_6xx/tlv.c",line 179,column 13,is_stmt,isa
     693 000024 531A          ADD.W     #1,r10                ; [] |179| 
     694            ;* --------------------------------------------------------------------------*
     695            ;*   BEGIN LOOP $C$L21
     696            ;* --------------------------------------------------------------------------*
     697 000026       $C$L21:    
     698                    .dwpsn  file "../MP430DriverLib/driverlib/MSP430F5xx_6xx/tlv.c",line 180,column 9,is_stmt,isa 
     699 000026 4A4C          MOV.B     r10,r12               ; [] |180| 
     700            $C$DW$40        .dwtag  DW_TAG_TI_branch
     701                    .dwattr $C$DW$40, DW_AT_low_pc(0x00)
     702                    .dwattr $C$DW$40, DW_AT_name("TLV_getMemory")
     703                    .dwattr $C$DW$40, DW_AT_TI_call
     704            
     705 000028 13B0!         CALLA     #TLV_getMemory        ; [] |180| 
         00002a 0000 
     706                                                      ; [] |180| 
     707 00002c 930C          TST.W     r12                   ; [] |180| 
     708 00002e 23FA          JNE       $C$L20                ; [] |180| 
     709                                                      ; [] |180| 
     710            ;* --------------------------------------------------------------------------*
     711                    .dwpsn  file "../MP430DriverLib/driverlib/MSP430F5xx_6xx/tlv.c",line 182,column 9,is_stmt,isa 
     712 000030 0ACF          MOVA      r10,r15               ; [] |182| 
     713 000032 025F          RLAM.W    #1,r15                ; [] |182| 
     714 000034 531F          ADD.W     #1,r15                ; [] |182| 
     715 000036 4F0F          MOV.W     r15,r15               ; [] |182| 
     716 000038 1800          ADDX.A    0(SP),r15             ; [] |182| 
         00003a 515F 
         00003c 0000 
     717 00003e 4F6F          MOV.B     @r15,r15              ; [] |182| 
     718                    .dwpsn  file "../MP430DriverLib/driverlib/MSP430F5xx_6xx/tlv.c",line 186,column 9,is_stmt,isa 
     719 000040 531A          ADD.W     #1,r10                ; [] |186| 
     720 000042 5A0F          ADD.W     r10,r15               ; [] |186| 
MSP430 Assembler PC v21.6.1 Tue Dec 20 13:45:53 2022

Copyright (c) 2003-2018 Texas Instruments Incorporated
tlv.asm                                                              PAGE   15

     721 000044 025F          RLAM.W    #1,r15                ; [] |186| 
     722 000046 4F0F          MOV.W     r15,r15               ; [] |186| 
     723 000048 1800          ADDX.A    r15,0(SP)             ; [] |186| 
         00004a 5FC1 
         00004c 0000 
     724                    .dwpsn  file "../MP430DriverLib/driverlib/MSP430F5xx_6xx/tlv.c",line 191,column 25,is_stmt,isa
     725 00004e 430A          MOV.W     #0,r10                ; [] |191| 
     726 000050 494F          MOV.B     r9,r15                ; [] |191| 
     727 000052 9A0F          CMP.W     r10,r15               ; [] |191| 
     728 000054 2816          JLO       $C$L25                ; [] |191| 
     729                                                      ; [] |191| 
     730            ;* --------------------------------------------------------------------------*
     731            ;*   BEGIN LOOP $C$L22
     732            ;*
     733            ;*   Loop source line                : 191
     734            ;*   Loop closing brace source line  : 203
     735            ;*   Known Minimum Trip Count        : 1
     736            ;*   Known Maximum Trip Count        : 4294967295
     737            ;*   Known Max Trip Count Factor     : 1
     738            ;* --------------------------------------------------------------------------*
     739 000056       $C$L22:    
     740                    .dwpsn  file "../MP430DriverLib/driverlib/MSP430F5xx_6xx/tlv.c",line 193,column 13,is_stmt,isa
     741 000056 4A0F          MOV.W     r10,r15               ; [] |193| 
     742 000058 1800          ADDX.A    0(SP),r15             ; [] |193| 
         00005a 515F 
         00005c 0000 
     743 00005e 93CF          TST.B     0(r15)                ; [] |193| 
         000060 0000 
     744 000062 2002          JNE       $C$L23                ; [] |193| 
     745                                                      ; [] |193| 
     746            ;* --------------------------------------------------------------------------*
     747                    .dwpsn  file "../MP430DriverLib/driverlib/MSP430F5xx_6xx/tlv.c",line 196,column 17,is_stmt,isa
     748 000064 434C          MOV.B     #0,r12                ; [] |196| 
     749 000066 3C0E          JMP       $C$L26                ; [] |196| 
     750                                                      ; [] |196| 
     751            ;* --------------------------------------------------------------------------*
     752 000068       $C$L23:    
     753                    .dwpsn  file "../MP430DriverLib/driverlib/MSP430F5xx_6xx/tlv.c",line 198,column 13,is_stmt,isa
     754 000068 494F          MOV.B     r9,r15                ; [] |198| 
     755 00006a 9F0A          CMP.W     r15,r10               ; [] |198| 
     756 00006c 2006          JNE       $C$L24                ; [] |198| 
     757                                                      ; [] |198| 
     758            ;* --------------------------------------------------------------------------*
     759                    .dwpsn  file "../MP430DriverLib/driverlib/MSP430F5xx_6xx/tlv.c",line 201,column 17,is_stmt,isa
     760 00006e 4A0F          MOV.W     r10,r15               ; [] |201| 
     761 000070 1800          ADDX.A    0(SP),r15             ; [] |201| 
         000072 515F 
         000074 0000 
     762 000076 4F6C          MOV.B     @r15,r12              ; [] |201| 
     763 000078 3C05          JMP       $C$L26                ; [] |201| 
     764                                                      ; [] |201| 
     765            ;* --------------------------------------------------------------------------*
     766 00007a       $C$L24:    
     767                    .dwpsn  file "../MP430DriverLib/driverlib/MSP430F5xx_6xx/tlv.c",line 191,column 25,is_stmt,isa
     768 00007a 532A          ADD.W     #2,r10                ; [] |191| 
MSP430 Assembler PC v21.6.1 Tue Dec 20 13:45:53 2022

Copyright (c) 2003-2018 Texas Instruments Incorporated
tlv.asm                                                              PAGE   16

     769 00007c 494F          MOV.B     r9,r15                ; [] |191| 
     770 00007e 9A0F          CMP.W     r10,r15               ; [] |191| 
     771 000080 2FEA          JHS       $C$L22                ; [] |191| 
     772                                                      ; [] |191| 
     773            ;* --------------------------------------------------------------------------*
     774 000082       $C$L25:    
     775                    .dwpsn  file "../MP430DriverLib/driverlib/MSP430F5xx_6xx/tlv.c",line 207,column 5,is_stmt,isa 
     776 000082 434C          MOV.B     #0,r12                ; [] |207| 
     777            ;* --------------------------------------------------------------------------*
     778 000084       $C$L26:    
     779                    .dwpsn  file "../MP430DriverLib/driverlib/MSP430F5xx_6xx/tlv.c",line 208,column 1,is_stmt,isa 
     780 000084 00A1          ADDA      #6,SP                 ; [] 
         000086 0006 
     781                    .dwcfi  cfa_offset, 12
     782 000088 1619          POPM.A    #2,r10                ; [] 
     783                    .dwcfi  restore_reg, 9
     784                    .dwcfi  restore_reg, 10
     785                    .dwcfi  cfa_offset, 4
     786            $C$DW$41        .dwtag  DW_TAG_TI_branch
     787                    .dwattr $C$DW$41, DW_AT_low_pc(0x00)
     788                    .dwattr $C$DW$41, DW_AT_TI_return
     789            
     790 00008a 0110          RETA      ; [] 
     791                    ; [] 
     792                    .dwattr $C$DW$32, DW_AT_TI_end_file("../MP430DriverLib/driverlib/MSP430F5xx_6xx/tlv.c")
     793                    .dwattr $C$DW$32, DW_AT_TI_end_line(0xd0)
     794                    .dwattr $C$DW$32, DW_AT_TI_end_column(0x01)
     795                    .dwendentry
     796                    .dwendtag $C$DW$32
     797            
     798 000000               .sect   ".text:TLV_getDeviceType"
     799                    .clink
     800                    .global TLV_getDeviceType
     801            
     802            $C$DW$42        .dwtag  DW_TAG_subprogram
     803                    .dwattr $C$DW$42, DW_AT_name("TLV_getDeviceType")
     804                    .dwattr $C$DW$42, DW_AT_low_pc(TLV_getDeviceType)
     805                    .dwattr $C$DW$42, DW_AT_high_pc(0x00)
     806                    .dwattr $C$DW$42, DW_AT_TI_symbol_name("TLV_getDeviceType")
     807                    .dwattr $C$DW$42, DW_AT_external
     808                    .dwattr $C$DW$42, DW_AT_type(*$C$DW$T$23)
     809                    .dwattr $C$DW$42, DW_AT_TI_begin_file("../MP430DriverLib/driverlib/MSP430F5xx_6xx/tlv.c")
     810                    .dwattr $C$DW$42, DW_AT_TI_begin_line(0x3d)
     811                    .dwattr $C$DW$42, DW_AT_TI_begin_column(0x0a)
     812                    .dwattr $C$DW$42, DW_AT_decl_file("../MP430DriverLib/driverlib/MSP430F5xx_6xx/tlv.c")
     813                    .dwattr $C$DW$42, DW_AT_decl_line(0x3d)
     814                    .dwattr $C$DW$42, DW_AT_decl_column(0x0a)
     815                    .dwattr $C$DW$42, DW_AT_TI_max_frame_size(0x04)
     816                    .dwpsn  file "../MP430DriverLib/driverlib/MSP430F5xx_6xx/tlv.c",line 62,column 1,is_stmt,addre
     817            
     818                    .dwfde $C$DW$CIE, TLV_getDeviceType
     819            
     820            ;*****************************************************************************
     821            ;* FUNCTION NAME: TLV_getDeviceType                                          *
     822            ;*                                                                           *
MSP430 Assembler PC v21.6.1 Tue Dec 20 13:45:53 2022

Copyright (c) 2003-2018 Texas Instruments Incorporated
tlv.asm                                                              PAGE   17

     823            ;*   Regs Modified     : SP,r12,r15                                          *
     824            ;*   Regs Used         : SP,r12,r15                                          *
     825            ;*   Local Frame Size  : 0 Args + 0 Auto + 0 Save = 0 byte                   *
     826            ;*****************************************************************************
     827 000000       TLV_getDeviceType:
     828            ;* --------------------------------------------------------------------------*
     829                    .dwcfi  cfa_offset, 4
     830                    .dwcfi  save_reg_to_mem, 16, -4
     831            ;* r15   assigned to pDeviceType
     832            $C$DW$43        .dwtag  DW_TAG_variable
     833                    .dwattr $C$DW$43, DW_AT_name("pDeviceType")
     834                    .dwattr $C$DW$43, DW_AT_TI_symbol_name("pDeviceType")
     835                    .dwattr $C$DW$43, DW_AT_type(*$C$DW$T$37)
     836                    .dwattr $C$DW$43, DW_AT_location[DW_OP_reg15]
     837            
     838                    .dwpsn  file "../MP430DriverLib/driverlib/MSP430F5xx_6xx/tlv.c",line 65,column 5,is_stmt,isa 0
     839 000000 403F          MOV.W     #6660,r15             ; [] |65| 
         000002 1A04 
     840 000004 4F2C          MOV.W     @r15,r12              ; [] |65| 
     841                    .dwpsn  file "../MP430DriverLib/driverlib/MSP430F5xx_6xx/tlv.c",line 66,column 1,is_stmt,isa 0
     842            $C$DW$44        .dwtag  DW_TAG_TI_branch
     843                    .dwattr $C$DW$44, DW_AT_low_pc(0x00)
     844                    .dwattr $C$DW$44, DW_AT_TI_return
     845            
     846 000006 0110          RETA      ; [] 
     847                    ; [] 
     848                    .dwattr $C$DW$42, DW_AT_TI_end_file("../MP430DriverLib/driverlib/MSP430F5xx_6xx/tlv.c")
     849                    .dwattr $C$DW$42, DW_AT_TI_end_line(0x42)
     850                    .dwattr $C$DW$42, DW_AT_TI_end_column(0x01)
     851                    .dwendentry
     852                    .dwendtag $C$DW$42
     853            
     854            
     855            ;******************************************************************************
     856            ;* BUILD ATTRIBUTES                                                           *
     857            ;******************************************************************************
     858                    .battr "TI", Tag_File, 1, Tag_LPM_INFO(1)
     859                    .battr "TI", Tag_File, 1, Tag_PORTS_INIT_INFO("012345678901ABCDEFGHIJ0000000000001111110000000
     860                    .battr "TI", Tag_File, 1, Tag_LEA_INFO(1)
     861                    .battr "TI", Tag_File, 1, Tag_HW_MPY32_INFO(2)
     862                    .battr "TI", Tag_File, 1, Tag_HW_MPY_ISR_INFO(1)
     863                    .battr "TI", Tag_File, 1, Tag_HW_MPY_INLINE_INFO(1)
     864                    .battr "mspabi", Tag_File, 1, Tag_enum_size(3)
     865            
     866            ;******************************************************************************
     867            ;* TYPE INFORMATION                                                           *
     868            ;******************************************************************************
     869            
     870            $C$DW$T$21      .dwtag  DW_TAG_structure_type
     871                    .dwattr $C$DW$T$21, DW_AT_byte_size(0x10)
     872            $C$DW$45        .dwtag  DW_TAG_member
     873                    .dwattr $C$DW$45, DW_AT_type(*$C$DW$T$14)
     874                    .dwattr $C$DW$45, DW_AT_name("__max_align1")
     875                    .dwattr $C$DW$45, DW_AT_TI_symbol_name("__max_align1")
     876                    .dwattr $C$DW$45, DW_AT_data_member_location[DW_OP_plus_uconst 0x0]
MSP430 Assembler PC v21.6.1 Tue Dec 20 13:45:53 2022

Copyright (c) 2003-2018 Texas Instruments Incorporated
tlv.asm                                                              PAGE   18

     877                    .dwattr $C$DW$45, DW_AT_accessibility(DW_ACCESS_public)
     878                    .dwattr $C$DW$45, DW_AT_decl_file("C:/ti/ccs1110/ccs/tools/compiler/ti-cgt-msp430_21.6.1.LTS/i
     879                    .dwattr $C$DW$45, DW_AT_decl_line(0x7b)
     880                    .dwattr $C$DW$45, DW_AT_decl_column(0x0c)
     881            
     882            $C$DW$46        .dwtag  DW_TAG_member
     883                    .dwattr $C$DW$46, DW_AT_type(*$C$DW$T$18)
     884                    .dwattr $C$DW$46, DW_AT_name("__max_align2")
     885                    .dwattr $C$DW$46, DW_AT_TI_symbol_name("__max_align2")
     886                    .dwattr $C$DW$46, DW_AT_data_member_location[DW_OP_plus_uconst 0x8]
     887                    .dwattr $C$DW$46, DW_AT_accessibility(DW_ACCESS_public)
     888                    .dwattr $C$DW$46, DW_AT_decl_file("C:/ti/ccs1110/ccs/tools/compiler/ti-cgt-msp430_21.6.1.LTS/i
     889                    .dwattr $C$DW$46, DW_AT_decl_line(0x7c)
     890                    .dwattr $C$DW$46, DW_AT_decl_column(0x0e)
     891            
     892                    .dwattr $C$DW$T$21, DW_AT_decl_file("C:/ti/ccs1110/ccs/tools/compiler/ti-cgt-msp430_21.6.1.LTS
     893                    .dwattr $C$DW$T$21, DW_AT_decl_line(0x7a)
     894                    .dwattr $C$DW$T$21, DW_AT_decl_column(0x10)
     895                    .dwendtag $C$DW$T$21
     896            
     897            $C$DW$T$33      .dwtag  DW_TAG_typedef
     898                    .dwattr $C$DW$T$33, DW_AT_name("__max_align_t")
     899                    .dwattr $C$DW$T$33, DW_AT_type(*$C$DW$T$21)
     900                    .dwattr $C$DW$T$33, DW_AT_language(DW_LANG_C)
     901                    .dwattr $C$DW$T$33, DW_AT_decl_file("C:/ti/ccs1110/ccs/tools/compiler/ti-cgt-msp430_21.6.1.LTS
     902                    .dwattr $C$DW$T$33, DW_AT_decl_line(0x7d)
     903                    .dwattr $C$DW$T$33, DW_AT_decl_column(0x03)
     904            
     905            $C$DW$T$2       .dwtag  DW_TAG_unspecified_type
     906                    .dwattr $C$DW$T$2, DW_AT_name("void")
     907            
     908            
     909            $C$DW$T$41      .dwtag  DW_TAG_subroutine_type
     910                    .dwattr $C$DW$T$41, DW_AT_language(DW_LANG_C)
     911                    .dwendtag $C$DW$T$41
     912            
     913            $C$DW$T$42      .dwtag  DW_TAG_pointer_type
     914                    .dwattr $C$DW$T$42, DW_AT_type(*$C$DW$T$41)
     915                    .dwattr $C$DW$T$42, DW_AT_address_class(0x14)
     916            
     917            $C$DW$T$43      .dwtag  DW_TAG_typedef
     918                    .dwattr $C$DW$T$43, DW_AT_name("__SFR_FARPTR")
     919                    .dwattr $C$DW$T$43, DW_AT_type(*$C$DW$T$42)
     920                    .dwattr $C$DW$T$43, DW_AT_language(DW_LANG_C)
     921                    .dwattr $C$DW$T$43, DW_AT_decl_file("C:\ti\ccs1110\ccs\ccs_base\msp430\include\msp430f5438a.h"
     922                    .dwattr $C$DW$T$43, DW_AT_decl_line(0x49)
     923                    .dwattr $C$DW$T$43, DW_AT_decl_column(0x11)
     924            
     925            $C$DW$T$4       .dwtag  DW_TAG_base_type
     926                    .dwattr $C$DW$T$4, DW_AT_encoding(DW_ATE_boolean)
     927                    .dwattr $C$DW$T$4, DW_AT_name("bool")
     928                    .dwattr $C$DW$T$4, DW_AT_byte_size(0x01)
     929            
     930            $C$DW$T$5       .dwtag  DW_TAG_base_type
     931                    .dwattr $C$DW$T$5, DW_AT_encoding(DW_ATE_signed_char)
MSP430 Assembler PC v21.6.1 Tue Dec 20 13:45:53 2022

Copyright (c) 2003-2018 Texas Instruments Incorporated
tlv.asm                                                              PAGE   19

     932                    .dwattr $C$DW$T$5, DW_AT_name("signed char")
     933                    .dwattr $C$DW$T$5, DW_AT_byte_size(0x01)
     934            
     935            $C$DW$T$44      .dwtag  DW_TAG_typedef
     936                    .dwattr $C$DW$T$44, DW_AT_name("__int8_t")
     937                    .dwattr $C$DW$T$44, DW_AT_type(*$C$DW$T$5)
     938                    .dwattr $C$DW$T$44, DW_AT_language(DW_LANG_C)
     939                    .dwattr $C$DW$T$44, DW_AT_decl_file("C:/ti/ccs1110/ccs/tools/compiler/ti-cgt-msp430_21.6.1.LTS
     940                    .dwattr $C$DW$T$44, DW_AT_decl_line(0x36)
     941                    .dwattr $C$DW$T$44, DW_AT_decl_column(0x16)
     942            
     943            $C$DW$T$45      .dwtag  DW_TAG_typedef
     944                    .dwattr $C$DW$T$45, DW_AT_name("__int_least8_t")
     945                    .dwattr $C$DW$T$45, DW_AT_type(*$C$DW$T$44)
     946                    .dwattr $C$DW$T$45, DW_AT_language(DW_LANG_C)
     947                    .dwattr $C$DW$T$45, DW_AT_decl_file("C:/ti/ccs1110/ccs/tools/compiler/ti-cgt-msp430_21.6.1.LTS
     948                    .dwattr $C$DW$T$45, DW_AT_decl_line(0x5a)
     949                    .dwattr $C$DW$T$45, DW_AT_decl_column(0x12)
     950            
     951            $C$DW$T$46      .dwtag  DW_TAG_typedef
     952                    .dwattr $C$DW$T$46, DW_AT_name("int_least8_t")
     953                    .dwattr $C$DW$T$46, DW_AT_type(*$C$DW$T$45)
     954                    .dwattr $C$DW$T$46, DW_AT_language(DW_LANG_C)
     955                    .dwattr $C$DW$T$46, DW_AT_decl_file("C:/ti/ccs1110/ccs/tools/compiler/ti-cgt-msp430_21.6.1.LTS
     956                    .dwattr $C$DW$T$46, DW_AT_decl_line(0x2a)
     957                    .dwattr $C$DW$T$46, DW_AT_decl_column(0x19)
     958            
     959            $C$DW$T$47      .dwtag  DW_TAG_typedef
     960                    .dwattr $C$DW$T$47, DW_AT_name("int8_t")
     961                    .dwattr $C$DW$T$47, DW_AT_type(*$C$DW$T$44)
     962                    .dwattr $C$DW$T$47, DW_AT_language(DW_LANG_C)
     963                    .dwattr $C$DW$T$47, DW_AT_decl_file("C:/ti/ccs1110/ccs/tools/compiler/ti-cgt-msp430_21.6.1.LTS
     964                    .dwattr $C$DW$T$47, DW_AT_decl_line(0x25)
     965                    .dwattr $C$DW$T$47, DW_AT_decl_column(0x13)
     966            
     967            $C$DW$T$6       .dwtag  DW_TAG_base_type
     968                    .dwattr $C$DW$T$6, DW_AT_encoding(DW_ATE_unsigned_char)
     969                    .dwattr $C$DW$T$6, DW_AT_name("unsigned char")
     970                    .dwattr $C$DW$T$6, DW_AT_byte_size(0x01)
     971            
     972            $C$DW$T$34      .dwtag  DW_TAG_typedef
     973                    .dwattr $C$DW$T$34, DW_AT_name("__uint8_t")
     974                    .dwattr $C$DW$T$34, DW_AT_type(*$C$DW$T$6)
     975                    .dwattr $C$DW$T$34, DW_AT_language(DW_LANG_C)
     976                    .dwattr $C$DW$T$34, DW_AT_decl_file("C:/ti/ccs1110/ccs/tools/compiler/ti-cgt-msp430_21.6.1.LTS
     977                    .dwattr $C$DW$T$34, DW_AT_decl_line(0x37)
     978                    .dwattr $C$DW$T$34, DW_AT_decl_column(0x18)
     979            
     980            $C$DW$T$51      .dwtag  DW_TAG_typedef
     981                    .dwattr $C$DW$T$51, DW_AT_name("__sa_family_t")
     982                    .dwattr $C$DW$T$51, DW_AT_type(*$C$DW$T$34)
     983                    .dwattr $C$DW$T$51, DW_AT_language(DW_LANG_C)
     984                    .dwattr $C$DW$T$51, DW_AT_decl_file("C:/ti/ccs1110/ccs/tools/compiler/ti-cgt-msp430_21.6.1.LTS
     985                    .dwattr $C$DW$T$51, DW_AT_decl_line(0x47)
     986                    .dwattr $C$DW$T$51, DW_AT_decl_column(0x13)
MSP430 Assembler PC v21.6.1 Tue Dec 20 13:45:53 2022

Copyright (c) 2003-2018 Texas Instruments Incorporated
tlv.asm                                                              PAGE   20

     987            
     988            $C$DW$T$52      .dwtag  DW_TAG_typedef
     989                    .dwattr $C$DW$T$52, DW_AT_name("__uint_least8_t")
     990                    .dwattr $C$DW$T$52, DW_AT_type(*$C$DW$T$34)
     991                    .dwattr $C$DW$T$52, DW_AT_language(DW_LANG_C)
     992                    .dwattr $C$DW$T$52, DW_AT_decl_file("C:/ti/ccs1110/ccs/tools/compiler/ti-cgt-msp430_21.6.1.LTS
     993                    .dwattr $C$DW$T$52, DW_AT_decl_line(0x74)
     994                    .dwattr $C$DW$T$52, DW_AT_decl_column(0x13)
     995            
     996            $C$DW$T$53      .dwtag  DW_TAG_typedef
     997                    .dwattr $C$DW$T$53, DW_AT_name("uint_least8_t")
     998                    .dwattr $C$DW$T$53, DW_AT_type(*$C$DW$T$52)
     999                    .dwattr $C$DW$T$53, DW_AT_language(DW_LANG_C)
    1000                    .dwattr $C$DW$T$53, DW_AT_decl_file("C:/ti/ccs1110/ccs/tools/compiler/ti-cgt-msp430_21.6.1.LTS
    1001                    .dwattr $C$DW$T$53, DW_AT_decl_line(0x2f)
    1002                    .dwattr $C$DW$T$53, DW_AT_decl_column(0x1a)
    1003            
    1004            $C$DW$T$35      .dwtag  DW_TAG_typedef
    1005                    .dwattr $C$DW$T$35, DW_AT_name("uint8_t")
    1006                    .dwattr $C$DW$T$35, DW_AT_type(*$C$DW$T$34)
    1007                    .dwattr $C$DW$T$35, DW_AT_language(DW_LANG_C)
    1008                    .dwattr $C$DW$T$35, DW_AT_decl_file("C:/ti/ccs1110/ccs/tools/compiler/ti-cgt-msp430_21.6.1.LTS
    1009                    .dwattr $C$DW$T$35, DW_AT_decl_line(0x3b)
    1010                    .dwattr $C$DW$T$35, DW_AT_decl_column(0x14)
    1011            
    1012            $C$DW$T$36      .dwtag  DW_TAG_pointer_type
    1013                    .dwattr $C$DW$T$36, DW_AT_type(*$C$DW$T$35)
    1014                    .dwattr $C$DW$T$36, DW_AT_address_class(0x14)
    1015            
    1016            $C$DW$T$7       .dwtag  DW_TAG_base_type
    1017                    .dwattr $C$DW$T$7, DW_AT_encoding(DW_ATE_signed_char)
    1018                    .dwattr $C$DW$T$7, DW_AT_name("wchar_t")
    1019                    .dwattr $C$DW$T$7, DW_AT_byte_size(0x02)
    1020            
    1021            $C$DW$T$8       .dwtag  DW_TAG_base_type
    1022                    .dwattr $C$DW$T$8, DW_AT_encoding(DW_ATE_signed)
    1023                    .dwattr $C$DW$T$8, DW_AT_name("short")
    1024                    .dwattr $C$DW$T$8, DW_AT_byte_size(0x02)
    1025            
    1026            $C$DW$T$9       .dwtag  DW_TAG_base_type
    1027                    .dwattr $C$DW$T$9, DW_AT_encoding(DW_ATE_unsigned)
    1028                    .dwattr $C$DW$T$9, DW_AT_name("unsigned short")
    1029                    .dwattr $C$DW$T$9, DW_AT_byte_size(0x02)
    1030            
    1031            $C$DW$T$10      .dwtag  DW_TAG_base_type
    1032                    .dwattr $C$DW$T$10, DW_AT_encoding(DW_ATE_signed)
    1033                    .dwattr $C$DW$T$10, DW_AT_name("int")
    1034                    .dwattr $C$DW$T$10, DW_AT_byte_size(0x02)
    1035            
    1036            $C$DW$T$55      .dwtag  DW_TAG_typedef
    1037                    .dwattr $C$DW$T$55, DW_AT_name("_Mbstatet")
    1038                    .dwattr $C$DW$T$55, DW_AT_type(*$C$DW$T$10)
    1039                    .dwattr $C$DW$T$55, DW_AT_language(DW_LANG_C)
    1040                    .dwattr $C$DW$T$55, DW_AT_decl_file("C:/ti/ccs1110/ccs/tools/compiler/ti-cgt-msp430_21.6.1.LTS
    1041                    .dwattr $C$DW$T$55, DW_AT_decl_line(0x8f)
MSP430 Assembler PC v21.6.1 Tue Dec 20 13:45:53 2022

Copyright (c) 2003-2018 Texas Instruments Incorporated
tlv.asm                                                              PAGE   21

    1042                    .dwattr $C$DW$T$55, DW_AT_decl_column(0x0d)
    1043            
    1044            $C$DW$T$56      .dwtag  DW_TAG_typedef
    1045                    .dwattr $C$DW$T$56, DW_AT_name("__mbstate_t")
    1046                    .dwattr $C$DW$T$56, DW_AT_type(*$C$DW$T$55)
    1047                    .dwattr $C$DW$T$56, DW_AT_language(DW_LANG_C)
    1048                    .dwattr $C$DW$T$56, DW_AT_decl_file("C:/ti/ccs1110/ccs/tools/compiler/ti-cgt-msp430_21.6.1.LTS
    1049                    .dwattr $C$DW$T$56, DW_AT_decl_line(0x92)
    1050                    .dwattr $C$DW$T$56, DW_AT_decl_column(0x13)
    1051            
    1052            $C$DW$T$57      .dwtag  DW_TAG_typedef
    1053                    .dwattr $C$DW$T$57, DW_AT_name("__accmode_t")
    1054                    .dwattr $C$DW$T$57, DW_AT_type(*$C$DW$T$10)
    1055                    .dwattr $C$DW$T$57, DW_AT_language(DW_LANG_C)
    1056                    .dwattr $C$DW$T$57, DW_AT_decl_file("C:/ti/ccs1110/ccs/tools/compiler/ti-cgt-msp430_21.6.1.LTS
    1057                    .dwattr $C$DW$T$57, DW_AT_decl_line(0x3b)
    1058                    .dwattr $C$DW$T$57, DW_AT_decl_column(0x0e)
    1059            
    1060            $C$DW$T$58      .dwtag  DW_TAG_typedef
    1061                    .dwattr $C$DW$T$58, DW_AT_name("__cpulevel_t")
    1062                    .dwattr $C$DW$T$58, DW_AT_type(*$C$DW$T$10)
    1063                    .dwattr $C$DW$T$58, DW_AT_language(DW_LANG_C)
    1064                    .dwattr $C$DW$T$58, DW_AT_decl_file("C:/ti/ccs1110/ccs/tools/compiler/ti-cgt-msp430_21.6.1.LTS
    1065                    .dwattr $C$DW$T$58, DW_AT_decl_line(0x50)
    1066                    .dwattr $C$DW$T$58, DW_AT_decl_column(0x0e)
    1067            
    1068            $C$DW$T$59      .dwtag  DW_TAG_typedef
    1069                    .dwattr $C$DW$T$59, DW_AT_name("__cpusetid_t")
    1070                    .dwattr $C$DW$T$59, DW_AT_type(*$C$DW$T$10)
    1071                    .dwattr $C$DW$T$59, DW_AT_language(DW_LANG_C)
    1072                    .dwattr $C$DW$T$59, DW_AT_decl_file("C:/ti/ccs1110/ccs/tools/compiler/ti-cgt-msp430_21.6.1.LTS
    1073                    .dwattr $C$DW$T$59, DW_AT_decl_line(0x51)
    1074                    .dwattr $C$DW$T$59, DW_AT_decl_column(0x0e)
    1075            
    1076            $C$DW$T$60      .dwtag  DW_TAG_typedef
    1077                    .dwattr $C$DW$T$60, DW_AT_name("__cpuwhich_t")
    1078                    .dwattr $C$DW$T$60, DW_AT_type(*$C$DW$T$10)
    1079                    .dwattr $C$DW$T$60, DW_AT_language(DW_LANG_C)
    1080                    .dwattr $C$DW$T$60, DW_AT_decl_file("C:/ti/ccs1110/ccs/tools/compiler/ti-cgt-msp430_21.6.1.LTS
    1081                    .dwattr $C$DW$T$60, DW_AT_decl_line(0x4f)
    1082                    .dwattr $C$DW$T$60, DW_AT_decl_column(0x0e)
    1083            
    1084            $C$DW$T$61      .dwtag  DW_TAG_typedef
    1085                    .dwattr $C$DW$T$61, DW_AT_name("__ct_rune_t")
    1086                    .dwattr $C$DW$T$61, DW_AT_type(*$C$DW$T$10)
    1087                    .dwattr $C$DW$T$61, DW_AT_language(DW_LANG_C)
    1088                    .dwattr $C$DW$T$61, DW_AT_decl_file("C:/ti/ccs1110/ccs/tools/compiler/ti-cgt-msp430_21.6.1.LTS
    1089                    .dwattr $C$DW$T$61, DW_AT_decl_line(0x69)
    1090                    .dwattr $C$DW$T$61, DW_AT_decl_column(0x0e)
    1091            
    1092            $C$DW$T$62      .dwtag  DW_TAG_typedef
    1093                    .dwattr $C$DW$T$62, DW_AT_name("__rune_t")
    1094                    .dwattr $C$DW$T$62, DW_AT_type(*$C$DW$T$61)
    1095                    .dwattr $C$DW$T$62, DW_AT_language(DW_LANG_C)
    1096                    .dwattr $C$DW$T$62, DW_AT_decl_file("C:/ti/ccs1110/ccs/tools/compiler/ti-cgt-msp430_21.6.1.LTS
MSP430 Assembler PC v21.6.1 Tue Dec 20 13:45:53 2022

Copyright (c) 2003-2018 Texas Instruments Incorporated
tlv.asm                                                              PAGE   22

    1097                    .dwattr $C$DW$T$62, DW_AT_decl_line(0x6c)
    1098                    .dwattr $C$DW$T$62, DW_AT_decl_column(0x15)
    1099            
    1100            $C$DW$T$63      .dwtag  DW_TAG_typedef
    1101                    .dwattr $C$DW$T$63, DW_AT_name("__wint_t")
    1102                    .dwattr $C$DW$T$63, DW_AT_type(*$C$DW$T$61)
    1103                    .dwattr $C$DW$T$63, DW_AT_language(DW_LANG_C)
    1104                    .dwattr $C$DW$T$63, DW_AT_decl_file("C:/ti/ccs1110/ccs/tools/compiler/ti-cgt-msp430_21.6.1.LTS
    1105                    .dwattr $C$DW$T$63, DW_AT_decl_line(0x6d)
    1106                    .dwattr $C$DW$T$63, DW_AT_decl_column(0x15)
    1107            
    1108            $C$DW$T$25      .dwtag  DW_TAG_typedef
    1109                    .dwattr $C$DW$T$25, DW_AT_name("__int16_t")
    1110                    .dwattr $C$DW$T$25, DW_AT_type(*$C$DW$T$10)
    1111                    .dwattr $C$DW$T$25, DW_AT_language(DW_LANG_C)
    1112                    .dwattr $C$DW$T$25, DW_AT_decl_file("C:/ti/ccs1110/ccs/tools/compiler/ti-cgt-msp430_21.6.1.LTS
    1113                    .dwattr $C$DW$T$25, DW_AT_decl_line(0x38)
    1114                    .dwattr $C$DW$T$25, DW_AT_decl_column(0x0f)
    1115            
    1116            $C$DW$T$64      .dwtag  DW_TAG_typedef
    1117                    .dwattr $C$DW$T$64, DW_AT_name("__int_fast16_t")
    1118                    .dwattr $C$DW$T$64, DW_AT_type(*$C$DW$T$25)
    1119                    .dwattr $C$DW$T$64, DW_AT_language(DW_LANG_C)
    1120                    .dwattr $C$DW$T$64, DW_AT_decl_file("C:/ti/ccs1110/ccs/tools/compiler/ti-cgt-msp430_21.6.1.LTS
    1121                    .dwattr $C$DW$T$64, DW_AT_decl_line(0x57)
    1122                    .dwattr $C$DW$T$64, DW_AT_decl_column(0x13)
    1123            
    1124            $C$DW$T$65      .dwtag  DW_TAG_typedef
    1125                    .dwattr $C$DW$T$65, DW_AT_name("int_fast16_t")
    1126                    .dwattr $C$DW$T$65, DW_AT_type(*$C$DW$T$64)
    1127                    .dwattr $C$DW$T$65, DW_AT_language(DW_LANG_C)
    1128                    .dwattr $C$DW$T$65, DW_AT_decl_file("C:/ti/ccs1110/ccs/tools/compiler/ti-cgt-msp430_21.6.1.LTS
    1129                    .dwattr $C$DW$T$65, DW_AT_decl_line(0x35)
    1130                    .dwattr $C$DW$T$65, DW_AT_decl_column(0x19)
    1131            
    1132            $C$DW$T$66      .dwtag  DW_TAG_typedef
    1133                    .dwattr $C$DW$T$66, DW_AT_name("__int_fast8_t")
    1134                    .dwattr $C$DW$T$66, DW_AT_type(*$C$DW$T$25)
    1135                    .dwattr $C$DW$T$66, DW_AT_language(DW_LANG_C)
    1136                    .dwattr $C$DW$T$66, DW_AT_decl_file("C:/ti/ccs1110/ccs/tools/compiler/ti-cgt-msp430_21.6.1.LTS
    1137                    .dwattr $C$DW$T$66, DW_AT_decl_line(0x56)
    1138                    .dwattr $C$DW$T$66, DW_AT_decl_column(0x13)
    1139            
    1140            $C$DW$T$67      .dwtag  DW_TAG_typedef
    1141                    .dwattr $C$DW$T$67, DW_AT_name("int_fast8_t")
    1142                    .dwattr $C$DW$T$67, DW_AT_type(*$C$DW$T$66)
    1143                    .dwattr $C$DW$T$67, DW_AT_language(DW_LANG_C)
    1144                    .dwattr $C$DW$T$67, DW_AT_decl_file("C:/ti/ccs1110/ccs/tools/compiler/ti-cgt-msp430_21.6.1.LTS
    1145                    .dwattr $C$DW$T$67, DW_AT_decl_line(0x34)
    1146                    .dwattr $C$DW$T$67, DW_AT_decl_column(0x18)
    1147            
    1148            $C$DW$T$68      .dwtag  DW_TAG_typedef
    1149                    .dwattr $C$DW$T$68, DW_AT_name("__int_least16_t")
    1150                    .dwattr $C$DW$T$68, DW_AT_type(*$C$DW$T$25)
    1151                    .dwattr $C$DW$T$68, DW_AT_language(DW_LANG_C)
MSP430 Assembler PC v21.6.1 Tue Dec 20 13:45:53 2022

Copyright (c) 2003-2018 Texas Instruments Incorporated
tlv.asm                                                              PAGE   23

    1152                    .dwattr $C$DW$T$68, DW_AT_decl_file("C:/ti/ccs1110/ccs/tools/compiler/ti-cgt-msp430_21.6.1.LTS
    1153                    .dwattr $C$DW$T$68, DW_AT_decl_line(0x5b)
    1154                    .dwattr $C$DW$T$68, DW_AT_decl_column(0x13)
    1155            
    1156            $C$DW$T$69      .dwtag  DW_TAG_typedef
    1157                    .dwattr $C$DW$T$69, DW_AT_name("int_least16_t")
    1158                    .dwattr $C$DW$T$69, DW_AT_type(*$C$DW$T$68)
    1159                    .dwattr $C$DW$T$69, DW_AT_language(DW_LANG_C)
    1160                    .dwattr $C$DW$T$69, DW_AT_decl_file("C:/ti/ccs1110/ccs/tools/compiler/ti-cgt-msp430_21.6.1.LTS
    1161                    .dwattr $C$DW$T$69, DW_AT_decl_line(0x2b)
    1162                    .dwattr $C$DW$T$69, DW_AT_decl_column(0x1a)
    1163            
    1164            $C$DW$T$70      .dwtag  DW_TAG_typedef
    1165                    .dwattr $C$DW$T$70, DW_AT_name("__register_t")
    1166                    .dwattr $C$DW$T$70, DW_AT_type(*$C$DW$T$25)
    1167                    .dwattr $C$DW$T$70, DW_AT_language(DW_LANG_C)
    1168                    .dwattr $C$DW$T$70, DW_AT_decl_file("C:/ti/ccs1110/ccs/tools/compiler/ti-cgt-msp430_21.6.1.LTS
    1169                    .dwattr $C$DW$T$70, DW_AT_decl_line(0x5f)
    1170                    .dwattr $C$DW$T$70, DW_AT_decl_column(0x13)
    1171            
    1172            $C$DW$T$26      .dwtag  DW_TAG_typedef
    1173                    .dwattr $C$DW$T$26, DW_AT_name("int16_t")
    1174                    .dwattr $C$DW$T$26, DW_AT_type(*$C$DW$T$25)
    1175                    .dwattr $C$DW$T$26, DW_AT_language(DW_LANG_C)
    1176                    .dwattr $C$DW$T$26, DW_AT_decl_file("C:/ti/ccs1110/ccs/tools/compiler/ti-cgt-msp430_21.6.1.LTS
    1177                    .dwattr $C$DW$T$26, DW_AT_decl_line(0x2b)
    1178                    .dwattr $C$DW$T$26, DW_AT_decl_column(0x14)
    1179            
    1180            $C$DW$T$71      .dwtag  DW_TAG_typedef
    1181                    .dwattr $C$DW$T$71, DW_AT_name("__nl_item")
    1182                    .dwattr $C$DW$T$71, DW_AT_type(*$C$DW$T$10)
    1183                    .dwattr $C$DW$T$71, DW_AT_language(DW_LANG_C)
    1184                    .dwattr $C$DW$T$71, DW_AT_decl_file("C:/ti/ccs1110/ccs/tools/compiler/ti-cgt-msp430_21.6.1.LTS
    1185                    .dwattr $C$DW$T$71, DW_AT_decl_line(0x3c)
    1186                    .dwattr $C$DW$T$71, DW_AT_decl_column(0x0e)
    1187            
    1188            $C$DW$T$72      .dwtag  DW_TAG_typedef
    1189                    .dwattr $C$DW$T$72, DW_AT_name("__ptrdiff_t")
    1190                    .dwattr $C$DW$T$72, DW_AT_type(*$C$DW$T$10)
    1191                    .dwattr $C$DW$T$72, DW_AT_language(DW_LANG_C)
    1192                    .dwattr $C$DW$T$72, DW_AT_decl_file("C:/ti/ccs1110/ccs/tools/compiler/ti-cgt-msp430_21.6.1.LTS
    1193                    .dwattr $C$DW$T$72, DW_AT_decl_line(0x5e)
    1194                    .dwattr $C$DW$T$72, DW_AT_decl_column(0x1c)
    1195            
    1196            $C$DW$T$11      .dwtag  DW_TAG_base_type
    1197                    .dwattr $C$DW$T$11, DW_AT_encoding(DW_ATE_unsigned)
    1198                    .dwattr $C$DW$T$11, DW_AT_name("unsigned int")
    1199                    .dwattr $C$DW$T$11, DW_AT_byte_size(0x02)
    1200            
    1201            $C$DW$T$73      .dwtag  DW_TAG_typedef
    1202                    .dwattr $C$DW$T$73, DW_AT_name("___wchar_t")
    1203                    .dwattr $C$DW$T$73, DW_AT_type(*$C$DW$T$11)
    1204                    .dwattr $C$DW$T$73, DW_AT_language(DW_LANG_C)
    1205                    .dwattr $C$DW$T$73, DW_AT_decl_file("C:/ti/ccs1110/ccs/tools/compiler/ti-cgt-msp430_21.6.1.LTS
    1206                    .dwattr $C$DW$T$73, DW_AT_decl_line(0x7d)
MSP430 Assembler PC v21.6.1 Tue Dec 20 13:45:53 2022

Copyright (c) 2003-2018 Texas Instruments Incorporated
tlv.asm                                                              PAGE   24

    1207                    .dwattr $C$DW$T$73, DW_AT_decl_column(0x1a)
    1208            
    1209            $C$DW$T$80      .dwtag  DW_TAG_typedef
    1210                    .dwattr $C$DW$T$80, DW_AT_name("__size_t")
    1211                    .dwattr $C$DW$T$80, DW_AT_type(*$C$DW$T$11)
    1212                    .dwattr $C$DW$T$80, DW_AT_language(DW_LANG_C)
    1213                    .dwattr $C$DW$T$80, DW_AT_decl_file("C:/ti/ccs1110/ccs/tools/compiler/ti-cgt-msp430_21.6.1.LTS
    1214                    .dwattr $C$DW$T$80, DW_AT_decl_line(0x61)
    1215                    .dwattr $C$DW$T$80, DW_AT_decl_column(0x19)
    1216            
    1217            $C$DW$T$22      .dwtag  DW_TAG_typedef
    1218                    .dwattr $C$DW$T$22, DW_AT_name("__uint16_t")
    1219                    .dwattr $C$DW$T$22, DW_AT_type(*$C$DW$T$11)
    1220                    .dwattr $C$DW$T$22, DW_AT_language(DW_LANG_C)
    1221                    .dwattr $C$DW$T$22, DW_AT_decl_file("C:/ti/ccs1110/ccs/tools/compiler/ti-cgt-msp430_21.6.1.LTS
    1222                    .dwattr $C$DW$T$22, DW_AT_decl_line(0x39)
    1223                    .dwattr $C$DW$T$22, DW_AT_decl_column(0x17)
    1224            
    1225            $C$DW$T$81      .dwtag  DW_TAG_typedef
    1226                    .dwattr $C$DW$T$81, DW_AT_name("__mode_t")
    1227                    .dwattr $C$DW$T$81, DW_AT_type(*$C$DW$T$22)
    1228                    .dwattr $C$DW$T$81, DW_AT_language(DW_LANG_C)
    1229                    .dwattr $C$DW$T$81, DW_AT_decl_file("C:/ti/ccs1110/ccs/tools/compiler/ti-cgt-msp430_21.6.1.LTS
    1230                    .dwattr $C$DW$T$81, DW_AT_decl_line(0x3a)
    1231                    .dwattr $C$DW$T$81, DW_AT_decl_column(0x14)
    1232            
    1233            $C$DW$T$82      .dwtag  DW_TAG_typedef
    1234                    .dwattr $C$DW$T$82, DW_AT_name("__u_register_t")
    1235                    .dwattr $C$DW$T$82, DW_AT_type(*$C$DW$T$22)
    1236                    .dwattr $C$DW$T$82, DW_AT_language(DW_LANG_C)
    1237                    .dwattr $C$DW$T$82, DW_AT_decl_file("C:/ti/ccs1110/ccs/tools/compiler/ti-cgt-msp430_21.6.1.LTS
    1238                    .dwattr $C$DW$T$82, DW_AT_decl_line(0x78)
    1239                    .dwattr $C$DW$T$82, DW_AT_decl_column(0x14)
    1240            
    1241            $C$DW$T$83      .dwtag  DW_TAG_typedef
    1242                    .dwattr $C$DW$T$83, DW_AT_name("__uint_fast16_t")
    1243                    .dwattr $C$DW$T$83, DW_AT_type(*$C$DW$T$22)
    1244                    .dwattr $C$DW$T$83, DW_AT_language(DW_LANG_C)
    1245                    .dwattr $C$DW$T$83, DW_AT_decl_file("C:/ti/ccs1110/ccs/tools/compiler/ti-cgt-msp430_21.6.1.LTS
    1246                    .dwattr $C$DW$T$83, DW_AT_decl_line(0x71)
    1247                    .dwattr $C$DW$T$83, DW_AT_decl_column(0x14)
    1248            
    1249            $C$DW$T$84      .dwtag  DW_TAG_typedef
    1250                    .dwattr $C$DW$T$84, DW_AT_name("uint_fast16_t")
    1251                    .dwattr $C$DW$T$84, DW_AT_type(*$C$DW$T$83)
    1252                    .dwattr $C$DW$T$84, DW_AT_language(DW_LANG_C)
    1253                    .dwattr $C$DW$T$84, DW_AT_decl_file("C:/ti/ccs1110/ccs/tools/compiler/ti-cgt-msp430_21.6.1.LTS
    1254                    .dwattr $C$DW$T$84, DW_AT_decl_line(0x3a)
    1255                    .dwattr $C$DW$T$84, DW_AT_decl_column(0x1a)
    1256            
    1257            $C$DW$T$85      .dwtag  DW_TAG_typedef
    1258                    .dwattr $C$DW$T$85, DW_AT_name("__uint_fast8_t")
    1259                    .dwattr $C$DW$T$85, DW_AT_type(*$C$DW$T$22)
    1260                    .dwattr $C$DW$T$85, DW_AT_language(DW_LANG_C)
    1261                    .dwattr $C$DW$T$85, DW_AT_decl_file("C:/ti/ccs1110/ccs/tools/compiler/ti-cgt-msp430_21.6.1.LTS
MSP430 Assembler PC v21.6.1 Tue Dec 20 13:45:53 2022

Copyright (c) 2003-2018 Texas Instruments Incorporated
tlv.asm                                                              PAGE   25

    1262                    .dwattr $C$DW$T$85, DW_AT_decl_line(0x70)
    1263                    .dwattr $C$DW$T$85, DW_AT_decl_column(0x14)
    1264            
    1265            $C$DW$T$86      .dwtag  DW_TAG_typedef
    1266                    .dwattr $C$DW$T$86, DW_AT_name("uint_fast8_t")
    1267                    .dwattr $C$DW$T$86, DW_AT_type(*$C$DW$T$85)
    1268                    .dwattr $C$DW$T$86, DW_AT_language(DW_LANG_C)
    1269                    .dwattr $C$DW$T$86, DW_AT_decl_file("C:/ti/ccs1110/ccs/tools/compiler/ti-cgt-msp430_21.6.1.LTS
    1270                    .dwattr $C$DW$T$86, DW_AT_decl_line(0x39)
    1271                    .dwattr $C$DW$T$86, DW_AT_decl_column(0x19)
    1272            
    1273            $C$DW$T$87      .dwtag  DW_TAG_typedef
    1274                    .dwattr $C$DW$T$87, DW_AT_name("__uint_least16_t")
    1275                    .dwattr $C$DW$T$87, DW_AT_type(*$C$DW$T$22)
    1276                    .dwattr $C$DW$T$87, DW_AT_language(DW_LANG_C)
    1277                    .dwattr $C$DW$T$87, DW_AT_decl_file("C:/ti/ccs1110/ccs/tools/compiler/ti-cgt-msp430_21.6.1.LTS
    1278                    .dwattr $C$DW$T$87, DW_AT_decl_line(0x75)
    1279                    .dwattr $C$DW$T$87, DW_AT_decl_column(0x14)
    1280            
    1281            $C$DW$T$88      .dwtag  DW_TAG_typedef
    1282                    .dwattr $C$DW$T$88, DW_AT_name("__char16_t")
    1283                    .dwattr $C$DW$T$88, DW_AT_type(*$C$DW$T$87)
    1284                    .dwattr $C$DW$T$88, DW_AT_language(DW_LANG_C)
    1285                    .dwattr $C$DW$T$88, DW_AT_decl_file("C:/ti/ccs1110/ccs/tools/compiler/ti-cgt-msp430_21.6.1.LTS
    1286                    .dwattr $C$DW$T$88, DW_AT_decl_line(0x71)
    1287                    .dwattr $C$DW$T$88, DW_AT_decl_column(0x1a)
    1288            
    1289            $C$DW$T$89      .dwtag  DW_TAG_typedef
    1290                    .dwattr $C$DW$T$89, DW_AT_name("uint_least16_t")
    1291                    .dwattr $C$DW$T$89, DW_AT_type(*$C$DW$T$87)
    1292                    .dwattr $C$DW$T$89, DW_AT_language(DW_LANG_C)
    1293                    .dwattr $C$DW$T$89, DW_AT_decl_file("C:/ti/ccs1110/ccs/tools/compiler/ti-cgt-msp430_21.6.1.LTS
    1294                    .dwattr $C$DW$T$89, DW_AT_decl_line(0x30)
    1295                    .dwattr $C$DW$T$89, DW_AT_decl_column(0x1a)
    1296            
    1297            $C$DW$T$23      .dwtag  DW_TAG_typedef
    1298                    .dwattr $C$DW$T$23, DW_AT_name("uint16_t")
    1299                    .dwattr $C$DW$T$23, DW_AT_type(*$C$DW$T$22)
    1300                    .dwattr $C$DW$T$23, DW_AT_language(DW_LANG_C)
    1301                    .dwattr $C$DW$T$23, DW_AT_decl_file("C:/ti/ccs1110/ccs/tools/compiler/ti-cgt-msp430_21.6.1.LTS
    1302                    .dwattr $C$DW$T$23, DW_AT_decl_line(0x41)
    1303                    .dwattr $C$DW$T$23, DW_AT_decl_column(0x15)
    1304            
    1305            $C$DW$T$37      .dwtag  DW_TAG_pointer_type
    1306                    .dwattr $C$DW$T$37, DW_AT_type(*$C$DW$T$23)
    1307                    .dwattr $C$DW$T$37, DW_AT_address_class(0x14)
    1308            
    1309            $C$DW$T$38      .dwtag  DW_TAG_pointer_type
    1310                    .dwattr $C$DW$T$38, DW_AT_type(*$C$DW$T$37)
    1311                    .dwattr $C$DW$T$38, DW_AT_address_class(0x14)
    1312            
    1313            $C$DW$T$93      .dwtag  DW_TAG_typedef
    1314                    .dwattr $C$DW$T$93, DW_AT_name("__useconds_t")
    1315                    .dwattr $C$DW$T$93, DW_AT_type(*$C$DW$T$11)
    1316                    .dwattr $C$DW$T$93, DW_AT_language(DW_LANG_C)
MSP430 Assembler PC v21.6.1 Tue Dec 20 13:45:53 2022

Copyright (c) 2003-2018 Texas Instruments Incorporated
tlv.asm                                                              PAGE   26

    1317                    .dwattr $C$DW$T$93, DW_AT_decl_file("C:/ti/ccs1110/ccs/tools/compiler/ti-cgt-msp430_21.6.1.LTS
    1318                    .dwattr $C$DW$T$93, DW_AT_decl_line(0x4e)
    1319                    .dwattr $C$DW$T$93, DW_AT_decl_column(0x16)
    1320            
    1321            $C$DW$T$12      .dwtag  DW_TAG_base_type
    1322                    .dwattr $C$DW$T$12, DW_AT_encoding(DW_ATE_signed)
    1323                    .dwattr $C$DW$T$12, DW_AT_name("long")
    1324                    .dwattr $C$DW$T$12, DW_AT_byte_size(0x04)
    1325            
    1326            $C$DW$T$94      .dwtag  DW_TAG_typedef
    1327                    .dwattr $C$DW$T$94, DW_AT_name("__int32_t")
    1328                    .dwattr $C$DW$T$94, DW_AT_type(*$C$DW$T$12)
    1329                    .dwattr $C$DW$T$94, DW_AT_language(DW_LANG_C)
    1330                    .dwattr $C$DW$T$94, DW_AT_decl_file("C:/ti/ccs1110/ccs/tools/compiler/ti-cgt-msp430_21.6.1.LTS
    1331                    .dwattr $C$DW$T$94, DW_AT_decl_line(0x3a)
    1332                    .dwattr $C$DW$T$94, DW_AT_decl_column(0x10)
    1333            
    1334            $C$DW$T$95      .dwtag  DW_TAG_typedef
    1335                    .dwattr $C$DW$T$95, DW_AT_name("__blksize_t")
    1336                    .dwattr $C$DW$T$95, DW_AT_type(*$C$DW$T$94)
    1337                    .dwattr $C$DW$T$95, DW_AT_language(DW_LANG_C)
    1338                    .dwattr $C$DW$T$95, DW_AT_decl_file("C:/ti/ccs1110/ccs/tools/compiler/ti-cgt-msp430_21.6.1.LTS
    1339                    .dwattr $C$DW$T$95, DW_AT_decl_line(0x2f)
    1340                    .dwattr $C$DW$T$95, DW_AT_decl_column(0x13)
    1341            
    1342            $C$DW$T$96      .dwtag  DW_TAG_typedef
    1343                    .dwattr $C$DW$T$96, DW_AT_name("__clockid_t")
    1344                    .dwattr $C$DW$T$96, DW_AT_type(*$C$DW$T$94)
    1345                    .dwattr $C$DW$T$96, DW_AT_language(DW_LANG_C)
    1346                    .dwattr $C$DW$T$96, DW_AT_decl_file("C:/ti/ccs1110/ccs/tools/compiler/ti-cgt-msp430_21.6.1.LTS
    1347                    .dwattr $C$DW$T$96, DW_AT_decl_line(0x31)
    1348                    .dwattr $C$DW$T$96, DW_AT_decl_column(0x13)
    1349            
    1350            $C$DW$T$97      .dwtag  DW_TAG_typedef
    1351                    .dwattr $C$DW$T$97, DW_AT_name("__critical_t")
    1352                    .dwattr $C$DW$T$97, DW_AT_type(*$C$DW$T$94)
    1353                    .dwattr $C$DW$T$97, DW_AT_language(DW_LANG_C)
    1354                    .dwattr $C$DW$T$97, DW_AT_decl_file("C:/ti/ccs1110/ccs/tools/compiler/ti-cgt-msp430_21.6.1.LTS
    1355                    .dwattr $C$DW$T$97, DW_AT_decl_line(0x4b)
    1356                    .dwattr $C$DW$T$97, DW_AT_decl_column(0x13)
    1357            
    1358            $C$DW$T$98      .dwtag  DW_TAG_typedef
    1359                    .dwattr $C$DW$T$98, DW_AT_name("__int_fast32_t")
    1360                    .dwattr $C$DW$T$98, DW_AT_type(*$C$DW$T$94)
    1361                    .dwattr $C$DW$T$98, DW_AT_language(DW_LANG_C)
    1362                    .dwattr $C$DW$T$98, DW_AT_decl_file("C:/ti/ccs1110/ccs/tools/compiler/ti-cgt-msp430_21.6.1.LTS
    1363                    .dwattr $C$DW$T$98, DW_AT_decl_line(0x58)
    1364                    .dwattr $C$DW$T$98, DW_AT_decl_column(0x13)
    1365            
    1366            $C$DW$T$99      .dwtag  DW_TAG_typedef
    1367                    .dwattr $C$DW$T$99, DW_AT_name("int_fast32_t")
    1368                    .dwattr $C$DW$T$99, DW_AT_type(*$C$DW$T$98)
    1369                    .dwattr $C$DW$T$99, DW_AT_language(DW_LANG_C)
    1370                    .dwattr $C$DW$T$99, DW_AT_decl_file("C:/ti/ccs1110/ccs/tools/compiler/ti-cgt-msp430_21.6.1.LTS
    1371                    .dwattr $C$DW$T$99, DW_AT_decl_line(0x36)
MSP430 Assembler PC v21.6.1 Tue Dec 20 13:45:53 2022

Copyright (c) 2003-2018 Texas Instruments Incorporated
tlv.asm                                                              PAGE   27

    1372                    .dwattr $C$DW$T$99, DW_AT_decl_column(0x19)
    1373            
    1374            $C$DW$T$100     .dwtag  DW_TAG_typedef
    1375                    .dwattr $C$DW$T$100, DW_AT_name("__int_least32_t")
    1376                    .dwattr $C$DW$T$100, DW_AT_type(*$C$DW$T$94)
    1377                    .dwattr $C$DW$T$100, DW_AT_language(DW_LANG_C)
    1378                    .dwattr $C$DW$T$100, DW_AT_decl_file("C:/ti/ccs1110/ccs/tools/compiler/ti-cgt-msp430_21.6.1.LT
    1379                    .dwattr $C$DW$T$100, DW_AT_decl_line(0x5c)
    1380                    .dwattr $C$DW$T$100, DW_AT_decl_column(0x13)
    1381            
    1382            $C$DW$T$101     .dwtag  DW_TAG_typedef
    1383                    .dwattr $C$DW$T$101, DW_AT_name("int_least32_t")
    1384                    .dwattr $C$DW$T$101, DW_AT_type(*$C$DW$T$100)
    1385                    .dwattr $C$DW$T$101, DW_AT_language(DW_LANG_C)
    1386                    .dwattr $C$DW$T$101, DW_AT_decl_file("C:/ti/ccs1110/ccs/tools/compiler/ti-cgt-msp430_21.6.1.LT
    1387                    .dwattr $C$DW$T$101, DW_AT_decl_line(0x2c)
    1388                    .dwattr $C$DW$T$101, DW_AT_decl_column(0x1a)
    1389            
    1390            $C$DW$T$102     .dwtag  DW_TAG_typedef
    1391                    .dwattr $C$DW$T$102, DW_AT_name("__intfptr_t")
    1392                    .dwattr $C$DW$T$102, DW_AT_type(*$C$DW$T$94)
    1393                    .dwattr $C$DW$T$102, DW_AT_language(DW_LANG_C)
    1394                    .dwattr $C$DW$T$102, DW_AT_decl_file("C:/ti/ccs1110/ccs/tools/compiler/ti-cgt-msp430_21.6.1.LT
    1395                    .dwattr $C$DW$T$102, DW_AT_decl_line(0x4e)
    1396                    .dwattr $C$DW$T$102, DW_AT_decl_column(0x13)
    1397            
    1398            $C$DW$T$103     .dwtag  DW_TAG_typedef
    1399                    .dwattr $C$DW$T$103, DW_AT_name("__intptr_t")
    1400                    .dwattr $C$DW$T$103, DW_AT_type(*$C$DW$T$94)
    1401                    .dwattr $C$DW$T$103, DW_AT_language(DW_LANG_C)
    1402                    .dwattr $C$DW$T$103, DW_AT_decl_file("C:/ti/ccs1110/ccs/tools/compiler/ti-cgt-msp430_21.6.1.LT
    1403                    .dwattr $C$DW$T$103, DW_AT_decl_line(0x51)
    1404                    .dwattr $C$DW$T$103, DW_AT_decl_column(0x13)
    1405            
    1406            $C$DW$T$104     .dwtag  DW_TAG_typedef
    1407                    .dwattr $C$DW$T$104, DW_AT_name("intptr_t")
    1408                    .dwattr $C$DW$T$104, DW_AT_type(*$C$DW$T$103)
    1409                    .dwattr $C$DW$T$104, DW_AT_language(DW_LANG_C)
    1410                    .dwattr $C$DW$T$104, DW_AT_decl_file("C:/ti/ccs1110/ccs/tools/compiler/ti-cgt-msp430_21.6.1.LT
    1411                    .dwattr $C$DW$T$104, DW_AT_decl_line(0x50)
    1412                    .dwattr $C$DW$T$104, DW_AT_decl_column(0x15)
    1413            
    1414            $C$DW$T$105     .dwtag  DW_TAG_typedef
    1415                    .dwattr $C$DW$T$105, DW_AT_name("__lwpid_t")
    1416                    .dwattr $C$DW$T$105, DW_AT_type(*$C$DW$T$94)
    1417                    .dwattr $C$DW$T$105, DW_AT_language(DW_LANG_C)
    1418                    .dwattr $C$DW$T$105, DW_AT_decl_file("C:/ti/ccs1110/ccs/tools/compiler/ti-cgt-msp430_21.6.1.LT
    1419                    .dwattr $C$DW$T$105, DW_AT_decl_line(0x39)
    1420                    .dwattr $C$DW$T$105, DW_AT_decl_column(0x13)
    1421            
    1422            $C$DW$T$106     .dwtag  DW_TAG_typedef
    1423                    .dwattr $C$DW$T$106, DW_AT_name("__pid_t")
    1424                    .dwattr $C$DW$T$106, DW_AT_type(*$C$DW$T$94)
    1425                    .dwattr $C$DW$T$106, DW_AT_language(DW_LANG_C)
    1426                    .dwattr $C$DW$T$106, DW_AT_decl_file("C:/ti/ccs1110/ccs/tools/compiler/ti-cgt-msp430_21.6.1.LT
MSP430 Assembler PC v21.6.1 Tue Dec 20 13:45:53 2022

Copyright (c) 2003-2018 Texas Instruments Incorporated
tlv.asm                                                              PAGE   28

    1427                    .dwattr $C$DW$T$106, DW_AT_decl_line(0x40)
    1428                    .dwattr $C$DW$T$106, DW_AT_decl_column(0x13)
    1429            
    1430            $C$DW$T$107     .dwtag  DW_TAG_typedef
    1431                    .dwattr $C$DW$T$107, DW_AT_name("__segsz_t")
    1432                    .dwattr $C$DW$T$107, DW_AT_type(*$C$DW$T$94)
    1433                    .dwattr $C$DW$T$107, DW_AT_language(DW_LANG_C)
    1434                    .dwattr $C$DW$T$107, DW_AT_decl_file("C:/ti/ccs1110/ccs/tools/compiler/ti-cgt-msp430_21.6.1.LT
    1435                    .dwattr $C$DW$T$107, DW_AT_decl_line(0x60)
    1436                    .dwattr $C$DW$T$107, DW_AT_decl_column(0x13)
    1437            
    1438            $C$DW$T$108     .dwtag  DW_TAG_typedef
    1439                    .dwattr $C$DW$T$108, DW_AT_name("__ssize_t")
    1440                    .dwattr $C$DW$T$108, DW_AT_type(*$C$DW$T$94)
    1441                    .dwattr $C$DW$T$108, DW_AT_language(DW_LANG_C)
    1442                    .dwattr $C$DW$T$108, DW_AT_decl_file("C:/ti/ccs1110/ccs/tools/compiler/ti-cgt-msp430_21.6.1.LT
    1443                    .dwattr $C$DW$T$108, DW_AT_decl_line(0x62)
    1444                    .dwattr $C$DW$T$108, DW_AT_decl_column(0x13)
    1445            
    1446            $C$DW$T$109     .dwtag  DW_TAG_typedef
    1447                    .dwattr $C$DW$T$109, DW_AT_name("int32_t")
    1448                    .dwattr $C$DW$T$109, DW_AT_type(*$C$DW$T$94)
    1449                    .dwattr $C$DW$T$109, DW_AT_language(DW_LANG_C)
    1450                    .dwattr $C$DW$T$109, DW_AT_decl_file("C:/ti/ccs1110/ccs/tools/compiler/ti-cgt-msp430_21.6.1.LT
    1451                    .dwattr $C$DW$T$109, DW_AT_decl_line(0x30)
    1452                    .dwattr $C$DW$T$109, DW_AT_decl_column(0x14)
    1453            
    1454            $C$DW$T$110     .dwtag  DW_TAG_typedef
    1455                    .dwattr $C$DW$T$110, DW_AT_name("__key_t")
    1456                    .dwattr $C$DW$T$110, DW_AT_type(*$C$DW$T$12)
    1457                    .dwattr $C$DW$T$110, DW_AT_language(DW_LANG_C)
    1458                    .dwattr $C$DW$T$110, DW_AT_decl_file("C:/ti/ccs1110/ccs/tools/compiler/ti-cgt-msp430_21.6.1.LT
    1459                    .dwattr $C$DW$T$110, DW_AT_decl_line(0x38)
    1460                    .dwattr $C$DW$T$110, DW_AT_decl_column(0x0f)
    1461            
    1462            $C$DW$T$111     .dwtag  DW_TAG_typedef
    1463                    .dwattr $C$DW$T$111, DW_AT_name("__suseconds_t")
    1464                    .dwattr $C$DW$T$111, DW_AT_type(*$C$DW$T$12)
    1465                    .dwattr $C$DW$T$111, DW_AT_language(DW_LANG_C)
    1466                    .dwattr $C$DW$T$111, DW_AT_decl_file("C:/ti/ccs1110/ccs/tools/compiler/ti-cgt-msp430_21.6.1.LT
    1467                    .dwattr $C$DW$T$111, DW_AT_decl_line(0x4a)
    1468                    .dwattr $C$DW$T$111, DW_AT_decl_column(0x0f)
    1469            
    1470            $C$DW$T$112     .dwtag  DW_TAG_typedef
    1471                    .dwattr $C$DW$T$112, DW_AT_name("_off_t")
    1472                    .dwattr $C$DW$T$112, DW_AT_type(*$C$DW$T$12)
    1473                    .dwattr $C$DW$T$112, DW_AT_language(DW_LANG_C)
    1474                    .dwattr $C$DW$T$112, DW_AT_decl_file("C:/ti/ccs1110/ccs/tools/compiler/ti-cgt-msp430_21.6.1.LT
    1475                    .dwattr $C$DW$T$112, DW_AT_decl_line(0x8d)
    1476                    .dwattr $C$DW$T$112, DW_AT_decl_column(0x12)
    1477            
    1478            $C$DW$T$113     .dwtag  DW_TAG_typedef
    1479                    .dwattr $C$DW$T$113, DW_AT_name("__off_t")
    1480                    .dwattr $C$DW$T$113, DW_AT_type(*$C$DW$T$112)
    1481                    .dwattr $C$DW$T$113, DW_AT_language(DW_LANG_C)
MSP430 Assembler PC v21.6.1 Tue Dec 20 13:45:53 2022

Copyright (c) 2003-2018 Texas Instruments Incorporated
tlv.asm                                                              PAGE   29

    1482                    .dwattr $C$DW$T$113, DW_AT_decl_file("C:/ti/ccs1110/ccs/tools/compiler/ti-cgt-msp430_21.6.1.LT
    1483                    .dwattr $C$DW$T$113, DW_AT_decl_line(0x3e)
    1484                    .dwattr $C$DW$T$113, DW_AT_decl_column(0x18)
    1485            
    1486            $C$DW$T$13      .dwtag  DW_TAG_base_type
    1487                    .dwattr $C$DW$T$13, DW_AT_encoding(DW_ATE_unsigned)
    1488                    .dwattr $C$DW$T$13, DW_AT_name("unsigned long")
    1489                    .dwattr $C$DW$T$13, DW_AT_byte_size(0x04)
    1490            
    1491            $C$DW$T$28      .dwtag  DW_TAG_typedef
    1492                    .dwattr $C$DW$T$28, DW_AT_name("__uint32_t")
    1493                    .dwattr $C$DW$T$28, DW_AT_type(*$C$DW$T$13)
    1494                    .dwattr $C$DW$T$28, DW_AT_language(DW_LANG_C)
    1495                    .dwattr $C$DW$T$28, DW_AT_decl_file("C:/ti/ccs1110/ccs/tools/compiler/ti-cgt-msp430_21.6.1.LTS
    1496                    .dwattr $C$DW$T$28, DW_AT_decl_line(0x3b)
    1497                    .dwattr $C$DW$T$28, DW_AT_decl_column(0x18)
    1498            
    1499            $C$DW$T$114     .dwtag  DW_TAG_typedef
    1500                    .dwattr $C$DW$T$114, DW_AT_name("__clock_t")
    1501                    .dwattr $C$DW$T$114, DW_AT_type(*$C$DW$T$28)
    1502                    .dwattr $C$DW$T$114, DW_AT_language(DW_LANG_C)
    1503                    .dwattr $C$DW$T$114, DW_AT_decl_file("C:/ti/ccs1110/ccs/tools/compiler/ti-cgt-msp430_21.6.1.LT
    1504                    .dwattr $C$DW$T$114, DW_AT_decl_line(0x4a)
    1505                    .dwattr $C$DW$T$114, DW_AT_decl_column(0x14)
    1506            
    1507            $C$DW$T$115     .dwtag  DW_TAG_typedef
    1508                    .dwattr $C$DW$T$115, DW_AT_name("__fflags_t")
    1509                    .dwattr $C$DW$T$115, DW_AT_type(*$C$DW$T$28)
    1510                    .dwattr $C$DW$T$115, DW_AT_language(DW_LANG_C)
    1511                    .dwattr $C$DW$T$115, DW_AT_decl_file("C:/ti/ccs1110/ccs/tools/compiler/ti-cgt-msp430_21.6.1.LT
    1512                    .dwattr $C$DW$T$115, DW_AT_decl_line(0x32)
    1513                    .dwattr $C$DW$T$115, DW_AT_decl_column(0x14)
    1514            
    1515            $C$DW$T$116     .dwtag  DW_TAG_typedef
    1516                    .dwattr $C$DW$T$116, DW_AT_name("__fixpt_t")
    1517                    .dwattr $C$DW$T$116, DW_AT_type(*$C$DW$T$28)
    1518                    .dwattr $C$DW$T$116, DW_AT_language(DW_LANG_C)
    1519                    .dwattr $C$DW$T$116, DW_AT_decl_file("C:/ti/ccs1110/ccs/tools/compiler/ti-cgt-msp430_21.6.1.LT
    1520                    .dwattr $C$DW$T$116, DW_AT_decl_line(0x81)
    1521                    .dwattr $C$DW$T$116, DW_AT_decl_column(0x14)
    1522            
    1523            $C$DW$T$117     .dwtag  DW_TAG_typedef
    1524                    .dwattr $C$DW$T$117, DW_AT_name("__gid_t")
    1525                    .dwattr $C$DW$T$117, DW_AT_type(*$C$DW$T$28)
    1526                    .dwattr $C$DW$T$117, DW_AT_language(DW_LANG_C)
    1527                    .dwattr $C$DW$T$117, DW_AT_decl_file("C:/ti/ccs1110/ccs/tools/compiler/ti-cgt-msp430_21.6.1.LT
    1528                    .dwattr $C$DW$T$117, DW_AT_decl_line(0x35)
    1529                    .dwattr $C$DW$T$117, DW_AT_decl_column(0x14)
    1530            
    1531            $C$DW$T$118     .dwtag  DW_TAG_typedef
    1532                    .dwattr $C$DW$T$118, DW_AT_name("__socklen_t")
    1533                    .dwattr $C$DW$T$118, DW_AT_type(*$C$DW$T$28)
    1534                    .dwattr $C$DW$T$118, DW_AT_language(DW_LANG_C)
    1535                    .dwattr $C$DW$T$118, DW_AT_decl_file("C:/ti/ccs1110/ccs/tools/compiler/ti-cgt-msp430_21.6.1.LT
    1536                    .dwattr $C$DW$T$118, DW_AT_decl_line(0x49)
MSP430 Assembler PC v21.6.1 Tue Dec 20 13:45:53 2022

Copyright (c) 2003-2018 Texas Instruments Incorporated
tlv.asm                                                              PAGE   30

    1537                    .dwattr $C$DW$T$118, DW_AT_decl_column(0x14)
    1538            
    1539            $C$DW$T$119     .dwtag  DW_TAG_typedef
    1540                    .dwattr $C$DW$T$119, DW_AT_name("__time_t")
    1541                    .dwattr $C$DW$T$119, DW_AT_type(*$C$DW$T$28)
    1542                    .dwattr $C$DW$T$119, DW_AT_language(DW_LANG_C)
    1543                    .dwattr $C$DW$T$119, DW_AT_decl_file("C:/ti/ccs1110/ccs/tools/compiler/ti-cgt-msp430_21.6.1.LT
    1544                    .dwattr $C$DW$T$119, DW_AT_decl_line(0x66)
    1545                    .dwattr $C$DW$T$119, DW_AT_decl_column(0x19)
    1546            
    1547            $C$DW$T$120     .dwtag  DW_TAG_typedef
    1548                    .dwattr $C$DW$T$120, DW_AT_name("__uid_t")
    1549                    .dwattr $C$DW$T$120, DW_AT_type(*$C$DW$T$28)
    1550                    .dwattr $C$DW$T$120, DW_AT_language(DW_LANG_C)
    1551                    .dwattr $C$DW$T$120, DW_AT_decl_file("C:/ti/ccs1110/ccs/tools/compiler/ti-cgt-msp430_21.6.1.LT
    1552                    .dwattr $C$DW$T$120, DW_AT_decl_line(0x4d)
    1553                    .dwattr $C$DW$T$120, DW_AT_decl_column(0x14)
    1554            
    1555            $C$DW$T$121     .dwtag  DW_TAG_typedef
    1556                    .dwattr $C$DW$T$121, DW_AT_name("__uint_fast32_t")
    1557                    .dwattr $C$DW$T$121, DW_AT_type(*$C$DW$T$28)
    1558                    .dwattr $C$DW$T$121, DW_AT_language(DW_LANG_C)
    1559                    .dwattr $C$DW$T$121, DW_AT_decl_file("C:/ti/ccs1110/ccs/tools/compiler/ti-cgt-msp430_21.6.1.LT
    1560                    .dwattr $C$DW$T$121, DW_AT_decl_line(0x72)
    1561                    .dwattr $C$DW$T$121, DW_AT_decl_column(0x14)
    1562            
    1563            $C$DW$T$122     .dwtag  DW_TAG_typedef
    1564                    .dwattr $C$DW$T$122, DW_AT_name("uint_fast32_t")
    1565                    .dwattr $C$DW$T$122, DW_AT_type(*$C$DW$T$121)
    1566                    .dwattr $C$DW$T$122, DW_AT_language(DW_LANG_C)
    1567                    .dwattr $C$DW$T$122, DW_AT_decl_file("C:/ti/ccs1110/ccs/tools/compiler/ti-cgt-msp430_21.6.1.LT
    1568                    .dwattr $C$DW$T$122, DW_AT_decl_line(0x3b)
    1569                    .dwattr $C$DW$T$122, DW_AT_decl_column(0x1a)
    1570            
    1571            $C$DW$T$123     .dwtag  DW_TAG_typedef
    1572                    .dwattr $C$DW$T$123, DW_AT_name("__uint_least32_t")
    1573                    .dwattr $C$DW$T$123, DW_AT_type(*$C$DW$T$28)
    1574                    .dwattr $C$DW$T$123, DW_AT_language(DW_LANG_C)
    1575                    .dwattr $C$DW$T$123, DW_AT_decl_file("C:/ti/ccs1110/ccs/tools/compiler/ti-cgt-msp430_21.6.1.LT
    1576                    .dwattr $C$DW$T$123, DW_AT_decl_line(0x76)
    1577                    .dwattr $C$DW$T$123, DW_AT_decl_column(0x14)
    1578            
    1579            $C$DW$T$124     .dwtag  DW_TAG_typedef
    1580                    .dwattr $C$DW$T$124, DW_AT_name("__char32_t")
    1581                    .dwattr $C$DW$T$124, DW_AT_type(*$C$DW$T$123)
    1582                    .dwattr $C$DW$T$124, DW_AT_language(DW_LANG_C)
    1583                    .dwattr $C$DW$T$124, DW_AT_decl_file("C:/ti/ccs1110/ccs/tools/compiler/ti-cgt-msp430_21.6.1.LT
    1584                    .dwattr $C$DW$T$124, DW_AT_decl_line(0x72)
    1585                    .dwattr $C$DW$T$124, DW_AT_decl_column(0x1a)
    1586            
    1587            $C$DW$T$125     .dwtag  DW_TAG_typedef
    1588                    .dwattr $C$DW$T$125, DW_AT_name("uint_least32_t")
    1589                    .dwattr $C$DW$T$125, DW_AT_type(*$C$DW$T$123)
    1590                    .dwattr $C$DW$T$125, DW_AT_language(DW_LANG_C)
    1591                    .dwattr $C$DW$T$125, DW_AT_decl_file("C:/ti/ccs1110/ccs/tools/compiler/ti-cgt-msp430_21.6.1.LT
MSP430 Assembler PC v21.6.1 Tue Dec 20 13:45:53 2022

Copyright (c) 2003-2018 Texas Instruments Incorporated
tlv.asm                                                              PAGE   31

    1592                    .dwattr $C$DW$T$125, DW_AT_decl_line(0x31)
    1593                    .dwattr $C$DW$T$125, DW_AT_decl_column(0x1a)
    1594            
    1595            $C$DW$T$126     .dwtag  DW_TAG_typedef
    1596                    .dwattr $C$DW$T$126, DW_AT_name("__uintfptr_t")
    1597                    .dwattr $C$DW$T$126, DW_AT_type(*$C$DW$T$28)
    1598                    .dwattr $C$DW$T$126, DW_AT_language(DW_LANG_C)
    1599                    .dwattr $C$DW$T$126, DW_AT_decl_file("C:/ti/ccs1110/ccs/tools/compiler/ti-cgt-msp430_21.6.1.LT
    1600                    .dwattr $C$DW$T$126, DW_AT_decl_line(0x68)
    1601                    .dwattr $C$DW$T$126, DW_AT_decl_column(0x14)
    1602            
    1603            $C$DW$T$127     .dwtag  DW_TAG_typedef
    1604                    .dwattr $C$DW$T$127, DW_AT_name("__uintptr_t")
    1605                    .dwattr $C$DW$T$127, DW_AT_type(*$C$DW$T$28)
    1606                    .dwattr $C$DW$T$127, DW_AT_language(DW_LANG_C)
    1607                    .dwattr $C$DW$T$127, DW_AT_decl_file("C:/ti/ccs1110/ccs/tools/compiler/ti-cgt-msp430_21.6.1.LT
    1608                    .dwattr $C$DW$T$127, DW_AT_decl_line(0x6b)
    1609                    .dwattr $C$DW$T$127, DW_AT_decl_column(0x14)
    1610            
    1611            $C$DW$T$128     .dwtag  DW_TAG_typedef
    1612                    .dwattr $C$DW$T$128, DW_AT_name("uintptr_t")
    1613                    .dwattr $C$DW$T$128, DW_AT_type(*$C$DW$T$127)
    1614                    .dwattr $C$DW$T$128, DW_AT_language(DW_LANG_C)
    1615                    .dwattr $C$DW$T$128, DW_AT_decl_file("C:/ti/ccs1110/ccs/tools/compiler/ti-cgt-msp430_21.6.1.LT
    1616                    .dwattr $C$DW$T$128, DW_AT_decl_line(0x54)
    1617                    .dwattr $C$DW$T$128, DW_AT_decl_column(0x16)
    1618            
    1619            $C$DW$T$129     .dwtag  DW_TAG_typedef
    1620                    .dwattr $C$DW$T$129, DW_AT_name("__vm_offset_t")
    1621                    .dwattr $C$DW$T$129, DW_AT_type(*$C$DW$T$28)
    1622                    .dwattr $C$DW$T$129, DW_AT_language(DW_LANG_C)
    1623                    .dwattr $C$DW$T$129, DW_AT_decl_file("C:/ti/ccs1110/ccs/tools/compiler/ti-cgt-msp430_21.6.1.LT
    1624                    .dwattr $C$DW$T$129, DW_AT_decl_line(0x79)
    1625                    .dwattr $C$DW$T$129, DW_AT_decl_column(0x14)
    1626            
    1627            $C$DW$T$130     .dwtag  DW_TAG_typedef
    1628                    .dwattr $C$DW$T$130, DW_AT_name("__vm_paddr_t")
    1629                    .dwattr $C$DW$T$130, DW_AT_type(*$C$DW$T$28)
    1630                    .dwattr $C$DW$T$130, DW_AT_language(DW_LANG_C)
    1631                    .dwattr $C$DW$T$130, DW_AT_decl_file("C:/ti/ccs1110/ccs/tools/compiler/ti-cgt-msp430_21.6.1.LT
    1632                    .dwattr $C$DW$T$130, DW_AT_decl_line(0x7a)
    1633                    .dwattr $C$DW$T$130, DW_AT_decl_column(0x14)
    1634            
    1635            $C$DW$T$131     .dwtag  DW_TAG_typedef
    1636                    .dwattr $C$DW$T$131, DW_AT_name("__vm_size_t")
    1637                    .dwattr $C$DW$T$131, DW_AT_type(*$C$DW$T$28)
    1638                    .dwattr $C$DW$T$131, DW_AT_language(DW_LANG_C)
    1639                    .dwattr $C$DW$T$131, DW_AT_decl_file("C:/ti/ccs1110/ccs/tools/compiler/ti-cgt-msp430_21.6.1.LT
    1640                    .dwattr $C$DW$T$131, DW_AT_decl_line(0x7b)
    1641                    .dwattr $C$DW$T$131, DW_AT_decl_column(0x14)
    1642            
    1643            $C$DW$T$29      .dwtag  DW_TAG_typedef
    1644                    .dwattr $C$DW$T$29, DW_AT_name("uint32_t")
    1645                    .dwattr $C$DW$T$29, DW_AT_type(*$C$DW$T$28)
    1646                    .dwattr $C$DW$T$29, DW_AT_language(DW_LANG_C)
MSP430 Assembler PC v21.6.1 Tue Dec 20 13:45:53 2022

Copyright (c) 2003-2018 Texas Instruments Incorporated
tlv.asm                                                              PAGE   32

    1647                    .dwattr $C$DW$T$29, DW_AT_decl_file("C:/ti/ccs1110/ccs/tools/compiler/ti-cgt-msp430_21.6.1.LTS
    1648                    .dwattr $C$DW$T$29, DW_AT_decl_line(0x46)
    1649                    .dwattr $C$DW$T$29, DW_AT_decl_column(0x15)
    1650            
    1651            $C$DW$T$14      .dwtag  DW_TAG_base_type
    1652                    .dwattr $C$DW$T$14, DW_AT_encoding(DW_ATE_signed)
    1653                    .dwattr $C$DW$T$14, DW_AT_name("long long")
    1654                    .dwattr $C$DW$T$14, DW_AT_byte_size(0x08)
    1655            
    1656            $C$DW$T$132     .dwtag  DW_TAG_typedef
    1657                    .dwattr $C$DW$T$132, DW_AT_name("__int64_t")
    1658                    .dwattr $C$DW$T$132, DW_AT_type(*$C$DW$T$14)
    1659                    .dwattr $C$DW$T$132, DW_AT_language(DW_LANG_C)
    1660                    .dwattr $C$DW$T$132, DW_AT_decl_file("C:/ti/ccs1110/ccs/tools/compiler/ti-cgt-msp430_21.6.1.LT
    1661                    .dwattr $C$DW$T$132, DW_AT_decl_line(0x40)
    1662                    .dwattr $C$DW$T$132, DW_AT_decl_column(0x14)
    1663            
    1664            $C$DW$T$133     .dwtag  DW_TAG_typedef
    1665                    .dwattr $C$DW$T$133, DW_AT_name("__blkcnt_t")
    1666                    .dwattr $C$DW$T$133, DW_AT_type(*$C$DW$T$132)
    1667                    .dwattr $C$DW$T$133, DW_AT_language(DW_LANG_C)
    1668                    .dwattr $C$DW$T$133, DW_AT_decl_file("C:/ti/ccs1110/ccs/tools/compiler/ti-cgt-msp430_21.6.1.LT
    1669                    .dwattr $C$DW$T$133, DW_AT_decl_line(0x30)
    1670                    .dwattr $C$DW$T$133, DW_AT_decl_column(0x13)
    1671            
    1672            $C$DW$T$134     .dwtag  DW_TAG_typedef
    1673                    .dwattr $C$DW$T$134, DW_AT_name("__id_t")
    1674                    .dwattr $C$DW$T$134, DW_AT_type(*$C$DW$T$132)
    1675                    .dwattr $C$DW$T$134, DW_AT_language(DW_LANG_C)
    1676                    .dwattr $C$DW$T$134, DW_AT_decl_file("C:/ti/ccs1110/ccs/tools/compiler/ti-cgt-msp430_21.6.1.LT
    1677                    .dwattr $C$DW$T$134, DW_AT_decl_line(0x36)
    1678                    .dwattr $C$DW$T$134, DW_AT_decl_column(0x13)
    1679            
    1680            $C$DW$T$135     .dwtag  DW_TAG_typedef
    1681                    .dwattr $C$DW$T$135, DW_AT_name("__int_fast64_t")
    1682                    .dwattr $C$DW$T$135, DW_AT_type(*$C$DW$T$132)
    1683                    .dwattr $C$DW$T$135, DW_AT_language(DW_LANG_C)
    1684                    .dwattr $C$DW$T$135, DW_AT_decl_file("C:/ti/ccs1110/ccs/tools/compiler/ti-cgt-msp430_21.6.1.LT
    1685                    .dwattr $C$DW$T$135, DW_AT_decl_line(0x59)
    1686                    .dwattr $C$DW$T$135, DW_AT_decl_column(0x13)
    1687            
    1688            $C$DW$T$136     .dwtag  DW_TAG_typedef
    1689                    .dwattr $C$DW$T$136, DW_AT_name("int_fast64_t")
    1690                    .dwattr $C$DW$T$136, DW_AT_type(*$C$DW$T$135)
    1691                    .dwattr $C$DW$T$136, DW_AT_language(DW_LANG_C)
    1692                    .dwattr $C$DW$T$136, DW_AT_decl_file("C:/ti/ccs1110/ccs/tools/compiler/ti-cgt-msp430_21.6.1.LT
    1693                    .dwattr $C$DW$T$136, DW_AT_decl_line(0x37)
    1694                    .dwattr $C$DW$T$136, DW_AT_decl_column(0x19)
    1695            
    1696            $C$DW$T$137     .dwtag  DW_TAG_typedef
    1697                    .dwattr $C$DW$T$137, DW_AT_name("__int_least64_t")
    1698                    .dwattr $C$DW$T$137, DW_AT_type(*$C$DW$T$132)
    1699                    .dwattr $C$DW$T$137, DW_AT_language(DW_LANG_C)
    1700                    .dwattr $C$DW$T$137, DW_AT_decl_file("C:/ti/ccs1110/ccs/tools/compiler/ti-cgt-msp430_21.6.1.LT
    1701                    .dwattr $C$DW$T$137, DW_AT_decl_line(0x5d)
MSP430 Assembler PC v21.6.1 Tue Dec 20 13:45:53 2022

Copyright (c) 2003-2018 Texas Instruments Incorporated
tlv.asm                                                              PAGE   33

    1702                    .dwattr $C$DW$T$137, DW_AT_decl_column(0x13)
    1703            
    1704            $C$DW$T$138     .dwtag  DW_TAG_typedef
    1705                    .dwattr $C$DW$T$138, DW_AT_name("int_least64_t")
    1706                    .dwattr $C$DW$T$138, DW_AT_type(*$C$DW$T$137)
    1707                    .dwattr $C$DW$T$138, DW_AT_language(DW_LANG_C)
    1708                    .dwattr $C$DW$T$138, DW_AT_decl_file("C:/ti/ccs1110/ccs/tools/compiler/ti-cgt-msp430_21.6.1.LT
    1709                    .dwattr $C$DW$T$138, DW_AT_decl_line(0x2d)
    1710                    .dwattr $C$DW$T$138, DW_AT_decl_column(0x1a)
    1711            
    1712            $C$DW$T$139     .dwtag  DW_TAG_typedef
    1713                    .dwattr $C$DW$T$139, DW_AT_name("__intmax_t")
    1714                    .dwattr $C$DW$T$139, DW_AT_type(*$C$DW$T$132)
    1715                    .dwattr $C$DW$T$139, DW_AT_language(DW_LANG_C)
    1716                    .dwattr $C$DW$T$139, DW_AT_decl_file("C:/ti/ccs1110/ccs/tools/compiler/ti-cgt-msp430_21.6.1.LT
    1717                    .dwattr $C$DW$T$139, DW_AT_decl_line(0x4f)
    1718                    .dwattr $C$DW$T$139, DW_AT_decl_column(0x13)
    1719            
    1720            $C$DW$T$140     .dwtag  DW_TAG_typedef
    1721                    .dwattr $C$DW$T$140, DW_AT_name("intmax_t")
    1722                    .dwattr $C$DW$T$140, DW_AT_type(*$C$DW$T$139)
    1723                    .dwattr $C$DW$T$140, DW_AT_language(DW_LANG_C)
    1724                    .dwattr $C$DW$T$140, DW_AT_decl_file("C:/ti/ccs1110/ccs/tools/compiler/ti-cgt-msp430_21.6.1.LT
    1725                    .dwattr $C$DW$T$140, DW_AT_decl_line(0x58)
    1726                    .dwattr $C$DW$T$140, DW_AT_decl_column(0x15)
    1727            
    1728            $C$DW$T$141     .dwtag  DW_TAG_typedef
    1729                    .dwattr $C$DW$T$141, DW_AT_name("__off64_t")
    1730                    .dwattr $C$DW$T$141, DW_AT_type(*$C$DW$T$132)
    1731                    .dwattr $C$DW$T$141, DW_AT_language(DW_LANG_C)
    1732                    .dwattr $C$DW$T$141, DW_AT_decl_file("C:/ti/ccs1110/ccs/tools/compiler/ti-cgt-msp430_21.6.1.LT
    1733                    .dwattr $C$DW$T$141, DW_AT_decl_line(0x3f)
    1734                    .dwattr $C$DW$T$141, DW_AT_decl_column(0x13)
    1735            
    1736            $C$DW$T$142     .dwtag  DW_TAG_typedef
    1737                    .dwattr $C$DW$T$142, DW_AT_name("__rlim_t")
    1738                    .dwattr $C$DW$T$142, DW_AT_type(*$C$DW$T$132)
    1739                    .dwattr $C$DW$T$142, DW_AT_language(DW_LANG_C)
    1740                    .dwattr $C$DW$T$142, DW_AT_decl_file("C:/ti/ccs1110/ccs/tools/compiler/ti-cgt-msp430_21.6.1.LT
    1741                    .dwattr $C$DW$T$142, DW_AT_decl_line(0x41)
    1742                    .dwattr $C$DW$T$142, DW_AT_decl_column(0x13)
    1743            
    1744            $C$DW$T$143     .dwtag  DW_TAG_typedef
    1745                    .dwattr $C$DW$T$143, DW_AT_name("int64_t")
    1746                    .dwattr $C$DW$T$143, DW_AT_type(*$C$DW$T$132)
    1747                    .dwattr $C$DW$T$143, DW_AT_language(DW_LANG_C)
    1748                    .dwattr $C$DW$T$143, DW_AT_decl_file("C:/ti/ccs1110/ccs/tools/compiler/ti-cgt-msp430_21.6.1.LT
    1749                    .dwattr $C$DW$T$143, DW_AT_decl_line(0x35)
    1750                    .dwattr $C$DW$T$143, DW_AT_decl_column(0x14)
    1751            
    1752            $C$DW$T$15      .dwtag  DW_TAG_base_type
    1753                    .dwattr $C$DW$T$15, DW_AT_encoding(DW_ATE_unsigned)
    1754                    .dwattr $C$DW$T$15, DW_AT_name("unsigned long long")
    1755                    .dwattr $C$DW$T$15, DW_AT_byte_size(0x08)
    1756            
MSP430 Assembler PC v21.6.1 Tue Dec 20 13:45:53 2022

Copyright (c) 2003-2018 Texas Instruments Incorporated
tlv.asm                                                              PAGE   34

    1757            $C$DW$T$144     .dwtag  DW_TAG_typedef
    1758                    .dwattr $C$DW$T$144, DW_AT_name("__uint64_t")
    1759                    .dwattr $C$DW$T$144, DW_AT_type(*$C$DW$T$15)
    1760                    .dwattr $C$DW$T$144, DW_AT_language(DW_LANG_C)
    1761                    .dwattr $C$DW$T$144, DW_AT_decl_file("C:/ti/ccs1110/ccs/tools/compiler/ti-cgt-msp430_21.6.1.LT
    1762                    .dwattr $C$DW$T$144, DW_AT_decl_line(0x45)
    1763                    .dwattr $C$DW$T$144, DW_AT_decl_column(0x1c)
    1764            
    1765            $C$DW$T$145     .dwtag  DW_TAG_typedef
    1766                    .dwattr $C$DW$T$145, DW_AT_name("__dev_t")
    1767                    .dwattr $C$DW$T$145, DW_AT_type(*$C$DW$T$144)
    1768                    .dwattr $C$DW$T$145, DW_AT_language(DW_LANG_C)
    1769                    .dwattr $C$DW$T$145, DW_AT_decl_file("C:/ti/ccs1110/ccs/tools/compiler/ti-cgt-msp430_21.6.1.LT
    1770                    .dwattr $C$DW$T$145, DW_AT_decl_line(0x7f)
    1771                    .dwattr $C$DW$T$145, DW_AT_decl_column(0x14)
    1772            
    1773            $C$DW$T$146     .dwtag  DW_TAG_typedef
    1774                    .dwattr $C$DW$T$146, DW_AT_name("__fsblkcnt_t")
    1775                    .dwattr $C$DW$T$146, DW_AT_type(*$C$DW$T$144)
    1776                    .dwattr $C$DW$T$146, DW_AT_language(DW_LANG_C)
    1777                    .dwattr $C$DW$T$146, DW_AT_decl_file("C:/ti/ccs1110/ccs/tools/compiler/ti-cgt-msp430_21.6.1.LT
    1778                    .dwattr $C$DW$T$146, DW_AT_decl_line(0x33)
    1779                    .dwattr $C$DW$T$146, DW_AT_decl_column(0x14)
    1780            
    1781            $C$DW$T$147     .dwtag  DW_TAG_typedef
    1782                    .dwattr $C$DW$T$147, DW_AT_name("__fsfilcnt_t")
    1783                    .dwattr $C$DW$T$147, DW_AT_type(*$C$DW$T$144)
    1784                    .dwattr $C$DW$T$147, DW_AT_language(DW_LANG_C)
    1785                    .dwattr $C$DW$T$147, DW_AT_decl_file("C:/ti/ccs1110/ccs/tools/compiler/ti-cgt-msp430_21.6.1.LT
    1786                    .dwattr $C$DW$T$147, DW_AT_decl_line(0x34)
    1787                    .dwattr $C$DW$T$147, DW_AT_decl_column(0x14)
    1788            
    1789            $C$DW$T$148     .dwtag  DW_TAG_typedef
    1790                    .dwattr $C$DW$T$148, DW_AT_name("__ino_t")
    1791                    .dwattr $C$DW$T$148, DW_AT_type(*$C$DW$T$144)
    1792                    .dwattr $C$DW$T$148, DW_AT_language(DW_LANG_C)
    1793                    .dwattr $C$DW$T$148, DW_AT_decl_file("C:/ti/ccs1110/ccs/tools/compiler/ti-cgt-msp430_21.6.1.LT
    1794                    .dwattr $C$DW$T$148, DW_AT_decl_line(0x37)
    1795                    .dwattr $C$DW$T$148, DW_AT_decl_column(0x14)
    1796            
    1797            $C$DW$T$149     .dwtag  DW_TAG_typedef
    1798                    .dwattr $C$DW$T$149, DW_AT_name("__nlink_t")
    1799                    .dwattr $C$DW$T$149, DW_AT_type(*$C$DW$T$144)
    1800                    .dwattr $C$DW$T$149, DW_AT_language(DW_LANG_C)
    1801                    .dwattr $C$DW$T$149, DW_AT_decl_file("C:/ti/ccs1110/ccs/tools/compiler/ti-cgt-msp430_21.6.1.LT
    1802                    .dwattr $C$DW$T$149, DW_AT_decl_line(0x3d)
    1803                    .dwattr $C$DW$T$149, DW_AT_decl_column(0x14)
    1804            
    1805            $C$DW$T$150     .dwtag  DW_TAG_typedef
    1806                    .dwattr $C$DW$T$150, DW_AT_name("__uint_fast64_t")
    1807                    .dwattr $C$DW$T$150, DW_AT_type(*$C$DW$T$144)
    1808                    .dwattr $C$DW$T$150, DW_AT_language(DW_LANG_C)
    1809                    .dwattr $C$DW$T$150, DW_AT_decl_file("C:/ti/ccs1110/ccs/tools/compiler/ti-cgt-msp430_21.6.1.LT
    1810                    .dwattr $C$DW$T$150, DW_AT_decl_line(0x73)
    1811                    .dwattr $C$DW$T$150, DW_AT_decl_column(0x14)
MSP430 Assembler PC v21.6.1 Tue Dec 20 13:45:53 2022

Copyright (c) 2003-2018 Texas Instruments Incorporated
tlv.asm                                                              PAGE   35

    1812            
    1813            $C$DW$T$151     .dwtag  DW_TAG_typedef
    1814                    .dwattr $C$DW$T$151, DW_AT_name("uint_fast64_t")
    1815                    .dwattr $C$DW$T$151, DW_AT_type(*$C$DW$T$150)
    1816                    .dwattr $C$DW$T$151, DW_AT_language(DW_LANG_C)
    1817                    .dwattr $C$DW$T$151, DW_AT_decl_file("C:/ti/ccs1110/ccs/tools/compiler/ti-cgt-msp430_21.6.1.LT
    1818                    .dwattr $C$DW$T$151, DW_AT_decl_line(0x3c)
    1819                    .dwattr $C$DW$T$151, DW_AT_decl_column(0x1a)
    1820            
    1821            $C$DW$T$152     .dwtag  DW_TAG_typedef
    1822                    .dwattr $C$DW$T$152, DW_AT_name("__uint_least64_t")
    1823                    .dwattr $C$DW$T$152, DW_AT_type(*$C$DW$T$144)
    1824                    .dwattr $C$DW$T$152, DW_AT_language(DW_LANG_C)
    1825                    .dwattr $C$DW$T$152, DW_AT_decl_file("C:/ti/ccs1110/ccs/tools/compiler/ti-cgt-msp430_21.6.1.LT
    1826                    .dwattr $C$DW$T$152, DW_AT_decl_line(0x77)
    1827                    .dwattr $C$DW$T$152, DW_AT_decl_column(0x14)
    1828            
    1829            $C$DW$T$153     .dwtag  DW_TAG_typedef
    1830                    .dwattr $C$DW$T$153, DW_AT_name("uint_least64_t")
    1831                    .dwattr $C$DW$T$153, DW_AT_type(*$C$DW$T$152)
    1832                    .dwattr $C$DW$T$153, DW_AT_language(DW_LANG_C)
    1833                    .dwattr $C$DW$T$153, DW_AT_decl_file("C:/ti/ccs1110/ccs/tools/compiler/ti-cgt-msp430_21.6.1.LT
    1834                    .dwattr $C$DW$T$153, DW_AT_decl_line(0x32)
    1835                    .dwattr $C$DW$T$153, DW_AT_decl_column(0x1a)
    1836            
    1837            $C$DW$T$154     .dwtag  DW_TAG_typedef
    1838                    .dwattr $C$DW$T$154, DW_AT_name("__uintmax_t")
    1839                    .dwattr $C$DW$T$154, DW_AT_type(*$C$DW$T$144)
    1840                    .dwattr $C$DW$T$154, DW_AT_language(DW_LANG_C)
    1841                    .dwattr $C$DW$T$154, DW_AT_decl_file("C:/ti/ccs1110/ccs/tools/compiler/ti-cgt-msp430_21.6.1.LT
    1842                    .dwattr $C$DW$T$154, DW_AT_decl_line(0x69)
    1843                    .dwattr $C$DW$T$154, DW_AT_decl_column(0x14)
    1844            
    1845            $C$DW$T$155     .dwtag  DW_TAG_typedef
    1846                    .dwattr $C$DW$T$155, DW_AT_name("__rman_res_t")
    1847                    .dwattr $C$DW$T$155, DW_AT_type(*$C$DW$T$154)
    1848                    .dwattr $C$DW$T$155, DW_AT_language(DW_LANG_C)
    1849                    .dwattr $C$DW$T$155, DW_AT_decl_file("C:/ti/ccs1110/ccs/tools/compiler/ti-cgt-msp430_21.6.1.LT
    1850                    .dwattr $C$DW$T$155, DW_AT_decl_line(0x9a)
    1851                    .dwattr $C$DW$T$155, DW_AT_decl_column(0x19)
    1852            
    1853            $C$DW$T$156     .dwtag  DW_TAG_typedef
    1854                    .dwattr $C$DW$T$156, DW_AT_name("uintmax_t")
    1855                    .dwattr $C$DW$T$156, DW_AT_type(*$C$DW$T$154)
    1856                    .dwattr $C$DW$T$156, DW_AT_language(DW_LANG_C)
    1857                    .dwattr $C$DW$T$156, DW_AT_decl_file("C:/ti/ccs1110/ccs/tools/compiler/ti-cgt-msp430_21.6.1.LT
    1858                    .dwattr $C$DW$T$156, DW_AT_decl_line(0x5c)
    1859                    .dwattr $C$DW$T$156, DW_AT_decl_column(0x16)
    1860            
    1861            $C$DW$T$157     .dwtag  DW_TAG_typedef
    1862                    .dwattr $C$DW$T$157, DW_AT_name("uint64_t")
    1863                    .dwattr $C$DW$T$157, DW_AT_type(*$C$DW$T$144)
    1864                    .dwattr $C$DW$T$157, DW_AT_language(DW_LANG_C)
    1865                    .dwattr $C$DW$T$157, DW_AT_decl_file("C:/ti/ccs1110/ccs/tools/compiler/ti-cgt-msp430_21.6.1.LT
    1866                    .dwattr $C$DW$T$157, DW_AT_decl_line(0x4b)
MSP430 Assembler PC v21.6.1 Tue Dec 20 13:45:53 2022

Copyright (c) 2003-2018 Texas Instruments Incorporated
tlv.asm                                                              PAGE   36

    1867                    .dwattr $C$DW$T$157, DW_AT_decl_column(0x15)
    1868            
    1869            $C$DW$T$16      .dwtag  DW_TAG_base_type
    1870                    .dwattr $C$DW$T$16, DW_AT_encoding(DW_ATE_float)
    1871                    .dwattr $C$DW$T$16, DW_AT_name("float")
    1872                    .dwattr $C$DW$T$16, DW_AT_byte_size(0x04)
    1873            
    1874            $C$DW$T$158     .dwtag  DW_TAG_typedef
    1875                    .dwattr $C$DW$T$158, DW_AT_name("__float_t")
    1876                    .dwattr $C$DW$T$158, DW_AT_type(*$C$DW$T$16)
    1877                    .dwattr $C$DW$T$158, DW_AT_language(DW_LANG_C)
    1878                    .dwattr $C$DW$T$158, DW_AT_decl_file("C:/ti/ccs1110/ccs/tools/compiler/ti-cgt-msp430_21.6.1.LT
    1879                    .dwattr $C$DW$T$158, DW_AT_decl_line(0x4d)
    1880                    .dwattr $C$DW$T$158, DW_AT_decl_column(0x10)
    1881            
    1882            $C$DW$T$17      .dwtag  DW_TAG_base_type
    1883                    .dwattr $C$DW$T$17, DW_AT_encoding(DW_ATE_float)
    1884                    .dwattr $C$DW$T$17, DW_AT_name("double")
    1885                    .dwattr $C$DW$T$17, DW_AT_byte_size(0x08)
    1886            
    1887            $C$DW$T$159     .dwtag  DW_TAG_typedef
    1888                    .dwattr $C$DW$T$159, DW_AT_name("__double_t")
    1889                    .dwattr $C$DW$T$159, DW_AT_type(*$C$DW$T$17)
    1890                    .dwattr $C$DW$T$159, DW_AT_language(DW_LANG_C)
    1891                    .dwattr $C$DW$T$159, DW_AT_decl_file("C:/ti/ccs1110/ccs/tools/compiler/ti-cgt-msp430_21.6.1.LT
    1892                    .dwattr $C$DW$T$159, DW_AT_decl_line(0x4c)
    1893                    .dwattr $C$DW$T$159, DW_AT_decl_column(0x11)
    1894            
    1895            $C$DW$T$18      .dwtag  DW_TAG_base_type
    1896                    .dwattr $C$DW$T$18, DW_AT_encoding(DW_ATE_float)
    1897                    .dwattr $C$DW$T$18, DW_AT_name("long double")
    1898                    .dwattr $C$DW$T$18, DW_AT_byte_size(0x08)
    1899            
    1900            $C$DW$T$161     .dwtag  DW_TAG_pointer_type
    1901                    .dwattr $C$DW$T$161, DW_AT_type(*$C$DW$T$6)
    1902                    .dwattr $C$DW$T$161, DW_AT_address_class(0x14)
    1903            
    1904            $C$DW$T$162     .dwtag  DW_TAG_typedef
    1905                    .dwattr $C$DW$T$162, DW_AT_name("__va_list")
    1906                    .dwattr $C$DW$T$162, DW_AT_type(*$C$DW$T$161)
    1907                    .dwattr $C$DW$T$162, DW_AT_language(DW_LANG_C)
    1908                    .dwattr $C$DW$T$162, DW_AT_decl_file("C:/ti/ccs1110/ccs/tools/compiler/ti-cgt-msp430_21.6.1.LT
    1909                    .dwattr $C$DW$T$162, DW_AT_decl_line(0x92)
    1910                    .dwattr $C$DW$T$162, DW_AT_decl_column(0x0f)
    1911            
    1912            
    1913            $C$DW$T$19      .dwtag  DW_TAG_structure_type
    1914                    .dwattr $C$DW$T$19, DW_AT_name("__mq")
    1915                    .dwattr $C$DW$T$19, DW_AT_declaration
    1916                    .dwattr $C$DW$T$19, DW_AT_decl_file("C:/ti/ccs1110/ccs/tools/compiler/ti-cgt-msp430_21.6.1.LTS
    1917                    .dwattr $C$DW$T$19, DW_AT_decl_line(0x4c)
    1918                    .dwattr $C$DW$T$19, DW_AT_decl_column(0x10)
    1919                    .dwendtag $C$DW$T$19
    1920            
    1921            $C$DW$T$163     .dwtag  DW_TAG_pointer_type
MSP430 Assembler PC v21.6.1 Tue Dec 20 13:45:53 2022

Copyright (c) 2003-2018 Texas Instruments Incorporated
tlv.asm                                                              PAGE   37

    1922                    .dwattr $C$DW$T$163, DW_AT_type(*$C$DW$T$19)
    1923                    .dwattr $C$DW$T$163, DW_AT_address_class(0x14)
    1924            
    1925            $C$DW$T$164     .dwtag  DW_TAG_typedef
    1926                    .dwattr $C$DW$T$164, DW_AT_name("__mqd_t")
    1927                    .dwattr $C$DW$T$164, DW_AT_type(*$C$DW$T$163)
    1928                    .dwattr $C$DW$T$164, DW_AT_language(DW_LANG_C)
    1929                    .dwattr $C$DW$T$164, DW_AT_decl_file("C:/ti/ccs1110/ccs/tools/compiler/ti-cgt-msp430_21.6.1.LT
    1930                    .dwattr $C$DW$T$164, DW_AT_decl_line(0x4c)
    1931                    .dwattr $C$DW$T$164, DW_AT_decl_column(0x16)
    1932            
    1933            
    1934            $C$DW$T$20      .dwtag  DW_TAG_structure_type
    1935                    .dwattr $C$DW$T$20, DW_AT_name("__timer")
    1936                    .dwattr $C$DW$T$20, DW_AT_declaration
    1937                    .dwattr $C$DW$T$20, DW_AT_decl_file("C:/ti/ccs1110/ccs/tools/compiler/ti-cgt-msp430_21.6.1.LTS
    1938                    .dwattr $C$DW$T$20, DW_AT_decl_line(0x4b)
    1939                    .dwattr $C$DW$T$20, DW_AT_decl_column(0x10)
    1940                    .dwendtag $C$DW$T$20
    1941            
    1942            $C$DW$T$165     .dwtag  DW_TAG_pointer_type
    1943                    .dwattr $C$DW$T$165, DW_AT_type(*$C$DW$T$20)
    1944                    .dwattr $C$DW$T$165, DW_AT_address_class(0x14)
    1945            
    1946            $C$DW$T$166     .dwtag  DW_TAG_typedef
    1947                    .dwattr $C$DW$T$166, DW_AT_name("__timer_t")
    1948                    .dwattr $C$DW$T$166, DW_AT_type(*$C$DW$T$165)
    1949                    .dwattr $C$DW$T$166, DW_AT_language(DW_LANG_C)
    1950                    .dwattr $C$DW$T$166, DW_AT_decl_file("C:/ti/ccs1110/ccs/tools/compiler/ti-cgt-msp430_21.6.1.LT
    1951                    .dwattr $C$DW$T$166, DW_AT_decl_line(0x4b)
    1952                    .dwattr $C$DW$T$166, DW_AT_decl_column(0x19)
    1953            
    1954            
    1955            $C$DW$T$24      .dwtag  DW_TAG_structure_type
    1956                    .dwattr $C$DW$T$24, DW_AT_name("s_Peripheral_Memory_Data")
    1957                    .dwattr $C$DW$T$24, DW_AT_byte_size(0x08)
    1958            $C$DW$47        .dwtag  DW_TAG_member
    1959                    .dwattr $C$DW$47, DW_AT_type(*$C$DW$T$23)
    1960                    .dwattr $C$DW$47, DW_AT_name("memory_1")
    1961                    .dwattr $C$DW$47, DW_AT_TI_symbol_name("memory_1")
    1962                    .dwattr $C$DW$47, DW_AT_data_member_location[DW_OP_plus_uconst 0x0]
    1963                    .dwattr $C$DW$47, DW_AT_accessibility(DW_ACCESS_public)
    1964                    .dwattr $C$DW$47, DW_AT_decl_file("..\MP430DriverLib\driverlib\MSP430F5xx_6xx\tlv.h")
    1965                    .dwattr $C$DW$47, DW_AT_decl_line(0x3f)
    1966                    .dwattr $C$DW$47, DW_AT_decl_column(0x0e)
    1967            
    1968            $C$DW$48        .dwtag  DW_TAG_member
    1969                    .dwattr $C$DW$48, DW_AT_type(*$C$DW$T$23)
    1970                    .dwattr $C$DW$48, DW_AT_name("memory_2")
    1971                    .dwattr $C$DW$48, DW_AT_TI_symbol_name("memory_2")
    1972                    .dwattr $C$DW$48, DW_AT_data_member_location[DW_OP_plus_uconst 0x2]
    1973                    .dwattr $C$DW$48, DW_AT_accessibility(DW_ACCESS_public)
    1974                    .dwattr $C$DW$48, DW_AT_decl_file("..\MP430DriverLib\driverlib\MSP430F5xx_6xx\tlv.h")
    1975                    .dwattr $C$DW$48, DW_AT_decl_line(0x40)
    1976                    .dwattr $C$DW$48, DW_AT_decl_column(0x0e)
MSP430 Assembler PC v21.6.1 Tue Dec 20 13:45:53 2022

Copyright (c) 2003-2018 Texas Instruments Incorporated
tlv.asm                                                              PAGE   38

    1977            
    1978            $C$DW$49        .dwtag  DW_TAG_member
    1979                    .dwattr $C$DW$49, DW_AT_type(*$C$DW$T$23)
    1980                    .dwattr $C$DW$49, DW_AT_name("memory_3")
    1981                    .dwattr $C$DW$49, DW_AT_TI_symbol_name("memory_3")
    1982                    .dwattr $C$DW$49, DW_AT_data_member_location[DW_OP_plus_uconst 0x4]
    1983                    .dwattr $C$DW$49, DW_AT_accessibility(DW_ACCESS_public)
    1984                    .dwattr $C$DW$49, DW_AT_decl_file("..\MP430DriverLib\driverlib\MSP430F5xx_6xx\tlv.h")
    1985                    .dwattr $C$DW$49, DW_AT_decl_line(0x41)
    1986                    .dwattr $C$DW$49, DW_AT_decl_column(0x0e)
    1987            
    1988            $C$DW$50        .dwtag  DW_TAG_member
    1989                    .dwattr $C$DW$50, DW_AT_type(*$C$DW$T$23)
    1990                    .dwattr $C$DW$50, DW_AT_name("memory_4")
    1991                    .dwattr $C$DW$50, DW_AT_TI_symbol_name("memory_4")
    1992                    .dwattr $C$DW$50, DW_AT_data_member_location[DW_OP_plus_uconst 0x6]
    1993                    .dwattr $C$DW$50, DW_AT_accessibility(DW_ACCESS_public)
    1994                    .dwattr $C$DW$50, DW_AT_decl_file("..\MP430DriverLib\driverlib\MSP430F5xx_6xx\tlv.h")
    1995                    .dwattr $C$DW$50, DW_AT_decl_line(0x42)
    1996                    .dwattr $C$DW$50, DW_AT_decl_column(0x0e)
    1997            
    1998                    .dwattr $C$DW$T$24, DW_AT_decl_file("..\MP430DriverLib\driverlib\MSP430F5xx_6xx\tlv.h")
    1999                    .dwattr $C$DW$T$24, DW_AT_decl_line(0x3e)
    2000                    .dwattr $C$DW$T$24, DW_AT_decl_column(0x08)
    2001                    .dwendtag $C$DW$T$24
    2002            
    2003            
    2004            $C$DW$T$27      .dwtag  DW_TAG_structure_type
    2005                    .dwattr $C$DW$T$27, DW_AT_name("s_TLV_ADC_Cal_Data")
    2006                    .dwattr $C$DW$T$27, DW_AT_byte_size(0x10)
    2007            $C$DW$51        .dwtag  DW_TAG_member
    2008                    .dwattr $C$DW$51, DW_AT_type(*$C$DW$T$23)
    2009                    .dwattr $C$DW$51, DW_AT_name("adc_gain_factor")
    2010                    .dwattr $C$DW$51, DW_AT_TI_symbol_name("adc_gain_factor")
    2011                    .dwattr $C$DW$51, DW_AT_data_member_location[DW_OP_plus_uconst 0x0]
    2012                    .dwattr $C$DW$51, DW_AT_accessibility(DW_ACCESS_public)
    2013                    .dwattr $C$DW$51, DW_AT_decl_file("..\MP430DriverLib\driverlib\MSP430F5xx_6xx\tlv.h")
    2014                    .dwattr $C$DW$51, DW_AT_decl_line(0x27)
    2015                    .dwattr $C$DW$51, DW_AT_decl_column(0x0e)
    2016            
    2017            $C$DW$52        .dwtag  DW_TAG_member
    2018                    .dwattr $C$DW$52, DW_AT_type(*$C$DW$T$26)
    2019                    .dwattr $C$DW$52, DW_AT_name("adc_offset")
    2020                    .dwattr $C$DW$52, DW_AT_TI_symbol_name("adc_offset")
    2021                    .dwattr $C$DW$52, DW_AT_data_member_location[DW_OP_plus_uconst 0x2]
    2022                    .dwattr $C$DW$52, DW_AT_accessibility(DW_ACCESS_public)
    2023                    .dwattr $C$DW$52, DW_AT_decl_file("..\MP430DriverLib\driverlib\MSP430F5xx_6xx\tlv.h")
    2024                    .dwattr $C$DW$52, DW_AT_decl_line(0x28)
    2025                    .dwattr $C$DW$52, DW_AT_decl_column(0x0d)
    2026            
    2027            $C$DW$53        .dwtag  DW_TAG_member
    2028                    .dwattr $C$DW$53, DW_AT_type(*$C$DW$T$23)
    2029                    .dwattr $C$DW$53, DW_AT_name("adc_ref15_30_temp")
    2030                    .dwattr $C$DW$53, DW_AT_TI_symbol_name("adc_ref15_30_temp")
    2031                    .dwattr $C$DW$53, DW_AT_data_member_location[DW_OP_plus_uconst 0x4]
MSP430 Assembler PC v21.6.1 Tue Dec 20 13:45:53 2022

Copyright (c) 2003-2018 Texas Instruments Incorporated
tlv.asm                                                              PAGE   39

    2032                    .dwattr $C$DW$53, DW_AT_accessibility(DW_ACCESS_public)
    2033                    .dwattr $C$DW$53, DW_AT_decl_file("..\MP430DriverLib\driverlib\MSP430F5xx_6xx\tlv.h")
    2034                    .dwattr $C$DW$53, DW_AT_decl_line(0x29)
    2035                    .dwattr $C$DW$53, DW_AT_decl_column(0x0e)
    2036            
    2037            $C$DW$54        .dwtag  DW_TAG_member
    2038                    .dwattr $C$DW$54, DW_AT_type(*$C$DW$T$23)
    2039                    .dwattr $C$DW$54, DW_AT_name("adc_ref15_85_temp")
    2040                    .dwattr $C$DW$54, DW_AT_TI_symbol_name("adc_ref15_85_temp")
    2041                    .dwattr $C$DW$54, DW_AT_data_member_location[DW_OP_plus_uconst 0x6]
    2042                    .dwattr $C$DW$54, DW_AT_accessibility(DW_ACCESS_public)
    2043                    .dwattr $C$DW$54, DW_AT_decl_file("..\MP430DriverLib\driverlib\MSP430F5xx_6xx\tlv.h")
    2044                    .dwattr $C$DW$54, DW_AT_decl_line(0x2a)
    2045                    .dwattr $C$DW$54, DW_AT_decl_column(0x0e)
    2046            
    2047            $C$DW$55        .dwtag  DW_TAG_member
    2048                    .dwattr $C$DW$55, DW_AT_type(*$C$DW$T$23)
    2049                    .dwattr $C$DW$55, DW_AT_name("adc_ref20_30_temp")
    2050                    .dwattr $C$DW$55, DW_AT_TI_symbol_name("adc_ref20_30_temp")
    2051                    .dwattr $C$DW$55, DW_AT_data_member_location[DW_OP_plus_uconst 0x8]
    2052                    .dwattr $C$DW$55, DW_AT_accessibility(DW_ACCESS_public)
    2053                    .dwattr $C$DW$55, DW_AT_decl_file("..\MP430DriverLib\driverlib\MSP430F5xx_6xx\tlv.h")
    2054                    .dwattr $C$DW$55, DW_AT_decl_line(0x2b)
    2055                    .dwattr $C$DW$55, DW_AT_decl_column(0x0e)
    2056            
    2057            $C$DW$56        .dwtag  DW_TAG_member
    2058                    .dwattr $C$DW$56, DW_AT_type(*$C$DW$T$23)
    2059                    .dwattr $C$DW$56, DW_AT_name("adc_ref20_85_temp")
    2060                    .dwattr $C$DW$56, DW_AT_TI_symbol_name("adc_ref20_85_temp")
    2061                    .dwattr $C$DW$56, DW_AT_data_member_location[DW_OP_plus_uconst 0xa]
    2062                    .dwattr $C$DW$56, DW_AT_accessibility(DW_ACCESS_public)
    2063                    .dwattr $C$DW$56, DW_AT_decl_file("..\MP430DriverLib\driverlib\MSP430F5xx_6xx\tlv.h")
    2064                    .dwattr $C$DW$56, DW_AT_decl_line(0x2c)
    2065                    .dwattr $C$DW$56, DW_AT_decl_column(0x0e)
    2066            
    2067            $C$DW$57        .dwtag  DW_TAG_member
    2068                    .dwattr $C$DW$57, DW_AT_type(*$C$DW$T$23)
    2069                    .dwattr $C$DW$57, DW_AT_name("adc_ref25_30_temp")
    2070                    .dwattr $C$DW$57, DW_AT_TI_symbol_name("adc_ref25_30_temp")
    2071                    .dwattr $C$DW$57, DW_AT_data_member_location[DW_OP_plus_uconst 0xc]
    2072                    .dwattr $C$DW$57, DW_AT_accessibility(DW_ACCESS_public)
    2073                    .dwattr $C$DW$57, DW_AT_decl_file("..\MP430DriverLib\driverlib\MSP430F5xx_6xx\tlv.h")
    2074                    .dwattr $C$DW$57, DW_AT_decl_line(0x2d)
    2075                    .dwattr $C$DW$57, DW_AT_decl_column(0x0e)
    2076            
    2077            $C$DW$58        .dwtag  DW_TAG_member
    2078                    .dwattr $C$DW$58, DW_AT_type(*$C$DW$T$23)
    2079                    .dwattr $C$DW$58, DW_AT_name("adc_ref25_85_temp")
    2080                    .dwattr $C$DW$58, DW_AT_TI_symbol_name("adc_ref25_85_temp")
    2081                    .dwattr $C$DW$58, DW_AT_data_member_location[DW_OP_plus_uconst 0xe]
    2082                    .dwattr $C$DW$58, DW_AT_accessibility(DW_ACCESS_public)
    2083                    .dwattr $C$DW$58, DW_AT_decl_file("..\MP430DriverLib\driverlib\MSP430F5xx_6xx\tlv.h")
    2084                    .dwattr $C$DW$58, DW_AT_decl_line(0x2e)
    2085                    .dwattr $C$DW$58, DW_AT_decl_column(0x0e)
    2086            
MSP430 Assembler PC v21.6.1 Tue Dec 20 13:45:53 2022

Copyright (c) 2003-2018 Texas Instruments Incorporated
tlv.asm                                                              PAGE   40

    2087                    .dwattr $C$DW$T$27, DW_AT_decl_file("..\MP430DriverLib\driverlib\MSP430F5xx_6xx\tlv.h")
    2088                    .dwattr $C$DW$T$27, DW_AT_decl_line(0x26)
    2089                    .dwattr $C$DW$T$27, DW_AT_decl_column(0x08)
    2090                    .dwendtag $C$DW$T$27
    2091            
    2092            
    2093            $C$DW$T$30      .dwtag  DW_TAG_structure_type
    2094                    .dwattr $C$DW$T$30, DW_AT_name("s_TLV_Die_Record")
    2095                    .dwattr $C$DW$T$30, DW_AT_byte_size(0x0a)
    2096            $C$DW$59        .dwtag  DW_TAG_member
    2097                    .dwattr $C$DW$59, DW_AT_type(*$C$DW$T$29)
    2098                    .dwattr $C$DW$59, DW_AT_name("wafer_id")
    2099                    .dwattr $C$DW$59, DW_AT_TI_symbol_name("wafer_id")
    2100                    .dwattr $C$DW$59, DW_AT_data_member_location[DW_OP_plus_uconst 0x0]
    2101                    .dwattr $C$DW$59, DW_AT_accessibility(DW_ACCESS_public)
    2102                    .dwattr $C$DW$59, DW_AT_decl_file("..\MP430DriverLib\driverlib\MSP430F5xx_6xx\tlv.h")
    2103                    .dwattr $C$DW$59, DW_AT_decl_line(0x20)
    2104                    .dwattr $C$DW$59, DW_AT_decl_column(0x0e)
    2105            
    2106            $C$DW$60        .dwtag  DW_TAG_member
    2107                    .dwattr $C$DW$60, DW_AT_type(*$C$DW$T$23)
    2108                    .dwattr $C$DW$60, DW_AT_name("die_x_position")
    2109                    .dwattr $C$DW$60, DW_AT_TI_symbol_name("die_x_position")
    2110                    .dwattr $C$DW$60, DW_AT_data_member_location[DW_OP_plus_uconst 0x4]
    2111                    .dwattr $C$DW$60, DW_AT_accessibility(DW_ACCESS_public)
    2112                    .dwattr $C$DW$60, DW_AT_decl_file("..\MP430DriverLib\driverlib\MSP430F5xx_6xx\tlv.h")
    2113                    .dwattr $C$DW$60, DW_AT_decl_line(0x21)
    2114                    .dwattr $C$DW$60, DW_AT_decl_column(0x0e)
    2115            
    2116            $C$DW$61        .dwtag  DW_TAG_member
    2117                    .dwattr $C$DW$61, DW_AT_type(*$C$DW$T$23)
    2118                    .dwattr $C$DW$61, DW_AT_name("die_y_position")
    2119                    .dwattr $C$DW$61, DW_AT_TI_symbol_name("die_y_position")
    2120                    .dwattr $C$DW$61, DW_AT_data_member_location[DW_OP_plus_uconst 0x6]
    2121                    .dwattr $C$DW$61, DW_AT_accessibility(DW_ACCESS_public)
    2122                    .dwattr $C$DW$61, DW_AT_decl_file("..\MP430DriverLib\driverlib\MSP430F5xx_6xx\tlv.h")
    2123                    .dwattr $C$DW$61, DW_AT_decl_line(0x22)
    2124                    .dwattr $C$DW$61, DW_AT_decl_column(0x0e)
    2125            
    2126            $C$DW$62        .dwtag  DW_TAG_member
    2127                    .dwattr $C$DW$62, DW_AT_type(*$C$DW$T$23)
    2128                    .dwattr $C$DW$62, DW_AT_name("test_results")
    2129                    .dwattr $C$DW$62, DW_AT_TI_symbol_name("test_results")
    2130                    .dwattr $C$DW$62, DW_AT_data_member_location[DW_OP_plus_uconst 0x8]
    2131                    .dwattr $C$DW$62, DW_AT_accessibility(DW_ACCESS_public)
    2132                    .dwattr $C$DW$62, DW_AT_decl_file("..\MP430DriverLib\driverlib\MSP430F5xx_6xx\tlv.h")
    2133                    .dwattr $C$DW$62, DW_AT_decl_line(0x23)
    2134                    .dwattr $C$DW$62, DW_AT_decl_column(0x0e)
    2135            
    2136                    .dwattr $C$DW$T$30, DW_AT_decl_file("..\MP430DriverLib\driverlib\MSP430F5xx_6xx\tlv.h")
    2137                    .dwattr $C$DW$T$30, DW_AT_decl_line(0x1f)
    2138                    .dwattr $C$DW$T$30, DW_AT_decl_column(0x08)
    2139                    .dwendtag $C$DW$T$30
    2140            
    2141            
MSP430 Assembler PC v21.6.1 Tue Dec 20 13:45:53 2022

Copyright (c) 2003-2018 Texas Instruments Incorporated
tlv.asm                                                              PAGE   41

    2142            $C$DW$T$31      .dwtag  DW_TAG_structure_type
    2143                    .dwattr $C$DW$T$31, DW_AT_name("s_TLV_REF_Cal_Data")
    2144                    .dwattr $C$DW$T$31, DW_AT_byte_size(0x06)
    2145            $C$DW$63        .dwtag  DW_TAG_member
    2146                    .dwattr $C$DW$63, DW_AT_type(*$C$DW$T$23)
    2147                    .dwattr $C$DW$63, DW_AT_name("ref_ref15")
    2148                    .dwattr $C$DW$63, DW_AT_TI_symbol_name("ref_ref15")
    2149                    .dwattr $C$DW$63, DW_AT_data_member_location[DW_OP_plus_uconst 0x0]
    2150                    .dwattr $C$DW$63, DW_AT_accessibility(DW_ACCESS_public)
    2151                    .dwattr $C$DW$63, DW_AT_decl_file("..\MP430DriverLib\driverlib\MSP430F5xx_6xx\tlv.h")
    2152                    .dwattr $C$DW$63, DW_AT_decl_line(0x39)
    2153                    .dwattr $C$DW$63, DW_AT_decl_column(0x0e)
    2154            
    2155            $C$DW$64        .dwtag  DW_TAG_member
    2156                    .dwattr $C$DW$64, DW_AT_type(*$C$DW$T$23)
    2157                    .dwattr $C$DW$64, DW_AT_name("ref_ref20")
    2158                    .dwattr $C$DW$64, DW_AT_TI_symbol_name("ref_ref20")
    2159                    .dwattr $C$DW$64, DW_AT_data_member_location[DW_OP_plus_uconst 0x2]
    2160                    .dwattr $C$DW$64, DW_AT_accessibility(DW_ACCESS_public)
    2161                    .dwattr $C$DW$64, DW_AT_decl_file("..\MP430DriverLib\driverlib\MSP430F5xx_6xx\tlv.h")
    2162                    .dwattr $C$DW$64, DW_AT_decl_line(0x3a)
    2163                    .dwattr $C$DW$64, DW_AT_decl_column(0x0e)
    2164            
    2165            $C$DW$65        .dwtag  DW_TAG_member
    2166                    .dwattr $C$DW$65, DW_AT_type(*$C$DW$T$23)
    2167                    .dwattr $C$DW$65, DW_AT_name("ref_ref25")
    2168                    .dwattr $C$DW$65, DW_AT_TI_symbol_name("ref_ref25")
    2169                    .dwattr $C$DW$65, DW_AT_data_member_location[DW_OP_plus_uconst 0x4]
    2170                    .dwattr $C$DW$65, DW_AT_accessibility(DW_ACCESS_public)
    2171                    .dwattr $C$DW$65, DW_AT_decl_file("..\MP430DriverLib\driverlib\MSP430F5xx_6xx\tlv.h")
    2172                    .dwattr $C$DW$65, DW_AT_decl_line(0x3b)
    2173                    .dwattr $C$DW$65, DW_AT_decl_column(0x0e)
    2174            
    2175                    .dwattr $C$DW$T$31, DW_AT_decl_file("..\MP430DriverLib\driverlib\MSP430F5xx_6xx\tlv.h")
    2176                    .dwattr $C$DW$T$31, DW_AT_decl_line(0x38)
    2177                    .dwattr $C$DW$T$31, DW_AT_decl_column(0x08)
    2178                    .dwendtag $C$DW$T$31
    2179            
    2180            
    2181            $C$DW$T$32      .dwtag  DW_TAG_structure_type
    2182                    .dwattr $C$DW$T$32, DW_AT_name("s_TLV_Timer_D_Cal_Data")
    2183                    .dwattr $C$DW$T$32, DW_AT_byte_size(0x08)
    2184            $C$DW$66        .dwtag  DW_TAG_member
    2185                    .dwattr $C$DW$66, DW_AT_type(*$C$DW$T$23)
    2186                    .dwattr $C$DW$66, DW_AT_name("TDH0CTL1_64")
    2187                    .dwattr $C$DW$66, DW_AT_TI_symbol_name("TDH0CTL1_64")
    2188                    .dwattr $C$DW$66, DW_AT_data_member_location[DW_OP_plus_uconst 0x0]
    2189                    .dwattr $C$DW$66, DW_AT_accessibility(DW_ACCESS_public)
    2190                    .dwattr $C$DW$66, DW_AT_decl_file("..\MP430DriverLib\driverlib\MSP430F5xx_6xx\tlv.h")
    2191                    .dwattr $C$DW$66, DW_AT_decl_line(0x32)
    2192                    .dwattr $C$DW$66, DW_AT_decl_column(0x0e)
    2193            
    2194            $C$DW$67        .dwtag  DW_TAG_member
    2195                    .dwattr $C$DW$67, DW_AT_type(*$C$DW$T$23)
    2196                    .dwattr $C$DW$67, DW_AT_name("TDH0CTL1_128")
MSP430 Assembler PC v21.6.1 Tue Dec 20 13:45:53 2022

Copyright (c) 2003-2018 Texas Instruments Incorporated
tlv.asm                                                              PAGE   42

    2197                    .dwattr $C$DW$67, DW_AT_TI_symbol_name("TDH0CTL1_128")
    2198                    .dwattr $C$DW$67, DW_AT_data_member_location[DW_OP_plus_uconst 0x2]
    2199                    .dwattr $C$DW$67, DW_AT_accessibility(DW_ACCESS_public)
    2200                    .dwattr $C$DW$67, DW_AT_decl_file("..\MP430DriverLib\driverlib\MSP430F5xx_6xx\tlv.h")
    2201                    .dwattr $C$DW$67, DW_AT_decl_line(0x33)
    2202                    .dwattr $C$DW$67, DW_AT_decl_column(0x0e)
    2203            
    2204            $C$DW$68        .dwtag  DW_TAG_member
    2205                    .dwattr $C$DW$68, DW_AT_type(*$C$DW$T$23)
    2206                    .dwattr $C$DW$68, DW_AT_name("TDH0CTL1_200")
    2207                    .dwattr $C$DW$68, DW_AT_TI_symbol_name("TDH0CTL1_200")
    2208                    .dwattr $C$DW$68, DW_AT_data_member_location[DW_OP_plus_uconst 0x4]
    2209                    .dwattr $C$DW$68, DW_AT_accessibility(DW_ACCESS_public)
    2210                    .dwattr $C$DW$68, DW_AT_decl_file("..\MP430DriverLib\driverlib\MSP430F5xx_6xx\tlv.h")
    2211                    .dwattr $C$DW$68, DW_AT_decl_line(0x34)
    2212                    .dwattr $C$DW$68, DW_AT_decl_column(0x0e)
    2213            
    2214            $C$DW$69        .dwtag  DW_TAG_member
    2215                    .dwattr $C$DW$69, DW_AT_type(*$C$DW$T$23)
    2216                    .dwattr $C$DW$69, DW_AT_name("TDH0CTL1_256")
    2217                    .dwattr $C$DW$69, DW_AT_TI_symbol_name("TDH0CTL1_256")
    2218                    .dwattr $C$DW$69, DW_AT_data_member_location[DW_OP_plus_uconst 0x6]
    2219                    .dwattr $C$DW$69, DW_AT_accessibility(DW_ACCESS_public)
    2220                    .dwattr $C$DW$69, DW_AT_decl_file("..\MP430DriverLib\driverlib\MSP430F5xx_6xx\tlv.h")
    2221                    .dwattr $C$DW$69, DW_AT_decl_line(0x35)
    2222                    .dwattr $C$DW$69, DW_AT_decl_column(0x0e)
    2223            
    2224                    .dwattr $C$DW$T$32, DW_AT_decl_file("..\MP430DriverLib\driverlib\MSP430F5xx_6xx\tlv.h")
    2225                    .dwattr $C$DW$T$32, DW_AT_decl_line(0x31)
    2226                    .dwattr $C$DW$T$32, DW_AT_decl_column(0x08)
    2227                    .dwendtag $C$DW$T$32
    2228            
    2229                    .dwattr $C$DW$CU, DW_AT_language(DW_LANG_C)
    2230            
    2231            ;***************************************************************
    2232            ;* DWARF CIE ENTRIES                                           *
    2233            ;***************************************************************
    2234            
    2235            $C$DW$CIE       .dwcie 16
    2236                    .dwcfi  cfa_register, 1
    2237                    .dwcfi  cfa_offset, 0
    2238                    .dwcfi  same_value, 0
    2239                    .dwcfi  same_value, 1
    2240                    .dwcfi  same_value, 3
    2241                    .dwcfi  same_value, 4
    2242                    .dwcfi  same_value, 5
    2243                    .dwcfi  same_value, 6
    2244                    .dwcfi  same_value, 7
    2245                    .dwcfi  same_value, 8
    2246                    .dwcfi  same_value, 9
    2247                    .dwcfi  same_value, 10
    2248                    .dwendentry
    2249            
    2250            ;***************************************************************
    2251            ;* DWARF REGISTER MAP                                          *
MSP430 Assembler PC v21.6.1 Tue Dec 20 13:45:53 2022

Copyright (c) 2003-2018 Texas Instruments Incorporated
tlv.asm                                                              PAGE   43

    2252            ;***************************************************************
    2253            
    2254            $C$DW$70        .dwtag  DW_TAG_TI_assign_register
    2255                    .dwattr $C$DW$70, DW_AT_name("PC")
    2256                    .dwattr $C$DW$70, DW_AT_location[DW_OP_reg0]
    2257            
    2258            $C$DW$71        .dwtag  DW_TAG_TI_assign_register
    2259                    .dwattr $C$DW$71, DW_AT_name("SP")
    2260                    .dwattr $C$DW$71, DW_AT_location[DW_OP_reg1]
    2261            
    2262            $C$DW$72        .dwtag  DW_TAG_TI_assign_register
    2263                    .dwattr $C$DW$72, DW_AT_name("SR")
    2264                    .dwattr $C$DW$72, DW_AT_location[DW_OP_reg2]
    2265            
    2266            $C$DW$73        .dwtag  DW_TAG_TI_assign_register
    2267                    .dwattr $C$DW$73, DW_AT_name("CG")
    2268                    .dwattr $C$DW$73, DW_AT_location[DW_OP_reg3]
    2269            
    2270            $C$DW$74        .dwtag  DW_TAG_TI_assign_register
    2271                    .dwattr $C$DW$74, DW_AT_name("r4")
    2272                    .dwattr $C$DW$74, DW_AT_location[DW_OP_reg4]
    2273            
    2274            $C$DW$75        .dwtag  DW_TAG_TI_assign_register
    2275                    .dwattr $C$DW$75, DW_AT_name("r5")
    2276                    .dwattr $C$DW$75, DW_AT_location[DW_OP_reg5]
    2277            
    2278            $C$DW$76        .dwtag  DW_TAG_TI_assign_register
    2279                    .dwattr $C$DW$76, DW_AT_name("r6")
    2280                    .dwattr $C$DW$76, DW_AT_location[DW_OP_reg6]
    2281            
    2282            $C$DW$77        .dwtag  DW_TAG_TI_assign_register
    2283                    .dwattr $C$DW$77, DW_AT_name("r7")
    2284                    .dwattr $C$DW$77, DW_AT_location[DW_OP_reg7]
    2285            
    2286            $C$DW$78        .dwtag  DW_TAG_TI_assign_register
    2287                    .dwattr $C$DW$78, DW_AT_name("r8")
    2288                    .dwattr $C$DW$78, DW_AT_location[DW_OP_reg8]
    2289            
    2290            $C$DW$79        .dwtag  DW_TAG_TI_assign_register
    2291                    .dwattr $C$DW$79, DW_AT_name("r9")
    2292                    .dwattr $C$DW$79, DW_AT_location[DW_OP_reg9]
    2293            
    2294            $C$DW$80        .dwtag  DW_TAG_TI_assign_register
    2295                    .dwattr $C$DW$80, DW_AT_name("r10")
    2296                    .dwattr $C$DW$80, DW_AT_location[DW_OP_reg10]
    2297            
    2298            $C$DW$81        .dwtag  DW_TAG_TI_assign_register
    2299                    .dwattr $C$DW$81, DW_AT_name("r11")
    2300                    .dwattr $C$DW$81, DW_AT_location[DW_OP_reg11]
    2301            
    2302            $C$DW$82        .dwtag  DW_TAG_TI_assign_register
    2303                    .dwattr $C$DW$82, DW_AT_name("r12")
    2304                    .dwattr $C$DW$82, DW_AT_location[DW_OP_reg12]
    2305            
    2306            $C$DW$83        .dwtag  DW_TAG_TI_assign_register
MSP430 Assembler PC v21.6.1 Tue Dec 20 13:45:53 2022

Copyright (c) 2003-2018 Texas Instruments Incorporated
tlv.asm                                                              PAGE   44

    2307                    .dwattr $C$DW$83, DW_AT_name("r13")
    2308                    .dwattr $C$DW$83, DW_AT_location[DW_OP_reg13]
    2309            
    2310            $C$DW$84        .dwtag  DW_TAG_TI_assign_register
    2311                    .dwattr $C$DW$84, DW_AT_name("r14")
    2312                    .dwattr $C$DW$84, DW_AT_location[DW_OP_reg14]
    2313            
    2314            $C$DW$85        .dwtag  DW_TAG_TI_assign_register
    2315                    .dwattr $C$DW$85, DW_AT_name("r15")
    2316                    .dwattr $C$DW$85, DW_AT_location[DW_OP_reg15]
    2317            
    2318            $C$DW$86        .dwtag  DW_TAG_TI_assign_register
    2319                    .dwattr $C$DW$86, DW_AT_name("CIE_RETA")
    2320                    .dwattr $C$DW$86, DW_AT_location[DW_OP_reg16]
    2321            
    2322                    .dwendtag $C$DW$CU
    2323            

No Assembly Errors, No Assembly Warnings
