MSP430 Assembler PC v21.6.1 Tue Dec 20 13:45:55 2022

Copyright (c) 2003-2018 Texas Instruments Incorporated
usci_b_i2c.asm                                                       PAGE    1

       1            ;******************************************************************************
       2            ;* MSP430 G3 C/C++ Codegen                                              PC v21.6.1.LTS *
       3            ;* Date/Time created: Tue Dec 20 13:45:54 2022                                *
       4            ;******************************************************************************
       5                    .compiler_opts --abi=eabi --diag_wrap=off --hll_source=on --mem_model:code=large --mem_model:d
       6            
       7            $C$DW$CU        .dwtag  DW_TAG_compile_unit
       8                    .dwattr $C$DW$CU, DW_AT_name("../MP430DriverLib/driverlib/MSP430F5xx_6xx/usci_b_i2c.c")
       9                    .dwattr $C$DW$CU, DW_AT_producer("TI MSP430 G3 C/C++ Codegen PC v21.6.1.LTS Copyright (c) 2003
      10                    .dwattr $C$DW$CU, DW_AT_TI_version(0x01)
      11                    .dwattr $C$DW$CU, DW_AT_comp_dir("C:\Users\MCourson\workspace_v11\MZERO_HB50Board\Debug")
      12            
      13            $C$DW$1 .dwtag  DW_TAG_subprogram
      14                    .dwattr $C$DW$1, DW_AT_name("__disable_interrupt")
      15                    .dwattr $C$DW$1, DW_AT_TI_symbol_name("__disable_interrupt")
      16                    .dwattr $C$DW$1, DW_AT_declaration
      17                    .dwattr $C$DW$1, DW_AT_external
      18                    .dwendtag $C$DW$1
      19            
      20            
      21            $C$DW$2 .dwtag  DW_TAG_subprogram
      22                    .dwattr $C$DW$2, DW_AT_name("__bis_SR_register")
      23                    .dwattr $C$DW$2, DW_AT_TI_symbol_name("__bis_SR_register")
      24                    .dwattr $C$DW$2, DW_AT_type(*$C$DW$T$11)
      25                    .dwattr $C$DW$2, DW_AT_declaration
      26                    .dwattr $C$DW$2, DW_AT_external
      27            $C$DW$3 .dwtag  DW_TAG_formal_parameter
      28                    .dwattr $C$DW$3, DW_AT_type(*$C$DW$T$9)
      29            
      30                    .dwendtag $C$DW$2
      31            
      32            ;       C:\ti\ccs1110\ccs\tools\compiler\ti-cgt-msp430_21.6.1.LTS\bin\opt430.exe C:\\Users\\MCourson\\
      33 000000               .sect   ".text:USCI_B_I2C_slavePutData"
      34                    .clink
      35                    .global USCI_B_I2C_slavePutData
      36            
      37            $C$DW$4 .dwtag  DW_TAG_subprogram
      38                    .dwattr $C$DW$4, DW_AT_name("USCI_B_I2C_slavePutData")
      39                    .dwattr $C$DW$4, DW_AT_low_pc(USCI_B_I2C_slavePutData)
      40                    .dwattr $C$DW$4, DW_AT_high_pc(0x00)
      41                    .dwattr $C$DW$4, DW_AT_TI_symbol_name("USCI_B_I2C_slavePutData")
      42                    .dwattr $C$DW$4, DW_AT_external
      43                    .dwattr $C$DW$4, DW_AT_TI_begin_file("../MP430DriverLib/driverlib/MSP430F5xx_6xx/usci_b_i2c.c"
      44                    .dwattr $C$DW$4, DW_AT_TI_begin_line(0x5d)
      45                    .dwattr $C$DW$4, DW_AT_TI_begin_column(0x06)
      46                    .dwattr $C$DW$4, DW_AT_decl_file("../MP430DriverLib/driverlib/MSP430F5xx_6xx/usci_b_i2c.c")
      47                    .dwattr $C$DW$4, DW_AT_decl_line(0x5d)
      48                    .dwattr $C$DW$4, DW_AT_decl_column(0x06)
      49                    .dwattr $C$DW$4, DW_AT_TI_max_frame_size(0x04)
      50                    .dwpsn  file "../MP430DriverLib/driverlib/MSP430F5xx_6xx/usci_b_i2c.c",line 96,column 1,is_stm
      51            
      52                    .dwfde $C$DW$CIE, USCI_B_I2C_slavePutData
      53            $C$DW$5 .dwtag  DW_TAG_formal_parameter
      54                    .dwattr $C$DW$5, DW_AT_name("baseAddress")
      55                    .dwattr $C$DW$5, DW_AT_TI_symbol_name("baseAddress")
MSP430 Assembler PC v21.6.1 Tue Dec 20 13:45:55 2022

Copyright (c) 2003-2018 Texas Instruments Incorporated
usci_b_i2c.asm                                                       PAGE    2

      56                    .dwattr $C$DW$5, DW_AT_type(*$C$DW$T$32)
      57                    .dwattr $C$DW$5, DW_AT_location[DW_OP_reg12]
      58            
      59            $C$DW$6 .dwtag  DW_TAG_formal_parameter
      60                    .dwattr $C$DW$6, DW_AT_name("transmitData")
      61                    .dwattr $C$DW$6, DW_AT_TI_symbol_name("transmitData")
      62                    .dwattr $C$DW$6, DW_AT_type(*$C$DW$T$23)
      63                    .dwattr $C$DW$6, DW_AT_location[DW_OP_reg13]
      64            
      65            
      66            ;*****************************************************************************
      67            ;* FUNCTION NAME: USCI_B_I2C_slavePutData                                    *
      68            ;*                                                                           *
      69            ;*   Regs Modified     : SP,SR,r12                                           *
      70            ;*   Regs Used         : SP,SR,r12,r13                                       *
      71            ;*   Local Frame Size  : 0 Args + 0 Auto + 0 Save = 0 byte                   *
      72            ;*****************************************************************************
      73 000000       USCI_B_I2C_slavePutData:
      74            ;* --------------------------------------------------------------------------*
      75                    .dwcfi  cfa_offset, 4
      76                    .dwcfi  save_reg_to_mem, 16, -4
      77            ;* r13   assigned to transmitData
      78            $C$DW$7 .dwtag  DW_TAG_variable
      79                    .dwattr $C$DW$7, DW_AT_name("transmitData")
      80                    .dwattr $C$DW$7, DW_AT_TI_symbol_name("transmitData")
      81                    .dwattr $C$DW$7, DW_AT_type(*$C$DW$T$23)
      82                    .dwattr $C$DW$7, DW_AT_location[DW_OP_reg13]
      83            
      84                    .dwpsn  file "../MP430DriverLib/driverlib/MSP430F5xx_6xx/usci_b_i2c.c",line 98,column 5,is_stm
      85 000000 503C          ADD.W     #14,r12               ; [] |98| 
         000002 000E 
      86 000004 4DCC          MOV.B     r13,0(r12)            ; [] |98| 
         000006 0000 
      87                    .dwpsn  file "../MP430DriverLib/driverlib/MSP430F5xx_6xx/usci_b_i2c.c",line 99,column 1,is_stm
      88            $C$DW$8 .dwtag  DW_TAG_TI_branch
      89                    .dwattr $C$DW$8, DW_AT_low_pc(0x00)
      90                    .dwattr $C$DW$8, DW_AT_TI_return
      91            
      92 000008 0110          RETA      ; [] 
      93                    ; [] 
      94                    .dwattr $C$DW$4, DW_AT_TI_end_file("../MP430DriverLib/driverlib/MSP430F5xx_6xx/usci_b_i2c.c")
      95                    .dwattr $C$DW$4, DW_AT_TI_end_line(0x63)
      96                    .dwattr $C$DW$4, DW_AT_TI_end_column(0x01)
      97                    .dwendentry
      98                    .dwendtag $C$DW$4
      99            
     100 000000               .sect   ".text:USCI_B_I2C_slaveGetData"
     101                    .clink
     102                    .global USCI_B_I2C_slaveGetData
     103            
     104            $C$DW$9 .dwtag  DW_TAG_subprogram
     105                    .dwattr $C$DW$9, DW_AT_name("USCI_B_I2C_slaveGetData")
     106                    .dwattr $C$DW$9, DW_AT_low_pc(USCI_B_I2C_slaveGetData)
     107                    .dwattr $C$DW$9, DW_AT_high_pc(0x00)
     108                    .dwattr $C$DW$9, DW_AT_TI_symbol_name("USCI_B_I2C_slaveGetData")
MSP430 Assembler PC v21.6.1 Tue Dec 20 13:45:55 2022

Copyright (c) 2003-2018 Texas Instruments Incorporated
usci_b_i2c.asm                                                       PAGE    3

     109                    .dwattr $C$DW$9, DW_AT_external
     110                    .dwattr $C$DW$9, DW_AT_type(*$C$DW$T$23)
     111                    .dwattr $C$DW$9, DW_AT_TI_begin_file("../MP430DriverLib/driverlib/MSP430F5xx_6xx/usci_b_i2c.c"
     112                    .dwattr $C$DW$9, DW_AT_TI_begin_line(0x65)
     113                    .dwattr $C$DW$9, DW_AT_TI_begin_column(0x09)
     114                    .dwattr $C$DW$9, DW_AT_decl_file("../MP430DriverLib/driverlib/MSP430F5xx_6xx/usci_b_i2c.c")
     115                    .dwattr $C$DW$9, DW_AT_decl_line(0x65)
     116                    .dwattr $C$DW$9, DW_AT_decl_column(0x09)
     117                    .dwattr $C$DW$9, DW_AT_TI_max_frame_size(0x04)
     118                    .dwpsn  file "../MP430DriverLib/driverlib/MSP430F5xx_6xx/usci_b_i2c.c",line 102,column 1,is_st
     119            
     120                    .dwfde $C$DW$CIE, USCI_B_I2C_slaveGetData
     121            $C$DW$10        .dwtag  DW_TAG_formal_parameter
     122                    .dwattr $C$DW$10, DW_AT_name("baseAddress")
     123                    .dwattr $C$DW$10, DW_AT_TI_symbol_name("baseAddress")
     124                    .dwattr $C$DW$10, DW_AT_type(*$C$DW$T$32)
     125                    .dwattr $C$DW$10, DW_AT_location[DW_OP_reg12]
     126            
     127            
     128            ;*****************************************************************************
     129            ;* FUNCTION NAME: USCI_B_I2C_slaveGetData                                    *
     130            ;*                                                                           *
     131            ;*   Regs Modified     : SP,SR,r12                                           *
     132            ;*   Regs Used         : SP,SR,r12                                           *
     133            ;*   Local Frame Size  : 0 Args + 0 Auto + 0 Save = 0 byte                   *
     134            ;*****************************************************************************
     135 000000       USCI_B_I2C_slaveGetData:
     136            ;* --------------------------------------------------------------------------*
     137                    .dwcfi  cfa_offset, 4
     138                    .dwcfi  save_reg_to_mem, 16, -4
     139                    .dwpsn  file "../MP430DriverLib/driverlib/MSP430F5xx_6xx/usci_b_i2c.c",line 104,column 5,is_st
     140 000000 503C          ADD.W     #12,r12               ; [] |104| 
         000002 000C 
     141 000004 4C6C          MOV.B     @r12,r12              ; [] |104| 
     142                    .dwpsn  file "../MP430DriverLib/driverlib/MSP430F5xx_6xx/usci_b_i2c.c",line 105,column 1,is_st
     143            $C$DW$11        .dwtag  DW_TAG_TI_branch
     144                    .dwattr $C$DW$11, DW_AT_low_pc(0x00)
     145                    .dwattr $C$DW$11, DW_AT_TI_return
     146            
     147 000006 0110          RETA      ; [] 
     148                    ; [] 
     149                    .dwattr $C$DW$9, DW_AT_TI_end_file("../MP430DriverLib/driverlib/MSP430F5xx_6xx/usci_b_i2c.c")
     150                    .dwattr $C$DW$9, DW_AT_TI_end_line(0x69)
     151                    .dwattr $C$DW$9, DW_AT_TI_end_column(0x01)
     152                    .dwendentry
     153                    .dwendtag $C$DW$9
     154            
     155 000000               .sect   ".text:USCI_B_I2C_setSlaveAddress"
     156                    .clink
     157                    .global USCI_B_I2C_setSlaveAddress
     158            
     159            $C$DW$12        .dwtag  DW_TAG_subprogram
     160                    .dwattr $C$DW$12, DW_AT_name("USCI_B_I2C_setSlaveAddress")
     161                    .dwattr $C$DW$12, DW_AT_low_pc(USCI_B_I2C_setSlaveAddress)
     162                    .dwattr $C$DW$12, DW_AT_high_pc(0x00)
MSP430 Assembler PC v21.6.1 Tue Dec 20 13:45:55 2022

Copyright (c) 2003-2018 Texas Instruments Incorporated
usci_b_i2c.asm                                                       PAGE    4

     163                    .dwattr $C$DW$12, DW_AT_TI_symbol_name("USCI_B_I2C_setSlaveAddress")
     164                    .dwattr $C$DW$12, DW_AT_external
     165                    .dwattr $C$DW$12, DW_AT_TI_begin_file("../MP430DriverLib/driverlib/MSP430F5xx_6xx/usci_b_i2c.c
     166                    .dwattr $C$DW$12, DW_AT_TI_begin_line(0x4d)
     167                    .dwattr $C$DW$12, DW_AT_TI_begin_column(0x06)
     168                    .dwattr $C$DW$12, DW_AT_decl_file("../MP430DriverLib/driverlib/MSP430F5xx_6xx/usci_b_i2c.c")
     169                    .dwattr $C$DW$12, DW_AT_decl_line(0x4d)
     170                    .dwattr $C$DW$12, DW_AT_decl_column(0x06)
     171                    .dwattr $C$DW$12, DW_AT_TI_max_frame_size(0x04)
     172                    .dwpsn  file "../MP430DriverLib/driverlib/MSP430F5xx_6xx/usci_b_i2c.c",line 80,column 1,is_stm
     173            
     174                    .dwfde $C$DW$CIE, USCI_B_I2C_setSlaveAddress
     175            $C$DW$13        .dwtag  DW_TAG_formal_parameter
     176                    .dwattr $C$DW$13, DW_AT_name("baseAddress")
     177                    .dwattr $C$DW$13, DW_AT_TI_symbol_name("baseAddress")
     178                    .dwattr $C$DW$13, DW_AT_type(*$C$DW$T$32)
     179                    .dwattr $C$DW$13, DW_AT_location[DW_OP_reg12]
     180            
     181            $C$DW$14        .dwtag  DW_TAG_formal_parameter
     182                    .dwattr $C$DW$14, DW_AT_name("slaveAddress")
     183                    .dwattr $C$DW$14, DW_AT_TI_symbol_name("slaveAddress")
     184                    .dwattr $C$DW$14, DW_AT_type(*$C$DW$T$23)
     185                    .dwattr $C$DW$14, DW_AT_location[DW_OP_reg13]
     186            
     187            
     188            ;*****************************************************************************
     189            ;* FUNCTION NAME: USCI_B_I2C_setSlaveAddress                                 *
     190            ;*                                                                           *
     191            ;*   Regs Modified     : SP,SR,r12,r13                                       *
     192            ;*   Regs Used         : SP,SR,r12,r13                                       *
     193            ;*   Local Frame Size  : 0 Args + 0 Auto + 0 Save = 0 byte                   *
     194            ;*****************************************************************************
     195 000000       USCI_B_I2C_setSlaveAddress:
     196            ;* --------------------------------------------------------------------------*
     197                    .dwcfi  cfa_offset, 4
     198                    .dwcfi  save_reg_to_mem, 16, -4
     199            ;* r13   assigned to slaveAddress
     200            $C$DW$15        .dwtag  DW_TAG_variable
     201                    .dwattr $C$DW$15, DW_AT_name("slaveAddress")
     202                    .dwattr $C$DW$15, DW_AT_TI_symbol_name("slaveAddress")
     203                    .dwattr $C$DW$15, DW_AT_type(*$C$DW$T$23)
     204                    .dwattr $C$DW$15, DW_AT_location[DW_OP_reg13]
     205            
     206                    .dwpsn  file "../MP430DriverLib/driverlib/MSP430F5xx_6xx/usci_b_i2c.c",line 82,column 5,is_stm
     207 000000 4D4D          MOV.B     r13,r13               ; [] |82| 
     208 000002 503C          ADD.W     #18,r12               ; [] |82| 
         000004 0012 
     209 000006 4D8C          MOV.W     r13,0(r12)            ; [] |82| 
         000008 0000 
     210                    .dwpsn  file "../MP430DriverLib/driverlib/MSP430F5xx_6xx/usci_b_i2c.c",line 83,column 1,is_stm
     211            $C$DW$16        .dwtag  DW_TAG_TI_branch
     212                    .dwattr $C$DW$16, DW_AT_low_pc(0x00)
     213                    .dwattr $C$DW$16, DW_AT_TI_return
     214            
     215 00000a 0110          RETA      ; [] 
MSP430 Assembler PC v21.6.1 Tue Dec 20 13:45:55 2022

Copyright (c) 2003-2018 Texas Instruments Incorporated
usci_b_i2c.asm                                                       PAGE    5

     216                    ; [] 
     217                    .dwattr $C$DW$12, DW_AT_TI_end_file("../MP430DriverLib/driverlib/MSP430F5xx_6xx/usci_b_i2c.c")
     218                    .dwattr $C$DW$12, DW_AT_TI_end_line(0x53)
     219                    .dwattr $C$DW$12, DW_AT_TI_end_column(0x01)
     220                    .dwendentry
     221                    .dwendtag $C$DW$12
     222            
     223 000000               .sect   ".text:USCI_B_I2C_setMode"
     224                    .clink
     225                    .global USCI_B_I2C_setMode
     226            
     227            $C$DW$17        .dwtag  DW_TAG_subprogram
     228                    .dwattr $C$DW$17, DW_AT_name("USCI_B_I2C_setMode")
     229                    .dwattr $C$DW$17, DW_AT_low_pc(USCI_B_I2C_setMode)
     230                    .dwattr $C$DW$17, DW_AT_high_pc(0x00)
     231                    .dwattr $C$DW$17, DW_AT_TI_symbol_name("USCI_B_I2C_setMode")
     232                    .dwattr $C$DW$17, DW_AT_external
     233                    .dwattr $C$DW$17, DW_AT_TI_begin_file("../MP430DriverLib/driverlib/MSP430F5xx_6xx/usci_b_i2c.c
     234                    .dwattr $C$DW$17, DW_AT_TI_begin_line(0x55)
     235                    .dwattr $C$DW$17, DW_AT_TI_begin_column(0x06)
     236                    .dwattr $C$DW$17, DW_AT_decl_file("../MP430DriverLib/driverlib/MSP430F5xx_6xx/usci_b_i2c.c")
     237                    .dwattr $C$DW$17, DW_AT_decl_line(0x55)
     238                    .dwattr $C$DW$17, DW_AT_decl_column(0x06)
     239                    .dwattr $C$DW$17, DW_AT_TI_max_frame_size(0x04)
     240                    .dwpsn  file "../MP430DriverLib/driverlib/MSP430F5xx_6xx/usci_b_i2c.c",line 88,column 1,is_stm
     241            
     242                    .dwfde $C$DW$CIE, USCI_B_I2C_setMode
     243            $C$DW$18        .dwtag  DW_TAG_formal_parameter
     244                    .dwattr $C$DW$18, DW_AT_name("baseAddress")
     245                    .dwattr $C$DW$18, DW_AT_TI_symbol_name("baseAddress")
     246                    .dwattr $C$DW$18, DW_AT_type(*$C$DW$T$32)
     247                    .dwattr $C$DW$18, DW_AT_location[DW_OP_reg12]
     248            
     249            $C$DW$19        .dwtag  DW_TAG_formal_parameter
     250                    .dwattr $C$DW$19, DW_AT_name("mode")
     251                    .dwattr $C$DW$19, DW_AT_TI_symbol_name("mode")
     252                    .dwattr $C$DW$19, DW_AT_type(*$C$DW$T$23)
     253                    .dwattr $C$DW$19, DW_AT_location[DW_OP_reg13]
     254            
     255            
     256            ;*****************************************************************************
     257            ;* FUNCTION NAME: USCI_B_I2C_setMode                                         *
     258            ;*                                                                           *
     259            ;*   Regs Modified     : SP,SR                                               *
     260            ;*   Regs Used         : SP,SR,r12,r13                                       *
     261            ;*   Local Frame Size  : 0 Args + 0 Auto + 0 Save = 0 byte                   *
     262            ;*****************************************************************************
     263 000000       USCI_B_I2C_setMode:
     264            ;* --------------------------------------------------------------------------*
     265                    .dwcfi  cfa_offset, 4
     266                    .dwcfi  save_reg_to_mem, 16, -4
     267            ;* r12   assigned to baseAddress
     268            $C$DW$20        .dwtag  DW_TAG_variable
     269                    .dwattr $C$DW$20, DW_AT_name("baseAddress")
     270                    .dwattr $C$DW$20, DW_AT_TI_symbol_name("baseAddress")
MSP430 Assembler PC v21.6.1 Tue Dec 20 13:45:55 2022

Copyright (c) 2003-2018 Texas Instruments Incorporated
usci_b_i2c.asm                                                       PAGE    6

     271                    .dwattr $C$DW$20, DW_AT_type(*$C$DW$T$32)
     272                    .dwattr $C$DW$20, DW_AT_location[DW_OP_reg12]
     273            
     274            ;* r13   assigned to mode
     275            $C$DW$21        .dwtag  DW_TAG_variable
     276                    .dwattr $C$DW$21, DW_AT_name("mode")
     277                    .dwattr $C$DW$21, DW_AT_TI_symbol_name("mode")
     278                    .dwattr $C$DW$21, DW_AT_type(*$C$DW$T$23)
     279                    .dwattr $C$DW$21, DW_AT_location[DW_OP_reg13]
     280            
     281                    .dwpsn  file "../MP430DriverLib/driverlib/MSP430F5xx_6xx/usci_b_i2c.c",line 89,column 5,is_stm
     282 000000 F0FC          AND.B     #239,0(r12)           ; [] |89| 
         000002 00EF 
         000004 0000 
     283                    .dwpsn  file "../MP430DriverLib/driverlib/MSP430F5xx_6xx/usci_b_i2c.c",line 90,column 5,is_stm
     284 000006 DDCC          OR.B      r13,0(r12)            ; [] |90| 
         000008 0000 
     285                    .dwpsn  file "../MP430DriverLib/driverlib/MSP430F5xx_6xx/usci_b_i2c.c",line 91,column 1,is_stm
     286            $C$DW$22        .dwtag  DW_TAG_TI_branch
     287                    .dwattr $C$DW$22, DW_AT_low_pc(0x00)
     288                    .dwattr $C$DW$22, DW_AT_TI_return
     289            
     290 00000a 0110          RETA      ; [] 
     291                    ; [] 
     292                    .dwattr $C$DW$17, DW_AT_TI_end_file("../MP430DriverLib/driverlib/MSP430F5xx_6xx/usci_b_i2c.c")
     293                    .dwattr $C$DW$17, DW_AT_TI_end_line(0x5b)
     294                    .dwattr $C$DW$17, DW_AT_TI_end_column(0x01)
     295                    .dwendentry
     296                    .dwendtag $C$DW$17
     297            
     298 000000               .sect   ".text:USCI_B_I2C_masterSendStart"
     299                    .clink
     300                    .global USCI_B_I2C_masterSendStart
     301            
     302            $C$DW$23        .dwtag  DW_TAG_subprogram
     303                    .dwattr $C$DW$23, DW_AT_name("USCI_B_I2C_masterSendStart")
     304                    .dwattr $C$DW$23, DW_AT_low_pc(USCI_B_I2C_masterSendStart)
     305                    .dwattr $C$DW$23, DW_AT_high_pc(0x00)
     306                    .dwattr $C$DW$23, DW_AT_TI_symbol_name("USCI_B_I2C_masterSendStart")
     307                    .dwattr $C$DW$23, DW_AT_external
     308                    .dwattr $C$DW$23, DW_AT_TI_begin_file("../MP430DriverLib/driverlib/MSP430F5xx_6xx/usci_b_i2c.c
     309                    .dwattr $C$DW$23, DW_AT_TI_begin_line(0x87)
     310                    .dwattr $C$DW$23, DW_AT_TI_begin_column(0x06)
     311                    .dwattr $C$DW$23, DW_AT_decl_file("../MP430DriverLib/driverlib/MSP430F5xx_6xx/usci_b_i2c.c")
     312                    .dwattr $C$DW$23, DW_AT_decl_line(0x87)
     313                    .dwattr $C$DW$23, DW_AT_decl_column(0x06)
     314                    .dwattr $C$DW$23, DW_AT_TI_max_frame_size(0x04)
     315                    .dwpsn  file "../MP430DriverLib/driverlib/MSP430F5xx_6xx/usci_b_i2c.c",line 136,column 1,is_st
     316            
     317                    .dwfde $C$DW$CIE, USCI_B_I2C_masterSendStart
     318            $C$DW$24        .dwtag  DW_TAG_formal_parameter
     319                    .dwattr $C$DW$24, DW_AT_name("baseAddress")
     320                    .dwattr $C$DW$24, DW_AT_TI_symbol_name("baseAddress")
     321                    .dwattr $C$DW$24, DW_AT_type(*$C$DW$T$32)
     322                    .dwattr $C$DW$24, DW_AT_location[DW_OP_reg12]
MSP430 Assembler PC v21.6.1 Tue Dec 20 13:45:55 2022

Copyright (c) 2003-2018 Texas Instruments Incorporated
usci_b_i2c.asm                                                       PAGE    7

     323            
     324            
     325            ;*****************************************************************************
     326            ;* FUNCTION NAME: USCI_B_I2C_masterSendStart                                 *
     327            ;*                                                                           *
     328            ;*   Regs Modified     : SP                                                  *
     329            ;*   Regs Used         : SP,r12                                              *
     330            ;*   Local Frame Size  : 0 Args + 0 Auto + 0 Save = 0 byte                   *
     331            ;*****************************************************************************
     332 000000       USCI_B_I2C_masterSendStart:
     333            ;* --------------------------------------------------------------------------*
     334                    .dwcfi  cfa_offset, 4
     335                    .dwcfi  save_reg_to_mem, 16, -4
     336            ;* r12   assigned to baseAddress
     337            $C$DW$25        .dwtag  DW_TAG_variable
     338                    .dwattr $C$DW$25, DW_AT_name("baseAddress")
     339                    .dwattr $C$DW$25, DW_AT_TI_symbol_name("baseAddress")
     340                    .dwattr $C$DW$25, DW_AT_type(*$C$DW$T$32)
     341                    .dwattr $C$DW$25, DW_AT_location[DW_OP_reg12]
     342            
     343                    .dwpsn  file "../MP430DriverLib/driverlib/MSP430F5xx_6xx/usci_b_i2c.c",line 137,column 5,is_st
     344 000000 D3EC          OR.B      #2,0(r12)             ; [] |137| 
         000002 0000 
     345                    .dwpsn  file "../MP430DriverLib/driverlib/MSP430F5xx_6xx/usci_b_i2c.c",line 138,column 1,is_st
     346            $C$DW$26        .dwtag  DW_TAG_TI_branch
     347                    .dwattr $C$DW$26, DW_AT_low_pc(0x00)
     348                    .dwattr $C$DW$26, DW_AT_TI_return
     349            
     350 000004 0110          RETA      ; [] 
     351                    ; [] 
     352                    .dwattr $C$DW$23, DW_AT_TI_end_file("../MP430DriverLib/driverlib/MSP430F5xx_6xx/usci_b_i2c.c")
     353                    .dwattr $C$DW$23, DW_AT_TI_end_line(0x8a)
     354                    .dwattr $C$DW$23, DW_AT_TI_end_column(0x01)
     355                    .dwendentry
     356                    .dwendtag $C$DW$23
     357            
     358 000000               .sect   ".text:USCI_B_I2C_masterSendSingleByteWithTimeout"
     359                    .clink
     360                    .global USCI_B_I2C_masterSendSingleByteWithTimeout
     361            
     362            $C$DW$27        .dwtag  DW_TAG_subprogram
     363                    .dwattr $C$DW$27, DW_AT_name("USCI_B_I2C_masterSendSingleByteWithTimeout")
     364                    .dwattr $C$DW$27, DW_AT_low_pc(USCI_B_I2C_masterSendSingleByteWithTimeout)
     365                    .dwattr $C$DW$27, DW_AT_high_pc(0x00)
     366                    .dwattr $C$DW$27, DW_AT_TI_symbol_name("USCI_B_I2C_masterSendSingleByteWithTimeout")
     367                    .dwattr $C$DW$27, DW_AT_external
     368                    .dwattr $C$DW$27, DW_AT_type(*$C$DW$T$160)
     369                    .dwattr $C$DW$27, DW_AT_TI_begin_file("../MP430DriverLib/driverlib/MSP430F5xx_6xx/usci_b_i2c.c
     370                    .dwattr $C$DW$27, DW_AT_TI_begin_line(0xcc)
     371                    .dwattr $C$DW$27, DW_AT_TI_begin_column(0x06)
     372                    .dwattr $C$DW$27, DW_AT_decl_file("../MP430DriverLib/driverlib/MSP430F5xx_6xx/usci_b_i2c.c")
     373                    .dwattr $C$DW$27, DW_AT_decl_line(0xcc)
     374                    .dwattr $C$DW$27, DW_AT_decl_column(0x06)
     375                    .dwattr $C$DW$27, DW_AT_TI_max_frame_size(0x14)
     376                    .dwpsn  file "../MP430DriverLib/driverlib/MSP430F5xx_6xx/usci_b_i2c.c",line 208,column 1,is_st
MSP430 Assembler PC v21.6.1 Tue Dec 20 13:45:55 2022

Copyright (c) 2003-2018 Texas Instruments Incorporated
usci_b_i2c.asm                                                       PAGE    8

     377            
     378                    .dwfde $C$DW$CIE, USCI_B_I2C_masterSendSingleByteWithTimeout
     379            $C$DW$28        .dwtag  DW_TAG_formal_parameter
     380                    .dwattr $C$DW$28, DW_AT_name("baseAddress")
     381                    .dwattr $C$DW$28, DW_AT_TI_symbol_name("baseAddress")
     382                    .dwattr $C$DW$28, DW_AT_type(*$C$DW$T$32)
     383                    .dwattr $C$DW$28, DW_AT_location[DW_OP_reg12]
     384            
     385            $C$DW$29        .dwtag  DW_TAG_formal_parameter
     386                    .dwattr $C$DW$29, DW_AT_name("txData")
     387                    .dwattr $C$DW$29, DW_AT_TI_symbol_name("txData")
     388                    .dwattr $C$DW$29, DW_AT_type(*$C$DW$T$23)
     389                    .dwattr $C$DW$29, DW_AT_location[DW_OP_reg13]
     390            
     391            $C$DW$30        .dwtag  DW_TAG_formal_parameter
     392                    .dwattr $C$DW$30, DW_AT_name("timeout")
     393                    .dwattr $C$DW$30, DW_AT_TI_symbol_name("timeout")
     394                    .dwattr $C$DW$30, DW_AT_type(*$C$DW$T$25)
     395                    .dwattr $C$DW$30, DW_AT_location[DW_OP_reg14 DW_OP_piece 2 DW_OP_reg15 DW_OP_piece 2]
     396            
     397            
     398            ;*****************************************************************************
     399            ;* FUNCTION NAME: USCI_B_I2C_masterSendSingleByteWithTimeout                 *
     400            ;*                                                                           *
     401            ;*   Regs Modified     : SP,SR,r7,r8,r9,r10,r11,r12,r14,r15                  *
     402            ;*   Regs Used         : SP,SR,r7,r8,r9,r10,r11,r12,r13,r14,r15              *
     403            ;*   Local Frame Size  : 0 Args + 0 Auto + 16 Save = 16 byte                 *
     404            ;*****************************************************************************
     405 000000       USCI_B_I2C_masterSendSingleByteWithTimeout:
     406            ;* --------------------------------------------------------------------------*
     407                    .dwcfi  cfa_offset, 4
     408                    .dwcfi  save_reg_to_mem, 16, -4
     409 000000 143A          PUSHM.A   #4,r10                ; [] 
     410                    .dwcfi  save_reg_to_mem, 10, -8
     411                    .dwcfi  save_reg_to_mem, 9, -12
     412                    .dwcfi  save_reg_to_mem, 8, -16
     413                    .dwcfi  save_reg_to_mem, 7, -20
     414                    .dwcfi  cfa_offset, 20
     415            ;* r12   assigned to baseAddress
     416            $C$DW$31        .dwtag  DW_TAG_variable
     417                    .dwattr $C$DW$31, DW_AT_name("baseAddress")
     418                    .dwattr $C$DW$31, DW_AT_TI_symbol_name("baseAddress")
     419                    .dwattr $C$DW$31, DW_AT_type(*$C$DW$T$32)
     420                    .dwattr $C$DW$31, DW_AT_location[DW_OP_reg12]
     421            
     422            ;* r13   assigned to txData
     423            $C$DW$32        .dwtag  DW_TAG_variable
     424                    .dwattr $C$DW$32, DW_AT_name("txData")
     425                    .dwattr $C$DW$32, DW_AT_TI_symbol_name("txData")
     426                    .dwattr $C$DW$32, DW_AT_type(*$C$DW$T$23)
     427                    .dwattr $C$DW$32, DW_AT_location[DW_OP_reg13]
     428            
     429            ;* r14   assigned to timeout
     430            $C$DW$33        .dwtag  DW_TAG_variable
     431                    .dwattr $C$DW$33, DW_AT_name("timeout")
MSP430 Assembler PC v21.6.1 Tue Dec 20 13:45:55 2022

Copyright (c) 2003-2018 Texas Instruments Incorporated
usci_b_i2c.asm                                                       PAGE    9

     432                    .dwattr $C$DW$33, DW_AT_TI_symbol_name("timeout")
     433                    .dwattr $C$DW$33, DW_AT_type(*$C$DW$T$25)
     434                    .dwattr $C$DW$33, DW_AT_location[DW_OP_reg14 DW_OP_piece 2 DW_OP_reg15 DW_OP_piece 2]
     435            
     436            ;* r10   assigned to timeout2
     437            $C$DW$34        .dwtag  DW_TAG_variable
     438                    .dwattr $C$DW$34, DW_AT_name("timeout2")
     439                    .dwattr $C$DW$34, DW_AT_TI_symbol_name("timeout2")
     440                    .dwattr $C$DW$34, DW_AT_type(*$C$DW$T$25)
     441                    .dwattr $C$DW$34, DW_AT_location[DW_OP_reg10 DW_OP_piece 2 DW_OP_reg9 DW_OP_piece 2]
     442            
     443            ;* r11   assigned to txieStatus
     444            $C$DW$35        .dwtag  DW_TAG_variable
     445                    .dwattr $C$DW$35, DW_AT_name("txieStatus")
     446                    .dwattr $C$DW$35, DW_AT_TI_symbol_name("txieStatus")
     447                    .dwattr $C$DW$35, DW_AT_type(*$C$DW$T$23)
     448                    .dwattr $C$DW$35, DW_AT_location[DW_OP_reg11]
     449            
     450                    .dwpsn  file "../MP430DriverLib/driverlib/MSP430F5xx_6xx/usci_b_i2c.c",line 210,column 23,is_s
     451 000002 0ECA          MOVA      r14,r10               ; [] |210| 
     452 000004 0FC9          MOVA      r15,r9                ; [] |210| 
     453                    .dwpsn  file "../MP430DriverLib/driverlib/MSP430F5xx_6xx/usci_b_i2c.c",line 213,column 24,is_s
     454 000006 0CC8          MOVA      r12,r8                ; [] |213| 
     455 000008 5038          ADD.W     #28,r8                ; [] |213| 
         00000a 001C 
     456 00000c 432B          MOV.W     #2,r11                ; [] |213| 
     457 00000e F86B          AND.B     @r8,r11               ; [] |213| 
     458                    .dwpsn  file "../MP430DriverLib/driverlib/MSP430F5xx_6xx/usci_b_i2c.c",line 216,column 5,is_st
     459 000010 0CC8          MOVA      r12,r8                ; [] |216| 
     460 000012 5038          ADD.W     #28,r8                ; [] |216| 
         000014 001C 
     461 000016 4808          MOV.W     r8,r8                 ; [] |216| 
     462 000018 C3E8          BIC.B     #2,0(r8)              ; [] |216| 
         00001a 0000 
     463                    .dwpsn  file "../MP430DriverLib/driverlib/MSP430F5xx_6xx/usci_b_i2c.c",line 219,column 5,is_st
     464 00001c D0FC          OR.B      #18,0(r12)            ; [] |219| 
         00001e 0012 
         000020 0000 
     465            ;* --------------------------------------------------------------------------*
     466            ;*   BEGIN LOOP $C$L1
     467            ;*
     468            ;*   Loop source line                : 222
     469            ;*   Loop closing brace source line  : 222
     470            ;*   Known Minimum Trip Count        : 1
     471            ;*   Known Maximum Trip Count        : 4294967295
     472            ;*   Known Max Trip Count Factor     : 1
     473            ;* --------------------------------------------------------------------------*
     474 000022       $C$L1:    
     475                    .dwpsn  file "../MP430DriverLib/driverlib/MSP430F5xx_6xx/usci_b_i2c.c",line 222,column 12,is_s
     476 000022 0CC8          MOVA      r12,r8                ; [] |222| 
     477 000024 5038          ADD.W     #29,r8                ; [] |222| 
         000026 001D 
     478 000028 4327          MOV.W     #2,r7                 ; [] |222| 
     479 00002a B867          BIT.B     @r8,r7                ; [] |222| 
     480 00002c 2005          JNE       $C$L2                 ; [] |222| 
MSP430 Assembler PC v21.6.1 Tue Dec 20 13:45:55 2022

Copyright (c) 2003-2018 Texas Instruments Incorporated
usci_b_i2c.asm                                                       PAGE   10

     481                                                      ; [] |222| 
     482            ;* --------------------------------------------------------------------------*
     483 00002e 831E          SUB.W     #1,r14                ; [] |222| 
     484 000030 730F          SUBC.W    #0,r15                ; [] |222| 
     485 000032 23F7          JNE       $C$L1                 ; [] |222| 
     486                                                      ; [] |222| 
     487            ;* --------------------------------------------------------------------------*
     488 000034 930E          TST.W     r14                   ; [] |222| 
     489 000036 23F5          JNE       $C$L1                 ; [] |222| 
     490                                                      ; [] |222| 
     491            ;* --------------------------------------------------------------------------*
     492 000038       $C$L2:    
     493                    .dwpsn  file "../MP430DriverLib/driverlib/MSP430F5xx_6xx/usci_b_i2c.c",line 225,column 5,is_st
     494 000038 930F          TST.W     r15                   ; [] |225| 
     495 00003a 2004          JNE       $C$L3                 ; [] |225| 
     496                                                      ; [] |225| 
     497            ;* --------------------------------------------------------------------------*
     498 00003c 930E          TST.W     r14                   ; [] |225| 
     499 00003e 2002          JNE       $C$L3                 ; [] |225| 
     500                                                      ; [] |225| 
     501            ;* --------------------------------------------------------------------------*
     502                    .dwpsn  file "../MP430DriverLib/driverlib/MSP430F5xx_6xx/usci_b_i2c.c",line 226,column 9,is_st
     503 000040 434C          MOV.B     #0,r12                ; [] |226| 
     504 000042 3C24          JMP       $C$L8                 ; [] |226| 
     505                                                      ; [] |226| 
     506            ;* --------------------------------------------------------------------------*
     507 000044       $C$L3:    
     508                    .dwpsn  file "../MP430DriverLib/driverlib/MSP430F5xx_6xx/usci_b_i2c.c",line 230,column 5,is_st
     509 000044 0CCF          MOVA      r12,r15               ; [] |230| 
     510 000046 503F          ADD.W     #14,r15               ; [] |230| 
         000048 000E 
     511 00004a 4DCF          MOV.B     r13,0(r15)            ; [] |230| 
         00004c 0000 
     512            ;* --------------------------------------------------------------------------*
     513            ;*   BEGIN LOOP $C$L4
     514            ;*
     515            ;*   Loop source line                : 233
     516            ;*   Loop closing brace source line  : 233
     517            ;*   Known Minimum Trip Count        : 1
     518            ;*   Known Maximum Trip Count        : 4294967295
     519            ;*   Known Max Trip Count Factor     : 1
     520            ;* --------------------------------------------------------------------------*
     521 00004e       $C$L4:    
     522                    .dwpsn  file "../MP430DriverLib/driverlib/MSP430F5xx_6xx/usci_b_i2c.c",line 233,column 12,is_s
     523 00004e 0CCF          MOVA      r12,r15               ; [] |233| 
     524 000050 503F          ADD.W     #29,r15               ; [] |233| 
         000052 001D 
     525 000054 432E          MOV.W     #2,r14                ; [] |233| 
     526 000056 BF6E          BIT.B     @r15,r14              ; [] |233| 
     527 000058 2005          JNE       $C$L5                 ; [] |233| 
     528                                                      ; [] |233| 
     529            ;* --------------------------------------------------------------------------*
     530 00005a 831A          SUB.W     #1,r10                ; [] |233| 
     531 00005c 7309          SUBC.W    #0,r9                 ; [] |233| 
     532 00005e 23F7          JNE       $C$L4                 ; [] |233| 
MSP430 Assembler PC v21.6.1 Tue Dec 20 13:45:55 2022

Copyright (c) 2003-2018 Texas Instruments Incorporated
usci_b_i2c.asm                                                       PAGE   11

     533                                                      ; [] |233| 
     534            ;* --------------------------------------------------------------------------*
     535 000060 930A          TST.W     r10                   ; [] |233| 
     536 000062 23F5          JNE       $C$L4                 ; [] |233| 
     537                                                      ; [] |233| 
     538            ;* --------------------------------------------------------------------------*
     539 000064       $C$L5:    
     540                    .dwpsn  file "../MP430DriverLib/driverlib/MSP430F5xx_6xx/usci_b_i2c.c",line 236,column 5,is_st
     541 000064 9309          TST.W     r9                    ; [] |236| 
     542 000066 2002          JNE       $C$L6                 ; [] |236| 
     543                                                      ; [] |236| 
     544            ;* --------------------------------------------------------------------------*
     545 000068 930A          TST.W     r10                   ; [] |236| 
     546 00006a 240F          JEQ       $C$L7                 ; [] |236| 
     547                                                      ; [] |236| 
     548            ;* --------------------------------------------------------------------------*
     549 00006c       $C$L6:    
     550                    .dwpsn  file "../MP430DriverLib/driverlib/MSP430F5xx_6xx/usci_b_i2c.c",line 241,column 5,is_st
     551 00006c D2EC          OR.B      #4,0(r12)             ; [] |241| 
         00006e 0000 
     552                    .dwpsn  file "../MP430DriverLib/driverlib/MSP430F5xx_6xx/usci_b_i2c.c",line 244,column 5,is_st
     553 000070 0CCF          MOVA      r12,r15               ; [] |244| 
     554 000072 503F          ADD.W     #29,r15               ; [] |244| 
         000074 001D 
     555 000076 4F0F          MOV.W     r15,r15               ; [] |244| 
     556 000078 C3EF          BIC.B     #2,0(r15)             ; [] |244| 
         00007a 0000 
     557                    .dwpsn  file "../MP430DriverLib/driverlib/MSP430F5xx_6xx/usci_b_i2c.c",line 247,column 5,is_st
     558 00007c 503C          ADD.W     #28,r12               ; [] |247| 
         00007e 001C 
     559 000080 4C0F          MOV.W     r12,r15               ; [] |247| 
     560 000082 DBCF          OR.B      r11,0(r15)            ; [] |247| 
         000084 0000 
     561                    .dwpsn  file "../MP430DriverLib/driverlib/MSP430F5xx_6xx/usci_b_i2c.c",line 249,column 5,is_st
     562 000086 435C          MOV.B     #1,r12                ; [] |249| 
     563 000088 3C01          JMP       $C$L8                 ; [] |249| 
     564                                                      ; [] |249| 
     565            ;* --------------------------------------------------------------------------*
     566 00008a       $C$L7:    
     567                    .dwpsn  file "../MP430DriverLib/driverlib/MSP430F5xx_6xx/usci_b_i2c.c",line 237,column 9,is_st
     568 00008a 434C          MOV.B     #0,r12                ; [] |237| 
     569            ;* --------------------------------------------------------------------------*
     570 00008c       $C$L8:    
     571                    .dwpsn  file "../MP430DriverLib/driverlib/MSP430F5xx_6xx/usci_b_i2c.c",line 250,column 1,is_st
     572 00008c 1637          POPM.A    #4,r10                ; [] 
     573                    .dwcfi  restore_reg, 7
     574                    .dwcfi  restore_reg, 8
     575                    .dwcfi  restore_reg, 9
     576                    .dwcfi  restore_reg, 10
     577                    .dwcfi  cfa_offset, 4
     578            $C$DW$36        .dwtag  DW_TAG_TI_branch
     579                    .dwattr $C$DW$36, DW_AT_low_pc(0x00)
     580                    .dwattr $C$DW$36, DW_AT_TI_return
     581            
     582 00008e 0110          RETA      ; [] 
MSP430 Assembler PC v21.6.1 Tue Dec 20 13:45:55 2022

Copyright (c) 2003-2018 Texas Instruments Incorporated
usci_b_i2c.asm                                                       PAGE   12

     583                    ; [] 
     584                    .dwattr $C$DW$27, DW_AT_TI_end_file("../MP430DriverLib/driverlib/MSP430F5xx_6xx/usci_b_i2c.c")
     585                    .dwattr $C$DW$27, DW_AT_TI_end_line(0xfa)
     586                    .dwattr $C$DW$27, DW_AT_TI_end_column(0x01)
     587                    .dwendentry
     588                    .dwendtag $C$DW$27
     589            
     590 000000               .sect   ".text:USCI_B_I2C_masterSendSingleByte"
     591                    .clink
     592                    .global USCI_B_I2C_masterSendSingleByte
     593            
     594            $C$DW$37        .dwtag  DW_TAG_subprogram
     595                    .dwattr $C$DW$37, DW_AT_name("USCI_B_I2C_masterSendSingleByte")
     596                    .dwattr $C$DW$37, DW_AT_low_pc(USCI_B_I2C_masterSendSingleByte)
     597                    .dwattr $C$DW$37, DW_AT_high_pc(0x00)
     598                    .dwattr $C$DW$37, DW_AT_TI_symbol_name("USCI_B_I2C_masterSendSingleByte")
     599                    .dwattr $C$DW$37, DW_AT_external
     600                    .dwattr $C$DW$37, DW_AT_TI_begin_file("../MP430DriverLib/driverlib/MSP430F5xx_6xx/usci_b_i2c.c
     601                    .dwattr $C$DW$37, DW_AT_TI_begin_line(0xac)
     602                    .dwattr $C$DW$37, DW_AT_TI_begin_column(0x06)
     603                    .dwattr $C$DW$37, DW_AT_decl_file("../MP430DriverLib/driverlib/MSP430F5xx_6xx/usci_b_i2c.c")
     604                    .dwattr $C$DW$37, DW_AT_decl_line(0xac)
     605                    .dwattr $C$DW$37, DW_AT_decl_column(0x06)
     606                    .dwattr $C$DW$37, DW_AT_TI_max_frame_size(0x04)
     607                    .dwpsn  file "../MP430DriverLib/driverlib/MSP430F5xx_6xx/usci_b_i2c.c",line 175,column 1,is_st
     608            
     609                    .dwfde $C$DW$CIE, USCI_B_I2C_masterSendSingleByte
     610            $C$DW$38        .dwtag  DW_TAG_formal_parameter
     611                    .dwattr $C$DW$38, DW_AT_name("baseAddress")
     612                    .dwattr $C$DW$38, DW_AT_TI_symbol_name("baseAddress")
     613                    .dwattr $C$DW$38, DW_AT_type(*$C$DW$T$32)
     614                    .dwattr $C$DW$38, DW_AT_location[DW_OP_reg12]
     615            
     616            $C$DW$39        .dwtag  DW_TAG_formal_parameter
     617                    .dwattr $C$DW$39, DW_AT_name("txData")
     618                    .dwattr $C$DW$39, DW_AT_TI_symbol_name("txData")
     619                    .dwattr $C$DW$39, DW_AT_type(*$C$DW$T$23)
     620                    .dwattr $C$DW$39, DW_AT_location[DW_OP_reg13]
     621            
     622            
     623            ;*****************************************************************************
     624            ;* FUNCTION NAME: USCI_B_I2C_masterSendSingleByte                            *
     625            ;*                                                                           *
     626            ;*   Regs Modified     : SP,SR,r11,r12,r13,r14,r15                           *
     627            ;*   Regs Used         : SP,SR,r11,r12,r13,r14,r15                           *
     628            ;*   Local Frame Size  : 0 Args + 0 Auto + 0 Save = 0 byte                   *
     629            ;*****************************************************************************
     630 000000       USCI_B_I2C_masterSendSingleByte:
     631            ;* --------------------------------------------------------------------------*
     632                    .dwcfi  cfa_offset, 4
     633                    .dwcfi  save_reg_to_mem, 16, -4
     634            ;* r12   assigned to baseAddress
     635            $C$DW$40        .dwtag  DW_TAG_variable
     636                    .dwattr $C$DW$40, DW_AT_name("baseAddress")
     637                    .dwattr $C$DW$40, DW_AT_TI_symbol_name("baseAddress")
MSP430 Assembler PC v21.6.1 Tue Dec 20 13:45:55 2022

Copyright (c) 2003-2018 Texas Instruments Incorporated
usci_b_i2c.asm                                                       PAGE   13

     638                    .dwattr $C$DW$40, DW_AT_type(*$C$DW$T$32)
     639                    .dwattr $C$DW$40, DW_AT_location[DW_OP_reg12]
     640            
     641            ;* r13   assigned to txData
     642            $C$DW$41        .dwtag  DW_TAG_variable
     643                    .dwattr $C$DW$41, DW_AT_name("txData")
     644                    .dwattr $C$DW$41, DW_AT_TI_symbol_name("txData")
     645                    .dwattr $C$DW$41, DW_AT_type(*$C$DW$T$23)
     646                    .dwattr $C$DW$41, DW_AT_location[DW_OP_reg13]
     647            
     648            ;* r15   assigned to txieStatus
     649            $C$DW$42        .dwtag  DW_TAG_variable
     650                    .dwattr $C$DW$42, DW_AT_name("txieStatus")
     651                    .dwattr $C$DW$42, DW_AT_TI_symbol_name("txieStatus")
     652                    .dwattr $C$DW$42, DW_AT_type(*$C$DW$T$23)
     653                    .dwattr $C$DW$42, DW_AT_location[DW_OP_reg15]
     654            
     655                    .dwpsn  file "../MP430DriverLib/driverlib/MSP430F5xx_6xx/usci_b_i2c.c",line 177,column 24,is_s
     656 000000 0CCE          MOVA      r12,r14               ; [] |177| 
     657 000002 503E          ADD.W     #28,r14               ; [] |177| 
         000004 001C 
     658 000006 432F          MOV.W     #2,r15                ; [] |177| 
     659 000008 FE6F          AND.B     @r14,r15              ; [] |177| 
     660                    .dwpsn  file "../MP430DriverLib/driverlib/MSP430F5xx_6xx/usci_b_i2c.c",line 180,column 5,is_st
     661 00000a 0CCE          MOVA      r12,r14               ; [] |180| 
     662 00000c 503E          ADD.W     #28,r14               ; [] |180| 
         00000e 001C 
     663 000010 4E0E          MOV.W     r14,r14               ; [] |180| 
     664 000012 C3EE          BIC.B     #2,0(r14)             ; [] |180| 
         000014 0000 
     665                    .dwpsn  file "../MP430DriverLib/driverlib/MSP430F5xx_6xx/usci_b_i2c.c",line 183,column 5,is_st
     666 000016 D0FC          OR.B      #18,0(r12)            ; [] |183| 
         000018 0012 
         00001a 0000 
     667 00001c 432B          MOV.W     #2,r11                ; [] |186| 
     668            ;* --------------------------------------------------------------------------*
     669            ;*   BEGIN LOOP $C$L9
     670            ;*
     671            ;*   Loop source line                : 186
     672            ;*   Loop closing brace source line  : 186
     673            ;*   Known Minimum Trip Count        : 1
     674            ;*   Known Maximum Trip Count        : 4294967295
     675            ;*   Known Max Trip Count Factor     : 1
     676            ;* --------------------------------------------------------------------------*
     677 00001e       $C$L9:    
     678                    .dwpsn  file "../MP430DriverLib/driverlib/MSP430F5xx_6xx/usci_b_i2c.c",line 186,column 12,is_s
     679 00001e 0CCE          MOVA      r12,r14               ; [] |186| 
     680 000020 503E          ADD.W     #29,r14               ; [] |186| 
         000022 001D 
     681 000024 BE6B          BIT.B     @r14,r11              ; [] |186| 
     682 000026 27FB          JEQ       $C$L9                 ; [] |186| 
     683                                                      ; [] |186| 
     684            ;* --------------------------------------------------------------------------*
     685                    .dwpsn  file "../MP430DriverLib/driverlib/MSP430F5xx_6xx/usci_b_i2c.c",line 189,column 5,is_st
     686 000028 0CCE          MOVA      r12,r14               ; [] |189| 
MSP430 Assembler PC v21.6.1 Tue Dec 20 13:45:55 2022

Copyright (c) 2003-2018 Texas Instruments Incorporated
usci_b_i2c.asm                                                       PAGE   14

     687 00002a 503E          ADD.W     #14,r14               ; [] |189| 
         00002c 000E 
     688 00002e 4DCE          MOV.B     r13,0(r14)            ; [] |189| 
         000030 0000 
     689 000032 432D          MOV.W     #2,r13                ; [] |192| 
     690            ;* --------------------------------------------------------------------------*
     691            ;*   BEGIN LOOP $C$L10
     692            ;*
     693            ;*   Loop source line                : 192
     694            ;*   Loop closing brace source line  : 192
     695            ;*   Known Minimum Trip Count        : 1
     696            ;*   Known Maximum Trip Count        : 4294967295
     697            ;*   Known Max Trip Count Factor     : 1
     698            ;* --------------------------------------------------------------------------*
     699 000034       $C$L10:    
     700                    .dwpsn  file "../MP430DriverLib/driverlib/MSP430F5xx_6xx/usci_b_i2c.c",line 192,column 12,is_s
     701 000034 0CCE          MOVA      r12,r14               ; [] |192| 
     702 000036 503E          ADD.W     #29,r14               ; [] |192| 
         000038 001D 
     703 00003a BE6D          BIT.B     @r14,r13              ; [] |192| 
     704 00003c 27FB          JEQ       $C$L10                ; [] |192| 
     705                                                      ; [] |192| 
     706            ;* --------------------------------------------------------------------------*
     707                    .dwpsn  file "../MP430DriverLib/driverlib/MSP430F5xx_6xx/usci_b_i2c.c",line 195,column 5,is_st
     708 00003e D2EC          OR.B      #4,0(r12)             ; [] |195| 
         000040 0000 
     709                    .dwpsn  file "../MP430DriverLib/driverlib/MSP430F5xx_6xx/usci_b_i2c.c",line 198,column 5,is_st
     710 000042 0CCE          MOVA      r12,r14               ; [] |198| 
     711 000044 503E          ADD.W     #29,r14               ; [] |198| 
         000046 001D 
     712 000048 4E0E          MOV.W     r14,r14               ; [] |198| 
     713 00004a C3EE          BIC.B     #2,0(r14)             ; [] |198| 
         00004c 0000 
     714                    .dwpsn  file "../MP430DriverLib/driverlib/MSP430F5xx_6xx/usci_b_i2c.c",line 201,column 5,is_st
     715 00004e 503C          ADD.W     #28,r12               ; [] |201| 
         000050 001C 
     716 000052 4C0E          MOV.W     r12,r14               ; [] |201| 
     717 000054 DFCE          OR.B      r15,0(r14)            ; [] |201| 
         000056 0000 
     718                    .dwpsn  file "../MP430DriverLib/driverlib/MSP430F5xx_6xx/usci_b_i2c.c",line 202,column 1,is_st
     719            $C$DW$43        .dwtag  DW_TAG_TI_branch
     720                    .dwattr $C$DW$43, DW_AT_low_pc(0x00)
     721                    .dwattr $C$DW$43, DW_AT_TI_return
     722            
     723 000058 0110          RETA      ; [] 
     724                    ; [] 
     725                    .dwattr $C$DW$37, DW_AT_TI_end_file("../MP430DriverLib/driverlib/MSP430F5xx_6xx/usci_b_i2c.c")
     726                    .dwattr $C$DW$37, DW_AT_TI_end_line(0xca)
     727                    .dwattr $C$DW$37, DW_AT_TI_end_column(0x01)
     728                    .dwendentry
     729                    .dwendtag $C$DW$37
     730            
     731 000000               .sect   ".text:USCI_B_I2C_masterSendMultiByteStopWithTimeout"
     732                    .clink
     733                    .global USCI_B_I2C_masterSendMultiByteStopWithTimeout
MSP430 Assembler PC v21.6.1 Tue Dec 20 13:45:55 2022

Copyright (c) 2003-2018 Texas Instruments Incorporated
usci_b_i2c.asm                                                       PAGE   15

     734            
     735            $C$DW$44        .dwtag  DW_TAG_subprogram
     736                    .dwattr $C$DW$44, DW_AT_name("USCI_B_I2C_masterSendMultiByteStopWithTimeout")
     737                    .dwattr $C$DW$44, DW_AT_low_pc(USCI_B_I2C_masterSendMultiByteStopWithTimeout)
     738                    .dwattr $C$DW$44, DW_AT_high_pc(0x00)
     739                    .dwattr $C$DW$44, DW_AT_TI_symbol_name("USCI_B_I2C_masterSendMultiByteStopWithTimeout")
     740                    .dwattr $C$DW$44, DW_AT_external
     741                    .dwattr $C$DW$44, DW_AT_type(*$C$DW$T$160)
     742                    .dwattr $C$DW$44, DW_AT_TI_begin_file("../MP430DriverLib/driverlib/MSP430F5xx_6xx/usci_b_i2c.c
     743                    .dwattr $C$DW$44, DW_AT_TI_begin_line(0x199)
     744                    .dwattr $C$DW$44, DW_AT_TI_begin_column(0x06)
     745                    .dwattr $C$DW$44, DW_AT_decl_file("../MP430DriverLib/driverlib/MSP430F5xx_6xx/usci_b_i2c.c")
     746                    .dwattr $C$DW$44, DW_AT_decl_line(0x199)
     747                    .dwattr $C$DW$44, DW_AT_decl_column(0x06)
     748                    .dwattr $C$DW$44, DW_AT_TI_max_frame_size(0x04)
     749                    .dwpsn  file "../MP430DriverLib/driverlib/MSP430F5xx_6xx/usci_b_i2c.c",line 411,column 1,is_st
     750            
     751                    .dwfde $C$DW$CIE, USCI_B_I2C_masterSendMultiByteStopWithTimeout
     752            $C$DW$45        .dwtag  DW_TAG_formal_parameter
     753                    .dwattr $C$DW$45, DW_AT_name("baseAddress")
     754                    .dwattr $C$DW$45, DW_AT_TI_symbol_name("baseAddress")
     755                    .dwattr $C$DW$45, DW_AT_type(*$C$DW$T$32)
     756                    .dwattr $C$DW$45, DW_AT_location[DW_OP_reg12]
     757            
     758            $C$DW$46        .dwtag  DW_TAG_formal_parameter
     759                    .dwattr $C$DW$46, DW_AT_name("timeout")
     760                    .dwattr $C$DW$46, DW_AT_TI_symbol_name("timeout")
     761                    .dwattr $C$DW$46, DW_AT_type(*$C$DW$T$25)
     762                    .dwattr $C$DW$46, DW_AT_location[DW_OP_reg13 DW_OP_piece 2 DW_OP_reg14 DW_OP_piece 2]
     763            
     764            
     765            ;*****************************************************************************
     766            ;* FUNCTION NAME: USCI_B_I2C_masterSendMultiByteStopWithTimeout              *
     767            ;*                                                                           *
     768            ;*   Regs Modified     : SP,SR,r11,r12,r13,r14,r15                           *
     769            ;*   Regs Used         : SP,SR,r11,r12,r13,r14,r15                           *
     770            ;*   Local Frame Size  : 0 Args + 0 Auto + 0 Save = 0 byte                   *
     771            ;*****************************************************************************
     772 000000       USCI_B_I2C_masterSendMultiByteStopWithTimeout:
     773            ;* --------------------------------------------------------------------------*
     774                    .dwcfi  cfa_offset, 4
     775                    .dwcfi  save_reg_to_mem, 16, -4
     776            ;* r12   assigned to baseAddress
     777            $C$DW$47        .dwtag  DW_TAG_variable
     778                    .dwattr $C$DW$47, DW_AT_name("baseAddress")
     779                    .dwattr $C$DW$47, DW_AT_TI_symbol_name("baseAddress")
     780                    .dwattr $C$DW$47, DW_AT_type(*$C$DW$T$32)
     781                    .dwattr $C$DW$47, DW_AT_location[DW_OP_reg12]
     782            
     783            ;* r13   assigned to timeout
     784            $C$DW$48        .dwtag  DW_TAG_variable
     785                    .dwattr $C$DW$48, DW_AT_name("timeout")
     786                    .dwattr $C$DW$48, DW_AT_TI_symbol_name("timeout")
     787                    .dwattr $C$DW$48, DW_AT_type(*$C$DW$T$25)
     788                    .dwattr $C$DW$48, DW_AT_location[DW_OP_reg13 DW_OP_piece 2 DW_OP_reg14 DW_OP_piece 2]
MSP430 Assembler PC v21.6.1 Tue Dec 20 13:45:55 2022

Copyright (c) 2003-2018 Texas Instruments Incorporated
usci_b_i2c.asm                                                       PAGE   16

     789            
     790                    .dwpsn  file "../MP430DriverLib/driverlib/MSP430F5xx_6xx/usci_b_i2c.c",line 413,column 5,is_st
     791 000000 0CCF          MOVA      r12,r15               ; [] |413| 
     792 000002 503F          ADD.W     #28,r15               ; [] |413| 
         000004 001C 
     793 000006 432B          MOV.W     #2,r11                ; [] |413| 
     794 000008 BF6B          BIT.B     @r15,r11              ; [] |413| 
     795 00000a 200E          JNE       $C$L13                ; [] |413| 
     796                                                      ; [] |413| 
     797            ;* --------------------------------------------------------------------------*
     798            ;*   BEGIN LOOP $C$L11
     799            ;*
     800            ;*   Loop source line                : 415
     801            ;*   Loop closing brace source line  : 415
     802            ;*   Known Minimum Trip Count        : 1
     803            ;*   Known Maximum Trip Count        : 4294967295
     804            ;*   Known Max Trip Count Factor     : 1
     805            ;* --------------------------------------------------------------------------*
     806 00000c       $C$L11:    
     807                    .dwpsn  file "../MP430DriverLib/driverlib/MSP430F5xx_6xx/usci_b_i2c.c",line 415,column 16,is_s
     808 00000c 0CCF          MOVA      r12,r15               ; [] |415| 
     809 00000e 503F          ADD.W     #29,r15               ; [] |415| 
         000010 001D 
     810 000012 BF6B          BIT.B     @r15,r11              ; [] |415| 
     811 000014 2005          JNE       $C$L12                ; [] |415| 
     812                                                      ; [] |415| 
     813            ;* --------------------------------------------------------------------------*
     814 000016 831D          SUB.W     #1,r13                ; [] |415| 
     815 000018 730E          SUBC.W    #0,r14                ; [] |415| 
     816 00001a 23F8          JNE       $C$L11                ; [] |415| 
     817                                                      ; [] |415| 
     818            ;* --------------------------------------------------------------------------*
     819 00001c 930D          TST.W     r13                   ; [] |415| 
     820 00001e 23F6          JNE       $C$L11                ; [] |415| 
     821                                                      ; [] |415| 
     822            ;* --------------------------------------------------------------------------*
     823 000020       $C$L12:    
     824                    .dwpsn  file "../MP430DriverLib/driverlib/MSP430F5xx_6xx/usci_b_i2c.c",line 418,column 9,is_st
     825 000020 930E          TST.W     r14                   ; [] |418| 
     826 000022 2002          JNE       $C$L13                ; [] |418| 
     827                                                      ; [] |418| 
     828            ;* --------------------------------------------------------------------------*
     829 000024 930D          TST.W     r13                   ; [] |418| 
     830 000026 2404          JEQ       $C$L14                ; [] |418| 
     831                                                      ; [] |418| 
     832            ;* --------------------------------------------------------------------------*
     833 000028       $C$L13:    
     834                    .dwpsn  file "../MP430DriverLib/driverlib/MSP430F5xx_6xx/usci_b_i2c.c",line 424,column 5,is_st
     835 000028 D2EC          OR.B      #4,0(r12)             ; [] |424| 
         00002a 0000 
     836                    .dwpsn  file "../MP430DriverLib/driverlib/MSP430F5xx_6xx/usci_b_i2c.c",line 426,column 5,is_st
     837 00002c 435C          MOV.B     #1,r12                ; [] |426| 
     838 00002e 3C01          JMP       $C$L15                ; [] |426| 
     839                                                      ; [] |426| 
     840            ;* --------------------------------------------------------------------------*
MSP430 Assembler PC v21.6.1 Tue Dec 20 13:45:55 2022

Copyright (c) 2003-2018 Texas Instruments Incorporated
usci_b_i2c.asm                                                       PAGE   17

     841 000030       $C$L14:    
     842                    .dwpsn  file "../MP430DriverLib/driverlib/MSP430F5xx_6xx/usci_b_i2c.c",line 419,column 13,is_s
     843 000030 434C          MOV.B     #0,r12                ; [] |419| 
     844            ;* --------------------------------------------------------------------------*
     845 000032       $C$L15:    
     846                    .dwpsn  file "../MP430DriverLib/driverlib/MSP430F5xx_6xx/usci_b_i2c.c",line 427,column 1,is_st
     847            $C$DW$49        .dwtag  DW_TAG_TI_branch
     848                    .dwattr $C$DW$49, DW_AT_low_pc(0x00)
     849                    .dwattr $C$DW$49, DW_AT_TI_return
     850            
     851 000032 0110          RETA      ; [] 
     852                    ; [] 
     853                    .dwattr $C$DW$44, DW_AT_TI_end_file("../MP430DriverLib/driverlib/MSP430F5xx_6xx/usci_b_i2c.c")
     854                    .dwattr $C$DW$44, DW_AT_TI_end_line(0x1ab)
     855                    .dwattr $C$DW$44, DW_AT_TI_end_column(0x01)
     856                    .dwendentry
     857                    .dwendtag $C$DW$44
     858            
     859 000000               .sect   ".text:USCI_B_I2C_masterSendMultiByteStop"
     860                    .clink
     861                    .global USCI_B_I2C_masterSendMultiByteStop
     862            
     863            $C$DW$50        .dwtag  DW_TAG_subprogram
     864                    .dwattr $C$DW$50, DW_AT_name("USCI_B_I2C_masterSendMultiByteStop")
     865                    .dwattr $C$DW$50, DW_AT_low_pc(USCI_B_I2C_masterSendMultiByteStop)
     866                    .dwattr $C$DW$50, DW_AT_high_pc(0x00)
     867                    .dwattr $C$DW$50, DW_AT_TI_symbol_name("USCI_B_I2C_masterSendMultiByteStop")
     868                    .dwattr $C$DW$50, DW_AT_external
     869                    .dwattr $C$DW$50, DW_AT_TI_begin_file("../MP430DriverLib/driverlib/MSP430F5xx_6xx/usci_b_i2c.c
     870                    .dwattr $C$DW$50, DW_AT_TI_begin_line(0x18d)
     871                    .dwattr $C$DW$50, DW_AT_TI_begin_column(0x06)
     872                    .dwattr $C$DW$50, DW_AT_decl_file("../MP430DriverLib/driverlib/MSP430F5xx_6xx/usci_b_i2c.c")
     873                    .dwattr $C$DW$50, DW_AT_decl_line(0x18d)
     874                    .dwattr $C$DW$50, DW_AT_decl_column(0x06)
     875                    .dwattr $C$DW$50, DW_AT_TI_max_frame_size(0x04)
     876                    .dwpsn  file "../MP430DriverLib/driverlib/MSP430F5xx_6xx/usci_b_i2c.c",line 398,column 1,is_st
     877            
     878                    .dwfde $C$DW$CIE, USCI_B_I2C_masterSendMultiByteStop
     879            $C$DW$51        .dwtag  DW_TAG_formal_parameter
     880                    .dwattr $C$DW$51, DW_AT_name("baseAddress")
     881                    .dwattr $C$DW$51, DW_AT_TI_symbol_name("baseAddress")
     882                    .dwattr $C$DW$51, DW_AT_type(*$C$DW$T$32)
     883                    .dwattr $C$DW$51, DW_AT_location[DW_OP_reg12]
     884            
     885            
     886            ;*****************************************************************************
     887            ;* FUNCTION NAME: USCI_B_I2C_masterSendMultiByteStop                         *
     888            ;*                                                                           *
     889            ;*   Regs Modified     : SP,SR,r14,r15                                       *
     890            ;*   Regs Used         : SP,SR,r12,r14,r15                                   *
     891            ;*   Local Frame Size  : 0 Args + 0 Auto + 0 Save = 0 byte                   *
     892            ;*****************************************************************************
     893 000000       USCI_B_I2C_masterSendMultiByteStop:
     894            ;* --------------------------------------------------------------------------*
     895                    .dwcfi  cfa_offset, 4
MSP430 Assembler PC v21.6.1 Tue Dec 20 13:45:55 2022

Copyright (c) 2003-2018 Texas Instruments Incorporated
usci_b_i2c.asm                                                       PAGE   18

     896                    .dwcfi  save_reg_to_mem, 16, -4
     897            ;* r12   assigned to baseAddress
     898            $C$DW$52        .dwtag  DW_TAG_variable
     899                    .dwattr $C$DW$52, DW_AT_name("baseAddress")
     900                    .dwattr $C$DW$52, DW_AT_TI_symbol_name("baseAddress")
     901                    .dwattr $C$DW$52, DW_AT_type(*$C$DW$T$32)
     902                    .dwattr $C$DW$52, DW_AT_location[DW_OP_reg12]
     903            
     904                    .dwpsn  file "../MP430DriverLib/driverlib/MSP430F5xx_6xx/usci_b_i2c.c",line 400,column 5,is_st
     905 000000 0CCF          MOVA      r12,r15               ; [] |400| 
     906 000002 503F          ADD.W     #28,r15               ; [] |400| 
         000004 001C 
     907 000006 432E          MOV.W     #2,r14                ; [] |400| 
     908 000008 BF6E          BIT.B     @r15,r14              ; [] |400| 
     909 00000a 2005          JNE       $C$L17                ; [] |400| 
     910                                                      ; [] |400| 
     911            ;* --------------------------------------------------------------------------*
     912            ;*   BEGIN LOOP $C$L16
     913            ;*
     914            ;*   Loop source line                : 402
     915            ;*   Loop closing brace source line  : 402
     916            ;*   Known Minimum Trip Count        : 1
     917            ;*   Known Maximum Trip Count        : 4294967295
     918            ;*   Known Max Trip Count Factor     : 1
     919            ;* --------------------------------------------------------------------------*
     920 00000c       $C$L16:    
     921                    .dwpsn  file "../MP430DriverLib/driverlib/MSP430F5xx_6xx/usci_b_i2c.c",line 402,column 16,is_s
     922 00000c 0CCF          MOVA      r12,r15               ; [] |402| 
     923 00000e 503F          ADD.W     #29,r15               ; [] |402| 
         000010 001D 
     924 000012 BF6E          BIT.B     @r15,r14              ; [] |402| 
     925 000014 27FB          JEQ       $C$L16                ; [] |402| 
     926                                                      ; [] |402| 
     927            ;* --------------------------------------------------------------------------*
     928 000016       $C$L17:    
     929                    .dwpsn  file "../MP430DriverLib/driverlib/MSP430F5xx_6xx/usci_b_i2c.c",line 406,column 5,is_st
     930 000016 D2EC          OR.B      #4,0(r12)             ; [] |406| 
         000018 0000 
     931                    .dwpsn  file "../MP430DriverLib/driverlib/MSP430F5xx_6xx/usci_b_i2c.c",line 407,column 1,is_st
     932            $C$DW$53        .dwtag  DW_TAG_TI_branch
     933                    .dwattr $C$DW$53, DW_AT_low_pc(0x00)
     934                    .dwattr $C$DW$53, DW_AT_TI_return
     935            
     936 00001a 0110          RETA      ; [] 
     937                    ; [] 
     938                    .dwattr $C$DW$50, DW_AT_TI_end_file("../MP430DriverLib/driverlib/MSP430F5xx_6xx/usci_b_i2c.c")
     939                    .dwattr $C$DW$50, DW_AT_TI_end_line(0x197)
     940                    .dwattr $C$DW$50, DW_AT_TI_end_column(0x01)
     941                    .dwendentry
     942                    .dwendtag $C$DW$50
     943            
     944 000000               .sect   ".text:USCI_B_I2C_masterSendMultiByteStartWithTimeout"
     945                    .clink
     946                    .global USCI_B_I2C_masterSendMultiByteStartWithTimeout
     947            
MSP430 Assembler PC v21.6.1 Tue Dec 20 13:45:55 2022

Copyright (c) 2003-2018 Texas Instruments Incorporated
usci_b_i2c.asm                                                       PAGE   19

     948            $C$DW$54        .dwtag  DW_TAG_subprogram
     949                    .dwattr $C$DW$54, DW_AT_name("USCI_B_I2C_masterSendMultiByteStartWithTimeout")
     950                    .dwattr $C$DW$54, DW_AT_low_pc(USCI_B_I2C_masterSendMultiByteStartWithTimeout)
     951                    .dwattr $C$DW$54, DW_AT_high_pc(0x00)
     952                    .dwattr $C$DW$54, DW_AT_TI_symbol_name("USCI_B_I2C_masterSendMultiByteStartWithTimeout")
     953                    .dwattr $C$DW$54, DW_AT_external
     954                    .dwattr $C$DW$54, DW_AT_type(*$C$DW$T$160)
     955                    .dwattr $C$DW$54, DW_AT_TI_begin_file("../MP430DriverLib/driverlib/MSP430F5xx_6xx/usci_b_i2c.c
     956                    .dwattr $C$DW$54, DW_AT_TI_begin_line(0x113)
     957                    .dwattr $C$DW$54, DW_AT_TI_begin_column(0x06)
     958                    .dwattr $C$DW$54, DW_AT_decl_file("../MP430DriverLib/driverlib/MSP430F5xx_6xx/usci_b_i2c.c")
     959                    .dwattr $C$DW$54, DW_AT_decl_line(0x113)
     960                    .dwattr $C$DW$54, DW_AT_decl_column(0x06)
     961                    .dwattr $C$DW$54, DW_AT_TI_max_frame_size(0x0c)
     962                    .dwpsn  file "../MP430DriverLib/driverlib/MSP430F5xx_6xx/usci_b_i2c.c",line 279,column 1,is_st
     963            
     964                    .dwfde $C$DW$CIE, USCI_B_I2C_masterSendMultiByteStartWithTimeout
     965            $C$DW$55        .dwtag  DW_TAG_formal_parameter
     966                    .dwattr $C$DW$55, DW_AT_name("baseAddress")
     967                    .dwattr $C$DW$55, DW_AT_TI_symbol_name("baseAddress")
     968                    .dwattr $C$DW$55, DW_AT_type(*$C$DW$T$32)
     969                    .dwattr $C$DW$55, DW_AT_location[DW_OP_reg12]
     970            
     971            $C$DW$56        .dwtag  DW_TAG_formal_parameter
     972                    .dwattr $C$DW$56, DW_AT_name("txData")
     973                    .dwattr $C$DW$56, DW_AT_TI_symbol_name("txData")
     974                    .dwattr $C$DW$56, DW_AT_type(*$C$DW$T$23)
     975                    .dwattr $C$DW$56, DW_AT_location[DW_OP_reg13]
     976            
     977            $C$DW$57        .dwtag  DW_TAG_formal_parameter
     978                    .dwattr $C$DW$57, DW_AT_name("timeout")
     979                    .dwattr $C$DW$57, DW_AT_TI_symbol_name("timeout")
     980                    .dwattr $C$DW$57, DW_AT_type(*$C$DW$T$25)
     981                    .dwattr $C$DW$57, DW_AT_location[DW_OP_reg14 DW_OP_piece 2 DW_OP_reg15 DW_OP_piece 2]
     982            
     983            
     984            ;*****************************************************************************
     985            ;* FUNCTION NAME: USCI_B_I2C_masterSendMultiByteStartWithTimeout             *
     986            ;*                                                                           *
     987            ;*   Regs Modified     : SP,SR,r9,r10,r11,r12,r14,r15                        *
     988            ;*   Regs Used         : SP,SR,r9,r10,r11,r12,r13,r14,r15                    *
     989            ;*   Local Frame Size  : 0 Args + 0 Auto + 8 Save = 8 byte                   *
     990            ;*****************************************************************************
     991 000000       USCI_B_I2C_masterSendMultiByteStartWithTimeout:
     992            ;* --------------------------------------------------------------------------*
     993                    .dwcfi  cfa_offset, 4
     994                    .dwcfi  save_reg_to_mem, 16, -4
     995 000000 141A          PUSHM.A   #2,r10                ; [] 
     996                    .dwcfi  save_reg_to_mem, 10, -8
     997                    .dwcfi  save_reg_to_mem, 9, -12
     998                    .dwcfi  cfa_offset, 12
     999            ;* r12   assigned to baseAddress
    1000            $C$DW$58        .dwtag  DW_TAG_variable
    1001                    .dwattr $C$DW$58, DW_AT_name("baseAddress")
    1002                    .dwattr $C$DW$58, DW_AT_TI_symbol_name("baseAddress")
MSP430 Assembler PC v21.6.1 Tue Dec 20 13:45:55 2022

Copyright (c) 2003-2018 Texas Instruments Incorporated
usci_b_i2c.asm                                                       PAGE   20

    1003                    .dwattr $C$DW$58, DW_AT_type(*$C$DW$T$32)
    1004                    .dwattr $C$DW$58, DW_AT_location[DW_OP_reg12]
    1005            
    1006            ;* r13   assigned to txData
    1007            $C$DW$59        .dwtag  DW_TAG_variable
    1008                    .dwattr $C$DW$59, DW_AT_name("txData")
    1009                    .dwattr $C$DW$59, DW_AT_TI_symbol_name("txData")
    1010                    .dwattr $C$DW$59, DW_AT_type(*$C$DW$T$23)
    1011                    .dwattr $C$DW$59, DW_AT_location[DW_OP_reg13]
    1012            
    1013            ;* r14   assigned to timeout
    1014            $C$DW$60        .dwtag  DW_TAG_variable
    1015                    .dwattr $C$DW$60, DW_AT_name("timeout")
    1016                    .dwattr $C$DW$60, DW_AT_TI_symbol_name("timeout")
    1017                    .dwattr $C$DW$60, DW_AT_type(*$C$DW$T$25)
    1018                    .dwattr $C$DW$60, DW_AT_location[DW_OP_reg14 DW_OP_piece 2 DW_OP_reg15 DW_OP_piece 2]
    1019            
    1020            ;* r11   assigned to txieStatus
    1021            $C$DW$61        .dwtag  DW_TAG_variable
    1022                    .dwattr $C$DW$61, DW_AT_name("txieStatus")
    1023                    .dwattr $C$DW$61, DW_AT_TI_symbol_name("txieStatus")
    1024                    .dwattr $C$DW$61, DW_AT_type(*$C$DW$T$23)
    1025                    .dwattr $C$DW$61, DW_AT_location[DW_OP_reg11]
    1026            
    1027                    .dwpsn  file "../MP430DriverLib/driverlib/MSP430F5xx_6xx/usci_b_i2c.c",line 281,column 24,is_s
    1028 000002 0CCA          MOVA      r12,r10               ; [] |281| 
    1029 000004 503A          ADD.W     #28,r10               ; [] |281| 
         000006 001C 
    1030 000008 432B          MOV.W     #2,r11                ; [] |281| 
    1031 00000a FA6B          AND.B     @r10,r11              ; [] |281| 
    1032                    .dwpsn  file "../MP430DriverLib/driverlib/MSP430F5xx_6xx/usci_b_i2c.c",line 284,column 5,is_st
    1033 00000c 0CCA          MOVA      r12,r10               ; [] |284| 
    1034 00000e 503A          ADD.W     #28,r10               ; [] |284| 
         000010 001C 
    1035 000012 4A0A          MOV.W     r10,r10               ; [] |284| 
    1036 000014 C3EA          BIC.B     #2,0(r10)             ; [] |284| 
         000016 0000 
    1037                    .dwpsn  file "../MP430DriverLib/driverlib/MSP430F5xx_6xx/usci_b_i2c.c",line 287,column 5,is_st
    1038 000018 D0FC          OR.B      #18,0(r12)            ; [] |287| 
         00001a 0012 
         00001c 0000 
    1039            ;* --------------------------------------------------------------------------*
    1040            ;*   BEGIN LOOP $C$L18
    1041            ;*
    1042            ;*   Loop source line                : 290
    1043            ;*   Loop closing brace source line  : 290
    1044            ;*   Known Minimum Trip Count        : 1
    1045            ;*   Known Maximum Trip Count        : 4294967295
    1046            ;*   Known Max Trip Count Factor     : 1
    1047            ;* --------------------------------------------------------------------------*
    1048 00001e       $C$L18:    
    1049                    .dwpsn  file "../MP430DriverLib/driverlib/MSP430F5xx_6xx/usci_b_i2c.c",line 290,column 12,is_s
    1050 00001e 0CCA          MOVA      r12,r10               ; [] |290| 
    1051 000020 503A          ADD.W     #29,r10               ; [] |290| 
         000022 001D 
MSP430 Assembler PC v21.6.1 Tue Dec 20 13:45:55 2022

Copyright (c) 2003-2018 Texas Instruments Incorporated
usci_b_i2c.asm                                                       PAGE   21

    1052 000024 4329          MOV.W     #2,r9                 ; [] |290| 
    1053 000026 BA69          BIT.B     @r10,r9               ; [] |290| 
    1054 000028 2005          JNE       $C$L19                ; [] |290| 
    1055                                                      ; [] |290| 
    1056            ;* --------------------------------------------------------------------------*
    1057 00002a 831E          SUB.W     #1,r14                ; [] |290| 
    1058 00002c 730F          SUBC.W    #0,r15                ; [] |290| 
    1059 00002e 23F7          JNE       $C$L18                ; [] |290| 
    1060                                                      ; [] |290| 
    1061            ;* --------------------------------------------------------------------------*
    1062 000030 930E          TST.W     r14                   ; [] |290| 
    1063 000032 23F5          JNE       $C$L18                ; [] |290| 
    1064                                                      ; [] |290| 
    1065            ;* --------------------------------------------------------------------------*
    1066 000034       $C$L19:    
    1067                    .dwpsn  file "../MP430DriverLib/driverlib/MSP430F5xx_6xx/usci_b_i2c.c",line 293,column 5,is_st
    1068 000034 930F          TST.W     r15                   ; [] |293| 
    1069 000036 2002          JNE       $C$L20                ; [] |293| 
    1070                                                      ; [] |293| 
    1071            ;* --------------------------------------------------------------------------*
    1072 000038 930E          TST.W     r14                   ; [] |293| 
    1073 00003a 240C          JEQ       $C$L21                ; [] |293| 
    1074                                                      ; [] |293| 
    1075            ;* --------------------------------------------------------------------------*
    1076 00003c       $C$L20:    
    1077                    .dwpsn  file "../MP430DriverLib/driverlib/MSP430F5xx_6xx/usci_b_i2c.c",line 298,column 5,is_st
    1078 00003c 0CCF          MOVA      r12,r15               ; [] |298| 
    1079 00003e 503F          ADD.W     #14,r15               ; [] |298| 
         000040 000E 
    1080 000042 4DCF          MOV.B     r13,0(r15)            ; [] |298| 
         000044 0000 
    1081                    .dwpsn  file "../MP430DriverLib/driverlib/MSP430F5xx_6xx/usci_b_i2c.c",line 301,column 5,is_st
    1082 000046 503C          ADD.W     #28,r12               ; [] |301| 
         000048 001C 
    1083 00004a 4C0F          MOV.W     r12,r15               ; [] |301| 
    1084 00004c DBCF          OR.B      r11,0(r15)            ; [] |301| 
         00004e 0000 
    1085                    .dwpsn  file "../MP430DriverLib/driverlib/MSP430F5xx_6xx/usci_b_i2c.c",line 303,column 5,is_st
    1086 000050 435C          MOV.B     #1,r12                ; [] |303| 
    1087 000052 3C01          JMP       $C$L22                ; [] |303| 
    1088                                                      ; [] |303| 
    1089            ;* --------------------------------------------------------------------------*
    1090 000054       $C$L21:    
    1091                    .dwpsn  file "../MP430DriverLib/driverlib/MSP430F5xx_6xx/usci_b_i2c.c",line 294,column 9,is_st
    1092 000054 434C          MOV.B     #0,r12                ; [] |294| 
    1093            ;* --------------------------------------------------------------------------*
    1094 000056       $C$L22:    
    1095                    .dwpsn  file "../MP430DriverLib/driverlib/MSP430F5xx_6xx/usci_b_i2c.c",line 304,column 1,is_st
    1096 000056 1619          POPM.A    #2,r10                ; [] 
    1097                    .dwcfi  restore_reg, 9
    1098                    .dwcfi  restore_reg, 10
    1099                    .dwcfi  cfa_offset, 4
    1100            $C$DW$62        .dwtag  DW_TAG_TI_branch
    1101                    .dwattr $C$DW$62, DW_AT_low_pc(0x00)
    1102                    .dwattr $C$DW$62, DW_AT_TI_return
MSP430 Assembler PC v21.6.1 Tue Dec 20 13:45:55 2022

Copyright (c) 2003-2018 Texas Instruments Incorporated
usci_b_i2c.asm                                                       PAGE   22

    1103            
    1104 000058 0110          RETA      ; [] 
    1105                    ; [] 
    1106                    .dwattr $C$DW$54, DW_AT_TI_end_file("../MP430DriverLib/driverlib/MSP430F5xx_6xx/usci_b_i2c.c")
    1107                    .dwattr $C$DW$54, DW_AT_TI_end_line(0x130)
    1108                    .dwattr $C$DW$54, DW_AT_TI_end_column(0x01)
    1109                    .dwendentry
    1110                    .dwendtag $C$DW$54
    1111            
    1112 000000               .sect   ".text:USCI_B_I2C_masterSendMultiByteStart"
    1113                    .clink
    1114                    .global USCI_B_I2C_masterSendMultiByteStart
    1115            
    1116            $C$DW$63        .dwtag  DW_TAG_subprogram
    1117                    .dwattr $C$DW$63, DW_AT_name("USCI_B_I2C_masterSendMultiByteStart")
    1118                    .dwattr $C$DW$63, DW_AT_low_pc(USCI_B_I2C_masterSendMultiByteStart)
    1119                    .dwattr $C$DW$63, DW_AT_high_pc(0x00)
    1120                    .dwattr $C$DW$63, DW_AT_TI_symbol_name("USCI_B_I2C_masterSendMultiByteStart")
    1121                    .dwattr $C$DW$63, DW_AT_external
    1122                    .dwattr $C$DW$63, DW_AT_TI_begin_file("../MP430DriverLib/driverlib/MSP430F5xx_6xx/usci_b_i2c.c
    1123                    .dwattr $C$DW$63, DW_AT_TI_begin_line(0xfc)
    1124                    .dwattr $C$DW$63, DW_AT_TI_begin_column(0x06)
    1125                    .dwattr $C$DW$63, DW_AT_decl_file("../MP430DriverLib/driverlib/MSP430F5xx_6xx/usci_b_i2c.c")
    1126                    .dwattr $C$DW$63, DW_AT_decl_line(0xfc)
    1127                    .dwattr $C$DW$63, DW_AT_decl_column(0x06)
    1128                    .dwattr $C$DW$63, DW_AT_TI_max_frame_size(0x04)
    1129                    .dwpsn  file "../MP430DriverLib/driverlib/MSP430F5xx_6xx/usci_b_i2c.c",line 255,column 1,is_st
    1130            
    1131                    .dwfde $C$DW$CIE, USCI_B_I2C_masterSendMultiByteStart
    1132            $C$DW$64        .dwtag  DW_TAG_formal_parameter
    1133                    .dwattr $C$DW$64, DW_AT_name("baseAddress")
    1134                    .dwattr $C$DW$64, DW_AT_TI_symbol_name("baseAddress")
    1135                    .dwattr $C$DW$64, DW_AT_type(*$C$DW$T$32)
    1136                    .dwattr $C$DW$64, DW_AT_location[DW_OP_reg12]
    1137            
    1138            $C$DW$65        .dwtag  DW_TAG_formal_parameter
    1139                    .dwattr $C$DW$65, DW_AT_name("txData")
    1140                    .dwattr $C$DW$65, DW_AT_TI_symbol_name("txData")
    1141                    .dwattr $C$DW$65, DW_AT_type(*$C$DW$T$23)
    1142                    .dwattr $C$DW$65, DW_AT_location[DW_OP_reg13]
    1143            
    1144            
    1145            ;*****************************************************************************
    1146            ;* FUNCTION NAME: USCI_B_I2C_masterSendMultiByteStart                        *
    1147            ;*                                                                           *
    1148            ;*   Regs Modified     : SP,SR,r11,r12,r14,r15                               *
    1149            ;*   Regs Used         : SP,SR,r11,r12,r13,r14,r15                           *
    1150            ;*   Local Frame Size  : 0 Args + 0 Auto + 0 Save = 0 byte                   *
    1151            ;*****************************************************************************
    1152 000000       USCI_B_I2C_masterSendMultiByteStart:
    1153            ;* --------------------------------------------------------------------------*
    1154                    .dwcfi  cfa_offset, 4
    1155                    .dwcfi  save_reg_to_mem, 16, -4
    1156            ;* r12   assigned to baseAddress
    1157            $C$DW$66        .dwtag  DW_TAG_variable
MSP430 Assembler PC v21.6.1 Tue Dec 20 13:45:55 2022

Copyright (c) 2003-2018 Texas Instruments Incorporated
usci_b_i2c.asm                                                       PAGE   23

    1158                    .dwattr $C$DW$66, DW_AT_name("baseAddress")
    1159                    .dwattr $C$DW$66, DW_AT_TI_symbol_name("baseAddress")
    1160                    .dwattr $C$DW$66, DW_AT_type(*$C$DW$T$32)
    1161                    .dwattr $C$DW$66, DW_AT_location[DW_OP_reg12]
    1162            
    1163            ;* r13   assigned to txData
    1164            $C$DW$67        .dwtag  DW_TAG_variable
    1165                    .dwattr $C$DW$67, DW_AT_name("txData")
    1166                    .dwattr $C$DW$67, DW_AT_TI_symbol_name("txData")
    1167                    .dwattr $C$DW$67, DW_AT_type(*$C$DW$T$23)
    1168                    .dwattr $C$DW$67, DW_AT_location[DW_OP_reg13]
    1169            
    1170            ;* r15   assigned to txieStatus
    1171            $C$DW$68        .dwtag  DW_TAG_variable
    1172                    .dwattr $C$DW$68, DW_AT_name("txieStatus")
    1173                    .dwattr $C$DW$68, DW_AT_TI_symbol_name("txieStatus")
    1174                    .dwattr $C$DW$68, DW_AT_type(*$C$DW$T$23)
    1175                    .dwattr $C$DW$68, DW_AT_location[DW_OP_reg15]
    1176            
    1177                    .dwpsn  file "../MP430DriverLib/driverlib/MSP430F5xx_6xx/usci_b_i2c.c",line 257,column 24,is_s
    1178 000000 0CCE          MOVA      r12,r14               ; [] |257| 
    1179 000002 503E          ADD.W     #28,r14               ; [] |257| 
         000004 001C 
    1180 000006 432F          MOV.W     #2,r15                ; [] |257| 
    1181 000008 FE6F          AND.B     @r14,r15              ; [] |257| 
    1182                    .dwpsn  file "../MP430DriverLib/driverlib/MSP430F5xx_6xx/usci_b_i2c.c",line 260,column 5,is_st
    1183 00000a 0CCE          MOVA      r12,r14               ; [] |260| 
    1184 00000c 503E          ADD.W     #28,r14               ; [] |260| 
         00000e 001C 
    1185 000010 4E0E          MOV.W     r14,r14               ; [] |260| 
    1186 000012 C3EE          BIC.B     #2,0(r14)             ; [] |260| 
         000014 0000 
    1187                    .dwpsn  file "../MP430DriverLib/driverlib/MSP430F5xx_6xx/usci_b_i2c.c",line 263,column 5,is_st
    1188 000016 D0FC          OR.B      #18,0(r12)            ; [] |263| 
         000018 0012 
         00001a 0000 
    1189 00001c 432B          MOV.W     #2,r11                ; [] |266| 
    1190            ;* --------------------------------------------------------------------------*
    1191            ;*   BEGIN LOOP $C$L23
    1192            ;*
    1193            ;*   Loop source line                : 266
    1194            ;*   Loop closing brace source line  : 266
    1195            ;*   Known Minimum Trip Count        : 1
    1196            ;*   Known Maximum Trip Count        : 4294967295
    1197            ;*   Known Max Trip Count Factor     : 1
    1198            ;* --------------------------------------------------------------------------*
    1199 00001e       $C$L23:    
    1200                    .dwpsn  file "../MP430DriverLib/driverlib/MSP430F5xx_6xx/usci_b_i2c.c",line 266,column 12,is_s
    1201 00001e 0CCE          MOVA      r12,r14               ; [] |266| 
    1202 000020 503E          ADD.W     #29,r14               ; [] |266| 
         000022 001D 
    1203 000024 BE6B          BIT.B     @r14,r11              ; [] |266| 
    1204 000026 27FB          JEQ       $C$L23                ; [] |266| 
    1205                                                      ; [] |266| 
    1206            ;* --------------------------------------------------------------------------*
MSP430 Assembler PC v21.6.1 Tue Dec 20 13:45:55 2022

Copyright (c) 2003-2018 Texas Instruments Incorporated
usci_b_i2c.asm                                                       PAGE   24

    1207                    .dwpsn  file "../MP430DriverLib/driverlib/MSP430F5xx_6xx/usci_b_i2c.c",line 269,column 5,is_st
    1208 000028 0CCE          MOVA      r12,r14               ; [] |269| 
    1209 00002a 503E          ADD.W     #14,r14               ; [] |269| 
         00002c 000E 
    1210 00002e 4DCE          MOV.B     r13,0(r14)            ; [] |269| 
         000030 0000 
    1211                    .dwpsn  file "../MP430DriverLib/driverlib/MSP430F5xx_6xx/usci_b_i2c.c",line 272,column 5,is_st
    1212 000032 503C          ADD.W     #28,r12               ; [] |272| 
         000034 001C 
    1213 000036 4C0E          MOV.W     r12,r14               ; [] |272| 
    1214 000038 DFCE          OR.B      r15,0(r14)            ; [] |272| 
         00003a 0000 
    1215                    .dwpsn  file "../MP430DriverLib/driverlib/MSP430F5xx_6xx/usci_b_i2c.c",line 273,column 1,is_st
    1216            $C$DW$69        .dwtag  DW_TAG_TI_branch
    1217                    .dwattr $C$DW$69, DW_AT_low_pc(0x00)
    1218                    .dwattr $C$DW$69, DW_AT_TI_return
    1219            
    1220 00003c 0110          RETA      ; [] 
    1221                    ; [] 
    1222                    .dwattr $C$DW$63, DW_AT_TI_end_file("../MP430DriverLib/driverlib/MSP430F5xx_6xx/usci_b_i2c.c")
    1223                    .dwattr $C$DW$63, DW_AT_TI_end_line(0x111)
    1224                    .dwattr $C$DW$63, DW_AT_TI_end_column(0x01)
    1225                    .dwendentry
    1226                    .dwendtag $C$DW$63
    1227            
    1228 000000               .sect   ".text:USCI_B_I2C_masterSendMultiByteNextWithTimeout"
    1229                    .clink
    1230                    .global USCI_B_I2C_masterSendMultiByteNextWithTimeout
    1231            
    1232            $C$DW$70        .dwtag  DW_TAG_subprogram
    1233                    .dwattr $C$DW$70, DW_AT_name("USCI_B_I2C_masterSendMultiByteNextWithTimeout")
    1234                    .dwattr $C$DW$70, DW_AT_low_pc(USCI_B_I2C_masterSendMultiByteNextWithTimeout)
    1235                    .dwattr $C$DW$70, DW_AT_high_pc(0x00)
    1236                    .dwattr $C$DW$70, DW_AT_TI_symbol_name("USCI_B_I2C_masterSendMultiByteNextWithTimeout")
    1237                    .dwattr $C$DW$70, DW_AT_external
    1238                    .dwattr $C$DW$70, DW_AT_type(*$C$DW$T$160)
    1239                    .dwattr $C$DW$70, DW_AT_TI_begin_file("../MP430DriverLib/driverlib/MSP430F5xx_6xx/usci_b_i2c.c
    1240                    .dwattr $C$DW$70, DW_AT_TI_begin_line(0x140)
    1241                    .dwattr $C$DW$70, DW_AT_TI_begin_column(0x06)
    1242                    .dwattr $C$DW$70, DW_AT_decl_file("../MP430DriverLib/driverlib/MSP430F5xx_6xx/usci_b_i2c.c")
    1243                    .dwattr $C$DW$70, DW_AT_decl_line(0x140)
    1244                    .dwattr $C$DW$70, DW_AT_decl_column(0x06)
    1245                    .dwattr $C$DW$70, DW_AT_TI_max_frame_size(0x08)
    1246                    .dwpsn  file "../MP430DriverLib/driverlib/MSP430F5xx_6xx/usci_b_i2c.c",line 324,column 1,is_st
    1247            
    1248                    .dwfde $C$DW$CIE, USCI_B_I2C_masterSendMultiByteNextWithTimeout
    1249            $C$DW$71        .dwtag  DW_TAG_formal_parameter
    1250                    .dwattr $C$DW$71, DW_AT_name("baseAddress")
    1251                    .dwattr $C$DW$71, DW_AT_TI_symbol_name("baseAddress")
    1252                    .dwattr $C$DW$71, DW_AT_type(*$C$DW$T$32)
    1253                    .dwattr $C$DW$71, DW_AT_location[DW_OP_reg12]
    1254            
    1255            $C$DW$72        .dwtag  DW_TAG_formal_parameter
    1256                    .dwattr $C$DW$72, DW_AT_name("txData")
    1257                    .dwattr $C$DW$72, DW_AT_TI_symbol_name("txData")
MSP430 Assembler PC v21.6.1 Tue Dec 20 13:45:55 2022

Copyright (c) 2003-2018 Texas Instruments Incorporated
usci_b_i2c.asm                                                       PAGE   25

    1258                    .dwattr $C$DW$72, DW_AT_type(*$C$DW$T$23)
    1259                    .dwattr $C$DW$72, DW_AT_location[DW_OP_reg13]
    1260            
    1261            $C$DW$73        .dwtag  DW_TAG_formal_parameter
    1262                    .dwattr $C$DW$73, DW_AT_name("timeout")
    1263                    .dwattr $C$DW$73, DW_AT_TI_symbol_name("timeout")
    1264                    .dwattr $C$DW$73, DW_AT_type(*$C$DW$T$25)
    1265                    .dwattr $C$DW$73, DW_AT_location[DW_OP_reg14 DW_OP_piece 2 DW_OP_reg15 DW_OP_piece 2]
    1266            
    1267            
    1268            ;*****************************************************************************
    1269            ;* FUNCTION NAME: USCI_B_I2C_masterSendMultiByteNextWithTimeout              *
    1270            ;*                                                                           *
    1271            ;*   Regs Modified     : SP,SR,r10,r11,r12,r14,r15                           *
    1272            ;*   Regs Used         : SP,SR,r10,r11,r12,r13,r14,r15                       *
    1273            ;*   Local Frame Size  : 0 Args + 0 Auto + 4 Save = 4 byte                   *
    1274            ;*****************************************************************************
    1275 000000       USCI_B_I2C_masterSendMultiByteNextWithTimeout:
    1276            ;* --------------------------------------------------------------------------*
    1277                    .dwcfi  cfa_offset, 4
    1278                    .dwcfi  save_reg_to_mem, 16, -4
    1279 000000 140A          PUSHM.A   #1,r10                ; [] 
    1280                    .dwcfi  save_reg_to_mem, 10, -8
    1281                    .dwcfi  cfa_offset, 8
    1282            ;* r12   assigned to baseAddress
    1283            $C$DW$74        .dwtag  DW_TAG_variable
    1284                    .dwattr $C$DW$74, DW_AT_name("baseAddress")
    1285                    .dwattr $C$DW$74, DW_AT_TI_symbol_name("baseAddress")
    1286                    .dwattr $C$DW$74, DW_AT_type(*$C$DW$T$32)
    1287                    .dwattr $C$DW$74, DW_AT_location[DW_OP_reg12]
    1288            
    1289            ;* r13   assigned to txData
    1290            $C$DW$75        .dwtag  DW_TAG_variable
    1291                    .dwattr $C$DW$75, DW_AT_name("txData")
    1292                    .dwattr $C$DW$75, DW_AT_TI_symbol_name("txData")
    1293                    .dwattr $C$DW$75, DW_AT_type(*$C$DW$T$23)
    1294                    .dwattr $C$DW$75, DW_AT_location[DW_OP_reg13]
    1295            
    1296            ;* r14   assigned to timeout
    1297            $C$DW$76        .dwtag  DW_TAG_variable
    1298                    .dwattr $C$DW$76, DW_AT_name("timeout")
    1299                    .dwattr $C$DW$76, DW_AT_TI_symbol_name("timeout")
    1300                    .dwattr $C$DW$76, DW_AT_type(*$C$DW$T$25)
    1301                    .dwattr $C$DW$76, DW_AT_location[DW_OP_reg14 DW_OP_piece 2 DW_OP_reg15 DW_OP_piece 2]
    1302            
    1303                    .dwpsn  file "../MP430DriverLib/driverlib/MSP430F5xx_6xx/usci_b_i2c.c",line 326,column 5,is_st
    1304 000002 0CCB          MOVA      r12,r11               ; [] |326| 
    1305 000004 503B          ADD.W     #28,r11               ; [] |326| 
         000006 001C 
    1306 000008 432A          MOV.W     #2,r10                ; [] |326| 
    1307 00000a BB6A          BIT.B     @r11,r10              ; [] |326| 
    1308 00000c 200E          JNE       $C$L26                ; [] |326| 
    1309                                                      ; [] |326| 
    1310            ;* --------------------------------------------------------------------------*
    1311            ;*   BEGIN LOOP $C$L24
MSP430 Assembler PC v21.6.1 Tue Dec 20 13:45:55 2022

Copyright (c) 2003-2018 Texas Instruments Incorporated
usci_b_i2c.asm                                                       PAGE   26

    1312            ;*
    1313            ;*   Loop source line                : 328
    1314            ;*   Loop closing brace source line  : 328
    1315            ;*   Known Minimum Trip Count        : 1
    1316            ;*   Known Maximum Trip Count        : 4294967295
    1317            ;*   Known Max Trip Count Factor     : 1
    1318            ;* --------------------------------------------------------------------------*
    1319 00000e       $C$L24:    
    1320                    .dwpsn  file "../MP430DriverLib/driverlib/MSP430F5xx_6xx/usci_b_i2c.c",line 328,column 16,is_s
    1321 00000e 0CCB          MOVA      r12,r11               ; [] |328| 
    1322 000010 503B          ADD.W     #29,r11               ; [] |328| 
         000012 001D 
    1323 000014 BB6A          BIT.B     @r11,r10              ; [] |328| 
    1324 000016 2005          JNE       $C$L25                ; [] |328| 
    1325                                                      ; [] |328| 
    1326            ;* --------------------------------------------------------------------------*
    1327 000018 831E          SUB.W     #1,r14                ; [] |328| 
    1328 00001a 730F          SUBC.W    #0,r15                ; [] |328| 
    1329 00001c 23F8          JNE       $C$L24                ; [] |328| 
    1330                                                      ; [] |328| 
    1331            ;* --------------------------------------------------------------------------*
    1332 00001e 930E          TST.W     r14                   ; [] |328| 
    1333 000020 23F6          JNE       $C$L24                ; [] |328| 
    1334                                                      ; [] |328| 
    1335            ;* --------------------------------------------------------------------------*
    1336 000022       $C$L25:    
    1337                    .dwpsn  file "../MP430DriverLib/driverlib/MSP430F5xx_6xx/usci_b_i2c.c",line 331,column 9,is_st
    1338 000022 930F          TST.W     r15                   ; [] |331| 
    1339 000024 2002          JNE       $C$L26                ; [] |331| 
    1340                                                      ; [] |331| 
    1341            ;* --------------------------------------------------------------------------*
    1342 000026 930E          TST.W     r14                   ; [] |331| 
    1343 000028 2406          JEQ       $C$L27                ; [] |331| 
    1344                                                      ; [] |331| 
    1345            ;* --------------------------------------------------------------------------*
    1346 00002a       $C$L26:    
    1347                    .dwpsn  file "../MP430DriverLib/driverlib/MSP430F5xx_6xx/usci_b_i2c.c",line 337,column 5,is_st
    1348 00002a 503C          ADD.W     #14,r12               ; [] |337| 
         00002c 000E 
    1349 00002e 4DCC          MOV.B     r13,0(r12)            ; [] |337| 
         000030 0000 
    1350                    .dwpsn  file "../MP430DriverLib/driverlib/MSP430F5xx_6xx/usci_b_i2c.c",line 339,column 5,is_st
    1351 000032 435C          MOV.B     #1,r12                ; [] |339| 
    1352 000034 3C01          JMP       $C$L28                ; [] |339| 
    1353                                                      ; [] |339| 
    1354            ;* --------------------------------------------------------------------------*
    1355 000036       $C$L27:    
    1356                    .dwpsn  file "../MP430DriverLib/driverlib/MSP430F5xx_6xx/usci_b_i2c.c",line 332,column 13,is_s
    1357 000036 434C          MOV.B     #0,r12                ; [] |332| 
    1358            ;* --------------------------------------------------------------------------*
    1359 000038       $C$L28:    
    1360                    .dwpsn  file "../MP430DriverLib/driverlib/MSP430F5xx_6xx/usci_b_i2c.c",line 340,column 1,is_st
    1361 000038 160A          POPM.A    #1,r10                ; [] 
    1362                    .dwcfi  restore_reg, 10
    1363                    .dwcfi  cfa_offset, 4
MSP430 Assembler PC v21.6.1 Tue Dec 20 13:45:55 2022

Copyright (c) 2003-2018 Texas Instruments Incorporated
usci_b_i2c.asm                                                       PAGE   27

    1364            $C$DW$77        .dwtag  DW_TAG_TI_branch
    1365                    .dwattr $C$DW$77, DW_AT_low_pc(0x00)
    1366                    .dwattr $C$DW$77, DW_AT_TI_return
    1367            
    1368 00003a 0110          RETA      ; [] 
    1369                    ; [] 
    1370                    .dwattr $C$DW$70, DW_AT_TI_end_file("../MP430DriverLib/driverlib/MSP430F5xx_6xx/usci_b_i2c.c")
    1371                    .dwattr $C$DW$70, DW_AT_TI_end_line(0x154)
    1372                    .dwattr $C$DW$70, DW_AT_TI_end_column(0x01)
    1373                    .dwendentry
    1374                    .dwendtag $C$DW$70
    1375            
    1376 000000               .sect   ".text:USCI_B_I2C_masterSendMultiByteNext"
    1377                    .clink
    1378                    .global USCI_B_I2C_masterSendMultiByteNext
    1379            
    1380            $C$DW$78        .dwtag  DW_TAG_subprogram
    1381                    .dwattr $C$DW$78, DW_AT_name("USCI_B_I2C_masterSendMultiByteNext")
    1382                    .dwattr $C$DW$78, DW_AT_low_pc(USCI_B_I2C_masterSendMultiByteNext)
    1383                    .dwattr $C$DW$78, DW_AT_high_pc(0x00)
    1384                    .dwattr $C$DW$78, DW_AT_TI_symbol_name("USCI_B_I2C_masterSendMultiByteNext")
    1385                    .dwattr $C$DW$78, DW_AT_external
    1386                    .dwattr $C$DW$78, DW_AT_TI_begin_file("../MP430DriverLib/driverlib/MSP430F5xx_6xx/usci_b_i2c.c
    1387                    .dwattr $C$DW$78, DW_AT_TI_begin_line(0x132)
    1388                    .dwattr $C$DW$78, DW_AT_TI_begin_column(0x06)
    1389                    .dwattr $C$DW$78, DW_AT_decl_file("../MP430DriverLib/driverlib/MSP430F5xx_6xx/usci_b_i2c.c")
    1390                    .dwattr $C$DW$78, DW_AT_decl_line(0x132)
    1391                    .dwattr $C$DW$78, DW_AT_decl_column(0x06)
    1392                    .dwattr $C$DW$78, DW_AT_TI_max_frame_size(0x04)
    1393                    .dwpsn  file "../MP430DriverLib/driverlib/MSP430F5xx_6xx/usci_b_i2c.c",line 309,column 1,is_st
    1394            
    1395                    .dwfde $C$DW$CIE, USCI_B_I2C_masterSendMultiByteNext
    1396            $C$DW$79        .dwtag  DW_TAG_formal_parameter
    1397                    .dwattr $C$DW$79, DW_AT_name("baseAddress")
    1398                    .dwattr $C$DW$79, DW_AT_TI_symbol_name("baseAddress")
    1399                    .dwattr $C$DW$79, DW_AT_type(*$C$DW$T$32)
    1400                    .dwattr $C$DW$79, DW_AT_location[DW_OP_reg12]
    1401            
    1402            $C$DW$80        .dwtag  DW_TAG_formal_parameter
    1403                    .dwattr $C$DW$80, DW_AT_name("txData")
    1404                    .dwattr $C$DW$80, DW_AT_TI_symbol_name("txData")
    1405                    .dwattr $C$DW$80, DW_AT_type(*$C$DW$T$23)
    1406                    .dwattr $C$DW$80, DW_AT_location[DW_OP_reg13]
    1407            
    1408            
    1409            ;*****************************************************************************
    1410            ;* FUNCTION NAME: USCI_B_I2C_masterSendMultiByteNext                         *
    1411            ;*                                                                           *
    1412            ;*   Regs Modified     : SP,SR,r12,r14,r15                                   *
    1413            ;*   Regs Used         : SP,SR,r12,r13,r14,r15                               *
    1414            ;*   Local Frame Size  : 0 Args + 0 Auto + 0 Save = 0 byte                   *
    1415            ;*****************************************************************************
    1416 000000       USCI_B_I2C_masterSendMultiByteNext:
    1417            ;* --------------------------------------------------------------------------*
    1418                    .dwcfi  cfa_offset, 4
MSP430 Assembler PC v21.6.1 Tue Dec 20 13:45:55 2022

Copyright (c) 2003-2018 Texas Instruments Incorporated
usci_b_i2c.asm                                                       PAGE   28

    1419                    .dwcfi  save_reg_to_mem, 16, -4
    1420            ;* r12   assigned to baseAddress
    1421            $C$DW$81        .dwtag  DW_TAG_variable
    1422                    .dwattr $C$DW$81, DW_AT_name("baseAddress")
    1423                    .dwattr $C$DW$81, DW_AT_TI_symbol_name("baseAddress")
    1424                    .dwattr $C$DW$81, DW_AT_type(*$C$DW$T$32)
    1425                    .dwattr $C$DW$81, DW_AT_location[DW_OP_reg12]
    1426            
    1427            ;* r13   assigned to txData
    1428            $C$DW$82        .dwtag  DW_TAG_variable
    1429                    .dwattr $C$DW$82, DW_AT_name("txData")
    1430                    .dwattr $C$DW$82, DW_AT_TI_symbol_name("txData")
    1431                    .dwattr $C$DW$82, DW_AT_type(*$C$DW$T$23)
    1432                    .dwattr $C$DW$82, DW_AT_location[DW_OP_reg13]
    1433            
    1434                    .dwpsn  file "../MP430DriverLib/driverlib/MSP430F5xx_6xx/usci_b_i2c.c",line 311,column 5,is_st
    1435 000000 0CCF          MOVA      r12,r15               ; [] |311| 
    1436 000002 503F          ADD.W     #28,r15               ; [] |311| 
         000004 001C 
    1437 000006 432E          MOV.W     #2,r14                ; [] |311| 
    1438 000008 BF6E          BIT.B     @r15,r14              ; [] |311| 
    1439 00000a 2005          JNE       $C$L30                ; [] |311| 
    1440                                                      ; [] |311| 
    1441            ;* --------------------------------------------------------------------------*
    1442            ;*   BEGIN LOOP $C$L29
    1443            ;*
    1444            ;*   Loop source line                : 313
    1445            ;*   Loop closing brace source line  : 313
    1446            ;*   Known Minimum Trip Count        : 1
    1447            ;*   Known Maximum Trip Count        : 4294967295
    1448            ;*   Known Max Trip Count Factor     : 1
    1449            ;* --------------------------------------------------------------------------*
    1450 00000c       $C$L29:    
    1451                    .dwpsn  file "../MP430DriverLib/driverlib/MSP430F5xx_6xx/usci_b_i2c.c",line 313,column 16,is_s
    1452 00000c 0CCF          MOVA      r12,r15               ; [] |313| 
    1453 00000e 503F          ADD.W     #29,r15               ; [] |313| 
         000010 001D 
    1454 000012 BF6E          BIT.B     @r15,r14              ; [] |313| 
    1455 000014 27FB          JEQ       $C$L29                ; [] |313| 
    1456                                                      ; [] |313| 
    1457            ;* --------------------------------------------------------------------------*
    1458 000016       $C$L30:    
    1459                    .dwpsn  file "../MP430DriverLib/driverlib/MSP430F5xx_6xx/usci_b_i2c.c",line 317,column 5,is_st
    1460 000016 503C          ADD.W     #14,r12               ; [] |317| 
         000018 000E 
    1461 00001a 4DCC          MOV.B     r13,0(r12)            ; [] |317| 
         00001c 0000 
    1462                    .dwpsn  file "../MP430DriverLib/driverlib/MSP430F5xx_6xx/usci_b_i2c.c",line 318,column 1,is_st
    1463            $C$DW$83        .dwtag  DW_TAG_TI_branch
    1464                    .dwattr $C$DW$83, DW_AT_low_pc(0x00)
    1465                    .dwattr $C$DW$83, DW_AT_TI_return
    1466            
    1467 00001e 0110          RETA      ; [] 
    1468                    ; [] 
    1469                    .dwattr $C$DW$78, DW_AT_TI_end_file("../MP430DriverLib/driverlib/MSP430F5xx_6xx/usci_b_i2c.c")
MSP430 Assembler PC v21.6.1 Tue Dec 20 13:45:55 2022

Copyright (c) 2003-2018 Texas Instruments Incorporated
usci_b_i2c.asm                                                       PAGE   29

    1470                    .dwattr $C$DW$78, DW_AT_TI_end_line(0x13e)
    1471                    .dwattr $C$DW$78, DW_AT_TI_end_column(0x01)
    1472                    .dwendentry
    1473                    .dwendtag $C$DW$78
    1474            
    1475 000000               .sect   ".text:USCI_B_I2C_masterSendMultiByteFinishWithTimeout"
    1476                    .clink
    1477                    .global USCI_B_I2C_masterSendMultiByteFinishWithTimeout
    1478            
    1479            $C$DW$84        .dwtag  DW_TAG_subprogram
    1480                    .dwattr $C$DW$84, DW_AT_name("USCI_B_I2C_masterSendMultiByteFinishWithTimeout")
    1481                    .dwattr $C$DW$84, DW_AT_low_pc(USCI_B_I2C_masterSendMultiByteFinishWithTimeout)
    1482                    .dwattr $C$DW$84, DW_AT_high_pc(0x00)
    1483                    .dwattr $C$DW$84, DW_AT_TI_symbol_name("USCI_B_I2C_masterSendMultiByteFinishWithTimeout")
    1484                    .dwattr $C$DW$84, DW_AT_external
    1485                    .dwattr $C$DW$84, DW_AT_type(*$C$DW$T$160)
    1486                    .dwattr $C$DW$84, DW_AT_TI_begin_file("../MP430DriverLib/driverlib/MSP430F5xx_6xx/usci_b_i2c.c
    1487                    .dwattr $C$DW$84, DW_AT_TI_begin_line(0x16a)
    1488                    .dwattr $C$DW$84, DW_AT_TI_begin_column(0x06)
    1489                    .dwattr $C$DW$84, DW_AT_decl_file("../MP430DriverLib/driverlib/MSP430F5xx_6xx/usci_b_i2c.c")
    1490                    .dwattr $C$DW$84, DW_AT_decl_line(0x16a)
    1491                    .dwattr $C$DW$84, DW_AT_decl_column(0x06)
    1492                    .dwattr $C$DW$84, DW_AT_TI_max_frame_size(0x10)
    1493                    .dwpsn  file "../MP430DriverLib/driverlib/MSP430F5xx_6xx/usci_b_i2c.c",line 366,column 1,is_st
    1494            
    1495                    .dwfde $C$DW$CIE, USCI_B_I2C_masterSendMultiByteFinishWithTimeout
    1496            $C$DW$85        .dwtag  DW_TAG_formal_parameter
    1497                    .dwattr $C$DW$85, DW_AT_name("baseAddress")
    1498                    .dwattr $C$DW$85, DW_AT_TI_symbol_name("baseAddress")
    1499                    .dwattr $C$DW$85, DW_AT_type(*$C$DW$T$32)
    1500                    .dwattr $C$DW$85, DW_AT_location[DW_OP_reg12]
    1501            
    1502            $C$DW$86        .dwtag  DW_TAG_formal_parameter
    1503                    .dwattr $C$DW$86, DW_AT_name("txData")
    1504                    .dwattr $C$DW$86, DW_AT_TI_symbol_name("txData")
    1505                    .dwattr $C$DW$86, DW_AT_type(*$C$DW$T$23)
    1506                    .dwattr $C$DW$86, DW_AT_location[DW_OP_reg13]
    1507            
    1508            $C$DW$87        .dwtag  DW_TAG_formal_parameter
    1509                    .dwattr $C$DW$87, DW_AT_name("timeout")
    1510                    .dwattr $C$DW$87, DW_AT_TI_symbol_name("timeout")
    1511                    .dwattr $C$DW$87, DW_AT_type(*$C$DW$T$25)
    1512                    .dwattr $C$DW$87, DW_AT_location[DW_OP_reg14 DW_OP_piece 2 DW_OP_reg15 DW_OP_piece 2]
    1513            
    1514            
    1515            ;*****************************************************************************
    1516            ;* FUNCTION NAME: USCI_B_I2C_masterSendMultiByteFinishWithTimeout            *
    1517            ;*                                                                           *
    1518            ;*   Regs Modified     : SP,SR,r8,r9,r10,r11,r12,r14,r15                     *
    1519            ;*   Regs Used         : SP,SR,r8,r9,r10,r11,r12,r13,r14,r15                 *
    1520            ;*   Local Frame Size  : 0 Args + 0 Auto + 12 Save = 12 byte                 *
    1521            ;*****************************************************************************
    1522 000000       USCI_B_I2C_masterSendMultiByteFinishWithTimeout:
    1523            ;* --------------------------------------------------------------------------*
    1524                    .dwcfi  cfa_offset, 4
MSP430 Assembler PC v21.6.1 Tue Dec 20 13:45:55 2022

Copyright (c) 2003-2018 Texas Instruments Incorporated
usci_b_i2c.asm                                                       PAGE   30

    1525                    .dwcfi  save_reg_to_mem, 16, -4
    1526 000000 142A          PUSHM.A   #3,r10                ; [] 
    1527                    .dwcfi  save_reg_to_mem, 10, -8
    1528                    .dwcfi  save_reg_to_mem, 9, -12
    1529                    .dwcfi  save_reg_to_mem, 8, -16
    1530                    .dwcfi  cfa_offset, 16
    1531            ;* r12   assigned to baseAddress
    1532            $C$DW$88        .dwtag  DW_TAG_variable
    1533                    .dwattr $C$DW$88, DW_AT_name("baseAddress")
    1534                    .dwattr $C$DW$88, DW_AT_TI_symbol_name("baseAddress")
    1535                    .dwattr $C$DW$88, DW_AT_type(*$C$DW$T$32)
    1536                    .dwattr $C$DW$88, DW_AT_location[DW_OP_reg12]
    1537            
    1538            ;* r13   assigned to txData
    1539            $C$DW$89        .dwtag  DW_TAG_variable
    1540                    .dwattr $C$DW$89, DW_AT_name("txData")
    1541                    .dwattr $C$DW$89, DW_AT_TI_symbol_name("txData")
    1542                    .dwattr $C$DW$89, DW_AT_type(*$C$DW$T$23)
    1543                    .dwattr $C$DW$89, DW_AT_location[DW_OP_reg13]
    1544            
    1545            ;* r14   assigned to timeout
    1546            $C$DW$90        .dwtag  DW_TAG_variable
    1547                    .dwattr $C$DW$90, DW_AT_name("timeout")
    1548                    .dwattr $C$DW$90, DW_AT_TI_symbol_name("timeout")
    1549                    .dwattr $C$DW$90, DW_AT_type(*$C$DW$T$25)
    1550                    .dwattr $C$DW$90, DW_AT_location[DW_OP_reg14 DW_OP_piece 2 DW_OP_reg15 DW_OP_piece 2]
    1551            
    1552            ;* r11   assigned to timeout2
    1553            $C$DW$91        .dwtag  DW_TAG_variable
    1554                    .dwattr $C$DW$91, DW_AT_name("timeout2")
    1555                    .dwattr $C$DW$91, DW_AT_TI_symbol_name("timeout2")
    1556                    .dwattr $C$DW$91, DW_AT_type(*$C$DW$T$25)
    1557                    .dwattr $C$DW$91, DW_AT_location[DW_OP_reg11 DW_OP_piece 2 DW_OP_reg9 DW_OP_piece 2]
    1558            
    1559                    .dwpsn  file "../MP430DriverLib/driverlib/MSP430F5xx_6xx/usci_b_i2c.c",line 367,column 23,is_s
    1560 000002 0ECB          MOVA      r14,r11               ; [] |367| 
    1561 000004 0FC9          MOVA      r15,r9                ; [] |367| 
    1562                    .dwpsn  file "../MP430DriverLib/driverlib/MSP430F5xx_6xx/usci_b_i2c.c",line 370,column 5,is_st
    1563 000006 0CCA          MOVA      r12,r10               ; [] |370| 
    1564 000008 503A          ADD.W     #28,r10               ; [] |370| 
         00000a 001C 
    1565 00000c 4328          MOV.W     #2,r8                 ; [] |370| 
    1566 00000e BA68          BIT.B     @r10,r8               ; [] |370| 
    1567 000010 2010          JNE       $C$L33                ; [] |370| 
    1568                                                      ; [] |370| 
    1569            ;* --------------------------------------------------------------------------*
    1570            ;*   BEGIN LOOP $C$L31
    1571            ;*
    1572            ;*   Loop source line                : 372
    1573            ;*   Loop closing brace source line  : 372
    1574            ;*   Known Minimum Trip Count        : 1
    1575            ;*   Known Maximum Trip Count        : 4294967295
    1576            ;*   Known Max Trip Count Factor     : 1
    1577            ;* --------------------------------------------------------------------------*
    1578 000012       $C$L31:    
MSP430 Assembler PC v21.6.1 Tue Dec 20 13:45:55 2022

Copyright (c) 2003-2018 Texas Instruments Incorporated
usci_b_i2c.asm                                                       PAGE   31

    1579                    .dwpsn  file "../MP430DriverLib/driverlib/MSP430F5xx_6xx/usci_b_i2c.c",line 372,column 16,is_s
    1580 000012 0CCA          MOVA      r12,r10               ; [] |372| 
    1581 000014 503A          ADD.W     #29,r10               ; [] |372| 
         000016 001D 
    1582 000018 BA68          BIT.B     @r10,r8               ; [] |372| 
    1583 00001a 2005          JNE       $C$L32                ; [] |372| 
    1584                                                      ; [] |372| 
    1585            ;* --------------------------------------------------------------------------*
    1586 00001c 831E          SUB.W     #1,r14                ; [] |372| 
    1587 00001e 730F          SUBC.W    #0,r15                ; [] |372| 
    1588 000020 23F8          JNE       $C$L31                ; [] |372| 
    1589                                                      ; [] |372| 
    1590            ;* --------------------------------------------------------------------------*
    1591 000022 930E          TST.W     r14                   ; [] |372| 
    1592 000024 23F6          JNE       $C$L31                ; [] |372| 
    1593                                                      ; [] |372| 
    1594            ;* --------------------------------------------------------------------------*
    1595 000026       $C$L32:    
    1596                    .dwpsn  file "../MP430DriverLib/driverlib/MSP430F5xx_6xx/usci_b_i2c.c",line 375,column 9,is_st
    1597 000026 930F          TST.W     r15                   ; [] |375| 
    1598 000028 2004          JNE       $C$L33                ; [] |375| 
    1599                                                      ; [] |375| 
    1600            ;* --------------------------------------------------------------------------*
    1601 00002a 930E          TST.W     r14                   ; [] |375| 
    1602 00002c 2002          JNE       $C$L33                ; [] |375| 
    1603                                                      ; [] |375| 
    1604            ;* --------------------------------------------------------------------------*
    1605                    .dwpsn  file "../MP430DriverLib/driverlib/MSP430F5xx_6xx/usci_b_i2c.c",line 376,column 13,is_s
    1606 00002e 434C          MOV.B     #0,r12                ; [] |376| 
    1607 000030 3C19          JMP       $C$L38                ; [] |376| 
    1608                                                      ; [] |376| 
    1609            ;* --------------------------------------------------------------------------*
    1610 000032       $C$L33:    
    1611                    .dwpsn  file "../MP430DriverLib/driverlib/MSP430F5xx_6xx/usci_b_i2c.c",line 381,column 5,is_st
    1612 000032 0CCF          MOVA      r12,r15               ; [] |381| 
    1613 000034 503F          ADD.W     #14,r15               ; [] |381| 
         000036 000E 
    1614 000038 4DCF          MOV.B     r13,0(r15)            ; [] |381| 
         00003a 0000 
    1615            ;* --------------------------------------------------------------------------*
    1616            ;*   BEGIN LOOP $C$L34
    1617            ;*
    1618            ;*   Loop source line                : 384
    1619            ;*   Loop closing brace source line  : 384
    1620            ;*   Known Minimum Trip Count        : 1
    1621            ;*   Known Maximum Trip Count        : 4294967295
    1622            ;*   Known Max Trip Count Factor     : 1
    1623            ;* --------------------------------------------------------------------------*
    1624 00003c       $C$L34:    
    1625                    .dwpsn  file "../MP430DriverLib/driverlib/MSP430F5xx_6xx/usci_b_i2c.c",line 384,column 12,is_s
    1626 00003c 0CCF          MOVA      r12,r15               ; [] |384| 
    1627 00003e 503F          ADD.W     #29,r15               ; [] |384| 
         000040 001D 
    1628 000042 432E          MOV.W     #2,r14                ; [] |384| 
    1629 000044 BF6E          BIT.B     @r15,r14              ; [] |384| 
MSP430 Assembler PC v21.6.1 Tue Dec 20 13:45:55 2022

Copyright (c) 2003-2018 Texas Instruments Incorporated
usci_b_i2c.asm                                                       PAGE   32

    1630 000046 2005          JNE       $C$L35                ; [] |384| 
    1631                                                      ; [] |384| 
    1632            ;* --------------------------------------------------------------------------*
    1633 000048 831B          SUB.W     #1,r11                ; [] |384| 
    1634 00004a 7309          SUBC.W    #0,r9                 ; [] |384| 
    1635 00004c 23F7          JNE       $C$L34                ; [] |384| 
    1636                                                      ; [] |384| 
    1637            ;* --------------------------------------------------------------------------*
    1638 00004e 930B          TST.W     r11                   ; [] |384| 
    1639 000050 23F5          JNE       $C$L34                ; [] |384| 
    1640                                                      ; [] |384| 
    1641            ;* --------------------------------------------------------------------------*
    1642 000052       $C$L35:    
    1643                    .dwpsn  file "../MP430DriverLib/driverlib/MSP430F5xx_6xx/usci_b_i2c.c",line 387,column 5,is_st
    1644 000052 9309          TST.W     r9                    ; [] |387| 
    1645 000054 2002          JNE       $C$L36                ; [] |387| 
    1646                                                      ; [] |387| 
    1647            ;* --------------------------------------------------------------------------*
    1648 000056 930B          TST.W     r11                   ; [] |387| 
    1649 000058 2404          JEQ       $C$L37                ; [] |387| 
    1650                                                      ; [] |387| 
    1651            ;* --------------------------------------------------------------------------*
    1652 00005a       $C$L36:    
    1653                    .dwpsn  file "../MP430DriverLib/driverlib/MSP430F5xx_6xx/usci_b_i2c.c",line 392,column 5,is_st
    1654 00005a D2EC          OR.B      #4,0(r12)             ; [] |392| 
         00005c 0000 
    1655                    .dwpsn  file "../MP430DriverLib/driverlib/MSP430F5xx_6xx/usci_b_i2c.c",line 394,column 5,is_st
    1656 00005e 435C          MOV.B     #1,r12                ; [] |394| 
    1657 000060 3C01          JMP       $C$L38                ; [] |394| 
    1658                                                      ; [] |394| 
    1659            ;* --------------------------------------------------------------------------*
    1660 000062       $C$L37:    
    1661                    .dwpsn  file "../MP430DriverLib/driverlib/MSP430F5xx_6xx/usci_b_i2c.c",line 388,column 9,is_st
    1662 000062 434C          MOV.B     #0,r12                ; [] |388| 
    1663            ;* --------------------------------------------------------------------------*
    1664 000064       $C$L38:    
    1665                    .dwpsn  file "../MP430DriverLib/driverlib/MSP430F5xx_6xx/usci_b_i2c.c",line 395,column 1,is_st
    1666 000064 1628          POPM.A    #3,r10                ; [] 
    1667                    .dwcfi  restore_reg, 8
    1668                    .dwcfi  restore_reg, 9
    1669                    .dwcfi  restore_reg, 10
    1670                    .dwcfi  cfa_offset, 4
    1671            $C$DW$92        .dwtag  DW_TAG_TI_branch
    1672                    .dwattr $C$DW$92, DW_AT_low_pc(0x00)
    1673                    .dwattr $C$DW$92, DW_AT_TI_return
    1674            
    1675 000066 0110          RETA      ; [] 
    1676                    ; [] 
    1677                    .dwattr $C$DW$84, DW_AT_TI_end_file("../MP430DriverLib/driverlib/MSP430F5xx_6xx/usci_b_i2c.c")
    1678                    .dwattr $C$DW$84, DW_AT_TI_end_line(0x18b)
    1679                    .dwattr $C$DW$84, DW_AT_TI_end_column(0x01)
    1680                    .dwendentry
    1681                    .dwendtag $C$DW$84
    1682            
    1683 000000               .sect   ".text:USCI_B_I2C_masterSendMultiByteFinish"
MSP430 Assembler PC v21.6.1 Tue Dec 20 13:45:55 2022

Copyright (c) 2003-2018 Texas Instruments Incorporated
usci_b_i2c.asm                                                       PAGE   33

    1684                    .clink
    1685                    .global USCI_B_I2C_masterSendMultiByteFinish
    1686            
    1687            $C$DW$93        .dwtag  DW_TAG_subprogram
    1688                    .dwattr $C$DW$93, DW_AT_name("USCI_B_I2C_masterSendMultiByteFinish")
    1689                    .dwattr $C$DW$93, DW_AT_low_pc(USCI_B_I2C_masterSendMultiByteFinish)
    1690                    .dwattr $C$DW$93, DW_AT_high_pc(0x00)
    1691                    .dwattr $C$DW$93, DW_AT_TI_symbol_name("USCI_B_I2C_masterSendMultiByteFinish")
    1692                    .dwattr $C$DW$93, DW_AT_external
    1693                    .dwattr $C$DW$93, DW_AT_TI_begin_file("../MP430DriverLib/driverlib/MSP430F5xx_6xx/usci_b_i2c.c
    1694                    .dwattr $C$DW$93, DW_AT_TI_begin_line(0x156)
    1695                    .dwattr $C$DW$93, DW_AT_TI_begin_column(0x06)
    1696                    .dwattr $C$DW$93, DW_AT_decl_file("../MP430DriverLib/driverlib/MSP430F5xx_6xx/usci_b_i2c.c")
    1697                    .dwattr $C$DW$93, DW_AT_decl_line(0x156)
    1698                    .dwattr $C$DW$93, DW_AT_decl_column(0x06)
    1699                    .dwattr $C$DW$93, DW_AT_TI_max_frame_size(0x04)
    1700                    .dwpsn  file "../MP430DriverLib/driverlib/MSP430F5xx_6xx/usci_b_i2c.c",line 345,column 1,is_st
    1701            
    1702                    .dwfde $C$DW$CIE, USCI_B_I2C_masterSendMultiByteFinish
    1703            $C$DW$94        .dwtag  DW_TAG_formal_parameter
    1704                    .dwattr $C$DW$94, DW_AT_name("baseAddress")
    1705                    .dwattr $C$DW$94, DW_AT_TI_symbol_name("baseAddress")
    1706                    .dwattr $C$DW$94, DW_AT_type(*$C$DW$T$32)
    1707                    .dwattr $C$DW$94, DW_AT_location[DW_OP_reg12]
    1708            
    1709            $C$DW$95        .dwtag  DW_TAG_formal_parameter
    1710                    .dwattr $C$DW$95, DW_AT_name("txData")
    1711                    .dwattr $C$DW$95, DW_AT_TI_symbol_name("txData")
    1712                    .dwattr $C$DW$95, DW_AT_type(*$C$DW$T$23)
    1713                    .dwattr $C$DW$95, DW_AT_location[DW_OP_reg13]
    1714            
    1715            
    1716            ;*****************************************************************************
    1717            ;* FUNCTION NAME: USCI_B_I2C_masterSendMultiByteFinish                       *
    1718            ;*                                                                           *
    1719            ;*   Regs Modified     : SP,SR,r14,r15                                       *
    1720            ;*   Regs Used         : SP,SR,r12,r13,r14,r15                               *
    1721            ;*   Local Frame Size  : 0 Args + 0 Auto + 0 Save = 0 byte                   *
    1722            ;*****************************************************************************
    1723 000000       USCI_B_I2C_masterSendMultiByteFinish:
    1724            ;* --------------------------------------------------------------------------*
    1725                    .dwcfi  cfa_offset, 4
    1726                    .dwcfi  save_reg_to_mem, 16, -4
    1727            ;* r12   assigned to baseAddress
    1728            $C$DW$96        .dwtag  DW_TAG_variable
    1729                    .dwattr $C$DW$96, DW_AT_name("baseAddress")
    1730                    .dwattr $C$DW$96, DW_AT_TI_symbol_name("baseAddress")
    1731                    .dwattr $C$DW$96, DW_AT_type(*$C$DW$T$32)
    1732                    .dwattr $C$DW$96, DW_AT_location[DW_OP_reg12]
    1733            
    1734            ;* r13   assigned to txData
    1735            $C$DW$97        .dwtag  DW_TAG_variable
    1736                    .dwattr $C$DW$97, DW_AT_name("txData")
    1737                    .dwattr $C$DW$97, DW_AT_TI_symbol_name("txData")
    1738                    .dwattr $C$DW$97, DW_AT_type(*$C$DW$T$23)
MSP430 Assembler PC v21.6.1 Tue Dec 20 13:45:55 2022

Copyright (c) 2003-2018 Texas Instruments Incorporated
usci_b_i2c.asm                                                       PAGE   34

    1739                    .dwattr $C$DW$97, DW_AT_location[DW_OP_reg13]
    1740            
    1741                    .dwpsn  file "../MP430DriverLib/driverlib/MSP430F5xx_6xx/usci_b_i2c.c",line 347,column 5,is_st
    1742 000000 0CCF          MOVA      r12,r15               ; [] |347| 
    1743 000002 503F          ADD.W     #28,r15               ; [] |347| 
         000004 001C 
    1744 000006 432E          MOV.W     #2,r14                ; [] |347| 
    1745 000008 BF6E          BIT.B     @r15,r14              ; [] |347| 
    1746 00000a 2005          JNE       $C$L40                ; [] |347| 
    1747                                                      ; [] |347| 
    1748            ;* --------------------------------------------------------------------------*
    1749            ;*   BEGIN LOOP $C$L39
    1750            ;*
    1751            ;*   Loop source line                : 349
    1752            ;*   Loop closing brace source line  : 349
    1753            ;*   Known Minimum Trip Count        : 1
    1754            ;*   Known Maximum Trip Count        : 4294967295
    1755            ;*   Known Max Trip Count Factor     : 1
    1756            ;* --------------------------------------------------------------------------*
    1757 00000c       $C$L39:    
    1758                    .dwpsn  file "../MP430DriverLib/driverlib/MSP430F5xx_6xx/usci_b_i2c.c",line 349,column 16,is_s
    1759 00000c 0CCF          MOVA      r12,r15               ; [] |349| 
    1760 00000e 503F          ADD.W     #29,r15               ; [] |349| 
         000010 001D 
    1761 000012 BF6E          BIT.B     @r15,r14              ; [] |349| 
    1762 000014 27FB          JEQ       $C$L39                ; [] |349| 
    1763                                                      ; [] |349| 
    1764            ;* --------------------------------------------------------------------------*
    1765 000016       $C$L40:    
    1766                    .dwpsn  file "../MP430DriverLib/driverlib/MSP430F5xx_6xx/usci_b_i2c.c",line 353,column 5,is_st
    1767 000016 0CCF          MOVA      r12,r15               ; [] |353| 
    1768 000018 503F          ADD.W     #14,r15               ; [] |353| 
         00001a 000E 
    1769 00001c 4DCF          MOV.B     r13,0(r15)            ; [] |353| 
         00001e 0000 
    1770            ;* --------------------------------------------------------------------------*
    1771            ;*   BEGIN LOOP $C$L41
    1772            ;*
    1773            ;*   Loop source line                : 356
    1774            ;*   Loop closing brace source line  : 356
    1775            ;*   Known Minimum Trip Count        : 1
    1776            ;*   Known Maximum Trip Count        : 4294967295
    1777            ;*   Known Max Trip Count Factor     : 1
    1778            ;* --------------------------------------------------------------------------*
    1779 000020       $C$L41:    
    1780                    .dwpsn  file "../MP430DriverLib/driverlib/MSP430F5xx_6xx/usci_b_i2c.c",line 356,column 12,is_s
    1781 000020 0CCF          MOVA      r12,r15               ; [] |356| 
    1782 000022 503F          ADD.W     #29,r15               ; [] |356| 
         000024 001D 
    1783 000026 BF6E          BIT.B     @r15,r14              ; [] |356| 
    1784 000028 27FB          JEQ       $C$L41                ; [] |356| 
    1785                                                      ; [] |356| 
    1786            ;* --------------------------------------------------------------------------*
    1787                    .dwpsn  file "../MP430DriverLib/driverlib/MSP430F5xx_6xx/usci_b_i2c.c",line 359,column 5,is_st
    1788 00002a D2EC          OR.B      #4,0(r12)             ; [] |359| 
MSP430 Assembler PC v21.6.1 Tue Dec 20 13:45:55 2022

Copyright (c) 2003-2018 Texas Instruments Incorporated
usci_b_i2c.asm                                                       PAGE   35

         00002c 0000 
    1789                    .dwpsn  file "../MP430DriverLib/driverlib/MSP430F5xx_6xx/usci_b_i2c.c",line 360,column 1,is_st
    1790            $C$DW$98        .dwtag  DW_TAG_TI_branch
    1791                    .dwattr $C$DW$98, DW_AT_low_pc(0x00)
    1792                    .dwattr $C$DW$98, DW_AT_TI_return
    1793            
    1794 00002e 0110          RETA      ; [] 
    1795                    ; [] 
    1796                    .dwattr $C$DW$93, DW_AT_TI_end_file("../MP430DriverLib/driverlib/MSP430F5xx_6xx/usci_b_i2c.c")
    1797                    .dwattr $C$DW$93, DW_AT_TI_end_line(0x168)
    1798                    .dwattr $C$DW$93, DW_AT_TI_end_column(0x01)
    1799                    .dwendentry
    1800                    .dwendtag $C$DW$93
    1801            
    1802 000000               .sect   ".text:USCI_B_I2C_masterReceiveSingleStartWithTimeout"
    1803                    .clink
    1804                    .global USCI_B_I2C_masterReceiveSingleStartWithTimeout
    1805            
    1806            $C$DW$99        .dwtag  DW_TAG_subprogram
    1807                    .dwattr $C$DW$99, DW_AT_name("USCI_B_I2C_masterReceiveSingleStartWithTimeout")
    1808                    .dwattr $C$DW$99, DW_AT_low_pc(USCI_B_I2C_masterReceiveSingleStartWithTimeout)
    1809                    .dwattr $C$DW$99, DW_AT_high_pc(0x00)
    1810                    .dwattr $C$DW$99, DW_AT_TI_symbol_name("USCI_B_I2C_masterReceiveSingleStartWithTimeout")
    1811                    .dwattr $C$DW$99, DW_AT_external
    1812                    .dwattr $C$DW$99, DW_AT_type(*$C$DW$T$160)
    1813                    .dwattr $C$DW$99, DW_AT_TI_begin_file("../MP430DriverLib/driverlib/MSP430F5xx_6xx/usci_b_i2c.c
    1814                    .dwattr $C$DW$99, DW_AT_TI_begin_line(0x210)
    1815                    .dwattr $C$DW$99, DW_AT_TI_begin_column(0x06)
    1816                    .dwattr $C$DW$99, DW_AT_decl_file("../MP430DriverLib/driverlib/MSP430F5xx_6xx/usci_b_i2c.c")
    1817                    .dwattr $C$DW$99, DW_AT_decl_line(0x210)
    1818                    .dwattr $C$DW$99, DW_AT_decl_column(0x06)
    1819                    .dwattr $C$DW$99, DW_AT_TI_max_frame_size(0x04)
    1820                    .dwpsn  file "../MP430DriverLib/driverlib/MSP430F5xx_6xx/usci_b_i2c.c",line 531,column 1,is_st
    1821            
    1822                    .dwfde $C$DW$CIE, USCI_B_I2C_masterReceiveSingleStartWithTimeout
    1823            $C$DW$100       .dwtag  DW_TAG_formal_parameter
    1824                    .dwattr $C$DW$100, DW_AT_name("baseAddress")
    1825                    .dwattr $C$DW$100, DW_AT_TI_symbol_name("baseAddress")
    1826                    .dwattr $C$DW$100, DW_AT_type(*$C$DW$T$32)
    1827                    .dwattr $C$DW$100, DW_AT_location[DW_OP_reg12]
    1828            
    1829            $C$DW$101       .dwtag  DW_TAG_formal_parameter
    1830                    .dwattr $C$DW$101, DW_AT_name("timeout")
    1831                    .dwattr $C$DW$101, DW_AT_TI_symbol_name("timeout")
    1832                    .dwattr $C$DW$101, DW_AT_type(*$C$DW$T$25)
    1833                    .dwattr $C$DW$101, DW_AT_location[DW_OP_reg13 DW_OP_piece 2 DW_OP_reg14 DW_OP_piece 2]
    1834            
    1835            
    1836            ;*****************************************************************************
    1837            ;* FUNCTION NAME: USCI_B_I2C_masterReceiveSingleStartWithTimeout             *
    1838            ;*                                                                           *
    1839            ;*   Regs Modified     : SP,SR,r11,r12,r13,r14,r15                           *
    1840            ;*   Regs Used         : SP,SR,r11,r12,r13,r14,r15                           *
    1841            ;*   Local Frame Size  : 0 Args + 0 Auto + 0 Save = 0 byte                   *
    1842            ;*****************************************************************************
MSP430 Assembler PC v21.6.1 Tue Dec 20 13:45:55 2022

Copyright (c) 2003-2018 Texas Instruments Incorporated
usci_b_i2c.asm                                                       PAGE   36

    1843 000000       USCI_B_I2C_masterReceiveSingleStartWithTimeout:
    1844            ;* --------------------------------------------------------------------------*
    1845                    .dwcfi  cfa_offset, 4
    1846                    .dwcfi  save_reg_to_mem, 16, -4
    1847            ;* r12   assigned to baseAddress
    1848            $C$DW$102       .dwtag  DW_TAG_variable
    1849                    .dwattr $C$DW$102, DW_AT_name("baseAddress")
    1850                    .dwattr $C$DW$102, DW_AT_TI_symbol_name("baseAddress")
    1851                    .dwattr $C$DW$102, DW_AT_type(*$C$DW$T$32)
    1852                    .dwattr $C$DW$102, DW_AT_location[DW_OP_reg12]
    1853            
    1854            ;* r13   assigned to timeout
    1855            $C$DW$103       .dwtag  DW_TAG_variable
    1856                    .dwattr $C$DW$103, DW_AT_name("timeout")
    1857                    .dwattr $C$DW$103, DW_AT_TI_symbol_name("timeout")
    1858                    .dwattr $C$DW$103, DW_AT_type(*$C$DW$T$25)
    1859                    .dwattr $C$DW$103, DW_AT_location[DW_OP_reg13 DW_OP_piece 2 DW_OP_reg14 DW_OP_piece 2]
    1860            
    1861            ;* r15   assigned to gieStatus
    1862            $C$DW$104       .dwtag  DW_TAG_variable
    1863                    .dwattr $C$DW$104, DW_AT_name("gieStatus")
    1864                    .dwattr $C$DW$104, DW_AT_TI_symbol_name("gieStatus")
    1865                    .dwattr $C$DW$104, DW_AT_type(*$C$DW$T$32)
    1866                    .dwattr $C$DW$104, DW_AT_location[DW_OP_reg15]
    1867            
    1868                    .dwpsn  file "../MP430DriverLib/driverlib/MSP430F5xx_6xx/usci_b_i2c.c",line 536,column 5,is_st
    1869 000000 420F          MOV.W     SR,r15                ; [] |536| 
    1870 000002 F23F          AND.W     #8,r15                ; [] |536| 
    1871                    .dwpsn  file "../MP430DriverLib/driverlib/MSP430F5xx_6xx/usci_b_i2c.c",line 539,column 5,is_st
    1872 000004 C232          DINT
    1873 000006 4303          NOP      ; [] |539| 
    1874                    .dwpsn  file "../MP430DriverLib/driverlib/MSP430F5xx_6xx/usci_b_i2c.c",line 542,column 5,is_st
    1875 000008 F0FC          AND.B     #239,0(r12)           ; [] |542| 
         00000a 00EF 
         00000c 0000 
    1876                    .dwpsn  file "../MP430DriverLib/driverlib/MSP430F5xx_6xx/usci_b_i2c.c",line 545,column 5,is_st
    1877 00000e D3EC          OR.B      #2,0(r12)             ; [] |545| 
         000010 0000 
    1878            ;* --------------------------------------------------------------------------*
    1879            ;*   BEGIN LOOP $C$L42
    1880            ;*
    1881            ;*   Loop source line                : 548
    1882            ;*   Loop closing brace source line  : 548
    1883            ;*   Known Minimum Trip Count        : 1
    1884            ;*   Known Maximum Trip Count        : 4294967295
    1885            ;*   Known Max Trip Count Factor     : 1
    1886            ;* --------------------------------------------------------------------------*
    1887 000012       $C$L42:    
    1888                    .dwpsn  file "../MP430DriverLib/driverlib/MSP430F5xx_6xx/usci_b_i2c.c",line 548,column 12,is_s
    1889 000012 432B          MOV.W     #2,r11                ; [] |548| 
    1890 000014 BC6B          BIT.B     @r12,r11              ; [] |548| 
    1891 000016 2405          JEQ       $C$L43                ; [] |548| 
    1892                                                      ; [] |548| 
    1893            ;* --------------------------------------------------------------------------*
    1894 000018 831D          SUB.W     #1,r13                ; [] |548| 
MSP430 Assembler PC v21.6.1 Tue Dec 20 13:45:55 2022

Copyright (c) 2003-2018 Texas Instruments Incorporated
usci_b_i2c.asm                                                       PAGE   37

    1895 00001a 730E          SUBC.W    #0,r14                ; [] |548| 
    1896 00001c 23FA          JNE       $C$L42                ; [] |548| 
    1897                                                      ; [] |548| 
    1898            ;* --------------------------------------------------------------------------*
    1899 00001e 930D          TST.W     r13                   ; [] |548| 
    1900 000020 23F8          JNE       $C$L42                ; [] |548| 
    1901                                                      ; [] |548| 
    1902            ;* --------------------------------------------------------------------------*
    1903 000022       $C$L43:    
    1904                    .dwpsn  file "../MP430DriverLib/driverlib/MSP430F5xx_6xx/usci_b_i2c.c",line 551,column 5,is_st
    1905 000022 930E          TST.W     r14                   ; [] |551| 
    1906 000024 2002          JNE       $C$L44                ; [] |551| 
    1907                                                      ; [] |551| 
    1908            ;* --------------------------------------------------------------------------*
    1909 000026 930D          TST.W     r13                   ; [] |551| 
    1910 000028 2407          JEQ       $C$L45                ; [] |551| 
    1911                                                      ; [] |551| 
    1912            ;* --------------------------------------------------------------------------*
    1913 00002a       $C$L44:    
    1914                    .dwpsn  file "../MP430DriverLib/driverlib/MSP430F5xx_6xx/usci_b_i2c.c",line 556,column 5,is_st
    1915 00002a D2EC          OR.B      #4,0(r12)             ; [] |556| 
         00002c 0000 
    1916                    .dwpsn  file "../MP430DriverLib/driverlib/MSP430F5xx_6xx/usci_b_i2c.c",line 559,column 5,is_st
    1917 00002e 4303          NOP
    1918 000030 DF02          BIS.W    r15,SR
    1919 000032 4303          NOP      ; [] |559| 
    1920                    .dwpsn  file "../MP430DriverLib/driverlib/MSP430F5xx_6xx/usci_b_i2c.c",line 561,column 5,is_st
    1921 000034 435C          MOV.B     #1,r12                ; [] |561| 
    1922 000036 3C01          JMP       $C$L46                ; [] |561| 
    1923                                                      ; [] |561| 
    1924            ;* --------------------------------------------------------------------------*
    1925 000038       $C$L45:    
    1926                    .dwpsn  file "../MP430DriverLib/driverlib/MSP430F5xx_6xx/usci_b_i2c.c",line 552,column 9,is_st
    1927 000038 434C          MOV.B     #0,r12                ; [] |552| 
    1928            ;* --------------------------------------------------------------------------*
    1929 00003a       $C$L46:    
    1930                    .dwpsn  file "../MP430DriverLib/driverlib/MSP430F5xx_6xx/usci_b_i2c.c",line 562,column 1,is_st
    1931            $C$DW$105       .dwtag  DW_TAG_TI_branch
    1932                    .dwattr $C$DW$105, DW_AT_low_pc(0x00)
    1933                    .dwattr $C$DW$105, DW_AT_TI_return
    1934            
    1935 00003a 0110          RETA      ; [] 
    1936                    ; [] 
    1937                    .dwattr $C$DW$99, DW_AT_TI_end_file("../MP430DriverLib/driverlib/MSP430F5xx_6xx/usci_b_i2c.c")
    1938                    .dwattr $C$DW$99, DW_AT_TI_end_line(0x232)
    1939                    .dwattr $C$DW$99, DW_AT_TI_end_column(0x01)
    1940                    .dwendentry
    1941                    .dwendtag $C$DW$99
    1942            
    1943 000000               .sect   ".text:USCI_B_I2C_masterReceiveSingleStart"
    1944                    .clink
    1945                    .global USCI_B_I2C_masterReceiveSingleStart
    1946            
    1947            $C$DW$106       .dwtag  DW_TAG_subprogram
    1948                    .dwattr $C$DW$106, DW_AT_name("USCI_B_I2C_masterReceiveSingleStart")
MSP430 Assembler PC v21.6.1 Tue Dec 20 13:45:55 2022

Copyright (c) 2003-2018 Texas Instruments Incorporated
usci_b_i2c.asm                                                       PAGE   38

    1949                    .dwattr $C$DW$106, DW_AT_low_pc(USCI_B_I2C_masterReceiveSingleStart)
    1950                    .dwattr $C$DW$106, DW_AT_high_pc(0x00)
    1951                    .dwattr $C$DW$106, DW_AT_TI_symbol_name("USCI_B_I2C_masterReceiveSingleStart")
    1952                    .dwattr $C$DW$106, DW_AT_external
    1953                    .dwattr $C$DW$106, DW_AT_TI_begin_file("../MP430DriverLib/driverlib/MSP430F5xx_6xx/usci_b_i2c.
    1954                    .dwattr $C$DW$106, DW_AT_TI_begin_line(0x1f5)
    1955                    .dwattr $C$DW$106, DW_AT_TI_begin_column(0x06)
    1956                    .dwattr $C$DW$106, DW_AT_decl_file("../MP430DriverLib/driverlib/MSP430F5xx_6xx/usci_b_i2c.c")
    1957                    .dwattr $C$DW$106, DW_AT_decl_line(0x1f5)
    1958                    .dwattr $C$DW$106, DW_AT_decl_column(0x06)
    1959                    .dwattr $C$DW$106, DW_AT_TI_max_frame_size(0x04)
    1960                    .dwpsn  file "../MP430DriverLib/driverlib/MSP430F5xx_6xx/usci_b_i2c.c",line 502,column 1,is_st
    1961            
    1962                    .dwfde $C$DW$CIE, USCI_B_I2C_masterReceiveSingleStart
    1963            $C$DW$107       .dwtag  DW_TAG_formal_parameter
    1964                    .dwattr $C$DW$107, DW_AT_name("baseAddress")
    1965                    .dwattr $C$DW$107, DW_AT_TI_symbol_name("baseAddress")
    1966                    .dwattr $C$DW$107, DW_AT_type(*$C$DW$T$32)
    1967                    .dwattr $C$DW$107, DW_AT_location[DW_OP_reg12]
    1968            
    1969            
    1970            ;*****************************************************************************
    1971            ;* FUNCTION NAME: USCI_B_I2C_masterReceiveSingleStart                        *
    1972            ;*                                                                           *
    1973            ;*   Regs Modified     : SP,SR,r14,r15                                       *
    1974            ;*   Regs Used         : SP,SR,r12,r14,r15                                   *
    1975            ;*   Local Frame Size  : 0 Args + 0 Auto + 0 Save = 0 byte                   *
    1976            ;*****************************************************************************
    1977 000000       USCI_B_I2C_masterReceiveSingleStart:
    1978            ;* --------------------------------------------------------------------------*
    1979                    .dwcfi  cfa_offset, 4
    1980                    .dwcfi  save_reg_to_mem, 16, -4
    1981            ;* r12   assigned to baseAddress
    1982            $C$DW$108       .dwtag  DW_TAG_variable
    1983                    .dwattr $C$DW$108, DW_AT_name("baseAddress")
    1984                    .dwattr $C$DW$108, DW_AT_TI_symbol_name("baseAddress")
    1985                    .dwattr $C$DW$108, DW_AT_type(*$C$DW$T$32)
    1986                    .dwattr $C$DW$108, DW_AT_location[DW_OP_reg12]
    1987            
    1988            ;* r15   assigned to gieStatus
    1989            $C$DW$109       .dwtag  DW_TAG_variable
    1990                    .dwattr $C$DW$109, DW_AT_name("gieStatus")
    1991                    .dwattr $C$DW$109, DW_AT_TI_symbol_name("gieStatus")
    1992                    .dwattr $C$DW$109, DW_AT_type(*$C$DW$T$32)
    1993                    .dwattr $C$DW$109, DW_AT_location[DW_OP_reg15]
    1994            
    1995                    .dwpsn  file "../MP430DriverLib/driverlib/MSP430F5xx_6xx/usci_b_i2c.c",line 507,column 5,is_st
    1996 000000 420F          MOV.W     SR,r15                ; [] |507| 
    1997 000002 F23F          AND.W     #8,r15                ; [] |507| 
    1998                    .dwpsn  file "../MP430DriverLib/driverlib/MSP430F5xx_6xx/usci_b_i2c.c",line 510,column 5,is_st
    1999 000004 C232          DINT
    2000 000006 4303          NOP      ; [] |510| 
    2001                    .dwpsn  file "../MP430DriverLib/driverlib/MSP430F5xx_6xx/usci_b_i2c.c",line 513,column 5,is_st
    2002 000008 F0FC          AND.B     #239,0(r12)           ; [] |513| 
         00000a 00EF 
MSP430 Assembler PC v21.6.1 Tue Dec 20 13:45:55 2022

Copyright (c) 2003-2018 Texas Instruments Incorporated
usci_b_i2c.asm                                                       PAGE   39

         00000c 0000 
    2003                    .dwpsn  file "../MP430DriverLib/driverlib/MSP430F5xx_6xx/usci_b_i2c.c",line 516,column 5,is_st
    2004 00000e D3EC          OR.B      #2,0(r12)             ; [] |516| 
         000010 0000 
    2005 000012 432E          MOV.W     #2,r14                ; [] |519| 
    2006            ;* --------------------------------------------------------------------------*
    2007            ;*   BEGIN LOOP $C$L47
    2008            ;*
    2009            ;*   Loop source line                : 519
    2010            ;*   Loop closing brace source line  : 519
    2011            ;*   Known Minimum Trip Count        : 1
    2012            ;*   Known Maximum Trip Count        : 4294967295
    2013            ;*   Known Max Trip Count Factor     : 1
    2014            ;* --------------------------------------------------------------------------*
    2015 000014       $C$L47:    
    2016                    .dwpsn  file "../MP430DriverLib/driverlib/MSP430F5xx_6xx/usci_b_i2c.c",line 519,column 5,is_st
    2017 000014 BC6E          BIT.B     @r12,r14              ; [] |519| 
    2018 000016 23FE          JNE       $C$L47                ; [] |519| 
    2019                                                      ; [] |519| 
    2020            ;* --------------------------------------------------------------------------*
    2021                    .dwpsn  file "../MP430DriverLib/driverlib/MSP430F5xx_6xx/usci_b_i2c.c",line 522,column 5,is_st
    2022 000018 D2EC          OR.B      #4,0(r12)             ; [] |522| 
         00001a 0000 
    2023                    .dwpsn  file "../MP430DriverLib/driverlib/MSP430F5xx_6xx/usci_b_i2c.c",line 525,column 5,is_st
    2024 00001c 4303          NOP
    2025 00001e DF02          BIS.W    r15,SR
    2026 000020 4303          NOP      ; [] |525| 
    2027                    .dwpsn  file "../MP430DriverLib/driverlib/MSP430F5xx_6xx/usci_b_i2c.c",line 526,column 1,is_st
    2028            $C$DW$110       .dwtag  DW_TAG_TI_branch
    2029                    .dwattr $C$DW$110, DW_AT_low_pc(0x00)
    2030                    .dwattr $C$DW$110, DW_AT_TI_return
    2031            
    2032 000022 0110          RETA      ; [] 
    2033                    ; [] 
    2034                    .dwattr $C$DW$106, DW_AT_TI_end_file("../MP430DriverLib/driverlib/MSP430F5xx_6xx/usci_b_i2c.c"
    2035                    .dwattr $C$DW$106, DW_AT_TI_end_line(0x20e)
    2036                    .dwattr $C$DW$106, DW_AT_TI_end_column(0x01)
    2037                    .dwendentry
    2038                    .dwendtag $C$DW$106
    2039            
    2040 000000               .sect   ".text:USCI_B_I2C_masterReceiveSingle"
    2041                    .clink
    2042                    .global USCI_B_I2C_masterReceiveSingle
    2043            
    2044            $C$DW$111       .dwtag  DW_TAG_subprogram
    2045                    .dwattr $C$DW$111, DW_AT_name("USCI_B_I2C_masterReceiveSingle")
    2046                    .dwattr $C$DW$111, DW_AT_low_pc(USCI_B_I2C_masterReceiveSingle)
    2047                    .dwattr $C$DW$111, DW_AT_high_pc(0x00)
    2048                    .dwattr $C$DW$111, DW_AT_TI_symbol_name("USCI_B_I2C_masterReceiveSingle")
    2049                    .dwattr $C$DW$111, DW_AT_external
    2050                    .dwattr $C$DW$111, DW_AT_type(*$C$DW$T$23)
    2051                    .dwattr $C$DW$111, DW_AT_TI_begin_file("../MP430DriverLib/driverlib/MSP430F5xx_6xx/usci_b_i2c.
    2052                    .dwattr $C$DW$111, DW_AT_TI_begin_line(0x234)
    2053                    .dwattr $C$DW$111, DW_AT_TI_begin_column(0x09)
    2054                    .dwattr $C$DW$111, DW_AT_decl_file("../MP430DriverLib/driverlib/MSP430F5xx_6xx/usci_b_i2c.c")
MSP430 Assembler PC v21.6.1 Tue Dec 20 13:45:55 2022

Copyright (c) 2003-2018 Texas Instruments Incorporated
usci_b_i2c.asm                                                       PAGE   40

    2055                    .dwattr $C$DW$111, DW_AT_decl_line(0x234)
    2056                    .dwattr $C$DW$111, DW_AT_decl_column(0x09)
    2057                    .dwattr $C$DW$111, DW_AT_TI_max_frame_size(0x04)
    2058                    .dwpsn  file "../MP430DriverLib/driverlib/MSP430F5xx_6xx/usci_b_i2c.c",line 565,column 1,is_st
    2059            
    2060                    .dwfde $C$DW$CIE, USCI_B_I2C_masterReceiveSingle
    2061            $C$DW$112       .dwtag  DW_TAG_formal_parameter
    2062                    .dwattr $C$DW$112, DW_AT_name("baseAddress")
    2063                    .dwattr $C$DW$112, DW_AT_TI_symbol_name("baseAddress")
    2064                    .dwattr $C$DW$112, DW_AT_type(*$C$DW$T$32)
    2065                    .dwattr $C$DW$112, DW_AT_location[DW_OP_reg12]
    2066            
    2067            
    2068            ;*****************************************************************************
    2069            ;* FUNCTION NAME: USCI_B_I2C_masterReceiveSingle                             *
    2070            ;*                                                                           *
    2071            ;*   Regs Modified     : SP,SR,r12,r14,r15                                   *
    2072            ;*   Regs Used         : SP,SR,r12,r14,r15                                   *
    2073            ;*   Local Frame Size  : 0 Args + 0 Auto + 0 Save = 0 byte                   *
    2074            ;*****************************************************************************
    2075 000000       USCI_B_I2C_masterReceiveSingle:
    2076            ;* --------------------------------------------------------------------------*
    2077                    .dwcfi  cfa_offset, 4
    2078                    .dwcfi  save_reg_to_mem, 16, -4
    2079            ;* r12   assigned to baseAddress
    2080            $C$DW$113       .dwtag  DW_TAG_variable
    2081                    .dwattr $C$DW$113, DW_AT_name("baseAddress")
    2082                    .dwattr $C$DW$113, DW_AT_TI_symbol_name("baseAddress")
    2083                    .dwattr $C$DW$113, DW_AT_type(*$C$DW$T$32)
    2084                    .dwattr $C$DW$113, DW_AT_location[DW_OP_reg12]
    2085            
    2086                    .dwpsn  file "../MP430DriverLib/driverlib/MSP430F5xx_6xx/usci_b_i2c.c",line 567,column 5,is_st
    2087 000000 0CCF          MOVA      r12,r15               ; [] |567| 
    2088 000002 503F          ADD.W     #28,r15               ; [] |567| 
         000004 001C 
    2089 000006 431E          MOV.W     #1,r14                ; [] |567| 
    2090 000008 BF6E          BIT.B     @r15,r14              ; [] |567| 
    2091 00000a 2005          JNE       $C$L49                ; [] |567| 
    2092                                                      ; [] |567| 
    2093            ;* --------------------------------------------------------------------------*
    2094            ;*   BEGIN LOOP $C$L48
    2095            ;*
    2096            ;*   Loop source line                : 568
    2097            ;*   Loop closing brace source line  : 568
    2098            ;*   Known Minimum Trip Count        : 1
    2099            ;*   Known Maximum Trip Count        : 4294967295
    2100            ;*   Known Max Trip Count Factor     : 1
    2101            ;* --------------------------------------------------------------------------*
    2102 00000c       $C$L48:    
    2103                    .dwpsn  file "../MP430DriverLib/driverlib/MSP430F5xx_6xx/usci_b_i2c.c",line 568,column 15,is_s
    2104 00000c 0CCF          MOVA      r12,r15               ; [] |568| 
    2105 00000e 503F          ADD.W     #29,r15               ; [] |568| 
         000010 001D 
    2106 000012 BF6E          BIT.B     @r15,r14              ; [] |568| 
    2107 000014 27FB          JEQ       $C$L48                ; [] |568| 
MSP430 Assembler PC v21.6.1 Tue Dec 20 13:45:55 2022

Copyright (c) 2003-2018 Texas Instruments Incorporated
usci_b_i2c.asm                                                       PAGE   41

    2108                                                      ; [] |568| 
    2109            ;* --------------------------------------------------------------------------*
    2110 000016       $C$L49:    
    2111                    .dwpsn  file "../MP430DriverLib/driverlib/MSP430F5xx_6xx/usci_b_i2c.c",line 572,column 5,is_st
    2112 000016 503C          ADD.W     #12,r12               ; [] |572| 
         000018 000C 
    2113 00001a 4C6C          MOV.B     @r12,r12              ; [] |572| 
    2114                    .dwpsn  file "../MP430DriverLib/driverlib/MSP430F5xx_6xx/usci_b_i2c.c",line 573,column 1,is_st
    2115            $C$DW$114       .dwtag  DW_TAG_TI_branch
    2116                    .dwattr $C$DW$114, DW_AT_low_pc(0x00)
    2117                    .dwattr $C$DW$114, DW_AT_TI_return
    2118            
    2119 00001c 0110          RETA      ; [] 
    2120                    ; [] 
    2121                    .dwattr $C$DW$111, DW_AT_TI_end_file("../MP430DriverLib/driverlib/MSP430F5xx_6xx/usci_b_i2c.c"
    2122                    .dwattr $C$DW$111, DW_AT_TI_end_line(0x23d)
    2123                    .dwattr $C$DW$111, DW_AT_TI_end_column(0x01)
    2124                    .dwendentry
    2125                    .dwendtag $C$DW$111
    2126            
    2127 000000               .sect   ".text:USCI_B_I2C_masterReceiveMultiByteStop"
    2128                    .clink
    2129                    .global USCI_B_I2C_masterReceiveMultiByteStop
    2130            
    2131            $C$DW$115       .dwtag  DW_TAG_subprogram
    2132                    .dwattr $C$DW$115, DW_AT_name("USCI_B_I2C_masterReceiveMultiByteStop")
    2133                    .dwattr $C$DW$115, DW_AT_low_pc(USCI_B_I2C_masterReceiveMultiByteStop)
    2134                    .dwattr $C$DW$115, DW_AT_high_pc(0x00)
    2135                    .dwattr $C$DW$115, DW_AT_TI_symbol_name("USCI_B_I2C_masterReceiveMultiByteStop")
    2136                    .dwattr $C$DW$115, DW_AT_external
    2137                    .dwattr $C$DW$115, DW_AT_TI_begin_file("../MP430DriverLib/driverlib/MSP430F5xx_6xx/usci_b_i2c.
    2138                    .dwattr $C$DW$115, DW_AT_TI_begin_line(0x1ef)
    2139                    .dwattr $C$DW$115, DW_AT_TI_begin_column(0x06)
    2140                    .dwattr $C$DW$115, DW_AT_decl_file("../MP430DriverLib/driverlib/MSP430F5xx_6xx/usci_b_i2c.c")
    2141                    .dwattr $C$DW$115, DW_AT_decl_line(0x1ef)
    2142                    .dwattr $C$DW$115, DW_AT_decl_column(0x06)
    2143                    .dwattr $C$DW$115, DW_AT_TI_max_frame_size(0x04)
    2144                    .dwpsn  file "../MP430DriverLib/driverlib/MSP430F5xx_6xx/usci_b_i2c.c",line 496,column 1,is_st
    2145            
    2146                    .dwfde $C$DW$CIE, USCI_B_I2C_masterReceiveMultiByteStop
    2147            $C$DW$116       .dwtag  DW_TAG_formal_parameter
    2148                    .dwattr $C$DW$116, DW_AT_name("baseAddress")
    2149                    .dwattr $C$DW$116, DW_AT_TI_symbol_name("baseAddress")
    2150                    .dwattr $C$DW$116, DW_AT_type(*$C$DW$T$32)
    2151                    .dwattr $C$DW$116, DW_AT_location[DW_OP_reg12]
    2152            
    2153            
    2154            ;*****************************************************************************
    2155            ;* FUNCTION NAME: USCI_B_I2C_masterReceiveMultiByteStop                      *
    2156            ;*                                                                           *
    2157            ;*   Regs Modified     : SP                                                  *
    2158            ;*   Regs Used         : SP,r12                                              *
    2159            ;*   Local Frame Size  : 0 Args + 0 Auto + 0 Save = 0 byte                   *
    2160            ;*****************************************************************************
    2161 000000       USCI_B_I2C_masterReceiveMultiByteStop:
MSP430 Assembler PC v21.6.1 Tue Dec 20 13:45:55 2022

Copyright (c) 2003-2018 Texas Instruments Incorporated
usci_b_i2c.asm                                                       PAGE   42

    2162            ;* --------------------------------------------------------------------------*
    2163                    .dwcfi  cfa_offset, 4
    2164                    .dwcfi  save_reg_to_mem, 16, -4
    2165            ;* r12   assigned to baseAddress
    2166            $C$DW$117       .dwtag  DW_TAG_variable
    2167                    .dwattr $C$DW$117, DW_AT_name("baseAddress")
    2168                    .dwattr $C$DW$117, DW_AT_TI_symbol_name("baseAddress")
    2169                    .dwattr $C$DW$117, DW_AT_type(*$C$DW$T$32)
    2170                    .dwattr $C$DW$117, DW_AT_location[DW_OP_reg12]
    2171            
    2172                    .dwpsn  file "../MP430DriverLib/driverlib/MSP430F5xx_6xx/usci_b_i2c.c",line 498,column 5,is_st
    2173 000000 D2EC          OR.B      #4,0(r12)             ; [] |498| 
         000002 0000 
    2174                    .dwpsn  file "../MP430DriverLib/driverlib/MSP430F5xx_6xx/usci_b_i2c.c",line 499,column 1,is_st
    2175            $C$DW$118       .dwtag  DW_TAG_TI_branch
    2176                    .dwattr $C$DW$118, DW_AT_low_pc(0x00)
    2177                    .dwattr $C$DW$118, DW_AT_TI_return
    2178            
    2179 000004 0110          RETA      ; [] 
    2180                    ; [] 
    2181                    .dwattr $C$DW$115, DW_AT_TI_end_file("../MP430DriverLib/driverlib/MSP430F5xx_6xx/usci_b_i2c.c"
    2182                    .dwattr $C$DW$115, DW_AT_TI_end_line(0x1f3)
    2183                    .dwattr $C$DW$115, DW_AT_TI_end_column(0x01)
    2184                    .dwendentry
    2185                    .dwendtag $C$DW$115
    2186            
    2187 000000               .sect   ".text:USCI_B_I2C_masterReceiveMultiByteStart"
    2188                    .clink
    2189                    .global USCI_B_I2C_masterReceiveMultiByteStart
    2190            
    2191            $C$DW$119       .dwtag  DW_TAG_subprogram
    2192                    .dwattr $C$DW$119, DW_AT_name("USCI_B_I2C_masterReceiveMultiByteStart")
    2193                    .dwattr $C$DW$119, DW_AT_low_pc(USCI_B_I2C_masterReceiveMultiByteStart)
    2194                    .dwattr $C$DW$119, DW_AT_high_pc(0x00)
    2195                    .dwattr $C$DW$119, DW_AT_TI_symbol_name("USCI_B_I2C_masterReceiveMultiByteStart")
    2196                    .dwattr $C$DW$119, DW_AT_external
    2197                    .dwattr $C$DW$119, DW_AT_TI_begin_file("../MP430DriverLib/driverlib/MSP430F5xx_6xx/usci_b_i2c.
    2198                    .dwattr $C$DW$119, DW_AT_TI_begin_line(0x1ad)
    2199                    .dwattr $C$DW$119, DW_AT_TI_begin_column(0x06)
    2200                    .dwattr $C$DW$119, DW_AT_decl_file("../MP430DriverLib/driverlib/MSP430F5xx_6xx/usci_b_i2c.c")
    2201                    .dwattr $C$DW$119, DW_AT_decl_line(0x1ad)
    2202                    .dwattr $C$DW$119, DW_AT_decl_column(0x06)
    2203                    .dwattr $C$DW$119, DW_AT_TI_max_frame_size(0x04)
    2204                    .dwpsn  file "../MP430DriverLib/driverlib/MSP430F5xx_6xx/usci_b_i2c.c",line 430,column 1,is_st
    2205            
    2206                    .dwfde $C$DW$CIE, USCI_B_I2C_masterReceiveMultiByteStart
    2207            $C$DW$120       .dwtag  DW_TAG_formal_parameter
    2208                    .dwattr $C$DW$120, DW_AT_name("baseAddress")
    2209                    .dwattr $C$DW$120, DW_AT_TI_symbol_name("baseAddress")
    2210                    .dwattr $C$DW$120, DW_AT_type(*$C$DW$T$32)
    2211                    .dwattr $C$DW$120, DW_AT_location[DW_OP_reg12]
    2212            
    2213            
    2214            ;*****************************************************************************
    2215            ;* FUNCTION NAME: USCI_B_I2C_masterReceiveMultiByteStart                     *
MSP430 Assembler PC v21.6.1 Tue Dec 20 13:45:55 2022

Copyright (c) 2003-2018 Texas Instruments Incorporated
usci_b_i2c.asm                                                       PAGE   43

    2216            ;*                                                                           *
    2217            ;*   Regs Modified     : SP,SR                                               *
    2218            ;*   Regs Used         : SP,SR,r12                                           *
    2219            ;*   Local Frame Size  : 0 Args + 0 Auto + 0 Save = 0 byte                   *
    2220            ;*****************************************************************************
    2221 000000       USCI_B_I2C_masterReceiveMultiByteStart:
    2222            ;* --------------------------------------------------------------------------*
    2223                    .dwcfi  cfa_offset, 4
    2224                    .dwcfi  save_reg_to_mem, 16, -4
    2225            ;* r12   assigned to baseAddress
    2226            $C$DW$121       .dwtag  DW_TAG_variable
    2227                    .dwattr $C$DW$121, DW_AT_name("baseAddress")
    2228                    .dwattr $C$DW$121, DW_AT_TI_symbol_name("baseAddress")
    2229                    .dwattr $C$DW$121, DW_AT_type(*$C$DW$T$32)
    2230                    .dwattr $C$DW$121, DW_AT_location[DW_OP_reg12]
    2231            
    2232                    .dwpsn  file "../MP430DriverLib/driverlib/MSP430F5xx_6xx/usci_b_i2c.c",line 432,column 5,is_st
    2233 000000 F0FC          AND.B     #239,0(r12)           ; [] |432| 
         000002 00EF 
         000004 0000 
    2234                    .dwpsn  file "../MP430DriverLib/driverlib/MSP430F5xx_6xx/usci_b_i2c.c",line 434,column 5,is_st
    2235 000006 D3EC          OR.B      #2,0(r12)             ; [] |434| 
         000008 0000 
    2236                    .dwpsn  file "../MP430DriverLib/driverlib/MSP430F5xx_6xx/usci_b_i2c.c",line 435,column 1,is_st
    2237            $C$DW$122       .dwtag  DW_TAG_TI_branch
    2238                    .dwattr $C$DW$122, DW_AT_low_pc(0x00)
    2239                    .dwattr $C$DW$122, DW_AT_TI_return
    2240            
    2241 00000a 0110          RETA      ; [] 
    2242                    ; [] 
    2243                    .dwattr $C$DW$119, DW_AT_TI_end_file("../MP430DriverLib/driverlib/MSP430F5xx_6xx/usci_b_i2c.c"
    2244                    .dwattr $C$DW$119, DW_AT_TI_end_line(0x1b3)
    2245                    .dwattr $C$DW$119, DW_AT_TI_end_column(0x01)
    2246                    .dwendentry
    2247                    .dwendtag $C$DW$119
    2248            
    2249 000000               .sect   ".text:USCI_B_I2C_masterReceiveMultiByteNext"
    2250                    .clink
    2251                    .global USCI_B_I2C_masterReceiveMultiByteNext
    2252            
    2253            $C$DW$123       .dwtag  DW_TAG_subprogram
    2254                    .dwattr $C$DW$123, DW_AT_name("USCI_B_I2C_masterReceiveMultiByteNext")
    2255                    .dwattr $C$DW$123, DW_AT_low_pc(USCI_B_I2C_masterReceiveMultiByteNext)
    2256                    .dwattr $C$DW$123, DW_AT_high_pc(0x00)
    2257                    .dwattr $C$DW$123, DW_AT_TI_symbol_name("USCI_B_I2C_masterReceiveMultiByteNext")
    2258                    .dwattr $C$DW$123, DW_AT_external
    2259                    .dwattr $C$DW$123, DW_AT_type(*$C$DW$T$23)
    2260                    .dwattr $C$DW$123, DW_AT_TI_begin_file("../MP430DriverLib/driverlib/MSP430F5xx_6xx/usci_b_i2c.
    2261                    .dwattr $C$DW$123, DW_AT_TI_begin_line(0x1b5)
    2262                    .dwattr $C$DW$123, DW_AT_TI_begin_column(0x09)
    2263                    .dwattr $C$DW$123, DW_AT_decl_file("../MP430DriverLib/driverlib/MSP430F5xx_6xx/usci_b_i2c.c")
    2264                    .dwattr $C$DW$123, DW_AT_decl_line(0x1b5)
    2265                    .dwattr $C$DW$123, DW_AT_decl_column(0x09)
    2266                    .dwattr $C$DW$123, DW_AT_TI_max_frame_size(0x04)
    2267                    .dwpsn  file "../MP430DriverLib/driverlib/MSP430F5xx_6xx/usci_b_i2c.c",line 438,column 1,is_st
MSP430 Assembler PC v21.6.1 Tue Dec 20 13:45:55 2022

Copyright (c) 2003-2018 Texas Instruments Incorporated
usci_b_i2c.asm                                                       PAGE   44

    2268            
    2269                    .dwfde $C$DW$CIE, USCI_B_I2C_masterReceiveMultiByteNext
    2270            $C$DW$124       .dwtag  DW_TAG_formal_parameter
    2271                    .dwattr $C$DW$124, DW_AT_name("baseAddress")
    2272                    .dwattr $C$DW$124, DW_AT_TI_symbol_name("baseAddress")
    2273                    .dwattr $C$DW$124, DW_AT_type(*$C$DW$T$32)
    2274                    .dwattr $C$DW$124, DW_AT_location[DW_OP_reg12]
    2275            
    2276            
    2277            ;*****************************************************************************
    2278            ;* FUNCTION NAME: USCI_B_I2C_masterReceiveMultiByteNext                      *
    2279            ;*                                                                           *
    2280            ;*   Regs Modified     : SP,SR,r12                                           *
    2281            ;*   Regs Used         : SP,SR,r12                                           *
    2282            ;*   Local Frame Size  : 0 Args + 0 Auto + 0 Save = 0 byte                   *
    2283            ;*****************************************************************************
    2284 000000       USCI_B_I2C_masterReceiveMultiByteNext:
    2285            ;* --------------------------------------------------------------------------*
    2286                    .dwcfi  cfa_offset, 4
    2287                    .dwcfi  save_reg_to_mem, 16, -4
    2288                    .dwpsn  file "../MP430DriverLib/driverlib/MSP430F5xx_6xx/usci_b_i2c.c",line 439,column 5,is_st
    2289 000000 503C          ADD.W     #12,r12               ; [] |439| 
         000002 000C 
    2290 000004 4C6C          MOV.B     @r12,r12              ; [] |439| 
    2291                    .dwpsn  file "../MP430DriverLib/driverlib/MSP430F5xx_6xx/usci_b_i2c.c",line 440,column 1,is_st
    2292            $C$DW$125       .dwtag  DW_TAG_TI_branch
    2293                    .dwattr $C$DW$125, DW_AT_low_pc(0x00)
    2294                    .dwattr $C$DW$125, DW_AT_TI_return
    2295            
    2296 000006 0110          RETA      ; [] 
    2297                    ; [] 
    2298                    .dwattr $C$DW$123, DW_AT_TI_end_file("../MP430DriverLib/driverlib/MSP430F5xx_6xx/usci_b_i2c.c"
    2299                    .dwattr $C$DW$123, DW_AT_TI_end_line(0x1b8)
    2300                    .dwattr $C$DW$123, DW_AT_TI_end_column(0x01)
    2301                    .dwendentry
    2302                    .dwendtag $C$DW$123
    2303            
    2304 000000               .sect   ".text:USCI_B_I2C_masterReceiveMultiByteFinishWithTimeout"
    2305                    .clink
    2306                    .global USCI_B_I2C_masterReceiveMultiByteFinishWithTimeout
    2307            
    2308            $C$DW$126       .dwtag  DW_TAG_subprogram
    2309                    .dwattr $C$DW$126, DW_AT_name("USCI_B_I2C_masterReceiveMultiByteFinishWithTimeout")
    2310                    .dwattr $C$DW$126, DW_AT_low_pc(USCI_B_I2C_masterReceiveMultiByteFinishWithTimeout)
    2311                    .dwattr $C$DW$126, DW_AT_high_pc(0x00)
    2312                    .dwattr $C$DW$126, DW_AT_TI_symbol_name("USCI_B_I2C_masterReceiveMultiByteFinishWithTimeout")
    2313                    .dwattr $C$DW$126, DW_AT_external
    2314                    .dwattr $C$DW$126, DW_AT_type(*$C$DW$T$160)
    2315                    .dwattr $C$DW$126, DW_AT_TI_begin_file("../MP430DriverLib/driverlib/MSP430F5xx_6xx/usci_b_i2c.
    2316                    .dwattr $C$DW$126, DW_AT_TI_begin_line(0x1ce)
    2317                    .dwattr $C$DW$126, DW_AT_TI_begin_column(0x06)
    2318                    .dwattr $C$DW$126, DW_AT_decl_file("../MP430DriverLib/driverlib/MSP430F5xx_6xx/usci_b_i2c.c")
    2319                    .dwattr $C$DW$126, DW_AT_decl_line(0x1ce)
    2320                    .dwattr $C$DW$126, DW_AT_decl_column(0x06)
    2321                    .dwattr $C$DW$126, DW_AT_TI_max_frame_size(0x0c)
MSP430 Assembler PC v21.6.1 Tue Dec 20 13:45:55 2022

Copyright (c) 2003-2018 Texas Instruments Incorporated
usci_b_i2c.asm                                                       PAGE   45

    2322                    .dwpsn  file "../MP430DriverLib/driverlib/MSP430F5xx_6xx/usci_b_i2c.c",line 466,column 1,is_st
    2323            
    2324                    .dwfde $C$DW$CIE, USCI_B_I2C_masterReceiveMultiByteFinishWithTimeout
    2325            $C$DW$127       .dwtag  DW_TAG_formal_parameter
    2326                    .dwattr $C$DW$127, DW_AT_name("baseAddress")
    2327                    .dwattr $C$DW$127, DW_AT_TI_symbol_name("baseAddress")
    2328                    .dwattr $C$DW$127, DW_AT_type(*$C$DW$T$32)
    2329                    .dwattr $C$DW$127, DW_AT_location[DW_OP_reg12]
    2330            
    2331            $C$DW$128       .dwtag  DW_TAG_formal_parameter
    2332                    .dwattr $C$DW$128, DW_AT_name("rxData")
    2333                    .dwattr $C$DW$128, DW_AT_TI_symbol_name("rxData")
    2334                    .dwattr $C$DW$128, DW_AT_type(*$C$DW$T$47)
    2335                    .dwattr $C$DW$128, DW_AT_location[DW_OP_reg13]
    2336            
    2337            $C$DW$129       .dwtag  DW_TAG_formal_parameter
    2338                    .dwattr $C$DW$129, DW_AT_name("timeout")
    2339                    .dwattr $C$DW$129, DW_AT_TI_symbol_name("timeout")
    2340                    .dwattr $C$DW$129, DW_AT_type(*$C$DW$T$25)
    2341                    .dwattr $C$DW$129, DW_AT_location[DW_OP_reg14 DW_OP_piece 2 DW_OP_reg15 DW_OP_piece 2]
    2342            
    2343            
    2344            ;*****************************************************************************
    2345            ;* FUNCTION NAME: USCI_B_I2C_masterReceiveMultiByteFinishWithTimeout         *
    2346            ;*                                                                           *
    2347            ;*   Regs Modified     : SP,SR,r9,r10,r11,r12,r13,r14,r15                    *
    2348            ;*   Regs Used         : SP,SR,r9,r10,r11,r12,r13,r14,r15                    *
    2349            ;*   Local Frame Size  : 0 Args + 0 Auto + 8 Save = 8 byte                   *
    2350            ;*****************************************************************************
    2351 000000       USCI_B_I2C_masterReceiveMultiByteFinishWithTimeout:
    2352            ;* --------------------------------------------------------------------------*
    2353                    .dwcfi  cfa_offset, 4
    2354                    .dwcfi  save_reg_to_mem, 16, -4
    2355 000000 141A          PUSHM.A   #2,r10                ; [] 
    2356                    .dwcfi  save_reg_to_mem, 10, -8
    2357                    .dwcfi  save_reg_to_mem, 9, -12
    2358                    .dwcfi  cfa_offset, 12
    2359            ;* r12   assigned to baseAddress
    2360            $C$DW$130       .dwtag  DW_TAG_variable
    2361                    .dwattr $C$DW$130, DW_AT_name("baseAddress")
    2362                    .dwattr $C$DW$130, DW_AT_TI_symbol_name("baseAddress")
    2363                    .dwattr $C$DW$130, DW_AT_type(*$C$DW$T$32)
    2364                    .dwattr $C$DW$130, DW_AT_location[DW_OP_reg12]
    2365            
    2366            ;* r13   assigned to rxData
    2367            $C$DW$131       .dwtag  DW_TAG_variable
    2368                    .dwattr $C$DW$131, DW_AT_name("rxData")
    2369                    .dwattr $C$DW$131, DW_AT_TI_symbol_name("rxData")
    2370                    .dwattr $C$DW$131, DW_AT_type(*$C$DW$T$47)
    2371                    .dwattr $C$DW$131, DW_AT_location[DW_OP_reg13]
    2372            
    2373            ;* r14   assigned to timeout
    2374            $C$DW$132       .dwtag  DW_TAG_variable
    2375                    .dwattr $C$DW$132, DW_AT_name("timeout")
    2376                    .dwattr $C$DW$132, DW_AT_TI_symbol_name("timeout")
MSP430 Assembler PC v21.6.1 Tue Dec 20 13:45:55 2022

Copyright (c) 2003-2018 Texas Instruments Incorporated
usci_b_i2c.asm                                                       PAGE   46

    2377                    .dwattr $C$DW$132, DW_AT_type(*$C$DW$T$25)
    2378                    .dwattr $C$DW$132, DW_AT_location[DW_OP_reg14 DW_OP_piece 2 DW_OP_reg15 DW_OP_piece 2]
    2379            
    2380            ;* r11   assigned to timeout2
    2381            $C$DW$133       .dwtag  DW_TAG_variable
    2382                    .dwattr $C$DW$133, DW_AT_name("timeout2")
    2383                    .dwattr $C$DW$133, DW_AT_TI_symbol_name("timeout2")
    2384                    .dwattr $C$DW$133, DW_AT_type(*$C$DW$T$25)
    2385                    .dwattr $C$DW$133, DW_AT_location[DW_OP_reg11 DW_OP_piece 2 DW_OP_reg10 DW_OP_piece 2]
    2386            
    2387                    .dwpsn  file "../MP430DriverLib/driverlib/MSP430F5xx_6xx/usci_b_i2c.c",line 467,column 23,is_s
    2388 000002 0ECB          MOVA      r14,r11               ; [] |467| 
    2389 000004 0FCA          MOVA      r15,r10               ; [] |467| 
    2390                    .dwpsn  file "../MP430DriverLib/driverlib/MSP430F5xx_6xx/usci_b_i2c.c",line 470,column 5,is_st
    2391 000006 D2EC          OR.B      #4,0(r12)             ; [] |470| 
         000008 0000 
    2392                    .dwpsn  file "../MP430DriverLib/driverlib/MSP430F5xx_6xx/usci_b_i2c.c",line 474,column 5,is_st
    2393 00000a 0CC9          MOVA      r12,r9                ; [] |474| 
    2394 00000c 5039          ADD.W     #12,r9                ; [] |474| 
         00000e 000C 
    2395 000010 49ED          MOV.B     @r9,0(r13)            ; [] |474| 
         000012 0000 
    2396            ;* --------------------------------------------------------------------------*
    2397            ;*   BEGIN LOOP $C$L50
    2398            ;*
    2399            ;*   Loop source line                : 477
    2400            ;*   Loop closing brace source line  : 477
    2401            ;*   Known Minimum Trip Count        : 1
    2402            ;*   Known Maximum Trip Count        : 4294967295
    2403            ;*   Known Max Trip Count Factor     : 1
    2404            ;* --------------------------------------------------------------------------*
    2405 000014       $C$L50:    
    2406                    .dwpsn  file "../MP430DriverLib/driverlib/MSP430F5xx_6xx/usci_b_i2c.c",line 477,column 12,is_s
    2407 000014 422D          MOV.W     #4,r13                ; [] |477| 
    2408 000016 BC6D          BIT.B     @r12,r13              ; [] |477| 
    2409 000018 2405          JEQ       $C$L51                ; [] |477| 
    2410                                                      ; [] |477| 
    2411            ;* --------------------------------------------------------------------------*
    2412 00001a 831E          SUB.W     #1,r14                ; [] |477| 
    2413 00001c 730F          SUBC.W    #0,r15                ; [] |477| 
    2414 00001e 23FA          JNE       $C$L50                ; [] |477| 
    2415                                                      ; [] |477| 
    2416            ;* --------------------------------------------------------------------------*
    2417 000020 930E          TST.W     r14                   ; [] |477| 
    2418 000022 23F8          JNE       $C$L50                ; [] |477| 
    2419                                                      ; [] |477| 
    2420            ;* --------------------------------------------------------------------------*
    2421 000024       $C$L51:    
    2422                    .dwpsn  file "../MP430DriverLib/driverlib/MSP430F5xx_6xx/usci_b_i2c.c",line 480,column 5,is_st
    2423 000024 930F          TST.W     r15                   ; [] |480| 
    2424 000026 2004          JNE       $C$L52                ; [] |480| 
    2425                                                      ; [] |480| 
    2426            ;* --------------------------------------------------------------------------*
    2427 000028 930E          TST.W     r14                   ; [] |480| 
    2428 00002a 2002          JNE       $C$L52                ; [] |480| 
MSP430 Assembler PC v21.6.1 Tue Dec 20 13:45:55 2022

Copyright (c) 2003-2018 Texas Instruments Incorporated
usci_b_i2c.asm                                                       PAGE   47

    2429                                                      ; [] |480| 
    2430            ;* --------------------------------------------------------------------------*
    2431                    .dwpsn  file "../MP430DriverLib/driverlib/MSP430F5xx_6xx/usci_b_i2c.c",line 481,column 9,is_st
    2432 00002c 434C          MOV.B     #0,r12                ; [] |481| 
    2433 00002e 3C11          JMP       $C$L55                ; [] |481| 
    2434                                                      ; [] |481| 
    2435            ;* --------------------------------------------------------------------------*
    2436            ;*   BEGIN LOOP $C$L52
    2437            ;*
    2438            ;*   Loop source line                : 485
    2439            ;*   Loop closing brace source line  : 485
    2440            ;*   Known Minimum Trip Count        : 1
    2441            ;*   Known Maximum Trip Count        : 4294967295
    2442            ;*   Known Max Trip Count Factor     : 1
    2443            ;* --------------------------------------------------------------------------*
    2444 000030       $C$L52:    
    2445                    .dwpsn  file "../MP430DriverLib/driverlib/MSP430F5xx_6xx/usci_b_i2c.c",line 485,column 12,is_s
    2446 000030 0CCF          MOVA      r12,r15               ; [] |485| 
    2447 000032 503F          ADD.W     #29,r15               ; [] |485| 
         000034 001D 
    2448 000036 431E          MOV.W     #1,r14                ; [] |485| 
    2449 000038 BF6E          BIT.B     @r15,r14              ; [] |485| 
    2450 00003a 2005          JNE       $C$L53                ; [] |485| 
    2451                                                      ; [] |485| 
    2452            ;* --------------------------------------------------------------------------*
    2453 00003c 831B          SUB.W     #1,r11                ; [] |485| 
    2454 00003e 730A          SUBC.W    #0,r10                ; [] |485| 
    2455 000040 23F7          JNE       $C$L52                ; [] |485| 
    2456                                                      ; [] |485| 
    2457            ;* --------------------------------------------------------------------------*
    2458 000042 930B          TST.W     r11                   ; [] |485| 
    2459 000044 23F5          JNE       $C$L52                ; [] |485| 
    2460                                                      ; [] |485| 
    2461            ;* --------------------------------------------------------------------------*
    2462 000046       $C$L53:    
    2463                    .dwpsn  file "../MP430DriverLib/driverlib/MSP430F5xx_6xx/usci_b_i2c.c",line 492,column 5,is_st
    2464 000046 434C          MOV.B     #0,r12                ; [] |492| 
    2465 000048 930A          TST.W     r10                   ; [] |492| 
    2466 00004a 2002          JNE       $C$L54                ; [] |492| 
    2467                                                      ; [] |492| 
    2468            ;* --------------------------------------------------------------------------*
    2469 00004c 930B          TST.W     r11                   ; [] |492| 
    2470 00004e 2401          JEQ       $C$L55                ; [] |492| 
    2471                                                      ; [] |492| 
    2472            ;* --------------------------------------------------------------------------*
    2473 000050       $C$L54:    
    2474 000050 435C          MOV.B     #1,r12                ; [] |492| 
    2475            ;* --------------------------------------------------------------------------*
    2476 000052       $C$L55:    
    2477                    .dwpsn  file "../MP430DriverLib/driverlib/MSP430F5xx_6xx/usci_b_i2c.c",line 493,column 1,is_st
    2478 000052 1619          POPM.A    #2,r10                ; [] 
    2479                    .dwcfi  restore_reg, 9
    2480                    .dwcfi  restore_reg, 10
    2481                    .dwcfi  cfa_offset, 4
    2482            $C$DW$134       .dwtag  DW_TAG_TI_branch
MSP430 Assembler PC v21.6.1 Tue Dec 20 13:45:55 2022

Copyright (c) 2003-2018 Texas Instruments Incorporated
usci_b_i2c.asm                                                       PAGE   48

    2483                    .dwattr $C$DW$134, DW_AT_low_pc(0x00)
    2484                    .dwattr $C$DW$134, DW_AT_TI_return
    2485            
    2486 000054 0110          RETA      ; [] 
    2487                    ; [] 
    2488                    .dwattr $C$DW$126, DW_AT_TI_end_file("../MP430DriverLib/driverlib/MSP430F5xx_6xx/usci_b_i2c.c"
    2489                    .dwattr $C$DW$126, DW_AT_TI_end_line(0x1ed)
    2490                    .dwattr $C$DW$126, DW_AT_TI_end_column(0x01)
    2491                    .dwendentry
    2492                    .dwendtag $C$DW$126
    2493            
    2494 000000               .sect   ".text:USCI_B_I2C_masterReceiveMultiByteFinish"
    2495                    .clink
    2496                    .global USCI_B_I2C_masterReceiveMultiByteFinish
    2497            
    2498            $C$DW$135       .dwtag  DW_TAG_subprogram
    2499                    .dwattr $C$DW$135, DW_AT_name("USCI_B_I2C_masterReceiveMultiByteFinish")
    2500                    .dwattr $C$DW$135, DW_AT_low_pc(USCI_B_I2C_masterReceiveMultiByteFinish)
    2501                    .dwattr $C$DW$135, DW_AT_high_pc(0x00)
    2502                    .dwattr $C$DW$135, DW_AT_TI_symbol_name("USCI_B_I2C_masterReceiveMultiByteFinish")
    2503                    .dwattr $C$DW$135, DW_AT_external
    2504                    .dwattr $C$DW$135, DW_AT_type(*$C$DW$T$23)
    2505                    .dwattr $C$DW$135, DW_AT_TI_begin_file("../MP430DriverLib/driverlib/MSP430F5xx_6xx/usci_b_i2c.
    2506                    .dwattr $C$DW$135, DW_AT_TI_begin_line(0x1ba)
    2507                    .dwattr $C$DW$135, DW_AT_TI_begin_column(0x09)
    2508                    .dwattr $C$DW$135, DW_AT_decl_file("../MP430DriverLib/driverlib/MSP430F5xx_6xx/usci_b_i2c.c")
    2509                    .dwattr $C$DW$135, DW_AT_decl_line(0x1ba)
    2510                    .dwattr $C$DW$135, DW_AT_decl_column(0x09)
    2511                    .dwattr $C$DW$135, DW_AT_TI_max_frame_size(0x04)
    2512                    .dwpsn  file "../MP430DriverLib/driverlib/MSP430F5xx_6xx/usci_b_i2c.c",line 443,column 1,is_st
    2513            
    2514                    .dwfde $C$DW$CIE, USCI_B_I2C_masterReceiveMultiByteFinish
    2515            $C$DW$136       .dwtag  DW_TAG_formal_parameter
    2516                    .dwattr $C$DW$136, DW_AT_name("baseAddress")
    2517                    .dwattr $C$DW$136, DW_AT_TI_symbol_name("baseAddress")
    2518                    .dwattr $C$DW$136, DW_AT_type(*$C$DW$T$32)
    2519                    .dwattr $C$DW$136, DW_AT_location[DW_OP_reg12]
    2520            
    2521            
    2522            ;*****************************************************************************
    2523            ;* FUNCTION NAME: USCI_B_I2C_masterReceiveMultiByteFinish                    *
    2524            ;*                                                                           *
    2525            ;*   Regs Modified     : SP,SR,r12,r13,r14,r15                               *
    2526            ;*   Regs Used         : SP,SR,r12,r13,r14,r15                               *
    2527            ;*   Local Frame Size  : 0 Args + 0 Auto + 0 Save = 0 byte                   *
    2528            ;*****************************************************************************
    2529 000000       USCI_B_I2C_masterReceiveMultiByteFinish:
    2530            ;* --------------------------------------------------------------------------*
    2531                    .dwcfi  cfa_offset, 4
    2532                    .dwcfi  save_reg_to_mem, 16, -4
    2533            ;* r12   assigned to baseAddress
    2534            $C$DW$137       .dwtag  DW_TAG_variable
    2535                    .dwattr $C$DW$137, DW_AT_name("baseAddress")
    2536                    .dwattr $C$DW$137, DW_AT_TI_symbol_name("baseAddress")
    2537                    .dwattr $C$DW$137, DW_AT_type(*$C$DW$T$32)
MSP430 Assembler PC v21.6.1 Tue Dec 20 13:45:55 2022

Copyright (c) 2003-2018 Texas Instruments Incorporated
usci_b_i2c.asm                                                       PAGE   49

    2538                    .dwattr $C$DW$137, DW_AT_location[DW_OP_reg12]
    2539            
    2540            ;* r15   assigned to receiveData
    2541            $C$DW$138       .dwtag  DW_TAG_variable
    2542                    .dwattr $C$DW$138, DW_AT_name("receiveData")
    2543                    .dwattr $C$DW$138, DW_AT_TI_symbol_name("receiveData")
    2544                    .dwattr $C$DW$138, DW_AT_type(*$C$DW$T$23)
    2545                    .dwattr $C$DW$138, DW_AT_location[DW_OP_reg15]
    2546            
    2547                    .dwpsn  file "../MP430DriverLib/driverlib/MSP430F5xx_6xx/usci_b_i2c.c",line 447,column 5,is_st
    2548 000000 D2EC          OR.B      #4,0(r12)             ; [] |447| 
         000002 0000 
    2549                    .dwpsn  file "../MP430DriverLib/driverlib/MSP430F5xx_6xx/usci_b_i2c.c",line 451,column 5,is_st
    2550 000004 0CCF          MOVA      r12,r15               ; [] |451| 
    2551 000006 503F          ADD.W     #12,r15               ; [] |451| 
         000008 000C 
    2552 00000a 4F6F          MOV.B     @r15,r15              ; [] |451| 
    2553 00000c 422E          MOV.W     #4,r14                ; [] |454| 
    2554            ;* --------------------------------------------------------------------------*
    2555            ;*   BEGIN LOOP $C$L56
    2556            ;*
    2557            ;*   Loop source line                : 454
    2558            ;*   Loop closing brace source line  : 454
    2559            ;*   Known Minimum Trip Count        : 1
    2560            ;*   Known Maximum Trip Count        : 4294967295
    2561            ;*   Known Max Trip Count Factor     : 1
    2562            ;* --------------------------------------------------------------------------*
    2563 00000e       $C$L56:    
    2564                    .dwpsn  file "../MP430DriverLib/driverlib/MSP430F5xx_6xx/usci_b_i2c.c",line 454,column 5,is_st
    2565 00000e BC6E          BIT.B     @r12,r14              ; [] |454| 
    2566 000010 23FE          JNE       $C$L56                ; [] |454| 
    2567                                                      ; [] |454| 
    2568            ;* --------------------------------------------------------------------------*
    2569 000012 431D          MOV.W     #1,r13                ; [] |457| 
    2570            ;* --------------------------------------------------------------------------*
    2571            ;*   BEGIN LOOP $C$L57
    2572            ;*
    2573            ;*   Loop source line                : 457
    2574            ;*   Loop closing brace source line  : 457
    2575            ;*   Known Minimum Trip Count        : 1
    2576            ;*   Known Maximum Trip Count        : 4294967295
    2577            ;*   Known Max Trip Count Factor     : 1
    2578            ;* --------------------------------------------------------------------------*
    2579 000014       $C$L57:    
    2580                    .dwpsn  file "../MP430DriverLib/driverlib/MSP430F5xx_6xx/usci_b_i2c.c",line 457,column 12,is_s
    2581 000014 0CCE          MOVA      r12,r14               ; [] |457| 
    2582 000016 503E          ADD.W     #29,r14               ; [] |457| 
         000018 001D 
    2583 00001a BE6D          BIT.B     @r14,r13              ; [] |457| 
    2584 00001c 27FB          JEQ       $C$L57                ; [] |457| 
    2585                                                      ; [] |457| 
    2586            ;* --------------------------------------------------------------------------*
    2587                    .dwpsn  file "../MP430DriverLib/driverlib/MSP430F5xx_6xx/usci_b_i2c.c",line 459,column 5,is_st
    2588 00001e 0FCC          MOVA      r15,r12               ; [] |459| 
    2589                    .dwpsn  file "../MP430DriverLib/driverlib/MSP430F5xx_6xx/usci_b_i2c.c",line 460,column 1,is_st
MSP430 Assembler PC v21.6.1 Tue Dec 20 13:45:55 2022

Copyright (c) 2003-2018 Texas Instruments Incorporated
usci_b_i2c.asm                                                       PAGE   50

    2590            $C$DW$139       .dwtag  DW_TAG_TI_branch
    2591                    .dwattr $C$DW$139, DW_AT_low_pc(0x00)
    2592                    .dwattr $C$DW$139, DW_AT_TI_return
    2593            
    2594 000020 0110          RETA      ; [] 
    2595                    ; [] 
    2596                    .dwattr $C$DW$135, DW_AT_TI_end_file("../MP430DriverLib/driverlib/MSP430F5xx_6xx/usci_b_i2c.c"
    2597                    .dwattr $C$DW$135, DW_AT_TI_end_line(0x1cc)
    2598                    .dwattr $C$DW$135, DW_AT_TI_end_column(0x01)
    2599                    .dwendentry
    2600                    .dwendtag $C$DW$135
    2601            
    2602 000000               .sect   ".text:USCI_B_I2C_masterIsStopSent"
    2603                    .clink
    2604                    .global USCI_B_I2C_masterIsStopSent
    2605            
    2606            $C$DW$140       .dwtag  DW_TAG_subprogram
    2607                    .dwattr $C$DW$140, DW_AT_name("USCI_B_I2C_masterIsStopSent")
    2608                    .dwattr $C$DW$140, DW_AT_low_pc(USCI_B_I2C_masterIsStopSent)
    2609                    .dwattr $C$DW$140, DW_AT_high_pc(0x00)
    2610                    .dwattr $C$DW$140, DW_AT_TI_symbol_name("USCI_B_I2C_masterIsStopSent")
    2611                    .dwattr $C$DW$140, DW_AT_external
    2612                    .dwattr $C$DW$140, DW_AT_type(*$C$DW$T$23)
    2613                    .dwattr $C$DW$140, DW_AT_TI_begin_file("../MP430DriverLib/driverlib/MSP430F5xx_6xx/usci_b_i2c.
    2614                    .dwattr $C$DW$140, DW_AT_TI_begin_line(0x7b)
    2615                    .dwattr $C$DW$140, DW_AT_TI_begin_column(0x09)
    2616                    .dwattr $C$DW$140, DW_AT_decl_file("../MP430DriverLib/driverlib/MSP430F5xx_6xx/usci_b_i2c.c")
    2617                    .dwattr $C$DW$140, DW_AT_decl_line(0x7b)
    2618                    .dwattr $C$DW$140, DW_AT_decl_column(0x09)
    2619                    .dwattr $C$DW$140, DW_AT_TI_max_frame_size(0x04)
    2620                    .dwpsn  file "../MP430DriverLib/driverlib/MSP430F5xx_6xx/usci_b_i2c.c",line 124,column 1,is_st
    2621            
    2622                    .dwfde $C$DW$CIE, USCI_B_I2C_masterIsStopSent
    2623            $C$DW$141       .dwtag  DW_TAG_formal_parameter
    2624                    .dwattr $C$DW$141, DW_AT_name("baseAddress")
    2625                    .dwattr $C$DW$141, DW_AT_TI_symbol_name("baseAddress")
    2626                    .dwattr $C$DW$141, DW_AT_type(*$C$DW$T$32)
    2627                    .dwattr $C$DW$141, DW_AT_location[DW_OP_reg12]
    2628            
    2629            
    2630            ;*****************************************************************************
    2631            ;* FUNCTION NAME: USCI_B_I2C_masterIsStopSent                                *
    2632            ;*                                                                           *
    2633            ;*   Regs Modified     : SP,SR,r12,r15                                       *
    2634            ;*   Regs Used         : SP,SR,r12,r15                                       *
    2635            ;*   Local Frame Size  : 0 Args + 0 Auto + 0 Save = 0 byte                   *
    2636            ;*****************************************************************************
    2637 000000       USCI_B_I2C_masterIsStopSent:
    2638            ;* --------------------------------------------------------------------------*
    2639                    .dwcfi  cfa_offset, 4
    2640                    .dwcfi  save_reg_to_mem, 16, -4
    2641            ;* r12   assigned to baseAddress
    2642            $C$DW$142       .dwtag  DW_TAG_variable
    2643                    .dwattr $C$DW$142, DW_AT_name("baseAddress")
    2644                    .dwattr $C$DW$142, DW_AT_TI_symbol_name("baseAddress")
MSP430 Assembler PC v21.6.1 Tue Dec 20 13:45:55 2022

Copyright (c) 2003-2018 Texas Instruments Incorporated
usci_b_i2c.asm                                                       PAGE   51

    2645                    .dwattr $C$DW$142, DW_AT_type(*$C$DW$T$32)
    2646                    .dwattr $C$DW$142, DW_AT_location[DW_OP_reg12]
    2647            
    2648                    .dwpsn  file "../MP430DriverLib/driverlib/MSP430F5xx_6xx/usci_b_i2c.c",line 126,column 5,is_st
    2649 000000 422F          MOV.W     #4,r15                ; [] |126| 
    2650 000002 FC6F          AND.B     @r12,r15              ; [] |126| 
    2651 000004 0FCC          MOVA      r15,r12               ; [] |126| 
    2652                    .dwpsn  file "../MP430DriverLib/driverlib/MSP430F5xx_6xx/usci_b_i2c.c",line 127,column 1,is_st
    2653            $C$DW$143       .dwtag  DW_TAG_TI_branch
    2654                    .dwattr $C$DW$143, DW_AT_low_pc(0x00)
    2655                    .dwattr $C$DW$143, DW_AT_TI_return
    2656            
    2657 000006 0110          RETA      ; [] 
    2658                    ; [] 
    2659                    .dwattr $C$DW$140, DW_AT_TI_end_file("../MP430DriverLib/driverlib/MSP430F5xx_6xx/usci_b_i2c.c"
    2660                    .dwattr $C$DW$140, DW_AT_TI_end_line(0x7f)
    2661                    .dwattr $C$DW$140, DW_AT_TI_end_column(0x01)
    2662                    .dwendentry
    2663                    .dwendtag $C$DW$140
    2664            
    2665 000000               .sect   ".text:USCI_B_I2C_masterIsStartSent"
    2666                    .clink
    2667                    .global USCI_B_I2C_masterIsStartSent
    2668            
    2669            $C$DW$144       .dwtag  DW_TAG_subprogram
    2670                    .dwattr $C$DW$144, DW_AT_name("USCI_B_I2C_masterIsStartSent")
    2671                    .dwattr $C$DW$144, DW_AT_low_pc(USCI_B_I2C_masterIsStartSent)
    2672                    .dwattr $C$DW$144, DW_AT_high_pc(0x00)
    2673                    .dwattr $C$DW$144, DW_AT_TI_symbol_name("USCI_B_I2C_masterIsStartSent")
    2674                    .dwattr $C$DW$144, DW_AT_external
    2675                    .dwattr $C$DW$144, DW_AT_type(*$C$DW$T$23)
    2676                    .dwattr $C$DW$144, DW_AT_TI_begin_file("../MP430DriverLib/driverlib/MSP430F5xx_6xx/usci_b_i2c.
    2677                    .dwattr $C$DW$144, DW_AT_TI_begin_line(0x81)
    2678                    .dwattr $C$DW$144, DW_AT_TI_begin_column(0x09)
    2679                    .dwattr $C$DW$144, DW_AT_decl_file("../MP430DriverLib/driverlib/MSP430F5xx_6xx/usci_b_i2c.c")
    2680                    .dwattr $C$DW$144, DW_AT_decl_line(0x81)
    2681                    .dwattr $C$DW$144, DW_AT_decl_column(0x09)
    2682                    .dwattr $C$DW$144, DW_AT_TI_max_frame_size(0x04)
    2683                    .dwpsn  file "../MP430DriverLib/driverlib/MSP430F5xx_6xx/usci_b_i2c.c",line 130,column 1,is_st
    2684            
    2685                    .dwfde $C$DW$CIE, USCI_B_I2C_masterIsStartSent
    2686            $C$DW$145       .dwtag  DW_TAG_formal_parameter
    2687                    .dwattr $C$DW$145, DW_AT_name("baseAddress")
    2688                    .dwattr $C$DW$145, DW_AT_TI_symbol_name("baseAddress")
    2689                    .dwattr $C$DW$145, DW_AT_type(*$C$DW$T$32)
    2690                    .dwattr $C$DW$145, DW_AT_location[DW_OP_reg12]
    2691            
    2692            
    2693            ;*****************************************************************************
    2694            ;* FUNCTION NAME: USCI_B_I2C_masterIsStartSent                               *
    2695            ;*                                                                           *
    2696            ;*   Regs Modified     : SP,SR,r12,r15                                       *
    2697            ;*   Regs Used         : SP,SR,r12,r15                                       *
    2698            ;*   Local Frame Size  : 0 Args + 0 Auto + 0 Save = 0 byte                   *
    2699            ;*****************************************************************************
MSP430 Assembler PC v21.6.1 Tue Dec 20 13:45:55 2022

Copyright (c) 2003-2018 Texas Instruments Incorporated
usci_b_i2c.asm                                                       PAGE   52

    2700 000000       USCI_B_I2C_masterIsStartSent:
    2701            ;* --------------------------------------------------------------------------*
    2702                    .dwcfi  cfa_offset, 4
    2703                    .dwcfi  save_reg_to_mem, 16, -4
    2704            ;* r12   assigned to baseAddress
    2705            $C$DW$146       .dwtag  DW_TAG_variable
    2706                    .dwattr $C$DW$146, DW_AT_name("baseAddress")
    2707                    .dwattr $C$DW$146, DW_AT_TI_symbol_name("baseAddress")
    2708                    .dwattr $C$DW$146, DW_AT_type(*$C$DW$T$32)
    2709                    .dwattr $C$DW$146, DW_AT_location[DW_OP_reg12]
    2710            
    2711                    .dwpsn  file "../MP430DriverLib/driverlib/MSP430F5xx_6xx/usci_b_i2c.c",line 132,column 5,is_st
    2712 000000 432F          MOV.W     #2,r15                ; [] |132| 
    2713 000002 FC6F          AND.B     @r12,r15              ; [] |132| 
    2714 000004 0FCC          MOVA      r15,r12               ; [] |132| 
    2715                    .dwpsn  file "../MP430DriverLib/driverlib/MSP430F5xx_6xx/usci_b_i2c.c",line 133,column 1,is_st
    2716            $C$DW$147       .dwtag  DW_TAG_TI_branch
    2717                    .dwattr $C$DW$147, DW_AT_low_pc(0x00)
    2718                    .dwattr $C$DW$147, DW_AT_TI_return
    2719            
    2720 000006 0110          RETA      ; [] 
    2721                    ; [] 
    2722                    .dwattr $C$DW$144, DW_AT_TI_end_file("../MP430DriverLib/driverlib/MSP430F5xx_6xx/usci_b_i2c.c"
    2723                    .dwattr $C$DW$144, DW_AT_TI_end_line(0x85)
    2724                    .dwattr $C$DW$144, DW_AT_TI_end_column(0x01)
    2725                    .dwendentry
    2726                    .dwendtag $C$DW$144
    2727            
    2728 000000               .sect   ".text:USCI_B_I2C_isBusy"
    2729                    .clink
    2730                    .global USCI_B_I2C_isBusy
    2731            
    2732            $C$DW$148       .dwtag  DW_TAG_subprogram
    2733                    .dwattr $C$DW$148, DW_AT_name("USCI_B_I2C_isBusy")
    2734                    .dwattr $C$DW$148, DW_AT_low_pc(USCI_B_I2C_isBusy)
    2735                    .dwattr $C$DW$148, DW_AT_high_pc(0x00)
    2736                    .dwattr $C$DW$148, DW_AT_TI_symbol_name("USCI_B_I2C_isBusy")
    2737                    .dwattr $C$DW$148, DW_AT_external
    2738                    .dwattr $C$DW$148, DW_AT_type(*$C$DW$T$23)
    2739                    .dwattr $C$DW$148, DW_AT_TI_begin_file("../MP430DriverLib/driverlib/MSP430F5xx_6xx/usci_b_i2c.
    2740                    .dwattr $C$DW$148, DW_AT_TI_begin_line(0x71)
    2741                    .dwattr $C$DW$148, DW_AT_TI_begin_column(0x09)
    2742                    .dwattr $C$DW$148, DW_AT_decl_file("../MP430DriverLib/driverlib/MSP430F5xx_6xx/usci_b_i2c.c")
    2743                    .dwattr $C$DW$148, DW_AT_decl_line(0x71)
    2744                    .dwattr $C$DW$148, DW_AT_decl_column(0x09)
    2745                    .dwattr $C$DW$148, DW_AT_TI_max_frame_size(0x04)
    2746                    .dwpsn  file "../MP430DriverLib/driverlib/MSP430F5xx_6xx/usci_b_i2c.c",line 114,column 1,is_st
    2747            
    2748                    .dwfde $C$DW$CIE, USCI_B_I2C_isBusy
    2749            $C$DW$149       .dwtag  DW_TAG_formal_parameter
    2750                    .dwattr $C$DW$149, DW_AT_name("baseAddress")
    2751                    .dwattr $C$DW$149, DW_AT_TI_symbol_name("baseAddress")
    2752                    .dwattr $C$DW$149, DW_AT_type(*$C$DW$T$32)
    2753                    .dwattr $C$DW$149, DW_AT_location[DW_OP_reg12]
    2754            
MSP430 Assembler PC v21.6.1 Tue Dec 20 13:45:55 2022

Copyright (c) 2003-2018 Texas Instruments Incorporated
usci_b_i2c.asm                                                       PAGE   53

    2755            
    2756            ;*****************************************************************************
    2757            ;* FUNCTION NAME: USCI_B_I2C_isBusy                                          *
    2758            ;*                                                                           *
    2759            ;*   Regs Modified     : SP,SR,r12,r15                                       *
    2760            ;*   Regs Used         : SP,SR,r12,r15                                       *
    2761            ;*   Local Frame Size  : 0 Args + 0 Auto + 0 Save = 0 byte                   *
    2762            ;*****************************************************************************
    2763 000000       USCI_B_I2C_isBusy:
    2764            ;* --------------------------------------------------------------------------*
    2765                    .dwcfi  cfa_offset, 4
    2766                    .dwcfi  save_reg_to_mem, 16, -4
    2767                    .dwpsn  file "../MP430DriverLib/driverlib/MSP430F5xx_6xx/usci_b_i2c.c",line 117,column 9,is_st
    2768 000000 503C          ADD.W     #29,r12               ; [] |117| 
         000002 001D 
    2769 000004 403F          MOV.W     #3,r15                ; [] |117| 
         000006 0003 
    2770 000008 BC6F          BIT.B     @r12,r15              ; [] |117| 
    2771 00000a 2403          JEQ       $C$L58                ; [] |117| 
    2772                                                      ; [] |117| 
    2773            ;* --------------------------------------------------------------------------*
    2774 00000c 407C          MOV.B     #16,r12               ; [] |117| 
         00000e 0010 
    2775 000010 3C01          JMP       $C$L59                ; [] |117| 
    2776                                                      ; [] |117| 
    2777            ;* --------------------------------------------------------------------------*
    2778 000012       $C$L58:    
    2779 000012 434C          MOV.B     #0,r12                ; [] |117| 
    2780            ;* --------------------------------------------------------------------------*
    2781 000014       $C$L59:    
    2782                    .dwpsn  file "../MP430DriverLib/driverlib/MSP430F5xx_6xx/usci_b_i2c.c",line 121,column 1,is_st
    2783            $C$DW$150       .dwtag  DW_TAG_TI_branch
    2784                    .dwattr $C$DW$150, DW_AT_low_pc(0x00)
    2785                    .dwattr $C$DW$150, DW_AT_TI_return
    2786            
    2787 000014 0110          RETA      ; [] 
    2788                    ; [] 
    2789                    .dwattr $C$DW$148, DW_AT_TI_end_file("../MP430DriverLib/driverlib/MSP430F5xx_6xx/usci_b_i2c.c"
    2790                    .dwattr $C$DW$148, DW_AT_TI_end_line(0x79)
    2791                    .dwattr $C$DW$148, DW_AT_TI_end_column(0x01)
    2792                    .dwendentry
    2793                    .dwendtag $C$DW$148
    2794            
    2795 000000               .sect   ".text:USCI_B_I2C_isBusBusy"
    2796                    .clink
    2797                    .global USCI_B_I2C_isBusBusy
    2798            
    2799            $C$DW$151       .dwtag  DW_TAG_subprogram
    2800                    .dwattr $C$DW$151, DW_AT_name("USCI_B_I2C_isBusBusy")
    2801                    .dwattr $C$DW$151, DW_AT_low_pc(USCI_B_I2C_isBusBusy)
    2802                    .dwattr $C$DW$151, DW_AT_high_pc(0x00)
    2803                    .dwattr $C$DW$151, DW_AT_TI_symbol_name("USCI_B_I2C_isBusBusy")
    2804                    .dwattr $C$DW$151, DW_AT_external
    2805                    .dwattr $C$DW$151, DW_AT_type(*$C$DW$T$23)
    2806                    .dwattr $C$DW$151, DW_AT_TI_begin_file("../MP430DriverLib/driverlib/MSP430F5xx_6xx/usci_b_i2c.
MSP430 Assembler PC v21.6.1 Tue Dec 20 13:45:55 2022

Copyright (c) 2003-2018 Texas Instruments Incorporated
usci_b_i2c.asm                                                       PAGE   54

    2807                    .dwattr $C$DW$151, DW_AT_TI_begin_line(0x6b)
    2808                    .dwattr $C$DW$151, DW_AT_TI_begin_column(0x09)
    2809                    .dwattr $C$DW$151, DW_AT_decl_file("../MP430DriverLib/driverlib/MSP430F5xx_6xx/usci_b_i2c.c")
    2810                    .dwattr $C$DW$151, DW_AT_decl_line(0x6b)
    2811                    .dwattr $C$DW$151, DW_AT_decl_column(0x09)
    2812                    .dwattr $C$DW$151, DW_AT_TI_max_frame_size(0x04)
    2813                    .dwpsn  file "../MP430DriverLib/driverlib/MSP430F5xx_6xx/usci_b_i2c.c",line 108,column 1,is_st
    2814            
    2815                    .dwfde $C$DW$CIE, USCI_B_I2C_isBusBusy
    2816            $C$DW$152       .dwtag  DW_TAG_formal_parameter
    2817                    .dwattr $C$DW$152, DW_AT_name("baseAddress")
    2818                    .dwattr $C$DW$152, DW_AT_TI_symbol_name("baseAddress")
    2819                    .dwattr $C$DW$152, DW_AT_type(*$C$DW$T$32)
    2820                    .dwattr $C$DW$152, DW_AT_location[DW_OP_reg12]
    2821            
    2822            
    2823            ;*****************************************************************************
    2824            ;* FUNCTION NAME: USCI_B_I2C_isBusBusy                                       *
    2825            ;*                                                                           *
    2826            ;*   Regs Modified     : SP,SR,r12,r15                                       *
    2827            ;*   Regs Used         : SP,SR,r12,r15                                       *
    2828            ;*   Local Frame Size  : 0 Args + 0 Auto + 0 Save = 0 byte                   *
    2829            ;*****************************************************************************
    2830 000000       USCI_B_I2C_isBusBusy:
    2831            ;* --------------------------------------------------------------------------*
    2832                    .dwcfi  cfa_offset, 4
    2833                    .dwcfi  save_reg_to_mem, 16, -4
    2834                    .dwpsn  file "../MP430DriverLib/driverlib/MSP430F5xx_6xx/usci_b_i2c.c",line 110,column 5,is_st
    2835 000000 503C          ADD.W     #10,r12               ; [] |110| 
         000002 000A 
    2836 000004 403F          MOV.W     #16,r15               ; [] |110| 
         000006 0010 
    2837 000008 FC6F          AND.B     @r12,r15              ; [] |110| 
    2838 00000a 0FCC          MOVA      r15,r12               ; [] |110| 
    2839                    .dwpsn  file "../MP430DriverLib/driverlib/MSP430F5xx_6xx/usci_b_i2c.c",line 111,column 1,is_st
    2840            $C$DW$153       .dwtag  DW_TAG_TI_branch
    2841                    .dwattr $C$DW$153, DW_AT_low_pc(0x00)
    2842                    .dwattr $C$DW$153, DW_AT_TI_return
    2843            
    2844 00000c 0110          RETA      ; [] 
    2845                    ; [] 
    2846                    .dwattr $C$DW$151, DW_AT_TI_end_file("../MP430DriverLib/driverlib/MSP430F5xx_6xx/usci_b_i2c.c"
    2847                    .dwattr $C$DW$151, DW_AT_TI_end_line(0x6f)
    2848                    .dwattr $C$DW$151, DW_AT_TI_end_column(0x01)
    2849                    .dwendentry
    2850                    .dwendtag $C$DW$151
    2851            
    2852 000000               .sect   ".text:USCI_B_I2C_initSlave"
    2853                    .clink
    2854                    .global USCI_B_I2C_initSlave
    2855            
    2856            $C$DW$154       .dwtag  DW_TAG_subprogram
    2857                    .dwattr $C$DW$154, DW_AT_name("USCI_B_I2C_initSlave")
    2858                    .dwattr $C$DW$154, DW_AT_low_pc(USCI_B_I2C_initSlave)
    2859                    .dwattr $C$DW$154, DW_AT_high_pc(0x00)
MSP430 Assembler PC v21.6.1 Tue Dec 20 13:45:55 2022

Copyright (c) 2003-2018 Texas Instruments Incorporated
usci_b_i2c.asm                                                       PAGE   55

    2860                    .dwattr $C$DW$154, DW_AT_TI_symbol_name("USCI_B_I2C_initSlave")
    2861                    .dwattr $C$DW$154, DW_AT_external
    2862                    .dwattr $C$DW$154, DW_AT_TI_begin_file("../MP430DriverLib/driverlib/MSP430F5xx_6xx/usci_b_i2c.
    2863                    .dwattr $C$DW$154, DW_AT_TI_begin_line(0x30)
    2864                    .dwattr $C$DW$154, DW_AT_TI_begin_column(0x06)
    2865                    .dwattr $C$DW$154, DW_AT_decl_file("../MP430DriverLib/driverlib/MSP430F5xx_6xx/usci_b_i2c.c")
    2866                    .dwattr $C$DW$154, DW_AT_decl_line(0x30)
    2867                    .dwattr $C$DW$154, DW_AT_decl_column(0x06)
    2868                    .dwattr $C$DW$154, DW_AT_TI_max_frame_size(0x04)
    2869                    .dwpsn  file "../MP430DriverLib/driverlib/MSP430F5xx_6xx/usci_b_i2c.c",line 51,column 1,is_stm
    2870            
    2871                    .dwfde $C$DW$CIE, USCI_B_I2C_initSlave
    2872            $C$DW$155       .dwtag  DW_TAG_formal_parameter
    2873                    .dwattr $C$DW$155, DW_AT_name("baseAddress")
    2874                    .dwattr $C$DW$155, DW_AT_TI_symbol_name("baseAddress")
    2875                    .dwattr $C$DW$155, DW_AT_type(*$C$DW$T$32)
    2876                    .dwattr $C$DW$155, DW_AT_location[DW_OP_reg12]
    2877            
    2878            $C$DW$156       .dwtag  DW_TAG_formal_parameter
    2879                    .dwattr $C$DW$156, DW_AT_name("slaveAddress")
    2880                    .dwattr $C$DW$156, DW_AT_TI_symbol_name("slaveAddress")
    2881                    .dwattr $C$DW$156, DW_AT_type(*$C$DW$T$23)
    2882                    .dwattr $C$DW$156, DW_AT_location[DW_OP_reg13]
    2883            
    2884            
    2885            ;*****************************************************************************
    2886            ;* FUNCTION NAME: USCI_B_I2C_initSlave                                       *
    2887            ;*                                                                           *
    2888            ;*   Regs Modified     : SP,SR,r12,r13,r15                                   *
    2889            ;*   Regs Used         : SP,SR,r12,r13,r15                                   *
    2890            ;*   Local Frame Size  : 0 Args + 0 Auto + 0 Save = 0 byte                   *
    2891            ;*****************************************************************************
    2892 000000       USCI_B_I2C_initSlave:
    2893            ;* --------------------------------------------------------------------------*
    2894                    .dwcfi  cfa_offset, 4
    2895                    .dwcfi  save_reg_to_mem, 16, -4
    2896            ;* r12   assigned to baseAddress
    2897            $C$DW$157       .dwtag  DW_TAG_variable
    2898                    .dwattr $C$DW$157, DW_AT_name("baseAddress")
    2899                    .dwattr $C$DW$157, DW_AT_TI_symbol_name("baseAddress")
    2900                    .dwattr $C$DW$157, DW_AT_type(*$C$DW$T$32)
    2901                    .dwattr $C$DW$157, DW_AT_location[DW_OP_reg12]
    2902            
    2903            ;* r13   assigned to slaveAddress
    2904            $C$DW$158       .dwtag  DW_TAG_variable
    2905                    .dwattr $C$DW$158, DW_AT_name("slaveAddress")
    2906                    .dwattr $C$DW$158, DW_AT_TI_symbol_name("slaveAddress")
    2907                    .dwattr $C$DW$158, DW_AT_type(*$C$DW$T$23)
    2908                    .dwattr $C$DW$158, DW_AT_location[DW_OP_reg13]
    2909            
    2910                    .dwpsn  file "../MP430DriverLib/driverlib/MSP430F5xx_6xx/usci_b_i2c.c",line 53,column 5,is_stm
    2911 000000 D3DC          OR.B      #1,0(r12)             ; [] |53| 
         000002 0000 
    2912                    .dwpsn  file "../MP430DriverLib/driverlib/MSP430F5xx_6xx/usci_b_i2c.c",line 56,column 5,is_stm
    2913 000004 0CCF          MOVA      r12,r15               ; [] |56| 
MSP430 Assembler PC v21.6.1 Tue Dec 20 13:45:55 2022

Copyright (c) 2003-2018 Texas Instruments Incorporated
usci_b_i2c.asm                                                       PAGE   56

    2914 000006 531F          ADD.W     #1,r15                ; [] |56| 
    2915 000008 4F0F          MOV.W     r15,r15               ; [] |56| 
    2916 00000a C2FF          BIC.B     #8,0(r15)             ; [] |56| 
         00000c 0000 
    2917                    .dwpsn  file "../MP430DriverLib/driverlib/MSP430F5xx_6xx/usci_b_i2c.c",line 59,column 5,is_stm
    2918 00000e 0CCF          MOVA      r12,r15               ; [] |59| 
    2919 000010 531F          ADD.W     #1,r15                ; [] |59| 
    2920 000012 40FF          MOV.B     #7,0(r15)             ; [] |59| 
         000014 0007 
         000016 0000 
    2921                    .dwpsn  file "../MP430DriverLib/driverlib/MSP430F5xx_6xx/usci_b_i2c.c",line 62,column 5,is_stm
    2922 000018 4D4D          MOV.B     r13,r13               ; [] |62| 
    2923 00001a 503C          ADD.W     #16,r12               ; [] |62| 
         00001c 0010 
    2924 00001e 4D8C          MOV.W     r13,0(r12)            ; [] |62| 
         000020 0000 
    2925                    .dwpsn  file "../MP430DriverLib/driverlib/MSP430F5xx_6xx/usci_b_i2c.c",line 63,column 1,is_stm
    2926            $C$DW$159       .dwtag  DW_TAG_TI_branch
    2927                    .dwattr $C$DW$159, DW_AT_low_pc(0x00)
    2928                    .dwattr $C$DW$159, DW_AT_TI_return
    2929            
    2930 000022 0110          RETA      ; [] 
    2931                    ; [] 
    2932                    .dwattr $C$DW$154, DW_AT_TI_end_file("../MP430DriverLib/driverlib/MSP430F5xx_6xx/usci_b_i2c.c"
    2933                    .dwattr $C$DW$154, DW_AT_TI_end_line(0x3f)
    2934                    .dwattr $C$DW$154, DW_AT_TI_end_column(0x01)
    2935                    .dwendentry
    2936                    .dwendtag $C$DW$154
    2937            
    2938 000000               .sect   ".text:USCI_B_I2C_initMaster"
    2939                    .clink
    2940                    .global USCI_B_I2C_initMaster
    2941            
    2942            $C$DW$160       .dwtag  DW_TAG_subprogram
    2943                    .dwattr $C$DW$160, DW_AT_name("USCI_B_I2C_initMaster")
    2944                    .dwattr $C$DW$160, DW_AT_low_pc(USCI_B_I2C_initMaster)
    2945                    .dwattr $C$DW$160, DW_AT_high_pc(0x00)
    2946                    .dwattr $C$DW$160, DW_AT_TI_symbol_name("USCI_B_I2C_initMaster")
    2947                    .dwattr $C$DW$160, DW_AT_external
    2948                    .dwattr $C$DW$160, DW_AT_TI_begin_file("../MP430DriverLib/driverlib/MSP430F5xx_6xx/usci_b_i2c.
    2949                    .dwattr $C$DW$160, DW_AT_TI_begin_line(0x15)
    2950                    .dwattr $C$DW$160, DW_AT_TI_begin_column(0x06)
    2951                    .dwattr $C$DW$160, DW_AT_decl_file("../MP430DriverLib/driverlib/MSP430F5xx_6xx/usci_b_i2c.c")
    2952                    .dwattr $C$DW$160, DW_AT_decl_line(0x15)
    2953                    .dwattr $C$DW$160, DW_AT_decl_column(0x06)
    2954                    .dwattr $C$DW$160, DW_AT_TI_max_frame_size(0x08)
    2955                    .dwpsn  file "../MP430DriverLib/driverlib/MSP430F5xx_6xx/usci_b_i2c.c",line 22,column 1,is_stm
    2956            
    2957                    .dwfde $C$DW$CIE, USCI_B_I2C_initMaster
    2958            $C$DW$161       .dwtag  DW_TAG_formal_parameter
    2959                    .dwattr $C$DW$161, DW_AT_name("baseAddress")
    2960                    .dwattr $C$DW$161, DW_AT_TI_symbol_name("baseAddress")
    2961                    .dwattr $C$DW$161, DW_AT_type(*$C$DW$T$32)
    2962                    .dwattr $C$DW$161, DW_AT_location[DW_OP_reg12]
    2963            
MSP430 Assembler PC v21.6.1 Tue Dec 20 13:45:55 2022

Copyright (c) 2003-2018 Texas Instruments Incorporated
usci_b_i2c.asm                                                       PAGE   57

    2964            $C$DW$162       .dwtag  DW_TAG_formal_parameter
    2965                    .dwattr $C$DW$162, DW_AT_name("param")
    2966                    .dwattr $C$DW$162, DW_AT_TI_symbol_name("param")
    2967                    .dwattr $C$DW$162, DW_AT_type(*$C$DW$T$29)
    2968                    .dwattr $C$DW$162, DW_AT_location[DW_OP_reg13]
    2969            
    2970            
    2971            ;*****************************************************************************
    2972            ;* FUNCTION NAME: USCI_B_I2C_initMaster                                      *
    2973            ;*                                                                           *
    2974            ;*   Regs Modified     : SP,SR,r10,r11,r12,r13,r14,r15                       *
    2975            ;*   Regs Used         : SP,SR,r10,r11,r12,r13,r14,r15                       *
    2976            ;*   Local Frame Size  : 0 Args + 0 Auto + 4 Save = 4 byte                   *
    2977            ;*****************************************************************************
    2978 000000       USCI_B_I2C_initMaster:
    2979            ;* --------------------------------------------------------------------------*
    2980                    .dwcfi  cfa_offset, 4
    2981                    .dwcfi  save_reg_to_mem, 16, -4
    2982 000000 140A          PUSHM.A   #1,r10                ; [] 
    2983                    .dwcfi  save_reg_to_mem, 10, -8
    2984                    .dwcfi  cfa_offset, 8
    2985            ;* r10   assigned to baseAddress
    2986            $C$DW$163       .dwtag  DW_TAG_variable
    2987                    .dwattr $C$DW$163, DW_AT_name("baseAddress")
    2988                    .dwattr $C$DW$163, DW_AT_TI_symbol_name("baseAddress")
    2989                    .dwattr $C$DW$163, DW_AT_type(*$C$DW$T$32)
    2990                    .dwattr $C$DW$163, DW_AT_location[DW_OP_reg10]
    2991            
    2992            ;* r15   assigned to param
    2993            $C$DW$164       .dwtag  DW_TAG_variable
    2994                    .dwattr $C$DW$164, DW_AT_name("param")
    2995                    .dwattr $C$DW$164, DW_AT_TI_symbol_name("param")
    2996                    .dwattr $C$DW$164, DW_AT_type(*$C$DW$T$29)
    2997                    .dwattr $C$DW$164, DW_AT_location[DW_OP_reg15]
    2998            
    2999            ;* r12   assigned to preScalarValue
    3000            $C$DW$165       .dwtag  DW_TAG_variable
    3001                    .dwattr $C$DW$165, DW_AT_name("preScalarValue")
    3002                    .dwattr $C$DW$165, DW_AT_TI_symbol_name("preScalarValue")
    3003                    .dwattr $C$DW$165, DW_AT_type(*$C$DW$T$32)
    3004                    .dwattr $C$DW$165, DW_AT_location[DW_OP_reg12]
    3005            
    3006 000002 0DCF          MOVA      r13,r15               ; [] |22| 
    3007 000004 0CCA          MOVA      r12,r10               ; [] |22| 
    3008                    .dwpsn  file "../MP430DriverLib/driverlib/MSP430F5xx_6xx/usci_b_i2c.c",line 26,column 5,is_stm
    3009 000006 43DA          MOV.B     #1,0(r10)             ; [] |26| 
         000008 0000 
    3010                    .dwpsn  file "../MP430DriverLib/driverlib/MSP430F5xx_6xx/usci_b_i2c.c",line 34,column 5,is_stm
    3011 00000a 0ACE          MOVA      r10,r14               ; [] |34| 
    3012 00000c 531E          ADD.W     #1,r14                ; [] |34| 
    3013 00000e 40FE          MOV.B     #15,0(r14)            ; [] |34| 
         000010 000F 
         000012 0000 
    3014                    .dwpsn  file "../MP430DriverLib/driverlib/MSP430F5xx_6xx/usci_b_i2c.c",line 37,column 5,is_stm
    3015 000014 431E          MOV.W     #1,r14                ; [] |37| 
MSP430 Assembler PC v21.6.1 Tue Dec 20 13:45:55 2022

Copyright (c) 2003-2018 Texas Instruments Incorporated
usci_b_i2c.asm                                                       PAGE   58

    3016 000016 5F6E          ADD.B     @r15,r14              ; [] |37| 
    3017 000018 4ECA          MOV.B     r14,0(r10)            ; [] |37| 
         00001a 0000 
    3018                    .dwpsn  file "../MP430DriverLib/driverlib/MSP430F5xx_6xx/usci_b_i2c.c",line 45,column 5,is_stm
    3019 00001c 4F1C          MOV.W     2(r15),r12            ; [] |45| 
         00001e 0002 
    3020 000020 4F1D          MOV.W     4(r15),r13            ; [] |45| 
         000022 0004 
    3021 000024 4F1E          MOV.W     6(r15),r14            ; [] |45| 
         000026 0006 
    3022 000028 4F1F          MOV.W     8(r15),r15            ; [] |45| 
         00002a 0008 
    3023            $C$DW$166       .dwtag  DW_TAG_TI_branch
    3024                    .dwattr $C$DW$166, DW_AT_low_pc(0x00)
    3025                    .dwattr $C$DW$166, DW_AT_name("__mspabi_divul")
    3026                    .dwattr $C$DW$166, DW_AT_TI_call
    3027            
    3028 00002c 13B0!         CALLA     #__mspabi_divul       ; [] |45| 
         00002e 0000 
    3029                                                      ; [] |45| 
    3030                    .dwpsn  file "../MP430DriverLib/driverlib/MSP430F5xx_6xx/usci_b_i2c.c",line 46,column 5,is_stm
    3031 000030 503A          ADD.W     #6,r10                ; [] |46| 
         000032 0006 
    3032 000034 4C8A          MOV.W     r12,0(r10)            ; [] |46| 
         000036 0000 
    3033                    .dwpsn  file "../MP430DriverLib/driverlib/MSP430F5xx_6xx/usci_b_i2c.c",line 47,column 1,is_stm
    3034 000038 160A          POPM.A    #1,r10                ; [] 
    3035                    .dwcfi  restore_reg, 10
    3036                    .dwcfi  cfa_offset, 4
    3037            $C$DW$167       .dwtag  DW_TAG_TI_branch
    3038                    .dwattr $C$DW$167, DW_AT_low_pc(0x00)
    3039                    .dwattr $C$DW$167, DW_AT_TI_return
    3040            
    3041 00003a 0110          RETA      ; [] 
    3042                    ; [] 
    3043                    .dwattr $C$DW$160, DW_AT_TI_end_file("../MP430DriverLib/driverlib/MSP430F5xx_6xx/usci_b_i2c.c"
    3044                    .dwattr $C$DW$160, DW_AT_TI_end_line(0x2f)
    3045                    .dwattr $C$DW$160, DW_AT_TI_end_column(0x01)
    3046                    .dwendentry
    3047                    .dwendtag $C$DW$160
    3048            
    3049 000000               .sect   ".text:USCI_B_I2C_getTransmitBufferAddressForDMA"
    3050                    .clink
    3051                    .global USCI_B_I2C_getTransmitBufferAddressForDMA
    3052            
    3053            $C$DW$168       .dwtag  DW_TAG_subprogram
    3054                    .dwattr $C$DW$168, DW_AT_name("USCI_B_I2C_getTransmitBufferAddressForDMA")
    3055                    .dwattr $C$DW$168, DW_AT_low_pc(USCI_B_I2C_getTransmitBufferAddressForDMA)
    3056                    .dwattr $C$DW$168, DW_AT_high_pc(0x00)
    3057                    .dwattr $C$DW$168, DW_AT_TI_symbol_name("USCI_B_I2C_getTransmitBufferAddressForDMA")
    3058                    .dwattr $C$DW$168, DW_AT_external
    3059                    .dwattr $C$DW$168, DW_AT_type(*$C$DW$T$25)
    3060                    .dwattr $C$DW$168, DW_AT_TI_begin_file("../MP430DriverLib/driverlib/MSP430F5xx_6xx/usci_b_i2c.
    3061                    .dwattr $C$DW$168, DW_AT_TI_begin_line(0x244)
    3062                    .dwattr $C$DW$168, DW_AT_TI_begin_column(0x0a)
MSP430 Assembler PC v21.6.1 Tue Dec 20 13:45:55 2022

Copyright (c) 2003-2018 Texas Instruments Incorporated
usci_b_i2c.asm                                                       PAGE   59

    3063                    .dwattr $C$DW$168, DW_AT_decl_file("../MP430DriverLib/driverlib/MSP430F5xx_6xx/usci_b_i2c.c")
    3064                    .dwattr $C$DW$168, DW_AT_decl_line(0x244)
    3065                    .dwattr $C$DW$168, DW_AT_decl_column(0x0a)
    3066                    .dwattr $C$DW$168, DW_AT_TI_max_frame_size(0x04)
    3067                    .dwpsn  file "../MP430DriverLib/driverlib/MSP430F5xx_6xx/usci_b_i2c.c",line 581,column 1,is_st
    3068            
    3069                    .dwfde $C$DW$CIE, USCI_B_I2C_getTransmitBufferAddressForDMA
    3070            $C$DW$169       .dwtag  DW_TAG_formal_parameter
    3071                    .dwattr $C$DW$169, DW_AT_name("baseAddress")
    3072                    .dwattr $C$DW$169, DW_AT_TI_symbol_name("baseAddress")
    3073                    .dwattr $C$DW$169, DW_AT_type(*$C$DW$T$32)
    3074                    .dwattr $C$DW$169, DW_AT_location[DW_OP_reg12]
    3075            
    3076            
    3077            ;*****************************************************************************
    3078            ;* FUNCTION NAME: USCI_B_I2C_getTransmitBufferAddressForDMA                  *
    3079            ;*                                                                           *
    3080            ;*   Regs Modified     : SP,SR,r12,r13                                       *
    3081            ;*   Regs Used         : SP,SR,r12,r13                                       *
    3082            ;*   Local Frame Size  : 0 Args + 0 Auto + 0 Save = 0 byte                   *
    3083            ;*****************************************************************************
    3084 000000       USCI_B_I2C_getTransmitBufferAddressForDMA:
    3085            ;* --------------------------------------------------------------------------*
    3086                    .dwcfi  cfa_offset, 4
    3087                    .dwcfi  save_reg_to_mem, 16, -4
    3088                    .dwpsn  file "../MP430DriverLib/driverlib/MSP430F5xx_6xx/usci_b_i2c.c",line 582,column 5,is_st
    3089 000000 503C          ADD.W     #14,r12               ; [] |582| 
         000002 000E 
    3090 000004 430D          MOV.W     #0,r13                ; [] |582| 
    3091                    .dwpsn  file "../MP430DriverLib/driverlib/MSP430F5xx_6xx/usci_b_i2c.c",line 583,column 1,is_st
    3092            $C$DW$170       .dwtag  DW_TAG_TI_branch
    3093                    .dwattr $C$DW$170, DW_AT_low_pc(0x00)
    3094                    .dwattr $C$DW$170, DW_AT_TI_return
    3095            
    3096 000006 0110          RETA      ; [] 
    3097                    ; [] 
    3098                    .dwattr $C$DW$168, DW_AT_TI_end_file("../MP430DriverLib/driverlib/MSP430F5xx_6xx/usci_b_i2c.c"
    3099                    .dwattr $C$DW$168, DW_AT_TI_end_line(0x247)
    3100                    .dwattr $C$DW$168, DW_AT_TI_end_column(0x01)
    3101                    .dwendentry
    3102                    .dwendtag $C$DW$168
    3103            
    3104 000000               .sect   ".text:USCI_B_I2C_getReceiveBufferAddressForDMA"
    3105                    .clink
    3106                    .global USCI_B_I2C_getReceiveBufferAddressForDMA
    3107            
    3108            $C$DW$171       .dwtag  DW_TAG_subprogram
    3109                    .dwattr $C$DW$171, DW_AT_name("USCI_B_I2C_getReceiveBufferAddressForDMA")
    3110                    .dwattr $C$DW$171, DW_AT_low_pc(USCI_B_I2C_getReceiveBufferAddressForDMA)
    3111                    .dwattr $C$DW$171, DW_AT_high_pc(0x00)
    3112                    .dwattr $C$DW$171, DW_AT_TI_symbol_name("USCI_B_I2C_getReceiveBufferAddressForDMA")
    3113                    .dwattr $C$DW$171, DW_AT_external
    3114                    .dwattr $C$DW$171, DW_AT_type(*$C$DW$T$25)
    3115                    .dwattr $C$DW$171, DW_AT_TI_begin_file("../MP430DriverLib/driverlib/MSP430F5xx_6xx/usci_b_i2c.
    3116                    .dwattr $C$DW$171, DW_AT_TI_begin_line(0x23f)
MSP430 Assembler PC v21.6.1 Tue Dec 20 13:45:55 2022

Copyright (c) 2003-2018 Texas Instruments Incorporated
usci_b_i2c.asm                                                       PAGE   60

    3117                    .dwattr $C$DW$171, DW_AT_TI_begin_column(0x0a)
    3118                    .dwattr $C$DW$171, DW_AT_decl_file("../MP430DriverLib/driverlib/MSP430F5xx_6xx/usci_b_i2c.c")
    3119                    .dwattr $C$DW$171, DW_AT_decl_line(0x23f)
    3120                    .dwattr $C$DW$171, DW_AT_decl_column(0x0a)
    3121                    .dwattr $C$DW$171, DW_AT_TI_max_frame_size(0x04)
    3122                    .dwpsn  file "../MP430DriverLib/driverlib/MSP430F5xx_6xx/usci_b_i2c.c",line 576,column 1,is_st
    3123            
    3124                    .dwfde $C$DW$CIE, USCI_B_I2C_getReceiveBufferAddressForDMA
    3125            $C$DW$172       .dwtag  DW_TAG_formal_parameter
    3126                    .dwattr $C$DW$172, DW_AT_name("baseAddress")
    3127                    .dwattr $C$DW$172, DW_AT_TI_symbol_name("baseAddress")
    3128                    .dwattr $C$DW$172, DW_AT_type(*$C$DW$T$32)
    3129                    .dwattr $C$DW$172, DW_AT_location[DW_OP_reg12]
    3130            
    3131            
    3132            ;*****************************************************************************
    3133            ;* FUNCTION NAME: USCI_B_I2C_getReceiveBufferAddressForDMA                   *
    3134            ;*                                                                           *
    3135            ;*   Regs Modified     : SP,SR,r12,r13                                       *
    3136            ;*   Regs Used         : SP,SR,r12,r13                                       *
    3137            ;*   Local Frame Size  : 0 Args + 0 Auto + 0 Save = 0 byte                   *
    3138            ;*****************************************************************************
    3139 000000       USCI_B_I2C_getReceiveBufferAddressForDMA:
    3140            ;* --------------------------------------------------------------------------*
    3141                    .dwcfi  cfa_offset, 4
    3142                    .dwcfi  save_reg_to_mem, 16, -4
    3143                    .dwpsn  file "../MP430DriverLib/driverlib/MSP430F5xx_6xx/usci_b_i2c.c",line 577,column 5,is_st
    3144 000000 503C          ADD.W     #12,r12               ; [] |577| 
         000002 000C 
    3145 000004 430D          MOV.W     #0,r13                ; [] |577| 
    3146                    .dwpsn  file "../MP430DriverLib/driverlib/MSP430F5xx_6xx/usci_b_i2c.c",line 578,column 1,is_st
    3147            $C$DW$173       .dwtag  DW_TAG_TI_branch
    3148                    .dwattr $C$DW$173, DW_AT_low_pc(0x00)
    3149                    .dwattr $C$DW$173, DW_AT_TI_return
    3150            
    3151 000006 0110          RETA      ; [] 
    3152                    ; [] 
    3153                    .dwattr $C$DW$171, DW_AT_TI_end_file("../MP430DriverLib/driverlib/MSP430F5xx_6xx/usci_b_i2c.c"
    3154                    .dwattr $C$DW$171, DW_AT_TI_end_line(0x242)
    3155                    .dwattr $C$DW$171, DW_AT_TI_end_column(0x01)
    3156                    .dwendentry
    3157                    .dwendtag $C$DW$171
    3158            
    3159 000000               .sect   ".text:USCI_B_I2C_getInterruptStatus"
    3160                    .clink
    3161                    .global USCI_B_I2C_getInterruptStatus
    3162            
    3163            $C$DW$174       .dwtag  DW_TAG_subprogram
    3164                    .dwattr $C$DW$174, DW_AT_name("USCI_B_I2C_getInterruptStatus")
    3165                    .dwattr $C$DW$174, DW_AT_low_pc(USCI_B_I2C_getInterruptStatus)
    3166                    .dwattr $C$DW$174, DW_AT_high_pc(0x00)
    3167                    .dwattr $C$DW$174, DW_AT_TI_symbol_name("USCI_B_I2C_getInterruptStatus")
    3168                    .dwattr $C$DW$174, DW_AT_external
    3169                    .dwattr $C$DW$174, DW_AT_type(*$C$DW$T$23)
    3170                    .dwattr $C$DW$174, DW_AT_TI_begin_file("../MP430DriverLib/driverlib/MSP430F5xx_6xx/usci_b_i2c.
MSP430 Assembler PC v21.6.1 Tue Dec 20 13:45:55 2022

Copyright (c) 2003-2018 Texas Instruments Incorporated
usci_b_i2c.asm                                                       PAGE   61

    3171                    .dwattr $C$DW$174, DW_AT_TI_begin_line(0xa4)
    3172                    .dwattr $C$DW$174, DW_AT_TI_begin_column(0x09)
    3173                    .dwattr $C$DW$174, DW_AT_decl_file("../MP430DriverLib/driverlib/MSP430F5xx_6xx/usci_b_i2c.c")
    3174                    .dwattr $C$DW$174, DW_AT_decl_line(0xa4)
    3175                    .dwattr $C$DW$174, DW_AT_decl_column(0x09)
    3176                    .dwattr $C$DW$174, DW_AT_TI_max_frame_size(0x04)
    3177                    .dwpsn  file "../MP430DriverLib/driverlib/MSP430F5xx_6xx/usci_b_i2c.c",line 167,column 1,is_st
    3178            
    3179                    .dwfde $C$DW$CIE, USCI_B_I2C_getInterruptStatus
    3180            $C$DW$175       .dwtag  DW_TAG_formal_parameter
    3181                    .dwattr $C$DW$175, DW_AT_name("baseAddress")
    3182                    .dwattr $C$DW$175, DW_AT_TI_symbol_name("baseAddress")
    3183                    .dwattr $C$DW$175, DW_AT_type(*$C$DW$T$32)
    3184                    .dwattr $C$DW$175, DW_AT_location[DW_OP_reg12]
    3185            
    3186            $C$DW$176       .dwtag  DW_TAG_formal_parameter
    3187                    .dwattr $C$DW$176, DW_AT_name("mask")
    3188                    .dwattr $C$DW$176, DW_AT_TI_symbol_name("mask")
    3189                    .dwattr $C$DW$176, DW_AT_type(*$C$DW$T$23)
    3190                    .dwattr $C$DW$176, DW_AT_location[DW_OP_reg13]
    3191            
    3192            
    3193            ;*****************************************************************************
    3194            ;* FUNCTION NAME: USCI_B_I2C_getInterruptStatus                              *
    3195            ;*                                                                           *
    3196            ;*   Regs Modified     : SP,SR,r12                                           *
    3197            ;*   Regs Used         : SP,SR,r12,r13                                       *
    3198            ;*   Local Frame Size  : 0 Args + 0 Auto + 0 Save = 0 byte                   *
    3199            ;*****************************************************************************
    3200 000000       USCI_B_I2C_getInterruptStatus:
    3201            ;* --------------------------------------------------------------------------*
    3202                    .dwcfi  cfa_offset, 4
    3203                    .dwcfi  save_reg_to_mem, 16, -4
    3204            ;* r13   assigned to mask
    3205            $C$DW$177       .dwtag  DW_TAG_variable
    3206                    .dwattr $C$DW$177, DW_AT_name("mask")
    3207                    .dwattr $C$DW$177, DW_AT_TI_symbol_name("mask")
    3208                    .dwattr $C$DW$177, DW_AT_type(*$C$DW$T$23)
    3209                    .dwattr $C$DW$177, DW_AT_location[DW_OP_reg13]
    3210            
    3211                    .dwpsn  file "../MP430DriverLib/driverlib/MSP430F5xx_6xx/usci_b_i2c.c",line 169,column 5,is_st
    3212 000000 503C          ADD.W     #29,r12               ; [] |169| 
         000002 001D 
    3213 000004 4C6C          MOV.B     @r12,r12              ; [] |169| 
    3214 000006 FD4C          AND.B     r13,r12               ; [] |169| 
    3215                    .dwpsn  file "../MP430DriverLib/driverlib/MSP430F5xx_6xx/usci_b_i2c.c",line 170,column 1,is_st
    3216            $C$DW$178       .dwtag  DW_TAG_TI_branch
    3217                    .dwattr $C$DW$178, DW_AT_low_pc(0x00)
    3218                    .dwattr $C$DW$178, DW_AT_TI_return
    3219            
    3220 000008 0110          RETA      ; [] 
    3221                    ; [] 
    3222                    .dwattr $C$DW$174, DW_AT_TI_end_file("../MP430DriverLib/driverlib/MSP430F5xx_6xx/usci_b_i2c.c"
    3223                    .dwattr $C$DW$174, DW_AT_TI_end_line(0xaa)
    3224                    .dwattr $C$DW$174, DW_AT_TI_end_column(0x01)
MSP430 Assembler PC v21.6.1 Tue Dec 20 13:45:55 2022

Copyright (c) 2003-2018 Texas Instruments Incorporated
usci_b_i2c.asm                                                       PAGE   62

    3225                    .dwendentry
    3226                    .dwendtag $C$DW$174
    3227            
    3228 000000               .sect   ".text:USCI_B_I2C_enableInterrupt"
    3229                    .clink
    3230                    .global USCI_B_I2C_enableInterrupt
    3231            
    3232            $C$DW$179       .dwtag  DW_TAG_subprogram
    3233                    .dwattr $C$DW$179, DW_AT_name("USCI_B_I2C_enableInterrupt")
    3234                    .dwattr $C$DW$179, DW_AT_low_pc(USCI_B_I2C_enableInterrupt)
    3235                    .dwattr $C$DW$179, DW_AT_high_pc(0x00)
    3236                    .dwattr $C$DW$179, DW_AT_TI_symbol_name("USCI_B_I2C_enableInterrupt")
    3237                    .dwattr $C$DW$179, DW_AT_external
    3238                    .dwattr $C$DW$179, DW_AT_TI_begin_file("../MP430DriverLib/driverlib/MSP430F5xx_6xx/usci_b_i2c.
    3239                    .dwattr $C$DW$179, DW_AT_TI_begin_line(0x8c)
    3240                    .dwattr $C$DW$179, DW_AT_TI_begin_column(0x06)
    3241                    .dwattr $C$DW$179, DW_AT_decl_file("../MP430DriverLib/driverlib/MSP430F5xx_6xx/usci_b_i2c.c")
    3242                    .dwattr $C$DW$179, DW_AT_decl_line(0x8c)
    3243                    .dwattr $C$DW$179, DW_AT_decl_column(0x06)
    3244                    .dwattr $C$DW$179, DW_AT_TI_max_frame_size(0x04)
    3245                    .dwpsn  file "../MP430DriverLib/driverlib/MSP430F5xx_6xx/usci_b_i2c.c",line 143,column 1,is_st
    3246            
    3247                    .dwfde $C$DW$CIE, USCI_B_I2C_enableInterrupt
    3248            $C$DW$180       .dwtag  DW_TAG_formal_parameter
    3249                    .dwattr $C$DW$180, DW_AT_name("baseAddress")
    3250                    .dwattr $C$DW$180, DW_AT_TI_symbol_name("baseAddress")
    3251                    .dwattr $C$DW$180, DW_AT_type(*$C$DW$T$32)
    3252                    .dwattr $C$DW$180, DW_AT_location[DW_OP_reg12]
    3253            
    3254            $C$DW$181       .dwtag  DW_TAG_formal_parameter
    3255                    .dwattr $C$DW$181, DW_AT_name("mask")
    3256                    .dwattr $C$DW$181, DW_AT_TI_symbol_name("mask")
    3257                    .dwattr $C$DW$181, DW_AT_type(*$C$DW$T$23)
    3258                    .dwattr $C$DW$181, DW_AT_location[DW_OP_reg13]
    3259            
    3260            
    3261            ;*****************************************************************************
    3262            ;* FUNCTION NAME: USCI_B_I2C_enableInterrupt                                 *
