MSP430 Assembler PC v21.6.1 Tue Dec 20 13:45:55 2022

Copyright (c) 2003-2018 Texas Instruments Incorporated
usci_b_spi.asm                                                       PAGE    1

       1            ;******************************************************************************
       2            ;* MSP430 G3 C/C++ Codegen                                              PC v21.6.1.LTS *
       3            ;* Date/Time created: Tue Dec 20 13:45:55 2022                                *
       4            ;******************************************************************************
       5                    .compiler_opts --abi=eabi --diag_wrap=off --hll_source=on --mem_model:code=large --mem_model:d
       6            
       7            $C$DW$CU        .dwtag  DW_TAG_compile_unit
       8                    .dwattr $C$DW$CU, DW_AT_name("../MP430DriverLib/driverlib/MSP430F5xx_6xx/usci_b_spi.c")
       9                    .dwattr $C$DW$CU, DW_AT_producer("TI MSP430 G3 C/C++ Codegen PC v21.6.1.LTS Copyright (c) 2003
      10                    .dwattr $C$DW$CU, DW_AT_TI_version(0x01)
      11                    .dwattr $C$DW$CU, DW_AT_comp_dir("C:\Users\MCourson\workspace_v11\MZERO_HB50Board\Debug")
      12            ;       C:\ti\ccs1110\ccs\tools\compiler\ti-cgt-msp430_21.6.1.LTS\bin\opt430.exe C:\\Users\\MCourson\\
      13 000000               .sect   ".text:USCI_B_SPI_transmitData"
      14                    .clink
      15                    .global USCI_B_SPI_transmitData
      16            
      17            $C$DW$1 .dwtag  DW_TAG_subprogram
      18                    .dwattr $C$DW$1, DW_AT_name("USCI_B_SPI_transmitData")
      19                    .dwattr $C$DW$1, DW_AT_low_pc(USCI_B_SPI_transmitData)
      20                    .dwattr $C$DW$1, DW_AT_high_pc(0x00)
      21                    .dwattr $C$DW$1, DW_AT_TI_symbol_name("USCI_B_SPI_transmitData")
      22                    .dwattr $C$DW$1, DW_AT_external
      23                    .dwattr $C$DW$1, DW_AT_TI_begin_file("../MP430DriverLib/driverlib/MSP430F5xx_6xx/usci_b_spi.c"
      24                    .dwattr $C$DW$1, DW_AT_TI_begin_line(0x74)
      25                    .dwattr $C$DW$1, DW_AT_TI_begin_column(0x06)
      26                    .dwattr $C$DW$1, DW_AT_decl_file("../MP430DriverLib/driverlib/MSP430F5xx_6xx/usci_b_spi.c")
      27                    .dwattr $C$DW$1, DW_AT_decl_line(0x74)
      28                    .dwattr $C$DW$1, DW_AT_decl_column(0x06)
      29                    .dwattr $C$DW$1, DW_AT_TI_max_frame_size(0x04)
      30                    .dwpsn  file "../MP430DriverLib/driverlib/MSP430F5xx_6xx/usci_b_spi.c",line 119,column 1,is_st
      31            
      32                    .dwfde $C$DW$CIE, USCI_B_SPI_transmitData
      33            $C$DW$2 .dwtag  DW_TAG_formal_parameter
      34                    .dwattr $C$DW$2, DW_AT_name("baseAddress")
      35                    .dwattr $C$DW$2, DW_AT_TI_symbol_name("baseAddress")
      36                    .dwattr $C$DW$2, DW_AT_type(*$C$DW$T$36)
      37                    .dwattr $C$DW$2, DW_AT_location[DW_OP_reg12]
      38            
      39            $C$DW$3 .dwtag  DW_TAG_formal_parameter
      40                    .dwattr $C$DW$3, DW_AT_name("transmitData")
      41                    .dwattr $C$DW$3, DW_AT_TI_symbol_name("transmitData")
      42                    .dwattr $C$DW$3, DW_AT_type(*$C$DW$T$26)
      43                    .dwattr $C$DW$3, DW_AT_location[DW_OP_reg13]
      44            
      45            
      46            ;*****************************************************************************
      47            ;* FUNCTION NAME: USCI_B_SPI_transmitData                                    *
      48            ;*                                                                           *
      49            ;*   Regs Modified     : SP,SR,r12                                           *
      50            ;*   Regs Used         : SP,SR,r12,r13                                       *
      51            ;*   Local Frame Size  : 0 Args + 0 Auto + 0 Save = 0 byte                   *
      52            ;*****************************************************************************
      53 000000       USCI_B_SPI_transmitData:
      54            ;* --------------------------------------------------------------------------*
      55                    .dwcfi  cfa_offset, 4
MSP430 Assembler PC v21.6.1 Tue Dec 20 13:45:55 2022

Copyright (c) 2003-2018 Texas Instruments Incorporated
usci_b_spi.asm                                                       PAGE    2

      56                    .dwcfi  save_reg_to_mem, 16, -4
      57            ;* r13   assigned to transmitData
      58            $C$DW$4 .dwtag  DW_TAG_variable
      59                    .dwattr $C$DW$4, DW_AT_name("transmitData")
      60                    .dwattr $C$DW$4, DW_AT_TI_symbol_name("transmitData")
      61                    .dwattr $C$DW$4, DW_AT_type(*$C$DW$T$26)
      62                    .dwattr $C$DW$4, DW_AT_location[DW_OP_reg13]
      63            
      64                    .dwpsn  file "../MP430DriverLib/driverlib/MSP430F5xx_6xx/usci_b_spi.c",line 120,column 5,is_st
      65 000000 503C          ADD.W     #14,r12               ; [] |120| 
         000002 000E 
      66 000004 4DCC          MOV.B     r13,0(r12)            ; [] |120| 
         000006 0000 
      67                    .dwpsn  file "../MP430DriverLib/driverlib/MSP430F5xx_6xx/usci_b_spi.c",line 121,column 1,is_st
      68            $C$DW$5 .dwtag  DW_TAG_TI_branch
      69                    .dwattr $C$DW$5, DW_AT_low_pc(0x00)
      70                    .dwattr $C$DW$5, DW_AT_TI_return
      71            
      72 000008 0110          RETA      ; [] 
      73                    ; [] 
      74                    .dwattr $C$DW$1, DW_AT_TI_end_file("../MP430DriverLib/driverlib/MSP430F5xx_6xx/usci_b_spi.c")
      75                    .dwattr $C$DW$1, DW_AT_TI_end_line(0x79)
      76                    .dwattr $C$DW$1, DW_AT_TI_end_column(0x01)
      77                    .dwendentry
      78                    .dwendtag $C$DW$1
      79            
      80 000000               .sect   ".text:USCI_B_SPI_receiveData"
      81                    .clink
      82                    .global USCI_B_SPI_receiveData
      83            
      84            $C$DW$6 .dwtag  DW_TAG_subprogram
      85                    .dwattr $C$DW$6, DW_AT_name("USCI_B_SPI_receiveData")
      86                    .dwattr $C$DW$6, DW_AT_low_pc(USCI_B_SPI_receiveData)
      87                    .dwattr $C$DW$6, DW_AT_high_pc(0x00)
      88                    .dwattr $C$DW$6, DW_AT_TI_symbol_name("USCI_B_SPI_receiveData")
      89                    .dwattr $C$DW$6, DW_AT_external
      90                    .dwattr $C$DW$6, DW_AT_type(*$C$DW$T$26)
      91                    .dwattr $C$DW$6, DW_AT_TI_begin_file("../MP430DriverLib/driverlib/MSP430F5xx_6xx/usci_b_spi.c"
      92                    .dwattr $C$DW$6, DW_AT_TI_begin_line(0x7b)
      93                    .dwattr $C$DW$6, DW_AT_TI_begin_column(0x09)
      94                    .dwattr $C$DW$6, DW_AT_decl_file("../MP430DriverLib/driverlib/MSP430F5xx_6xx/usci_b_spi.c")
      95                    .dwattr $C$DW$6, DW_AT_decl_line(0x7b)
      96                    .dwattr $C$DW$6, DW_AT_decl_column(0x09)
      97                    .dwattr $C$DW$6, DW_AT_TI_max_frame_size(0x04)
      98                    .dwpsn  file "../MP430DriverLib/driverlib/MSP430F5xx_6xx/usci_b_spi.c",line 124,column 1,is_st
      99            
     100                    .dwfde $C$DW$CIE, USCI_B_SPI_receiveData
     101            $C$DW$7 .dwtag  DW_TAG_formal_parameter
     102                    .dwattr $C$DW$7, DW_AT_name("baseAddress")
     103                    .dwattr $C$DW$7, DW_AT_TI_symbol_name("baseAddress")
     104                    .dwattr $C$DW$7, DW_AT_type(*$C$DW$T$36)
     105                    .dwattr $C$DW$7, DW_AT_location[DW_OP_reg12]
     106            
     107            
     108            ;*****************************************************************************
MSP430 Assembler PC v21.6.1 Tue Dec 20 13:45:55 2022

Copyright (c) 2003-2018 Texas Instruments Incorporated
usci_b_spi.asm                                                       PAGE    3

     109            ;* FUNCTION NAME: USCI_B_SPI_receiveData                                     *
     110            ;*                                                                           *
     111            ;*   Regs Modified     : SP,SR,r12                                           *
     112            ;*   Regs Used         : SP,SR,r12                                           *
     113            ;*   Local Frame Size  : 0 Args + 0 Auto + 0 Save = 0 byte                   *
     114            ;*****************************************************************************
     115 000000       USCI_B_SPI_receiveData:
     116            ;* --------------------------------------------------------------------------*
     117                    .dwcfi  cfa_offset, 4
     118                    .dwcfi  save_reg_to_mem, 16, -4
     119                    .dwpsn  file "../MP430DriverLib/driverlib/MSP430F5xx_6xx/usci_b_spi.c",line 125,column 5,is_st
     120 000000 503C          ADD.W     #12,r12               ; [] |125| 
         000002 000C 
     121 000004 4C6C          MOV.B     @r12,r12              ; [] |125| 
     122                    .dwpsn  file "../MP430DriverLib/driverlib/MSP430F5xx_6xx/usci_b_spi.c",line 126,column 1,is_st
     123            $C$DW$8 .dwtag  DW_TAG_TI_branch
     124                    .dwattr $C$DW$8, DW_AT_low_pc(0x00)
     125                    .dwattr $C$DW$8, DW_AT_TI_return
     126            
     127 000006 0110          RETA      ; [] 
     128                    ; [] 
     129                    .dwattr $C$DW$6, DW_AT_TI_end_file("../MP430DriverLib/driverlib/MSP430F5xx_6xx/usci_b_spi.c")
     130                    .dwattr $C$DW$6, DW_AT_TI_end_line(0x7e)
     131                    .dwattr $C$DW$6, DW_AT_TI_end_column(0x01)
     132                    .dwendentry
     133                    .dwendtag $C$DW$6
     134            
     135 000000               .sect   ".text:USCI_B_SPI_isBusy"
     136                    .clink
     137                    .global USCI_B_SPI_isBusy
     138            
     139            $C$DW$9 .dwtag  DW_TAG_subprogram
     140                    .dwattr $C$DW$9, DW_AT_name("USCI_B_SPI_isBusy")
     141                    .dwattr $C$DW$9, DW_AT_low_pc(USCI_B_SPI_isBusy)
     142                    .dwattr $C$DW$9, DW_AT_high_pc(0x00)
     143                    .dwattr $C$DW$9, DW_AT_TI_symbol_name("USCI_B_SPI_isBusy")
     144                    .dwattr $C$DW$9, DW_AT_external
     145                    .dwattr $C$DW$9, DW_AT_type(*$C$DW$T$26)
     146                    .dwattr $C$DW$9, DW_AT_TI_begin_file("../MP430DriverLib/driverlib/MSP430F5xx_6xx/usci_b_spi.c"
     147                    .dwattr $C$DW$9, DW_AT_TI_begin_line(0xb2)
     148                    .dwattr $C$DW$9, DW_AT_TI_begin_column(0x09)
     149                    .dwattr $C$DW$9, DW_AT_decl_file("../MP430DriverLib/driverlib/MSP430F5xx_6xx/usci_b_spi.c")
     150                    .dwattr $C$DW$9, DW_AT_decl_line(0xb2)
     151                    .dwattr $C$DW$9, DW_AT_decl_column(0x09)
     152                    .dwattr $C$DW$9, DW_AT_TI_max_frame_size(0x04)
     153                    .dwpsn  file "../MP430DriverLib/driverlib/MSP430F5xx_6xx/usci_b_spi.c",line 179,column 1,is_st
     154            
     155                    .dwfde $C$DW$CIE, USCI_B_SPI_isBusy
     156            $C$DW$10        .dwtag  DW_TAG_formal_parameter
     157                    .dwattr $C$DW$10, DW_AT_name("baseAddress")
     158                    .dwattr $C$DW$10, DW_AT_TI_symbol_name("baseAddress")
     159                    .dwattr $C$DW$10, DW_AT_type(*$C$DW$T$36)
     160                    .dwattr $C$DW$10, DW_AT_location[DW_OP_reg12]
     161            
     162            
MSP430 Assembler PC v21.6.1 Tue Dec 20 13:45:55 2022

Copyright (c) 2003-2018 Texas Instruments Incorporated
usci_b_spi.asm                                                       PAGE    4

     163            ;*****************************************************************************
     164            ;* FUNCTION NAME: USCI_B_SPI_isBusy                                          *
     165            ;*                                                                           *
     166            ;*   Regs Modified     : SP,SR,r12,r15                                       *
     167            ;*   Regs Used         : SP,SR,r12,r15                                       *
     168            ;*   Local Frame Size  : 0 Args + 0 Auto + 0 Save = 0 byte                   *
     169            ;*****************************************************************************
     170 000000       USCI_B_SPI_isBusy:
     171            ;* --------------------------------------------------------------------------*
     172                    .dwcfi  cfa_offset, 4
     173                    .dwcfi  save_reg_to_mem, 16, -4
     174                    .dwpsn  file "../MP430DriverLib/driverlib/MSP430F5xx_6xx/usci_b_spi.c",line 181,column 5,is_st
     175 000000 503C          ADD.W     #10,r12               ; [] |181| 
         000002 000A 
     176 000004 431F          MOV.W     #1,r15                ; [] |181| 
     177 000006 FC6F          AND.B     @r12,r15              ; [] |181| 
     178 000008 0FCC          MOVA      r15,r12               ; [] |181| 
     179                    .dwpsn  file "../MP430DriverLib/driverlib/MSP430F5xx_6xx/usci_b_spi.c",line 182,column 1,is_st
     180            $C$DW$11        .dwtag  DW_TAG_TI_branch
     181                    .dwattr $C$DW$11, DW_AT_low_pc(0x00)
     182                    .dwattr $C$DW$11, DW_AT_TI_return
     183            
     184 00000a 0110          RETA      ; [] 
     185                    ; [] 
     186                    .dwattr $C$DW$9, DW_AT_TI_end_file("../MP430DriverLib/driverlib/MSP430F5xx_6xx/usci_b_spi.c")
     187                    .dwattr $C$DW$9, DW_AT_TI_end_line(0xb6)
     188                    .dwattr $C$DW$9, DW_AT_TI_end_column(0x01)
     189                    .dwendentry
     190                    .dwendtag $C$DW$9
     191            
     192 000000               .sect   ".text:USCI_B_SPI_initSlave"
     193                    .clink
     194                    .global USCI_B_SPI_initSlave
     195            
     196            $C$DW$12        .dwtag  DW_TAG_subprogram
     197                    .dwattr $C$DW$12, DW_AT_name("USCI_B_SPI_initSlave")
     198                    .dwattr $C$DW$12, DW_AT_low_pc(USCI_B_SPI_initSlave)
     199                    .dwattr $C$DW$12, DW_AT_high_pc(0x00)
     200                    .dwattr $C$DW$12, DW_AT_TI_symbol_name("USCI_B_SPI_initSlave")
     201                    .dwattr $C$DW$12, DW_AT_external
     202                    .dwattr $C$DW$12, DW_AT_type(*$C$DW$T$161)
     203                    .dwattr $C$DW$12, DW_AT_TI_begin_file("../MP430DriverLib/driverlib/MSP430F5xx_6xx/usci_b_spi.c
     204                    .dwattr $C$DW$12, DW_AT_TI_begin_line(0x43)
     205                    .dwattr $C$DW$12, DW_AT_TI_begin_column(0x06)
     206                    .dwattr $C$DW$12, DW_AT_decl_file("../MP430DriverLib/driverlib/MSP430F5xx_6xx/usci_b_spi.c")
     207                    .dwattr $C$DW$12, DW_AT_decl_line(0x43)
     208                    .dwattr $C$DW$12, DW_AT_decl_column(0x06)
     209                    .dwattr $C$DW$12, DW_AT_TI_max_frame_size(0x04)
     210                    .dwpsn  file "../MP430DriverLib/driverlib/MSP430F5xx_6xx/usci_b_spi.c",line 72,column 1,is_stm
     211            
     212                    .dwfde $C$DW$CIE, USCI_B_SPI_initSlave
     213            $C$DW$13        .dwtag  DW_TAG_formal_parameter
     214                    .dwattr $C$DW$13, DW_AT_name("baseAddress")
     215                    .dwattr $C$DW$13, DW_AT_TI_symbol_name("baseAddress")
     216                    .dwattr $C$DW$13, DW_AT_type(*$C$DW$T$36)
MSP430 Assembler PC v21.6.1 Tue Dec 20 13:45:55 2022

Copyright (c) 2003-2018 Texas Instruments Incorporated
usci_b_spi.asm                                                       PAGE    5

     217                    .dwattr $C$DW$13, DW_AT_location[DW_OP_reg12]
     218            
     219            $C$DW$14        .dwtag  DW_TAG_formal_parameter
     220                    .dwattr $C$DW$14, DW_AT_name("msbFirst")
     221                    .dwattr $C$DW$14, DW_AT_TI_symbol_name("msbFirst")
     222                    .dwattr $C$DW$14, DW_AT_type(*$C$DW$T$26)
     223                    .dwattr $C$DW$14, DW_AT_location[DW_OP_reg13]
     224            
     225            $C$DW$15        .dwtag  DW_TAG_formal_parameter
     226                    .dwattr $C$DW$15, DW_AT_name("clockPhase")
     227                    .dwattr $C$DW$15, DW_AT_TI_symbol_name("clockPhase")
     228                    .dwattr $C$DW$15, DW_AT_type(*$C$DW$T$26)
     229                    .dwattr $C$DW$15, DW_AT_location[DW_OP_reg14]
     230            
     231            $C$DW$16        .dwtag  DW_TAG_formal_parameter
     232                    .dwattr $C$DW$16, DW_AT_name("clockPolarity")
     233                    .dwattr $C$DW$16, DW_AT_TI_symbol_name("clockPolarity")
     234                    .dwattr $C$DW$16, DW_AT_type(*$C$DW$T$26)
     235                    .dwattr $C$DW$16, DW_AT_location[DW_OP_reg15]
     236            
     237            
     238            ;*****************************************************************************
     239            ;* FUNCTION NAME: USCI_B_SPI_initSlave                                       *
     240            ;*                                                                           *
     241            ;*   Regs Modified     : SP,SR,r11,r12,r13                                   *
     242            ;*   Regs Used         : SP,SR,r11,r12,r13,r14,r15                           *
     243            ;*   Local Frame Size  : 0 Args + 0 Auto + 0 Save = 0 byte                   *
     244            ;*****************************************************************************
     245 000000       USCI_B_SPI_initSlave:
     246            ;* --------------------------------------------------------------------------*
     247                    .dwcfi  cfa_offset, 4
     248                    .dwcfi  save_reg_to_mem, 16, -4
     249            ;* r12   assigned to baseAddress
     250            $C$DW$17        .dwtag  DW_TAG_variable
     251                    .dwattr $C$DW$17, DW_AT_name("baseAddress")
     252                    .dwattr $C$DW$17, DW_AT_TI_symbol_name("baseAddress")
     253                    .dwattr $C$DW$17, DW_AT_type(*$C$DW$T$36)
     254                    .dwattr $C$DW$17, DW_AT_location[DW_OP_reg12]
     255            
     256            ;* r11   assigned to msbFirst
     257            $C$DW$18        .dwtag  DW_TAG_variable
     258                    .dwattr $C$DW$18, DW_AT_name("msbFirst")
     259                    .dwattr $C$DW$18, DW_AT_TI_symbol_name("msbFirst")
     260                    .dwattr $C$DW$18, DW_AT_type(*$C$DW$T$26)
     261                    .dwattr $C$DW$18, DW_AT_location[DW_OP_reg11]
     262            
     263            ;* r14   assigned to clockPhase
     264            $C$DW$19        .dwtag  DW_TAG_variable
     265                    .dwattr $C$DW$19, DW_AT_name("clockPhase")
     266                    .dwattr $C$DW$19, DW_AT_TI_symbol_name("clockPhase")
     267                    .dwattr $C$DW$19, DW_AT_type(*$C$DW$T$26)
     268                    .dwattr $C$DW$19, DW_AT_location[DW_OP_reg14]
     269            
     270            ;* r15   assigned to clockPolarity
     271            $C$DW$20        .dwtag  DW_TAG_variable
MSP430 Assembler PC v21.6.1 Tue Dec 20 13:45:55 2022

Copyright (c) 2003-2018 Texas Instruments Incorporated
usci_b_spi.asm                                                       PAGE    6

     272                    .dwattr $C$DW$20, DW_AT_name("clockPolarity")
     273                    .dwattr $C$DW$20, DW_AT_TI_symbol_name("clockPolarity")
     274                    .dwattr $C$DW$20, DW_AT_type(*$C$DW$T$26)
     275                    .dwattr $C$DW$20, DW_AT_location[DW_OP_reg15]
     276            
     277 000000 0DCB          MOVA      r13,r11               ; [] |72| 
     278                    .dwpsn  file "../MP430DriverLib/driverlib/MSP430F5xx_6xx/usci_b_spi.c",line 74,column 5,is_stm
     279 000002 D3DC          OR.B      #1,0(r12)             ; [] |74| 
         000004 0000 
     280                    .dwpsn  file "../MP430DriverLib/driverlib/MSP430F5xx_6xx/usci_b_spi.c",line 77,column 5,is_stm
     281 000006 0CCD          MOVA      r12,r13               ; [] |77| 
     282 000008 531D          ADD.W     #1,r13                ; [] |77| 
     283 00000a 4D0D          MOV.W     r13,r13               ; [] |77| 
     284 00000c F3DD          AND.B     #1,0(r13)             ; [] |77| 
         00000e 0000 
     285                    .dwpsn  file "../MP430DriverLib/driverlib/MSP430F5xx_6xx/usci_b_spi.c",line 86,column 5,is_stm
     286 000010 531C          ADD.W     #1,r12                ; [] |86| 
     287 000012 4C0C          MOV.W     r12,r12               ; [] |86| 
     288 000014 0ECD          MOVA      r14,r13               ; [] |86| 
     289 000016 5F4D          ADD.B     r15,r13               ; [] |86| 
     290 000018 5B4D          ADD.B     r11,r13               ; [] |86| 
     291 00001a 535D          ADD.B     #1,r13                ; [] |86| 
     292 00001c DDCC          OR.B      r13,0(r12)            ; [] |86| 
         00001e 0000 
     293                    .dwpsn  file "../MP430DriverLib/driverlib/MSP430F5xx_6xx/usci_b_spi.c",line 93,column 5,is_stm
     294 000020 435C          MOV.B     #1,r12                ; [] |93| 
     295                    .dwpsn  file "../MP430DriverLib/driverlib/MSP430F5xx_6xx/usci_b_spi.c",line 94,column 1,is_stm
     296            $C$DW$21        .dwtag  DW_TAG_TI_branch
     297                    .dwattr $C$DW$21, DW_AT_low_pc(0x00)
     298                    .dwattr $C$DW$21, DW_AT_TI_return
     299            
     300 000022 0110          RETA      ; [] 
     301                    ; [] 
     302                    .dwattr $C$DW$12, DW_AT_TI_end_file("../MP430DriverLib/driverlib/MSP430F5xx_6xx/usci_b_spi.c")
     303                    .dwattr $C$DW$12, DW_AT_TI_end_line(0x5e)
     304                    .dwattr $C$DW$12, DW_AT_TI_end_column(0x01)
     305                    .dwendentry
     306                    .dwendtag $C$DW$12
     307            
     308 000000               .sect   ".text:USCI_B_SPI_initMaster"
     309                    .clink
     310                    .global USCI_B_SPI_initMaster
     311            
     312            $C$DW$22        .dwtag  DW_TAG_subprogram
     313                    .dwattr $C$DW$22, DW_AT_name("USCI_B_SPI_initMaster")
     314                    .dwattr $C$DW$22, DW_AT_low_pc(USCI_B_SPI_initMaster)
     315                    .dwattr $C$DW$22, DW_AT_high_pc(0x00)
     316                    .dwattr $C$DW$22, DW_AT_TI_symbol_name("USCI_B_SPI_initMaster")
     317                    .dwattr $C$DW$22, DW_AT_external
     318                    .dwattr $C$DW$22, DW_AT_type(*$C$DW$T$161)
     319                    .dwattr $C$DW$22, DW_AT_TI_begin_file("../MP430DriverLib/driverlib/MSP430F5xx_6xx/usci_b_spi.c
     320                    .dwattr $C$DW$22, DW_AT_TI_begin_line(0x11)
     321                    .dwattr $C$DW$22, DW_AT_TI_begin_column(0x06)
     322                    .dwattr $C$DW$22, DW_AT_decl_file("../MP430DriverLib/driverlib/MSP430F5xx_6xx/usci_b_spi.c")
     323                    .dwattr $C$DW$22, DW_AT_decl_line(0x11)
MSP430 Assembler PC v21.6.1 Tue Dec 20 13:45:55 2022

Copyright (c) 2003-2018 Texas Instruments Incorporated
usci_b_spi.asm                                                       PAGE    7

     324                    .dwattr $C$DW$22, DW_AT_decl_column(0x06)
     325                    .dwattr $C$DW$22, DW_AT_TI_max_frame_size(0x0c)
     326                    .dwpsn  file "../MP430DriverLib/driverlib/MSP430F5xx_6xx/usci_b_spi.c",line 18,column 1,is_stm
     327            
     328                    .dwfde $C$DW$CIE, USCI_B_SPI_initMaster
     329            $C$DW$23        .dwtag  DW_TAG_formal_parameter
     330                    .dwattr $C$DW$23, DW_AT_name("baseAddress")
     331                    .dwattr $C$DW$23, DW_AT_TI_symbol_name("baseAddress")
     332                    .dwattr $C$DW$23, DW_AT_type(*$C$DW$T$36)
     333                    .dwattr $C$DW$23, DW_AT_location[DW_OP_reg12]
     334            
     335            $C$DW$24        .dwtag  DW_TAG_formal_parameter
     336                    .dwattr $C$DW$24, DW_AT_name("param")
     337                    .dwattr $C$DW$24, DW_AT_TI_symbol_name("param")
     338                    .dwattr $C$DW$24, DW_AT_type(*$C$DW$T$33)
     339                    .dwattr $C$DW$24, DW_AT_location[DW_OP_reg13]
     340            
     341            
     342            ;*****************************************************************************
     343            ;* FUNCTION NAME: USCI_B_SPI_initMaster                                      *
     344            ;*                                                                           *
     345            ;*   Regs Modified     : SP,SR,r9,r10,r11,r12,r13,r14,r15                    *
     346            ;*   Regs Used         : SP,SR,r9,r10,r11,r12,r13,r14,r15                    *
     347            ;*   Local Frame Size  : 0 Args + 0 Auto + 8 Save = 8 byte                   *
     348            ;*****************************************************************************
     349 000000       USCI_B_SPI_initMaster:
     350            ;* --------------------------------------------------------------------------*
     351                    .dwcfi  cfa_offset, 4
     352                    .dwcfi  save_reg_to_mem, 16, -4
     353 000000 141A          PUSHM.A   #2,r10                ; [] 
     354                    .dwcfi  save_reg_to_mem, 10, -8
     355                    .dwcfi  save_reg_to_mem, 9, -12
     356                    .dwcfi  cfa_offset, 12
     357            ;* r10   assigned to baseAddress
     358            $C$DW$25        .dwtag  DW_TAG_variable
     359                    .dwattr $C$DW$25, DW_AT_name("baseAddress")
     360                    .dwattr $C$DW$25, DW_AT_TI_symbol_name("baseAddress")
     361                    .dwattr $C$DW$25, DW_AT_type(*$C$DW$T$36)
     362                    .dwattr $C$DW$25, DW_AT_location[DW_OP_reg10]
     363            
     364            ;* r9    assigned to param
     365            $C$DW$26        .dwtag  DW_TAG_variable
     366                    .dwattr $C$DW$26, DW_AT_name("param")
     367                    .dwattr $C$DW$26, DW_AT_TI_symbol_name("param")
     368                    .dwattr $C$DW$26, DW_AT_type(*$C$DW$T$33)
     369                    .dwattr $C$DW$26, DW_AT_location[DW_OP_reg9]
     370            
     371 000002 0DC9          MOVA      r13,r9                ; [] |18| 
     372 000004 0CCA          MOVA      r12,r10               ; [] |18| 
     373                    .dwpsn  file "../MP430DriverLib/driverlib/MSP430F5xx_6xx/usci_b_spi.c",line 20,column 5,is_stm
     374 000006 D3DA          OR.B      #1,0(r10)             ; [] |20| 
         000008 0000 
     375                    .dwpsn  file "../MP430DriverLib/driverlib/MSP430F5xx_6xx/usci_b_spi.c",line 23,column 5,is_stm
     376 00000a 0ACF          MOVA      r10,r15               ; [] |23| 
     377 00000c 531F          ADD.W     #1,r15                ; [] |23| 
MSP430 Assembler PC v21.6.1 Tue Dec 20 13:45:55 2022

Copyright (c) 2003-2018 Texas Instruments Incorporated
usci_b_spi.asm                                                       PAGE    8

     378 00000e 4F0F          MOV.W     r15,r15               ; [] |23| 
     379 000010 4F6E          MOV.B     @r15,r14              ; [] |23| 
     380 000012 43CF          MOV.B     #0,0(r15)             ; [] |23| 
         000014 0000 
     381                    .dwpsn  file "../MP430DriverLib/driverlib/MSP430F5xx_6xx/usci_b_spi.c",line 27,column 5,is_stm
     382 000016 F0FA          AND.B     #63,0(r10)            ; [] |27| 
         000018 003F 
         00001a 0000 
     383                    .dwpsn  file "../MP430DriverLib/driverlib/MSP430F5xx_6xx/usci_b_spi.c",line 30,column 5,is_stm
     384 00001c D9EA          OR.B      @r9,0(r10)            ; [] |30| 
         00001e 0000 
     385                    .dwpsn  file "../MP430DriverLib/driverlib/MSP430F5xx_6xx/usci_b_spi.c",line 32,column 5,is_stm
     386 000020 491C          MOV.W     2(r9),r12             ; [] |32| 
         000022 0002 
     387 000024 491D          MOV.W     4(r9),r13             ; [] |32| 
         000026 0004 
     388 000028 491E          MOV.W     6(r9),r14             ; [] |32| 
         00002a 0006 
     389 00002c 491F          MOV.W     8(r9),r15             ; [] |32| 
         00002e 0008 
     390            $C$DW$27        .dwtag  DW_TAG_TI_branch
     391                    .dwattr $C$DW$27, DW_AT_low_pc(0x00)
     392                    .dwattr $C$DW$27, DW_AT_name("__mspabi_divul")
     393                    .dwattr $C$DW$27, DW_AT_TI_call
     394            
     395 000030 13B0!         CALLA     #__mspabi_divul       ; [] |32| 
         000032 0000 
     396                                                      ; [] |32| 
     397 000034 0ACF          MOVA      r10,r15               ; [] |32| 
     398 000036 503F          ADD.W     #6,r15                ; [] |32| 
         000038 0006 
     399 00003a 4C8F          MOV.W     r12,0(r15)            ; [] |32| 
         00003c 0000 
     400                    .dwpsn  file "../MP430DriverLib/driverlib/MSP430F5xx_6xx/usci_b_spi.c",line 42,column 5,is_stm
     401 00003e 531A          ADD.W     #1,r10                ; [] |42| 
     402 000040 4A0E          MOV.W     r10,r14               ; [] |42| 
     403 000042 495F          MOV.B     11(r9),r15            ; [] |42| 
         000044 000B 
     404 000046 595F          ADD.B     10(r9),r15            ; [] |42| 
         000048 000A 
     405 00004a 595F          ADD.B     12(r9),r15            ; [] |42| 
         00004c 000C 
     406 00004e 507F          ADD.B     #9,r15                ; [] |42| 
         000050 0009 
     407 000052 DFCE          OR.B      r15,0(r14)            ; [] |42| 
         000054 0000 
     408                    .dwpsn  file "../MP430DriverLib/driverlib/MSP430F5xx_6xx/usci_b_spi.c",line 51,column 5,is_stm
     409 000056 435C          MOV.B     #1,r12                ; [] |51| 
     410                    .dwpsn  file "../MP430DriverLib/driverlib/MSP430F5xx_6xx/usci_b_spi.c",line 52,column 1,is_stm
     411 000058 1619          POPM.A    #2,r10                ; [] 
     412                    .dwcfi  restore_reg, 9
     413                    .dwcfi  restore_reg, 10
     414                    .dwcfi  cfa_offset, 4
     415            $C$DW$28        .dwtag  DW_TAG_TI_branch
     416                    .dwattr $C$DW$28, DW_AT_low_pc(0x00)
MSP430 Assembler PC v21.6.1 Tue Dec 20 13:45:55 2022

Copyright (c) 2003-2018 Texas Instruments Incorporated
usci_b_spi.asm                                                       PAGE    9

     417                    .dwattr $C$DW$28, DW_AT_TI_return
     418            
     419 00005a 0110          RETA      ; [] 
     420                    ; [] 
     421                    .dwattr $C$DW$22, DW_AT_TI_end_file("../MP430DriverLib/driverlib/MSP430F5xx_6xx/usci_b_spi.c")
     422                    .dwattr $C$DW$22, DW_AT_TI_end_line(0x34)
     423                    .dwattr $C$DW$22, DW_AT_TI_end_column(0x01)
     424                    .dwendentry
     425                    .dwendtag $C$DW$22
     426            
     427 000000               .sect   ".text:USCI_B_SPI_getTransmitBufferAddressForDMA"
     428                    .clink
     429                    .global USCI_B_SPI_getTransmitBufferAddressForDMA
     430            
     431            $C$DW$29        .dwtag  DW_TAG_subprogram
     432                    .dwattr $C$DW$29, DW_AT_name("USCI_B_SPI_getTransmitBufferAddressForDMA")
     433                    .dwattr $C$DW$29, DW_AT_low_pc(USCI_B_SPI_getTransmitBufferAddressForDMA)
     434                    .dwattr $C$DW$29, DW_AT_high_pc(0x00)
     435                    .dwattr $C$DW$29, DW_AT_TI_symbol_name("USCI_B_SPI_getTransmitBufferAddressForDMA")
     436                    .dwattr $C$DW$29, DW_AT_external
     437                    .dwattr $C$DW$29, DW_AT_type(*$C$DW$T$23)
     438                    .dwattr $C$DW$29, DW_AT_TI_begin_file("../MP430DriverLib/driverlib/MSP430F5xx_6xx/usci_b_spi.c
     439                    .dwattr $C$DW$29, DW_AT_TI_begin_line(0xad)
     440                    .dwattr $C$DW$29, DW_AT_TI_begin_column(0x0a)
     441                    .dwattr $C$DW$29, DW_AT_decl_file("../MP430DriverLib/driverlib/MSP430F5xx_6xx/usci_b_spi.c")
     442                    .dwattr $C$DW$29, DW_AT_decl_line(0xad)
     443                    .dwattr $C$DW$29, DW_AT_decl_column(0x0a)
     444                    .dwattr $C$DW$29, DW_AT_TI_max_frame_size(0x04)
     445                    .dwpsn  file "../MP430DriverLib/driverlib/MSP430F5xx_6xx/usci_b_spi.c",line 174,column 1,is_st
     446            
     447                    .dwfde $C$DW$CIE, USCI_B_SPI_getTransmitBufferAddressForDMA
     448            $C$DW$30        .dwtag  DW_TAG_formal_parameter
     449                    .dwattr $C$DW$30, DW_AT_name("baseAddress")
     450                    .dwattr $C$DW$30, DW_AT_TI_symbol_name("baseAddress")
     451                    .dwattr $C$DW$30, DW_AT_type(*$C$DW$T$36)
     452                    .dwattr $C$DW$30, DW_AT_location[DW_OP_reg12]
     453            
     454            
     455            ;*****************************************************************************
     456            ;* FUNCTION NAME: USCI_B_SPI_getTransmitBufferAddressForDMA                  *
     457            ;*                                                                           *
     458            ;*   Regs Modified     : SP,SR,r12,r13                                       *
     459            ;*   Regs Used         : SP,SR,r12,r13                                       *
     460            ;*   Local Frame Size  : 0 Args + 0 Auto + 0 Save = 0 byte                   *
     461            ;*****************************************************************************
     462 000000       USCI_B_SPI_getTransmitBufferAddressForDMA:
     463            ;* --------------------------------------------------------------------------*
     464                    .dwcfi  cfa_offset, 4
     465                    .dwcfi  save_reg_to_mem, 16, -4
     466                    .dwpsn  file "../MP430DriverLib/driverlib/MSP430F5xx_6xx/usci_b_spi.c",line 175,column 5,is_st
     467 000000 503C          ADD.W     #14,r12               ; [] |175| 
         000002 000E 
     468 000004 430D          MOV.W     #0,r13                ; [] |175| 
     469                    .dwpsn  file "../MP430DriverLib/driverlib/MSP430F5xx_6xx/usci_b_spi.c",line 176,column 1,is_st
     470            $C$DW$31        .dwtag  DW_TAG_TI_branch
MSP430 Assembler PC v21.6.1 Tue Dec 20 13:45:55 2022

Copyright (c) 2003-2018 Texas Instruments Incorporated
usci_b_spi.asm                                                       PAGE   10

     471                    .dwattr $C$DW$31, DW_AT_low_pc(0x00)
     472                    .dwattr $C$DW$31, DW_AT_TI_return
     473            
     474 000006 0110          RETA      ; [] 
     475                    ; [] 
     476                    .dwattr $C$DW$29, DW_AT_TI_end_file("../MP430DriverLib/driverlib/MSP430F5xx_6xx/usci_b_spi.c")
     477                    .dwattr $C$DW$29, DW_AT_TI_end_line(0xb0)
     478                    .dwattr $C$DW$29, DW_AT_TI_end_column(0x01)
     479                    .dwendentry
     480                    .dwendtag $C$DW$29
     481            
     482 000000               .sect   ".text:USCI_B_SPI_getReceiveBufferAddressForDMA"
     483                    .clink
     484                    .global USCI_B_SPI_getReceiveBufferAddressForDMA
     485            
     486            $C$DW$32        .dwtag  DW_TAG_subprogram
     487                    .dwattr $C$DW$32, DW_AT_name("USCI_B_SPI_getReceiveBufferAddressForDMA")
     488                    .dwattr $C$DW$32, DW_AT_low_pc(USCI_B_SPI_getReceiveBufferAddressForDMA)
     489                    .dwattr $C$DW$32, DW_AT_high_pc(0x00)
     490                    .dwattr $C$DW$32, DW_AT_TI_symbol_name("USCI_B_SPI_getReceiveBufferAddressForDMA")
     491                    .dwattr $C$DW$32, DW_AT_external
     492                    .dwattr $C$DW$32, DW_AT_type(*$C$DW$T$23)
     493                    .dwattr $C$DW$32, DW_AT_TI_begin_file("../MP430DriverLib/driverlib/MSP430F5xx_6xx/usci_b_spi.c
     494                    .dwattr $C$DW$32, DW_AT_TI_begin_line(0xa8)
     495                    .dwattr $C$DW$32, DW_AT_TI_begin_column(0x0a)
     496                    .dwattr $C$DW$32, DW_AT_decl_file("../MP430DriverLib/driverlib/MSP430F5xx_6xx/usci_b_spi.c")
     497                    .dwattr $C$DW$32, DW_AT_decl_line(0xa8)
     498                    .dwattr $C$DW$32, DW_AT_decl_column(0x0a)
     499                    .dwattr $C$DW$32, DW_AT_TI_max_frame_size(0x04)
     500                    .dwpsn  file "../MP430DriverLib/driverlib/MSP430F5xx_6xx/usci_b_spi.c",line 169,column 1,is_st
     501            
     502                    .dwfde $C$DW$CIE, USCI_B_SPI_getReceiveBufferAddressForDMA
     503            $C$DW$33        .dwtag  DW_TAG_formal_parameter
     504                    .dwattr $C$DW$33, DW_AT_name("baseAddress")
     505                    .dwattr $C$DW$33, DW_AT_TI_symbol_name("baseAddress")
     506                    .dwattr $C$DW$33, DW_AT_type(*$C$DW$T$36)
     507                    .dwattr $C$DW$33, DW_AT_location[DW_OP_reg12]
     508            
     509            
     510            ;*****************************************************************************
     511            ;* FUNCTION NAME: USCI_B_SPI_getReceiveBufferAddressForDMA                   *
     512            ;*                                                                           *
     513            ;*   Regs Modified     : SP,SR,r12,r13                                       *
     514            ;*   Regs Used         : SP,SR,r12,r13                                       *
     515            ;*   Local Frame Size  : 0 Args + 0 Auto + 0 Save = 0 byte                   *
     516            ;*****************************************************************************
     517 000000       USCI_B_SPI_getReceiveBufferAddressForDMA:
     518            ;* --------------------------------------------------------------------------*
     519                    .dwcfi  cfa_offset, 4
     520                    .dwcfi  save_reg_to_mem, 16, -4
     521                    .dwpsn  file "../MP430DriverLib/driverlib/MSP430F5xx_6xx/usci_b_spi.c",line 170,column 5,is_st
     522 000000 503C          ADD.W     #12,r12               ; [] |170| 
         000002 000C 
     523 000004 430D          MOV.W     #0,r13                ; [] |170| 
     524                    .dwpsn  file "../MP430DriverLib/driverlib/MSP430F5xx_6xx/usci_b_spi.c",line 171,column 1,is_st
MSP430 Assembler PC v21.6.1 Tue Dec 20 13:45:55 2022

Copyright (c) 2003-2018 Texas Instruments Incorporated
usci_b_spi.asm                                                       PAGE   11

     525            $C$DW$34        .dwtag  DW_TAG_TI_branch
     526                    .dwattr $C$DW$34, DW_AT_low_pc(0x00)
     527                    .dwattr $C$DW$34, DW_AT_TI_return
     528            
     529 000006 0110          RETA      ; [] 
     530                    ; [] 
     531                    .dwattr $C$DW$32, DW_AT_TI_end_file("../MP430DriverLib/driverlib/MSP430F5xx_6xx/usci_b_spi.c")
     532                    .dwattr $C$DW$32, DW_AT_TI_end_line(0xab)
     533                    .dwattr $C$DW$32, DW_AT_TI_end_column(0x01)
     534                    .dwendentry
     535                    .dwendtag $C$DW$32
     536            
     537 000000               .sect   ".text:USCI_B_SPI_getInterruptStatus"
     538                    .clink
     539                    .global USCI_B_SPI_getInterruptStatus
     540            
     541            $C$DW$35        .dwtag  DW_TAG_subprogram
     542                    .dwattr $C$DW$35, DW_AT_name("USCI_B_SPI_getInterruptStatus")
     543                    .dwattr $C$DW$35, DW_AT_low_pc(USCI_B_SPI_getInterruptStatus)
     544                    .dwattr $C$DW$35, DW_AT_high_pc(0x00)
     545                    .dwattr $C$DW$35, DW_AT_TI_symbol_name("USCI_B_SPI_getInterruptStatus")
     546                    .dwattr $C$DW$35, DW_AT_external
     547                    .dwattr $C$DW$35, DW_AT_type(*$C$DW$T$26)
     548                    .dwattr $C$DW$35, DW_AT_TI_begin_file("../MP430DriverLib/driverlib/MSP430F5xx_6xx/usci_b_spi.c
     549                    .dwattr $C$DW$35, DW_AT_TI_begin_line(0x8e)
     550                    .dwattr $C$DW$35, DW_AT_TI_begin_column(0x09)
     551                    .dwattr $C$DW$35, DW_AT_decl_file("../MP430DriverLib/driverlib/MSP430F5xx_6xx/usci_b_spi.c")
     552                    .dwattr $C$DW$35, DW_AT_decl_line(0x8e)
     553                    .dwattr $C$DW$35, DW_AT_decl_column(0x09)
     554                    .dwattr $C$DW$35, DW_AT_TI_max_frame_size(0x04)
     555                    .dwpsn  file "../MP430DriverLib/driverlib/MSP430F5xx_6xx/usci_b_spi.c",line 145,column 1,is_st
     556            
     557                    .dwfde $C$DW$CIE, USCI_B_SPI_getInterruptStatus
     558            $C$DW$36        .dwtag  DW_TAG_formal_parameter
     559                    .dwattr $C$DW$36, DW_AT_name("baseAddress")
     560                    .dwattr $C$DW$36, DW_AT_TI_symbol_name("baseAddress")
     561                    .dwattr $C$DW$36, DW_AT_type(*$C$DW$T$36)
     562                    .dwattr $C$DW$36, DW_AT_location[DW_OP_reg12]
     563            
     564            $C$DW$37        .dwtag  DW_TAG_formal_parameter
     565                    .dwattr $C$DW$37, DW_AT_name("mask")
     566                    .dwattr $C$DW$37, DW_AT_TI_symbol_name("mask")
     567                    .dwattr $C$DW$37, DW_AT_type(*$C$DW$T$26)
     568                    .dwattr $C$DW$37, DW_AT_location[DW_OP_reg13]
     569            
     570            
     571            ;*****************************************************************************
     572            ;* FUNCTION NAME: USCI_B_SPI_getInterruptStatus                              *
     573            ;*                                                                           *
     574            ;*   Regs Modified     : SP,SR,r12                                           *
     575            ;*   Regs Used         : SP,SR,r12,r13                                       *
     576            ;*   Local Frame Size  : 0 Args + 0 Auto + 0 Save = 0 byte                   *
     577            ;*****************************************************************************
     578 000000       USCI_B_SPI_getInterruptStatus:
     579            ;* --------------------------------------------------------------------------*
MSP430 Assembler PC v21.6.1 Tue Dec 20 13:45:55 2022

Copyright (c) 2003-2018 Texas Instruments Incorporated
usci_b_spi.asm                                                       PAGE   12

     580                    .dwcfi  cfa_offset, 4
     581                    .dwcfi  save_reg_to_mem, 16, -4
     582            ;* r13   assigned to mask
     583            $C$DW$38        .dwtag  DW_TAG_variable
     584                    .dwattr $C$DW$38, DW_AT_name("mask")
     585                    .dwattr $C$DW$38, DW_AT_TI_symbol_name("mask")
     586                    .dwattr $C$DW$38, DW_AT_type(*$C$DW$T$26)
     587                    .dwattr $C$DW$38, DW_AT_location[DW_OP_reg13]
     588            
     589                    .dwpsn  file "../MP430DriverLib/driverlib/MSP430F5xx_6xx/usci_b_spi.c",line 146,column 5,is_st
     590 000000 503C          ADD.W     #29,r12               ; [] |146| 
         000002 001D 
     591 000004 4C6C          MOV.B     @r12,r12              ; [] |146| 
     592 000006 FD4C          AND.B     r13,r12               ; [] |146| 
     593                    .dwpsn  file "../MP430DriverLib/driverlib/MSP430F5xx_6xx/usci_b_spi.c",line 147,column 1,is_st
     594            $C$DW$39        .dwtag  DW_TAG_TI_branch
     595                    .dwattr $C$DW$39, DW_AT_low_pc(0x00)
     596                    .dwattr $C$DW$39, DW_AT_TI_return
     597            
     598 000008 0110          RETA      ; [] 
     599                    ; [] 
     600                    .dwattr $C$DW$35, DW_AT_TI_end_file("../MP430DriverLib/driverlib/MSP430F5xx_6xx/usci_b_spi.c")
     601                    .dwattr $C$DW$35, DW_AT_TI_end_line(0x93)
     602                    .dwattr $C$DW$35, DW_AT_TI_end_column(0x01)
     603                    .dwendentry
     604                    .dwendtag $C$DW$35
     605            
     606 000000               .sect   ".text:USCI_B_SPI_enableInterrupt"
     607                    .clink
     608                    .global USCI_B_SPI_enableInterrupt
     609            
     610            $C$DW$40        .dwtag  DW_TAG_subprogram
     611                    .dwattr $C$DW$40, DW_AT_name("USCI_B_SPI_enableInterrupt")
     612                    .dwattr $C$DW$40, DW_AT_low_pc(USCI_B_SPI_enableInterrupt)
     613                    .dwattr $C$DW$40, DW_AT_high_pc(0x00)
     614                    .dwattr $C$DW$40, DW_AT_TI_symbol_name("USCI_B_SPI_enableInterrupt")
     615                    .dwattr $C$DW$40, DW_AT_external
     616                    .dwattr $C$DW$40, DW_AT_TI_begin_file("../MP430DriverLib/driverlib/MSP430F5xx_6xx/usci_b_spi.c
     617                    .dwattr $C$DW$40, DW_AT_TI_begin_line(0x80)
     618                    .dwattr $C$DW$40, DW_AT_TI_begin_column(0x06)
     619                    .dwattr $C$DW$40, DW_AT_decl_file("../MP430DriverLib/driverlib/MSP430F5xx_6xx/usci_b_spi.c")
     620                    .dwattr $C$DW$40, DW_AT_decl_line(0x80)
     621                    .dwattr $C$DW$40, DW_AT_decl_column(0x06)
     622                    .dwattr $C$DW$40, DW_AT_TI_max_frame_size(0x04)
     623                    .dwpsn  file "../MP430DriverLib/driverlib/MSP430F5xx_6xx/usci_b_spi.c",line 131,column 1,is_st
     624            
     625                    .dwfde $C$DW$CIE, USCI_B_SPI_enableInterrupt
     626            $C$DW$41        .dwtag  DW_TAG_formal_parameter
     627                    .dwattr $C$DW$41, DW_AT_name("baseAddress")
     628                    .dwattr $C$DW$41, DW_AT_TI_symbol_name("baseAddress")
     629                    .dwattr $C$DW$41, DW_AT_type(*$C$DW$T$36)
     630                    .dwattr $C$DW$41, DW_AT_location[DW_OP_reg12]
     631            
     632            $C$DW$42        .dwtag  DW_TAG_formal_parameter
     633                    .dwattr $C$DW$42, DW_AT_name("mask")
MSP430 Assembler PC v21.6.1 Tue Dec 20 13:45:55 2022

Copyright (c) 2003-2018 Texas Instruments Incorporated
usci_b_spi.asm                                                       PAGE   13

     634                    .dwattr $C$DW$42, DW_AT_TI_symbol_name("mask")
     635                    .dwattr $C$DW$42, DW_AT_type(*$C$DW$T$26)
     636                    .dwattr $C$DW$42, DW_AT_location[DW_OP_reg13]
     637            
     638            
     639            ;*****************************************************************************
     640            ;* FUNCTION NAME: USCI_B_SPI_enableInterrupt                                 *
     641            ;*                                                                           *
     642            ;*   Regs Modified     : SP,SR,r12,r15                                       *
     643            ;*   Regs Used         : SP,SR,r12,r13,r15                                   *
     644            ;*   Local Frame Size  : 0 Args + 0 Auto + 0 Save = 0 byte                   *
     645            ;*****************************************************************************
     646 000000       USCI_B_SPI_enableInterrupt:
     647            ;* --------------------------------------------------------------------------*
     648                    .dwcfi  cfa_offset, 4
     649                    .dwcfi  save_reg_to_mem, 16, -4
     650            ;* r13   assigned to mask
     651            $C$DW$43        .dwtag  DW_TAG_variable
     652                    .dwattr $C$DW$43, DW_AT_name("mask")
     653                    .dwattr $C$DW$43, DW_AT_TI_symbol_name("mask")
     654                    .dwattr $C$DW$43, DW_AT_type(*$C$DW$T$26)
     655                    .dwattr $C$DW$43, DW_AT_location[DW_OP_reg13]
     656            
     657                    .dwpsn  file "../MP430DriverLib/driverlib/MSP430F5xx_6xx/usci_b_spi.c",line 132,column 5,is_st
     658 000000 503C          ADD.W     #28,r12               ; [] |132| 
         000002 001C 
     659 000004 4C0F          MOV.W     r12,r15               ; [] |132| 
     660 000006 DDCF          OR.B      r13,0(r15)            ; [] |132| 
         000008 0000 
     661                    .dwpsn  file "../MP430DriverLib/driverlib/MSP430F5xx_6xx/usci_b_spi.c",line 133,column 1,is_st
     662            $C$DW$44        .dwtag  DW_TAG_TI_branch
     663                    .dwattr $C$DW$44, DW_AT_low_pc(0x00)
     664                    .dwattr $C$DW$44, DW_AT_TI_return
     665            
     666 00000a 0110          RETA      ; [] 
     667                    ; [] 
     668                    .dwattr $C$DW$40, DW_AT_TI_end_file("../MP430DriverLib/driverlib/MSP430F5xx_6xx/usci_b_spi.c")
     669                    .dwattr $C$DW$40, DW_AT_TI_end_line(0x85)
     670                    .dwattr $C$DW$40, DW_AT_TI_end_column(0x01)
     671                    .dwendentry
     672                    .dwendtag $C$DW$40
     673            
     674 000000               .sect   ".text:USCI_B_SPI_enable"
     675                    .clink
     676                    .global USCI_B_SPI_enable
     677            
     678            $C$DW$45        .dwtag  DW_TAG_subprogram
     679                    .dwattr $C$DW$45, DW_AT_name("USCI_B_SPI_enable")
     680                    .dwattr $C$DW$45, DW_AT_low_pc(USCI_B_SPI_enable)
     681                    .dwattr $C$DW$45, DW_AT_high_pc(0x00)
     682                    .dwattr $C$DW$45, DW_AT_TI_symbol_name("USCI_B_SPI_enable")
     683                    .dwattr $C$DW$45, DW_AT_external
     684                    .dwattr $C$DW$45, DW_AT_TI_begin_file("../MP430DriverLib/driverlib/MSP430F5xx_6xx/usci_b_spi.c
     685                    .dwattr $C$DW$45, DW_AT_TI_begin_line(0x9c)
     686                    .dwattr $C$DW$45, DW_AT_TI_begin_column(0x06)
MSP430 Assembler PC v21.6.1 Tue Dec 20 13:45:55 2022

Copyright (c) 2003-2018 Texas Instruments Incorporated
usci_b_spi.asm                                                       PAGE   14

     687                    .dwattr $C$DW$45, DW_AT_decl_file("../MP430DriverLib/driverlib/MSP430F5xx_6xx/usci_b_spi.c")
     688                    .dwattr $C$DW$45, DW_AT_decl_line(0x9c)
     689                    .dwattr $C$DW$45, DW_AT_decl_column(0x06)
     690                    .dwattr $C$DW$45, DW_AT_TI_max_frame_size(0x04)
     691                    .dwpsn  file "../MP430DriverLib/driverlib/MSP430F5xx_6xx/usci_b_spi.c",line 157,column 1,is_st
     692            
     693                    .dwfde $C$DW$CIE, USCI_B_SPI_enable
     694            $C$DW$46        .dwtag  DW_TAG_formal_parameter
     695                    .dwattr $C$DW$46, DW_AT_name("baseAddress")
     696                    .dwattr $C$DW$46, DW_AT_TI_symbol_name("baseAddress")
     697                    .dwattr $C$DW$46, DW_AT_type(*$C$DW$T$36)
     698                    .dwattr $C$DW$46, DW_AT_location[DW_OP_reg12]
     699            
     700            
     701            ;*****************************************************************************
     702            ;* FUNCTION NAME: USCI_B_SPI_enable                                          *
     703            ;*                                                                           *
     704            ;*   Regs Modified     : SP                                                  *
     705            ;*   Regs Used         : SP,r12                                              *
     706            ;*   Local Frame Size  : 0 Args + 0 Auto + 0 Save = 0 byte                   *
     707            ;*****************************************************************************
     708 000000       USCI_B_SPI_enable:
     709            ;* --------------------------------------------------------------------------*
     710                    .dwcfi  cfa_offset, 4
     711                    .dwcfi  save_reg_to_mem, 16, -4
     712            ;* r12   assigned to baseAddress
     713            $C$DW$47        .dwtag  DW_TAG_variable
     714                    .dwattr $C$DW$47, DW_AT_name("baseAddress")
     715                    .dwattr $C$DW$47, DW_AT_TI_symbol_name("baseAddress")
     716                    .dwattr $C$DW$47, DW_AT_type(*$C$DW$T$36)
     717                    .dwattr $C$DW$47, DW_AT_location[DW_OP_reg12]
     718            
     719                    .dwpsn  file "../MP430DriverLib/driverlib/MSP430F5xx_6xx/usci_b_spi.c",line 159,column 5,is_st
     720 000000 C3DC          BIC.B     #1,0(r12)             ; [] |159| 
         000002 0000 
     721                    .dwpsn  file "../MP430DriverLib/driverlib/MSP430F5xx_6xx/usci_b_spi.c",line 160,column 1,is_st
     722            $C$DW$48        .dwtag  DW_TAG_TI_branch
     723                    .dwattr $C$DW$48, DW_AT_low_pc(0x00)
     724                    .dwattr $C$DW$48, DW_AT_TI_return
     725            
     726 000004 0110          RETA      ; [] 
     727                    ; [] 
     728                    .dwattr $C$DW$45, DW_AT_TI_end_file("../MP430DriverLib/driverlib/MSP430F5xx_6xx/usci_b_spi.c")
     729                    .dwattr $C$DW$45, DW_AT_TI_end_line(0xa0)
     730                    .dwattr $C$DW$45, DW_AT_TI_end_column(0x01)
     731                    .dwendentry
     732                    .dwendtag $C$DW$45
     733            
     734 000000               .sect   ".text:USCI_B_SPI_disableInterrupt"
     735                    .clink
     736                    .global USCI_B_SPI_disableInterrupt
     737            
     738            $C$DW$49        .dwtag  DW_TAG_subprogram
     739                    .dwattr $C$DW$49, DW_AT_name("USCI_B_SPI_disableInterrupt")
     740                    .dwattr $C$DW$49, DW_AT_low_pc(USCI_B_SPI_disableInterrupt)
MSP430 Assembler PC v21.6.1 Tue Dec 20 13:45:55 2022

Copyright (c) 2003-2018 Texas Instruments Incorporated
usci_b_spi.asm                                                       PAGE   15

     741                    .dwattr $C$DW$49, DW_AT_high_pc(0x00)
     742                    .dwattr $C$DW$49, DW_AT_TI_symbol_name("USCI_B_SPI_disableInterrupt")
     743                    .dwattr $C$DW$49, DW_AT_external
     744                    .dwattr $C$DW$49, DW_AT_TI_begin_file("../MP430DriverLib/driverlib/MSP430F5xx_6xx/usci_b_spi.c
     745                    .dwattr $C$DW$49, DW_AT_TI_begin_line(0x87)
     746                    .dwattr $C$DW$49, DW_AT_TI_begin_column(0x06)
     747                    .dwattr $C$DW$49, DW_AT_decl_file("../MP430DriverLib/driverlib/MSP430F5xx_6xx/usci_b_spi.c")
     748                    .dwattr $C$DW$49, DW_AT_decl_line(0x87)
     749                    .dwattr $C$DW$49, DW_AT_decl_column(0x06)
     750                    .dwattr $C$DW$49, DW_AT_TI_max_frame_size(0x04)
     751                    .dwpsn  file "../MP430DriverLib/driverlib/MSP430F5xx_6xx/usci_b_spi.c",line 138,column 1,is_st
     752            
     753                    .dwfde $C$DW$CIE, USCI_B_SPI_disableInterrupt
     754            $C$DW$50        .dwtag  DW_TAG_formal_parameter
     755                    .dwattr $C$DW$50, DW_AT_name("baseAddress")
     756                    .dwattr $C$DW$50, DW_AT_TI_symbol_name("baseAddress")
     757                    .dwattr $C$DW$50, DW_AT_type(*$C$DW$T$36)
     758                    .dwattr $C$DW$50, DW_AT_location[DW_OP_reg12]
     759            
     760            $C$DW$51        .dwtag  DW_TAG_formal_parameter
     761                    .dwattr $C$DW$51, DW_AT_name("mask")
     762                    .dwattr $C$DW$51, DW_AT_TI_symbol_name("mask")
     763                    .dwattr $C$DW$51, DW_AT_type(*$C$DW$T$26)
     764                    .dwattr $C$DW$51, DW_AT_location[DW_OP_reg13]
     765            
     766            
     767            ;*****************************************************************************
     768            ;* FUNCTION NAME: USCI_B_SPI_disableInterrupt                                *
     769            ;*                                                                           *
     770            ;*   Regs Modified     : SP,SR,r12,r15                                       *
     771            ;*   Regs Used         : SP,SR,r12,r13,r15                                   *
     772            ;*   Local Frame Size  : 0 Args + 0 Auto + 0 Save = 0 byte                   *
     773            ;*****************************************************************************
     774 000000       USCI_B_SPI_disableInterrupt:
     775            ;* --------------------------------------------------------------------------*
     776                    .dwcfi  cfa_offset, 4
     777                    .dwcfi  save_reg_to_mem, 16, -4
     778            ;* r13   assigned to mask
     779            $C$DW$52        .dwtag  DW_TAG_variable
     780                    .dwattr $C$DW$52, DW_AT_name("mask")
     781                    .dwattr $C$DW$52, DW_AT_TI_symbol_name("mask")
     782                    .dwattr $C$DW$52, DW_AT_type(*$C$DW$T$26)
     783                    .dwattr $C$DW$52, DW_AT_location[DW_OP_reg13]
     784            
     785                    .dwpsn  file "../MP430DriverLib/driverlib/MSP430F5xx_6xx/usci_b_spi.c",line 139,column 5,is_st
     786 000000 503C          ADD.W     #28,r12               ; [] |139| 
         000002 001C 
     787 000004 4C0F          MOV.W     r12,r15               ; [] |139| 
     788 000006 CDCF          BIC.B     r13,0(r15)            ; [] |139| 
         000008 0000 
     789                    .dwpsn  file "../MP430DriverLib/driverlib/MSP430F5xx_6xx/usci_b_spi.c",line 140,column 1,is_st
     790            $C$DW$53        .dwtag  DW_TAG_TI_branch
     791                    .dwattr $C$DW$53, DW_AT_low_pc(0x00)
     792                    .dwattr $C$DW$53, DW_AT_TI_return
     793            
MSP430 Assembler PC v21.6.1 Tue Dec 20 13:45:55 2022

Copyright (c) 2003-2018 Texas Instruments Incorporated
usci_b_spi.asm                                                       PAGE   16

     794 00000a 0110          RETA      ; [] 
     795                    ; [] 
     796                    .dwattr $C$DW$49, DW_AT_TI_end_file("../MP430DriverLib/driverlib/MSP430F5xx_6xx/usci_b_spi.c")
     797                    .dwattr $C$DW$49, DW_AT_TI_end_line(0x8c)
     798                    .dwattr $C$DW$49, DW_AT_TI_end_column(0x01)
     799                    .dwendentry
     800                    .dwendtag $C$DW$49
     801            
     802 000000               .sect   ".text:USCI_B_SPI_disable"
     803                    .clink
     804                    .global USCI_B_SPI_disable
     805            
     806            $C$DW$54        .dwtag  DW_TAG_subprogram
     807                    .dwattr $C$DW$54, DW_AT_name("USCI_B_SPI_disable")
     808                    .dwattr $C$DW$54, DW_AT_low_pc(USCI_B_SPI_disable)
     809                    .dwattr $C$DW$54, DW_AT_high_pc(0x00)
     810                    .dwattr $C$DW$54, DW_AT_TI_symbol_name("USCI_B_SPI_disable")
     811                    .dwattr $C$DW$54, DW_AT_external
     812                    .dwattr $C$DW$54, DW_AT_TI_begin_file("../MP430DriverLib/driverlib/MSP430F5xx_6xx/usci_b_spi.c
     813                    .dwattr $C$DW$54, DW_AT_TI_begin_line(0xa2)
     814                    .dwattr $C$DW$54, DW_AT_TI_begin_column(0x06)
     815                    .dwattr $C$DW$54, DW_AT_decl_file("../MP430DriverLib/driverlib/MSP430F5xx_6xx/usci_b_spi.c")
     816                    .dwattr $C$DW$54, DW_AT_decl_line(0xa2)
     817                    .dwattr $C$DW$54, DW_AT_decl_column(0x06)
     818                    .dwattr $C$DW$54, DW_AT_TI_max_frame_size(0x04)
     819                    .dwpsn  file "../MP430DriverLib/driverlib/MSP430F5xx_6xx/usci_b_spi.c",line 163,column 1,is_st
     820            
     821                    .dwfde $C$DW$CIE, USCI_B_SPI_disable
     822            $C$DW$55        .dwtag  DW_TAG_formal_parameter
     823                    .dwattr $C$DW$55, DW_AT_name("baseAddress")
     824                    .dwattr $C$DW$55, DW_AT_TI_symbol_name("baseAddress")
     825                    .dwattr $C$DW$55, DW_AT_type(*$C$DW$T$36)
     826                    .dwattr $C$DW$55, DW_AT_location[DW_OP_reg12]
     827            
     828            
     829            ;*****************************************************************************
     830            ;* FUNCTION NAME: USCI_B_SPI_disable                                         *
     831            ;*                                                                           *
     832            ;*   Regs Modified     : SP                                                  *
     833            ;*   Regs Used         : SP,r12                                              *
     834            ;*   Local Frame Size  : 0 Args + 0 Auto + 0 Save = 0 byte                   *
     835            ;*****************************************************************************
     836 000000       USCI_B_SPI_disable:
     837            ;* --------------------------------------------------------------------------*
     838                    .dwcfi  cfa_offset, 4
     839                    .dwcfi  save_reg_to_mem, 16, -4
     840            ;* r12   assigned to baseAddress
     841            $C$DW$56        .dwtag  DW_TAG_variable
     842                    .dwattr $C$DW$56, DW_AT_name("baseAddress")
     843                    .dwattr $C$DW$56, DW_AT_TI_symbol_name("baseAddress")
     844                    .dwattr $C$DW$56, DW_AT_type(*$C$DW$T$36)
     845                    .dwattr $C$DW$56, DW_AT_location[DW_OP_reg12]
     846            
     847                    .dwpsn  file "../MP430DriverLib/driverlib/MSP430F5xx_6xx/usci_b_spi.c",line 165,column 5,is_st
     848 000000 D3DC          OR.B      #1,0(r12)             ; [] |165| 
MSP430 Assembler PC v21.6.1 Tue Dec 20 13:45:55 2022

Copyright (c) 2003-2018 Texas Instruments Incorporated
usci_b_spi.asm                                                       PAGE   17

         000002 0000 
     849                    .dwpsn  file "../MP430DriverLib/driverlib/MSP430F5xx_6xx/usci_b_spi.c",line 166,column 1,is_st
     850            $C$DW$57        .dwtag  DW_TAG_TI_branch
     851                    .dwattr $C$DW$57, DW_AT_low_pc(0x00)
     852                    .dwattr $C$DW$57, DW_AT_TI_return
     853            
     854 000004 0110          RETA      ; [] 
     855                    ; [] 
     856                    .dwattr $C$DW$54, DW_AT_TI_end_file("../MP430DriverLib/driverlib/MSP430F5xx_6xx/usci_b_spi.c")
     857                    .dwattr $C$DW$54, DW_AT_TI_end_line(0xa6)
     858                    .dwattr $C$DW$54, DW_AT_TI_end_column(0x01)
     859                    .dwendentry
     860                    .dwendtag $C$DW$54
     861            
     862 000000               .sect   ".text:USCI_B_SPI_clearInterrupt"
     863                    .clink
     864                    .global USCI_B_SPI_clearInterrupt
     865            
     866            $C$DW$58        .dwtag  DW_TAG_subprogram
     867                    .dwattr $C$DW$58, DW_AT_name("USCI_B_SPI_clearInterrupt")
     868                    .dwattr $C$DW$58, DW_AT_low_pc(USCI_B_SPI_clearInterrupt)
     869                    .dwattr $C$DW$58, DW_AT_high_pc(0x00)
     870                    .dwattr $C$DW$58, DW_AT_TI_symbol_name("USCI_B_SPI_clearInterrupt")
     871                    .dwattr $C$DW$58, DW_AT_external
     872                    .dwattr $C$DW$58, DW_AT_TI_begin_file("../MP430DriverLib/driverlib/MSP430F5xx_6xx/usci_b_spi.c
     873                    .dwattr $C$DW$58, DW_AT_TI_begin_line(0x95)
     874                    .dwattr $C$DW$58, DW_AT_TI_begin_column(0x06)
     875                    .dwattr $C$DW$58, DW_AT_decl_file("../MP430DriverLib/driverlib/MSP430F5xx_6xx/usci_b_spi.c")
     876                    .dwattr $C$DW$58, DW_AT_decl_line(0x95)
     877                    .dwattr $C$DW$58, DW_AT_decl_column(0x06)
     878                    .dwattr $C$DW$58, DW_AT_TI_max_frame_size(0x04)
     879                    .dwpsn  file "../MP430DriverLib/driverlib/MSP430F5xx_6xx/usci_b_spi.c",line 152,column 1,is_st
     880            
     881                    .dwfde $C$DW$CIE, USCI_B_SPI_clearInterrupt
     882            $C$DW$59        .dwtag  DW_TAG_formal_parameter
     883                    .dwattr $C$DW$59, DW_AT_name("baseAddress")
     884                    .dwattr $C$DW$59, DW_AT_TI_symbol_name("baseAddress")
     885                    .dwattr $C$DW$59, DW_AT_type(*$C$DW$T$36)
     886                    .dwattr $C$DW$59, DW_AT_location[DW_OP_reg12]
     887            
     888            $C$DW$60        .dwtag  DW_TAG_formal_parameter
     889                    .dwattr $C$DW$60, DW_AT_name("mask")
     890                    .dwattr $C$DW$60, DW_AT_TI_symbol_name("mask")
     891                    .dwattr $C$DW$60, DW_AT_type(*$C$DW$T$26)
     892                    .dwattr $C$DW$60, DW_AT_location[DW_OP_reg13]
     893            
     894            
     895            ;*****************************************************************************
     896            ;* FUNCTION NAME: USCI_B_SPI_clearInterrupt                                  *
     897            ;*                                                                           *
     898            ;*   Regs Modified     : SP,SR,r12,r15                                       *
     899            ;*   Regs Used         : SP,SR,r12,r13,r15                                   *
     900            ;*   Local Frame Size  : 0 Args + 0 Auto + 0 Save = 0 byte                   *
     901            ;*****************************************************************************
     902 000000       USCI_B_SPI_clearInterrupt:
MSP430 Assembler PC v21.6.1 Tue Dec 20 13:45:55 2022

Copyright (c) 2003-2018 Texas Instruments Incorporated
usci_b_spi.asm                                                       PAGE   18

     903            ;* --------------------------------------------------------------------------*
     904                    .dwcfi  cfa_offset, 4
     905                    .dwcfi  save_reg_to_mem, 16, -4
     906            ;* r13   assigned to mask
     907            $C$DW$61        .dwtag  DW_TAG_variable
     908                    .dwattr $C$DW$61, DW_AT_name("mask")
     909                    .dwattr $C$DW$61, DW_AT_TI_symbol_name("mask")
     910                    .dwattr $C$DW$61, DW_AT_type(*$C$DW$T$26)
     911                    .dwattr $C$DW$61, DW_AT_location[DW_OP_reg13]
     912            
     913                    .dwpsn  file "../MP430DriverLib/driverlib/MSP430F5xx_6xx/usci_b_spi.c",line 153,column 5,is_st
     914 000000 503C          ADD.W     #29,r12               ; [] |153| 
         000002 001D 
     915 000004 4C0F          MOV.W     r12,r15               ; [] |153| 
     916 000006 CDCF          BIC.B     r13,0(r15)            ; [] |153| 
         000008 0000 
     917                    .dwpsn  file "../MP430DriverLib/driverlib/MSP430F5xx_6xx/usci_b_spi.c",line 154,column 1,is_st
     918            $C$DW$62        .dwtag  DW_TAG_TI_branch
     919                    .dwattr $C$DW$62, DW_AT_low_pc(0x00)
     920                    .dwattr $C$DW$62, DW_AT_TI_return
     921            
     922 00000a 0110          RETA      ; [] 
     923                    ; [] 
     924                    .dwattr $C$DW$58, DW_AT_TI_end_file("../MP430DriverLib/driverlib/MSP430F5xx_6xx/usci_b_spi.c")
     925                    .dwattr $C$DW$58, DW_AT_TI_end_line(0x9a)
     926                    .dwattr $C$DW$58, DW_AT_TI_end_column(0x01)
     927                    .dwendentry
     928                    .dwendtag $C$DW$58
     929            
     930 000000               .sect   ".text:USCI_B_SPI_changeMasterClock"
     931                    .clink
     932                    .global USCI_B_SPI_changeMasterClock
     933            
     934            $C$DW$63        .dwtag  DW_TAG_subprogram
     935                    .dwattr $C$DW$63, DW_AT_name("USCI_B_SPI_changeMasterClock")
     936                    .dwattr $C$DW$63, DW_AT_low_pc(USCI_B_SPI_changeMasterClock)
     937                    .dwattr $C$DW$63, DW_AT_high_pc(0x00)
     938                    .dwattr $C$DW$63, DW_AT_TI_symbol_name("USCI_B_SPI_changeMasterClock")
     939                    .dwattr $C$DW$63, DW_AT_external
     940                    .dwattr $C$DW$63, DW_AT_TI_begin_file("../MP430DriverLib/driverlib/MSP430F5xx_6xx/usci_b_spi.c
     941                    .dwattr $C$DW$63, DW_AT_TI_begin_line(0x36)
     942                    .dwattr $C$DW$63, DW_AT_TI_begin_column(0x06)
     943                    .dwattr $C$DW$63, DW_AT_decl_file("../MP430DriverLib/driverlib/MSP430F5xx_6xx/usci_b_spi.c")
     944                    .dwattr $C$DW$63, DW_AT_decl_line(0x36)
     945                    .dwattr $C$DW$63, DW_AT_decl_column(0x06)
     946                    .dwattr $C$DW$63, DW_AT_TI_max_frame_size(0x08)
     947                    .dwpsn  file "../MP430DriverLib/driverlib/MSP430F5xx_6xx/usci_b_spi.c",line 56,column 1,is_stm
     948            
     949                    .dwfde $C$DW$CIE, USCI_B_SPI_changeMasterClock
     950            $C$DW$64        .dwtag  DW_TAG_formal_parameter
     951                    .dwattr $C$DW$64, DW_AT_name("baseAddress")
     952                    .dwattr $C$DW$64, DW_AT_TI_symbol_name("baseAddress")
     953                    .dwattr $C$DW$64, DW_AT_type(*$C$DW$T$36)
     954                    .dwattr $C$DW$64, DW_AT_location[DW_OP_reg12]
     955            
MSP430 Assembler PC v21.6.1 Tue Dec 20 13:45:55 2022

Copyright (c) 2003-2018 Texas Instruments Incorporated
usci_b_spi.asm                                                       PAGE   19

     956            $C$DW$65        .dwtag  DW_TAG_formal_parameter
     957                    .dwattr $C$DW$65, DW_AT_name("param")
     958                    .dwattr $C$DW$65, DW_AT_TI_symbol_name("param")
     959                    .dwattr $C$DW$65, DW_AT_type(*$C$DW$T$30)
     960                    .dwattr $C$DW$65, DW_AT_location[DW_OP_reg13]
     961            
     962            
     963            ;*****************************************************************************
     964            ;* FUNCTION NAME: USCI_B_SPI_changeMasterClock                               *
     965            ;*                                                                           *
     966            ;*   Regs Modified     : SP,SR,r10,r11,r12,r13,r14,r15                       *
     967            ;*   Regs Used         : SP,SR,r10,r11,r12,r13,r14,r15                       *
     968            ;*   Local Frame Size  : 0 Args + 0 Auto + 4 Save = 4 byte                   *
     969            ;*****************************************************************************
     970 000000       USCI_B_SPI_changeMasterClock:
     971            ;* --------------------------------------------------------------------------*
     972                    .dwcfi  cfa_offset, 4
     973                    .dwcfi  save_reg_to_mem, 16, -4
     974 000000 140A          PUSHM.A   #1,r10                ; [] 
     975                    .dwcfi  save_reg_to_mem, 10, -8
     976                    .dwcfi  cfa_offset, 8
     977            ;* r10   assigned to baseAddress
     978            $C$DW$66        .dwtag  DW_TAG_variable
     979                    .dwattr $C$DW$66, DW_AT_name("baseAddress")
     980                    .dwattr $C$DW$66, DW_AT_TI_symbol_name("baseAddress")
     981                    .dwattr $C$DW$66, DW_AT_type(*$C$DW$T$36)
     982                    .dwattr $C$DW$66, DW_AT_location[DW_OP_reg10]
     983            
     984            ;* r15   assigned to param
     985            $C$DW$67        .dwtag  DW_TAG_variable
     986                    .dwattr $C$DW$67, DW_AT_name("param")
     987                    .dwattr $C$DW$67, DW_AT_TI_symbol_name("param")
     988                    .dwattr $C$DW$67, DW_AT_type(*$C$DW$T$30)
     989                    .dwattr $C$DW$67, DW_AT_location[DW_OP_reg15]
     990            
     991 000002 0DCF          MOVA      r13,r15               ; [] |56| 
     992 000004 0CCA          MOVA      r12,r10               ; [] |56| 
     993                    .dwpsn  file "../MP430DriverLib/driverlib/MSP430F5xx_6xx/usci_b_spi.c",line 58,column 5,is_stm
     994 000006 D3DA          OR.B      #1,0(r10)             ; [] |58| 
         000008 0000 
     995                    .dwpsn  file "../MP430DriverLib/driverlib/MSP430F5xx_6xx/usci_b_spi.c",line 60,column 5,is_stm
     996 00000a 4F2C          MOV.W     @r15,r12              ; [] |60| 
     997 00000c 4F1D          MOV.W     2(r15),r13            ; [] |60| 
         00000e 0002 
     998 000010 4F1E          MOV.W     4(r15),r14            ; [] |60| 
         000012 0004 
     999 000014 4F1F          MOV.W     6(r15),r15            ; [] |60| 
         000016 0006 
    1000            $C$DW$68        .dwtag  DW_TAG_TI_branch
    1001                    .dwattr $C$DW$68, DW_AT_low_pc(0x00)
    1002                    .dwattr $C$DW$68, DW_AT_name("__mspabi_divul")
    1003                    .dwattr $C$DW$68, DW_AT_TI_call
    1004            
    1005 000018 13B0!         CALLA     #__mspabi_divul       ; [] |60| 
         00001a 0000 
MSP430 Assembler PC v21.6.1 Tue Dec 20 13:45:55 2022

Copyright (c) 2003-2018 Texas Instruments Incorporated
usci_b_spi.asm                                                       PAGE   20

    1006                                                      ; [] |60| 
    1007 00001c 0ACF          MOVA      r10,r15               ; [] |60| 
    1008 00001e 503F          ADD.W     #6,r15                ; [] |60| 
         000020 0006 
    1009 000022 4CCF          MOV.B     r12,0(r15)            ; [] |60| 
         000024 0000 
    1010                    .dwpsn  file "../MP430DriverLib/driverlib/MSP430F5xx_6xx/usci_b_spi.c",line 64,column 5,is_stm
    1011 000026 C3DA          BIC.B     #1,0(r10)             ; [] |64| 
         000028 0000 
    1012                    .dwpsn  file "../MP430DriverLib/driverlib/MSP430F5xx_6xx/usci_b_spi.c",line 65,column 1,is_stm
    1013 00002a 160A          POPM.A    #1,r10                ; [] 
    1014                    .dwcfi  restore_reg, 10
    1015                    .dwcfi  cfa_offset, 4
    1016            $C$DW$69        .dwtag  DW_TAG_TI_branch
    1017                    .dwattr $C$DW$69, DW_AT_low_pc(0x00)
    1018                    .dwattr $C$DW$69, DW_AT_TI_return
    1019            
    1020 00002c 0110          RETA      ; [] 
    1021                    ; [] 
    1022                    .dwattr $C$DW$63, DW_AT_TI_end_file("../MP430DriverLib/driverlib/MSP430F5xx_6xx/usci_b_spi.c")
    1023                    .dwattr $C$DW$63, DW_AT_TI_end_line(0x41)
    1024                    .dwattr $C$DW$63, DW_AT_TI_end_column(0x01)
    1025                    .dwendentry
    1026                    .dwendtag $C$DW$63
    1027            
    1028 000000               .sect   ".text:USCI_B_SPI_changeClockPhasePolarity"
    1029                    .clink
    1030                    .global USCI_B_SPI_changeClockPhasePolarity
    1031            
    1032            $C$DW$70        .dwtag  DW_TAG_subprogram
    1033                    .dwattr $C$DW$70, DW_AT_name("USCI_B_SPI_changeClockPhasePolarity")
    1034                    .dwattr $C$DW$70, DW_AT_low_pc(USCI_B_SPI_changeClockPhasePolarity)
    1035                    .dwattr $C$DW$70, DW_AT_high_pc(0x00)
    1036                    .dwattr $C$DW$70, DW_AT_TI_symbol_name("USCI_B_SPI_changeClockPhasePolarity")
    1037                    .dwattr $C$DW$70, DW_AT_external
    1038                    .dwattr $C$DW$70, DW_AT_TI_begin_file("../MP430DriverLib/driverlib/MSP430F5xx_6xx/usci_b_spi.c
    1039                    .dwattr $C$DW$70, DW_AT_TI_begin_line(0x60)
    1040                    .dwattr $C$DW$70, DW_AT_TI_begin_column(0x06)
    1041                    .dwattr $C$DW$70, DW_AT_decl_file("../MP430DriverLib/driverlib/MSP430F5xx_6xx/usci_b_spi.c")
    1042                    .dwattr $C$DW$70, DW_AT_decl_line(0x60)
    1043                    .dwattr $C$DW$70, DW_AT_decl_column(0x06)
    1044                    .dwattr $C$DW$70, DW_AT_TI_max_frame_size(0x04)
    1045                    .dwpsn  file "../MP430DriverLib/driverlib/MSP430F5xx_6xx/usci_b_spi.c",line 100,column 1,is_st
    1046            
    1047                    .dwfde $C$DW$CIE, USCI_B_SPI_changeClockPhasePolarity
    1048            $C$DW$71        .dwtag  DW_TAG_formal_parameter
    1049                    .dwattr $C$DW$71, DW_AT_name("baseAddress")
    1050                    .dwattr $C$DW$71, DW_AT_TI_symbol_name("baseAddress")
    1051                    .dwattr $C$DW$71, DW_AT_type(*$C$DW$T$36)
    1052                    .dwattr $C$DW$71, DW_AT_location[DW_OP_reg12]
    1053            
    1054            $C$DW$72        .dwtag  DW_TAG_formal_parameter
    1055                    .dwattr $C$DW$72, DW_AT_name("clockPhase")
    1056                    .dwattr $C$DW$72, DW_AT_TI_symbol_name("clockPhase")
    1057                    .dwattr $C$DW$72, DW_AT_type(*$C$DW$T$26)
MSP430 Assembler PC v21.6.1 Tue Dec 20 13:45:55 2022

Copyright (c) 2003-2018 Texas Instruments Incorporated
usci_b_spi.asm                                                       PAGE   21

    1058                    .dwattr $C$DW$72, DW_AT_location[DW_OP_reg13]
    1059            
    1060            $C$DW$73        .dwtag  DW_TAG_formal_parameter
    1061                    .dwattr $C$DW$73, DW_AT_name("clockPolarity")
    1062                    .dwattr $C$DW$73, DW_AT_TI_symbol_name("clockPolarity")
    1063                    .dwattr $C$DW$73, DW_AT_type(*$C$DW$T$26)
    1064                    .dwattr $C$DW$73, DW_AT_location[DW_OP_reg14]
    1065            
    1066            
    1067            ;*****************************************************************************
    1068            ;* FUNCTION NAME: USCI_B_SPI_changeClockPhasePolarity                        *
    1069            ;*                                                                           *
    1070            ;*   Regs Modified     : SP,SR,r13,r15                                       *
    1071            ;*   Regs Used         : SP,SR,r12,r13,r14,r15                               *
    1072            ;*   Local Frame Size  : 0 Args + 0 Auto + 0 Save = 0 byte                   *
    1073            ;*****************************************************************************
    1074 000000       USCI_B_SPI_changeClockPhasePolarity:
    1075            ;* --------------------------------------------------------------------------*
    1076                    .dwcfi  cfa_offset, 4
    1077                    .dwcfi  save_reg_to_mem, 16, -4
    1078            ;* r12   assigned to baseAddress
    1079            $C$DW$74        .dwtag  DW_TAG_variable
    1080                    .dwattr $C$DW$74, DW_AT_name("baseAddress")
    1081                    .dwattr $C$DW$74, DW_AT_TI_symbol_name("baseAddress")
    1082                    .dwattr $C$DW$74, DW_AT_type(*$C$DW$T$36)
    1083                    .dwattr $C$DW$74, DW_AT_location[DW_OP_reg12]
    1084            
    1085            ;* r14   assigned to clockPolarity
    1086            $C$DW$75        .dwtag  DW_TAG_variable
    1087                    .dwattr $C$DW$75, DW_AT_name("clockPolarity")
    1088                    .dwattr $C$DW$75, DW_AT_TI_symbol_name("clockPolarity")
    1089                    .dwattr $C$DW$75, DW_AT_type(*$C$DW$T$26)
    1090                    .dwattr $C$DW$75, DW_AT_location[DW_OP_reg14]
    1091            
    1092                    .dwpsn  file "../MP430DriverLib/driverlib/MSP430F5xx_6xx/usci_b_spi.c",line 103,column 3,is_st
    1093 000000 D3DC          OR.B      #1,0(r12)             ; [] |103| 
         000002 0000 
    1094                    .dwpsn  file "../MP430DriverLib/driverlib/MSP430F5xx_6xx/usci_b_spi.c",line 105,column 3,is_st
    1095 000004 0CCF          MOVA      r12,r15               ; [] |105| 
    1096 000006 531F          ADD.W     #1,r15                ; [] |105| 
    1097 000008 4F0F          MOV.W     r15,r15               ; [] |105| 
    1098 00000a F0FF          AND.B     #63,0(r15)            ; [] |105| 
         00000c 003F 
         00000e 0000 
    1099                    .dwpsn  file "../MP430DriverLib/driverlib/MSP430F5xx_6xx/usci_b_spi.c",line 107,column 3,is_st
    1100 000010 0CCF          MOVA      r12,r15               ; [] |107| 
    1101 000012 531F          ADD.W     #1,r15                ; [] |107| 
    1102 000014 4F0F          MOV.W     r15,r15               ; [] |107| 
    1103 000016 5E4D          ADD.B     r14,r13               ; [] |107| 
    1104 000018 DDCF          OR.B      r13,0(r15)            ; [] |107| 
         00001a 0000 
    1105                    .dwpsn  file "../MP430DriverLib/driverlib/MSP430F5xx_6xx/usci_b_spi.c",line 113,column 3,is_st
    1106 00001c C3DC          BIC.B     #1,0(r12)             ; [] |113| 
         00001e 0000 
    1107                    .dwpsn  file "../MP430DriverLib/driverlib/MSP430F5xx_6xx/usci_b_spi.c",line 114,column 1,is_st
MSP430 Assembler PC v21.6.1 Tue Dec 20 13:45:55 2022

Copyright (c) 2003-2018 Texas Instruments Incorporated
usci_b_spi.asm                                                       PAGE   22

    1108            $C$DW$76        .dwtag  DW_TAG_TI_branch
    1109                    .dwattr $C$DW$76, DW_AT_low_pc(0x00)
    1110                    .dwattr $C$DW$76, DW_AT_TI_return
    1111            
    1112 000020 0110          RETA      ; [] 
    1113                    ; [] 
    1114                    .dwattr $C$DW$70, DW_AT_TI_end_file("../MP430DriverLib/driverlib/MSP430F5xx_6xx/usci_b_spi.c")
    1115                    .dwattr $C$DW$70, DW_AT_TI_end_line(0x72)
    1116                    .dwattr $C$DW$70, DW_AT_TI_end_column(0x01)
    1117                    .dwendentry
    1118                    .dwendtag $C$DW$70
    1119            
    1120            ;*****************************************************************************
    1121            ;* UNDEFINED EXTERNAL REFERENCES                                             *
    1122            ;*****************************************************************************
    1123                    .global __mspabi_divul
    1124            
    1125            ;******************************************************************************
    1126            ;* BUILD ATTRIBUTES                                                           *
    1127            ;******************************************************************************
    1128                    .battr "TI", Tag_File, 1, Tag_LPM_INFO(1)
    1129                    .battr "TI", Tag_File, 1, Tag_PORTS_INIT_INFO("012345678901ABCDEFGHIJ0000000000001111110000000
    1130                    .battr "TI", Tag_File, 1, Tag_LEA_INFO(1)
    1131                    .battr "TI", Tag_File, 1, Tag_HW_MPY32_INFO(2)
    1132                    .battr "TI", Tag_File, 1, Tag_HW_MPY_ISR_INFO(1)
    1133                    .battr "TI", Tag_File, 1, Tag_HW_MPY_INLINE_INFO(1)
    1134                    .battr "mspabi", Tag_File, 1, Tag_enum_size(3)
    1135            
    1136            ;******************************************************************************
    1137            ;* TYPE INFORMATION                                                           *
    1138            ;******************************************************************************
    1139            
    1140            $C$DW$T$21      .dwtag  DW_TAG_structure_type
    1141                    .dwattr $C$DW$T$21, DW_AT_byte_size(0x10)
    1142            $C$DW$77        .dwtag  DW_TAG_member
    1143                    .dwattr $C$DW$77, DW_AT_type(*$C$DW$T$14)
    1144                    .dwattr $C$DW$77, DW_AT_name("__max_align1")
    1145                    .dwattr $C$DW$77, DW_AT_TI_symbol_name("__max_align1")
    1146                    .dwattr $C$DW$77, DW_AT_data_member_location[DW_OP_plus_uconst 0x0]
    1147                    .dwattr $C$DW$77, DW_AT_accessibility(DW_ACCESS_public)
    1148                    .dwattr $C$DW$77, DW_AT_decl_file("C:/ti/ccs1110/ccs/tools/compiler/ti-cgt-msp430_21.6.1.LTS/i
    1149                    .dwattr $C$DW$77, DW_AT_decl_line(0x7b)
    1150                    .dwattr $C$DW$77, DW_AT_decl_column(0x0c)
    1151            
    1152            $C$DW$78        .dwtag  DW_TAG_member
    1153                    .dwattr $C$DW$78, DW_AT_type(*$C$DW$T$18)
    1154                    .dwattr $C$DW$78, DW_AT_name("__max_align2")
    1155                    .dwattr $C$DW$78, DW_AT_TI_symbol_name("__max_align2")
    1156                    .dwattr $C$DW$78, DW_AT_data_member_location[DW_OP_plus_uconst 0x8]
    1157                    .dwattr $C$DW$78, DW_AT_accessibility(DW_ACCESS_public)
    1158                    .dwattr $C$DW$78, DW_AT_decl_file("C:/ti/ccs1110/ccs/tools/compiler/ti-cgt-msp430_21.6.1.LTS/i
    1159                    .dwattr $C$DW$78, DW_AT_decl_line(0x7c)
    1160                    .dwattr $C$DW$78, DW_AT_decl_column(0x0e)
    1161            
    1162                    .dwattr $C$DW$T$21, DW_AT_decl_file("C:/ti/ccs1110/ccs/tools/compiler/ti-cgt-msp430_21.6.1.LTS
MSP430 Assembler PC v21.6.1 Tue Dec 20 13:45:55 2022

Copyright (c) 2003-2018 Texas Instruments Incorporated
usci_b_spi.asm                                                       PAGE   23

    1163                    .dwattr $C$DW$T$21, DW_AT_decl_line(0x7a)
    1164                    .dwattr $C$DW$T$21, DW_AT_decl_column(0x10)
    1165                    .dwendtag $C$DW$T$21
    1166            
    1167            $C$DW$T$28      .dwtag  DW_TAG_typedef
    1168                    .dwattr $C$DW$T$28, DW_AT_name("__max_align_t")
    1169                    .dwattr $C$DW$T$28, DW_AT_type(*$C$DW$T$21)
    1170                    .dwattr $C$DW$T$28, DW_AT_language(DW_LANG_C)
    1171                    .dwattr $C$DW$T$28, DW_AT_decl_file("C:/ti/ccs1110/ccs/tools/compiler/ti-cgt-msp430_21.6.1.LTS
    1172                    .dwattr $C$DW$T$28, DW_AT_decl_line(0x7d)
    1173                    .dwattr $C$DW$T$28, DW_AT_decl_column(0x03)
    1174            
    1175            
    1176            $C$DW$T$24      .dwtag  DW_TAG_structure_type
    1177                    .dwattr $C$DW$T$24, DW_AT_name("USCI_B_SPI_changeMasterClockParam")
    1178                    .dwattr $C$DW$T$24, DW_AT_byte_size(0x08)
    1179            $C$DW$79        .dwtag  DW_TAG_member
    1180                    .dwattr $C$DW$79, DW_AT_type(*$C$DW$T$23)
    1181                    .dwattr $C$DW$79, DW_AT_name("clockSourceFrequency")
    1182                    .dwattr $C$DW$79, DW_AT_TI_symbol_name("clockSourceFrequency")
    1183                    .dwattr $C$DW$79, DW_AT_data_member_location[DW_OP_plus_uconst 0x0]
    1184                    .dwattr $C$DW$79, DW_AT_accessibility(DW_ACCESS_public)
    1185                    .dwattr $C$DW$79, DW_AT_decl_file("..\MP430DriverLib\driverlib\MSP430F5xx_6xx\usci_b_spi.h")
    1186                    .dwattr $C$DW$79, DW_AT_decl_line(0x41)
    1187                    .dwattr $C$DW$79, DW_AT_decl_column(0x0e)
    1188            
    1189            $C$DW$80        .dwtag  DW_TAG_member
    1190                    .dwattr $C$DW$80, DW_AT_type(*$C$DW$T$23)
    1191                    .dwattr $C$DW$80, DW_AT_name("desiredSpiClock")
    1192                    .dwattr $C$DW$80, DW_AT_TI_symbol_name("desiredSpiClock")
    1193                    .dwattr $C$DW$80, DW_AT_data_member_location[DW_OP_plus_uconst 0x4]
    1194                    .dwattr $C$DW$80, DW_AT_accessibility(DW_ACCESS_public)
    1195                    .dwattr $C$DW$80, DW_AT_decl_file("..\MP430DriverLib\driverlib\MSP430F5xx_6xx\usci_b_spi.h")
    1196                    .dwattr $C$DW$80, DW_AT_decl_line(0x43)
    1197                    .dwattr $C$DW$80, DW_AT_decl_column(0x0e)
    1198            
    1199                    .dwattr $C$DW$T$24, DW_AT_decl_file("..\MP430DriverLib\driverlib\MSP430F5xx_6xx\usci_b_spi.h")
    1200                    .dwattr $C$DW$T$24, DW_AT_decl_line(0x3f)
    1201                    .dwattr $C$DW$T$24, DW_AT_decl_column(0x10)
    1202                    .dwendtag $C$DW$T$24
    1203            
    1204            $C$DW$T$29      .dwtag  DW_TAG_typedef
    1205                    .dwattr $C$DW$T$29, DW_AT_name("USCI_B_SPI_changeMasterClockParam")
    1206                    .dwattr $C$DW$T$29, DW_AT_type(*$C$DW$T$24)
    1207                    .dwattr $C$DW$T$29, DW_AT_language(DW_LANG_C)
    1208                    .dwattr $C$DW$T$29, DW_AT_decl_file("..\MP430DriverLib\driverlib\MSP430F5xx_6xx\usci_b_spi.h")
    1209                    .dwattr $C$DW$T$29, DW_AT_decl_line(0x44)
    1210                    .dwattr $C$DW$T$29, DW_AT_decl_column(0x03)
    1211            
    1212            $C$DW$T$30      .dwtag  DW_TAG_pointer_type
    1213                    .dwattr $C$DW$T$30, DW_AT_type(*$C$DW$T$29)
    1214                    .dwattr $C$DW$T$30, DW_AT_address_class(0x14)
    1215            
    1216            
    1217            $C$DW$T$27      .dwtag  DW_TAG_structure_type
MSP430 Assembler PC v21.6.1 Tue Dec 20 13:45:55 2022

Copyright (c) 2003-2018 Texas Instruments Incorporated
usci_b_spi.asm                                                       PAGE   24

    1218                    .dwattr $C$DW$T$27, DW_AT_name("USCI_B_SPI_initMasterParam")
    1219                    .dwattr $C$DW$T$27, DW_AT_byte_size(0x0e)
    1220            $C$DW$81        .dwtag  DW_TAG_member
    1221                    .dwattr $C$DW$81, DW_AT_type(*$C$DW$T$26)
    1222                    .dwattr $C$DW$81, DW_AT_name("selectClockSource")
    1223                    .dwattr $C$DW$81, DW_AT_TI_symbol_name("selectClockSource")
    1224                    .dwattr $C$DW$81, DW_AT_data_member_location[DW_OP_plus_uconst 0x0]
    1225                    .dwattr $C$DW$81, DW_AT_accessibility(DW_ACCESS_public)
    1226                    .dwattr $C$DW$81, DW_AT_decl_file("..\MP430DriverLib\driverlib\MSP430F5xx_6xx\usci_b_spi.h")
    1227                    .dwattr $C$DW$81, DW_AT_decl_line(0x24)
    1228                    .dwattr $C$DW$81, DW_AT_decl_column(0x0d)
    1229            
    1230            $C$DW$82        .dwtag  DW_TAG_member
    1231                    .dwattr $C$DW$82, DW_AT_type(*$C$DW$T$23)
    1232                    .dwattr $C$DW$82, DW_AT_name("clockSourceFrequency")
    1233                    .dwattr $C$DW$82, DW_AT_TI_symbol_name("clockSourceFrequency")
    1234                    .dwattr $C$DW$82, DW_AT_data_member_location[DW_OP_plus_uconst 0x2]
    1235                    .dwattr $C$DW$82, DW_AT_accessibility(DW_ACCESS_public)
    1236                    .dwattr $C$DW$82, DW_AT_decl_file("..\MP430DriverLib\driverlib\MSP430F5xx_6xx\usci_b_spi.h")
    1237                    .dwattr $C$DW$82, DW_AT_decl_line(0x26)
    1238                    .dwattr $C$DW$82, DW_AT_decl_column(0x0e)
    1239            
    1240            $C$DW$83        .dwtag  DW_TAG_member
    1241                    .dwattr $C$DW$83, DW_AT_type(*$C$DW$T$23)
    1242                    .dwattr $C$DW$83, DW_AT_name("desiredSpiClock")
    1243                    .dwattr $C$DW$83, DW_AT_TI_symbol_name("desiredSpiClock")
    1244                    .dwattr $C$DW$83, DW_AT_data_member_location[DW_OP_plus_uconst 0x6]
    1245                    .dwattr $C$DW$83, DW_AT_accessibility(DW_ACCESS_public)
    1246                    .dwattr $C$DW$83, DW_AT_decl_file("..\MP430DriverLib\driverlib\MSP430F5xx_6xx\usci_b_spi.h")
    1247                    .dwattr $C$DW$83, DW_AT_decl_line(0x28)
    1248                    .dwattr $C$DW$83, DW_AT_decl_column(0x0e)
    1249            
    1250            $C$DW$84        .dwtag  DW_TAG_member
    1251                    .dwattr $C$DW$84, DW_AT_type(*$C$DW$T$26)
    1252                    .dwattr $C$DW$84, DW_AT_name("msbFirst")
    1253                    .dwattr $C$DW$84, DW_AT_TI_symbol_name("msbFirst")
    1254                    .dwattr $C$DW$84, DW_AT_data_member_location[DW_OP_plus_uconst 0xa]
    1255                    .dwattr $C$DW$84, DW_AT_accessibility(DW_ACCESS_public)
    1256                    .dwattr $C$DW$84, DW_AT_decl_file("..\MP430DriverLib\driverlib\MSP430F5xx_6xx\usci_b_spi.h")
    1257                    .dwattr $C$DW$84, DW_AT_decl_line(0x2d)
    1258                    .dwattr $C$DW$84, DW_AT_decl_column(0x0d)
    1259            
    1260            $C$DW$85        .dwtag  DW_TAG_member
    1261                    .dwattr $C$DW$85, DW_AT_type(*$C$DW$T$26)
    1262                    .dwattr $C$DW$85, DW_AT_name("clockPhase")
    1263                    .dwattr $C$DW$85, DW_AT_TI_symbol_name("clockPhase")
    1264                    .dwattr $C$DW$85, DW_AT_data_member_location[DW_OP_plus_uconst 0xb]
    1265                    .dwattr $C$DW$85, DW_AT_accessibility(DW_ACCESS_public)
    1266                    .dwattr $C$DW$85, DW_AT_decl_file("..\MP430DriverLib\driverlib\MSP430F5xx_6xx\usci_b_spi.h")
    1267                    .dwattr $C$DW$85, DW_AT_decl_line(0x32)
    1268                    .dwattr $C$DW$85, DW_AT_decl_column(0x0d)
    1269            
    1270            $C$DW$86        .dwtag  DW_TAG_member
    1271                    .dwattr $C$DW$86, DW_AT_type(*$C$DW$T$26)
    1272                    .dwattr $C$DW$86, DW_AT_name("clockPolarity")
MSP430 Assembler PC v21.6.1 Tue Dec 20 13:45:55 2022

Copyright (c) 2003-2018 Texas Instruments Incorporated
usci_b_spi.asm                                                       PAGE   25

    1273                    .dwattr $C$DW$86, DW_AT_TI_symbol_name("clockPolarity")
    1274                    .dwattr $C$DW$86, DW_AT_data_member_location[DW_OP_plus_uconst 0xc]
    1275                    .dwattr $C$DW$86, DW_AT_accessibility(DW_ACCESS_public)
    1276                    .dwattr $C$DW$86, DW_AT_decl_file("..\MP430DriverLib\driverlib\MSP430F5xx_6xx\usci_b_spi.h")
    1277                    .dwattr $C$DW$86, DW_AT_decl_line(0x36)
    1278                    .dwattr $C$DW$86, DW_AT_decl_column(0x0d)
    1279            
    1280                    .dwattr $C$DW$T$27, DW_AT_decl_file("..\MP430DriverLib\driverlib\MSP430F5xx_6xx\usci_b_spi.h")
    1281                    .dwattr $C$DW$T$27, DW_AT_decl_line(0x1f)
    1282                    .dwattr $C$DW$T$27, DW_AT_decl_column(0x10)
    1283                    .dwendtag $C$DW$T$27
    1284            
    1285            $C$DW$T$32      .dwtag  DW_TAG_typedef
    1286                    .dwattr $C$DW$T$32, DW_AT_name("USCI_B_SPI_initMasterParam")
    1287                    .dwattr $C$DW$T$32, DW_AT_type(*$C$DW$T$27)
    1288                    .dwattr $C$DW$T$32, DW_AT_language(DW_LANG_C)
    1289                    .dwattr $C$DW$T$32, DW_AT_decl_file("..\MP430DriverLib\driverlib\MSP430F5xx_6xx\usci_b_spi.h")
    1290                    .dwattr $C$DW$T$32, DW_AT_decl_line(0x37)
    1291                    .dwattr $C$DW$T$32, DW_AT_decl_column(0x03)
    1292            
    1293            $C$DW$T$33      .dwtag  DW_TAG_pointer_type
    1294                    .dwattr $C$DW$T$33, DW_AT_type(*$C$DW$T$32)
    1295                    .dwattr $C$DW$T$33, DW_AT_address_class(0x14)
    1296            
    1297            $C$DW$T$2       .dwtag  DW_TAG_unspecified_type
    1298                    .dwattr $C$DW$T$2, DW_AT_name("void")
    1299            
    1300            
    1301            $C$DW$T$41      .dwtag  DW_TAG_subroutine_type
    1302                    .dwattr $C$DW$T$41, DW_AT_language(DW_LANG_C)
    1303                    .dwendtag $C$DW$T$41
    1304            
    1305            $C$DW$T$42      .dwtag  DW_TAG_pointer_type
    1306                    .dwattr $C$DW$T$42, DW_AT_type(*$C$DW$T$41)
    1307                    .dwattr $C$DW$T$42, DW_AT_address_class(0x14)
    1308            
    1309            $C$DW$T$43      .dwtag  DW_TAG_typedef
    1310                    .dwattr $C$DW$T$43, DW_AT_name("__SFR_FARPTR")
    1311                    .dwattr $C$DW$T$43, DW_AT_type(*$C$DW$T$42)
    1312                    .dwattr $C$DW$T$43, DW_AT_language(DW_LANG_C)
    1313                    .dwattr $C$DW$T$43, DW_AT_decl_file("C:\ti\ccs1110\ccs\ccs_base\msp430\include\msp430f5438a.h"
    1314                    .dwattr $C$DW$T$43, DW_AT_decl_line(0x49)
    1315                    .dwattr $C$DW$T$43, DW_AT_decl_column(0x11)
    1316            
    1317            $C$DW$T$4       .dwtag  DW_TAG_base_type
    1318                    .dwattr $C$DW$T$4, DW_AT_encoding(DW_ATE_boolean)
    1319                    .dwattr $C$DW$T$4, DW_AT_name("bool")
    1320                    .dwattr $C$DW$T$4, DW_AT_byte_size(0x01)
    1321            
    1322            $C$DW$T$5       .dwtag  DW_TAG_base_type
    1323                    .dwattr $C$DW$T$5, DW_AT_encoding(DW_ATE_signed_char)
    1324                    .dwattr $C$DW$T$5, DW_AT_name("signed char")
    1325                    .dwattr $C$DW$T$5, DW_AT_byte_size(0x01)
    1326            
    1327            $C$DW$T$44      .dwtag  DW_TAG_typedef
MSP430 Assembler PC v21.6.1 Tue Dec 20 13:45:55 2022

Copyright (c) 2003-2018 Texas Instruments Incorporated
usci_b_spi.asm                                                       PAGE   26

    1328                    .dwattr $C$DW$T$44, DW_AT_name("__int8_t")
    1329                    .dwattr $C$DW$T$44, DW_AT_type(*$C$DW$T$5)
    1330                    .dwattr $C$DW$T$44, DW_AT_language(DW_LANG_C)
    1331                    .dwattr $C$DW$T$44, DW_AT_decl_file("C:/ti/ccs1110/ccs/tools/compiler/ti-cgt-msp430_21.6.1.LTS
    1332                    .dwattr $C$DW$T$44, DW_AT_decl_line(0x36)
    1333                    .dwattr $C$DW$T$44, DW_AT_decl_column(0x16)
    1334            
    1335            $C$DW$T$45      .dwtag  DW_TAG_typedef
    1336                    .dwattr $C$DW$T$45, DW_AT_name("__int_least8_t")
    1337                    .dwattr $C$DW$T$45, DW_AT_type(*$C$DW$T$44)
    1338                    .dwattr $C$DW$T$45, DW_AT_language(DW_LANG_C)
    1339                    .dwattr $C$DW$T$45, DW_AT_decl_file("C:/ti/ccs1110/ccs/tools/compiler/ti-cgt-msp430_21.6.1.LTS
    1340                    .dwattr $C$DW$T$45, DW_AT_decl_line(0x5a)
    1341                    .dwattr $C$DW$T$45, DW_AT_decl_column(0x12)
    1342            
    1343            $C$DW$T$46      .dwtag  DW_TAG_typedef
    1344                    .dwattr $C$DW$T$46, DW_AT_name("int_least8_t")
    1345                    .dwattr $C$DW$T$46, DW_AT_type(*$C$DW$T$45)
    1346                    .dwattr $C$DW$T$46, DW_AT_language(DW_LANG_C)
    1347                    .dwattr $C$DW$T$46, DW_AT_decl_file("C:/ti/ccs1110/ccs/tools/compiler/ti-cgt-msp430_21.6.1.LTS
    1348                    .dwattr $C$DW$T$46, DW_AT_decl_line(0x2a)
    1349                    .dwattr $C$DW$T$46, DW_AT_decl_column(0x19)
    1350            
    1351            $C$DW$T$47      .dwtag  DW_TAG_typedef
    1352                    .dwattr $C$DW$T$47, DW_AT_name("int8_t")
    1353                    .dwattr $C$DW$T$47, DW_AT_type(*$C$DW$T$44)
    1354                    .dwattr $C$DW$T$47, DW_AT_language(DW_LANG_C)
    1355                    .dwattr $C$DW$T$47, DW_AT_decl_file("C:/ti/ccs1110/ccs/tools/compiler/ti-cgt-msp430_21.6.1.LTS
    1356                    .dwattr $C$DW$T$47, DW_AT_decl_line(0x25)
    1357                    .dwattr $C$DW$T$47, DW_AT_decl_column(0x13)
    1358            
    1359            $C$DW$T$6       .dwtag  DW_TAG_base_type
    1360                    .dwattr $C$DW$T$6, DW_AT_encoding(DW_ATE_unsigned_char)
    1361                    .dwattr $C$DW$T$6, DW_AT_name("unsigned char")
    1362                    .dwattr $C$DW$T$6, DW_AT_byte_size(0x01)
    1363            
    1364            $C$DW$T$25      .dwtag  DW_TAG_typedef
    1365                    .dwattr $C$DW$T$25, DW_AT_name("__uint8_t")
    1366                    .dwattr $C$DW$T$25, DW_AT_type(*$C$DW$T$6)
    1367                    .dwattr $C$DW$T$25, DW_AT_language(DW_LANG_C)
    1368                    .dwattr $C$DW$T$25, DW_AT_decl_file("C:/ti/ccs1110/ccs/tools/compiler/ti-cgt-msp430_21.6.1.LTS
    1369                    .dwattr $C$DW$T$25, DW_AT_decl_line(0x37)
    1370                    .dwattr $C$DW$T$25, DW_AT_decl_column(0x18)
    1371            
    1372            $C$DW$T$54      .dwtag  DW_TAG_typedef
    1373                    .dwattr $C$DW$T$54, DW_AT_name("__sa_family_t")
    1374                    .dwattr $C$DW$T$54, DW_AT_type(*$C$DW$T$25)
    1375                    .dwattr $C$DW$T$54, DW_AT_language(DW_LANG_C)
    1376                    .dwattr $C$DW$T$54, DW_AT_decl_file("C:/ti/ccs1110/ccs/tools/compiler/ti-cgt-msp430_21.6.1.LTS
    1377                    .dwattr $C$DW$T$54, DW_AT_decl_line(0x47)
    1378                    .dwattr $C$DW$T$54, DW_AT_decl_column(0x13)
    1379            
    1380            $C$DW$T$55      .dwtag  DW_TAG_typedef
    1381                    .dwattr $C$DW$T$55, DW_AT_name("__uint_least8_t")
    1382                    .dwattr $C$DW$T$55, DW_AT_type(*$C$DW$T$25)
MSP430 Assembler PC v21.6.1 Tue Dec 20 13:45:55 2022

Copyright (c) 2003-2018 Texas Instruments Incorporated
usci_b_spi.asm                                                       PAGE   27

    1383                    .dwattr $C$DW$T$55, DW_AT_language(DW_LANG_C)
    1384                    .dwattr $C$DW$T$55, DW_AT_decl_file("C:/ti/ccs1110/ccs/tools/compiler/ti-cgt-msp430_21.6.1.LTS
    1385                    .dwattr $C$DW$T$55, DW_AT_decl_line(0x74)
    1386                    .dwattr $C$DW$T$55, DW_AT_decl_column(0x13)
    1387            
    1388            $C$DW$T$56      .dwtag  DW_TAG_typedef
    1389                    .dwattr $C$DW$T$56, DW_AT_name("uint_least8_t")
    1390                    .dwattr $C$DW$T$56, DW_AT_type(*$C$DW$T$55)
    1391                    .dwattr $C$DW$T$56, DW_AT_language(DW_LANG_C)
    1392                    .dwattr $C$DW$T$56, DW_AT_decl_file("C:/ti/ccs1110/ccs/tools/compiler/ti-cgt-msp430_21.6.1.LTS
    1393                    .dwattr $C$DW$T$56, DW_AT_decl_line(0x2f)
    1394                    .dwattr $C$DW$T$56, DW_AT_decl_column(0x1a)
    1395            
    1396            $C$DW$T$26      .dwtag  DW_TAG_typedef
    1397                    .dwattr $C$DW$T$26, DW_AT_name("uint8_t")
    1398                    .dwattr $C$DW$T$26, DW_AT_type(*$C$DW$T$25)
    1399                    .dwattr $C$DW$T$26, DW_AT_language(DW_LANG_C)
    1400                    .dwattr $C$DW$T$26, DW_AT_decl_file("C:/ti/ccs1110/ccs/tools/compiler/ti-cgt-msp430_21.6.1.LTS
    1401                    .dwattr $C$DW$T$26, DW_AT_decl_line(0x3b)
    1402                    .dwattr $C$DW$T$26, DW_AT_decl_column(0x14)
    1403            
    1404            $C$DW$T$7       .dwtag  DW_TAG_base_type
    1405                    .dwattr $C$DW$T$7, DW_AT_encoding(DW_ATE_signed_char)
    1406                    .dwattr $C$DW$T$7, DW_AT_name("wchar_t")
    1407                    .dwattr $C$DW$T$7, DW_AT_byte_size(0x02)
    1408            
    1409            $C$DW$T$8       .dwtag  DW_TAG_base_type
    1410                    .dwattr $C$DW$T$8, DW_AT_encoding(DW_ATE_signed)
    1411                    .dwattr $C$DW$T$8, DW_AT_name("short")
    1412                    .dwattr $C$DW$T$8, DW_AT_byte_size(0x02)
    1413            
    1414            $C$DW$T$9       .dwtag  DW_TAG_base_type
    1415                    .dwattr $C$DW$T$9, DW_AT_encoding(DW_ATE_unsigned)
    1416                    .dwattr $C$DW$T$9, DW_AT_name("unsigned short")
    1417                    .dwattr $C$DW$T$9, DW_AT_byte_size(0x02)
    1418            
    1419            $C$DW$T$10      .dwtag  DW_TAG_base_type
    1420                    .dwattr $C$DW$T$10, DW_AT_encoding(DW_ATE_signed)
    1421                    .dwattr $C$DW$T$10, DW_AT_name("int")
    1422                    .dwattr $C$DW$T$10, DW_AT_byte_size(0x02)
    1423            
    1424            $C$DW$T$59      .dwtag  DW_TAG_typedef
    1425                    .dwattr $C$DW$T$59, DW_AT_name("_Mbstatet")
    1426                    .dwattr $C$DW$T$59, DW_AT_type(*$C$DW$T$10)
    1427                    .dwattr $C$DW$T$59, DW_AT_language(DW_LANG_C)
    1428                    .dwattr $C$DW$T$59, DW_AT_decl_file("C:/ti/ccs1110/ccs/tools/compiler/ti-cgt-msp430_21.6.1.LTS
    1429                    .dwattr $C$DW$T$59, DW_AT_decl_line(0x8f)
    1430                    .dwattr $C$DW$T$59, DW_AT_decl_column(0x0d)
    1431            
    1432            $C$DW$T$60      .dwtag  DW_TAG_typedef
    1433                    .dwattr $C$DW$T$60, DW_AT_name("__mbstate_t")
    1434                    .dwattr $C$DW$T$60, DW_AT_type(*$C$DW$T$59)
    1435                    .dwattr $C$DW$T$60, DW_AT_language(DW_LANG_C)
    1436                    .dwattr $C$DW$T$60, DW_AT_decl_file("C:/ti/ccs1110/ccs/tools/compiler/ti-cgt-msp430_21.6.1.LTS
    1437                    .dwattr $C$DW$T$60, DW_AT_decl_line(0x92)
MSP430 Assembler PC v21.6.1 Tue Dec 20 13:45:55 2022

Copyright (c) 2003-2018 Texas Instruments Incorporated
usci_b_spi.asm                                                       PAGE   28

    1438                    .dwattr $C$DW$T$60, DW_AT_decl_column(0x13)
    1439            
    1440            $C$DW$T$61      .dwtag  DW_TAG_typedef
    1441                    .dwattr $C$DW$T$61, DW_AT_name("__accmode_t")
    1442                    .dwattr $C$DW$T$61, DW_AT_type(*$C$DW$T$10)
    1443                    .dwattr $C$DW$T$61, DW_AT_language(DW_LANG_C)
    1444                    .dwattr $C$DW$T$61, DW_AT_decl_file("C:/ti/ccs1110/ccs/tools/compiler/ti-cgt-msp430_21.6.1.LTS
    1445                    .dwattr $C$DW$T$61, DW_AT_decl_line(0x3b)
    1446                    .dwattr $C$DW$T$61, DW_AT_decl_column(0x0e)
    1447            
    1448            $C$DW$T$62      .dwtag  DW_TAG_typedef
    1449                    .dwattr $C$DW$T$62, DW_AT_name("__cpulevel_t")
    1450                    .dwattr $C$DW$T$62, DW_AT_type(*$C$DW$T$10)
    1451                    .dwattr $C$DW$T$62, DW_AT_language(DW_LANG_C)
    1452                    .dwattr $C$DW$T$62, DW_AT_decl_file("C:/ti/ccs1110/ccs/tools/compiler/ti-cgt-msp430_21.6.1.LTS
    1453                    .dwattr $C$DW$T$62, DW_AT_decl_line(0x50)
    1454                    .dwattr $C$DW$T$62, DW_AT_decl_column(0x0e)
    1455            
    1456            $C$DW$T$63      .dwtag  DW_TAG_typedef
    1457                    .dwattr $C$DW$T$63, DW_AT_name("__cpusetid_t")
    1458                    .dwattr $C$DW$T$63, DW_AT_type(*$C$DW$T$10)
    1459                    .dwattr $C$DW$T$63, DW_AT_language(DW_LANG_C)
    1460                    .dwattr $C$DW$T$63, DW_AT_decl_file("C:/ti/ccs1110/ccs/tools/compiler/ti-cgt-msp430_21.6.1.LTS
    1461                    .dwattr $C$DW$T$63, DW_AT_decl_line(0x51)
    1462                    .dwattr $C$DW$T$63, DW_AT_decl_column(0x0e)
    1463            
    1464            $C$DW$T$64      .dwtag  DW_TAG_typedef
    1465                    .dwattr $C$DW$T$64, DW_AT_name("__cpuwhich_t")
    1466                    .dwattr $C$DW$T$64, DW_AT_type(*$C$DW$T$10)
    1467                    .dwattr $C$DW$T$64, DW_AT_language(DW_LANG_C)
    1468                    .dwattr $C$DW$T$64, DW_AT_decl_file("C:/ti/ccs1110/ccs/tools/compiler/ti-cgt-msp430_21.6.1.LTS
    1469                    .dwattr $C$DW$T$64, DW_AT_decl_line(0x4f)
    1470                    .dwattr $C$DW$T$64, DW_AT_decl_column(0x0e)
    1471            
    1472            $C$DW$T$65      .dwtag  DW_TAG_typedef
    1473                    .dwattr $C$DW$T$65, DW_AT_name("__ct_rune_t")
    1474                    .dwattr $C$DW$T$65, DW_AT_type(*$C$DW$T$10)
    1475                    .dwattr $C$DW$T$65, DW_AT_language(DW_LANG_C)
    1476                    .dwattr $C$DW$T$65, DW_AT_decl_file("C:/ti/ccs1110/ccs/tools/compiler/ti-cgt-msp430_21.6.1.LTS
    1477                    .dwattr $C$DW$T$65, DW_AT_decl_line(0x69)
    1478                    .dwattr $C$DW$T$65, DW_AT_decl_column(0x0e)
    1479            
    1480            $C$DW$T$66      .dwtag  DW_TAG_typedef
    1481                    .dwattr $C$DW$T$66, DW_AT_name("__rune_t")
    1482                    .dwattr $C$DW$T$66, DW_AT_type(*$C$DW$T$65)
    1483                    .dwattr $C$DW$T$66, DW_AT_language(DW_LANG_C)
    1484                    .dwattr $C$DW$T$66, DW_AT_decl_file("C:/ti/ccs1110/ccs/tools/compiler/ti-cgt-msp430_21.6.1.LTS
    1485                    .dwattr $C$DW$T$66, DW_AT_decl_line(0x6c)
    1486                    .dwattr $C$DW$T$66, DW_AT_decl_column(0x15)
    1487            
    1488            $C$DW$T$67      .dwtag  DW_TAG_typedef
    1489                    .dwattr $C$DW$T$67, DW_AT_name("__wint_t")
    1490                    .dwattr $C$DW$T$67, DW_AT_type(*$C$DW$T$65)
    1491                    .dwattr $C$DW$T$67, DW_AT_language(DW_LANG_C)
    1492                    .dwattr $C$DW$T$67, DW_AT_decl_file("C:/ti/ccs1110/ccs/tools/compiler/ti-cgt-msp430_21.6.1.LTS
MSP430 Assembler PC v21.6.1 Tue Dec 20 13:45:55 2022

Copyright (c) 2003-2018 Texas Instruments Incorporated
usci_b_spi.asm                                                       PAGE   29

    1493                    .dwattr $C$DW$T$67, DW_AT_decl_line(0x6d)
    1494                    .dwattr $C$DW$T$67, DW_AT_decl_column(0x15)
    1495            
    1496            $C$DW$T$68      .dwtag  DW_TAG_typedef
    1497                    .dwattr $C$DW$T$68, DW_AT_name("__int16_t")
    1498                    .dwattr $C$DW$T$68, DW_AT_type(*$C$DW$T$10)
    1499                    .dwattr $C$DW$T$68, DW_AT_language(DW_LANG_C)
    1500                    .dwattr $C$DW$T$68, DW_AT_decl_file("C:/ti/ccs1110/ccs/tools/compiler/ti-cgt-msp430_21.6.1.LTS
    1501                    .dwattr $C$DW$T$68, DW_AT_decl_line(0x38)
    1502                    .dwattr $C$DW$T$68, DW_AT_decl_column(0x0f)
    1503            
    1504            $C$DW$T$69      .dwtag  DW_TAG_typedef
    1505                    .dwattr $C$DW$T$69, DW_AT_name("__int_fast16_t")
    1506                    .dwattr $C$DW$T$69, DW_AT_type(*$C$DW$T$68)
    1507                    .dwattr $C$DW$T$69, DW_AT_language(DW_LANG_C)
    1508                    .dwattr $C$DW$T$69, DW_AT_decl_file("C:/ti/ccs1110/ccs/tools/compiler/ti-cgt-msp430_21.6.1.LTS
    1509                    .dwattr $C$DW$T$69, DW_AT_decl_line(0x57)
    1510                    .dwattr $C$DW$T$69, DW_AT_decl_column(0x13)
    1511            
    1512            $C$DW$T$70      .dwtag  DW_TAG_typedef
    1513                    .dwattr $C$DW$T$70, DW_AT_name("int_fast16_t")
    1514                    .dwattr $C$DW$T$70, DW_AT_type(*$C$DW$T$69)
    1515                    .dwattr $C$DW$T$70, DW_AT_language(DW_LANG_C)
    1516                    .dwattr $C$DW$T$70, DW_AT_decl_file("C:/ti/ccs1110/ccs/tools/compiler/ti-cgt-msp430_21.6.1.LTS
    1517                    .dwattr $C$DW$T$70, DW_AT_decl_line(0x35)
    1518                    .dwattr $C$DW$T$70, DW_AT_decl_column(0x19)
    1519            
    1520            $C$DW$T$71      .dwtag  DW_TAG_typedef
    1521                    .dwattr $C$DW$T$71, DW_AT_name("__int_fast8_t")
    1522                    .dwattr $C$DW$T$71, DW_AT_type(*$C$DW$T$68)
    1523                    .dwattr $C$DW$T$71, DW_AT_language(DW_LANG_C)
    1524                    .dwattr $C$DW$T$71, DW_AT_decl_file("C:/ti/ccs1110/ccs/tools/compiler/ti-cgt-msp430_21.6.1.LTS
    1525                    .dwattr $C$DW$T$71, DW_AT_decl_line(0x56)
    1526                    .dwattr $C$DW$T$71, DW_AT_decl_column(0x13)
    1527            
    1528            $C$DW$T$72      .dwtag  DW_TAG_typedef
    1529                    .dwattr $C$DW$T$72, DW_AT_name("int_fast8_t")
    1530                    .dwattr $C$DW$T$72, DW_AT_type(*$C$DW$T$71)
    1531                    .dwattr $C$DW$T$72, DW_AT_language(DW_LANG_C)
    1532                    .dwattr $C$DW$T$72, DW_AT_decl_file("C:/ti/ccs1110/ccs/tools/compiler/ti-cgt-msp430_21.6.1.LTS
    1533                    .dwattr $C$DW$T$72, DW_AT_decl_line(0x34)
    1534                    .dwattr $C$DW$T$72, DW_AT_decl_column(0x18)
    1535            
    1536            $C$DW$T$73      .dwtag  DW_TAG_typedef
    1537                    .dwattr $C$DW$T$73, DW_AT_name("__int_least16_t")
    1538                    .dwattr $C$DW$T$73, DW_AT_type(*$C$DW$T$68)
    1539                    .dwattr $C$DW$T$73, DW_AT_language(DW_LANG_C)
    1540                    .dwattr $C$DW$T$73, DW_AT_decl_file("C:/ti/ccs1110/ccs/tools/compiler/ti-cgt-msp430_21.6.1.LTS
    1541                    .dwattr $C$DW$T$73, DW_AT_decl_line(0x5b)
    1542                    .dwattr $C$DW$T$73, DW_AT_decl_column(0x13)
    1543            
    1544            $C$DW$T$74      .dwtag  DW_TAG_typedef
    1545                    .dwattr $C$DW$T$74, DW_AT_name("int_least16_t")
    1546                    .dwattr $C$DW$T$74, DW_AT_type(*$C$DW$T$73)
    1547                    .dwattr $C$DW$T$74, DW_AT_language(DW_LANG_C)
MSP430 Assembler PC v21.6.1 Tue Dec 20 13:45:55 2022

Copyright (c) 2003-2018 Texas Instruments Incorporated
usci_b_spi.asm                                                       PAGE   30

    1548                    .dwattr $C$DW$T$74, DW_AT_decl_file("C:/ti/ccs1110/ccs/tools/compiler/ti-cgt-msp430_21.6.1.LTS
    1549                    .dwattr $C$DW$T$74, DW_AT_decl_line(0x2b)
    1550                    .dwattr $C$DW$T$74, DW_AT_decl_column(0x1a)
    1551            
    1552            $C$DW$T$75      .dwtag  DW_TAG_typedef
    1553                    .dwattr $C$DW$T$75, DW_AT_name("__register_t")
    1554                    .dwattr $C$DW$T$75, DW_AT_type(*$C$DW$T$68)
    1555                    .dwattr $C$DW$T$75, DW_AT_language(DW_LANG_C)
    1556                    .dwattr $C$DW$T$75, DW_AT_decl_file("C:/ti/ccs1110/ccs/tools/compiler/ti-cgt-msp430_21.6.1.LTS
    1557                    .dwattr $C$DW$T$75, DW_AT_decl_line(0x5f)
    1558                    .dwattr $C$DW$T$75, DW_AT_decl_column(0x13)
    1559            
    1560            $C$DW$T$76      .dwtag  DW_TAG_typedef
    1561                    .dwattr $C$DW$T$76, DW_AT_name("int16_t")
    1562                    .dwattr $C$DW$T$76, DW_AT_type(*$C$DW$T$68)
    1563                    .dwattr $C$DW$T$76, DW_AT_language(DW_LANG_C)
    1564                    .dwattr $C$DW$T$76, DW_AT_decl_file("C:/ti/ccs1110/ccs/tools/compiler/ti-cgt-msp430_21.6.1.LTS
    1565                    .dwattr $C$DW$T$76, DW_AT_decl_line(0x2b)
    1566                    .dwattr $C$DW$T$76, DW_AT_decl_column(0x14)
    1567            
    1568            $C$DW$T$77      .dwtag  DW_TAG_typedef
    1569                    .dwattr $C$DW$T$77, DW_AT_name("__nl_item")
    1570                    .dwattr $C$DW$T$77, DW_AT_type(*$C$DW$T$10)
    1571                    .dwattr $C$DW$T$77, DW_AT_language(DW_LANG_C)
    1572                    .dwattr $C$DW$T$77, DW_AT_decl_file("C:/ti/ccs1110/ccs/tools/compiler/ti-cgt-msp430_21.6.1.LTS
    1573                    .dwattr $C$DW$T$77, DW_AT_decl_line(0x3c)
    1574                    .dwattr $C$DW$T$77, DW_AT_decl_column(0x0e)
    1575            
    1576            $C$DW$T$78      .dwtag  DW_TAG_typedef
    1577                    .dwattr $C$DW$T$78, DW_AT_name("__ptrdiff_t")
    1578                    .dwattr $C$DW$T$78, DW_AT_type(*$C$DW$T$10)
    1579                    .dwattr $C$DW$T$78, DW_AT_language(DW_LANG_C)
    1580                    .dwattr $C$DW$T$78, DW_AT_decl_file("C:/ti/ccs1110/ccs/tools/compiler/ti-cgt-msp430_21.6.1.LTS
    1581                    .dwattr $C$DW$T$78, DW_AT_decl_line(0x5e)
    1582                    .dwattr $C$DW$T$78, DW_AT_decl_column(0x1c)
    1583            
    1584            $C$DW$T$11      .dwtag  DW_TAG_base_type
    1585                    .dwattr $C$DW$T$11, DW_AT_encoding(DW_ATE_unsigned)
    1586                    .dwattr $C$DW$T$11, DW_AT_name("unsigned int")
    1587                    .dwattr $C$DW$T$11, DW_AT_byte_size(0x02)
    1588            
    1589            $C$DW$T$79      .dwtag  DW_TAG_typedef
    1590                    .dwattr $C$DW$T$79, DW_AT_name("___wchar_t")
    1591                    .dwattr $C$DW$T$79, DW_AT_type(*$C$DW$T$11)
    1592                    .dwattr $C$DW$T$79, DW_AT_language(DW_LANG_C)
    1593                    .dwattr $C$DW$T$79, DW_AT_decl_file("C:/ti/ccs1110/ccs/tools/compiler/ti-cgt-msp430_21.6.1.LTS
    1594                    .dwattr $C$DW$T$79, DW_AT_decl_line(0x7d)
    1595                    .dwattr $C$DW$T$79, DW_AT_decl_column(0x1a)
    1596            
    1597            $C$DW$T$82      .dwtag  DW_TAG_typedef
    1598                    .dwattr $C$DW$T$82, DW_AT_name("__size_t")
    1599                    .dwattr $C$DW$T$82, DW_AT_type(*$C$DW$T$11)
    1600                    .dwattr $C$DW$T$82, DW_AT_language(DW_LANG_C)
    1601                    .dwattr $C$DW$T$82, DW_AT_decl_file("C:/ti/ccs1110/ccs/tools/compiler/ti-cgt-msp430_21.6.1.LTS
    1602                    .dwattr $C$DW$T$82, DW_AT_decl_line(0x61)
MSP430 Assembler PC v21.6.1 Tue Dec 20 13:45:55 2022

Copyright (c) 2003-2018 Texas Instruments Incorporated
usci_b_spi.asm                                                       PAGE   31

    1603                    .dwattr $C$DW$T$82, DW_AT_decl_column(0x19)
    1604            
    1605            $C$DW$T$35      .dwtag  DW_TAG_typedef
    1606                    .dwattr $C$DW$T$35, DW_AT_name("__uint16_t")
    1607                    .dwattr $C$DW$T$35, DW_AT_type(*$C$DW$T$11)
    1608                    .dwattr $C$DW$T$35, DW_AT_language(DW_LANG_C)
    1609                    .dwattr $C$DW$T$35, DW_AT_decl_file("C:/ti/ccs1110/ccs/tools/compiler/ti-cgt-msp430_21.6.1.LTS
    1610                    .dwattr $C$DW$T$35, DW_AT_decl_line(0x39)
    1611                    .dwattr $C$DW$T$35, DW_AT_decl_column(0x17)
    1612            
    1613            $C$DW$T$83      .dwtag  DW_TAG_typedef
    1614                    .dwattr $C$DW$T$83, DW_AT_name("__mode_t")
    1615                    .dwattr $C$DW$T$83, DW_AT_type(*$C$DW$T$35)
    1616                    .dwattr $C$DW$T$83, DW_AT_language(DW_LANG_C)
    1617                    .dwattr $C$DW$T$83, DW_AT_decl_file("C:/ti/ccs1110/ccs/tools/compiler/ti-cgt-msp430_21.6.1.LTS
    1618                    .dwattr $C$DW$T$83, DW_AT_decl_line(0x3a)
    1619                    .dwattr $C$DW$T$83, DW_AT_decl_column(0x14)
    1620            
    1621            $C$DW$T$84      .dwtag  DW_TAG_typedef
    1622                    .dwattr $C$DW$T$84, DW_AT_name("__u_register_t")
    1623                    .dwattr $C$DW$T$84, DW_AT_type(*$C$DW$T$35)
    1624                    .dwattr $C$DW$T$84, DW_AT_language(DW_LANG_C)
    1625                    .dwattr $C$DW$T$84, DW_AT_decl_file("C:/ti/ccs1110/ccs/tools/compiler/ti-cgt-msp430_21.6.1.LTS
    1626                    .dwattr $C$DW$T$84, DW_AT_decl_line(0x78)
    1627                    .dwattr $C$DW$T$84, DW_AT_decl_column(0x14)
    1628            
    1629            $C$DW$T$85      .dwtag  DW_TAG_typedef
    1630                    .dwattr $C$DW$T$85, DW_AT_name("__uint_fast16_t")
    1631                    .dwattr $C$DW$T$85, DW_AT_type(*$C$DW$T$35)
    1632                    .dwattr $C$DW$T$85, DW_AT_language(DW_LANG_C)
    1633                    .dwattr $C$DW$T$85, DW_AT_decl_file("C:/ti/ccs1110/ccs/tools/compiler/ti-cgt-msp430_21.6.1.LTS
    1634                    .dwattr $C$DW$T$85, DW_AT_decl_line(0x71)
    1635                    .dwattr $C$DW$T$85, DW_AT_decl_column(0x14)
    1636            
    1637            $C$DW$T$86      .dwtag  DW_TAG_typedef
    1638                    .dwattr $C$DW$T$86, DW_AT_name("uint_fast16_t")
    1639                    .dwattr $C$DW$T$86, DW_AT_type(*$C$DW$T$85)
    1640                    .dwattr $C$DW$T$86, DW_AT_language(DW_LANG_C)
    1641                    .dwattr $C$DW$T$86, DW_AT_decl_file("C:/ti/ccs1110/ccs/tools/compiler/ti-cgt-msp430_21.6.1.LTS
    1642                    .dwattr $C$DW$T$86, DW_AT_decl_line(0x3a)
    1643                    .dwattr $C$DW$T$86, DW_AT_decl_column(0x1a)
    1644            
    1645            $C$DW$T$87      .dwtag  DW_TAG_typedef
    1646                    .dwattr $C$DW$T$87, DW_AT_name("__uint_fast8_t")
    1647                    .dwattr $C$DW$T$87, DW_AT_type(*$C$DW$T$35)
    1648                    .dwattr $C$DW$T$87, DW_AT_language(DW_LANG_C)
    1649                    .dwattr $C$DW$T$87, DW_AT_decl_file("C:/ti/ccs1110/ccs/tools/compiler/ti-cgt-msp430_21.6.1.LTS
    1650                    .dwattr $C$DW$T$87, DW_AT_decl_line(0x70)
    1651                    .dwattr $C$DW$T$87, DW_AT_decl_column(0x14)
    1652            
    1653            $C$DW$T$88      .dwtag  DW_TAG_typedef
    1654                    .dwattr $C$DW$T$88, DW_AT_name("uint_fast8_t")
    1655                    .dwattr $C$DW$T$88, DW_AT_type(*$C$DW$T$87)
    1656                    .dwattr $C$DW$T$88, DW_AT_language(DW_LANG_C)
    1657                    .dwattr $C$DW$T$88, DW_AT_decl_file("C:/ti/ccs1110/ccs/tools/compiler/ti-cgt-msp430_21.6.1.LTS
MSP430 Assembler PC v21.6.1 Tue Dec 20 13:45:55 2022

Copyright (c) 2003-2018 Texas Instruments Incorporated
usci_b_spi.asm                                                       PAGE   32

    1658                    .dwattr $C$DW$T$88, DW_AT_decl_line(0x39)
    1659                    .dwattr $C$DW$T$88, DW_AT_decl_column(0x19)
    1660            
    1661            $C$DW$T$89      .dwtag  DW_TAG_typedef
    1662                    .dwattr $C$DW$T$89, DW_AT_name("__uint_least16_t")
    1663                    .dwattr $C$DW$T$89, DW_AT_type(*$C$DW$T$35)
    1664                    .dwattr $C$DW$T$89, DW_AT_language(DW_LANG_C)
    1665                    .dwattr $C$DW$T$89, DW_AT_decl_file("C:/ti/ccs1110/ccs/tools/compiler/ti-cgt-msp430_21.6.1.LTS
    1666                    .dwattr $C$DW$T$89, DW_AT_decl_line(0x75)
    1667                    .dwattr $C$DW$T$89, DW_AT_decl_column(0x14)
    1668            
    1669            $C$DW$T$90      .dwtag  DW_TAG_typedef
    1670                    .dwattr $C$DW$T$90, DW_AT_name("__char16_t")
    1671                    .dwattr $C$DW$T$90, DW_AT_type(*$C$DW$T$89)
    1672                    .dwattr $C$DW$T$90, DW_AT_language(DW_LANG_C)
    1673                    .dwattr $C$DW$T$90, DW_AT_decl_file("C:/ti/ccs1110/ccs/tools/compiler/ti-cgt-msp430_21.6.1.LTS
    1674                    .dwattr $C$DW$T$90, DW_AT_decl_line(0x71)
    1675                    .dwattr $C$DW$T$90, DW_AT_decl_column(0x1a)
    1676            
    1677            $C$DW$T$91      .dwtag  DW_TAG_typedef
    1678                    .dwattr $C$DW$T$91, DW_AT_name("uint_least16_t")
    1679                    .dwattr $C$DW$T$91, DW_AT_type(*$C$DW$T$89)
    1680                    .dwattr $C$DW$T$91, DW_AT_language(DW_LANG_C)
    1681                    .dwattr $C$DW$T$91, DW_AT_decl_file("C:/ti/ccs1110/ccs/tools/compiler/ti-cgt-msp430_21.6.1.LTS
    1682                    .dwattr $C$DW$T$91, DW_AT_decl_line(0x30)
    1683                    .dwattr $C$DW$T$91, DW_AT_decl_column(0x1a)
    1684            
    1685            $C$DW$T$36      .dwtag  DW_TAG_typedef
    1686                    .dwattr $C$DW$T$36, DW_AT_name("uint16_t")
    1687                    .dwattr $C$DW$T$36, DW_AT_type(*$C$DW$T$35)
    1688                    .dwattr $C$DW$T$36, DW_AT_language(DW_LANG_C)
    1689                    .dwattr $C$DW$T$36, DW_AT_decl_file("C:/ti/ccs1110/ccs/tools/compiler/ti-cgt-msp430_21.6.1.LTS
    1690                    .dwattr $C$DW$T$36, DW_AT_decl_line(0x41)
    1691                    .dwattr $C$DW$T$36, DW_AT_decl_column(0x15)
    1692            
    1693            $C$DW$T$92      .dwtag  DW_TAG_typedef
    1694                    .dwattr $C$DW$T$92, DW_AT_name("__useconds_t")
    1695                    .dwattr $C$DW$T$92, DW_AT_type(*$C$DW$T$11)
    1696                    .dwattr $C$DW$T$92, DW_AT_language(DW_LANG_C)
    1697                    .dwattr $C$DW$T$92, DW_AT_decl_file("C:/ti/ccs1110/ccs/tools/compiler/ti-cgt-msp430_21.6.1.LTS
    1698                    .dwattr $C$DW$T$92, DW_AT_decl_line(0x4e)
    1699                    .dwattr $C$DW$T$92, DW_AT_decl_column(0x16)
    1700            
    1701            $C$DW$T$12      .dwtag  DW_TAG_base_type
    1702                    .dwattr $C$DW$T$12, DW_AT_encoding(DW_ATE_signed)
    1703                    .dwattr $C$DW$T$12, DW_AT_name("long")
    1704                    .dwattr $C$DW$T$12, DW_AT_byte_size(0x04)
    1705            
    1706            $C$DW$T$93      .dwtag  DW_TAG_typedef
    1707                    .dwattr $C$DW$T$93, DW_AT_name("__int32_t")
    1708                    .dwattr $C$DW$T$93, DW_AT_type(*$C$DW$T$12)
    1709                    .dwattr $C$DW$T$93, DW_AT_language(DW_LANG_C)
    1710                    .dwattr $C$DW$T$93, DW_AT_decl_file("C:/ti/ccs1110/ccs/tools/compiler/ti-cgt-msp430_21.6.1.LTS
    1711                    .dwattr $C$DW$T$93, DW_AT_decl_line(0x3a)
    1712                    .dwattr $C$DW$T$93, DW_AT_decl_column(0x10)
MSP430 Assembler PC v21.6.1 Tue Dec 20 13:45:55 2022

Copyright (c) 2003-2018 Texas Instruments Incorporated
usci_b_spi.asm                                                       PAGE   33

    1713            
    1714            $C$DW$T$94      .dwtag  DW_TAG_typedef
    1715                    .dwattr $C$DW$T$94, DW_AT_name("__blksize_t")
    1716                    .dwattr $C$DW$T$94, DW_AT_type(*$C$DW$T$93)
    1717                    .dwattr $C$DW$T$94, DW_AT_language(DW_LANG_C)
    1718                    .dwattr $C$DW$T$94, DW_AT_decl_file("C:/ti/ccs1110/ccs/tools/compiler/ti-cgt-msp430_21.6.1.LTS
    1719                    .dwattr $C$DW$T$94, DW_AT_decl_line(0x2f)
    1720                    .dwattr $C$DW$T$94, DW_AT_decl_column(0x13)
    1721            
    1722            $C$DW$T$95      .dwtag  DW_TAG_typedef
    1723                    .dwattr $C$DW$T$95, DW_AT_name("__clockid_t")
    1724                    .dwattr $C$DW$T$95, DW_AT_type(*$C$DW$T$93)
    1725                    .dwattr $C$DW$T$95, DW_AT_language(DW_LANG_C)
    1726                    .dwattr $C$DW$T$95, DW_AT_decl_file("C:/ti/ccs1110/ccs/tools/compiler/ti-cgt-msp430_21.6.1.LTS
    1727                    .dwattr $C$DW$T$95, DW_AT_decl_line(0x31)
    1728                    .dwattr $C$DW$T$95, DW_AT_decl_column(0x13)
    1729            
    1730            $C$DW$T$96      .dwtag  DW_TAG_typedef
    1731                    .dwattr $C$DW$T$96, DW_AT_name("__critical_t")
    1732                    .dwattr $C$DW$T$96, DW_AT_type(*$C$DW$T$93)
    1733                    .dwattr $C$DW$T$96, DW_AT_language(DW_LANG_C)
    1734                    .dwattr $C$DW$T$96, DW_AT_decl_file("C:/ti/ccs1110/ccs/tools/compiler/ti-cgt-msp430_21.6.1.LTS
    1735                    .dwattr $C$DW$T$96, DW_AT_decl_line(0x4b)
    1736                    .dwattr $C$DW$T$96, DW_AT_decl_column(0x13)
    1737            
    1738            $C$DW$T$97      .dwtag  DW_TAG_typedef
    1739                    .dwattr $C$DW$T$97, DW_AT_name("__int_fast32_t")
    1740                    .dwattr $C$DW$T$97, DW_AT_type(*$C$DW$T$93)
    1741                    .dwattr $C$DW$T$97, DW_AT_language(DW_LANG_C)
    1742                    .dwattr $C$DW$T$97, DW_AT_decl_file("C:/ti/ccs1110/ccs/tools/compiler/ti-cgt-msp430_21.6.1.LTS
    1743                    .dwattr $C$DW$T$97, DW_AT_decl_line(0x58)
    1744                    .dwattr $C$DW$T$97, DW_AT_decl_column(0x13)
    1745            
    1746            $C$DW$T$98      .dwtag  DW_TAG_typedef
    1747                    .dwattr $C$DW$T$98, DW_AT_name("int_fast32_t")
    1748                    .dwattr $C$DW$T$98, DW_AT_type(*$C$DW$T$97)
    1749                    .dwattr $C$DW$T$98, DW_AT_language(DW_LANG_C)
    1750                    .dwattr $C$DW$T$98, DW_AT_decl_file("C:/ti/ccs1110/ccs/tools/compiler/ti-cgt-msp430_21.6.1.LTS
    1751                    .dwattr $C$DW$T$98, DW_AT_decl_line(0x36)
    1752                    .dwattr $C$DW$T$98, DW_AT_decl_column(0x19)
    1753            
    1754            $C$DW$T$99      .dwtag  DW_TAG_typedef
    1755                    .dwattr $C$DW$T$99, DW_AT_name("__int_least32_t")
    1756                    .dwattr $C$DW$T$99, DW_AT_type(*$C$DW$T$93)
    1757                    .dwattr $C$DW$T$99, DW_AT_language(DW_LANG_C)
    1758                    .dwattr $C$DW$T$99, DW_AT_decl_file("C:/ti/ccs1110/ccs/tools/compiler/ti-cgt-msp430_21.6.1.LTS
    1759                    .dwattr $C$DW$T$99, DW_AT_decl_line(0x5c)
    1760                    .dwattr $C$DW$T$99, DW_AT_decl_column(0x13)
    1761            
    1762            $C$DW$T$100     .dwtag  DW_TAG_typedef
    1763                    .dwattr $C$DW$T$100, DW_AT_name("int_least32_t")
    1764                    .dwattr $C$DW$T$100, DW_AT_type(*$C$DW$T$99)
    1765                    .dwattr $C$DW$T$100, DW_AT_language(DW_LANG_C)
    1766                    .dwattr $C$DW$T$100, DW_AT_decl_file("C:/ti/ccs1110/ccs/tools/compiler/ti-cgt-msp430_21.6.1.LT
    1767                    .dwattr $C$DW$T$100, DW_AT_decl_line(0x2c)
MSP430 Assembler PC v21.6.1 Tue Dec 20 13:45:55 2022

Copyright (c) 2003-2018 Texas Instruments Incorporated
usci_b_spi.asm                                                       PAGE   34

    1768                    .dwattr $C$DW$T$100, DW_AT_decl_column(0x1a)
    1769            
    1770            $C$DW$T$101     .dwtag  DW_TAG_typedef
    1771                    .dwattr $C$DW$T$101, DW_AT_name("__intfptr_t")
    1772                    .dwattr $C$DW$T$101, DW_AT_type(*$C$DW$T$93)
    1773                    .dwattr $C$DW$T$101, DW_AT_language(DW_LANG_C)
    1774                    .dwattr $C$DW$T$101, DW_AT_decl_file("C:/ti/ccs1110/ccs/tools/compiler/ti-cgt-msp430_21.6.1.LT
    1775                    .dwattr $C$DW$T$101, DW_AT_decl_line(0x4e)
    1776                    .dwattr $C$DW$T$101, DW_AT_decl_column(0x13)
    1777            
    1778            $C$DW$T$102     .dwtag  DW_TAG_typedef
    1779                    .dwattr $C$DW$T$102, DW_AT_name("__intptr_t")
    1780                    .dwattr $C$DW$T$102, DW_AT_type(*$C$DW$T$93)
    1781                    .dwattr $C$DW$T$102, DW_AT_language(DW_LANG_C)
    1782                    .dwattr $C$DW$T$102, DW_AT_decl_file("C:/ti/ccs1110/ccs/tools/compiler/ti-cgt-msp430_21.6.1.LT
    1783                    .dwattr $C$DW$T$102, DW_AT_decl_line(0x51)
    1784                    .dwattr $C$DW$T$102, DW_AT_decl_column(0x13)
    1785            
    1786            $C$DW$T$103     .dwtag  DW_TAG_typedef
    1787                    .dwattr $C$DW$T$103, DW_AT_name("intptr_t")
    1788                    .dwattr $C$DW$T$103, DW_AT_type(*$C$DW$T$102)
    1789                    .dwattr $C$DW$T$103, DW_AT_language(DW_LANG_C)
    1790                    .dwattr $C$DW$T$103, DW_AT_decl_file("C:/ti/ccs1110/ccs/tools/compiler/ti-cgt-msp430_21.6.1.LT
    1791                    .dwattr $C$DW$T$103, DW_AT_decl_line(0x50)
    1792                    .dwattr $C$DW$T$103, DW_AT_decl_column(0x15)
    1793            
    1794            $C$DW$T$104     .dwtag  DW_TAG_typedef
    1795                    .dwattr $C$DW$T$104, DW_AT_name("__lwpid_t")
    1796                    .dwattr $C$DW$T$104, DW_AT_type(*$C$DW$T$93)
    1797                    .dwattr $C$DW$T$104, DW_AT_language(DW_LANG_C)
    1798                    .dwattr $C$DW$T$104, DW_AT_decl_file("C:/ti/ccs1110/ccs/tools/compiler/ti-cgt-msp430_21.6.1.LT
    1799                    .dwattr $C$DW$T$104, DW_AT_decl_line(0x39)
    1800                    .dwattr $C$DW$T$104, DW_AT_decl_column(0x13)
    1801            
    1802            $C$DW$T$105     .dwtag  DW_TAG_typedef
    1803                    .dwattr $C$DW$T$105, DW_AT_name("__pid_t")
    1804                    .dwattr $C$DW$T$105, DW_AT_type(*$C$DW$T$93)
    1805                    .dwattr $C$DW$T$105, DW_AT_language(DW_LANG_C)
    1806                    .dwattr $C$DW$T$105, DW_AT_decl_file("C:/ti/ccs1110/ccs/tools/compiler/ti-cgt-msp430_21.6.1.LT
    1807                    .dwattr $C$DW$T$105, DW_AT_decl_line(0x40)
    1808                    .dwattr $C$DW$T$105, DW_AT_decl_column(0x13)
    1809            
    1810            $C$DW$T$106     .dwtag  DW_TAG_typedef
    1811                    .dwattr $C$DW$T$106, DW_AT_name("__segsz_t")
    1812                    .dwattr $C$DW$T$106, DW_AT_type(*$C$DW$T$93)
    1813                    .dwattr $C$DW$T$106, DW_AT_language(DW_LANG_C)
    1814                    .dwattr $C$DW$T$106, DW_AT_decl_file("C:/ti/ccs1110/ccs/tools/compiler/ti-cgt-msp430_21.6.1.LT
    1815                    .dwattr $C$DW$T$106, DW_AT_decl_line(0x60)
    1816                    .dwattr $C$DW$T$106, DW_AT_decl_column(0x13)
    1817            
    1818            $C$DW$T$107     .dwtag  DW_TAG_typedef
    1819                    .dwattr $C$DW$T$107, DW_AT_name("__ssize_t")
    1820                    .dwattr $C$DW$T$107, DW_AT_type(*$C$DW$T$93)
    1821                    .dwattr $C$DW$T$107, DW_AT_language(DW_LANG_C)
    1822                    .dwattr $C$DW$T$107, DW_AT_decl_file("C:/ti/ccs1110/ccs/tools/compiler/ti-cgt-msp430_21.6.1.LT
MSP430 Assembler PC v21.6.1 Tue Dec 20 13:45:55 2022

Copyright (c) 2003-2018 Texas Instruments Incorporated
usci_b_spi.asm                                                       PAGE   35

    1823                    .dwattr $C$DW$T$107, DW_AT_decl_line(0x62)
    1824                    .dwattr $C$DW$T$107, DW_AT_decl_column(0x13)
    1825            
    1826            $C$DW$T$108     .dwtag  DW_TAG_typedef
    1827                    .dwattr $C$DW$T$108, DW_AT_name("int32_t")
    1828                    .dwattr $C$DW$T$108, DW_AT_type(*$C$DW$T$93)
    1829                    .dwattr $C$DW$T$108, DW_AT_language(DW_LANG_C)
    1830                    .dwattr $C$DW$T$108, DW_AT_decl_file("C:/ti/ccs1110/ccs/tools/compiler/ti-cgt-msp430_21.6.1.LT
    1831                    .dwattr $C$DW$T$108, DW_AT_decl_line(0x30)
    1832                    .dwattr $C$DW$T$108, DW_AT_decl_column(0x14)
    1833            
    1834            $C$DW$T$109     .dwtag  DW_TAG_typedef
    1835                    .dwattr $C$DW$T$109, DW_AT_name("__key_t")
    1836                    .dwattr $C$DW$T$109, DW_AT_type(*$C$DW$T$12)
    1837                    .dwattr $C$DW$T$109, DW_AT_language(DW_LANG_C)
    1838                    .dwattr $C$DW$T$109, DW_AT_decl_file("C:/ti/ccs1110/ccs/tools/compiler/ti-cgt-msp430_21.6.1.LT
    1839                    .dwattr $C$DW$T$109, DW_AT_decl_line(0x38)
    1840                    .dwattr $C$DW$T$109, DW_AT_decl_column(0x0f)
    1841            
    1842            $C$DW$T$110     .dwtag  DW_TAG_typedef
    1843                    .dwattr $C$DW$T$110, DW_AT_name("__suseconds_t")
    1844                    .dwattr $C$DW$T$110, DW_AT_type(*$C$DW$T$12)
    1845                    .dwattr $C$DW$T$110, DW_AT_language(DW_LANG_C)
    1846                    .dwattr $C$DW$T$110, DW_AT_decl_file("C:/ti/ccs1110/ccs/tools/compiler/ti-cgt-msp430_21.6.1.LT
    1847                    .dwattr $C$DW$T$110, DW_AT_decl_line(0x4a)
    1848                    .dwattr $C$DW$T$110, DW_AT_decl_column(0x0f)
    1849            
    1850            $C$DW$T$111     .dwtag  DW_TAG_typedef
    1851                    .dwattr $C$DW$T$111, DW_AT_name("_off_t")
    1852                    .dwattr $C$DW$T$111, DW_AT_type(*$C$DW$T$12)
    1853                    .dwattr $C$DW$T$111, DW_AT_language(DW_LANG_C)
    1854                    .dwattr $C$DW$T$111, DW_AT_decl_file("C:/ti/ccs1110/ccs/tools/compiler/ti-cgt-msp430_21.6.1.LT
    1855                    .dwattr $C$DW$T$111, DW_AT_decl_line(0x8d)
    1856                    .dwattr $C$DW$T$111, DW_AT_decl_column(0x12)
    1857            
    1858            $C$DW$T$112     .dwtag  DW_TAG_typedef
    1859                    .dwattr $C$DW$T$112, DW_AT_name("__off_t")
    1860                    .dwattr $C$DW$T$112, DW_AT_type(*$C$DW$T$111)
    1861                    .dwattr $C$DW$T$112, DW_AT_language(DW_LANG_C)
    1862                    .dwattr $C$DW$T$112, DW_AT_decl_file("C:/ti/ccs1110/ccs/tools/compiler/ti-cgt-msp430_21.6.1.LT
    1863                    .dwattr $C$DW$T$112, DW_AT_decl_line(0x3e)
    1864                    .dwattr $C$DW$T$112, DW_AT_decl_column(0x18)
    1865            
    1866            $C$DW$T$13      .dwtag  DW_TAG_base_type
    1867                    .dwattr $C$DW$T$13, DW_AT_encoding(DW_ATE_unsigned)
    1868                    .dwattr $C$DW$T$13, DW_AT_name("unsigned long")
    1869                    .dwattr $C$DW$T$13, DW_AT_byte_size(0x04)
    1870            
    1871            $C$DW$T$22      .dwtag  DW_TAG_typedef
    1872                    .dwattr $C$DW$T$22, DW_AT_name("__uint32_t")
    1873                    .dwattr $C$DW$T$22, DW_AT_type(*$C$DW$T$13)
    1874                    .dwattr $C$DW$T$22, DW_AT_language(DW_LANG_C)
    1875                    .dwattr $C$DW$T$22, DW_AT_decl_file("C:/ti/ccs1110/ccs/tools/compiler/ti-cgt-msp430_21.6.1.LTS
    1876                    .dwattr $C$DW$T$22, DW_AT_decl_line(0x3b)
    1877                    .dwattr $C$DW$T$22, DW_AT_decl_column(0x18)
MSP430 Assembler PC v21.6.1 Tue Dec 20 13:45:55 2022

Copyright (c) 2003-2018 Texas Instruments Incorporated
usci_b_spi.asm                                                       PAGE   36

    1878            
    1879            $C$DW$T$114     .dwtag  DW_TAG_typedef
    1880                    .dwattr $C$DW$T$114, DW_AT_name("__clock_t")
    1881                    .dwattr $C$DW$T$114, DW_AT_type(*$C$DW$T$22)
    1882                    .dwattr $C$DW$T$114, DW_AT_language(DW_LANG_C)
    1883                    .dwattr $C$DW$T$114, DW_AT_decl_file("C:/ti/ccs1110/ccs/tools/compiler/ti-cgt-msp430_21.6.1.LT
    1884                    .dwattr $C$DW$T$114, DW_AT_decl_line(0x4a)
    1885                    .dwattr $C$DW$T$114, DW_AT_decl_column(0x14)
    1886            
    1887            $C$DW$T$115     .dwtag  DW_TAG_typedef
    1888                    .dwattr $C$DW$T$115, DW_AT_name("__fflags_t")
    1889                    .dwattr $C$DW$T$115, DW_AT_type(*$C$DW$T$22)
    1890                    .dwattr $C$DW$T$115, DW_AT_language(DW_LANG_C)
    1891                    .dwattr $C$DW$T$115, DW_AT_decl_file("C:/ti/ccs1110/ccs/tools/compiler/ti-cgt-msp430_21.6.1.LT
    1892                    .dwattr $C$DW$T$115, DW_AT_decl_line(0x32)
    1893                    .dwattr $C$DW$T$115, DW_AT_decl_column(0x14)
    1894            
    1895            $C$DW$T$116     .dwtag  DW_TAG_typedef
    1896                    .dwattr $C$DW$T$116, DW_AT_name("__fixpt_t")
    1897                    .dwattr $C$DW$T$116, DW_AT_type(*$C$DW$T$22)
    1898                    .dwattr $C$DW$T$116, DW_AT_language(DW_LANG_C)
    1899                    .dwattr $C$DW$T$116, DW_AT_decl_file("C:/ti/ccs1110/ccs/tools/compiler/ti-cgt-msp430_21.6.1.LT
    1900                    .dwattr $C$DW$T$116, DW_AT_decl_line(0x81)
    1901                    .dwattr $C$DW$T$116, DW_AT_decl_column(0x14)
    1902            
    1903            $C$DW$T$117     .dwtag  DW_TAG_typedef
    1904                    .dwattr $C$DW$T$117, DW_AT_name("__gid_t")
    1905                    .dwattr $C$DW$T$117, DW_AT_type(*$C$DW$T$22)
    1906                    .dwattr $C$DW$T$117, DW_AT_language(DW_LANG_C)
    1907                    .dwattr $C$DW$T$117, DW_AT_decl_file("C:/ti/ccs1110/ccs/tools/compiler/ti-cgt-msp430_21.6.1.LT
    1908                    .dwattr $C$DW$T$117, DW_AT_decl_line(0x35)
    1909                    .dwattr $C$DW$T$117, DW_AT_decl_column(0x14)
    1910            
    1911            $C$DW$T$118     .dwtag  DW_TAG_typedef
    1912                    .dwattr $C$DW$T$118, DW_AT_name("__socklen_t")
    1913                    .dwattr $C$DW$T$118, DW_AT_type(*$C$DW$T$22)
    1914                    .dwattr $C$DW$T$118, DW_AT_language(DW_LANG_C)
    1915                    .dwattr $C$DW$T$118, DW_AT_decl_file("C:/ti/ccs1110/ccs/tools/compiler/ti-cgt-msp430_21.6.1.LT
    1916                    .dwattr $C$DW$T$118, DW_AT_decl_line(0x49)
    1917                    .dwattr $C$DW$T$118, DW_AT_decl_column(0x14)
    1918            
    1919            $C$DW$T$119     .dwtag  DW_TAG_typedef
    1920                    .dwattr $C$DW$T$119, DW_AT_name("__time_t")
    1921                    .dwattr $C$DW$T$119, DW_AT_type(*$C$DW$T$22)
    1922                    .dwattr $C$DW$T$119, DW_AT_language(DW_LANG_C)
    1923                    .dwattr $C$DW$T$119, DW_AT_decl_file("C:/ti/ccs1110/ccs/tools/compiler/ti-cgt-msp430_21.6.1.LT
    1924                    .dwattr $C$DW$T$119, DW_AT_decl_line(0x66)
    1925                    .dwattr $C$DW$T$119, DW_AT_decl_column(0x19)
    1926            
    1927            $C$DW$T$120     .dwtag  DW_TAG_typedef
    1928                    .dwattr $C$DW$T$120, DW_AT_name("__uid_t")
    1929                    .dwattr $C$DW$T$120, DW_AT_type(*$C$DW$T$22)
    1930                    .dwattr $C$DW$T$120, DW_AT_language(DW_LANG_C)
    1931                    .dwattr $C$DW$T$120, DW_AT_decl_file("C:/ti/ccs1110/ccs/tools/compiler/ti-cgt-msp430_21.6.1.LT
    1932                    .dwattr $C$DW$T$120, DW_AT_decl_line(0x4d)
MSP430 Assembler PC v21.6.1 Tue Dec 20 13:45:55 2022

Copyright (c) 2003-2018 Texas Instruments Incorporated
usci_b_spi.asm                                                       PAGE   37

    1933                    .dwattr $C$DW$T$120, DW_AT_decl_column(0x14)
    1934            
    1935            $C$DW$T$121     .dwtag  DW_TAG_typedef
    1936                    .dwattr $C$DW$T$121, DW_AT_name("__uint_fast32_t")
    1937                    .dwattr $C$DW$T$121, DW_AT_type(*$C$DW$T$22)
    1938                    .dwattr $C$DW$T$121, DW_AT_language(DW_LANG_C)
    1939                    .dwattr $C$DW$T$121, DW_AT_decl_file("C:/ti/ccs1110/ccs/tools/compiler/ti-cgt-msp430_21.6.1.LT
    1940                    .dwattr $C$DW$T$121, DW_AT_decl_line(0x72)
    1941                    .dwattr $C$DW$T$121, DW_AT_decl_column(0x14)
    1942            
    1943            $C$DW$T$122     .dwtag  DW_TAG_typedef
    1944                    .dwattr $C$DW$T$122, DW_AT_name("uint_fast32_t")
    1945                    .dwattr $C$DW$T$122, DW_AT_type(*$C$DW$T$121)
    1946                    .dwattr $C$DW$T$122, DW_AT_language(DW_LANG_C)
    1947                    .dwattr $C$DW$T$122, DW_AT_decl_file("C:/ti/ccs1110/ccs/tools/compiler/ti-cgt-msp430_21.6.1.LT
    1948                    .dwattr $C$DW$T$122, DW_AT_decl_line(0x3b)
    1949                    .dwattr $C$DW$T$122, DW_AT_decl_column(0x1a)
    1950            
    1951            $C$DW$T$123     .dwtag  DW_TAG_typedef
    1952                    .dwattr $C$DW$T$123, DW_AT_name("__uint_least32_t")
    1953                    .dwattr $C$DW$T$123, DW_AT_type(*$C$DW$T$22)
    1954                    .dwattr $C$DW$T$123, DW_AT_language(DW_LANG_C)
    1955                    .dwattr $C$DW$T$123, DW_AT_decl_file("C:/ti/ccs1110/ccs/tools/compiler/ti-cgt-msp430_21.6.1.LT
    1956                    .dwattr $C$DW$T$123, DW_AT_decl_line(0x76)
    1957                    .dwattr $C$DW$T$123, DW_AT_decl_column(0x14)
    1958            
    1959            $C$DW$T$124     .dwtag  DW_TAG_typedef
    1960                    .dwattr $C$DW$T$124, DW_AT_name("__char32_t")
    1961                    .dwattr $C$DW$T$124, DW_AT_type(*$C$DW$T$123)
    1962                    .dwattr $C$DW$T$124, DW_AT_language(DW_LANG_C)
    1963                    .dwattr $C$DW$T$124, DW_AT_decl_file("C:/ti/ccs1110/ccs/tools/compiler/ti-cgt-msp430_21.6.1.LT
    1964                    .dwattr $C$DW$T$124, DW_AT_decl_line(0x72)
    1965                    .dwattr $C$DW$T$124, DW_AT_decl_column(0x1a)
    1966            
    1967            $C$DW$T$125     .dwtag  DW_TAG_typedef
    1968                    .dwattr $C$DW$T$125, DW_AT_name("uint_least32_t")
    1969                    .dwattr $C$DW$T$125, DW_AT_type(*$C$DW$T$123)
    1970                    .dwattr $C$DW$T$125, DW_AT_language(DW_LANG_C)
    1971                    .dwattr $C$DW$T$125, DW_AT_decl_file("C:/ti/ccs1110/ccs/tools/compiler/ti-cgt-msp430_21.6.1.LT
    1972                    .dwattr $C$DW$T$125, DW_AT_decl_line(0x31)
    1973                    .dwattr $C$DW$T$125, DW_AT_decl_column(0x1a)
    1974            
    1975            $C$DW$T$126     .dwtag  DW_TAG_typedef
    1976                    .dwattr $C$DW$T$126, DW_AT_name("__uintfptr_t")
    1977                    .dwattr $C$DW$T$126, DW_AT_type(*$C$DW$T$22)
    1978                    .dwattr $C$DW$T$126, DW_AT_language(DW_LANG_C)
    1979                    .dwattr $C$DW$T$126, DW_AT_decl_file("C:/ti/ccs1110/ccs/tools/compiler/ti-cgt-msp430_21.6.1.LT
    1980                    .dwattr $C$DW$T$126, DW_AT_decl_line(0x68)
    1981                    .dwattr $C$DW$T$126, DW_AT_decl_column(0x14)
    1982            
    1983            $C$DW$T$127     .dwtag  DW_TAG_typedef
    1984                    .dwattr $C$DW$T$127, DW_AT_name("__uintptr_t")
    1985                    .dwattr $C$DW$T$127, DW_AT_type(*$C$DW$T$22)
    1986                    .dwattr $C$DW$T$127, DW_AT_language(DW_LANG_C)
    1987                    .dwattr $C$DW$T$127, DW_AT_decl_file("C:/ti/ccs1110/ccs/tools/compiler/ti-cgt-msp430_21.6.1.LT
MSP430 Assembler PC v21.6.1 Tue Dec 20 13:45:55 2022

Copyright (c) 2003-2018 Texas Instruments Incorporated
usci_b_spi.asm                                                       PAGE   38

    1988                    .dwattr $C$DW$T$127, DW_AT_decl_line(0x6b)
    1989                    .dwattr $C$DW$T$127, DW_AT_decl_column(0x14)
    1990            
    1991            $C$DW$T$128     .dwtag  DW_TAG_typedef
    1992                    .dwattr $C$DW$T$128, DW_AT_name("uintptr_t")
    1993                    .dwattr $C$DW$T$128, DW_AT_type(*$C$DW$T$127)
    1994                    .dwattr $C$DW$T$128, DW_AT_language(DW_LANG_C)
    1995                    .dwattr $C$DW$T$128, DW_AT_decl_file("C:/ti/ccs1110/ccs/tools/compiler/ti-cgt-msp430_21.6.1.LT
    1996                    .dwattr $C$DW$T$128, DW_AT_decl_line(0x54)
    1997                    .dwattr $C$DW$T$128, DW_AT_decl_column(0x16)
    1998            
    1999            $C$DW$T$129     .dwtag  DW_TAG_typedef
    2000                    .dwattr $C$DW$T$129, DW_AT_name("__vm_offset_t")
    2001                    .dwattr $C$DW$T$129, DW_AT_type(*$C$DW$T$22)
    2002                    .dwattr $C$DW$T$129, DW_AT_language(DW_LANG_C)
    2003                    .dwattr $C$DW$T$129, DW_AT_decl_file("C:/ti/ccs1110/ccs/tools/compiler/ti-cgt-msp430_21.6.1.LT
    2004                    .dwattr $C$DW$T$129, DW_AT_decl_line(0x79)
    2005                    .dwattr $C$DW$T$129, DW_AT_decl_column(0x14)
    2006            
    2007            $C$DW$T$130     .dwtag  DW_TAG_typedef
    2008                    .dwattr $C$DW$T$130, DW_AT_name("__vm_paddr_t")
    2009                    .dwattr $C$DW$T$130, DW_AT_type(*$C$DW$T$22)
    2010                    .dwattr $C$DW$T$130, DW_AT_language(DW_LANG_C)
    2011                    .dwattr $C$DW$T$130, DW_AT_decl_file("C:/ti/ccs1110/ccs/tools/compiler/ti-cgt-msp430_21.6.1.LT
    2012                    .dwattr $C$DW$T$130, DW_AT_decl_line(0x7a)
    2013                    .dwattr $C$DW$T$130, DW_AT_decl_column(0x14)
    2014            
    2015            $C$DW$T$131     .dwtag  DW_TAG_typedef
    2016                    .dwattr $C$DW$T$131, DW_AT_name("__vm_size_t")
    2017                    .dwattr $C$DW$T$131, DW_AT_type(*$C$DW$T$22)
    2018                    .dwattr $C$DW$T$131, DW_AT_language(DW_LANG_C)
    2019                    .dwattr $C$DW$T$131, DW_AT_decl_file("C:/ti/ccs1110/ccs/tools/compiler/ti-cgt-msp430_21.6.1.LT
    2020                    .dwattr $C$DW$T$131, DW_AT_decl_line(0x7b)
    2021                    .dwattr $C$DW$T$131, DW_AT_decl_column(0x14)
    2022            
    2023            $C$DW$T$23      .dwtag  DW_TAG_typedef
    2024                    .dwattr $C$DW$T$23, DW_AT_name("uint32_t")
    2025                    .dwattr $C$DW$T$23, DW_AT_type(*$C$DW$T$22)
    2026                    .dwattr $C$DW$T$23, DW_AT_language(DW_LANG_C)
    2027                    .dwattr $C$DW$T$23, DW_AT_decl_file("C:/ti/ccs1110/ccs/tools/compiler/ti-cgt-msp430_21.6.1.LTS
    2028                    .dwattr $C$DW$T$23, DW_AT_decl_line(0x46)
    2029                    .dwattr $C$DW$T$23, DW_AT_decl_column(0x15)
    2030            
    2031            $C$DW$T$14      .dwtag  DW_TAG_base_type
    2032                    .dwattr $C$DW$T$14, DW_AT_encoding(DW_ATE_signed)
    2033                    .dwattr $C$DW$T$14, DW_AT_name("long long")
    2034                    .dwattr $C$DW$T$14, DW_AT_byte_size(0x08)
    2035            
    2036            $C$DW$T$133     .dwtag  DW_TAG_typedef
    2037                    .dwattr $C$DW$T$133, DW_AT_name("__int64_t")
    2038                    .dwattr $C$DW$T$133, DW_AT_type(*$C$DW$T$14)
    2039                    .dwattr $C$DW$T$133, DW_AT_language(DW_LANG_C)
    2040                    .dwattr $C$DW$T$133, DW_AT_decl_file("C:/ti/ccs1110/ccs/tools/compiler/ti-cgt-msp430_21.6.1.LT
    2041                    .dwattr $C$DW$T$133, DW_AT_decl_line(0x40)
    2042                    .dwattr $C$DW$T$133, DW_AT_decl_column(0x14)
MSP430 Assembler PC v21.6.1 Tue Dec 20 13:45:55 2022

Copyright (c) 2003-2018 Texas Instruments Incorporated
usci_b_spi.asm                                                       PAGE   39

    2043            
    2044            $C$DW$T$134     .dwtag  DW_TAG_typedef
    2045                    .dwattr $C$DW$T$134, DW_AT_name("__blkcnt_t")
    2046                    .dwattr $C$DW$T$134, DW_AT_type(*$C$DW$T$133)
    2047                    .dwattr $C$DW$T$134, DW_AT_language(DW_LANG_C)
    2048                    .dwattr $C$DW$T$134, DW_AT_decl_file("C:/ti/ccs1110/ccs/tools/compiler/ti-cgt-msp430_21.6.1.LT
    2049                    .dwattr $C$DW$T$134, DW_AT_decl_line(0x30)
    2050                    .dwattr $C$DW$T$134, DW_AT_decl_column(0x13)
    2051            
    2052            $C$DW$T$135     .dwtag  DW_TAG_typedef
    2053                    .dwattr $C$DW$T$135, DW_AT_name("__id_t")
    2054                    .dwattr $C$DW$T$135, DW_AT_type(*$C$DW$T$133)
    2055                    .dwattr $C$DW$T$135, DW_AT_language(DW_LANG_C)
    2056                    .dwattr $C$DW$T$135, DW_AT_decl_file("C:/ti/ccs1110/ccs/tools/compiler/ti-cgt-msp430_21.6.1.LT
    2057                    .dwattr $C$DW$T$135, DW_AT_decl_line(0x36)
    2058                    .dwattr $C$DW$T$135, DW_AT_decl_column(0x13)
    2059            
    2060            $C$DW$T$136     .dwtag  DW_TAG_typedef
    2061                    .dwattr $C$DW$T$136, DW_AT_name("__int_fast64_t")
    2062                    .dwattr $C$DW$T$136, DW_AT_type(*$C$DW$T$133)
    2063                    .dwattr $C$DW$T$136, DW_AT_language(DW_LANG_C)
    2064                    .dwattr $C$DW$T$136, DW_AT_decl_file("C:/ti/ccs1110/ccs/tools/compiler/ti-cgt-msp430_21.6.1.LT
    2065                    .dwattr $C$DW$T$136, DW_AT_decl_line(0x59)
    2066                    .dwattr $C$DW$T$136, DW_AT_decl_column(0x13)
    2067            
    2068            $C$DW$T$137     .dwtag  DW_TAG_typedef
    2069                    .dwattr $C$DW$T$137, DW_AT_name("int_fast64_t")
    2070                    .dwattr $C$DW$T$137, DW_AT_type(*$C$DW$T$136)
    2071                    .dwattr $C$DW$T$137, DW_AT_language(DW_LANG_C)
    2072                    .dwattr $C$DW$T$137, DW_AT_decl_file("C:/ti/ccs1110/ccs/tools/compiler/ti-cgt-msp430_21.6.1.LT
    2073                    .dwattr $C$DW$T$137, DW_AT_decl_line(0x37)
    2074                    .dwattr $C$DW$T$137, DW_AT_decl_column(0x19)
    2075            
    2076            $C$DW$T$138     .dwtag  DW_TAG_typedef
    2077                    .dwattr $C$DW$T$138, DW_AT_name("__int_least64_t")
    2078                    .dwattr $C$DW$T$138, DW_AT_type(*$C$DW$T$133)
    2079                    .dwattr $C$DW$T$138, DW_AT_language(DW_LANG_C)
    2080                    .dwattr $C$DW$T$138, DW_AT_decl_file("C:/ti/ccs1110/ccs/tools/compiler/ti-cgt-msp430_21.6.1.LT
    2081                    .dwattr $C$DW$T$138, DW_AT_decl_line(0x5d)
    2082                    .dwattr $C$DW$T$138, DW_AT_decl_column(0x13)
    2083            
    2084            $C$DW$T$139     .dwtag  DW_TAG_typedef
    2085                    .dwattr $C$DW$T$139, DW_AT_name("int_least64_t")
    2086                    .dwattr $C$DW$T$139, DW_AT_type(*$C$DW$T$138)
    2087                    .dwattr $C$DW$T$139, DW_AT_language(DW_LANG_C)
    2088                    .dwattr $C$DW$T$139, DW_AT_decl_file("C:/ti/ccs1110/ccs/tools/compiler/ti-cgt-msp430_21.6.1.LT
    2089                    .dwattr $C$DW$T$139, DW_AT_decl_line(0x2d)
    2090                    .dwattr $C$DW$T$139, DW_AT_decl_column(0x1a)
    2091            
    2092            $C$DW$T$140     .dwtag  DW_TAG_typedef
    2093                    .dwattr $C$DW$T$140, DW_AT_name("__intmax_t")
    2094                    .dwattr $C$DW$T$140, DW_AT_type(*$C$DW$T$133)
    2095                    .dwattr $C$DW$T$140, DW_AT_language(DW_LANG_C)
    2096                    .dwattr $C$DW$T$140, DW_AT_decl_file("C:/ti/ccs1110/ccs/tools/compiler/ti-cgt-msp430_21.6.1.LT
    2097                    .dwattr $C$DW$T$140, DW_AT_decl_line(0x4f)
MSP430 Assembler PC v21.6.1 Tue Dec 20 13:45:55 2022

Copyright (c) 2003-2018 Texas Instruments Incorporated
usci_b_spi.asm                                                       PAGE   40

    2098                    .dwattr $C$DW$T$140, DW_AT_decl_column(0x13)
    2099            
    2100            $C$DW$T$141     .dwtag  DW_TAG_typedef
    2101                    .dwattr $C$DW$T$141, DW_AT_name("intmax_t")
    2102                    .dwattr $C$DW$T$141, DW_AT_type(*$C$DW$T$140)
    2103                    .dwattr $C$DW$T$141, DW_AT_language(DW_LANG_C)
    2104                    .dwattr $C$DW$T$141, DW_AT_decl_file("C:/ti/ccs1110/ccs/tools/compiler/ti-cgt-msp430_21.6.1.LT
    2105                    .dwattr $C$DW$T$141, DW_AT_decl_line(0x58)
    2106                    .dwattr $C$DW$T$141, DW_AT_decl_column(0x15)
    2107            
    2108            $C$DW$T$142     .dwtag  DW_TAG_typedef
    2109                    .dwattr $C$DW$T$142, DW_AT_name("__off64_t")
    2110                    .dwattr $C$DW$T$142, DW_AT_type(*$C$DW$T$133)
    2111                    .dwattr $C$DW$T$142, DW_AT_language(DW_LANG_C)
    2112                    .dwattr $C$DW$T$142, DW_AT_decl_file("C:/ti/ccs1110/ccs/tools/compiler/ti-cgt-msp430_21.6.1.LT
    2113                    .dwattr $C$DW$T$142, DW_AT_decl_line(0x3f)
    2114                    .dwattr $C$DW$T$142, DW_AT_decl_column(0x13)
    2115            
    2116            $C$DW$T$143     .dwtag  DW_TAG_typedef
    2117                    .dwattr $C$DW$T$143, DW_AT_name("__rlim_t")
    2118                    .dwattr $C$DW$T$143, DW_AT_type(*$C$DW$T$133)
    2119                    .dwattr $C$DW$T$143, DW_AT_language(DW_LANG_C)
    2120                    .dwattr $C$DW$T$143, DW_AT_decl_file("C:/ti/ccs1110/ccs/tools/compiler/ti-cgt-msp430_21.6.1.LT
    2121                    .dwattr $C$DW$T$143, DW_AT_decl_line(0x41)
    2122                    .dwattr $C$DW$T$143, DW_AT_decl_column(0x13)
    2123            
    2124            $C$DW$T$144     .dwtag  DW_TAG_typedef
    2125                    .dwattr $C$DW$T$144, DW_AT_name("int64_t")
    2126                    .dwattr $C$DW$T$144, DW_AT_type(*$C$DW$T$133)
    2127                    .dwattr $C$DW$T$144, DW_AT_language(DW_LANG_C)
    2128                    .dwattr $C$DW$T$144, DW_AT_decl_file("C:/ti/ccs1110/ccs/tools/compiler/ti-cgt-msp430_21.6.1.LT
    2129                    .dwattr $C$DW$T$144, DW_AT_decl_line(0x35)
    2130                    .dwattr $C$DW$T$144, DW_AT_decl_column(0x14)
    2131            
    2132            $C$DW$T$15      .dwtag  DW_TAG_base_type
    2133                    .dwattr $C$DW$T$15, DW_AT_encoding(DW_ATE_unsigned)
    2134                    .dwattr $C$DW$T$15, DW_AT_name("unsigned long long")
    2135                    .dwattr $C$DW$T$15, DW_AT_byte_size(0x08)
    2136            
    2137            $C$DW$T$145     .dwtag  DW_TAG_typedef
    2138                    .dwattr $C$DW$T$145, DW_AT_name("__uint64_t")
    2139                    .dwattr $C$DW$T$145, DW_AT_type(*$C$DW$T$15)
    2140                    .dwattr $C$DW$T$145, DW_AT_language(DW_LANG_C)
    2141                    .dwattr $C$DW$T$145, DW_AT_decl_file("C:/ti/ccs1110/ccs/tools/compiler/ti-cgt-msp430_21.6.1.LT
    2142                    .dwattr $C$DW$T$145, DW_AT_decl_line(0x45)
    2143                    .dwattr $C$DW$T$145, DW_AT_decl_column(0x1c)
    2144            
    2145            $C$DW$T$146     .dwtag  DW_TAG_typedef
    2146                    .dwattr $C$DW$T$146, DW_AT_name("__dev_t")
    2147                    .dwattr $C$DW$T$146, DW_AT_type(*$C$DW$T$145)
    2148                    .dwattr $C$DW$T$146, DW_AT_language(DW_LANG_C)
    2149                    .dwattr $C$DW$T$146, DW_AT_decl_file("C:/ti/ccs1110/ccs/tools/compiler/ti-cgt-msp430_21.6.1.LT
    2150                    .dwattr $C$DW$T$146, DW_AT_decl_line(0x7f)
    2151                    .dwattr $C$DW$T$146, DW_AT_decl_column(0x14)
    2152            
MSP430 Assembler PC v21.6.1 Tue Dec 20 13:45:55 2022

Copyright (c) 2003-2018 Texas Instruments Incorporated
usci_b_spi.asm                                                       PAGE   41

    2153            $C$DW$T$147     .dwtag  DW_TAG_typedef
    2154                    .dwattr $C$DW$T$147, DW_AT_name("__fsblkcnt_t")
    2155                    .dwattr $C$DW$T$147, DW_AT_type(*$C$DW$T$145)
    2156                    .dwattr $C$DW$T$147, DW_AT_language(DW_LANG_C)
    2157                    .dwattr $C$DW$T$147, DW_AT_decl_file("C:/ti/ccs1110/ccs/tools/compiler/ti-cgt-msp430_21.6.1.LT
    2158                    .dwattr $C$DW$T$147, DW_AT_decl_line(0x33)
    2159                    .dwattr $C$DW$T$147, DW_AT_decl_column(0x14)
    2160            
    2161            $C$DW$T$148     .dwtag  DW_TAG_typedef
    2162                    .dwattr $C$DW$T$148, DW_AT_name("__fsfilcnt_t")
    2163                    .dwattr $C$DW$T$148, DW_AT_type(*$C$DW$T$145)
    2164                    .dwattr $C$DW$T$148, DW_AT_language(DW_LANG_C)
    2165                    .dwattr $C$DW$T$148, DW_AT_decl_file("C:/ti/ccs1110/ccs/tools/compiler/ti-cgt-msp430_21.6.1.LT
    2166                    .dwattr $C$DW$T$148, DW_AT_decl_line(0x34)
    2167                    .dwattr $C$DW$T$148, DW_AT_decl_column(0x14)
    2168            
    2169            $C$DW$T$149     .dwtag  DW_TAG_typedef
    2170                    .dwattr $C$DW$T$149, DW_AT_name("__ino_t")
    2171                    .dwattr $C$DW$T$149, DW_AT_type(*$C$DW$T$145)
    2172                    .dwattr $C$DW$T$149, DW_AT_language(DW_LANG_C)
    2173                    .dwattr $C$DW$T$149, DW_AT_decl_file("C:/ti/ccs1110/ccs/tools/compiler/ti-cgt-msp430_21.6.1.LT
    2174                    .dwattr $C$DW$T$149, DW_AT_decl_line(0x37)
    2175                    .dwattr $C$DW$T$149, DW_AT_decl_column(0x14)
    2176            
    2177            $C$DW$T$150     .dwtag  DW_TAG_typedef
    2178                    .dwattr $C$DW$T$150, DW_AT_name("__nlink_t")
    2179                    .dwattr $C$DW$T$150, DW_AT_type(*$C$DW$T$145)
    2180                    .dwattr $C$DW$T$150, DW_AT_language(DW_LANG_C)
    2181                    .dwattr $C$DW$T$150, DW_AT_decl_file("C:/ti/ccs1110/ccs/tools/compiler/ti-cgt-msp430_21.6.1.LT
    2182                    .dwattr $C$DW$T$150, DW_AT_decl_line(0x3d)
    2183                    .dwattr $C$DW$T$150, DW_AT_decl_column(0x14)
    2184            
    2185            $C$DW$T$151     .dwtag  DW_TAG_typedef
    2186                    .dwattr $C$DW$T$151, DW_AT_name("__uint_fast64_t")
    2187                    .dwattr $C$DW$T$151, DW_AT_type(*$C$DW$T$145)
    2188                    .dwattr $C$DW$T$151, DW_AT_language(DW_LANG_C)
    2189                    .dwattr $C$DW$T$151, DW_AT_decl_file("C:/ti/ccs1110/ccs/tools/compiler/ti-cgt-msp430_21.6.1.LT
    2190                    .dwattr $C$DW$T$151, DW_AT_decl_line(0x73)
    2191                    .dwattr $C$DW$T$151, DW_AT_decl_column(0x14)
    2192            
    2193            $C$DW$T$152     .dwtag  DW_TAG_typedef
    2194                    .dwattr $C$DW$T$152, DW_AT_name("uint_fast64_t")
    2195                    .dwattr $C$DW$T$152, DW_AT_type(*$C$DW$T$151)
    2196                    .dwattr $C$DW$T$152, DW_AT_language(DW_LANG_C)
    2197                    .dwattr $C$DW$T$152, DW_AT_decl_file("C:/ti/ccs1110/ccs/tools/compiler/ti-cgt-msp430_21.6.1.LT
    2198                    .dwattr $C$DW$T$152, DW_AT_decl_line(0x3c)
    2199                    .dwattr $C$DW$T$152, DW_AT_decl_column(0x1a)
    2200            
    2201            $C$DW$T$153     .dwtag  DW_TAG_typedef
    2202                    .dwattr $C$DW$T$153, DW_AT_name("__uint_least64_t")
    2203                    .dwattr $C$DW$T$153, DW_AT_type(*$C$DW$T$145)
    2204                    .dwattr $C$DW$T$153, DW_AT_language(DW_LANG_C)
    2205                    .dwattr $C$DW$T$153, DW_AT_decl_file("C:/ti/ccs1110/ccs/tools/compiler/ti-cgt-msp430_21.6.1.LT
    2206                    .dwattr $C$DW$T$153, DW_AT_decl_line(0x77)
    2207                    .dwattr $C$DW$T$153, DW_AT_decl_column(0x14)
MSP430 Assembler PC v21.6.1 Tue Dec 20 13:45:55 2022

Copyright (c) 2003-2018 Texas Instruments Incorporated
usci_b_spi.asm                                                       PAGE   42

    2208            
    2209            $C$DW$T$154     .dwtag  DW_TAG_typedef
    2210                    .dwattr $C$DW$T$154, DW_AT_name("uint_least64_t")
    2211                    .dwattr $C$DW$T$154, DW_AT_type(*$C$DW$T$153)
    2212                    .dwattr $C$DW$T$154, DW_AT_language(DW_LANG_C)
    2213                    .dwattr $C$DW$T$154, DW_AT_decl_file("C:/ti/ccs1110/ccs/tools/compiler/ti-cgt-msp430_21.6.1.LT
    2214                    .dwattr $C$DW$T$154, DW_AT_decl_line(0x32)
    2215                    .dwattr $C$DW$T$154, DW_AT_decl_column(0x1a)
    2216            
    2217            $C$DW$T$155     .dwtag  DW_TAG_typedef
    2218                    .dwattr $C$DW$T$155, DW_AT_name("__uintmax_t")
    2219                    .dwattr $C$DW$T$155, DW_AT_type(*$C$DW$T$145)
    2220                    .dwattr $C$DW$T$155, DW_AT_language(DW_LANG_C)
    2221                    .dwattr $C$DW$T$155, DW_AT_decl_file("C:/ti/ccs1110/ccs/tools/compiler/ti-cgt-msp430_21.6.1.LT
    2222                    .dwattr $C$DW$T$155, DW_AT_decl_line(0x69)
    2223                    .dwattr $C$DW$T$155, DW_AT_decl_column(0x14)
    2224            
    2225            $C$DW$T$156     .dwtag  DW_TAG_typedef
    2226                    .dwattr $C$DW$T$156, DW_AT_name("__rman_res_t")
    2227                    .dwattr $C$DW$T$156, DW_AT_type(*$C$DW$T$155)
    2228                    .dwattr $C$DW$T$156, DW_AT_language(DW_LANG_C)
    2229                    .dwattr $C$DW$T$156, DW_AT_decl_file("C:/ti/ccs1110/ccs/tools/compiler/ti-cgt-msp430_21.6.1.LT
    2230                    .dwattr $C$DW$T$156, DW_AT_decl_line(0x9a)
    2231                    .dwattr $C$DW$T$156, DW_AT_decl_column(0x19)
    2232            
    2233            $C$DW$T$157     .dwtag  DW_TAG_typedef
    2234                    .dwattr $C$DW$T$157, DW_AT_name("uintmax_t")
    2235                    .dwattr $C$DW$T$157, DW_AT_type(*$C$DW$T$155)
    2236                    .dwattr $C$DW$T$157, DW_AT_language(DW_LANG_C)
    2237                    .dwattr $C$DW$T$157, DW_AT_decl_file("C:/ti/ccs1110/ccs/tools/compiler/ti-cgt-msp430_21.6.1.LT
    2238                    .dwattr $C$DW$T$157, DW_AT_decl_line(0x5c)
    2239                    .dwattr $C$DW$T$157, DW_AT_decl_column(0x16)
    2240            
    2241            $C$DW$T$158     .dwtag  DW_TAG_typedef
    2242                    .dwattr $C$DW$T$158, DW_AT_name("uint64_t")
    2243                    .dwattr $C$DW$T$158, DW_AT_type(*$C$DW$T$145)
    2244                    .dwattr $C$DW$T$158, DW_AT_language(DW_LANG_C)
    2245                    .dwattr $C$DW$T$158, DW_AT_decl_file("C:/ti/ccs1110/ccs/tools/compiler/ti-cgt-msp430_21.6.1.LT
    2246                    .dwattr $C$DW$T$158, DW_AT_decl_line(0x4b)
    2247                    .dwattr $C$DW$T$158, DW_AT_decl_column(0x15)
    2248            
    2249            $C$DW$T$16      .dwtag  DW_TAG_base_type
    2250                    .dwattr $C$DW$T$16, DW_AT_encoding(DW_ATE_float)
    2251                    .dwattr $C$DW$T$16, DW_AT_name("float")
    2252                    .dwattr $C$DW$T$16, DW_AT_byte_size(0x04)
    2253            
    2254            $C$DW$T$159     .dwtag  DW_TAG_typedef
    2255                    .dwattr $C$DW$T$159, DW_AT_name("__float_t")
    2256                    .dwattr $C$DW$T$159, DW_AT_type(*$C$DW$T$16)
    2257                    .dwattr $C$DW$T$159, DW_AT_language(DW_LANG_C)
    2258                    .dwattr $C$DW$T$159, DW_AT_decl_file("C:/ti/ccs1110/ccs/tools/compiler/ti-cgt-msp430_21.6.1.LT
    2259                    .dwattr $C$DW$T$159, DW_AT_decl_line(0x4d)
    2260                    .dwattr $C$DW$T$159, DW_AT_decl_column(0x10)
    2261            
    2262            $C$DW$T$17      .dwtag  DW_TAG_base_type
MSP430 Assembler PC v21.6.1 Tue Dec 20 13:45:55 2022

Copyright (c) 2003-2018 Texas Instruments Incorporated
usci_b_spi.asm                                                       PAGE   43

    2263                    .dwattr $C$DW$T$17, DW_AT_encoding(DW_ATE_float)
    2264                    .dwattr $C$DW$T$17, DW_AT_name("double")
    2265                    .dwattr $C$DW$T$17, DW_AT_byte_size(0x08)
    2266            
    2267            $C$DW$T$160     .dwtag  DW_TAG_typedef
    2268                    .dwattr $C$DW$T$160, DW_AT_name("__double_t")
    2269                    .dwattr $C$DW$T$160, DW_AT_type(*$C$DW$T$17)
    2270                    .dwattr $C$DW$T$160, DW_AT_language(DW_LANG_C)
    2271                    .dwattr $C$DW$T$160, DW_AT_decl_file("C:/ti/ccs1110/ccs/tools/compiler/ti-cgt-msp430_21.6.1.LT
    2272                    .dwattr $C$DW$T$160, DW_AT_decl_line(0x4c)
    2273                    .dwattr $C$DW$T$160, DW_AT_decl_column(0x11)
    2274            
    2275            $C$DW$T$18      .dwtag  DW_TAG_base_type
    2276                    .dwattr $C$DW$T$18, DW_AT_encoding(DW_ATE_float)
    2277                    .dwattr $C$DW$T$18, DW_AT_name("long double")
    2278                    .dwattr $C$DW$T$18, DW_AT_byte_size(0x08)
    2279            
    2280            $C$DW$T$161     .dwtag  DW_TAG_base_type
    2281                    .dwattr $C$DW$T$161, DW_AT_encoding(DW_ATE_unsigned_char)
    2282                    .dwattr $C$DW$T$161, DW_AT_name("unsigned char")
    2283                    .dwattr $C$DW$T$161, DW_AT_byte_size(0x01)
    2284            
    2285            $C$DW$T$165     .dwtag  DW_TAG_pointer_type
    2286                    .dwattr $C$DW$T$165, DW_AT_type(*$C$DW$T$6)
    2287                    .dwattr $C$DW$T$165, DW_AT_address_class(0x14)
    2288            
    2289            $C$DW$T$166     .dwtag  DW_TAG_typedef
    2290                    .dwattr $C$DW$T$166, DW_AT_name("__va_list")
    2291                    .dwattr $C$DW$T$166, DW_AT_type(*$C$DW$T$165)
    2292                    .dwattr $C$DW$T$166, DW_AT_language(DW_LANG_C)
    2293                    .dwattr $C$DW$T$166, DW_AT_decl_file("C:/ti/ccs1110/ccs/tools/compiler/ti-cgt-msp430_21.6.1.LT
    2294                    .dwattr $C$DW$T$166, DW_AT_decl_line(0x92)
    2295                    .dwattr $C$DW$T$166, DW_AT_decl_column(0x0f)
    2296            
    2297            
    2298            $C$DW$T$19      .dwtag  DW_TAG_structure_type
    2299                    .dwattr $C$DW$T$19, DW_AT_name("__mq")
    2300                    .dwattr $C$DW$T$19, DW_AT_declaration
    2301                    .dwattr $C$DW$T$19, DW_AT_decl_file("C:/ti/ccs1110/ccs/tools/compiler/ti-cgt-msp430_21.6.1.LTS
    2302                    .dwattr $C$DW$T$19, DW_AT_decl_line(0x4c)
    2303                    .dwattr $C$DW$T$19, DW_AT_decl_column(0x10)
    2304                    .dwendtag $C$DW$T$19
    2305            
    2306            $C$DW$T$167     .dwtag  DW_TAG_pointer_type
    2307                    .dwattr $C$DW$T$167, DW_AT_type(*$C$DW$T$19)
    2308                    .dwattr $C$DW$T$167, DW_AT_address_class(0x14)
    2309            
    2310            $C$DW$T$168     .dwtag  DW_TAG_typedef
    2311                    .dwattr $C$DW$T$168, DW_AT_name("__mqd_t")
    2312                    .dwattr $C$DW$T$168, DW_AT_type(*$C$DW$T$167)
    2313                    .dwattr $C$DW$T$168, DW_AT_language(DW_LANG_C)
    2314                    .dwattr $C$DW$T$168, DW_AT_decl_file("C:/ti/ccs1110/ccs/tools/compiler/ti-cgt-msp430_21.6.1.LT
    2315                    .dwattr $C$DW$T$168, DW_AT_decl_line(0x4c)
    2316                    .dwattr $C$DW$T$168, DW_AT_decl_column(0x16)
    2317            
MSP430 Assembler PC v21.6.1 Tue Dec 20 13:45:55 2022

Copyright (c) 2003-2018 Texas Instruments Incorporated
usci_b_spi.asm                                                       PAGE   44

    2318            
    2319            $C$DW$T$20      .dwtag  DW_TAG_structure_type
    2320                    .dwattr $C$DW$T$20, DW_AT_name("__timer")
    2321                    .dwattr $C$DW$T$20, DW_AT_declaration
    2322                    .dwattr $C$DW$T$20, DW_AT_decl_file("C:/ti/ccs1110/ccs/tools/compiler/ti-cgt-msp430_21.6.1.LTS
    2323                    .dwattr $C$DW$T$20, DW_AT_decl_line(0x4b)
    2324                    .dwattr $C$DW$T$20, DW_AT_decl_column(0x10)
    2325                    .dwendtag $C$DW$T$20
    2326            
    2327            $C$DW$T$169     .dwtag  DW_TAG_pointer_type
    2328                    .dwattr $C$DW$T$169, DW_AT_type(*$C$DW$T$20)
    2329                    .dwattr $C$DW$T$169, DW_AT_address_class(0x14)
    2330            
    2331            $C$DW$T$170     .dwtag  DW_TAG_typedef
    2332                    .dwattr $C$DW$T$170, DW_AT_name("__timer_t")
    2333                    .dwattr $C$DW$T$170, DW_AT_type(*$C$DW$T$169)
    2334                    .dwattr $C$DW$T$170, DW_AT_language(DW_LANG_C)
    2335                    .dwattr $C$DW$T$170, DW_AT_decl_file("C:/ti/ccs1110/ccs/tools/compiler/ti-cgt-msp430_21.6.1.LT
    2336                    .dwattr $C$DW$T$170, DW_AT_decl_line(0x4b)
    2337                    .dwattr $C$DW$T$170, DW_AT_decl_column(0x19)
    2338            
    2339                    .dwattr $C$DW$CU, DW_AT_language(DW_LANG_C)
    2340            
    2341            ;***************************************************************
    2342            ;* DWARF CIE ENTRIES                                           *
    2343            ;***************************************************************
    2344            
    2345            $C$DW$CIE       .dwcie 16
    2346                    .dwcfi  cfa_register, 1
    2347                    .dwcfi  cfa_offset, 0
    2348                    .dwcfi  same_value, 0
    2349                    .dwcfi  same_value, 1
    2350                    .dwcfi  same_value, 3
    2351                    .dwcfi  same_value, 4
    2352                    .dwcfi  same_value, 5
    2353                    .dwcfi  same_value, 6
    2354                    .dwcfi  same_value, 7
    2355                    .dwcfi  same_value, 8
    2356                    .dwcfi  same_value, 9
    2357                    .dwcfi  same_value, 10
    2358                    .dwendentry
    2359            
    2360            ;***************************************************************
    2361            ;* DWARF REGISTER MAP                                          *
    2362            ;***************************************************************
    2363            
    2364            $C$DW$87        .dwtag  DW_TAG_TI_assign_register
    2365                    .dwattr $C$DW$87, DW_AT_name("PC")
    2366                    .dwattr $C$DW$87, DW_AT_location[DW_OP_reg0]
    2367            
    2368            $C$DW$88        .dwtag  DW_TAG_TI_assign_register
    2369                    .dwattr $C$DW$88, DW_AT_name("SP")
    2370                    .dwattr $C$DW$88, DW_AT_location[DW_OP_reg1]
    2371            
    2372            $C$DW$89        .dwtag  DW_TAG_TI_assign_register
MSP430 Assembler PC v21.6.1 Tue Dec 20 13:45:55 2022

Copyright (c) 2003-2018 Texas Instruments Incorporated
usci_b_spi.asm                                                       PAGE   45

    2373                    .dwattr $C$DW$89, DW_AT_name("SR")
    2374                    .dwattr $C$DW$89, DW_AT_location[DW_OP_reg2]
    2375            
    2376            $C$DW$90        .dwtag  DW_TAG_TI_assign_register
    2377                    .dwattr $C$DW$90, DW_AT_name("CG")
    2378                    .dwattr $C$DW$90, DW_AT_location[DW_OP_reg3]
    2379            
    2380            $C$DW$91        .dwtag  DW_TAG_TI_assign_register
    2381                    .dwattr $C$DW$91, DW_AT_name("r4")
    2382                    .dwattr $C$DW$91, DW_AT_location[DW_OP_reg4]
    2383            
    2384            $C$DW$92        .dwtag  DW_TAG_TI_assign_register
    2385                    .dwattr $C$DW$92, DW_AT_name("r5")
    2386                    .dwattr $C$DW$92, DW_AT_location[DW_OP_reg5]
    2387            
    2388            $C$DW$93        .dwtag  DW_TAG_TI_assign_register
    2389                    .dwattr $C$DW$93, DW_AT_name("r6")
    2390                    .dwattr $C$DW$93, DW_AT_location[DW_OP_reg6]
    2391            
    2392            $C$DW$94        .dwtag  DW_TAG_TI_assign_register
    2393                    .dwattr $C$DW$94, DW_AT_name("r7")
    2394                    .dwattr $C$DW$94, DW_AT_location[DW_OP_reg7]
    2395            
    2396            $C$DW$95        .dwtag  DW_TAG_TI_assign_register
    2397                    .dwattr $C$DW$95, DW_AT_name("r8")
    2398                    .dwattr $C$DW$95, DW_AT_location[DW_OP_reg8]
    2399            
    2400            $C$DW$96        .dwtag  DW_TAG_TI_assign_register
    2401                    .dwattr $C$DW$96, DW_AT_name("r9")
    2402                    .dwattr $C$DW$96, DW_AT_location[DW_OP_reg9]
    2403            
    2404            $C$DW$97        .dwtag  DW_TAG_TI_assign_register
    2405                    .dwattr $C$DW$97, DW_AT_name("r10")
    2406                    .dwattr $C$DW$97, DW_AT_location[DW_OP_reg10]
    2407            
    2408            $C$DW$98        .dwtag  DW_TAG_TI_assign_register
    2409                    .dwattr $C$DW$98, DW_AT_name("r11")
    2410                    .dwattr $C$DW$98, DW_AT_location[DW_OP_reg11]
    2411            
    2412            $C$DW$99        .dwtag  DW_TAG_TI_assign_register
    2413                    .dwattr $C$DW$99, DW_AT_name("r12")
    2414                    .dwattr $C$DW$99, DW_AT_location[DW_OP_reg12]
    2415            
    2416            $C$DW$100       .dwtag  DW_TAG_TI_assign_register
    2417                    .dwattr $C$DW$100, DW_AT_name("r13")
    2418                    .dwattr $C$DW$100, DW_AT_location[DW_OP_reg13]
    2419            
    2420            $C$DW$101       .dwtag  DW_TAG_TI_assign_register
    2421                    .dwattr $C$DW$101, DW_AT_name("r14")
    2422                    .dwattr $C$DW$101, DW_AT_location[DW_OP_reg14]
    2423            
    2424            $C$DW$102       .dwtag  DW_TAG_TI_assign_register
    2425                    .dwattr $C$DW$102, DW_AT_name("r15")
    2426                    .dwattr $C$DW$102, DW_AT_location[DW_OP_reg15]
    2427            
MSP430 Assembler PC v21.6.1 Tue Dec 20 13:45:55 2022

Copyright (c) 2003-2018 Texas Instruments Incorporated
usci_b_spi.asm                                                       PAGE   46

    2428            $C$DW$103       .dwtag  DW_TAG_TI_assign_register
    2429                    .dwattr $C$DW$103, DW_AT_name("CIE_RETA")
    2430                    .dwattr $C$DW$103, DW_AT_location[DW_OP_reg16]
    2431            
    2432                    .dwendtag $C$DW$CU
    2433            

No Assembly Errors, No Assembly Warnings
