MSP430 Assembler PC v21.6.1 Tue Dec 20 13:45:55 2022

Copyright (c) 2003-2018 Texas Instruments Incorporated
wdt_a.asm                                                            PAGE    1

       1            ;******************************************************************************
       2            ;* MSP430 G3 C/C++ Codegen                                              PC v21.6.1.LTS *
       3            ;* Date/Time created: Tue Dec 20 13:45:55 2022                                *
       4            ;******************************************************************************
       5                    .compiler_opts --abi=eabi --diag_wrap=off --hll_source=on --mem_model:code=large --mem_model:d
       6            
       7            $C$DW$CU        .dwtag  DW_TAG_compile_unit
       8                    .dwattr $C$DW$CU, DW_AT_name("../MP430DriverLib/driverlib/MSP430F5xx_6xx/wdt_a.c")
       9                    .dwattr $C$DW$CU, DW_AT_producer("TI MSP430 G3 C/C++ Codegen PC v21.6.1.LTS Copyright (c) 2003
      10                    .dwattr $C$DW$CU, DW_AT_TI_version(0x01)
      11                    .dwattr $C$DW$CU, DW_AT_comp_dir("C:\Users\MCourson\workspace_v11\MZERO_HB50Board\Debug")
      12            ;       C:\ti\ccs1110\ccs\tools\compiler\ti-cgt-msp430_21.6.1.LTS\bin\opt430.exe C:\\Users\\MCourson\\
      13 000000               .sect   ".text:WDT_A_start"
      14                    .clink
      15                    .global WDT_A_start
      16            
      17            $C$DW$1 .dwtag  DW_TAG_subprogram
      18                    .dwattr $C$DW$1, DW_AT_name("WDT_A_start")
      19                    .dwattr $C$DW$1, DW_AT_low_pc(WDT_A_start)
      20                    .dwattr $C$DW$1, DW_AT_high_pc(0x00)
      21                    .dwattr $C$DW$1, DW_AT_TI_symbol_name("WDT_A_start")
      22                    .dwattr $C$DW$1, DW_AT_external
      23                    .dwattr $C$DW$1, DW_AT_TI_begin_file("../MP430DriverLib/driverlib/MSP430F5xx_6xx/wdt_a.c")
      24                    .dwattr $C$DW$1, DW_AT_TI_begin_line(0x1e)
      25                    .dwattr $C$DW$1, DW_AT_TI_begin_column(0x06)
      26                    .dwattr $C$DW$1, DW_AT_decl_file("../MP430DriverLib/driverlib/MSP430F5xx_6xx/wdt_a.c")
      27                    .dwattr $C$DW$1, DW_AT_decl_line(0x1e)
      28                    .dwattr $C$DW$1, DW_AT_decl_column(0x06)
      29                    .dwattr $C$DW$1, DW_AT_TI_max_frame_size(0x04)
      30                    .dwpsn  file "../MP430DriverLib/driverlib/MSP430F5xx_6xx/wdt_a.c",line 31,column 1,is_stmt,add
      31            
      32                    .dwfde $C$DW$CIE, WDT_A_start
      33            $C$DW$2 .dwtag  DW_TAG_formal_parameter
      34                    .dwattr $C$DW$2, DW_AT_name("baseAddress")
      35                    .dwattr $C$DW$2, DW_AT_TI_symbol_name("baseAddress")
      36                    .dwattr $C$DW$2, DW_AT_type(*$C$DW$T$24)
      37                    .dwattr $C$DW$2, DW_AT_location[DW_OP_reg12]
      38            
      39            
      40            ;*****************************************************************************
      41            ;* FUNCTION NAME: WDT_A_start                                                *
      42            ;*                                                                           *
      43            ;*   Regs Modified     : SP,SR,r12,r15                                       *
      44            ;*   Regs Used         : SP,SR,r12,r15                                       *
      45            ;*   Local Frame Size  : 0 Args + 0 Auto + 0 Save = 0 byte                   *
      46            ;*****************************************************************************
      47 000000       WDT_A_start:
      48            ;* --------------------------------------------------------------------------*
      49                    .dwcfi  cfa_offset, 4
      50                    .dwcfi  save_reg_to_mem, 16, -4
      51            ;* r12   assigned to baseAddress
      52            $C$DW$3 .dwtag  DW_TAG_variable
      53                    .dwattr $C$DW$3, DW_AT_name("baseAddress")
      54                    .dwattr $C$DW$3, DW_AT_TI_symbol_name("baseAddress")
      55                    .dwattr $C$DW$3, DW_AT_type(*$C$DW$T$24)
MSP430 Assembler PC v21.6.1 Tue Dec 20 13:45:55 2022

Copyright (c) 2003-2018 Texas Instruments Incorporated
wdt_a.asm                                                            PAGE    2

      56                    .dwattr $C$DW$3, DW_AT_location[DW_OP_reg12]
      57            
      58            ;* r15   assigned to newWDTStatus
      59            $C$DW$4 .dwtag  DW_TAG_variable
      60                    .dwattr $C$DW$4, DW_AT_name("newWDTStatus")
      61                    .dwattr $C$DW$4, DW_AT_TI_symbol_name("newWDTStatus")
      62                    .dwattr $C$DW$4, DW_AT_type(*$C$DW$T$27)
      63                    .dwattr $C$DW$4, DW_AT_location[DW_OP_reg15]
      64            
      65                    .dwpsn  file "../MP430DriverLib/driverlib/MSP430F5xx_6xx/wdt_a.c",line 33,column 26,is_stmt,is
      66 000000 0CCF          MOVA      r12,r15               ; [] |33| 
      67 000002 503F          ADD.W     #12,r15               ; [] |33| 
         000004 000C 
      68 000006 4F2F          MOV.W     @r15,r15              ; [] |33| 
      69 000008 F07F          AND.B     #127,r15              ; [] |33| 
         00000a 007F 
      70                    .dwpsn  file "../MP430DriverLib/driverlib/MSP430F5xx_6xx/wdt_a.c",line 36,column 5,is_stmt,isa
      71 00000c 4F4F          MOV.B     r15,r15               ; [] |36| 
      72 00000e 503F          ADD.W     #23040,r15            ; [] |36| 
         000010 5A00 
      73 000012 503C          ADD.W     #12,r12               ; [] |36| 
         000014 000C 
      74 000016 4F8C          MOV.W     r15,0(r12)            ; [] |36| 
         000018 0000 
      75                    .dwpsn  file "../MP430DriverLib/driverlib/MSP430F5xx_6xx/wdt_a.c",line 37,column 1,is_stmt,isa
      76            $C$DW$5 .dwtag  DW_TAG_TI_branch
      77                    .dwattr $C$DW$5, DW_AT_low_pc(0x00)
      78                    .dwattr $C$DW$5, DW_AT_TI_return
      79            
      80 00001a 0110          RETA      ; [] 
      81                    ; [] 
      82                    .dwattr $C$DW$1, DW_AT_TI_end_file("../MP430DriverLib/driverlib/MSP430F5xx_6xx/wdt_a.c")
      83                    .dwattr $C$DW$1, DW_AT_TI_end_line(0x25)
      84                    .dwattr $C$DW$1, DW_AT_TI_end_column(0x01)
      85                    .dwendentry
      86                    .dwendtag $C$DW$1
      87            
      88 000000               .sect   ".text:WDT_A_resetTimer"
      89                    .clink
      90                    .global WDT_A_resetTimer
      91            
      92            $C$DW$6 .dwtag  DW_TAG_subprogram
      93                    .dwattr $C$DW$6, DW_AT_name("WDT_A_resetTimer")
      94                    .dwattr $C$DW$6, DW_AT_low_pc(WDT_A_resetTimer)
      95                    .dwattr $C$DW$6, DW_AT_high_pc(0x00)
      96                    .dwattr $C$DW$6, DW_AT_TI_symbol_name("WDT_A_resetTimer")
      97                    .dwattr $C$DW$6, DW_AT_external
      98                    .dwattr $C$DW$6, DW_AT_TI_begin_file("../MP430DriverLib/driverlib/MSP430F5xx_6xx/wdt_a.c")
      99                    .dwattr $C$DW$6, DW_AT_TI_begin_line(0x27)
     100                    .dwattr $C$DW$6, DW_AT_TI_begin_column(0x06)
     101                    .dwattr $C$DW$6, DW_AT_decl_file("../MP430DriverLib/driverlib/MSP430F5xx_6xx/wdt_a.c")
     102                    .dwattr $C$DW$6, DW_AT_decl_line(0x27)
     103                    .dwattr $C$DW$6, DW_AT_decl_column(0x06)
     104                    .dwattr $C$DW$6, DW_AT_TI_max_frame_size(0x04)
     105                    .dwpsn  file "../MP430DriverLib/driverlib/MSP430F5xx_6xx/wdt_a.c",line 40,column 1,is_stmt,add
MSP430 Assembler PC v21.6.1 Tue Dec 20 13:45:55 2022

Copyright (c) 2003-2018 Texas Instruments Incorporated
wdt_a.asm                                                            PAGE    3

     106            
     107                    .dwfde $C$DW$CIE, WDT_A_resetTimer
     108            $C$DW$7 .dwtag  DW_TAG_formal_parameter
     109                    .dwattr $C$DW$7, DW_AT_name("baseAddress")
     110                    .dwattr $C$DW$7, DW_AT_TI_symbol_name("baseAddress")
     111                    .dwattr $C$DW$7, DW_AT_type(*$C$DW$T$24)
     112                    .dwattr $C$DW$7, DW_AT_location[DW_OP_reg12]
     113            
     114            
     115            ;*****************************************************************************
     116            ;* FUNCTION NAME: WDT_A_resetTimer                                           *
     117            ;*                                                                           *
     118            ;*   Regs Modified     : SP,SR,r12,r15                                       *
     119            ;*   Regs Used         : SP,SR,r12,r15                                       *
     120            ;*   Local Frame Size  : 0 Args + 0 Auto + 0 Save = 0 byte                   *
     121            ;*****************************************************************************
     122 000000       WDT_A_resetTimer:
     123            ;* --------------------------------------------------------------------------*
     124                    .dwcfi  cfa_offset, 4
     125                    .dwcfi  save_reg_to_mem, 16, -4
     126            ;* r12   assigned to baseAddress
     127            $C$DW$8 .dwtag  DW_TAG_variable
     128                    .dwattr $C$DW$8, DW_AT_name("baseAddress")
     129                    .dwattr $C$DW$8, DW_AT_TI_symbol_name("baseAddress")
     130                    .dwattr $C$DW$8, DW_AT_type(*$C$DW$T$24)
     131                    .dwattr $C$DW$8, DW_AT_location[DW_OP_reg12]
     132            
     133            ;* r15   assigned to newWDTStatus
     134            $C$DW$9 .dwtag  DW_TAG_variable
     135                    .dwattr $C$DW$9, DW_AT_name("newWDTStatus")
     136                    .dwattr $C$DW$9, DW_AT_TI_symbol_name("newWDTStatus")
     137                    .dwattr $C$DW$9, DW_AT_type(*$C$DW$T$27)
     138                    .dwattr $C$DW$9, DW_AT_location[DW_OP_reg15]
     139            
     140                    .dwpsn  file "../MP430DriverLib/driverlib/MSP430F5xx_6xx/wdt_a.c",line 42,column 26,is_stmt,is
     141 000000 0CCF          MOVA      r12,r15               ; [] |42| 
     142 000002 503F          ADD.W     #12,r15               ; [] |42| 
         000004 000C 
     143 000006 4F2F          MOV.W     @r15,r15              ; [] |42| 
     144 000008 C27F          BIC.B     #8,r15                ; [] |42| 
     145 00000a D27F          OR.B      #8,r15                ; [] |42| 
     146                    .dwpsn  file "../MP430DriverLib/driverlib/MSP430F5xx_6xx/wdt_a.c",line 45,column 5,is_stmt,isa
     147 00000c 4F4F          MOV.B     r15,r15               ; [] |45| 
     148 00000e 503F          ADD.W     #23040,r15            ; [] |45| 
         000010 5A00 
     149 000012 503C          ADD.W     #12,r12               ; [] |45| 
         000014 000C 
     150 000016 4F8C          MOV.W     r15,0(r12)            ; [] |45| 
         000018 0000 
     151                    .dwpsn  file "../MP430DriverLib/driverlib/MSP430F5xx_6xx/wdt_a.c",line 46,column 1,is_stmt,isa
     152            $C$DW$10        .dwtag  DW_TAG_TI_branch
     153                    .dwattr $C$DW$10, DW_AT_low_pc(0x00)
     154                    .dwattr $C$DW$10, DW_AT_TI_return
     155            
     156 00001a 0110          RETA      ; [] 
MSP430 Assembler PC v21.6.1 Tue Dec 20 13:45:55 2022

Copyright (c) 2003-2018 Texas Instruments Incorporated
wdt_a.asm                                                            PAGE    4

     157                    ; [] 
     158                    .dwattr $C$DW$6, DW_AT_TI_end_file("../MP430DriverLib/driverlib/MSP430F5xx_6xx/wdt_a.c")
     159                    .dwattr $C$DW$6, DW_AT_TI_end_line(0x2e)
     160                    .dwattr $C$DW$6, DW_AT_TI_end_column(0x01)
     161                    .dwendentry
     162                    .dwendtag $C$DW$6
     163            
     164 000000               .sect   ".text:WDT_A_initWatchdogTimer"
     165                    .clink
     166                    .global WDT_A_initWatchdogTimer
     167            
     168            $C$DW$11        .dwtag  DW_TAG_subprogram
     169                    .dwattr $C$DW$11, DW_AT_name("WDT_A_initWatchdogTimer")
     170                    .dwattr $C$DW$11, DW_AT_low_pc(WDT_A_initWatchdogTimer)
     171                    .dwattr $C$DW$11, DW_AT_high_pc(0x00)
     172                    .dwattr $C$DW$11, DW_AT_TI_symbol_name("WDT_A_initWatchdogTimer")
     173                    .dwattr $C$DW$11, DW_AT_external
     174                    .dwattr $C$DW$11, DW_AT_TI_begin_file("../MP430DriverLib/driverlib/MSP430F5xx_6xx/wdt_a.c")
     175                    .dwattr $C$DW$11, DW_AT_TI_begin_line(0x30)
     176                    .dwattr $C$DW$11, DW_AT_TI_begin_column(0x06)
     177                    .dwattr $C$DW$11, DW_AT_decl_file("../MP430DriverLib/driverlib/MSP430F5xx_6xx/wdt_a.c")
     178                    .dwattr $C$DW$11, DW_AT_decl_line(0x30)
     179                    .dwattr $C$DW$11, DW_AT_decl_column(0x06)
     180                    .dwattr $C$DW$11, DW_AT_TI_max_frame_size(0x04)
     181                    .dwpsn  file "../MP430DriverLib/driverlib/MSP430F5xx_6xx/wdt_a.c",line 51,column 1,is_stmt,add
     182            
     183                    .dwfde $C$DW$CIE, WDT_A_initWatchdogTimer
     184            $C$DW$12        .dwtag  DW_TAG_formal_parameter
     185                    .dwattr $C$DW$12, DW_AT_name("baseAddress")
     186                    .dwattr $C$DW$12, DW_AT_TI_symbol_name("baseAddress")
     187                    .dwattr $C$DW$12, DW_AT_type(*$C$DW$T$24)
     188                    .dwattr $C$DW$12, DW_AT_location[DW_OP_reg12]
     189            
     190            $C$DW$13        .dwtag  DW_TAG_formal_parameter
     191                    .dwattr $C$DW$13, DW_AT_name("clockSelect")
     192                    .dwattr $C$DW$13, DW_AT_TI_symbol_name("clockSelect")
     193                    .dwattr $C$DW$13, DW_AT_type(*$C$DW$T$27)
     194                    .dwattr $C$DW$13, DW_AT_location[DW_OP_reg13]
     195            
     196            $C$DW$14        .dwtag  DW_TAG_formal_parameter
     197                    .dwattr $C$DW$14, DW_AT_name("clockDivider")
     198                    .dwattr $C$DW$14, DW_AT_TI_symbol_name("clockDivider")
     199                    .dwattr $C$DW$14, DW_AT_type(*$C$DW$T$27)
     200                    .dwattr $C$DW$14, DW_AT_location[DW_OP_reg14]
     201            
     202            
     203            ;*****************************************************************************
     204            ;* FUNCTION NAME: WDT_A_initWatchdogTimer                                    *
     205            ;*                                                                           *
     206            ;*   Regs Modified     : SP,SR,r12,r13,r14                                   *
     207            ;*   Regs Used         : SP,SR,r12,r13,r14                                   *
     208            ;*   Local Frame Size  : 0 Args + 0 Auto + 0 Save = 0 byte                   *
     209            ;*****************************************************************************
     210 000000       WDT_A_initWatchdogTimer:
     211            ;* --------------------------------------------------------------------------*
MSP430 Assembler PC v21.6.1 Tue Dec 20 13:45:55 2022

Copyright (c) 2003-2018 Texas Instruments Incorporated
wdt_a.asm                                                            PAGE    5

     212                    .dwcfi  cfa_offset, 4
     213                    .dwcfi  save_reg_to_mem, 16, -4
     214            ;* r13   assigned to clockSelect
     215            $C$DW$15        .dwtag  DW_TAG_variable
     216                    .dwattr $C$DW$15, DW_AT_name("clockSelect")
     217                    .dwattr $C$DW$15, DW_AT_TI_symbol_name("clockSelect")
     218                    .dwattr $C$DW$15, DW_AT_type(*$C$DW$T$27)
     219                    .dwattr $C$DW$15, DW_AT_location[DW_OP_reg13]
     220            
     221            ;* r14   assigned to clockDivider
     222            $C$DW$16        .dwtag  DW_TAG_variable
     223                    .dwattr $C$DW$16, DW_AT_name("clockDivider")
     224                    .dwattr $C$DW$16, DW_AT_TI_symbol_name("clockDivider")
     225                    .dwattr $C$DW$16, DW_AT_type(*$C$DW$T$27)
     226                    .dwattr $C$DW$16, DW_AT_location[DW_OP_reg14]
     227            
     228                    .dwpsn  file "../MP430DriverLib/driverlib/MSP430F5xx_6xx/wdt_a.c",line 52,column 5,is_stmt,isa
     229 000000 4D4D          MOV.B     r13,r13               ; [] |52| 
     230 000002 4E4E          MOV.B     r14,r14               ; [] |52| 
     231 000004 5E0D          ADD.W     r14,r13               ; [] |52| 
     232 000006 503D          ADD.W     #23176,r13            ; [] |52| 
         000008 5A88 
     233 00000a 503C          ADD.W     #12,r12               ; [] |52| 
         00000c 000C 
     234 00000e 4D8C          MOV.W     r13,0(r12)            ; [] |52| 
         000010 0000 
     235                    .dwpsn  file "../MP430DriverLib/driverlib/MSP430F5xx_6xx/wdt_a.c",line 54,column 1,is_stmt,isa
     236            $C$DW$17        .dwtag  DW_TAG_TI_branch
     237                    .dwattr $C$DW$17, DW_AT_low_pc(0x00)
     238                    .dwattr $C$DW$17, DW_AT_TI_return
     239            
     240 000012 0110          RETA      ; [] 
     241                    ; [] 
     242                    .dwattr $C$DW$11, DW_AT_TI_end_file("../MP430DriverLib/driverlib/MSP430F5xx_6xx/wdt_a.c")
     243                    .dwattr $C$DW$11, DW_AT_TI_end_line(0x36)
     244                    .dwattr $C$DW$11, DW_AT_TI_end_column(0x01)
     245                    .dwendentry
     246                    .dwendtag $C$DW$11
     247            
     248 000000               .sect   ".text:WDT_A_initIntervalTimer"
     249                    .clink
     250                    .global WDT_A_initIntervalTimer
     251            
     252            $C$DW$18        .dwtag  DW_TAG_subprogram
     253                    .dwattr $C$DW$18, DW_AT_name("WDT_A_initIntervalTimer")
     254                    .dwattr $C$DW$18, DW_AT_low_pc(WDT_A_initIntervalTimer)
     255                    .dwattr $C$DW$18, DW_AT_high_pc(0x00)
     256                    .dwattr $C$DW$18, DW_AT_TI_symbol_name("WDT_A_initIntervalTimer")
     257                    .dwattr $C$DW$18, DW_AT_external
     258                    .dwattr $C$DW$18, DW_AT_TI_begin_file("../MP430DriverLib/driverlib/MSP430F5xx_6xx/wdt_a.c")
     259                    .dwattr $C$DW$18, DW_AT_TI_begin_line(0x38)
     260                    .dwattr $C$DW$18, DW_AT_TI_begin_column(0x06)
     261                    .dwattr $C$DW$18, DW_AT_decl_file("../MP430DriverLib/driverlib/MSP430F5xx_6xx/wdt_a.c")
     262                    .dwattr $C$DW$18, DW_AT_decl_line(0x38)
     263                    .dwattr $C$DW$18, DW_AT_decl_column(0x06)
MSP430 Assembler PC v21.6.1 Tue Dec 20 13:45:55 2022

Copyright (c) 2003-2018 Texas Instruments Incorporated
wdt_a.asm                                                            PAGE    6

     264                    .dwattr $C$DW$18, DW_AT_TI_max_frame_size(0x04)
     265                    .dwpsn  file "../MP430DriverLib/driverlib/MSP430F5xx_6xx/wdt_a.c",line 59,column 1,is_stmt,add
     266            
     267                    .dwfde $C$DW$CIE, WDT_A_initIntervalTimer
     268            $C$DW$19        .dwtag  DW_TAG_formal_parameter
     269                    .dwattr $C$DW$19, DW_AT_name("baseAddress")
     270                    .dwattr $C$DW$19, DW_AT_TI_symbol_name("baseAddress")
     271                    .dwattr $C$DW$19, DW_AT_type(*$C$DW$T$24)
     272                    .dwattr $C$DW$19, DW_AT_location[DW_OP_reg12]
     273            
     274            $C$DW$20        .dwtag  DW_TAG_formal_parameter
     275                    .dwattr $C$DW$20, DW_AT_name("clockSelect")
     276                    .dwattr $C$DW$20, DW_AT_TI_symbol_name("clockSelect")
     277                    .dwattr $C$DW$20, DW_AT_type(*$C$DW$T$27)
     278                    .dwattr $C$DW$20, DW_AT_location[DW_OP_reg13]
     279            
     280            $C$DW$21        .dwtag  DW_TAG_formal_parameter
     281                    .dwattr $C$DW$21, DW_AT_name("clockDivider")
     282                    .dwattr $C$DW$21, DW_AT_TI_symbol_name("clockDivider")
     283                    .dwattr $C$DW$21, DW_AT_type(*$C$DW$T$27)
     284                    .dwattr $C$DW$21, DW_AT_location[DW_OP_reg14]
     285            
     286            
     287            ;*****************************************************************************
     288            ;* FUNCTION NAME: WDT_A_initIntervalTimer                                    *
     289            ;*                                                                           *
     290            ;*   Regs Modified     : SP,SR,r12,r13,r14                                   *
     291            ;*   Regs Used         : SP,SR,r12,r13,r14                                   *
     292            ;*   Local Frame Size  : 0 Args + 0 Auto + 0 Save = 0 byte                   *
     293            ;*****************************************************************************
     294 000000       WDT_A_initIntervalTimer:
     295            ;* --------------------------------------------------------------------------*
     296                    .dwcfi  cfa_offset, 4
     297                    .dwcfi  save_reg_to_mem, 16, -4
     298            ;* r13   assigned to clockSelect
     299            $C$DW$22        .dwtag  DW_TAG_variable
     300                    .dwattr $C$DW$22, DW_AT_name("clockSelect")
     301                    .dwattr $C$DW$22, DW_AT_TI_symbol_name("clockSelect")
     302                    .dwattr $C$DW$22, DW_AT_type(*$C$DW$T$27)
     303                    .dwattr $C$DW$22, DW_AT_location[DW_OP_reg13]
     304            
     305            ;* r14   assigned to clockDivider
     306            $C$DW$23        .dwtag  DW_TAG_variable
     307                    .dwattr $C$DW$23, DW_AT_name("clockDivider")
     308                    .dwattr $C$DW$23, DW_AT_TI_symbol_name("clockDivider")
     309                    .dwattr $C$DW$23, DW_AT_type(*$C$DW$T$27)
     310                    .dwattr $C$DW$23, DW_AT_location[DW_OP_reg14]
     311            
     312                    .dwpsn  file "../MP430DriverLib/driverlib/MSP430F5xx_6xx/wdt_a.c",line 60,column 5,is_stmt,isa
     313 000000 4D4D          MOV.B     r13,r13               ; [] |60| 
     314 000002 4E4E          MOV.B     r14,r14               ; [] |60| 
     315 000004 5E0D          ADD.W     r14,r13               ; [] |60| 
     316 000006 503D          ADD.W     #23192,r13            ; [] |60| 
         000008 5A98 
     317 00000a 503C          ADD.W     #12,r12               ; [] |60| 
MSP430 Assembler PC v21.6.1 Tue Dec 20 13:45:55 2022

Copyright (c) 2003-2018 Texas Instruments Incorporated
wdt_a.asm                                                            PAGE    7

         00000c 000C 
     318 00000e 4D8C          MOV.W     r13,0(r12)            ; [] |60| 
         000010 0000 
     319                    .dwpsn  file "../MP430DriverLib/driverlib/MSP430F5xx_6xx/wdt_a.c",line 62,column 1,is_stmt,isa
     320            $C$DW$24        .dwtag  DW_TAG_TI_branch
     321                    .dwattr $C$DW$24, DW_AT_low_pc(0x00)
     322                    .dwattr $C$DW$24, DW_AT_TI_return
     323            
     324 000012 0110          RETA      ; [] 
     325                    ; [] 
     326                    .dwattr $C$DW$18, DW_AT_TI_end_file("../MP430DriverLib/driverlib/MSP430F5xx_6xx/wdt_a.c")
     327                    .dwattr $C$DW$18, DW_AT_TI_end_line(0x3e)
     328                    .dwattr $C$DW$18, DW_AT_TI_end_column(0x01)
     329                    .dwendentry
     330                    .dwendtag $C$DW$18
     331            
     332 000000               .sect   ".text:WDT_A_hold"
     333                    .clink
     334                    .global WDT_A_hold
     335            
     336            $C$DW$25        .dwtag  DW_TAG_subprogram
     337                    .dwattr $C$DW$25, DW_AT_name("WDT_A_hold")
     338                    .dwattr $C$DW$25, DW_AT_low_pc(WDT_A_hold)
     339                    .dwattr $C$DW$25, DW_AT_high_pc(0x00)
     340                    .dwattr $C$DW$25, DW_AT_TI_symbol_name("WDT_A_hold")
     341                    .dwattr $C$DW$25, DW_AT_external
     342                    .dwattr $C$DW$25, DW_AT_TI_begin_file("../MP430DriverLib/driverlib/MSP430F5xx_6xx/wdt_a.c")
     343                    .dwattr $C$DW$25, DW_AT_TI_begin_line(0x15)
     344                    .dwattr $C$DW$25, DW_AT_TI_begin_column(0x06)
     345                    .dwattr $C$DW$25, DW_AT_decl_file("../MP430DriverLib/driverlib/MSP430F5xx_6xx/wdt_a.c")
     346                    .dwattr $C$DW$25, DW_AT_decl_line(0x15)
     347                    .dwattr $C$DW$25, DW_AT_decl_column(0x06)
     348                    .dwattr $C$DW$25, DW_AT_TI_max_frame_size(0x04)
     349                    .dwpsn  file "../MP430DriverLib/driverlib/MSP430F5xx_6xx/wdt_a.c",line 22,column 1,is_stmt,add
     350            
     351                    .dwfde $C$DW$CIE, WDT_A_hold
     352            $C$DW$26        .dwtag  DW_TAG_formal_parameter
     353                    .dwattr $C$DW$26, DW_AT_name("baseAddress")
     354                    .dwattr $C$DW$26, DW_AT_TI_symbol_name("baseAddress")
     355                    .dwattr $C$DW$26, DW_AT_type(*$C$DW$T$24)
     356                    .dwattr $C$DW$26, DW_AT_location[DW_OP_reg12]
     357            
     358            
     359            ;*****************************************************************************
     360            ;* FUNCTION NAME: WDT_A_hold                                                 *
     361            ;*                                                                           *
     362            ;*   Regs Modified     : SP,SR,r12,r15                                       *
     363            ;*   Regs Used         : SP,SR,r12,r15                                       *
     364            ;*   Local Frame Size  : 0 Args + 0 Auto + 0 Save = 0 byte                   *
     365            ;*****************************************************************************
     366 000000       WDT_A_hold:
     367            ;* --------------------------------------------------------------------------*
     368                    .dwcfi  cfa_offset, 4
     369                    .dwcfi  save_reg_to_mem, 16, -4
     370            ;* r12   assigned to baseAddress
MSP430 Assembler PC v21.6.1 Tue Dec 20 13:45:55 2022

Copyright (c) 2003-2018 Texas Instruments Incorporated
wdt_a.asm                                                            PAGE    8

     371            $C$DW$27        .dwtag  DW_TAG_variable
     372                    .dwattr $C$DW$27, DW_AT_name("baseAddress")
     373                    .dwattr $C$DW$27, DW_AT_TI_symbol_name("baseAddress")
     374                    .dwattr $C$DW$27, DW_AT_type(*$C$DW$T$24)
     375                    .dwattr $C$DW$27, DW_AT_location[DW_OP_reg12]
     376            
     377            ;* r15   assigned to newWDTStatus
     378            $C$DW$28        .dwtag  DW_TAG_variable
     379                    .dwattr $C$DW$28, DW_AT_name("newWDTStatus")
     380                    .dwattr $C$DW$28, DW_AT_TI_symbol_name("newWDTStatus")
     381                    .dwattr $C$DW$28, DW_AT_type(*$C$DW$T$27)
     382                    .dwattr $C$DW$28, DW_AT_location[DW_OP_reg15]
     383            
     384                    .dwpsn  file "../MP430DriverLib/driverlib/MSP430F5xx_6xx/wdt_a.c",line 24,column 26,is_stmt,is
     385 000000 0CCF          MOVA      r12,r15               ; [] |24| 
     386 000002 503F          ADD.W     #12,r15               ; [] |24| 
         000004 000C 
     387 000006 4F2F          MOV.W     @r15,r15              ; [] |24| 
     388 000008 F07F          AND.B     #127,r15              ; [] |24| 
         00000a 007F 
     389 00000c D07F          OR.B      #128,r15              ; [] |24| 
         00000e 0080 
     390                    .dwpsn  file "../MP430DriverLib/driverlib/MSP430F5xx_6xx/wdt_a.c",line 27,column 5,is_stmt,isa
     391 000010 4F4F          MOV.B     r15,r15               ; [] |27| 
     392 000012 503F          ADD.W     #23040,r15            ; [] |27| 
         000014 5A00 
     393 000016 503C          ADD.W     #12,r12               ; [] |27| 
         000018 000C 
     394 00001a 4F8C          MOV.W     r15,0(r12)            ; [] |27| 
         00001c 0000 
     395                    .dwpsn  file "../MP430DriverLib/driverlib/MSP430F5xx_6xx/wdt_a.c",line 28,column 1,is_stmt,isa
     396            $C$DW$29        .dwtag  DW_TAG_TI_branch
     397                    .dwattr $C$DW$29, DW_AT_low_pc(0x00)
     398                    .dwattr $C$DW$29, DW_AT_TI_return
     399            
     400 00001e 0110          RETA      ; [] 
     401                    ; [] 
     402                    .dwattr $C$DW$25, DW_AT_TI_end_file("../MP430DriverLib/driverlib/MSP430F5xx_6xx/wdt_a.c")
     403                    .dwattr $C$DW$25, DW_AT_TI_end_line(0x1c)
     404                    .dwattr $C$DW$25, DW_AT_TI_end_column(0x01)
     405                    .dwendentry
     406                    .dwendtag $C$DW$25
     407            
     408            
     409            ;******************************************************************************
     410            ;* BUILD ATTRIBUTES                                                           *
     411            ;******************************************************************************
     412                    .battr "TI", Tag_File, 1, Tag_LPM_INFO(1)
     413                    .battr "TI", Tag_File, 1, Tag_PORTS_INIT_INFO("012345678901ABCDEFGHIJ0000000000001111110000000
     414                    .battr "TI", Tag_File, 1, Tag_LEA_INFO(1)
     415                    .battr "TI", Tag_File, 1, Tag_HW_MPY32_INFO(2)
     416                    .battr "TI", Tag_File, 1, Tag_HW_MPY_ISR_INFO(1)
     417                    .battr "TI", Tag_File, 1, Tag_HW_MPY_INLINE_INFO(1)
     418                    .battr "mspabi", Tag_File, 1, Tag_enum_size(3)
     419            
MSP430 Assembler PC v21.6.1 Tue Dec 20 13:45:55 2022

Copyright (c) 2003-2018 Texas Instruments Incorporated
wdt_a.asm                                                            PAGE    9

     420            ;******************************************************************************
     421            ;* TYPE INFORMATION                                                           *
     422            ;******************************************************************************
     423            
     424            $C$DW$T$21      .dwtag  DW_TAG_structure_type
     425                    .dwattr $C$DW$T$21, DW_AT_byte_size(0x10)
     426            $C$DW$30        .dwtag  DW_TAG_member
     427                    .dwattr $C$DW$30, DW_AT_type(*$C$DW$T$14)
     428                    .dwattr $C$DW$30, DW_AT_name("__max_align1")
     429                    .dwattr $C$DW$30, DW_AT_TI_symbol_name("__max_align1")
     430                    .dwattr $C$DW$30, DW_AT_data_member_location[DW_OP_plus_uconst 0x0]
     431                    .dwattr $C$DW$30, DW_AT_accessibility(DW_ACCESS_public)
     432                    .dwattr $C$DW$30, DW_AT_decl_file("C:/ti/ccs1110/ccs/tools/compiler/ti-cgt-msp430_21.6.1.LTS/i
     433                    .dwattr $C$DW$30, DW_AT_decl_line(0x7b)
     434                    .dwattr $C$DW$30, DW_AT_decl_column(0x0c)
     435            
     436            $C$DW$31        .dwtag  DW_TAG_member
     437                    .dwattr $C$DW$31, DW_AT_type(*$C$DW$T$18)
     438                    .dwattr $C$DW$31, DW_AT_name("__max_align2")
     439                    .dwattr $C$DW$31, DW_AT_TI_symbol_name("__max_align2")
     440                    .dwattr $C$DW$31, DW_AT_data_member_location[DW_OP_plus_uconst 0x8]
     441                    .dwattr $C$DW$31, DW_AT_accessibility(DW_ACCESS_public)
     442                    .dwattr $C$DW$31, DW_AT_decl_file("C:/ti/ccs1110/ccs/tools/compiler/ti-cgt-msp430_21.6.1.LTS/i
     443                    .dwattr $C$DW$31, DW_AT_decl_line(0x7c)
     444                    .dwattr $C$DW$31, DW_AT_decl_column(0x0e)
     445            
     446                    .dwattr $C$DW$T$21, DW_AT_decl_file("C:/ti/ccs1110/ccs/tools/compiler/ti-cgt-msp430_21.6.1.LTS
     447                    .dwattr $C$DW$T$21, DW_AT_decl_line(0x7a)
     448                    .dwattr $C$DW$T$21, DW_AT_decl_column(0x10)
     449                    .dwendtag $C$DW$T$21
     450            
     451            $C$DW$T$22      .dwtag  DW_TAG_typedef
     452                    .dwattr $C$DW$T$22, DW_AT_name("__max_align_t")
     453                    .dwattr $C$DW$T$22, DW_AT_type(*$C$DW$T$21)
     454                    .dwattr $C$DW$T$22, DW_AT_language(DW_LANG_C)
     455                    .dwattr $C$DW$T$22, DW_AT_decl_file("C:/ti/ccs1110/ccs/tools/compiler/ti-cgt-msp430_21.6.1.LTS
     456                    .dwattr $C$DW$T$22, DW_AT_decl_line(0x7d)
     457                    .dwattr $C$DW$T$22, DW_AT_decl_column(0x03)
     458            
     459            $C$DW$T$2       .dwtag  DW_TAG_unspecified_type
     460                    .dwattr $C$DW$T$2, DW_AT_name("void")
     461            
     462            
     463            $C$DW$T$29      .dwtag  DW_TAG_subroutine_type
     464                    .dwattr $C$DW$T$29, DW_AT_language(DW_LANG_C)
     465                    .dwendtag $C$DW$T$29
     466            
     467            $C$DW$T$30      .dwtag  DW_TAG_pointer_type
     468                    .dwattr $C$DW$T$30, DW_AT_type(*$C$DW$T$29)
     469                    .dwattr $C$DW$T$30, DW_AT_address_class(0x14)
     470            
     471            $C$DW$T$31      .dwtag  DW_TAG_typedef
     472                    .dwattr $C$DW$T$31, DW_AT_name("__SFR_FARPTR")
     473                    .dwattr $C$DW$T$31, DW_AT_type(*$C$DW$T$30)
     474                    .dwattr $C$DW$T$31, DW_AT_language(DW_LANG_C)
MSP430 Assembler PC v21.6.1 Tue Dec 20 13:45:55 2022

Copyright (c) 2003-2018 Texas Instruments Incorporated
wdt_a.asm                                                            PAGE   10

     475                    .dwattr $C$DW$T$31, DW_AT_decl_file("C:\ti\ccs1110\ccs\ccs_base\msp430\include\msp430f5438a.h"
     476                    .dwattr $C$DW$T$31, DW_AT_decl_line(0x49)
     477                    .dwattr $C$DW$T$31, DW_AT_decl_column(0x11)
     478            
     479            $C$DW$T$4       .dwtag  DW_TAG_base_type
     480                    .dwattr $C$DW$T$4, DW_AT_encoding(DW_ATE_boolean)
     481                    .dwattr $C$DW$T$4, DW_AT_name("bool")
     482                    .dwattr $C$DW$T$4, DW_AT_byte_size(0x01)
     483            
     484            $C$DW$T$5       .dwtag  DW_TAG_base_type
     485                    .dwattr $C$DW$T$5, DW_AT_encoding(DW_ATE_signed_char)
     486                    .dwattr $C$DW$T$5, DW_AT_name("signed char")
     487                    .dwattr $C$DW$T$5, DW_AT_byte_size(0x01)
     488            
     489            $C$DW$T$32      .dwtag  DW_TAG_typedef
     490                    .dwattr $C$DW$T$32, DW_AT_name("__int8_t")
     491                    .dwattr $C$DW$T$32, DW_AT_type(*$C$DW$T$5)
     492                    .dwattr $C$DW$T$32, DW_AT_language(DW_LANG_C)
     493                    .dwattr $C$DW$T$32, DW_AT_decl_file("C:/ti/ccs1110/ccs/tools/compiler/ti-cgt-msp430_21.6.1.LTS
     494                    .dwattr $C$DW$T$32, DW_AT_decl_line(0x36)
     495                    .dwattr $C$DW$T$32, DW_AT_decl_column(0x16)
     496            
     497            $C$DW$T$33      .dwtag  DW_TAG_typedef
     498                    .dwattr $C$DW$T$33, DW_AT_name("__int_least8_t")
     499                    .dwattr $C$DW$T$33, DW_AT_type(*$C$DW$T$32)
     500                    .dwattr $C$DW$T$33, DW_AT_language(DW_LANG_C)
     501                    .dwattr $C$DW$T$33, DW_AT_decl_file("C:/ti/ccs1110/ccs/tools/compiler/ti-cgt-msp430_21.6.1.LTS
     502                    .dwattr $C$DW$T$33, DW_AT_decl_line(0x5a)
     503                    .dwattr $C$DW$T$33, DW_AT_decl_column(0x12)
     504            
     505            $C$DW$T$34      .dwtag  DW_TAG_typedef
     506                    .dwattr $C$DW$T$34, DW_AT_name("int_least8_t")
     507                    .dwattr $C$DW$T$34, DW_AT_type(*$C$DW$T$33)
     508                    .dwattr $C$DW$T$34, DW_AT_language(DW_LANG_C)
     509                    .dwattr $C$DW$T$34, DW_AT_decl_file("C:/ti/ccs1110/ccs/tools/compiler/ti-cgt-msp430_21.6.1.LTS
     510                    .dwattr $C$DW$T$34, DW_AT_decl_line(0x2a)
     511                    .dwattr $C$DW$T$34, DW_AT_decl_column(0x19)
     512            
     513            $C$DW$T$35      .dwtag  DW_TAG_typedef
     514                    .dwattr $C$DW$T$35, DW_AT_name("int8_t")
     515                    .dwattr $C$DW$T$35, DW_AT_type(*$C$DW$T$32)
     516                    .dwattr $C$DW$T$35, DW_AT_language(DW_LANG_C)
     517                    .dwattr $C$DW$T$35, DW_AT_decl_file("C:/ti/ccs1110/ccs/tools/compiler/ti-cgt-msp430_21.6.1.LTS
     518                    .dwattr $C$DW$T$35, DW_AT_decl_line(0x25)
     519                    .dwattr $C$DW$T$35, DW_AT_decl_column(0x13)
     520            
     521            $C$DW$T$6       .dwtag  DW_TAG_base_type
     522                    .dwattr $C$DW$T$6, DW_AT_encoding(DW_ATE_unsigned_char)
     523                    .dwattr $C$DW$T$6, DW_AT_name("unsigned char")
     524                    .dwattr $C$DW$T$6, DW_AT_byte_size(0x01)
     525            
     526            $C$DW$T$26      .dwtag  DW_TAG_typedef
     527                    .dwattr $C$DW$T$26, DW_AT_name("__uint8_t")
     528                    .dwattr $C$DW$T$26, DW_AT_type(*$C$DW$T$6)
     529                    .dwattr $C$DW$T$26, DW_AT_language(DW_LANG_C)
MSP430 Assembler PC v21.6.1 Tue Dec 20 13:45:55 2022

Copyright (c) 2003-2018 Texas Instruments Incorporated
wdt_a.asm                                                            PAGE   11

     530                    .dwattr $C$DW$T$26, DW_AT_decl_file("C:/ti/ccs1110/ccs/tools/compiler/ti-cgt-msp430_21.6.1.LTS
     531                    .dwattr $C$DW$T$26, DW_AT_decl_line(0x37)
     532                    .dwattr $C$DW$T$26, DW_AT_decl_column(0x18)
     533            
     534            $C$DW$T$36      .dwtag  DW_TAG_typedef
     535                    .dwattr $C$DW$T$36, DW_AT_name("__sa_family_t")
     536                    .dwattr $C$DW$T$36, DW_AT_type(*$C$DW$T$26)
     537                    .dwattr $C$DW$T$36, DW_AT_language(DW_LANG_C)
     538                    .dwattr $C$DW$T$36, DW_AT_decl_file("C:/ti/ccs1110/ccs/tools/compiler/ti-cgt-msp430_21.6.1.LTS
     539                    .dwattr $C$DW$T$36, DW_AT_decl_line(0x47)
     540                    .dwattr $C$DW$T$36, DW_AT_decl_column(0x13)
     541            
     542            $C$DW$T$37      .dwtag  DW_TAG_typedef
     543                    .dwattr $C$DW$T$37, DW_AT_name("__uint_least8_t")
     544                    .dwattr $C$DW$T$37, DW_AT_type(*$C$DW$T$26)
     545                    .dwattr $C$DW$T$37, DW_AT_language(DW_LANG_C)
     546                    .dwattr $C$DW$T$37, DW_AT_decl_file("C:/ti/ccs1110/ccs/tools/compiler/ti-cgt-msp430_21.6.1.LTS
     547                    .dwattr $C$DW$T$37, DW_AT_decl_line(0x74)
     548                    .dwattr $C$DW$T$37, DW_AT_decl_column(0x13)
     549            
     550            $C$DW$T$38      .dwtag  DW_TAG_typedef
     551                    .dwattr $C$DW$T$38, DW_AT_name("uint_least8_t")
     552                    .dwattr $C$DW$T$38, DW_AT_type(*$C$DW$T$37)
     553                    .dwattr $C$DW$T$38, DW_AT_language(DW_LANG_C)
     554                    .dwattr $C$DW$T$38, DW_AT_decl_file("C:/ti/ccs1110/ccs/tools/compiler/ti-cgt-msp430_21.6.1.LTS
     555                    .dwattr $C$DW$T$38, DW_AT_decl_line(0x2f)
     556                    .dwattr $C$DW$T$38, DW_AT_decl_column(0x1a)
     557            
     558            $C$DW$T$27      .dwtag  DW_TAG_typedef
     559                    .dwattr $C$DW$T$27, DW_AT_name("uint8_t")
     560                    .dwattr $C$DW$T$27, DW_AT_type(*$C$DW$T$26)
     561                    .dwattr $C$DW$T$27, DW_AT_language(DW_LANG_C)
     562                    .dwattr $C$DW$T$27, DW_AT_decl_file("C:/ti/ccs1110/ccs/tools/compiler/ti-cgt-msp430_21.6.1.LTS
     563                    .dwattr $C$DW$T$27, DW_AT_decl_line(0x3b)
     564                    .dwattr $C$DW$T$27, DW_AT_decl_column(0x14)
     565            
     566            $C$DW$T$7       .dwtag  DW_TAG_base_type
     567                    .dwattr $C$DW$T$7, DW_AT_encoding(DW_ATE_signed_char)
     568                    .dwattr $C$DW$T$7, DW_AT_name("wchar_t")
     569                    .dwattr $C$DW$T$7, DW_AT_byte_size(0x02)
     570            
     571            $C$DW$T$8       .dwtag  DW_TAG_base_type
     572                    .dwattr $C$DW$T$8, DW_AT_encoding(DW_ATE_signed)
     573                    .dwattr $C$DW$T$8, DW_AT_name("short")
     574                    .dwattr $C$DW$T$8, DW_AT_byte_size(0x02)
     575            
     576            $C$DW$T$9       .dwtag  DW_TAG_base_type
     577                    .dwattr $C$DW$T$9, DW_AT_encoding(DW_ATE_unsigned)
     578                    .dwattr $C$DW$T$9, DW_AT_name("unsigned short")
     579                    .dwattr $C$DW$T$9, DW_AT_byte_size(0x02)
     580            
     581            $C$DW$T$10      .dwtag  DW_TAG_base_type
     582                    .dwattr $C$DW$T$10, DW_AT_encoding(DW_ATE_signed)
     583                    .dwattr $C$DW$T$10, DW_AT_name("int")
     584                    .dwattr $C$DW$T$10, DW_AT_byte_size(0x02)
MSP430 Assembler PC v21.6.1 Tue Dec 20 13:45:55 2022

Copyright (c) 2003-2018 Texas Instruments Incorporated
wdt_a.asm                                                            PAGE   12

     585            
     586            $C$DW$T$39      .dwtag  DW_TAG_typedef
     587                    .dwattr $C$DW$T$39, DW_AT_name("_Mbstatet")
     588                    .dwattr $C$DW$T$39, DW_AT_type(*$C$DW$T$10)
     589                    .dwattr $C$DW$T$39, DW_AT_language(DW_LANG_C)
     590                    .dwattr $C$DW$T$39, DW_AT_decl_file("C:/ti/ccs1110/ccs/tools/compiler/ti-cgt-msp430_21.6.1.LTS
     591                    .dwattr $C$DW$T$39, DW_AT_decl_line(0x8f)
     592                    .dwattr $C$DW$T$39, DW_AT_decl_column(0x0d)
     593            
     594            $C$DW$T$40      .dwtag  DW_TAG_typedef
     595                    .dwattr $C$DW$T$40, DW_AT_name("__mbstate_t")
     596                    .dwattr $C$DW$T$40, DW_AT_type(*$C$DW$T$39)
     597                    .dwattr $C$DW$T$40, DW_AT_language(DW_LANG_C)
     598                    .dwattr $C$DW$T$40, DW_AT_decl_file("C:/ti/ccs1110/ccs/tools/compiler/ti-cgt-msp430_21.6.1.LTS
     599                    .dwattr $C$DW$T$40, DW_AT_decl_line(0x92)
     600                    .dwattr $C$DW$T$40, DW_AT_decl_column(0x13)
     601            
     602            $C$DW$T$41      .dwtag  DW_TAG_typedef
     603                    .dwattr $C$DW$T$41, DW_AT_name("__accmode_t")
     604                    .dwattr $C$DW$T$41, DW_AT_type(*$C$DW$T$10)
     605                    .dwattr $C$DW$T$41, DW_AT_language(DW_LANG_C)
     606                    .dwattr $C$DW$T$41, DW_AT_decl_file("C:/ti/ccs1110/ccs/tools/compiler/ti-cgt-msp430_21.6.1.LTS
     607                    .dwattr $C$DW$T$41, DW_AT_decl_line(0x3b)
     608                    .dwattr $C$DW$T$41, DW_AT_decl_column(0x0e)
     609            
     610            $C$DW$T$42      .dwtag  DW_TAG_typedef
     611                    .dwattr $C$DW$T$42, DW_AT_name("__cpulevel_t")
     612                    .dwattr $C$DW$T$42, DW_AT_type(*$C$DW$T$10)
     613                    .dwattr $C$DW$T$42, DW_AT_language(DW_LANG_C)
     614                    .dwattr $C$DW$T$42, DW_AT_decl_file("C:/ti/ccs1110/ccs/tools/compiler/ti-cgt-msp430_21.6.1.LTS
     615                    .dwattr $C$DW$T$42, DW_AT_decl_line(0x50)
     616                    .dwattr $C$DW$T$42, DW_AT_decl_column(0x0e)
     617            
     618            $C$DW$T$43      .dwtag  DW_TAG_typedef
     619                    .dwattr $C$DW$T$43, DW_AT_name("__cpusetid_t")
     620                    .dwattr $C$DW$T$43, DW_AT_type(*$C$DW$T$10)
     621                    .dwattr $C$DW$T$43, DW_AT_language(DW_LANG_C)
     622                    .dwattr $C$DW$T$43, DW_AT_decl_file("C:/ti/ccs1110/ccs/tools/compiler/ti-cgt-msp430_21.6.1.LTS
     623                    .dwattr $C$DW$T$43, DW_AT_decl_line(0x51)
     624                    .dwattr $C$DW$T$43, DW_AT_decl_column(0x0e)
     625            
     626            $C$DW$T$44      .dwtag  DW_TAG_typedef
     627                    .dwattr $C$DW$T$44, DW_AT_name("__cpuwhich_t")
     628                    .dwattr $C$DW$T$44, DW_AT_type(*$C$DW$T$10)
     629                    .dwattr $C$DW$T$44, DW_AT_language(DW_LANG_C)
     630                    .dwattr $C$DW$T$44, DW_AT_decl_file("C:/ti/ccs1110/ccs/tools/compiler/ti-cgt-msp430_21.6.1.LTS
     631                    .dwattr $C$DW$T$44, DW_AT_decl_line(0x4f)
     632                    .dwattr $C$DW$T$44, DW_AT_decl_column(0x0e)
     633            
     634            $C$DW$T$45      .dwtag  DW_TAG_typedef
     635                    .dwattr $C$DW$T$45, DW_AT_name("__ct_rune_t")
     636                    .dwattr $C$DW$T$45, DW_AT_type(*$C$DW$T$10)
     637                    .dwattr $C$DW$T$45, DW_AT_language(DW_LANG_C)
     638                    .dwattr $C$DW$T$45, DW_AT_decl_file("C:/ti/ccs1110/ccs/tools/compiler/ti-cgt-msp430_21.6.1.LTS
     639                    .dwattr $C$DW$T$45, DW_AT_decl_line(0x69)
MSP430 Assembler PC v21.6.1 Tue Dec 20 13:45:55 2022

Copyright (c) 2003-2018 Texas Instruments Incorporated
wdt_a.asm                                                            PAGE   13

     640                    .dwattr $C$DW$T$45, DW_AT_decl_column(0x0e)
     641            
     642            $C$DW$T$46      .dwtag  DW_TAG_typedef
     643                    .dwattr $C$DW$T$46, DW_AT_name("__rune_t")
     644                    .dwattr $C$DW$T$46, DW_AT_type(*$C$DW$T$45)
     645                    .dwattr $C$DW$T$46, DW_AT_language(DW_LANG_C)
     646                    .dwattr $C$DW$T$46, DW_AT_decl_file("C:/ti/ccs1110/ccs/tools/compiler/ti-cgt-msp430_21.6.1.LTS
     647                    .dwattr $C$DW$T$46, DW_AT_decl_line(0x6c)
     648                    .dwattr $C$DW$T$46, DW_AT_decl_column(0x15)
     649            
     650            $C$DW$T$47      .dwtag  DW_TAG_typedef
     651                    .dwattr $C$DW$T$47, DW_AT_name("__wint_t")
     652                    .dwattr $C$DW$T$47, DW_AT_type(*$C$DW$T$45)
     653                    .dwattr $C$DW$T$47, DW_AT_language(DW_LANG_C)
     654                    .dwattr $C$DW$T$47, DW_AT_decl_file("C:/ti/ccs1110/ccs/tools/compiler/ti-cgt-msp430_21.6.1.LTS
     655                    .dwattr $C$DW$T$47, DW_AT_decl_line(0x6d)
     656                    .dwattr $C$DW$T$47, DW_AT_decl_column(0x15)
     657            
     658            $C$DW$T$48      .dwtag  DW_TAG_typedef
     659                    .dwattr $C$DW$T$48, DW_AT_name("__int16_t")
     660                    .dwattr $C$DW$T$48, DW_AT_type(*$C$DW$T$10)
     661                    .dwattr $C$DW$T$48, DW_AT_language(DW_LANG_C)
     662                    .dwattr $C$DW$T$48, DW_AT_decl_file("C:/ti/ccs1110/ccs/tools/compiler/ti-cgt-msp430_21.6.1.LTS
     663                    .dwattr $C$DW$T$48, DW_AT_decl_line(0x38)
     664                    .dwattr $C$DW$T$48, DW_AT_decl_column(0x0f)
     665            
     666            $C$DW$T$49      .dwtag  DW_TAG_typedef
     667                    .dwattr $C$DW$T$49, DW_AT_name("__int_fast16_t")
     668                    .dwattr $C$DW$T$49, DW_AT_type(*$C$DW$T$48)
     669                    .dwattr $C$DW$T$49, DW_AT_language(DW_LANG_C)
     670                    .dwattr $C$DW$T$49, DW_AT_decl_file("C:/ti/ccs1110/ccs/tools/compiler/ti-cgt-msp430_21.6.1.LTS
     671                    .dwattr $C$DW$T$49, DW_AT_decl_line(0x57)
     672                    .dwattr $C$DW$T$49, DW_AT_decl_column(0x13)
     673            
     674            $C$DW$T$50      .dwtag  DW_TAG_typedef
     675                    .dwattr $C$DW$T$50, DW_AT_name("int_fast16_t")
     676                    .dwattr $C$DW$T$50, DW_AT_type(*$C$DW$T$49)
     677                    .dwattr $C$DW$T$50, DW_AT_language(DW_LANG_C)
     678                    .dwattr $C$DW$T$50, DW_AT_decl_file("C:/ti/ccs1110/ccs/tools/compiler/ti-cgt-msp430_21.6.1.LTS
     679                    .dwattr $C$DW$T$50, DW_AT_decl_line(0x35)
     680                    .dwattr $C$DW$T$50, DW_AT_decl_column(0x19)
     681            
     682            $C$DW$T$51      .dwtag  DW_TAG_typedef
     683                    .dwattr $C$DW$T$51, DW_AT_name("__int_fast8_t")
     684                    .dwattr $C$DW$T$51, DW_AT_type(*$C$DW$T$48)
     685                    .dwattr $C$DW$T$51, DW_AT_language(DW_LANG_C)
     686                    .dwattr $C$DW$T$51, DW_AT_decl_file("C:/ti/ccs1110/ccs/tools/compiler/ti-cgt-msp430_21.6.1.LTS
     687                    .dwattr $C$DW$T$51, DW_AT_decl_line(0x56)
     688                    .dwattr $C$DW$T$51, DW_AT_decl_column(0x13)
     689            
     690            $C$DW$T$52      .dwtag  DW_TAG_typedef
     691                    .dwattr $C$DW$T$52, DW_AT_name("int_fast8_t")
     692                    .dwattr $C$DW$T$52, DW_AT_type(*$C$DW$T$51)
     693                    .dwattr $C$DW$T$52, DW_AT_language(DW_LANG_C)
     694                    .dwattr $C$DW$T$52, DW_AT_decl_file("C:/ti/ccs1110/ccs/tools/compiler/ti-cgt-msp430_21.6.1.LTS
MSP430 Assembler PC v21.6.1 Tue Dec 20 13:45:55 2022

Copyright (c) 2003-2018 Texas Instruments Incorporated
wdt_a.asm                                                            PAGE   14

     695                    .dwattr $C$DW$T$52, DW_AT_decl_line(0x34)
     696                    .dwattr $C$DW$T$52, DW_AT_decl_column(0x18)
     697            
     698            $C$DW$T$53      .dwtag  DW_TAG_typedef
     699                    .dwattr $C$DW$T$53, DW_AT_name("__int_least16_t")
     700                    .dwattr $C$DW$T$53, DW_AT_type(*$C$DW$T$48)
     701                    .dwattr $C$DW$T$53, DW_AT_language(DW_LANG_C)
     702                    .dwattr $C$DW$T$53, DW_AT_decl_file("C:/ti/ccs1110/ccs/tools/compiler/ti-cgt-msp430_21.6.1.LTS
     703                    .dwattr $C$DW$T$53, DW_AT_decl_line(0x5b)
     704                    .dwattr $C$DW$T$53, DW_AT_decl_column(0x13)
     705            
     706            $C$DW$T$54      .dwtag  DW_TAG_typedef
     707                    .dwattr $C$DW$T$54, DW_AT_name("int_least16_t")
     708                    .dwattr $C$DW$T$54, DW_AT_type(*$C$DW$T$53)
     709                    .dwattr $C$DW$T$54, DW_AT_language(DW_LANG_C)
     710                    .dwattr $C$DW$T$54, DW_AT_decl_file("C:/ti/ccs1110/ccs/tools/compiler/ti-cgt-msp430_21.6.1.LTS
     711                    .dwattr $C$DW$T$54, DW_AT_decl_line(0x2b)
     712                    .dwattr $C$DW$T$54, DW_AT_decl_column(0x1a)
     713            
     714            $C$DW$T$55      .dwtag  DW_TAG_typedef
     715                    .dwattr $C$DW$T$55, DW_AT_name("__register_t")
     716                    .dwattr $C$DW$T$55, DW_AT_type(*$C$DW$T$48)
     717                    .dwattr $C$DW$T$55, DW_AT_language(DW_LANG_C)
     718                    .dwattr $C$DW$T$55, DW_AT_decl_file("C:/ti/ccs1110/ccs/tools/compiler/ti-cgt-msp430_21.6.1.LTS
     719                    .dwattr $C$DW$T$55, DW_AT_decl_line(0x5f)
     720                    .dwattr $C$DW$T$55, DW_AT_decl_column(0x13)
     721            
     722            $C$DW$T$56      .dwtag  DW_TAG_typedef
     723                    .dwattr $C$DW$T$56, DW_AT_name("int16_t")
     724                    .dwattr $C$DW$T$56, DW_AT_type(*$C$DW$T$48)
     725                    .dwattr $C$DW$T$56, DW_AT_language(DW_LANG_C)
     726                    .dwattr $C$DW$T$56, DW_AT_decl_file("C:/ti/ccs1110/ccs/tools/compiler/ti-cgt-msp430_21.6.1.LTS
     727                    .dwattr $C$DW$T$56, DW_AT_decl_line(0x2b)
     728                    .dwattr $C$DW$T$56, DW_AT_decl_column(0x14)
     729            
     730            $C$DW$T$57      .dwtag  DW_TAG_typedef
     731                    .dwattr $C$DW$T$57, DW_AT_name("__nl_item")
     732                    .dwattr $C$DW$T$57, DW_AT_type(*$C$DW$T$10)
     733                    .dwattr $C$DW$T$57, DW_AT_language(DW_LANG_C)
     734                    .dwattr $C$DW$T$57, DW_AT_decl_file("C:/ti/ccs1110/ccs/tools/compiler/ti-cgt-msp430_21.6.1.LTS
     735                    .dwattr $C$DW$T$57, DW_AT_decl_line(0x3c)
     736                    .dwattr $C$DW$T$57, DW_AT_decl_column(0x0e)
     737            
     738            $C$DW$T$58      .dwtag  DW_TAG_typedef
     739                    .dwattr $C$DW$T$58, DW_AT_name("__ptrdiff_t")
     740                    .dwattr $C$DW$T$58, DW_AT_type(*$C$DW$T$10)
     741                    .dwattr $C$DW$T$58, DW_AT_language(DW_LANG_C)
     742                    .dwattr $C$DW$T$58, DW_AT_decl_file("C:/ti/ccs1110/ccs/tools/compiler/ti-cgt-msp430_21.6.1.LTS
     743                    .dwattr $C$DW$T$58, DW_AT_decl_line(0x5e)
     744                    .dwattr $C$DW$T$58, DW_AT_decl_column(0x1c)
     745            
     746            $C$DW$T$11      .dwtag  DW_TAG_base_type
     747                    .dwattr $C$DW$T$11, DW_AT_encoding(DW_ATE_unsigned)
     748                    .dwattr $C$DW$T$11, DW_AT_name("unsigned int")
     749                    .dwattr $C$DW$T$11, DW_AT_byte_size(0x02)
MSP430 Assembler PC v21.6.1 Tue Dec 20 13:45:55 2022

Copyright (c) 2003-2018 Texas Instruments Incorporated
wdt_a.asm                                                            PAGE   15

     750            
     751            $C$DW$T$59      .dwtag  DW_TAG_typedef
     752                    .dwattr $C$DW$T$59, DW_AT_name("___wchar_t")
     753                    .dwattr $C$DW$T$59, DW_AT_type(*$C$DW$T$11)
     754                    .dwattr $C$DW$T$59, DW_AT_language(DW_LANG_C)
     755                    .dwattr $C$DW$T$59, DW_AT_decl_file("C:/ti/ccs1110/ccs/tools/compiler/ti-cgt-msp430_21.6.1.LTS
     756                    .dwattr $C$DW$T$59, DW_AT_decl_line(0x7d)
     757                    .dwattr $C$DW$T$59, DW_AT_decl_column(0x1a)
     758            
     759            $C$DW$T$62      .dwtag  DW_TAG_typedef
     760                    .dwattr $C$DW$T$62, DW_AT_name("__size_t")
     761                    .dwattr $C$DW$T$62, DW_AT_type(*$C$DW$T$11)
     762                    .dwattr $C$DW$T$62, DW_AT_language(DW_LANG_C)
     763                    .dwattr $C$DW$T$62, DW_AT_decl_file("C:/ti/ccs1110/ccs/tools/compiler/ti-cgt-msp430_21.6.1.LTS
     764                    .dwattr $C$DW$T$62, DW_AT_decl_line(0x61)
     765                    .dwattr $C$DW$T$62, DW_AT_decl_column(0x19)
     766            
     767            $C$DW$T$23      .dwtag  DW_TAG_typedef
     768                    .dwattr $C$DW$T$23, DW_AT_name("__uint16_t")
     769                    .dwattr $C$DW$T$23, DW_AT_type(*$C$DW$T$11)
     770                    .dwattr $C$DW$T$23, DW_AT_language(DW_LANG_C)
     771                    .dwattr $C$DW$T$23, DW_AT_decl_file("C:/ti/ccs1110/ccs/tools/compiler/ti-cgt-msp430_21.6.1.LTS
     772                    .dwattr $C$DW$T$23, DW_AT_decl_line(0x39)
     773                    .dwattr $C$DW$T$23, DW_AT_decl_column(0x17)
     774            
     775            $C$DW$T$63      .dwtag  DW_TAG_typedef
     776                    .dwattr $C$DW$T$63, DW_AT_name("__mode_t")
     777                    .dwattr $C$DW$T$63, DW_AT_type(*$C$DW$T$23)
     778                    .dwattr $C$DW$T$63, DW_AT_language(DW_LANG_C)
     779                    .dwattr $C$DW$T$63, DW_AT_decl_file("C:/ti/ccs1110/ccs/tools/compiler/ti-cgt-msp430_21.6.1.LTS
     780                    .dwattr $C$DW$T$63, DW_AT_decl_line(0x3a)
     781                    .dwattr $C$DW$T$63, DW_AT_decl_column(0x14)
     782            
     783            $C$DW$T$64      .dwtag  DW_TAG_typedef
     784                    .dwattr $C$DW$T$64, DW_AT_name("__u_register_t")
     785                    .dwattr $C$DW$T$64, DW_AT_type(*$C$DW$T$23)
     786                    .dwattr $C$DW$T$64, DW_AT_language(DW_LANG_C)
     787                    .dwattr $C$DW$T$64, DW_AT_decl_file("C:/ti/ccs1110/ccs/tools/compiler/ti-cgt-msp430_21.6.1.LTS
     788                    .dwattr $C$DW$T$64, DW_AT_decl_line(0x78)
     789                    .dwattr $C$DW$T$64, DW_AT_decl_column(0x14)
     790            
     791            $C$DW$T$65      .dwtag  DW_TAG_typedef
     792                    .dwattr $C$DW$T$65, DW_AT_name("__uint_fast16_t")
     793                    .dwattr $C$DW$T$65, DW_AT_type(*$C$DW$T$23)
     794                    .dwattr $C$DW$T$65, DW_AT_language(DW_LANG_C)
     795                    .dwattr $C$DW$T$65, DW_AT_decl_file("C:/ti/ccs1110/ccs/tools/compiler/ti-cgt-msp430_21.6.1.LTS
     796                    .dwattr $C$DW$T$65, DW_AT_decl_line(0x71)
     797                    .dwattr $C$DW$T$65, DW_AT_decl_column(0x14)
     798            
     799            $C$DW$T$66      .dwtag  DW_TAG_typedef
     800                    .dwattr $C$DW$T$66, DW_AT_name("uint_fast16_t")
     801                    .dwattr $C$DW$T$66, DW_AT_type(*$C$DW$T$65)
     802                    .dwattr $C$DW$T$66, DW_AT_language(DW_LANG_C)
     803                    .dwattr $C$DW$T$66, DW_AT_decl_file("C:/ti/ccs1110/ccs/tools/compiler/ti-cgt-msp430_21.6.1.LTS
     804                    .dwattr $C$DW$T$66, DW_AT_decl_line(0x3a)
MSP430 Assembler PC v21.6.1 Tue Dec 20 13:45:55 2022

Copyright (c) 2003-2018 Texas Instruments Incorporated
wdt_a.asm                                                            PAGE   16

     805                    .dwattr $C$DW$T$66, DW_AT_decl_column(0x1a)
     806            
     807            $C$DW$T$67      .dwtag  DW_TAG_typedef
     808                    .dwattr $C$DW$T$67, DW_AT_name("__uint_fast8_t")
     809                    .dwattr $C$DW$T$67, DW_AT_type(*$C$DW$T$23)
     810                    .dwattr $C$DW$T$67, DW_AT_language(DW_LANG_C)
     811                    .dwattr $C$DW$T$67, DW_AT_decl_file("C:/ti/ccs1110/ccs/tools/compiler/ti-cgt-msp430_21.6.1.LTS
     812                    .dwattr $C$DW$T$67, DW_AT_decl_line(0x70)
     813                    .dwattr $C$DW$T$67, DW_AT_decl_column(0x14)
     814            
     815            $C$DW$T$68      .dwtag  DW_TAG_typedef
     816                    .dwattr $C$DW$T$68, DW_AT_name("uint_fast8_t")
     817                    .dwattr $C$DW$T$68, DW_AT_type(*$C$DW$T$67)
     818                    .dwattr $C$DW$T$68, DW_AT_language(DW_LANG_C)
     819                    .dwattr $C$DW$T$68, DW_AT_decl_file("C:/ti/ccs1110/ccs/tools/compiler/ti-cgt-msp430_21.6.1.LTS
     820                    .dwattr $C$DW$T$68, DW_AT_decl_line(0x39)
     821                    .dwattr $C$DW$T$68, DW_AT_decl_column(0x19)
     822            
     823            $C$DW$T$69      .dwtag  DW_TAG_typedef
     824                    .dwattr $C$DW$T$69, DW_AT_name("__uint_least16_t")
     825                    .dwattr $C$DW$T$69, DW_AT_type(*$C$DW$T$23)
     826                    .dwattr $C$DW$T$69, DW_AT_language(DW_LANG_C)
     827                    .dwattr $C$DW$T$69, DW_AT_decl_file("C:/ti/ccs1110/ccs/tools/compiler/ti-cgt-msp430_21.6.1.LTS
     828                    .dwattr $C$DW$T$69, DW_AT_decl_line(0x75)
     829                    .dwattr $C$DW$T$69, DW_AT_decl_column(0x14)
     830            
     831            $C$DW$T$70      .dwtag  DW_TAG_typedef
     832                    .dwattr $C$DW$T$70, DW_AT_name("__char16_t")
     833                    .dwattr $C$DW$T$70, DW_AT_type(*$C$DW$T$69)
     834                    .dwattr $C$DW$T$70, DW_AT_language(DW_LANG_C)
     835                    .dwattr $C$DW$T$70, DW_AT_decl_file("C:/ti/ccs1110/ccs/tools/compiler/ti-cgt-msp430_21.6.1.LTS
     836                    .dwattr $C$DW$T$70, DW_AT_decl_line(0x71)
     837                    .dwattr $C$DW$T$70, DW_AT_decl_column(0x1a)
     838            
     839            $C$DW$T$71      .dwtag  DW_TAG_typedef
     840                    .dwattr $C$DW$T$71, DW_AT_name("uint_least16_t")
     841                    .dwattr $C$DW$T$71, DW_AT_type(*$C$DW$T$69)
     842                    .dwattr $C$DW$T$71, DW_AT_language(DW_LANG_C)
     843                    .dwattr $C$DW$T$71, DW_AT_decl_file("C:/ti/ccs1110/ccs/tools/compiler/ti-cgt-msp430_21.6.1.LTS
     844                    .dwattr $C$DW$T$71, DW_AT_decl_line(0x30)
     845                    .dwattr $C$DW$T$71, DW_AT_decl_column(0x1a)
     846            
     847            $C$DW$T$24      .dwtag  DW_TAG_typedef
     848                    .dwattr $C$DW$T$24, DW_AT_name("uint16_t")
     849                    .dwattr $C$DW$T$24, DW_AT_type(*$C$DW$T$23)
     850                    .dwattr $C$DW$T$24, DW_AT_language(DW_LANG_C)
     851                    .dwattr $C$DW$T$24, DW_AT_decl_file("C:/ti/ccs1110/ccs/tools/compiler/ti-cgt-msp430_21.6.1.LTS
     852                    .dwattr $C$DW$T$24, DW_AT_decl_line(0x41)
     853                    .dwattr $C$DW$T$24, DW_AT_decl_column(0x15)
     854            
     855            $C$DW$T$72      .dwtag  DW_TAG_typedef
     856                    .dwattr $C$DW$T$72, DW_AT_name("__useconds_t")
     857                    .dwattr $C$DW$T$72, DW_AT_type(*$C$DW$T$11)
     858                    .dwattr $C$DW$T$72, DW_AT_language(DW_LANG_C)
     859                    .dwattr $C$DW$T$72, DW_AT_decl_file("C:/ti/ccs1110/ccs/tools/compiler/ti-cgt-msp430_21.6.1.LTS
MSP430 Assembler PC v21.6.1 Tue Dec 20 13:45:55 2022

Copyright (c) 2003-2018 Texas Instruments Incorporated
wdt_a.asm                                                            PAGE   17

     860                    .dwattr $C$DW$T$72, DW_AT_decl_line(0x4e)
     861                    .dwattr $C$DW$T$72, DW_AT_decl_column(0x16)
     862            
     863            $C$DW$T$12      .dwtag  DW_TAG_base_type
     864                    .dwattr $C$DW$T$12, DW_AT_encoding(DW_ATE_signed)
     865                    .dwattr $C$DW$T$12, DW_AT_name("long")
     866                    .dwattr $C$DW$T$12, DW_AT_byte_size(0x04)
     867            
     868            $C$DW$T$73      .dwtag  DW_TAG_typedef
     869                    .dwattr $C$DW$T$73, DW_AT_name("__int32_t")
     870                    .dwattr $C$DW$T$73, DW_AT_type(*$C$DW$T$12)
     871                    .dwattr $C$DW$T$73, DW_AT_language(DW_LANG_C)
     872                    .dwattr $C$DW$T$73, DW_AT_decl_file("C:/ti/ccs1110/ccs/tools/compiler/ti-cgt-msp430_21.6.1.LTS
     873                    .dwattr $C$DW$T$73, DW_AT_decl_line(0x3a)
     874                    .dwattr $C$DW$T$73, DW_AT_decl_column(0x10)
     875            
     876            $C$DW$T$74      .dwtag  DW_TAG_typedef
     877                    .dwattr $C$DW$T$74, DW_AT_name("__blksize_t")
     878                    .dwattr $C$DW$T$74, DW_AT_type(*$C$DW$T$73)
     879                    .dwattr $C$DW$T$74, DW_AT_language(DW_LANG_C)
     880                    .dwattr $C$DW$T$74, DW_AT_decl_file("C:/ti/ccs1110/ccs/tools/compiler/ti-cgt-msp430_21.6.1.LTS
     881                    .dwattr $C$DW$T$74, DW_AT_decl_line(0x2f)
     882                    .dwattr $C$DW$T$74, DW_AT_decl_column(0x13)
     883            
     884            $C$DW$T$75      .dwtag  DW_TAG_typedef
     885                    .dwattr $C$DW$T$75, DW_AT_name("__clockid_t")
     886                    .dwattr $C$DW$T$75, DW_AT_type(*$C$DW$T$73)
     887                    .dwattr $C$DW$T$75, DW_AT_language(DW_LANG_C)
     888                    .dwattr $C$DW$T$75, DW_AT_decl_file("C:/ti/ccs1110/ccs/tools/compiler/ti-cgt-msp430_21.6.1.LTS
     889                    .dwattr $C$DW$T$75, DW_AT_decl_line(0x31)
     890                    .dwattr $C$DW$T$75, DW_AT_decl_column(0x13)
     891            
     892            $C$DW$T$76      .dwtag  DW_TAG_typedef
     893                    .dwattr $C$DW$T$76, DW_AT_name("__critical_t")
     894                    .dwattr $C$DW$T$76, DW_AT_type(*$C$DW$T$73)
     895                    .dwattr $C$DW$T$76, DW_AT_language(DW_LANG_C)
     896                    .dwattr $C$DW$T$76, DW_AT_decl_file("C:/ti/ccs1110/ccs/tools/compiler/ti-cgt-msp430_21.6.1.LTS
     897                    .dwattr $C$DW$T$76, DW_AT_decl_line(0x4b)
     898                    .dwattr $C$DW$T$76, DW_AT_decl_column(0x13)
     899            
     900            $C$DW$T$77      .dwtag  DW_TAG_typedef
     901                    .dwattr $C$DW$T$77, DW_AT_name("__int_fast32_t")
     902                    .dwattr $C$DW$T$77, DW_AT_type(*$C$DW$T$73)
     903                    .dwattr $C$DW$T$77, DW_AT_language(DW_LANG_C)
     904                    .dwattr $C$DW$T$77, DW_AT_decl_file("C:/ti/ccs1110/ccs/tools/compiler/ti-cgt-msp430_21.6.1.LTS
     905                    .dwattr $C$DW$T$77, DW_AT_decl_line(0x58)
     906                    .dwattr $C$DW$T$77, DW_AT_decl_column(0x13)
     907            
     908            $C$DW$T$78      .dwtag  DW_TAG_typedef
     909                    .dwattr $C$DW$T$78, DW_AT_name("int_fast32_t")
     910                    .dwattr $C$DW$T$78, DW_AT_type(*$C$DW$T$77)
     911                    .dwattr $C$DW$T$78, DW_AT_language(DW_LANG_C)
     912                    .dwattr $C$DW$T$78, DW_AT_decl_file("C:/ti/ccs1110/ccs/tools/compiler/ti-cgt-msp430_21.6.1.LTS
     913                    .dwattr $C$DW$T$78, DW_AT_decl_line(0x36)
     914                    .dwattr $C$DW$T$78, DW_AT_decl_column(0x19)
MSP430 Assembler PC v21.6.1 Tue Dec 20 13:45:55 2022

Copyright (c) 2003-2018 Texas Instruments Incorporated
wdt_a.asm                                                            PAGE   18

     915            
     916            $C$DW$T$79      .dwtag  DW_TAG_typedef
     917                    .dwattr $C$DW$T$79, DW_AT_name("__int_least32_t")
     918                    .dwattr $C$DW$T$79, DW_AT_type(*$C$DW$T$73)
     919                    .dwattr $C$DW$T$79, DW_AT_language(DW_LANG_C)
     920                    .dwattr $C$DW$T$79, DW_AT_decl_file("C:/ti/ccs1110/ccs/tools/compiler/ti-cgt-msp430_21.6.1.LTS
     921                    .dwattr $C$DW$T$79, DW_AT_decl_line(0x5c)
     922                    .dwattr $C$DW$T$79, DW_AT_decl_column(0x13)
     923            
     924            $C$DW$T$80      .dwtag  DW_TAG_typedef
     925                    .dwattr $C$DW$T$80, DW_AT_name("int_least32_t")
     926                    .dwattr $C$DW$T$80, DW_AT_type(*$C$DW$T$79)
     927                    .dwattr $C$DW$T$80, DW_AT_language(DW_LANG_C)
     928                    .dwattr $C$DW$T$80, DW_AT_decl_file("C:/ti/ccs1110/ccs/tools/compiler/ti-cgt-msp430_21.6.1.LTS
     929                    .dwattr $C$DW$T$80, DW_AT_decl_line(0x2c)
     930                    .dwattr $C$DW$T$80, DW_AT_decl_column(0x1a)
     931            
     932            $C$DW$T$81      .dwtag  DW_TAG_typedef
     933                    .dwattr $C$DW$T$81, DW_AT_name("__intfptr_t")
     934                    .dwattr $C$DW$T$81, DW_AT_type(*$C$DW$T$73)
     935                    .dwattr $C$DW$T$81, DW_AT_language(DW_LANG_C)
     936                    .dwattr $C$DW$T$81, DW_AT_decl_file("C:/ti/ccs1110/ccs/tools/compiler/ti-cgt-msp430_21.6.1.LTS
     937                    .dwattr $C$DW$T$81, DW_AT_decl_line(0x4e)
     938                    .dwattr $C$DW$T$81, DW_AT_decl_column(0x13)
     939            
     940            $C$DW$T$82      .dwtag  DW_TAG_typedef
     941                    .dwattr $C$DW$T$82, DW_AT_name("__intptr_t")
     942                    .dwattr $C$DW$T$82, DW_AT_type(*$C$DW$T$73)
     943                    .dwattr $C$DW$T$82, DW_AT_language(DW_LANG_C)
     944                    .dwattr $C$DW$T$82, DW_AT_decl_file("C:/ti/ccs1110/ccs/tools/compiler/ti-cgt-msp430_21.6.1.LTS
     945                    .dwattr $C$DW$T$82, DW_AT_decl_line(0x51)
     946                    .dwattr $C$DW$T$82, DW_AT_decl_column(0x13)
     947            
     948            $C$DW$T$83      .dwtag  DW_TAG_typedef
     949                    .dwattr $C$DW$T$83, DW_AT_name("intptr_t")
     950                    .dwattr $C$DW$T$83, DW_AT_type(*$C$DW$T$82)
     951                    .dwattr $C$DW$T$83, DW_AT_language(DW_LANG_C)
     952                    .dwattr $C$DW$T$83, DW_AT_decl_file("C:/ti/ccs1110/ccs/tools/compiler/ti-cgt-msp430_21.6.1.LTS
     953                    .dwattr $C$DW$T$83, DW_AT_decl_line(0x50)
     954                    .dwattr $C$DW$T$83, DW_AT_decl_column(0x15)
     955            
     956            $C$DW$T$84      .dwtag  DW_TAG_typedef
     957                    .dwattr $C$DW$T$84, DW_AT_name("__lwpid_t")
     958                    .dwattr $C$DW$T$84, DW_AT_type(*$C$DW$T$73)
     959                    .dwattr $C$DW$T$84, DW_AT_language(DW_LANG_C)
     960                    .dwattr $C$DW$T$84, DW_AT_decl_file("C:/ti/ccs1110/ccs/tools/compiler/ti-cgt-msp430_21.6.1.LTS
     961                    .dwattr $C$DW$T$84, DW_AT_decl_line(0x39)
     962                    .dwattr $C$DW$T$84, DW_AT_decl_column(0x13)
     963            
     964            $C$DW$T$85      .dwtag  DW_TAG_typedef
     965                    .dwattr $C$DW$T$85, DW_AT_name("__pid_t")
     966                    .dwattr $C$DW$T$85, DW_AT_type(*$C$DW$T$73)
     967                    .dwattr $C$DW$T$85, DW_AT_language(DW_LANG_C)
     968                    .dwattr $C$DW$T$85, DW_AT_decl_file("C:/ti/ccs1110/ccs/tools/compiler/ti-cgt-msp430_21.6.1.LTS
     969                    .dwattr $C$DW$T$85, DW_AT_decl_line(0x40)
MSP430 Assembler PC v21.6.1 Tue Dec 20 13:45:55 2022

Copyright (c) 2003-2018 Texas Instruments Incorporated
wdt_a.asm                                                            PAGE   19

     970                    .dwattr $C$DW$T$85, DW_AT_decl_column(0x13)
     971            
     972            $C$DW$T$86      .dwtag  DW_TAG_typedef
     973                    .dwattr $C$DW$T$86, DW_AT_name("__segsz_t")
     974                    .dwattr $C$DW$T$86, DW_AT_type(*$C$DW$T$73)
     975                    .dwattr $C$DW$T$86, DW_AT_language(DW_LANG_C)
     976                    .dwattr $C$DW$T$86, DW_AT_decl_file("C:/ti/ccs1110/ccs/tools/compiler/ti-cgt-msp430_21.6.1.LTS
     977                    .dwattr $C$DW$T$86, DW_AT_decl_line(0x60)
     978                    .dwattr $C$DW$T$86, DW_AT_decl_column(0x13)
     979            
     980            $C$DW$T$87      .dwtag  DW_TAG_typedef
     981                    .dwattr $C$DW$T$87, DW_AT_name("__ssize_t")
     982                    .dwattr $C$DW$T$87, DW_AT_type(*$C$DW$T$73)
     983                    .dwattr $C$DW$T$87, DW_AT_language(DW_LANG_C)
     984                    .dwattr $C$DW$T$87, DW_AT_decl_file("C:/ti/ccs1110/ccs/tools/compiler/ti-cgt-msp430_21.6.1.LTS
     985                    .dwattr $C$DW$T$87, DW_AT_decl_line(0x62)
     986                    .dwattr $C$DW$T$87, DW_AT_decl_column(0x13)
     987            
     988            $C$DW$T$88      .dwtag  DW_TAG_typedef
     989                    .dwattr $C$DW$T$88, DW_AT_name("int32_t")
     990                    .dwattr $C$DW$T$88, DW_AT_type(*$C$DW$T$73)
     991                    .dwattr $C$DW$T$88, DW_AT_language(DW_LANG_C)
     992                    .dwattr $C$DW$T$88, DW_AT_decl_file("C:/ti/ccs1110/ccs/tools/compiler/ti-cgt-msp430_21.6.1.LTS
     993                    .dwattr $C$DW$T$88, DW_AT_decl_line(0x30)
     994                    .dwattr $C$DW$T$88, DW_AT_decl_column(0x14)
     995            
     996            $C$DW$T$89      .dwtag  DW_TAG_typedef
     997                    .dwattr $C$DW$T$89, DW_AT_name("__key_t")
     998                    .dwattr $C$DW$T$89, DW_AT_type(*$C$DW$T$12)
     999                    .dwattr $C$DW$T$89, DW_AT_language(DW_LANG_C)
    1000                    .dwattr $C$DW$T$89, DW_AT_decl_file("C:/ti/ccs1110/ccs/tools/compiler/ti-cgt-msp430_21.6.1.LTS
    1001                    .dwattr $C$DW$T$89, DW_AT_decl_line(0x38)
    1002                    .dwattr $C$DW$T$89, DW_AT_decl_column(0x0f)
    1003            
    1004            $C$DW$T$90      .dwtag  DW_TAG_typedef
    1005                    .dwattr $C$DW$T$90, DW_AT_name("__suseconds_t")
    1006                    .dwattr $C$DW$T$90, DW_AT_type(*$C$DW$T$12)
    1007                    .dwattr $C$DW$T$90, DW_AT_language(DW_LANG_C)
    1008                    .dwattr $C$DW$T$90, DW_AT_decl_file("C:/ti/ccs1110/ccs/tools/compiler/ti-cgt-msp430_21.6.1.LTS
    1009                    .dwattr $C$DW$T$90, DW_AT_decl_line(0x4a)
    1010                    .dwattr $C$DW$T$90, DW_AT_decl_column(0x0f)
    1011            
    1012            $C$DW$T$91      .dwtag  DW_TAG_typedef
    1013                    .dwattr $C$DW$T$91, DW_AT_name("_off_t")
    1014                    .dwattr $C$DW$T$91, DW_AT_type(*$C$DW$T$12)
    1015                    .dwattr $C$DW$T$91, DW_AT_language(DW_LANG_C)
    1016                    .dwattr $C$DW$T$91, DW_AT_decl_file("C:/ti/ccs1110/ccs/tools/compiler/ti-cgt-msp430_21.6.1.LTS
    1017                    .dwattr $C$DW$T$91, DW_AT_decl_line(0x8d)
    1018                    .dwattr $C$DW$T$91, DW_AT_decl_column(0x12)
    1019            
    1020            $C$DW$T$92      .dwtag  DW_TAG_typedef
    1021                    .dwattr $C$DW$T$92, DW_AT_name("__off_t")
    1022                    .dwattr $C$DW$T$92, DW_AT_type(*$C$DW$T$91)
    1023                    .dwattr $C$DW$T$92, DW_AT_language(DW_LANG_C)
    1024                    .dwattr $C$DW$T$92, DW_AT_decl_file("C:/ti/ccs1110/ccs/tools/compiler/ti-cgt-msp430_21.6.1.LTS
MSP430 Assembler PC v21.6.1 Tue Dec 20 13:45:55 2022

Copyright (c) 2003-2018 Texas Instruments Incorporated
wdt_a.asm                                                            PAGE   20

    1025                    .dwattr $C$DW$T$92, DW_AT_decl_line(0x3e)
    1026                    .dwattr $C$DW$T$92, DW_AT_decl_column(0x18)
    1027            
    1028            $C$DW$T$13      .dwtag  DW_TAG_base_type
    1029                    .dwattr $C$DW$T$13, DW_AT_encoding(DW_ATE_unsigned)
    1030                    .dwattr $C$DW$T$13, DW_AT_name("unsigned long")
    1031                    .dwattr $C$DW$T$13, DW_AT_byte_size(0x04)
    1032            
    1033            $C$DW$T$93      .dwtag  DW_TAG_typedef
    1034                    .dwattr $C$DW$T$93, DW_AT_name("__uint32_t")
    1035                    .dwattr $C$DW$T$93, DW_AT_type(*$C$DW$T$13)
    1036                    .dwattr $C$DW$T$93, DW_AT_language(DW_LANG_C)
    1037                    .dwattr $C$DW$T$93, DW_AT_decl_file("C:/ti/ccs1110/ccs/tools/compiler/ti-cgt-msp430_21.6.1.LTS
    1038                    .dwattr $C$DW$T$93, DW_AT_decl_line(0x3b)
    1039                    .dwattr $C$DW$T$93, DW_AT_decl_column(0x18)
    1040            
    1041            $C$DW$T$94      .dwtag  DW_TAG_typedef
    1042                    .dwattr $C$DW$T$94, DW_AT_name("__clock_t")
    1043                    .dwattr $C$DW$T$94, DW_AT_type(*$C$DW$T$93)
    1044                    .dwattr $C$DW$T$94, DW_AT_language(DW_LANG_C)
    1045                    .dwattr $C$DW$T$94, DW_AT_decl_file("C:/ti/ccs1110/ccs/tools/compiler/ti-cgt-msp430_21.6.1.LTS
    1046                    .dwattr $C$DW$T$94, DW_AT_decl_line(0x4a)
    1047                    .dwattr $C$DW$T$94, DW_AT_decl_column(0x14)
    1048            
    1049            $C$DW$T$95      .dwtag  DW_TAG_typedef
    1050                    .dwattr $C$DW$T$95, DW_AT_name("__fflags_t")
    1051                    .dwattr $C$DW$T$95, DW_AT_type(*$C$DW$T$93)
    1052                    .dwattr $C$DW$T$95, DW_AT_language(DW_LANG_C)
    1053                    .dwattr $C$DW$T$95, DW_AT_decl_file("C:/ti/ccs1110/ccs/tools/compiler/ti-cgt-msp430_21.6.1.LTS
    1054                    .dwattr $C$DW$T$95, DW_AT_decl_line(0x32)
    1055                    .dwattr $C$DW$T$95, DW_AT_decl_column(0x14)
    1056            
    1057            $C$DW$T$96      .dwtag  DW_TAG_typedef
    1058                    .dwattr $C$DW$T$96, DW_AT_name("__fixpt_t")
    1059                    .dwattr $C$DW$T$96, DW_AT_type(*$C$DW$T$93)
    1060                    .dwattr $C$DW$T$96, DW_AT_language(DW_LANG_C)
    1061                    .dwattr $C$DW$T$96, DW_AT_decl_file("C:/ti/ccs1110/ccs/tools/compiler/ti-cgt-msp430_21.6.1.LTS
    1062                    .dwattr $C$DW$T$96, DW_AT_decl_line(0x81)
    1063                    .dwattr $C$DW$T$96, DW_AT_decl_column(0x14)
    1064            
    1065            $C$DW$T$97      .dwtag  DW_TAG_typedef
    1066                    .dwattr $C$DW$T$97, DW_AT_name("__gid_t")
    1067                    .dwattr $C$DW$T$97, DW_AT_type(*$C$DW$T$93)
    1068                    .dwattr $C$DW$T$97, DW_AT_language(DW_LANG_C)
    1069                    .dwattr $C$DW$T$97, DW_AT_decl_file("C:/ti/ccs1110/ccs/tools/compiler/ti-cgt-msp430_21.6.1.LTS
    1070                    .dwattr $C$DW$T$97, DW_AT_decl_line(0x35)
    1071                    .dwattr $C$DW$T$97, DW_AT_decl_column(0x14)
    1072            
    1073            $C$DW$T$98      .dwtag  DW_TAG_typedef
    1074                    .dwattr $C$DW$T$98, DW_AT_name("__socklen_t")
    1075                    .dwattr $C$DW$T$98, DW_AT_type(*$C$DW$T$93)
    1076                    .dwattr $C$DW$T$98, DW_AT_language(DW_LANG_C)
    1077                    .dwattr $C$DW$T$98, DW_AT_decl_file("C:/ti/ccs1110/ccs/tools/compiler/ti-cgt-msp430_21.6.1.LTS
    1078                    .dwattr $C$DW$T$98, DW_AT_decl_line(0x49)
    1079                    .dwattr $C$DW$T$98, DW_AT_decl_column(0x14)
MSP430 Assembler PC v21.6.1 Tue Dec 20 13:45:55 2022

Copyright (c) 2003-2018 Texas Instruments Incorporated
wdt_a.asm                                                            PAGE   21

    1080            
    1081            $C$DW$T$99      .dwtag  DW_TAG_typedef
    1082                    .dwattr $C$DW$T$99, DW_AT_name("__time_t")
    1083                    .dwattr $C$DW$T$99, DW_AT_type(*$C$DW$T$93)
    1084                    .dwattr $C$DW$T$99, DW_AT_language(DW_LANG_C)
    1085                    .dwattr $C$DW$T$99, DW_AT_decl_file("C:/ti/ccs1110/ccs/tools/compiler/ti-cgt-msp430_21.6.1.LTS
    1086                    .dwattr $C$DW$T$99, DW_AT_decl_line(0x66)
    1087                    .dwattr $C$DW$T$99, DW_AT_decl_column(0x19)
    1088            
    1089            $C$DW$T$100     .dwtag  DW_TAG_typedef
    1090                    .dwattr $C$DW$T$100, DW_AT_name("__uid_t")
    1091                    .dwattr $C$DW$T$100, DW_AT_type(*$C$DW$T$93)
    1092                    .dwattr $C$DW$T$100, DW_AT_language(DW_LANG_C)
    1093                    .dwattr $C$DW$T$100, DW_AT_decl_file("C:/ti/ccs1110/ccs/tools/compiler/ti-cgt-msp430_21.6.1.LT
    1094                    .dwattr $C$DW$T$100, DW_AT_decl_line(0x4d)
    1095                    .dwattr $C$DW$T$100, DW_AT_decl_column(0x14)
    1096            
    1097            $C$DW$T$101     .dwtag  DW_TAG_typedef
    1098                    .dwattr $C$DW$T$101, DW_AT_name("__uint_fast32_t")
    1099                    .dwattr $C$DW$T$101, DW_AT_type(*$C$DW$T$93)
    1100                    .dwattr $C$DW$T$101, DW_AT_language(DW_LANG_C)
    1101                    .dwattr $C$DW$T$101, DW_AT_decl_file("C:/ti/ccs1110/ccs/tools/compiler/ti-cgt-msp430_21.6.1.LT
    1102                    .dwattr $C$DW$T$101, DW_AT_decl_line(0x72)
    1103                    .dwattr $C$DW$T$101, DW_AT_decl_column(0x14)
    1104            
    1105            $C$DW$T$102     .dwtag  DW_TAG_typedef
    1106                    .dwattr $C$DW$T$102, DW_AT_name("uint_fast32_t")
    1107                    .dwattr $C$DW$T$102, DW_AT_type(*$C$DW$T$101)
    1108                    .dwattr $C$DW$T$102, DW_AT_language(DW_LANG_C)
    1109                    .dwattr $C$DW$T$102, DW_AT_decl_file("C:/ti/ccs1110/ccs/tools/compiler/ti-cgt-msp430_21.6.1.LT
    1110                    .dwattr $C$DW$T$102, DW_AT_decl_line(0x3b)
    1111                    .dwattr $C$DW$T$102, DW_AT_decl_column(0x1a)
    1112            
    1113            $C$DW$T$103     .dwtag  DW_TAG_typedef
    1114                    .dwattr $C$DW$T$103, DW_AT_name("__uint_least32_t")
    1115                    .dwattr $C$DW$T$103, DW_AT_type(*$C$DW$T$93)
    1116                    .dwattr $C$DW$T$103, DW_AT_language(DW_LANG_C)
    1117                    .dwattr $C$DW$T$103, DW_AT_decl_file("C:/ti/ccs1110/ccs/tools/compiler/ti-cgt-msp430_21.6.1.LT
    1118                    .dwattr $C$DW$T$103, DW_AT_decl_line(0x76)
    1119                    .dwattr $C$DW$T$103, DW_AT_decl_column(0x14)
    1120            
    1121            $C$DW$T$104     .dwtag  DW_TAG_typedef
    1122                    .dwattr $C$DW$T$104, DW_AT_name("__char32_t")
    1123                    .dwattr $C$DW$T$104, DW_AT_type(*$C$DW$T$103)
    1124                    .dwattr $C$DW$T$104, DW_AT_language(DW_LANG_C)
    1125                    .dwattr $C$DW$T$104, DW_AT_decl_file("C:/ti/ccs1110/ccs/tools/compiler/ti-cgt-msp430_21.6.1.LT
    1126                    .dwattr $C$DW$T$104, DW_AT_decl_line(0x72)
    1127                    .dwattr $C$DW$T$104, DW_AT_decl_column(0x1a)
    1128            
    1129            $C$DW$T$105     .dwtag  DW_TAG_typedef
    1130                    .dwattr $C$DW$T$105, DW_AT_name("uint_least32_t")
    1131                    .dwattr $C$DW$T$105, DW_AT_type(*$C$DW$T$103)
    1132                    .dwattr $C$DW$T$105, DW_AT_language(DW_LANG_C)
    1133                    .dwattr $C$DW$T$105, DW_AT_decl_file("C:/ti/ccs1110/ccs/tools/compiler/ti-cgt-msp430_21.6.1.LT
    1134                    .dwattr $C$DW$T$105, DW_AT_decl_line(0x31)
MSP430 Assembler PC v21.6.1 Tue Dec 20 13:45:55 2022

Copyright (c) 2003-2018 Texas Instruments Incorporated
wdt_a.asm                                                            PAGE   22

    1135                    .dwattr $C$DW$T$105, DW_AT_decl_column(0x1a)
    1136            
    1137            $C$DW$T$106     .dwtag  DW_TAG_typedef
    1138                    .dwattr $C$DW$T$106, DW_AT_name("__uintfptr_t")
    1139                    .dwattr $C$DW$T$106, DW_AT_type(*$C$DW$T$93)
    1140                    .dwattr $C$DW$T$106, DW_AT_language(DW_LANG_C)
    1141                    .dwattr $C$DW$T$106, DW_AT_decl_file("C:/ti/ccs1110/ccs/tools/compiler/ti-cgt-msp430_21.6.1.LT
    1142                    .dwattr $C$DW$T$106, DW_AT_decl_line(0x68)
    1143                    .dwattr $C$DW$T$106, DW_AT_decl_column(0x14)
    1144            
    1145            $C$DW$T$107     .dwtag  DW_TAG_typedef
    1146                    .dwattr $C$DW$T$107, DW_AT_name("__uintptr_t")
    1147                    .dwattr $C$DW$T$107, DW_AT_type(*$C$DW$T$93)
    1148                    .dwattr $C$DW$T$107, DW_AT_language(DW_LANG_C)
    1149                    .dwattr $C$DW$T$107, DW_AT_decl_file("C:/ti/ccs1110/ccs/tools/compiler/ti-cgt-msp430_21.6.1.LT
    1150                    .dwattr $C$DW$T$107, DW_AT_decl_line(0x6b)
    1151                    .dwattr $C$DW$T$107, DW_AT_decl_column(0x14)
    1152            
    1153            $C$DW$T$108     .dwtag  DW_TAG_typedef
    1154                    .dwattr $C$DW$T$108, DW_AT_name("uintptr_t")
    1155                    .dwattr $C$DW$T$108, DW_AT_type(*$C$DW$T$107)
    1156                    .dwattr $C$DW$T$108, DW_AT_language(DW_LANG_C)
    1157                    .dwattr $C$DW$T$108, DW_AT_decl_file("C:/ti/ccs1110/ccs/tools/compiler/ti-cgt-msp430_21.6.1.LT
    1158                    .dwattr $C$DW$T$108, DW_AT_decl_line(0x54)
    1159                    .dwattr $C$DW$T$108, DW_AT_decl_column(0x16)
    1160            
    1161            $C$DW$T$109     .dwtag  DW_TAG_typedef
    1162                    .dwattr $C$DW$T$109, DW_AT_name("__vm_offset_t")
    1163                    .dwattr $C$DW$T$109, DW_AT_type(*$C$DW$T$93)
    1164                    .dwattr $C$DW$T$109, DW_AT_language(DW_LANG_C)
    1165                    .dwattr $C$DW$T$109, DW_AT_decl_file("C:/ti/ccs1110/ccs/tools/compiler/ti-cgt-msp430_21.6.1.LT
    1166                    .dwattr $C$DW$T$109, DW_AT_decl_line(0x79)
    1167                    .dwattr $C$DW$T$109, DW_AT_decl_column(0x14)
    1168            
    1169            $C$DW$T$110     .dwtag  DW_TAG_typedef
    1170                    .dwattr $C$DW$T$110, DW_AT_name("__vm_paddr_t")
    1171                    .dwattr $C$DW$T$110, DW_AT_type(*$C$DW$T$93)
    1172                    .dwattr $C$DW$T$110, DW_AT_language(DW_LANG_C)
    1173                    .dwattr $C$DW$T$110, DW_AT_decl_file("C:/ti/ccs1110/ccs/tools/compiler/ti-cgt-msp430_21.6.1.LT
    1174                    .dwattr $C$DW$T$110, DW_AT_decl_line(0x7a)
    1175                    .dwattr $C$DW$T$110, DW_AT_decl_column(0x14)
    1176            
    1177            $C$DW$T$111     .dwtag  DW_TAG_typedef
    1178                    .dwattr $C$DW$T$111, DW_AT_name("__vm_size_t")
    1179                    .dwattr $C$DW$T$111, DW_AT_type(*$C$DW$T$93)
    1180                    .dwattr $C$DW$T$111, DW_AT_language(DW_LANG_C)
    1181                    .dwattr $C$DW$T$111, DW_AT_decl_file("C:/ti/ccs1110/ccs/tools/compiler/ti-cgt-msp430_21.6.1.LT
    1182                    .dwattr $C$DW$T$111, DW_AT_decl_line(0x7b)
    1183                    .dwattr $C$DW$T$111, DW_AT_decl_column(0x14)
    1184            
    1185            $C$DW$T$112     .dwtag  DW_TAG_typedef
    1186                    .dwattr $C$DW$T$112, DW_AT_name("uint32_t")
    1187                    .dwattr $C$DW$T$112, DW_AT_type(*$C$DW$T$93)
    1188                    .dwattr $C$DW$T$112, DW_AT_language(DW_LANG_C)
    1189                    .dwattr $C$DW$T$112, DW_AT_decl_file("C:/ti/ccs1110/ccs/tools/compiler/ti-cgt-msp430_21.6.1.LT
MSP430 Assembler PC v21.6.1 Tue Dec 20 13:45:55 2022

Copyright (c) 2003-2018 Texas Instruments Incorporated
wdt_a.asm                                                            PAGE   23

    1190                    .dwattr $C$DW$T$112, DW_AT_decl_line(0x46)
    1191                    .dwattr $C$DW$T$112, DW_AT_decl_column(0x15)
    1192            
    1193            $C$DW$T$14      .dwtag  DW_TAG_base_type
    1194                    .dwattr $C$DW$T$14, DW_AT_encoding(DW_ATE_signed)
    1195                    .dwattr $C$DW$T$14, DW_AT_name("long long")
    1196                    .dwattr $C$DW$T$14, DW_AT_byte_size(0x08)
    1197            
    1198            $C$DW$T$113     .dwtag  DW_TAG_typedef
    1199                    .dwattr $C$DW$T$113, DW_AT_name("__int64_t")
    1200                    .dwattr $C$DW$T$113, DW_AT_type(*$C$DW$T$14)
    1201                    .dwattr $C$DW$T$113, DW_AT_language(DW_LANG_C)
    1202                    .dwattr $C$DW$T$113, DW_AT_decl_file("C:/ti/ccs1110/ccs/tools/compiler/ti-cgt-msp430_21.6.1.LT
    1203                    .dwattr $C$DW$T$113, DW_AT_decl_line(0x40)
    1204                    .dwattr $C$DW$T$113, DW_AT_decl_column(0x14)
    1205            
    1206            $C$DW$T$114     .dwtag  DW_TAG_typedef
    1207                    .dwattr $C$DW$T$114, DW_AT_name("__blkcnt_t")
    1208                    .dwattr $C$DW$T$114, DW_AT_type(*$C$DW$T$113)
    1209                    .dwattr $C$DW$T$114, DW_AT_language(DW_LANG_C)
    1210                    .dwattr $C$DW$T$114, DW_AT_decl_file("C:/ti/ccs1110/ccs/tools/compiler/ti-cgt-msp430_21.6.1.LT
    1211                    .dwattr $C$DW$T$114, DW_AT_decl_line(0x30)
    1212                    .dwattr $C$DW$T$114, DW_AT_decl_column(0x13)
    1213            
    1214            $C$DW$T$115     .dwtag  DW_TAG_typedef
    1215                    .dwattr $C$DW$T$115, DW_AT_name("__id_t")
    1216                    .dwattr $C$DW$T$115, DW_AT_type(*$C$DW$T$113)
    1217                    .dwattr $C$DW$T$115, DW_AT_language(DW_LANG_C)
    1218                    .dwattr $C$DW$T$115, DW_AT_decl_file("C:/ti/ccs1110/ccs/tools/compiler/ti-cgt-msp430_21.6.1.LT
    1219                    .dwattr $C$DW$T$115, DW_AT_decl_line(0x36)
    1220                    .dwattr $C$DW$T$115, DW_AT_decl_column(0x13)
    1221            
    1222            $C$DW$T$116     .dwtag  DW_TAG_typedef
    1223                    .dwattr $C$DW$T$116, DW_AT_name("__int_fast64_t")
    1224                    .dwattr $C$DW$T$116, DW_AT_type(*$C$DW$T$113)
    1225                    .dwattr $C$DW$T$116, DW_AT_language(DW_LANG_C)
    1226                    .dwattr $C$DW$T$116, DW_AT_decl_file("C:/ti/ccs1110/ccs/tools/compiler/ti-cgt-msp430_21.6.1.LT
    1227                    .dwattr $C$DW$T$116, DW_AT_decl_line(0x59)
    1228                    .dwattr $C$DW$T$116, DW_AT_decl_column(0x13)
    1229            
    1230            $C$DW$T$117     .dwtag  DW_TAG_typedef
    1231                    .dwattr $C$DW$T$117, DW_AT_name("int_fast64_t")
    1232                    .dwattr $C$DW$T$117, DW_AT_type(*$C$DW$T$116)
    1233                    .dwattr $C$DW$T$117, DW_AT_language(DW_LANG_C)
    1234                    .dwattr $C$DW$T$117, DW_AT_decl_file("C:/ti/ccs1110/ccs/tools/compiler/ti-cgt-msp430_21.6.1.LT
    1235                    .dwattr $C$DW$T$117, DW_AT_decl_line(0x37)
    1236                    .dwattr $C$DW$T$117, DW_AT_decl_column(0x19)
    1237            
    1238            $C$DW$T$118     .dwtag  DW_TAG_typedef
    1239                    .dwattr $C$DW$T$118, DW_AT_name("__int_least64_t")
    1240                    .dwattr $C$DW$T$118, DW_AT_type(*$C$DW$T$113)
    1241                    .dwattr $C$DW$T$118, DW_AT_language(DW_LANG_C)
    1242                    .dwattr $C$DW$T$118, DW_AT_decl_file("C:/ti/ccs1110/ccs/tools/compiler/ti-cgt-msp430_21.6.1.LT
    1243                    .dwattr $C$DW$T$118, DW_AT_decl_line(0x5d)
    1244                    .dwattr $C$DW$T$118, DW_AT_decl_column(0x13)
MSP430 Assembler PC v21.6.1 Tue Dec 20 13:45:55 2022

Copyright (c) 2003-2018 Texas Instruments Incorporated
wdt_a.asm                                                            PAGE   24

    1245            
    1246            $C$DW$T$119     .dwtag  DW_TAG_typedef
    1247                    .dwattr $C$DW$T$119, DW_AT_name("int_least64_t")
    1248                    .dwattr $C$DW$T$119, DW_AT_type(*$C$DW$T$118)
    1249                    .dwattr $C$DW$T$119, DW_AT_language(DW_LANG_C)
    1250                    .dwattr $C$DW$T$119, DW_AT_decl_file("C:/ti/ccs1110/ccs/tools/compiler/ti-cgt-msp430_21.6.1.LT
    1251                    .dwattr $C$DW$T$119, DW_AT_decl_line(0x2d)
    1252                    .dwattr $C$DW$T$119, DW_AT_decl_column(0x1a)
    1253            
    1254            $C$DW$T$120     .dwtag  DW_TAG_typedef
    1255                    .dwattr $C$DW$T$120, DW_AT_name("__intmax_t")
    1256                    .dwattr $C$DW$T$120, DW_AT_type(*$C$DW$T$113)
    1257                    .dwattr $C$DW$T$120, DW_AT_language(DW_LANG_C)
    1258                    .dwattr $C$DW$T$120, DW_AT_decl_file("C:/ti/ccs1110/ccs/tools/compiler/ti-cgt-msp430_21.6.1.LT
    1259                    .dwattr $C$DW$T$120, DW_AT_decl_line(0x4f)
    1260                    .dwattr $C$DW$T$120, DW_AT_decl_column(0x13)
    1261            
    1262            $C$DW$T$121     .dwtag  DW_TAG_typedef
    1263                    .dwattr $C$DW$T$121, DW_AT_name("intmax_t")
    1264                    .dwattr $C$DW$T$121, DW_AT_type(*$C$DW$T$120)
    1265                    .dwattr $C$DW$T$121, DW_AT_language(DW_LANG_C)
    1266                    .dwattr $C$DW$T$121, DW_AT_decl_file("C:/ti/ccs1110/ccs/tools/compiler/ti-cgt-msp430_21.6.1.LT
    1267                    .dwattr $C$DW$T$121, DW_AT_decl_line(0x58)
    1268                    .dwattr $C$DW$T$121, DW_AT_decl_column(0x15)
    1269            
    1270            $C$DW$T$122     .dwtag  DW_TAG_typedef
    1271                    .dwattr $C$DW$T$122, DW_AT_name("__off64_t")
    1272                    .dwattr $C$DW$T$122, DW_AT_type(*$C$DW$T$113)
    1273                    .dwattr $C$DW$T$122, DW_AT_language(DW_LANG_C)
    1274                    .dwattr $C$DW$T$122, DW_AT_decl_file("C:/ti/ccs1110/ccs/tools/compiler/ti-cgt-msp430_21.6.1.LT
    1275                    .dwattr $C$DW$T$122, DW_AT_decl_line(0x3f)
    1276                    .dwattr $C$DW$T$122, DW_AT_decl_column(0x13)
    1277            
    1278            $C$DW$T$123     .dwtag  DW_TAG_typedef
    1279                    .dwattr $C$DW$T$123, DW_AT_name("__rlim_t")
    1280                    .dwattr $C$DW$T$123, DW_AT_type(*$C$DW$T$113)
    1281                    .dwattr $C$DW$T$123, DW_AT_language(DW_LANG_C)
    1282                    .dwattr $C$DW$T$123, DW_AT_decl_file("C:/ti/ccs1110/ccs/tools/compiler/ti-cgt-msp430_21.6.1.LT
    1283                    .dwattr $C$DW$T$123, DW_AT_decl_line(0x41)
    1284                    .dwattr $C$DW$T$123, DW_AT_decl_column(0x13)
    1285            
    1286            $C$DW$T$124     .dwtag  DW_TAG_typedef
    1287                    .dwattr $C$DW$T$124, DW_AT_name("int64_t")
    1288                    .dwattr $C$DW$T$124, DW_AT_type(*$C$DW$T$113)
    1289                    .dwattr $C$DW$T$124, DW_AT_language(DW_LANG_C)
    1290                    .dwattr $C$DW$T$124, DW_AT_decl_file("C:/ti/ccs1110/ccs/tools/compiler/ti-cgt-msp430_21.6.1.LT
    1291                    .dwattr $C$DW$T$124, DW_AT_decl_line(0x35)
    1292                    .dwattr $C$DW$T$124, DW_AT_decl_column(0x14)
    1293            
    1294            $C$DW$T$15      .dwtag  DW_TAG_base_type
    1295                    .dwattr $C$DW$T$15, DW_AT_encoding(DW_ATE_unsigned)
    1296                    .dwattr $C$DW$T$15, DW_AT_name("unsigned long long")
    1297                    .dwattr $C$DW$T$15, DW_AT_byte_size(0x08)
    1298            
    1299            $C$DW$T$125     .dwtag  DW_TAG_typedef
MSP430 Assembler PC v21.6.1 Tue Dec 20 13:45:55 2022

Copyright (c) 2003-2018 Texas Instruments Incorporated
wdt_a.asm                                                            PAGE   25

    1300                    .dwattr $C$DW$T$125, DW_AT_name("__uint64_t")
    1301                    .dwattr $C$DW$T$125, DW_AT_type(*$C$DW$T$15)
    1302                    .dwattr $C$DW$T$125, DW_AT_language(DW_LANG_C)
    1303                    .dwattr $C$DW$T$125, DW_AT_decl_file("C:/ti/ccs1110/ccs/tools/compiler/ti-cgt-msp430_21.6.1.LT
    1304                    .dwattr $C$DW$T$125, DW_AT_decl_line(0x45)
    1305                    .dwattr $C$DW$T$125, DW_AT_decl_column(0x1c)
    1306            
    1307            $C$DW$T$126     .dwtag  DW_TAG_typedef
    1308                    .dwattr $C$DW$T$126, DW_AT_name("__dev_t")
    1309                    .dwattr $C$DW$T$126, DW_AT_type(*$C$DW$T$125)
    1310                    .dwattr $C$DW$T$126, DW_AT_language(DW_LANG_C)
    1311                    .dwattr $C$DW$T$126, DW_AT_decl_file("C:/ti/ccs1110/ccs/tools/compiler/ti-cgt-msp430_21.6.1.LT
    1312                    .dwattr $C$DW$T$126, DW_AT_decl_line(0x7f)
    1313                    .dwattr $C$DW$T$126, DW_AT_decl_column(0x14)
    1314            
    1315            $C$DW$T$127     .dwtag  DW_TAG_typedef
    1316                    .dwattr $C$DW$T$127, DW_AT_name("__fsblkcnt_t")
    1317                    .dwattr $C$DW$T$127, DW_AT_type(*$C$DW$T$125)
    1318                    .dwattr $C$DW$T$127, DW_AT_language(DW_LANG_C)
    1319                    .dwattr $C$DW$T$127, DW_AT_decl_file("C:/ti/ccs1110/ccs/tools/compiler/ti-cgt-msp430_21.6.1.LT
    1320                    .dwattr $C$DW$T$127, DW_AT_decl_line(0x33)
    1321                    .dwattr $C$DW$T$127, DW_AT_decl_column(0x14)
    1322            
    1323            $C$DW$T$128     .dwtag  DW_TAG_typedef
    1324                    .dwattr $C$DW$T$128, DW_AT_name("__fsfilcnt_t")
    1325                    .dwattr $C$DW$T$128, DW_AT_type(*$C$DW$T$125)
    1326                    .dwattr $C$DW$T$128, DW_AT_language(DW_LANG_C)
    1327                    .dwattr $C$DW$T$128, DW_AT_decl_file("C:/ti/ccs1110/ccs/tools/compiler/ti-cgt-msp430_21.6.1.LT
    1328                    .dwattr $C$DW$T$128, DW_AT_decl_line(0x34)
    1329                    .dwattr $C$DW$T$128, DW_AT_decl_column(0x14)
    1330            
    1331            $C$DW$T$129     .dwtag  DW_TAG_typedef
    1332                    .dwattr $C$DW$T$129, DW_AT_name("__ino_t")
    1333                    .dwattr $C$DW$T$129, DW_AT_type(*$C$DW$T$125)
    1334                    .dwattr $C$DW$T$129, DW_AT_language(DW_LANG_C)
    1335                    .dwattr $C$DW$T$129, DW_AT_decl_file("C:/ti/ccs1110/ccs/tools/compiler/ti-cgt-msp430_21.6.1.LT
    1336                    .dwattr $C$DW$T$129, DW_AT_decl_line(0x37)
    1337                    .dwattr $C$DW$T$129, DW_AT_decl_column(0x14)
    1338            
    1339            $C$DW$T$130     .dwtag  DW_TAG_typedef
    1340                    .dwattr $C$DW$T$130, DW_AT_name("__nlink_t")
    1341                    .dwattr $C$DW$T$130, DW_AT_type(*$C$DW$T$125)
    1342                    .dwattr $C$DW$T$130, DW_AT_language(DW_LANG_C)
    1343                    .dwattr $C$DW$T$130, DW_AT_decl_file("C:/ti/ccs1110/ccs/tools/compiler/ti-cgt-msp430_21.6.1.LT
    1344                    .dwattr $C$DW$T$130, DW_AT_decl_line(0x3d)
    1345                    .dwattr $C$DW$T$130, DW_AT_decl_column(0x14)
    1346            
    1347            $C$DW$T$131     .dwtag  DW_TAG_typedef
    1348                    .dwattr $C$DW$T$131, DW_AT_name("__uint_fast64_t")
    1349                    .dwattr $C$DW$T$131, DW_AT_type(*$C$DW$T$125)
    1350                    .dwattr $C$DW$T$131, DW_AT_language(DW_LANG_C)
    1351                    .dwattr $C$DW$T$131, DW_AT_decl_file("C:/ti/ccs1110/ccs/tools/compiler/ti-cgt-msp430_21.6.1.LT
    1352                    .dwattr $C$DW$T$131, DW_AT_decl_line(0x73)
    1353                    .dwattr $C$DW$T$131, DW_AT_decl_column(0x14)
    1354            
MSP430 Assembler PC v21.6.1 Tue Dec 20 13:45:55 2022

Copyright (c) 2003-2018 Texas Instruments Incorporated
wdt_a.asm                                                            PAGE   26

    1355            $C$DW$T$132     .dwtag  DW_TAG_typedef
    1356                    .dwattr $C$DW$T$132, DW_AT_name("uint_fast64_t")
    1357                    .dwattr $C$DW$T$132, DW_AT_type(*$C$DW$T$131)
    1358                    .dwattr $C$DW$T$132, DW_AT_language(DW_LANG_C)
    1359                    .dwattr $C$DW$T$132, DW_AT_decl_file("C:/ti/ccs1110/ccs/tools/compiler/ti-cgt-msp430_21.6.1.LT
    1360                    .dwattr $C$DW$T$132, DW_AT_decl_line(0x3c)
    1361                    .dwattr $C$DW$T$132, DW_AT_decl_column(0x1a)
    1362            
    1363            $C$DW$T$133     .dwtag  DW_TAG_typedef
    1364                    .dwattr $C$DW$T$133, DW_AT_name("__uint_least64_t")
    1365                    .dwattr $C$DW$T$133, DW_AT_type(*$C$DW$T$125)
    1366                    .dwattr $C$DW$T$133, DW_AT_language(DW_LANG_C)
    1367                    .dwattr $C$DW$T$133, DW_AT_decl_file("C:/ti/ccs1110/ccs/tools/compiler/ti-cgt-msp430_21.6.1.LT
    1368                    .dwattr $C$DW$T$133, DW_AT_decl_line(0x77)
    1369                    .dwattr $C$DW$T$133, DW_AT_decl_column(0x14)
    1370            
    1371            $C$DW$T$134     .dwtag  DW_TAG_typedef
    1372                    .dwattr $C$DW$T$134, DW_AT_name("uint_least64_t")
    1373                    .dwattr $C$DW$T$134, DW_AT_type(*$C$DW$T$133)
    1374                    .dwattr $C$DW$T$134, DW_AT_language(DW_LANG_C)
    1375                    .dwattr $C$DW$T$134, DW_AT_decl_file("C:/ti/ccs1110/ccs/tools/compiler/ti-cgt-msp430_21.6.1.LT
    1376                    .dwattr $C$DW$T$134, DW_AT_decl_line(0x32)
    1377                    .dwattr $C$DW$T$134, DW_AT_decl_column(0x1a)
    1378            
    1379            $C$DW$T$135     .dwtag  DW_TAG_typedef
    1380                    .dwattr $C$DW$T$135, DW_AT_name("__uintmax_t")
    1381                    .dwattr $C$DW$T$135, DW_AT_type(*$C$DW$T$125)
    1382                    .dwattr $C$DW$T$135, DW_AT_language(DW_LANG_C)
    1383                    .dwattr $C$DW$T$135, DW_AT_decl_file("C:/ti/ccs1110/ccs/tools/compiler/ti-cgt-msp430_21.6.1.LT
    1384                    .dwattr $C$DW$T$135, DW_AT_decl_line(0x69)
    1385                    .dwattr $C$DW$T$135, DW_AT_decl_column(0x14)
    1386            
    1387            $C$DW$T$136     .dwtag  DW_TAG_typedef
    1388                    .dwattr $C$DW$T$136, DW_AT_name("__rman_res_t")
    1389                    .dwattr $C$DW$T$136, DW_AT_type(*$C$DW$T$135)
    1390                    .dwattr $C$DW$T$136, DW_AT_language(DW_LANG_C)
    1391                    .dwattr $C$DW$T$136, DW_AT_decl_file("C:/ti/ccs1110/ccs/tools/compiler/ti-cgt-msp430_21.6.1.LT
    1392                    .dwattr $C$DW$T$136, DW_AT_decl_line(0x9a)
    1393                    .dwattr $C$DW$T$136, DW_AT_decl_column(0x19)
    1394            
    1395            $C$DW$T$137     .dwtag  DW_TAG_typedef
    1396                    .dwattr $C$DW$T$137, DW_AT_name("uintmax_t")
    1397                    .dwattr $C$DW$T$137, DW_AT_type(*$C$DW$T$135)
    1398                    .dwattr $C$DW$T$137, DW_AT_language(DW_LANG_C)
    1399                    .dwattr $C$DW$T$137, DW_AT_decl_file("C:/ti/ccs1110/ccs/tools/compiler/ti-cgt-msp430_21.6.1.LT
    1400                    .dwattr $C$DW$T$137, DW_AT_decl_line(0x5c)
    1401                    .dwattr $C$DW$T$137, DW_AT_decl_column(0x16)
    1402            
    1403            $C$DW$T$138     .dwtag  DW_TAG_typedef
    1404                    .dwattr $C$DW$T$138, DW_AT_name("uint64_t")
    1405                    .dwattr $C$DW$T$138, DW_AT_type(*$C$DW$T$125)
    1406                    .dwattr $C$DW$T$138, DW_AT_language(DW_LANG_C)
    1407                    .dwattr $C$DW$T$138, DW_AT_decl_file("C:/ti/ccs1110/ccs/tools/compiler/ti-cgt-msp430_21.6.1.LT
    1408                    .dwattr $C$DW$T$138, DW_AT_decl_line(0x4b)
    1409                    .dwattr $C$DW$T$138, DW_AT_decl_column(0x15)
MSP430 Assembler PC v21.6.1 Tue Dec 20 13:45:55 2022

Copyright (c) 2003-2018 Texas Instruments Incorporated
wdt_a.asm                                                            PAGE   27

    1410            
    1411            $C$DW$T$16      .dwtag  DW_TAG_base_type
    1412                    .dwattr $C$DW$T$16, DW_AT_encoding(DW_ATE_float)
    1413                    .dwattr $C$DW$T$16, DW_AT_name("float")
    1414                    .dwattr $C$DW$T$16, DW_AT_byte_size(0x04)
    1415            
    1416            $C$DW$T$139     .dwtag  DW_TAG_typedef
    1417                    .dwattr $C$DW$T$139, DW_AT_name("__float_t")
    1418                    .dwattr $C$DW$T$139, DW_AT_type(*$C$DW$T$16)
    1419                    .dwattr $C$DW$T$139, DW_AT_language(DW_LANG_C)
    1420                    .dwattr $C$DW$T$139, DW_AT_decl_file("C:/ti/ccs1110/ccs/tools/compiler/ti-cgt-msp430_21.6.1.LT
    1421                    .dwattr $C$DW$T$139, DW_AT_decl_line(0x4d)
    1422                    .dwattr $C$DW$T$139, DW_AT_decl_column(0x10)
    1423            
    1424            $C$DW$T$17      .dwtag  DW_TAG_base_type
    1425                    .dwattr $C$DW$T$17, DW_AT_encoding(DW_ATE_float)
    1426                    .dwattr $C$DW$T$17, DW_AT_name("double")
    1427                    .dwattr $C$DW$T$17, DW_AT_byte_size(0x08)
    1428            
    1429            $C$DW$T$140     .dwtag  DW_TAG_typedef
    1430                    .dwattr $C$DW$T$140, DW_AT_name("__double_t")
    1431                    .dwattr $C$DW$T$140, DW_AT_type(*$C$DW$T$17)
    1432                    .dwattr $C$DW$T$140, DW_AT_language(DW_LANG_C)
    1433                    .dwattr $C$DW$T$140, DW_AT_decl_file("C:/ti/ccs1110/ccs/tools/compiler/ti-cgt-msp430_21.6.1.LT
    1434                    .dwattr $C$DW$T$140, DW_AT_decl_line(0x4c)
    1435                    .dwattr $C$DW$T$140, DW_AT_decl_column(0x11)
    1436            
    1437            $C$DW$T$18      .dwtag  DW_TAG_base_type
    1438                    .dwattr $C$DW$T$18, DW_AT_encoding(DW_ATE_float)
    1439                    .dwattr $C$DW$T$18, DW_AT_name("long double")
    1440                    .dwattr $C$DW$T$18, DW_AT_byte_size(0x08)
    1441            
    1442            $C$DW$T$142     .dwtag  DW_TAG_pointer_type
    1443                    .dwattr $C$DW$T$142, DW_AT_type(*$C$DW$T$6)
    1444                    .dwattr $C$DW$T$142, DW_AT_address_class(0x14)
    1445            
    1446            $C$DW$T$143     .dwtag  DW_TAG_typedef
    1447                    .dwattr $C$DW$T$143, DW_AT_name("__va_list")
    1448                    .dwattr $C$DW$T$143, DW_AT_type(*$C$DW$T$142)
    1449                    .dwattr $C$DW$T$143, DW_AT_language(DW_LANG_C)
    1450                    .dwattr $C$DW$T$143, DW_AT_decl_file("C:/ti/ccs1110/ccs/tools/compiler/ti-cgt-msp430_21.6.1.LT
    1451                    .dwattr $C$DW$T$143, DW_AT_decl_line(0x92)
    1452                    .dwattr $C$DW$T$143, DW_AT_decl_column(0x0f)
    1453            
    1454            
    1455            $C$DW$T$19      .dwtag  DW_TAG_structure_type
    1456                    .dwattr $C$DW$T$19, DW_AT_name("__mq")
    1457                    .dwattr $C$DW$T$19, DW_AT_declaration
    1458                    .dwattr $C$DW$T$19, DW_AT_decl_file("C:/ti/ccs1110/ccs/tools/compiler/ti-cgt-msp430_21.6.1.LTS
    1459                    .dwattr $C$DW$T$19, DW_AT_decl_line(0x4c)
    1460                    .dwattr $C$DW$T$19, DW_AT_decl_column(0x10)
    1461                    .dwendtag $C$DW$T$19
    1462            
    1463            $C$DW$T$144     .dwtag  DW_TAG_pointer_type
    1464                    .dwattr $C$DW$T$144, DW_AT_type(*$C$DW$T$19)
MSP430 Assembler PC v21.6.1 Tue Dec 20 13:45:55 2022

Copyright (c) 2003-2018 Texas Instruments Incorporated
wdt_a.asm                                                            PAGE   28

    1465                    .dwattr $C$DW$T$144, DW_AT_address_class(0x14)
    1466            
    1467            $C$DW$T$145     .dwtag  DW_TAG_typedef
    1468                    .dwattr $C$DW$T$145, DW_AT_name("__mqd_t")
    1469                    .dwattr $C$DW$T$145, DW_AT_type(*$C$DW$T$144)
    1470                    .dwattr $C$DW$T$145, DW_AT_language(DW_LANG_C)
    1471                    .dwattr $C$DW$T$145, DW_AT_decl_file("C:/ti/ccs1110/ccs/tools/compiler/ti-cgt-msp430_21.6.1.LT
    1472                    .dwattr $C$DW$T$145, DW_AT_decl_line(0x4c)
    1473                    .dwattr $C$DW$T$145, DW_AT_decl_column(0x16)
    1474            
    1475            
    1476            $C$DW$T$20      .dwtag  DW_TAG_structure_type
    1477                    .dwattr $C$DW$T$20, DW_AT_name("__timer")
    1478                    .dwattr $C$DW$T$20, DW_AT_declaration
    1479                    .dwattr $C$DW$T$20, DW_AT_decl_file("C:/ti/ccs1110/ccs/tools/compiler/ti-cgt-msp430_21.6.1.LTS
    1480                    .dwattr $C$DW$T$20, DW_AT_decl_line(0x4b)
    1481                    .dwattr $C$DW$T$20, DW_AT_decl_column(0x10)
    1482                    .dwendtag $C$DW$T$20
    1483            
    1484            $C$DW$T$146     .dwtag  DW_TAG_pointer_type
    1485                    .dwattr $C$DW$T$146, DW_AT_type(*$C$DW$T$20)
    1486                    .dwattr $C$DW$T$146, DW_AT_address_class(0x14)
    1487            
    1488            $C$DW$T$147     .dwtag  DW_TAG_typedef
    1489                    .dwattr $C$DW$T$147, DW_AT_name("__timer_t")
    1490                    .dwattr $C$DW$T$147, DW_AT_type(*$C$DW$T$146)
    1491                    .dwattr $C$DW$T$147, DW_AT_language(DW_LANG_C)
    1492                    .dwattr $C$DW$T$147, DW_AT_decl_file("C:/ti/ccs1110/ccs/tools/compiler/ti-cgt-msp430_21.6.1.LT
    1493                    .dwattr $C$DW$T$147, DW_AT_decl_line(0x4b)
    1494                    .dwattr $C$DW$T$147, DW_AT_decl_column(0x19)
    1495            
    1496                    .dwattr $C$DW$CU, DW_AT_language(DW_LANG_C)
    1497            
    1498            ;***************************************************************
    1499            ;* DWARF CIE ENTRIES                                           *
    1500            ;***************************************************************
    1501            
    1502            $C$DW$CIE       .dwcie 16
    1503                    .dwcfi  cfa_register, 1
    1504                    .dwcfi  cfa_offset, 0
    1505                    .dwcfi  same_value, 0
    1506                    .dwcfi  same_value, 1
    1507                    .dwcfi  same_value, 3
    1508                    .dwcfi  same_value, 4
    1509                    .dwcfi  same_value, 5
    1510                    .dwcfi  same_value, 6
    1511                    .dwcfi  same_value, 7
    1512                    .dwcfi  same_value, 8
    1513                    .dwcfi  same_value, 9
    1514                    .dwcfi  same_value, 10
    1515                    .dwendentry
    1516            
    1517            ;***************************************************************
    1518            ;* DWARF REGISTER MAP                                          *
    1519            ;***************************************************************
MSP430 Assembler PC v21.6.1 Tue Dec 20 13:45:55 2022

Copyright (c) 2003-2018 Texas Instruments Incorporated
wdt_a.asm                                                            PAGE   29

    1520            
    1521            $C$DW$32        .dwtag  DW_TAG_TI_assign_register
    1522                    .dwattr $C$DW$32, DW_AT_name("PC")
    1523                    .dwattr $C$DW$32, DW_AT_location[DW_OP_reg0]
    1524            
    1525            $C$DW$33        .dwtag  DW_TAG_TI_assign_register
    1526                    .dwattr $C$DW$33, DW_AT_name("SP")
    1527                    .dwattr $C$DW$33, DW_AT_location[DW_OP_reg1]
    1528            
    1529            $C$DW$34        .dwtag  DW_TAG_TI_assign_register
    1530                    .dwattr $C$DW$34, DW_AT_name("SR")
    1531                    .dwattr $C$DW$34, DW_AT_location[DW_OP_reg2]
    1532            
    1533            $C$DW$35        .dwtag  DW_TAG_TI_assign_register
    1534                    .dwattr $C$DW$35, DW_AT_name("CG")
    1535                    .dwattr $C$DW$35, DW_AT_location[DW_OP_reg3]
    1536            
    1537            $C$DW$36        .dwtag  DW_TAG_TI_assign_register
    1538                    .dwattr $C$DW$36, DW_AT_name("r4")
    1539                    .dwattr $C$DW$36, DW_AT_location[DW_OP_reg4]
    1540            
    1541            $C$DW$37        .dwtag  DW_TAG_TI_assign_register
    1542                    .dwattr $C$DW$37, DW_AT_name("r5")
    1543                    .dwattr $C$DW$37, DW_AT_location[DW_OP_reg5]
    1544            
    1545            $C$DW$38        .dwtag  DW_TAG_TI_assign_register
    1546                    .dwattr $C$DW$38, DW_AT_name("r6")
    1547                    .dwattr $C$DW$38, DW_AT_location[DW_OP_reg6]
    1548            
    1549            $C$DW$39        .dwtag  DW_TAG_TI_assign_register
    1550                    .dwattr $C$DW$39, DW_AT_name("r7")
    1551                    .dwattr $C$DW$39, DW_AT_location[DW_OP_reg7]
    1552            
    1553            $C$DW$40        .dwtag  DW_TAG_TI_assign_register
    1554                    .dwattr $C$DW$40, DW_AT_name("r8")
    1555                    .dwattr $C$DW$40, DW_AT_location[DW_OP_reg8]
    1556            
    1557            $C$DW$41        .dwtag  DW_TAG_TI_assign_register
    1558                    .dwattr $C$DW$41, DW_AT_name("r9")
    1559                    .dwattr $C$DW$41, DW_AT_location[DW_OP_reg9]
    1560            
    1561            $C$DW$42        .dwtag  DW_TAG_TI_assign_register
    1562                    .dwattr $C$DW$42, DW_AT_name("r10")
    1563                    .dwattr $C$DW$42, DW_AT_location[DW_OP_reg10]
    1564            
    1565            $C$DW$43        .dwtag  DW_TAG_TI_assign_register
    1566                    .dwattr $C$DW$43, DW_AT_name("r11")
    1567                    .dwattr $C$DW$43, DW_AT_location[DW_OP_reg11]
    1568            
    1569            $C$DW$44        .dwtag  DW_TAG_TI_assign_register
    1570                    .dwattr $C$DW$44, DW_AT_name("r12")
    1571                    .dwattr $C$DW$44, DW_AT_location[DW_OP_reg12]
    1572            
    1573            $C$DW$45        .dwtag  DW_TAG_TI_assign_register
    1574                    .dwattr $C$DW$45, DW_AT_name("r13")
MSP430 Assembler PC v21.6.1 Tue Dec 20 13:45:55 2022

Copyright (c) 2003-2018 Texas Instruments Incorporated
wdt_a.asm                                                            PAGE   30

    1575                    .dwattr $C$DW$45, DW_AT_location[DW_OP_reg13]
    1576            
    1577            $C$DW$46        .dwtag  DW_TAG_TI_assign_register
    1578                    .dwattr $C$DW$46, DW_AT_name("r14")
    1579                    .dwattr $C$DW$46, DW_AT_location[DW_OP_reg14]
    1580            
    1581            $C$DW$47        .dwtag  DW_TAG_TI_assign_register
    1582                    .dwattr $C$DW$47, DW_AT_name("r15")
    1583                    .dwattr $C$DW$47, DW_AT_location[DW_OP_reg15]
    1584            
    1585            $C$DW$48        .dwtag  DW_TAG_TI_assign_register
    1586                    .dwattr $C$DW$48, DW_AT_name("CIE_RETA")
    1587                    .dwattr $C$DW$48, DW_AT_location[DW_OP_reg16]
    1588            
    1589                    .dwendtag $C$DW$CU
    1590            

No Assembly Errors, No Assembly Warnings
