MSP430 Assembler PC v21.6.1 Tue Dec 20 13:45:56 2022

Copyright (c) 2003-2018 Texas Instruments Incorporated
ADC ISR G.asm                                                        PAGE    1

       1            ;******************************************************************************
       2            ;* MSP430 G3 C/C++ Codegen                                              PC v21.6.1.LTS *
       3            ;* Date/Time created: Tue Dec 20 13:45:55 2022                                *
       4            ;******************************************************************************
       5                    .compiler_opts --abi=eabi --diag_wrap=off --hll_source=on --mem_model:code=large --mem_model:d
       6            
       7            $C$DW$CU        .dwtag  DW_TAG_compile_unit
       8                    .dwattr $C$DW$CU, DW_AT_name("../src/ADC ISR G.c")
       9                    .dwattr $C$DW$CU, DW_AT_producer("TI MSP430 G3 C/C++ Codegen PC v21.6.1.LTS Copyright (c) 2003
      10                    .dwattr $C$DW$CU, DW_AT_TI_version(0x01)
      11                    .dwattr $C$DW$CU, DW_AT_comp_dir("C:\Users\MCourson\workspace_v11\MZERO_HB50Board\Debug")
      12            $C$DW$1 .dwtag  DW_TAG_variable
      13                    .dwattr $C$DW$1, DW_AT_name("ADC12IFG")
      14                    .dwattr $C$DW$1, DW_AT_TI_symbol_name("ADC12IFG")
      15                    .dwattr $C$DW$1, DW_AT_type(*$C$DW$T$111)
      16                    .dwattr $C$DW$1, DW_AT_declaration
      17                    .dwattr $C$DW$1, DW_AT_external
      18                    .dwattr $C$DW$1, DW_AT_decl_file("C:\ti\ccs1110\ccs\ccs_base\msp430\include\msp430f5438a.h")
      19                    .dwattr $C$DW$1, DW_AT_decl_line(0xa7)
      20                    .dwattr $C$DW$1, DW_AT_decl_column(0x01)
      21            
      22            $C$DW$2 .dwtag  DW_TAG_variable
      23                    .dwattr $C$DW$2, DW_AT_name("ADC12IV")
      24                    .dwattr $C$DW$2, DW_AT_TI_symbol_name("ADC12IV")
      25                    .dwattr $C$DW$2, DW_AT_type(*$C$DW$T$111)
      26                    .dwattr $C$DW$2, DW_AT_declaration
      27                    .dwattr $C$DW$2, DW_AT_external
      28                    .dwattr $C$DW$2, DW_AT_decl_file("C:\ti\ccs1110\ccs\ccs_base\msp430\include\msp430f5438a.h")
      29                    .dwattr $C$DW$2, DW_AT_decl_line(0xad)
      30                    .dwattr $C$DW$2, DW_AT_decl_column(0x01)
      31            
      32                    .global mode
      33                    .common mode,2,2
      34            $C$DW$3 .dwtag  DW_TAG_variable
      35                    .dwattr $C$DW$3, DW_AT_name("mode")
      36                    .dwattr $C$DW$3, DW_AT_TI_symbol_name("mode")
      37                    .dwattr $C$DW$3, DW_AT_location[DW_OP_addr mode]
      38                    .dwattr $C$DW$3, DW_AT_type(*$C$DW$T$54)
      39                    .dwattr $C$DW$3, DW_AT_external
      40                    .dwattr $C$DW$3, DW_AT_decl_file("C:/Users/MCourson/workspace_v11/MZERO_HB50Board/include/Main
      41                    .dwattr $C$DW$3, DW_AT_decl_line(0x65)
      42                    .dwattr $C$DW$3, DW_AT_decl_column(0x07)
      43            
      44                    .global FCState
      45                    .common FCState,2,2
      46            $C$DW$4 .dwtag  DW_TAG_variable
      47                    .dwattr $C$DW$4, DW_AT_name("FCState")
      48                    .dwattr $C$DW$4, DW_AT_TI_symbol_name("FCState")
      49                    .dwattr $C$DW$4, DW_AT_location[DW_OP_addr FCState]
      50                    .dwattr $C$DW$4, DW_AT_type(*$C$DW$T$56)
      51                    .dwattr $C$DW$4, DW_AT_external
      52                    .dwattr $C$DW$4, DW_AT_decl_file("C:/Users/MCourson/workspace_v11/MZERO_HB50Board/include/Main
      53                    .dwattr $C$DW$4, DW_AT_decl_line(0x6d)
      54                    .dwattr $C$DW$4, DW_AT_decl_column(0x0a)
      55            
MSP430 Assembler PC v21.6.1 Tue Dec 20 13:45:56 2022

Copyright (c) 2003-2018 Texas Instruments Incorporated
ADC ISR G.asm                                                        PAGE    2

      56                    .global msgstatus
      57                    .common msgstatus,2,2
      58            $C$DW$5 .dwtag  DW_TAG_variable
      59                    .dwattr $C$DW$5, DW_AT_name("msgstatus")
      60                    .dwattr $C$DW$5, DW_AT_TI_symbol_name("msgstatus")
      61                    .dwattr $C$DW$5, DW_AT_location[DW_OP_addr msgstatus]
      62                    .dwattr $C$DW$5, DW_AT_type(*$C$DW$T$58)
      63                    .dwattr $C$DW$5, DW_AT_external
      64                    .dwattr $C$DW$5, DW_AT_decl_file("C:/Users/MCourson/workspace_v11/MZERO_HB50Board/include/Main
      65                    .dwattr $C$DW$5, DW_AT_decl_line(0x7c)
      66                    .dwattr $C$DW$5, DW_AT_decl_column(0x0f)
      67            
      68                    .global status
      69                    .common status,2,2
      70            $C$DW$6 .dwtag  DW_TAG_variable
      71                    .dwattr $C$DW$6, DW_AT_name("status")
      72                    .dwattr $C$DW$6, DW_AT_TI_symbol_name("status")
      73                    .dwattr $C$DW$6, DW_AT_location[DW_OP_addr status]
      74                    .dwattr $C$DW$6, DW_AT_type(*$C$DW$T$60)
      75                    .dwattr $C$DW$6, DW_AT_external
      76                    .dwattr $C$DW$6, DW_AT_decl_file("C:/Users/MCourson/workspace_v11/MZERO_HB50Board/include/Main
      77                    .dwattr $C$DW$6, DW_AT_decl_line(0x83)
      78                    .dwattr $C$DW$6, DW_AT_decl_column(0x0e)
      79            
      80            $C$DW$7 .dwtag  DW_TAG_variable
      81                    .dwattr $C$DW$7, DW_AT_name("ADCdone")
      82                    .dwattr $C$DW$7, DW_AT_TI_symbol_name("ADCdone")
      83                    .dwattr $C$DW$7, DW_AT_type(*$C$DW$T$6)
      84                    .dwattr $C$DW$7, DW_AT_declaration
      85                    .dwattr $C$DW$7, DW_AT_external
      86                    .dwattr $C$DW$7, DW_AT_decl_file("../src/ADC ISR G.c")
      87                    .dwattr $C$DW$7, DW_AT_decl_line(0x12)
      88                    .dwattr $C$DW$7, DW_AT_decl_column(0x0d)
      89            
      90                    .global ADCvalue8
      91                    .common ADCvalue8,2,2
      92            $C$DW$8 .dwtag  DW_TAG_variable
      93                    .dwattr $C$DW$8, DW_AT_name("ADCvalue8")
      94                    .dwattr $C$DW$8, DW_AT_TI_symbol_name("ADCvalue8")
      95                    .dwattr $C$DW$8, DW_AT_location[DW_OP_addr ADCvalue8]
      96                    .dwattr $C$DW$8, DW_AT_type(*$C$DW$T$11)
      97                    .dwattr $C$DW$8, DW_AT_external
      98                    .dwattr $C$DW$8, DW_AT_decl_file("../src/ADC ISR G.c")
      99                    .dwattr $C$DW$8, DW_AT_decl_line(0x1a)
     100                    .dwattr $C$DW$8, DW_AT_decl_column(0x0e)
     101            
     102                    .global ADCvalue9
     103                    .common ADCvalue9,2,2
     104            $C$DW$9 .dwtag  DW_TAG_variable
     105                    .dwattr $C$DW$9, DW_AT_name("ADCvalue9")
     106                    .dwattr $C$DW$9, DW_AT_TI_symbol_name("ADCvalue9")
     107                    .dwattr $C$DW$9, DW_AT_location[DW_OP_addr ADCvalue9]
     108                    .dwattr $C$DW$9, DW_AT_type(*$C$DW$T$11)
     109                    .dwattr $C$DW$9, DW_AT_external
     110                    .dwattr $C$DW$9, DW_AT_decl_file("../src/ADC ISR G.c")
MSP430 Assembler PC v21.6.1 Tue Dec 20 13:45:56 2022

Copyright (c) 2003-2018 Texas Instruments Incorporated
ADC ISR G.asm                                                        PAGE    3

     111                    .dwattr $C$DW$9, DW_AT_decl_line(0x1a)
     112                    .dwattr $C$DW$9, DW_AT_decl_column(0x18)
     113            
     114                    .global ADCvalue10
     115                    .common ADCvalue10,2,2
     116            $C$DW$10        .dwtag  DW_TAG_variable
     117                    .dwattr $C$DW$10, DW_AT_name("ADCvalue10")
     118                    .dwattr $C$DW$10, DW_AT_TI_symbol_name("ADCvalue10")
     119                    .dwattr $C$DW$10, DW_AT_location[DW_OP_addr ADCvalue10]
     120                    .dwattr $C$DW$10, DW_AT_type(*$C$DW$T$11)
     121                    .dwattr $C$DW$10, DW_AT_external
     122                    .dwattr $C$DW$10, DW_AT_decl_file("../src/ADC ISR G.c")
     123                    .dwattr $C$DW$10, DW_AT_decl_line(0x1a)
     124                    .dwattr $C$DW$10, DW_AT_decl_column(0x22)
     125            
     126                    .global ADCvalue11
     127                    .common ADCvalue11,2,2
     128            $C$DW$11        .dwtag  DW_TAG_variable
     129                    .dwattr $C$DW$11, DW_AT_name("ADCvalue11")
     130                    .dwattr $C$DW$11, DW_AT_TI_symbol_name("ADCvalue11")
     131                    .dwattr $C$DW$11, DW_AT_location[DW_OP_addr ADCvalue11]
     132                    .dwattr $C$DW$11, DW_AT_type(*$C$DW$T$11)
     133                    .dwattr $C$DW$11, DW_AT_external
     134                    .dwattr $C$DW$11, DW_AT_decl_file("../src/ADC ISR G.c")
     135                    .dwattr $C$DW$11, DW_AT_decl_line(0x1a)
     136                    .dwattr $C$DW$11, DW_AT_decl_column(0x2d)
     137            
     138            ;       C:\ti\ccs1110\ccs\tools\compiler\ti-cgt-msp430_21.6.1.LTS\bin\opt430.exe C:\\Users\\MCourson\\
     139 000000               .sect   ".text:__signbitl"
     140                    .clink
     141                    .global __signbitl
     142            
     143            $C$DW$12        .dwtag  DW_TAG_subprogram
     144                    .dwattr $C$DW$12, DW_AT_name("__signbitl")
     145                    .dwattr $C$DW$12, DW_AT_low_pc(__signbitl)
     146                    .dwattr $C$DW$12, DW_AT_high_pc(0x00)
     147                    .dwattr $C$DW$12, DW_AT_TI_symbol_name("__signbitl")
     148                    .dwattr $C$DW$12, DW_AT_external
     149                    .dwattr $C$DW$12, DW_AT_type(*$C$DW$T$10)
     150                    .dwattr $C$DW$12, DW_AT_TI_begin_file("C:/ti/ccs1110/ccs/tools/compiler/ti-cgt-msp430_21.6.1.L
     151                    .dwattr $C$DW$12, DW_AT_TI_begin_line(0x16f)
     152                    .dwattr $C$DW$12, DW_AT_TI_begin_column(0x25)
     153                    .dwattr $C$DW$12, DW_AT_decl_file("C:/ti/ccs1110/ccs/tools/compiler/ti-cgt-msp430_21.6.1.LTS/i
     154                    .dwattr $C$DW$12, DW_AT_decl_line(0x16f)
     155                    .dwattr $C$DW$12, DW_AT_decl_column(0x25)
     156                    .dwattr $C$DW$12, DW_AT_TI_max_frame_size(0x04)
     157                    .dwpsn  file "C:/ti/ccs1110/ccs/tools/compiler/ti-cgt-msp430_21.6.1.LTS/include/_defs.h",line 
     158            
     159                    .dwfde $C$DW$CIE, __signbitl
     160            $C$DW$13        .dwtag  DW_TAG_formal_parameter
     161                    .dwattr $C$DW$13, DW_AT_name("e")
     162                    .dwattr $C$DW$13, DW_AT_TI_symbol_name("e")
     163                    .dwattr $C$DW$13, DW_AT_type(*$C$DW$T$18)
     164                    .dwattr $C$DW$13, DW_AT_location[DW_OP_reg12 DW_OP_piece 2 DW_OP_reg13 DW_OP_piece 2 DW_OP_reg
     165            
MSP430 Assembler PC v21.6.1 Tue Dec 20 13:45:56 2022

Copyright (c) 2003-2018 Texas Instruments Incorporated
ADC ISR G.asm                                                        PAGE    4

     166            
     167            ;*****************************************************************************
     168            ;* FUNCTION NAME: __signbitl                                                 *
     169            ;*                                                                           *
     170            ;*   Regs Modified     : SP,SR,r11,r12,r13,r14,r15                           *
     171            ;*   Regs Used         : SP,SR,r11,r12,r13,r14,r15                           *
     172            ;*   Local Frame Size  : 0 Args + 0 Auto + 0 Save = 0 byte                   *
     173            ;*****************************************************************************
     174 000000       __signbitl:
     175            ;* --------------------------------------------------------------------------*
     176                    .dwcfi  cfa_offset, 4
     177                    .dwcfi  save_reg_to_mem, 16, -4
     178                    .dwpsn  file "C:/ti/ccs1110/ccs/tools/compiler/ti-cgt-msp430_21.6.1.LTS/include/_defs.h",line 
     179 000000 430B          MOV.W     #0,r11                ; [] |368| 
     180 000002 F30C          AND.W     #0,r12                ; [] |368| 
     181 000004 F30D          AND.W     #0,r13                ; [] |368| 
     182 000006 F30E          AND.W     #0,r14                ; [] |368| 
     183 000008 F03F          AND.W     #32768,r15            ; [] |368| 
         00000a 8000 
     184 00000c 930F          TST.W     r15                   ; [] |368| 
     185 00000e 2006          JNE       $C$L1                 ; [] |368| 
     186                                                      ; [] |368| 
     187            ;* --------------------------------------------------------------------------*
     188 000010 930E          TST.W     r14                   ; [] |368| 
     189 000012 2004          JNE       $C$L1                 ; [] |368| 
     190                                                      ; [] |368| 
     191            ;* --------------------------------------------------------------------------*
     192 000014 930D          TST.W     r13                   ; [] |368| 
     193 000016 2002          JNE       $C$L1                 ; [] |368| 
     194                                                      ; [] |368| 
     195            ;* --------------------------------------------------------------------------*
     196 000018 930C          TST.W     r12                   ; [] |368| 
     197 00001a 2401          JEQ       $C$L2                 ; [] |368| 
     198                                                      ; [] |368| 
     199            ;* --------------------------------------------------------------------------*
     200 00001c       $C$L1:    
     201 00001c 431B          MOV.W     #1,r11                ; [] |368| 
     202            ;* --------------------------------------------------------------------------*
     203 00001e       $C$L2:    
     204 00001e 0BCC          MOVA      r11,r12               ; [] |368| 
     205                    .dwpsn  file "C:/ti/ccs1110/ccs/tools/compiler/ti-cgt-msp430_21.6.1.LTS/include/_defs.h",line 
     206            $C$DW$14        .dwtag  DW_TAG_TI_branch
     207                    .dwattr $C$DW$14, DW_AT_low_pc(0x00)
     208                    .dwattr $C$DW$14, DW_AT_TI_return
     209            
     210 000020 0110          RETA      ; [] 
     211                    ; [] 
     212                    .dwattr $C$DW$12, DW_AT_TI_end_file("C:/ti/ccs1110/ccs/tools/compiler/ti-cgt-msp430_21.6.1.LTS
     213                    .dwattr $C$DW$12, DW_AT_TI_end_line(0x170)
     214                    .dwattr $C$DW$12, DW_AT_TI_end_column(0x2b)
     215                    .dwendentry
     216                    .dwendtag $C$DW$12
     217            
     218 000000               .sect   ".text:__signbitf"
     219                    .clink
MSP430 Assembler PC v21.6.1 Tue Dec 20 13:45:56 2022

Copyright (c) 2003-2018 Texas Instruments Incorporated
ADC ISR G.asm                                                        PAGE    5

     220                    .global __signbitf
     221            
     222            $C$DW$15        .dwtag  DW_TAG_subprogram
     223                    .dwattr $C$DW$15, DW_AT_name("__signbitf")
     224                    .dwattr $C$DW$15, DW_AT_low_pc(__signbitf)
     225                    .dwattr $C$DW$15, DW_AT_high_pc(0x00)
     226                    .dwattr $C$DW$15, DW_AT_TI_symbol_name("__signbitf")
     227                    .dwattr $C$DW$15, DW_AT_external
     228                    .dwattr $C$DW$15, DW_AT_type(*$C$DW$T$10)
     229                    .dwattr $C$DW$15, DW_AT_TI_begin_file("C:/ti/ccs1110/ccs/tools/compiler/ti-cgt-msp430_21.6.1.L
     230                    .dwattr $C$DW$15, DW_AT_TI_begin_line(0x16d)
     231                    .dwattr $C$DW$15, DW_AT_TI_begin_column(0x25)
     232                    .dwattr $C$DW$15, DW_AT_decl_file("C:/ti/ccs1110/ccs/tools/compiler/ti-cgt-msp430_21.6.1.LTS/i
     233                    .dwattr $C$DW$15, DW_AT_decl_line(0x16d)
     234                    .dwattr $C$DW$15, DW_AT_decl_column(0x25)
     235                    .dwattr $C$DW$15, DW_AT_TI_max_frame_size(0x04)
     236                    .dwpsn  file "C:/ti/ccs1110/ccs/tools/compiler/ti-cgt-msp430_21.6.1.LTS/include/_defs.h",line 
     237            
     238                    .dwfde $C$DW$CIE, __signbitf
     239            $C$DW$16        .dwtag  DW_TAG_formal_parameter
     240                    .dwattr $C$DW$16, DW_AT_name("f")
     241                    .dwattr $C$DW$16, DW_AT_TI_symbol_name("f")
     242                    .dwattr $C$DW$16, DW_AT_type(*$C$DW$T$16)
     243                    .dwattr $C$DW$16, DW_AT_location[DW_OP_reg12 DW_OP_piece 2 DW_OP_reg13 DW_OP_piece 2]
     244            
     245            
     246            ;*****************************************************************************
     247            ;* FUNCTION NAME: __signbitf                                                 *
     248            ;*                                                                           *
     249            ;*   Regs Modified     : SP,SR,r12                                           *
     250            ;*   Regs Used         : SP,SR,r12,r13                                       *
     251            ;*   Local Frame Size  : 0 Args + 0 Auto + 0 Save = 0 byte                   *
     252            ;*****************************************************************************
     253 000000       __signbitf:
     254            ;* --------------------------------------------------------------------------*
     255                    .dwcfi  cfa_offset, 4
     256                    .dwcfi  save_reg_to_mem, 16, -4
     257                    .dwpsn  file "C:/ti/ccs1110/ccs/tools/compiler/ti-cgt-msp430_21.6.1.LTS/include/_defs.h",line 
     258 000000 430C          MOV.W     #0,r12                ; [] |366| 
     259 000002 930D          TST.W     r13                   ; [] |366| 
     260 000004 3401          JGE       $C$L3                 ; [] |366| 
     261                                                      ; [] |366| 
     262            ;* --------------------------------------------------------------------------*
     263 000006 431C          MOV.W     #1,r12                ; [] |366| 
     264            ;* --------------------------------------------------------------------------*
     265 000008       $C$L3:    
     266                    .dwpsn  file "C:/ti/ccs1110/ccs/tools/compiler/ti-cgt-msp430_21.6.1.LTS/include/_defs.h",line 
     267            $C$DW$17        .dwtag  DW_TAG_TI_branch
     268                    .dwattr $C$DW$17, DW_AT_low_pc(0x00)
     269                    .dwattr $C$DW$17, DW_AT_TI_return
     270            
     271 000008 0110          RETA      ; [] 
     272                    ; [] 
     273                    .dwattr $C$DW$15, DW_AT_TI_end_file("C:/ti/ccs1110/ccs/tools/compiler/ti-cgt-msp430_21.6.1.LTS
     274                    .dwattr $C$DW$15, DW_AT_TI_end_line(0x16e)
MSP430 Assembler PC v21.6.1 Tue Dec 20 13:45:56 2022

Copyright (c) 2003-2018 Texas Instruments Incorporated
ADC ISR G.asm                                                        PAGE    6

     275                    .dwattr $C$DW$15, DW_AT_TI_end_column(0x29)
     276                    .dwendentry
     277                    .dwendtag $C$DW$15
     278            
     279 000000               .sect   ".text:__signbit"
     280                    .clink
     281                    .global __signbit
     282            
     283            $C$DW$18        .dwtag  DW_TAG_subprogram
     284                    .dwattr $C$DW$18, DW_AT_name("__signbit")
     285                    .dwattr $C$DW$18, DW_AT_low_pc(__signbit)
     286                    .dwattr $C$DW$18, DW_AT_high_pc(0x00)
     287                    .dwattr $C$DW$18, DW_AT_TI_symbol_name("__signbit")
     288                    .dwattr $C$DW$18, DW_AT_external
     289                    .dwattr $C$DW$18, DW_AT_type(*$C$DW$T$10)
     290                    .dwattr $C$DW$18, DW_AT_TI_begin_file("C:/ti/ccs1110/ccs/tools/compiler/ti-cgt-msp430_21.6.1.L
     291                    .dwattr $C$DW$18, DW_AT_TI_begin_line(0x16b)
     292                    .dwattr $C$DW$18, DW_AT_TI_begin_column(0x25)
     293                    .dwattr $C$DW$18, DW_AT_decl_file("C:/ti/ccs1110/ccs/tools/compiler/ti-cgt-msp430_21.6.1.LTS/i
     294                    .dwattr $C$DW$18, DW_AT_decl_line(0x16b)
     295                    .dwattr $C$DW$18, DW_AT_decl_column(0x25)
     296                    .dwattr $C$DW$18, DW_AT_TI_max_frame_size(0x04)
     297                    .dwpsn  file "C:/ti/ccs1110/ccs/tools/compiler/ti-cgt-msp430_21.6.1.LTS/include/_defs.h",line 
     298            
     299                    .dwfde $C$DW$CIE, __signbit
     300            $C$DW$19        .dwtag  DW_TAG_formal_parameter
     301                    .dwattr $C$DW$19, DW_AT_name("d")
     302                    .dwattr $C$DW$19, DW_AT_TI_symbol_name("d")
     303                    .dwattr $C$DW$19, DW_AT_type(*$C$DW$T$17)
     304                    .dwattr $C$DW$19, DW_AT_location[DW_OP_reg12 DW_OP_piece 2 DW_OP_reg13 DW_OP_piece 2 DW_OP_reg
     305            
     306            
     307            ;*****************************************************************************
     308            ;* FUNCTION NAME: __signbit                                                  *
     309            ;*                                                                           *
     310            ;*   Regs Modified     : SP,SR,r11,r12,r13,r14,r15                           *
     311            ;*   Regs Used         : SP,SR,r11,r12,r13,r14,r15                           *
     312            ;*   Local Frame Size  : 0 Args + 0 Auto + 0 Save = 0 byte                   *
     313            ;*****************************************************************************
     314 000000       __signbit:
     315            ;* --------------------------------------------------------------------------*
     316                    .dwcfi  cfa_offset, 4
     317                    .dwcfi  save_reg_to_mem, 16, -4
     318                    .dwpsn  file "C:/ti/ccs1110/ccs/tools/compiler/ti-cgt-msp430_21.6.1.LTS/include/_defs.h",line 
     319 000000 430B          MOV.W     #0,r11                ; [] |364| 
     320 000002 F30C          AND.W     #0,r12                ; [] |364| 
     321 000004 F30D          AND.W     #0,r13                ; [] |364| 
     322 000006 F30E          AND.W     #0,r14                ; [] |364| 
     323 000008 F03F          AND.W     #32768,r15            ; [] |364| 
         00000a 8000 
     324 00000c 930F          TST.W     r15                   ; [] |364| 
     325 00000e 2006          JNE       $C$L4                 ; [] |364| 
     326                                                      ; [] |364| 
     327            ;* --------------------------------------------------------------------------*
     328 000010 930E          TST.W     r14                   ; [] |364| 
MSP430 Assembler PC v21.6.1 Tue Dec 20 13:45:56 2022

Copyright (c) 2003-2018 Texas Instruments Incorporated
ADC ISR G.asm                                                        PAGE    7

     329 000012 2004          JNE       $C$L4                 ; [] |364| 
     330                                                      ; [] |364| 
     331            ;* --------------------------------------------------------------------------*
     332 000014 930D          TST.W     r13                   ; [] |364| 
     333 000016 2002          JNE       $C$L4                 ; [] |364| 
     334                                                      ; [] |364| 
     335            ;* --------------------------------------------------------------------------*
     336 000018 930C          TST.W     r12                   ; [] |364| 
     337 00001a 2401          JEQ       $C$L5                 ; [] |364| 
     338                                                      ; [] |364| 
     339            ;* --------------------------------------------------------------------------*
     340 00001c       $C$L4:    
     341 00001c 431B          MOV.W     #1,r11                ; [] |364| 
     342            ;* --------------------------------------------------------------------------*
     343 00001e       $C$L5:    
     344 00001e 0BCC          MOVA      r11,r12               ; [] |364| 
     345                    .dwpsn  file "C:/ti/ccs1110/ccs/tools/compiler/ti-cgt-msp430_21.6.1.LTS/include/_defs.h",line 
     346            $C$DW$20        .dwtag  DW_TAG_TI_branch
     347                    .dwattr $C$DW$20, DW_AT_low_pc(0x00)
     348                    .dwattr $C$DW$20, DW_AT_TI_return
     349            
     350 000020 0110          RETA      ; [] 
     351                    ; [] 
     352                    .dwattr $C$DW$18, DW_AT_TI_end_file("C:/ti/ccs1110/ccs/tools/compiler/ti-cgt-msp430_21.6.1.LTS
     353                    .dwattr $C$DW$18, DW_AT_TI_end_line(0x16c)
     354                    .dwattr $C$DW$18, DW_AT_TI_end_column(0x2a)
     355                    .dwendentry
     356                    .dwendtag $C$DW$18
     357            
     358 000000               .sect   ".text:__isnormall"
     359                    .clink
     360                    .global __isnormall
     361            
     362            $C$DW$21        .dwtag  DW_TAG_subprogram
     363                    .dwattr $C$DW$21, DW_AT_name("__isnormall")
     364                    .dwattr $C$DW$21, DW_AT_low_pc(__isnormall)
     365                    .dwattr $C$DW$21, DW_AT_high_pc(0x00)
     366                    .dwattr $C$DW$21, DW_AT_TI_symbol_name("__isnormall")
     367                    .dwattr $C$DW$21, DW_AT_external
     368                    .dwattr $C$DW$21, DW_AT_type(*$C$DW$T$10)
     369                    .dwattr $C$DW$21, DW_AT_TI_begin_file("C:/ti/ccs1110/ccs/tools/compiler/ti-cgt-msp430_21.6.1.L
     370                    .dwattr $C$DW$21, DW_AT_TI_begin_line(0x167)
     371                    .dwattr $C$DW$21, DW_AT_TI_begin_column(0x25)
     372                    .dwattr $C$DW$21, DW_AT_decl_file("C:/ti/ccs1110/ccs/tools/compiler/ti-cgt-msp430_21.6.1.LTS/i
     373                    .dwattr $C$DW$21, DW_AT_decl_line(0x167)
     374                    .dwattr $C$DW$21, DW_AT_decl_column(0x25)
     375                    .dwattr $C$DW$21, DW_AT_TI_max_frame_size(0x18)
     376                    .dwpsn  file "C:/ti/ccs1110/ccs/tools/compiler/ti-cgt-msp430_21.6.1.LTS/include/_defs.h",line 
     377            
     378                    .dwfde $C$DW$CIE, __isnormall
     379            $C$DW$22        .dwtag  DW_TAG_formal_parameter
     380                    .dwattr $C$DW$22, DW_AT_name("e")
     381                    .dwattr $C$DW$22, DW_AT_TI_symbol_name("e")
     382                    .dwattr $C$DW$22, DW_AT_type(*$C$DW$T$18)
     383                    .dwattr $C$DW$22, DW_AT_location[DW_OP_reg12 DW_OP_piece 2 DW_OP_reg13 DW_OP_piece 2 DW_OP_reg
MSP430 Assembler PC v21.6.1 Tue Dec 20 13:45:56 2022

Copyright (c) 2003-2018 Texas Instruments Incorporated
ADC ISR G.asm                                                        PAGE    8

     384            
     385            
     386            ;*****************************************************************************
     387            ;* FUNCTION NAME: __isnormall                                                *
     388            ;*                                                                           *
     389            ;*   Regs Modified     : SP,SR,r6,r7,r8,r9,r10,r11,r12,r13,r14,r15           *
     390            ;*   Regs Used         : SP,SR,r6,r7,r8,r9,r10,r11,r12,r13,r14,r15           *
     391            ;*   Local Frame Size  : 0 Args + 0 Auto + 20 Save = 20 byte                 *
     392            ;*****************************************************************************
     393 000000       __isnormall:
     394            ;* --------------------------------------------------------------------------*
     395                    .dwcfi  cfa_offset, 4
     396                    .dwcfi  save_reg_to_mem, 16, -4
     397 000000 144A          PUSHM.A   #5,r10                ; [] 
     398                    .dwcfi  save_reg_to_mem, 10, -8
     399                    .dwcfi  save_reg_to_mem, 9, -12
     400                    .dwcfi  save_reg_to_mem, 8, -16
     401                    .dwcfi  save_reg_to_mem, 7, -20
     402                    .dwcfi  save_reg_to_mem, 6, -24
     403                    .dwcfi  cfa_offset, 24
     404            ;* r6    assigned to $O$S1
     405            ;* r12   assigned to e
     406            $C$DW$23        .dwtag  DW_TAG_variable
     407                    .dwattr $C$DW$23, DW_AT_name("e")
     408                    .dwattr $C$DW$23, DW_AT_TI_symbol_name("e")
     409                    .dwattr $C$DW$23, DW_AT_type(*$C$DW$T$18)
     410                    .dwattr $C$DW$23, DW_AT_location[DW_OP_reg12 DW_OP_piece 2 DW_OP_reg13 DW_OP_piece 2 DW_OP_reg
     411            
     412 000002 0FC7          MOVA      r15,r7                ; [] |360| 
     413                    .dwpsn  file "C:/ti/ccs1110/ccs/tools/compiler/ti-cgt-msp430_21.6.1.LTS/include/_defs.h",line 
     414 000004 4306          MOV.W     #0,r6                 ; [] |360| 
     415 000006 0CC8          MOVA      r12,r8                ; [] |360| 
     416 000008 0DC9          MOVA      r13,r9                ; [] |360| 
     417 00000a 0ECA          MOVA      r14,r10               ; [] |360| 
     418 00000c 07CB          MOVA      r7,r11                ; [] |360| 
     419 00000e 403C          MOV.W     #52,r12               ; [] |360| 
         000010 0034 
     420            $C$DW$24        .dwtag  DW_TAG_TI_branch
     421                    .dwattr $C$DW$24, DW_AT_low_pc(0x00)
     422                    .dwattr $C$DW$24, DW_AT_name("__mspabi_srlll")
     423                    .dwattr $C$DW$24, DW_AT_TI_call
     424            
     425 000012 13B0!         CALLA     #__mspabi_srlll       ; [] |360| 
         000014 0000 
     426                                                      ; [] |360| 
     427 000016 F03C          AND.W     #2047,r12             ; [] |360| 
         000018 07FF 
     428 00001a F30D          AND.W     #0,r13                ; [] |360| 
     429 00001c F30E          AND.W     #0,r14                ; [] |360| 
     430 00001e F30F          AND.W     #0,r15                ; [] |360| 
     431 000020 930F          TST.W     r15                   ; [] |360| 
     432 000022 2006          JNE       $C$L6                 ; [] |360| 
     433                                                      ; [] |360| 
     434            ;* --------------------------------------------------------------------------*
     435 000024 930E          TST.W     r14                   ; [] |360| 
MSP430 Assembler PC v21.6.1 Tue Dec 20 13:45:56 2022

Copyright (c) 2003-2018 Texas Instruments Incorporated
ADC ISR G.asm                                                        PAGE    9

     436 000026 2004          JNE       $C$L6                 ; [] |360| 
     437                                                      ; [] |360| 
     438            ;* --------------------------------------------------------------------------*
     439 000028 930D          TST.W     r13                   ; [] |360| 
     440 00002a 2002          JNE       $C$L6                 ; [] |360| 
     441                                                      ; [] |360| 
     442            ;* --------------------------------------------------------------------------*
     443 00002c 930C          TST.W     r12                   ; [] |360| 
     444 00002e 2406          JEQ       $C$L7                 ; [] |360| 
     445                                                      ; [] |360| 
     446            ;* --------------------------------------------------------------------------*
     447 000030       $C$L6:    
     448 000030 F037          AND.W     #32752,r7             ; [] |360| 
         000032 7FF0 
     449 000034 9037          CMP.W     #32752,r7             ; [] |360| 
         000036 7FF0 
     450 000038 2401          JEQ       $C$L7                 ; [] |360| 
     451                                                      ; [] |360| 
     452            ;* --------------------------------------------------------------------------*
     453 00003a 4316          MOV.W     #1,r6                 ; [] |360| 
     454            ;* --------------------------------------------------------------------------*
     455 00003c       $C$L7:    
     456 00003c 06CC          MOVA      r6,r12                ; [] |360| 
     457                    .dwpsn  file "C:/ti/ccs1110/ccs/tools/compiler/ti-cgt-msp430_21.6.1.LTS/include/_defs.h",line 
     458 00003e 1646          POPM.A    #5,r10                ; [] 
     459                    .dwcfi  restore_reg, 6
     460                    .dwcfi  restore_reg, 7
     461                    .dwcfi  restore_reg, 8
     462                    .dwcfi  restore_reg, 9
     463                    .dwcfi  restore_reg, 10
     464                    .dwcfi  cfa_offset, 4
     465            $C$DW$25        .dwtag  DW_TAG_TI_branch
     466                    .dwattr $C$DW$25, DW_AT_low_pc(0x00)
     467                    .dwattr $C$DW$25, DW_AT_TI_return
     468            
     469 000040 0110          RETA      ; [] 
     470                    ; [] 
     471                    .dwattr $C$DW$21, DW_AT_TI_end_file("C:/ti/ccs1110/ccs/tools/compiler/ti-cgt-msp430_21.6.1.LTS
     472                    .dwattr $C$DW$21, DW_AT_TI_end_line(0x169)
     473                    .dwattr $C$DW$21, DW_AT_TI_end_column(0x31)
     474                    .dwendentry
     475                    .dwendtag $C$DW$21
     476            
     477 000000               .sect   ".text:__isnormalf"
     478                    .clink
     479                    .global __isnormalf
     480            
     481            $C$DW$26        .dwtag  DW_TAG_subprogram
     482                    .dwattr $C$DW$26, DW_AT_name("__isnormalf")
     483                    .dwattr $C$DW$26, DW_AT_low_pc(__isnormalf)
     484                    .dwattr $C$DW$26, DW_AT_high_pc(0x00)
     485                    .dwattr $C$DW$26, DW_AT_TI_symbol_name("__isnormalf")
     486                    .dwattr $C$DW$26, DW_AT_external
     487                    .dwattr $C$DW$26, DW_AT_type(*$C$DW$T$10)
     488                    .dwattr $C$DW$26, DW_AT_TI_begin_file("C:/ti/ccs1110/ccs/tools/compiler/ti-cgt-msp430_21.6.1.L
MSP430 Assembler PC v21.6.1 Tue Dec 20 13:45:56 2022

Copyright (c) 2003-2018 Texas Instruments Incorporated
ADC ISR G.asm                                                        PAGE   10

     489                    .dwattr $C$DW$26, DW_AT_TI_begin_line(0x163)
     490                    .dwattr $C$DW$26, DW_AT_TI_begin_column(0x25)
     491                    .dwattr $C$DW$26, DW_AT_decl_file("C:/ti/ccs1110/ccs/tools/compiler/ti-cgt-msp430_21.6.1.LTS/i
     492                    .dwattr $C$DW$26, DW_AT_decl_line(0x163)
     493                    .dwattr $C$DW$26, DW_AT_decl_column(0x25)
     494                    .dwattr $C$DW$26, DW_AT_TI_max_frame_size(0x04)
     495                    .dwpsn  file "C:/ti/ccs1110/ccs/tools/compiler/ti-cgt-msp430_21.6.1.LTS/include/_defs.h",line 
     496            
     497                    .dwfde $C$DW$CIE, __isnormalf
     498            $C$DW$27        .dwtag  DW_TAG_formal_parameter
     499                    .dwattr $C$DW$27, DW_AT_name("f")
     500                    .dwattr $C$DW$27, DW_AT_TI_symbol_name("f")
     501                    .dwattr $C$DW$27, DW_AT_type(*$C$DW$T$16)
     502                    .dwattr $C$DW$27, DW_AT_location[DW_OP_reg12 DW_OP_piece 2 DW_OP_reg13 DW_OP_piece 2]
     503            
     504            
     505            ;*****************************************************************************
     506            ;* FUNCTION NAME: __isnormalf                                                *
     507            ;*                                                                           *
     508            ;*   Regs Modified     : SP,SR,r12,r13,r15                                   *
     509            ;*   Regs Used         : SP,SR,r12,r13,r15                                   *
     510            ;*   Local Frame Size  : 0 Args + 0 Auto + 0 Save = 0 byte                   *
     511            ;*****************************************************************************
     512 000000       __isnormalf:
     513            ;* --------------------------------------------------------------------------*
     514                    .dwcfi  cfa_offset, 4
     515                    .dwcfi  save_reg_to_mem, 16, -4
     516            ;* r12   assigned to $O$S1
     517                    .dwpsn  file "C:/ti/ccs1110/ccs/tools/compiler/ti-cgt-msp430_21.6.1.LTS/include/_defs.h",line 
     518 000000 430C          MOV.W     #0,r12                ; [] |356| 
     519 000002 0DCF          MOVA      r13,r15               ; [] |356| 
     520 000004 1946          RPT #7 || RRUX.W r15 ; [] |356| 
         000006 100F 
     521 000008 B03F          BIT.W     #255,r15              ; [] |356| 
         00000a 00FF 
     522 00000c 2406          JEQ       $C$L8                 ; [] |356| 
     523                                                      ; [] |356| 
     524            ;* --------------------------------------------------------------------------*
     525 00000e F03D          AND.W     #32640,r13            ; [] |356| 
         000010 7F80 
     526 000012 903D          CMP.W     #32640,r13            ; [] |356| 
         000014 7F80 
     527 000016 2401          JEQ       $C$L8                 ; [] |356| 
     528                                                      ; [] |356| 
     529            ;* --------------------------------------------------------------------------*
     530 000018 431C          MOV.W     #1,r12                ; [] |356| 
     531            ;* --------------------------------------------------------------------------*
     532 00001a       $C$L8:    
     533                    .dwpsn  file "C:/ti/ccs1110/ccs/tools/compiler/ti-cgt-msp430_21.6.1.LTS/include/_defs.h",line 
     534            $C$DW$28        .dwtag  DW_TAG_TI_branch
     535                    .dwattr $C$DW$28, DW_AT_low_pc(0x00)
     536                    .dwattr $C$DW$28, DW_AT_TI_return
     537            
     538 00001a 0110          RETA      ; [] 
     539                    ; [] 
MSP430 Assembler PC v21.6.1 Tue Dec 20 13:45:56 2022

Copyright (c) 2003-2018 Texas Instruments Incorporated
ADC ISR G.asm                                                        PAGE   11

     540                    .dwattr $C$DW$26, DW_AT_TI_end_file("C:/ti/ccs1110/ccs/tools/compiler/ti-cgt-msp430_21.6.1.LTS
     541                    .dwattr $C$DW$26, DW_AT_TI_end_line(0x165)
     542                    .dwattr $C$DW$26, DW_AT_TI_end_column(0x2f)
     543                    .dwendentry
     544                    .dwendtag $C$DW$26
     545            
     546 000000               .sect   ".text:__isnormal"
     547                    .clink
     548                    .global __isnormal
     549            
     550            $C$DW$29        .dwtag  DW_TAG_subprogram
     551                    .dwattr $C$DW$29, DW_AT_name("__isnormal")
     552                    .dwattr $C$DW$29, DW_AT_low_pc(__isnormal)
     553                    .dwattr $C$DW$29, DW_AT_high_pc(0x00)
     554                    .dwattr $C$DW$29, DW_AT_TI_symbol_name("__isnormal")
     555                    .dwattr $C$DW$29, DW_AT_external
     556                    .dwattr $C$DW$29, DW_AT_type(*$C$DW$T$10)
     557                    .dwattr $C$DW$29, DW_AT_TI_begin_file("C:/ti/ccs1110/ccs/tools/compiler/ti-cgt-msp430_21.6.1.L
     558                    .dwattr $C$DW$29, DW_AT_TI_begin_line(0x15f)
     559                    .dwattr $C$DW$29, DW_AT_TI_begin_column(0x25)
     560                    .dwattr $C$DW$29, DW_AT_decl_file("C:/ti/ccs1110/ccs/tools/compiler/ti-cgt-msp430_21.6.1.LTS/i
     561                    .dwattr $C$DW$29, DW_AT_decl_line(0x15f)
     562                    .dwattr $C$DW$29, DW_AT_decl_column(0x25)
     563                    .dwattr $C$DW$29, DW_AT_TI_max_frame_size(0x18)
     564                    .dwpsn  file "C:/ti/ccs1110/ccs/tools/compiler/ti-cgt-msp430_21.6.1.LTS/include/_defs.h",line 
     565            
     566                    .dwfde $C$DW$CIE, __isnormal
     567            $C$DW$30        .dwtag  DW_TAG_formal_parameter
     568                    .dwattr $C$DW$30, DW_AT_name("d")
     569                    .dwattr $C$DW$30, DW_AT_TI_symbol_name("d")
     570                    .dwattr $C$DW$30, DW_AT_type(*$C$DW$T$17)
     571                    .dwattr $C$DW$30, DW_AT_location[DW_OP_reg12 DW_OP_piece 2 DW_OP_reg13 DW_OP_piece 2 DW_OP_reg
     572            
     573            
     574            ;*****************************************************************************
     575            ;* FUNCTION NAME: __isnormal                                                 *
     576            ;*                                                                           *
     577            ;*   Regs Modified     : SP,SR,r6,r7,r8,r9,r10,r11,r12,r13,r14,r15           *
     578            ;*   Regs Used         : SP,SR,r6,r7,r8,r9,r10,r11,r12,r13,r14,r15           *
     579            ;*   Local Frame Size  : 0 Args + 0 Auto + 20 Save = 20 byte                 *
     580            ;*****************************************************************************
     581 000000       __isnormal:
     582            ;* --------------------------------------------------------------------------*
     583                    .dwcfi  cfa_offset, 4
     584                    .dwcfi  save_reg_to_mem, 16, -4
     585 000000 144A          PUSHM.A   #5,r10                ; [] 
     586                    .dwcfi  save_reg_to_mem, 10, -8
     587                    .dwcfi  save_reg_to_mem, 9, -12
     588                    .dwcfi  save_reg_to_mem, 8, -16
     589                    .dwcfi  save_reg_to_mem, 7, -20
     590                    .dwcfi  save_reg_to_mem, 6, -24
     591                    .dwcfi  cfa_offset, 24
     592            ;* r6    assigned to $O$S1
     593            ;* r12   assigned to d
     594            $C$DW$31        .dwtag  DW_TAG_variable
MSP430 Assembler PC v21.6.1 Tue Dec 20 13:45:56 2022

Copyright (c) 2003-2018 Texas Instruments Incorporated
ADC ISR G.asm                                                        PAGE   12

     595                    .dwattr $C$DW$31, DW_AT_name("d")
     596                    .dwattr $C$DW$31, DW_AT_TI_symbol_name("d")
     597                    .dwattr $C$DW$31, DW_AT_type(*$C$DW$T$17)
     598                    .dwattr $C$DW$31, DW_AT_location[DW_OP_reg12 DW_OP_piece 2 DW_OP_reg13 DW_OP_piece 2 DW_OP_reg
     599            
     600 000002 0FC7          MOVA      r15,r7                ; [] |352| 
     601                    .dwpsn  file "C:/ti/ccs1110/ccs/tools/compiler/ti-cgt-msp430_21.6.1.LTS/include/_defs.h",line 
     602 000004 4306          MOV.W     #0,r6                 ; [] |352| 
     603 000006 0CC8          MOVA      r12,r8                ; [] |352| 
     604 000008 0DC9          MOVA      r13,r9                ; [] |352| 
     605 00000a 0ECA          MOVA      r14,r10               ; [] |352| 
     606 00000c 07CB          MOVA      r7,r11                ; [] |352| 
     607 00000e 403C          MOV.W     #52,r12               ; [] |352| 
         000010 0034 
     608            $C$DW$32        .dwtag  DW_TAG_TI_branch
     609                    .dwattr $C$DW$32, DW_AT_low_pc(0x00)
     610                    .dwattr $C$DW$32, DW_AT_name("__mspabi_srlll")
     611                    .dwattr $C$DW$32, DW_AT_TI_call
     612            
     613 000012 13B0!         CALLA     #__mspabi_srlll       ; [] |352| 
         000014 0000 
     614                                                      ; [] |352| 
     615 000016 F03C          AND.W     #2047,r12             ; [] |352| 
         000018 07FF 
     616 00001a F30D          AND.W     #0,r13                ; [] |352| 
     617 00001c F30E          AND.W     #0,r14                ; [] |352| 
     618 00001e F30F          AND.W     #0,r15                ; [] |352| 
     619 000020 930F          TST.W     r15                   ; [] |352| 
     620 000022 2006          JNE       $C$L9                 ; [] |352| 
     621                                                      ; [] |352| 
     622            ;* --------------------------------------------------------------------------*
     623 000024 930E          TST.W     r14                   ; [] |352| 
     624 000026 2004          JNE       $C$L9                 ; [] |352| 
     625                                                      ; [] |352| 
     626            ;* --------------------------------------------------------------------------*
     627 000028 930D          TST.W     r13                   ; [] |352| 
     628 00002a 2002          JNE       $C$L9                 ; [] |352| 
     629                                                      ; [] |352| 
     630            ;* --------------------------------------------------------------------------*
     631 00002c 930C          TST.W     r12                   ; [] |352| 
     632 00002e 2406          JEQ       $C$L10                ; [] |352| 
     633                                                      ; [] |352| 
     634            ;* --------------------------------------------------------------------------*
     635 000030       $C$L9:    
     636 000030 F037          AND.W     #32752,r7             ; [] |352| 
         000032 7FF0 
     637 000034 9037          CMP.W     #32752,r7             ; [] |352| 
         000036 7FF0 
     638 000038 2401          JEQ       $C$L10                ; [] |352| 
     639                                                      ; [] |352| 
     640            ;* --------------------------------------------------------------------------*
     641 00003a 4316          MOV.W     #1,r6                 ; [] |352| 
     642            ;* --------------------------------------------------------------------------*
     643 00003c       $C$L10:    
     644 00003c 06CC          MOVA      r6,r12                ; [] |352| 
MSP430 Assembler PC v21.6.1 Tue Dec 20 13:45:56 2022

Copyright (c) 2003-2018 Texas Instruments Incorporated
ADC ISR G.asm                                                        PAGE   13

     645                    .dwpsn  file "C:/ti/ccs1110/ccs/tools/compiler/ti-cgt-msp430_21.6.1.LTS/include/_defs.h",line 
     646 00003e 1646          POPM.A    #5,r10                ; [] 
     647                    .dwcfi  restore_reg, 6
     648                    .dwcfi  restore_reg, 7
     649                    .dwcfi  restore_reg, 8
     650                    .dwcfi  restore_reg, 9
     651                    .dwcfi  restore_reg, 10
     652                    .dwcfi  cfa_offset, 4
     653            $C$DW$33        .dwtag  DW_TAG_TI_branch
     654                    .dwattr $C$DW$33, DW_AT_low_pc(0x00)
     655                    .dwattr $C$DW$33, DW_AT_TI_return
     656            
     657 000040 0110          RETA      ; [] 
     658                    ; [] 
     659                    .dwattr $C$DW$29, DW_AT_TI_end_file("C:/ti/ccs1110/ccs/tools/compiler/ti-cgt-msp430_21.6.1.LTS
     660                    .dwattr $C$DW$29, DW_AT_TI_end_line(0x161)
     661                    .dwattr $C$DW$29, DW_AT_TI_end_column(0x30)
     662                    .dwendentry
     663                    .dwendtag $C$DW$29
     664            
     665 000000               .sect   ".text:__isnanl"
     666                    .clink
     667                    .global __isnanl
     668            
     669            $C$DW$34        .dwtag  DW_TAG_subprogram
     670                    .dwattr $C$DW$34, DW_AT_name("__isnanl")
     671                    .dwattr $C$DW$34, DW_AT_low_pc(__isnanl)
     672                    .dwattr $C$DW$34, DW_AT_high_pc(0x00)
     673                    .dwattr $C$DW$34, DW_AT_TI_symbol_name("__isnanl")
     674                    .dwattr $C$DW$34, DW_AT_external
     675                    .dwattr $C$DW$34, DW_AT_type(*$C$DW$T$10)
     676                    .dwattr $C$DW$34, DW_AT_TI_begin_file("C:/ti/ccs1110/ccs/tools/compiler/ti-cgt-msp430_21.6.1.L
     677                    .dwattr $C$DW$34, DW_AT_TI_begin_line(0x15b)
     678                    .dwattr $C$DW$34, DW_AT_TI_begin_column(0x25)
     679                    .dwattr $C$DW$34, DW_AT_decl_file("C:/ti/ccs1110/ccs/tools/compiler/ti-cgt-msp430_21.6.1.LTS/i
     680                    .dwattr $C$DW$34, DW_AT_decl_line(0x15b)
     681                    .dwattr $C$DW$34, DW_AT_decl_column(0x25)
     682                    .dwattr $C$DW$34, DW_AT_TI_max_frame_size(0x08)
     683                    .dwpsn  file "C:/ti/ccs1110/ccs/tools/compiler/ti-cgt-msp430_21.6.1.LTS/include/_defs.h",line 
     684            
     685                    .dwfde $C$DW$CIE, __isnanl
     686            $C$DW$35        .dwtag  DW_TAG_formal_parameter
     687                    .dwattr $C$DW$35, DW_AT_name("e")
     688                    .dwattr $C$DW$35, DW_AT_TI_symbol_name("e")
     689                    .dwattr $C$DW$35, DW_AT_type(*$C$DW$T$18)
     690                    .dwattr $C$DW$35, DW_AT_location[DW_OP_reg12 DW_OP_piece 2 DW_OP_reg13 DW_OP_piece 2 DW_OP_reg
     691            
     692            
     693            ;*****************************************************************************
     694            ;* FUNCTION NAME: __isnanl                                                   *
     695            ;*                                                                           *
     696            ;*   Regs Modified     : SP,SR,r10,r11,r12,r13,r14,r15                       *
     697            ;*   Regs Used         : SP,SR,r10,r11,r12,r13,r14,r15                       *
     698            ;*   Local Frame Size  : 0 Args + 0 Auto + 4 Save = 4 byte                   *
     699            ;*****************************************************************************
MSP430 Assembler PC v21.6.1 Tue Dec 20 13:45:56 2022

Copyright (c) 2003-2018 Texas Instruments Incorporated
ADC ISR G.asm                                                        PAGE   14

     700 000000       __isnanl:
     701            ;* --------------------------------------------------------------------------*
     702                    .dwcfi  cfa_offset, 4
     703                    .dwcfi  save_reg_to_mem, 16, -4
     704 000000 140A          PUSHM.A   #1,r10                ; [] 
     705                    .dwcfi  save_reg_to_mem, 10, -8
     706                    .dwcfi  cfa_offset, 8
     707            ;* r11   assigned to $O$S1
     708                    .dwpsn  file "C:/ti/ccs1110/ccs/tools/compiler/ti-cgt-msp430_21.6.1.LTS/include/_defs.h",line 
     709 000002 430B          MOV.W     #0,r11                ; [] |348| 
     710 000004 0FCA          MOVA      r15,r10               ; [] |348| 
     711 000006 F03A          AND.W     #32752,r10            ; [] |348| 
         000008 7FF0 
     712 00000a 903A          CMP.W     #32752,r10            ; [] |348| 
         00000c 7FF0 
     713 00000e 200E          JNE       $C$L12                ; [] |348| 
     714                                                      ; [] |348| 
     715            ;* --------------------------------------------------------------------------*
     716 000010 F33C          AND.W     #65535,r12            ; [] |348| 
     717 000012 F33D          AND.W     #65535,r13            ; [] |348| 
     718 000014 F33E          AND.W     #65535,r14            ; [] |348| 
     719 000016 F03F          AND.W     #15,r15               ; [] |348| 
         000018 000F 
     720 00001a 930F          TST.W     r15                   ; [] |348| 
     721 00001c 2006          JNE       $C$L11                ; [] |348| 
     722                                                      ; [] |348| 
     723            ;* --------------------------------------------------------------------------*
     724 00001e 930E          TST.W     r14                   ; [] |348| 
     725 000020 2004          JNE       $C$L11                ; [] |348| 
     726                                                      ; [] |348| 
     727            ;* --------------------------------------------------------------------------*
     728 000022 930D          TST.W     r13                   ; [] |348| 
     729 000024 2002          JNE       $C$L11                ; [] |348| 
     730                                                      ; [] |348| 
     731            ;* --------------------------------------------------------------------------*
     732 000026 930C          TST.W     r12                   ; [] |348| 
     733 000028 2401          JEQ       $C$L12                ; [] |348| 
     734                                                      ; [] |348| 
     735            ;* --------------------------------------------------------------------------*
     736 00002a       $C$L11:    
     737 00002a 431B          MOV.W     #1,r11                ; [] |348| 
     738            ;* --------------------------------------------------------------------------*
     739 00002c       $C$L12:    
     740 00002c 0BCC          MOVA      r11,r12               ; [] |348| 
     741                    .dwpsn  file "C:/ti/ccs1110/ccs/tools/compiler/ti-cgt-msp430_21.6.1.LTS/include/_defs.h",line 
     742 00002e 160A          POPM.A    #1,r10                ; [] 
     743                    .dwcfi  restore_reg, 10
     744                    .dwcfi  cfa_offset, 4
     745            $C$DW$36        .dwtag  DW_TAG_TI_branch
     746                    .dwattr $C$DW$36, DW_AT_low_pc(0x00)
     747                    .dwattr $C$DW$36, DW_AT_TI_return
     748            
     749 000030 0110          RETA      ; [] 
     750                    ; [] 
     751                    .dwattr $C$DW$34, DW_AT_TI_end_file("C:/ti/ccs1110/ccs/tools/compiler/ti-cgt-msp430_21.6.1.LTS
MSP430 Assembler PC v21.6.1 Tue Dec 20 13:45:56 2022

Copyright (c) 2003-2018 Texas Instruments Incorporated
ADC ISR G.asm                                                        PAGE   15

     752                    .dwattr $C$DW$34, DW_AT_TI_end_line(0x15d)
     753                    .dwattr $C$DW$34, DW_AT_TI_end_column(0x30)
     754                    .dwendentry
     755                    .dwendtag $C$DW$34
     756            
     757 000000               .sect   ".text:__isnanf"
     758                    .clink
     759                    .global __isnanf
     760            
     761            $C$DW$37        .dwtag  DW_TAG_subprogram
     762                    .dwattr $C$DW$37, DW_AT_name("__isnanf")
     763                    .dwattr $C$DW$37, DW_AT_low_pc(__isnanf)
     764                    .dwattr $C$DW$37, DW_AT_high_pc(0x00)
     765                    .dwattr $C$DW$37, DW_AT_TI_symbol_name("__isnanf")
     766                    .dwattr $C$DW$37, DW_AT_external
     767                    .dwattr $C$DW$37, DW_AT_type(*$C$DW$T$10)
     768                    .dwattr $C$DW$37, DW_AT_TI_begin_file("C:/ti/ccs1110/ccs/tools/compiler/ti-cgt-msp430_21.6.1.L
     769                    .dwattr $C$DW$37, DW_AT_TI_begin_line(0x158)
     770                    .dwattr $C$DW$37, DW_AT_TI_begin_column(0x25)
     771                    .dwattr $C$DW$37, DW_AT_decl_file("C:/ti/ccs1110/ccs/tools/compiler/ti-cgt-msp430_21.6.1.LTS/i
     772                    .dwattr $C$DW$37, DW_AT_decl_line(0x158)
     773                    .dwattr $C$DW$37, DW_AT_decl_column(0x25)
     774                    .dwattr $C$DW$37, DW_AT_TI_max_frame_size(0x04)
     775                    .dwpsn  file "C:/ti/ccs1110/ccs/tools/compiler/ti-cgt-msp430_21.6.1.LTS/include/_defs.h",line 
     776            
     777                    .dwfde $C$DW$CIE, __isnanf
     778            $C$DW$38        .dwtag  DW_TAG_formal_parameter
     779                    .dwattr $C$DW$38, DW_AT_name("f")
     780                    .dwattr $C$DW$38, DW_AT_TI_symbol_name("f")
     781                    .dwattr $C$DW$38, DW_AT_type(*$C$DW$T$16)
     782                    .dwattr $C$DW$38, DW_AT_location[DW_OP_reg12 DW_OP_piece 2 DW_OP_reg13 DW_OP_piece 2]
     783            
     784            
     785            ;*****************************************************************************
     786            ;* FUNCTION NAME: __isnanf                                                   *
     787            ;*                                                                           *
     788            ;*   Regs Modified     : SP,SR,r12,r13,r14,r15                               *
     789            ;*   Regs Used         : SP,SR,r12,r13,r14,r15                               *
     790            ;*   Local Frame Size  : 0 Args + 0 Auto + 0 Save = 0 byte                   *
     791            ;*****************************************************************************
     792 000000       __isnanf:
     793            ;* --------------------------------------------------------------------------*
     794                    .dwcfi  cfa_offset, 4
     795                    .dwcfi  save_reg_to_mem, 16, -4
     796            ;* r15   assigned to $O$S1
     797                    .dwpsn  file "C:/ti/ccs1110/ccs/tools/compiler/ti-cgt-msp430_21.6.1.LTS/include/_defs.h",line 
     798 000000 430F          MOV.W     #0,r15                ; [] |345| 
     799 000002 0DCE          MOVA      r13,r14               ; [] |345| 
     800 000004 F03E          AND.W     #32640,r14            ; [] |345| 
         000006 7F80 
     801 000008 903E          CMP.W     #32640,r14            ; [] |345| 
         00000a 7F80 
     802 00000c 2008          JNE       $C$L14                ; [] |345| 
     803                                                      ; [] |345| 
     804            ;* --------------------------------------------------------------------------*
MSP430 Assembler PC v21.6.1 Tue Dec 20 13:45:56 2022

Copyright (c) 2003-2018 Texas Instruments Incorporated
ADC ISR G.asm                                                        PAGE   16

     805 00000e F33C          AND.W     #65535,r12            ; [] |345| 
     806 000010 F03D          AND.W     #127,r13              ; [] |345| 
         000012 007F 
     807 000014 930D          TST.W     r13                   ; [] |345| 
     808 000016 2002          JNE       $C$L13                ; [] |345| 
     809                                                      ; [] |345| 
     810            ;* --------------------------------------------------------------------------*
     811 000018 930C          TST.W     r12                   ; [] |345| 
     812 00001a 2401          JEQ       $C$L14                ; [] |345| 
     813                                                      ; [] |345| 
     814            ;* --------------------------------------------------------------------------*
     815 00001c       $C$L13:    
     816 00001c 431F          MOV.W     #1,r15                ; [] |345| 
     817            ;* --------------------------------------------------------------------------*
     818 00001e       $C$L14:    
     819 00001e 0FCC          MOVA      r15,r12               ; [] |345| 
     820                    .dwpsn  file "C:/ti/ccs1110/ccs/tools/compiler/ti-cgt-msp430_21.6.1.LTS/include/_defs.h",line 
     821            $C$DW$39        .dwtag  DW_TAG_TI_branch
     822                    .dwattr $C$DW$39, DW_AT_low_pc(0x00)
     823                    .dwattr $C$DW$39, DW_AT_TI_return
     824            
     825 000020 0110          RETA      ; [] 
     826                    ; [] 
     827                    .dwattr $C$DW$37, DW_AT_TI_end_file("C:/ti/ccs1110/ccs/tools/compiler/ti-cgt-msp430_21.6.1.LTS
     828                    .dwattr $C$DW$37, DW_AT_TI_end_line(0x15a)
     829                    .dwattr $C$DW$37, DW_AT_TI_end_column(0x2e)
     830                    .dwendentry
     831                    .dwendtag $C$DW$37
     832            
     833 000000               .sect   ".text:__isnan"
     834                    .clink
     835                    .global __isnan
     836            
     837            $C$DW$40        .dwtag  DW_TAG_subprogram
     838                    .dwattr $C$DW$40, DW_AT_name("__isnan")
     839                    .dwattr $C$DW$40, DW_AT_low_pc(__isnan)
     840                    .dwattr $C$DW$40, DW_AT_high_pc(0x00)
     841                    .dwattr $C$DW$40, DW_AT_TI_symbol_name("__isnan")
     842                    .dwattr $C$DW$40, DW_AT_external
     843                    .dwattr $C$DW$40, DW_AT_type(*$C$DW$T$10)
     844                    .dwattr $C$DW$40, DW_AT_TI_begin_file("C:/ti/ccs1110/ccs/tools/compiler/ti-cgt-msp430_21.6.1.L
     845                    .dwattr $C$DW$40, DW_AT_TI_begin_line(0x155)
     846                    .dwattr $C$DW$40, DW_AT_TI_begin_column(0x25)
     847                    .dwattr $C$DW$40, DW_AT_decl_file("C:/ti/ccs1110/ccs/tools/compiler/ti-cgt-msp430_21.6.1.LTS/i
     848                    .dwattr $C$DW$40, DW_AT_decl_line(0x155)
     849                    .dwattr $C$DW$40, DW_AT_decl_column(0x25)
     850                    .dwattr $C$DW$40, DW_AT_TI_max_frame_size(0x08)
     851                    .dwpsn  file "C:/ti/ccs1110/ccs/tools/compiler/ti-cgt-msp430_21.6.1.LTS/include/_defs.h",line 
     852            
     853                    .dwfde $C$DW$CIE, __isnan
     854            $C$DW$41        .dwtag  DW_TAG_formal_parameter
     855                    .dwattr $C$DW$41, DW_AT_name("d")
     856                    .dwattr $C$DW$41, DW_AT_TI_symbol_name("d")
     857                    .dwattr $C$DW$41, DW_AT_type(*$C$DW$T$17)
     858                    .dwattr $C$DW$41, DW_AT_location[DW_OP_reg12 DW_OP_piece 2 DW_OP_reg13 DW_OP_piece 2 DW_OP_reg
MSP430 Assembler PC v21.6.1 Tue Dec 20 13:45:56 2022

Copyright (c) 2003-2018 Texas Instruments Incorporated
ADC ISR G.asm                                                        PAGE   17

     859            
     860            
     861            ;*****************************************************************************
     862            ;* FUNCTION NAME: __isnan                                                    *
     863            ;*                                                                           *
     864            ;*   Regs Modified     : SP,SR,r10,r11,r12,r13,r14,r15                       *
     865            ;*   Regs Used         : SP,SR,r10,r11,r12,r13,r14,r15                       *
     866            ;*   Local Frame Size  : 0 Args + 0 Auto + 4 Save = 4 byte                   *
     867            ;*****************************************************************************
     868 000000       __isnan:
     869            ;* --------------------------------------------------------------------------*
     870                    .dwcfi  cfa_offset, 4
     871                    .dwcfi  save_reg_to_mem, 16, -4
     872 000000 140A          PUSHM.A   #1,r10                ; [] 
     873                    .dwcfi  save_reg_to_mem, 10, -8
     874                    .dwcfi  cfa_offset, 8
     875            ;* r11   assigned to $O$S1
     876                    .dwpsn  file "C:/ti/ccs1110/ccs/tools/compiler/ti-cgt-msp430_21.6.1.LTS/include/_defs.h",line 
     877 000002 430B          MOV.W     #0,r11                ; [] |342| 
     878 000004 0FCA          MOVA      r15,r10               ; [] |342| 
     879 000006 F03A          AND.W     #32752,r10            ; [] |342| 
         000008 7FF0 
     880 00000a 903A          CMP.W     #32752,r10            ; [] |342| 
         00000c 7FF0 
     881 00000e 200E          JNE       $C$L16                ; [] |342| 
     882                                                      ; [] |342| 
     883            ;* --------------------------------------------------------------------------*
     884 000010 F33C          AND.W     #65535,r12            ; [] |342| 
     885 000012 F33D          AND.W     #65535,r13            ; [] |342| 
     886 000014 F33E          AND.W     #65535,r14            ; [] |342| 
     887 000016 F03F          AND.W     #15,r15               ; [] |342| 
         000018 000F 
     888 00001a 930F          TST.W     r15                   ; [] |342| 
     889 00001c 2006          JNE       $C$L15                ; [] |342| 
     890                                                      ; [] |342| 
     891            ;* --------------------------------------------------------------------------*
     892 00001e 930E          TST.W     r14                   ; [] |342| 
     893 000020 2004          JNE       $C$L15                ; [] |342| 
     894                                                      ; [] |342| 
     895            ;* --------------------------------------------------------------------------*
     896 000022 930D          TST.W     r13                   ; [] |342| 
     897 000024 2002          JNE       $C$L15                ; [] |342| 
     898                                                      ; [] |342| 
     899            ;* --------------------------------------------------------------------------*
     900 000026 930C          TST.W     r12                   ; [] |342| 
     901 000028 2401          JEQ       $C$L16                ; [] |342| 
     902                                                      ; [] |342| 
     903            ;* --------------------------------------------------------------------------*
     904 00002a       $C$L15:    
     905 00002a 431B          MOV.W     #1,r11                ; [] |342| 
     906            ;* --------------------------------------------------------------------------*
     907 00002c       $C$L16:    
     908 00002c 0BCC          MOVA      r11,r12               ; [] |342| 
     909                    .dwpsn  file "C:/ti/ccs1110/ccs/tools/compiler/ti-cgt-msp430_21.6.1.LTS/include/_defs.h",line 
     910 00002e 160A          POPM.A    #1,r10                ; [] 
MSP430 Assembler PC v21.6.1 Tue Dec 20 13:45:56 2022

Copyright (c) 2003-2018 Texas Instruments Incorporated
ADC ISR G.asm                                                        PAGE   18

     911                    .dwcfi  restore_reg, 10
     912                    .dwcfi  cfa_offset, 4
     913            $C$DW$42        .dwtag  DW_TAG_TI_branch
     914                    .dwattr $C$DW$42, DW_AT_low_pc(0x00)
     915                    .dwattr $C$DW$42, DW_AT_TI_return
     916            
     917 000030 0110          RETA      ; [] 
     918                    ; [] 
     919                    .dwattr $C$DW$40, DW_AT_TI_end_file("C:/ti/ccs1110/ccs/tools/compiler/ti-cgt-msp430_21.6.1.LTS
     920                    .dwattr $C$DW$40, DW_AT_TI_end_line(0x157)
     921                    .dwattr $C$DW$40, DW_AT_TI_end_column(0x2f)
     922                    .dwendentry
     923                    .dwendtag $C$DW$40
     924            
     925 000000               .sect   ".text:__isinfl"
     926                    .clink
     927                    .global __isinfl
     928            
     929            $C$DW$43        .dwtag  DW_TAG_subprogram
     930                    .dwattr $C$DW$43, DW_AT_name("__isinfl")
     931                    .dwattr $C$DW$43, DW_AT_low_pc(__isinfl)
     932                    .dwattr $C$DW$43, DW_AT_high_pc(0x00)
     933                    .dwattr $C$DW$43, DW_AT_TI_symbol_name("__isinfl")
     934                    .dwattr $C$DW$43, DW_AT_external
     935                    .dwattr $C$DW$43, DW_AT_type(*$C$DW$T$10)
     936                    .dwattr $C$DW$43, DW_AT_TI_begin_file("C:/ti/ccs1110/ccs/tools/compiler/ti-cgt-msp430_21.6.1.L
     937                    .dwattr $C$DW$43, DW_AT_TI_begin_line(0x17a)
     938                    .dwattr $C$DW$43, DW_AT_TI_begin_column(0x25)
     939                    .dwattr $C$DW$43, DW_AT_decl_file("C:/ti/ccs1110/ccs/tools/compiler/ti-cgt-msp430_21.6.1.LTS/i
     940                    .dwattr $C$DW$43, DW_AT_decl_line(0x17a)
     941                    .dwattr $C$DW$43, DW_AT_decl_column(0x25)
     942                    .dwattr $C$DW$43, DW_AT_TI_max_frame_size(0x08)
     943                    .dwpsn  file "C:/ti/ccs1110/ccs/tools/compiler/ti-cgt-msp430_21.6.1.LTS/include/_defs.h",line 
     944            
     945                    .dwfde $C$DW$CIE, __isinfl
     946            $C$DW$44        .dwtag  DW_TAG_formal_parameter
     947                    .dwattr $C$DW$44, DW_AT_name("e")
     948                    .dwattr $C$DW$44, DW_AT_TI_symbol_name("e")
     949                    .dwattr $C$DW$44, DW_AT_type(*$C$DW$T$18)
     950                    .dwattr $C$DW$44, DW_AT_location[DW_OP_reg12 DW_OP_piece 2 DW_OP_reg13 DW_OP_piece 2 DW_OP_reg
     951            
     952            
     953            ;*****************************************************************************
     954            ;* FUNCTION NAME: __isinfl                                                   *
     955            ;*                                                                           *
     956            ;*   Regs Modified     : SP,SR,r10,r11,r12,r13,r14,r15                       *
     957            ;*   Regs Used         : SP,SR,r10,r11,r12,r13,r14,r15                       *
     958            ;*   Local Frame Size  : 0 Args + 0 Auto + 4 Save = 4 byte                   *
     959            ;*****************************************************************************
     960 000000       __isinfl:
     961            ;* --------------------------------------------------------------------------*
     962                    .dwcfi  cfa_offset, 4
     963                    .dwcfi  save_reg_to_mem, 16, -4
     964 000000 140A          PUSHM.A   #1,r10                ; [] 
     965                    .dwcfi  save_reg_to_mem, 10, -8
MSP430 Assembler PC v21.6.1 Tue Dec 20 13:45:56 2022

Copyright (c) 2003-2018 Texas Instruments Incorporated
ADC ISR G.asm                                                        PAGE   19

     966                    .dwcfi  cfa_offset, 8
     967            ;* r11   assigned to $O$S1
     968                    .dwpsn  file "C:/ti/ccs1110/ccs/tools/compiler/ti-cgt-msp430_21.6.1.LTS/include/_defs.h",line 
     969 000002 430B          MOV.W     #0,r11                ; [] |379| 
     970 000004 0FCA          MOVA      r15,r10               ; [] |379| 
     971 000006 F03A          AND.W     #32752,r10            ; [] |379| 
         000008 7FF0 
     972 00000a 903A          CMP.W     #32752,r10            ; [] |379| 
         00000c 7FF0 
     973 00000e 200E          JNE       $C$L17                ; [] |379| 
     974                                                      ; [] |379| 
     975            ;* --------------------------------------------------------------------------*
     976 000010 F33C          AND.W     #65535,r12            ; [] |379| 
     977 000012 F33D          AND.W     #65535,r13            ; [] |379| 
     978 000014 F33E          AND.W     #65535,r14            ; [] |379| 
     979 000016 F03F          AND.W     #15,r15               ; [] |379| 
         000018 000F 
     980 00001a 930F          TST.W     r15                   ; [] |379| 
     981 00001c 2007          JNE       $C$L17                ; [] |379| 
     982                                                      ; [] |379| 
     983            ;* --------------------------------------------------------------------------*
     984 00001e 930E          TST.W     r14                   ; [] |379| 
     985 000020 2005          JNE       $C$L17                ; [] |379| 
     986                                                      ; [] |379| 
     987            ;* --------------------------------------------------------------------------*
     988 000022 930D          TST.W     r13                   ; [] |379| 
     989 000024 2003          JNE       $C$L17                ; [] |379| 
     990                                                      ; [] |379| 
     991            ;* --------------------------------------------------------------------------*
     992 000026 930C          TST.W     r12                   ; [] |379| 
     993 000028 2001          JNE       $C$L17                ; [] |379| 
     994                                                      ; [] |379| 
     995            ;* --------------------------------------------------------------------------*
     996 00002a 431B          MOV.W     #1,r11                ; [] |379| 
     997            ;* --------------------------------------------------------------------------*
     998 00002c       $C$L17:    
     999 00002c 0BCC          MOVA      r11,r12               ; [] |379| 
    1000                    .dwpsn  file "C:/ti/ccs1110/ccs/tools/compiler/ti-cgt-msp430_21.6.1.LTS/include/_defs.h",line 
    1001 00002e 160A          POPM.A    #1,r10                ; [] 
    1002                    .dwcfi  restore_reg, 10
    1003                    .dwcfi  cfa_offset, 4
    1004            $C$DW$45        .dwtag  DW_TAG_TI_branch
    1005                    .dwattr $C$DW$45, DW_AT_low_pc(0x00)
    1006                    .dwattr $C$DW$45, DW_AT_TI_return
    1007            
    1008 000030 0110          RETA      ; [] 
    1009                    ; [] 
    1010                    .dwattr $C$DW$43, DW_AT_TI_end_file("C:/ti/ccs1110/ccs/tools/compiler/ti-cgt-msp430_21.6.1.LTS
    1011                    .dwattr $C$DW$43, DW_AT_TI_end_line(0x17b)
    1012                    .dwattr $C$DW$43, DW_AT_TI_end_column(0x4c)
    1013                    .dwendentry
    1014                    .dwendtag $C$DW$43
    1015            
    1016 000000               .sect   ".text:__isinff"
    1017                    .clink
MSP430 Assembler PC v21.6.1 Tue Dec 20 13:45:56 2022

Copyright (c) 2003-2018 Texas Instruments Incorporated
ADC ISR G.asm                                                        PAGE   20

    1018                    .global __isinff
    1019            
    1020            $C$DW$46        .dwtag  DW_TAG_subprogram
    1021                    .dwattr $C$DW$46, DW_AT_name("__isinff")
    1022                    .dwattr $C$DW$46, DW_AT_low_pc(__isinff)
    1023                    .dwattr $C$DW$46, DW_AT_high_pc(0x00)
    1024                    .dwattr $C$DW$46, DW_AT_TI_symbol_name("__isinff")
    1025                    .dwattr $C$DW$46, DW_AT_external
    1026                    .dwattr $C$DW$46, DW_AT_type(*$C$DW$T$10)
    1027                    .dwattr $C$DW$46, DW_AT_TI_begin_file("C:/ti/ccs1110/ccs/tools/compiler/ti-cgt-msp430_21.6.1.L
    1028                    .dwattr $C$DW$46, DW_AT_TI_begin_line(0x176)
    1029                    .dwattr $C$DW$46, DW_AT_TI_begin_column(0x25)
    1030                    .dwattr $C$DW$46, DW_AT_decl_file("C:/ti/ccs1110/ccs/tools/compiler/ti-cgt-msp430_21.6.1.LTS/i
    1031                    .dwattr $C$DW$46, DW_AT_decl_line(0x176)
    1032                    .dwattr $C$DW$46, DW_AT_decl_column(0x25)
    1033                    .dwattr $C$DW$46, DW_AT_TI_max_frame_size(0x04)
    1034                    .dwpsn  file "C:/ti/ccs1110/ccs/tools/compiler/ti-cgt-msp430_21.6.1.LTS/include/_defs.h",line 
    1035            
    1036                    .dwfde $C$DW$CIE, __isinff
    1037            $C$DW$47        .dwtag  DW_TAG_formal_parameter
    1038                    .dwattr $C$DW$47, DW_AT_name("f")
    1039                    .dwattr $C$DW$47, DW_AT_TI_symbol_name("f")
    1040                    .dwattr $C$DW$47, DW_AT_type(*$C$DW$T$16)
    1041                    .dwattr $C$DW$47, DW_AT_location[DW_OP_reg12 DW_OP_piece 2 DW_OP_reg13 DW_OP_piece 2]
    1042            
    1043            
    1044            ;*****************************************************************************
    1045            ;* FUNCTION NAME: __isinff                                                   *
    1046            ;*                                                                           *
    1047            ;*   Regs Modified     : SP,SR,r12,r13,r14,r15                               *
    1048            ;*   Regs Used         : SP,SR,r12,r13,r14,r15                               *
    1049            ;*   Local Frame Size  : 0 Args + 0 Auto + 0 Save = 0 byte                   *
    1050            ;*****************************************************************************
    1051 000000       __isinff:
    1052            ;* --------------------------------------------------------------------------*
    1053                    .dwcfi  cfa_offset, 4
    1054                    .dwcfi  save_reg_to_mem, 16, -4
    1055            ;* r15   assigned to $O$S1
    1056                    .dwpsn  file "C:/ti/ccs1110/ccs/tools/compiler/ti-cgt-msp430_21.6.1.LTS/include/_defs.h",line 
    1057 000000 430F          MOV.W     #0,r15                ; [] |375| 
    1058 000002 0DCE          MOVA      r13,r14               ; [] |375| 
    1059 000004 F03E          AND.W     #32640,r14            ; [] |375| 
         000006 7F80 
    1060 000008 903E          CMP.W     #32640,r14            ; [] |375| 
         00000a 7F80 
    1061 00000c 2008          JNE       $C$L18                ; [] |375| 
    1062                                                      ; [] |375| 
    1063            ;* --------------------------------------------------------------------------*
    1064 00000e F33C          AND.W     #65535,r12            ; [] |375| 
    1065 000010 F03D          AND.W     #127,r13              ; [] |375| 
         000012 007F 
    1066 000014 930D          TST.W     r13                   ; [] |375| 
    1067 000016 2003          JNE       $C$L18                ; [] |375| 
    1068                                                      ; [] |375| 
    1069            ;* --------------------------------------------------------------------------*
MSP430 Assembler PC v21.6.1 Tue Dec 20 13:45:56 2022

Copyright (c) 2003-2018 Texas Instruments Incorporated
ADC ISR G.asm                                                        PAGE   21

    1070 000018 930C          TST.W     r12                   ; [] |375| 
    1071 00001a 2001          JNE       $C$L18                ; [] |375| 
    1072                                                      ; [] |375| 
    1073            ;* --------------------------------------------------------------------------*
    1074 00001c 431F          MOV.W     #1,r15                ; [] |375| 
    1075            ;* --------------------------------------------------------------------------*
    1076 00001e       $C$L18:    
    1077 00001e 0FCC          MOVA      r15,r12               ; [] |375| 
    1078                    .dwpsn  file "C:/ti/ccs1110/ccs/tools/compiler/ti-cgt-msp430_21.6.1.LTS/include/_defs.h",line 
    1079            $C$DW$48        .dwtag  DW_TAG_TI_branch
    1080                    .dwattr $C$DW$48, DW_AT_low_pc(0x00)
    1081                    .dwattr $C$DW$48, DW_AT_TI_return
    1082            
    1083 000020 0110          RETA      ; [] 
    1084                    ; [] 
    1085                    .dwattr $C$DW$46, DW_AT_TI_end_file("C:/ti/ccs1110/ccs/tools/compiler/ti-cgt-msp430_21.6.1.LTS
    1086                    .dwattr $C$DW$46, DW_AT_TI_end_line(0x177)
    1087                    .dwattr $C$DW$46, DW_AT_TI_end_column(0x48)
    1088                    .dwendentry
    1089                    .dwendtag $C$DW$46
    1090            
    1091 000000               .sect   ".text:__isinf"
    1092                    .clink
    1093                    .global __isinf
    1094            
    1095            $C$DW$49        .dwtag  DW_TAG_subprogram
    1096                    .dwattr $C$DW$49, DW_AT_name("__isinf")
    1097                    .dwattr $C$DW$49, DW_AT_low_pc(__isinf)
    1098                    .dwattr $C$DW$49, DW_AT_high_pc(0x00)
    1099                    .dwattr $C$DW$49, DW_AT_TI_symbol_name("__isinf")
    1100                    .dwattr $C$DW$49, DW_AT_external
    1101                    .dwattr $C$DW$49, DW_AT_type(*$C$DW$T$10)
    1102                    .dwattr $C$DW$49, DW_AT_TI_begin_file("C:/ti/ccs1110/ccs/tools/compiler/ti-cgt-msp430_21.6.1.L
    1103                    .dwattr $C$DW$49, DW_AT_TI_begin_line(0x178)
    1104                    .dwattr $C$DW$49, DW_AT_TI_begin_column(0x25)
    1105                    .dwattr $C$DW$49, DW_AT_decl_file("C:/ti/ccs1110/ccs/tools/compiler/ti-cgt-msp430_21.6.1.LTS/i
    1106                    .dwattr $C$DW$49, DW_AT_decl_line(0x178)
    1107                    .dwattr $C$DW$49, DW_AT_decl_column(0x25)
    1108                    .dwattr $C$DW$49, DW_AT_TI_max_frame_size(0x08)
    1109                    .dwpsn  file "C:/ti/ccs1110/ccs/tools/compiler/ti-cgt-msp430_21.6.1.LTS/include/_defs.h",line 
    1110            
    1111                    .dwfde $C$DW$CIE, __isinf
    1112            $C$DW$50        .dwtag  DW_TAG_formal_parameter
    1113                    .dwattr $C$DW$50, DW_AT_name("d")
    1114                    .dwattr $C$DW$50, DW_AT_TI_symbol_name("d")
    1115                    .dwattr $C$DW$50, DW_AT_type(*$C$DW$T$17)
    1116                    .dwattr $C$DW$50, DW_AT_location[DW_OP_reg12 DW_OP_piece 2 DW_OP_reg13 DW_OP_piece 2 DW_OP_reg
    1117            
    1118            
    1119            ;*****************************************************************************
    1120            ;* FUNCTION NAME: __isinf                                                    *
    1121            ;*                                                                           *
    1122            ;*   Regs Modified     : SP,SR,r10,r11,r12,r13,r14,r15                       *
    1123            ;*   Regs Used         : SP,SR,r10,r11,r12,r13,r14,r15                       *
    1124            ;*   Local Frame Size  : 0 Args + 0 Auto + 4 Save = 4 byte                   *
MSP430 Assembler PC v21.6.1 Tue Dec 20 13:45:56 2022

Copyright (c) 2003-2018 Texas Instruments Incorporated
ADC ISR G.asm                                                        PAGE   22

    1125            ;*****************************************************************************
    1126 000000       __isinf:
    1127            ;* --------------------------------------------------------------------------*
    1128                    .dwcfi  cfa_offset, 4
    1129                    .dwcfi  save_reg_to_mem, 16, -4
    1130 000000 140A          PUSHM.A   #1,r10                ; [] 
    1131                    .dwcfi  save_reg_to_mem, 10, -8
    1132                    .dwcfi  cfa_offset, 8
    1133            ;* r11   assigned to $O$S1
    1134                    .dwpsn  file "C:/ti/ccs1110/ccs/tools/compiler/ti-cgt-msp430_21.6.1.LTS/include/_defs.h",line 
    1135 000002 430B          MOV.W     #0,r11                ; [] |377| 
    1136 000004 0FCA          MOVA      r15,r10               ; [] |377| 
    1137 000006 F03A          AND.W     #32752,r10            ; [] |377| 
         000008 7FF0 
    1138 00000a 903A          CMP.W     #32752,r10            ; [] |377| 
         00000c 7FF0 
    1139 00000e 200E          JNE       $C$L19                ; [] |377| 
    1140                                                      ; [] |377| 
    1141            ;* --------------------------------------------------------------------------*
    1142 000010 F33C          AND.W     #65535,r12            ; [] |377| 
    1143 000012 F33D          AND.W     #65535,r13            ; [] |377| 
    1144 000014 F33E          AND.W     #65535,r14            ; [] |377| 
    1145 000016 F03F          AND.W     #15,r15               ; [] |377| 
         000018 000F 
    1146 00001a 930F          TST.W     r15                   ; [] |377| 
    1147 00001c 2007          JNE       $C$L19                ; [] |377| 
    1148                                                      ; [] |377| 
    1149            ;* --------------------------------------------------------------------------*
    1150 00001e 930E          TST.W     r14                   ; [] |377| 
    1151 000020 2005          JNE       $C$L19                ; [] |377| 
    1152                                                      ; [] |377| 
    1153            ;* --------------------------------------------------------------------------*
    1154 000022 930D          TST.W     r13                   ; [] |377| 
    1155 000024 2003          JNE       $C$L19                ; [] |377| 
    1156                                                      ; [] |377| 
    1157            ;* --------------------------------------------------------------------------*
    1158 000026 930C          TST.W     r12                   ; [] |377| 
    1159 000028 2001          JNE       $C$L19                ; [] |377| 
    1160                                                      ; [] |377| 
    1161            ;* --------------------------------------------------------------------------*
    1162 00002a 431B          MOV.W     #1,r11                ; [] |377| 
    1163            ;* --------------------------------------------------------------------------*
    1164 00002c       $C$L19:    
    1165 00002c 0BCC          MOVA      r11,r12               ; [] |377| 
    1166                    .dwpsn  file "C:/ti/ccs1110/ccs/tools/compiler/ti-cgt-msp430_21.6.1.LTS/include/_defs.h",line 
    1167 00002e 160A          POPM.A    #1,r10                ; [] 
    1168                    .dwcfi  restore_reg, 10
    1169                    .dwcfi  cfa_offset, 4
    1170            $C$DW$51        .dwtag  DW_TAG_TI_branch
    1171                    .dwattr $C$DW$51, DW_AT_low_pc(0x00)
    1172                    .dwattr $C$DW$51, DW_AT_TI_return
    1173            
    1174 000030 0110          RETA      ; [] 
    1175                    ; [] 
    1176                    .dwattr $C$DW$49, DW_AT_TI_end_file("C:/ti/ccs1110/ccs/tools/compiler/ti-cgt-msp430_21.6.1.LTS
MSP430 Assembler PC v21.6.1 Tue Dec 20 13:45:56 2022

Copyright (c) 2003-2018 Texas Instruments Incorporated
ADC ISR G.asm                                                        PAGE   23

    1177                    .dwattr $C$DW$49, DW_AT_TI_end_line(0x179)
    1178                    .dwattr $C$DW$49, DW_AT_TI_end_column(0x4a)
    1179                    .dwendentry
    1180                    .dwendtag $C$DW$49
    1181            
    1182 000000               .sect   ".text:__isfinitel"
    1183                    .clink
    1184                    .global __isfinitel
    1185            
    1186            $C$DW$52        .dwtag  DW_TAG_subprogram
    1187                    .dwattr $C$DW$52, DW_AT_name("__isfinitel")
    1188                    .dwattr $C$DW$52, DW_AT_low_pc(__isfinitel)
    1189                    .dwattr $C$DW$52, DW_AT_high_pc(0x00)
    1190                    .dwattr $C$DW$52, DW_AT_TI_symbol_name("__isfinitel")
    1191                    .dwattr $C$DW$52, DW_AT_external
    1192                    .dwattr $C$DW$52, DW_AT_type(*$C$DW$T$10)
    1193                    .dwattr $C$DW$52, DW_AT_TI_begin_file("C:/ti/ccs1110/ccs/tools/compiler/ti-cgt-msp430_21.6.1.L
    1194                    .dwattr $C$DW$52, DW_AT_TI_begin_line(0x152)
    1195                    .dwattr $C$DW$52, DW_AT_TI_begin_column(0x25)
    1196                    .dwattr $C$DW$52, DW_AT_decl_file("C:/ti/ccs1110/ccs/tools/compiler/ti-cgt-msp430_21.6.1.LTS/i
    1197                    .dwattr $C$DW$52, DW_AT_decl_line(0x152)
    1198                    .dwattr $C$DW$52, DW_AT_decl_column(0x25)
    1199                    .dwattr $C$DW$52, DW_AT_TI_max_frame_size(0x04)
    1200                    .dwpsn  file "C:/ti/ccs1110/ccs/tools/compiler/ti-cgt-msp430_21.6.1.LTS/include/_defs.h",line 
    1201            
    1202                    .dwfde $C$DW$CIE, __isfinitel
    1203            $C$DW$53        .dwtag  DW_TAG_formal_parameter
    1204                    .dwattr $C$DW$53, DW_AT_name("e")
    1205                    .dwattr $C$DW$53, DW_AT_TI_symbol_name("e")
    1206                    .dwattr $C$DW$53, DW_AT_type(*$C$DW$T$18)
    1207                    .dwattr $C$DW$53, DW_AT_location[DW_OP_reg12 DW_OP_piece 2 DW_OP_reg13 DW_OP_piece 2 DW_OP_reg
    1208            
    1209            
    1210            ;*****************************************************************************
    1211            ;* FUNCTION NAME: __isfinitel                                                *
    1212            ;*                                                                           *
    1213            ;*   Regs Modified     : SP,SR,r12,r15                                       *
    1214            ;*   Regs Used         : SP,SR,r12,r15                                       *
    1215            ;*   Local Frame Size  : 0 Args + 0 Auto + 0 Save = 0 byte                   *
    1216            ;*****************************************************************************
    1217 000000       __isfinitel:
    1218            ;* --------------------------------------------------------------------------*
    1219                    .dwcfi  cfa_offset, 4
    1220                    .dwcfi  save_reg_to_mem, 16, -4
    1221                    .dwpsn  file "C:/ti/ccs1110/ccs/tools/compiler/ti-cgt-msp430_21.6.1.LTS/include/_defs.h",line 
    1222 000000 430C          MOV.W     #0,r12                ; [] |339| 
    1223 000002 F03F          AND.W     #32752,r15            ; [] |339| 
         000004 7FF0 
    1224 000006 903F          CMP.W     #32752,r15            ; [] |339| 
         000008 7FF0 
    1225 00000a 2401          JEQ       $C$L20                ; [] |339| 
    1226                                                      ; [] |339| 
    1227            ;* --------------------------------------------------------------------------*
    1228 00000c 431C          MOV.W     #1,r12                ; [] |339| 
    1229            ;* --------------------------------------------------------------------------*
MSP430 Assembler PC v21.6.1 Tue Dec 20 13:45:56 2022

Copyright (c) 2003-2018 Texas Instruments Incorporated
ADC ISR G.asm                                                        PAGE   24

    1230 00000e       $C$L20:    
    1231                    .dwpsn  file "C:/ti/ccs1110/ccs/tools/compiler/ti-cgt-msp430_21.6.1.LTS/include/_defs.h",line 
    1232            $C$DW$54        .dwtag  DW_TAG_TI_branch
    1233                    .dwattr $C$DW$54, DW_AT_low_pc(0x00)
    1234                    .dwattr $C$DW$54, DW_AT_TI_return
    1235            
    1236 00000e 0110          RETA      ; [] 
    1237                    ; [] 
    1238                    .dwattr $C$DW$52, DW_AT_TI_end_file("C:/ti/ccs1110/ccs/tools/compiler/ti-cgt-msp430_21.6.1.LTS
    1239                    .dwattr $C$DW$52, DW_AT_TI_end_line(0x153)
    1240                    .dwattr $C$DW$52, DW_AT_TI_end_column(0x2f)
    1241                    .dwendentry
    1242                    .dwendtag $C$DW$52
    1243            
    1244 000000               .sect   ".text:__isfinitef"
    1245                    .clink
    1246                    .global __isfinitef
    1247            
    1248            $C$DW$55        .dwtag  DW_TAG_subprogram
    1249                    .dwattr $C$DW$55, DW_AT_name("__isfinitef")
    1250                    .dwattr $C$DW$55, DW_AT_low_pc(__isfinitef)
    1251                    .dwattr $C$DW$55, DW_AT_high_pc(0x00)
    1252                    .dwattr $C$DW$55, DW_AT_TI_symbol_name("__isfinitef")
    1253                    .dwattr $C$DW$55, DW_AT_external
    1254                    .dwattr $C$DW$55, DW_AT_type(*$C$DW$T$10)
    1255                    .dwattr $C$DW$55, DW_AT_TI_begin_file("C:/ti/ccs1110/ccs/tools/compiler/ti-cgt-msp430_21.6.1.L
    1256                    .dwattr $C$DW$55, DW_AT_TI_begin_line(0x150)
    1257                    .dwattr $C$DW$55, DW_AT_TI_begin_column(0x25)
    1258                    .dwattr $C$DW$55, DW_AT_decl_file("C:/ti/ccs1110/ccs/tools/compiler/ti-cgt-msp430_21.6.1.LTS/i
    1259                    .dwattr $C$DW$55, DW_AT_decl_line(0x150)
    1260                    .dwattr $C$DW$55, DW_AT_decl_column(0x25)
    1261                    .dwattr $C$DW$55, DW_AT_TI_max_frame_size(0x04)
    1262                    .dwpsn  file "C:/ti/ccs1110/ccs/tools/compiler/ti-cgt-msp430_21.6.1.LTS/include/_defs.h",line 
    1263            
    1264                    .dwfde $C$DW$CIE, __isfinitef
    1265            $C$DW$56        .dwtag  DW_TAG_formal_parameter
    1266                    .dwattr $C$DW$56, DW_AT_name("f")
    1267                    .dwattr $C$DW$56, DW_AT_TI_symbol_name("f")
    1268                    .dwattr $C$DW$56, DW_AT_type(*$C$DW$T$16)
    1269                    .dwattr $C$DW$56, DW_AT_location[DW_OP_reg12 DW_OP_piece 2 DW_OP_reg13 DW_OP_piece 2]
    1270            
    1271            
    1272            ;*****************************************************************************
    1273            ;* FUNCTION NAME: __isfinitef                                                *
    1274            ;*                                                                           *
    1275            ;*   Regs Modified     : SP,SR,r12,r13                                       *
    1276            ;*   Regs Used         : SP,SR,r12,r13                                       *
    1277            ;*   Local Frame Size  : 0 Args + 0 Auto + 0 Save = 0 byte                   *
    1278            ;*****************************************************************************
    1279 000000       __isfinitef:
    1280            ;* --------------------------------------------------------------------------*
    1281                    .dwcfi  cfa_offset, 4
    1282                    .dwcfi  save_reg_to_mem, 16, -4
    1283                    .dwpsn  file "C:/ti/ccs1110/ccs/tools/compiler/ti-cgt-msp430_21.6.1.LTS/include/_defs.h",line 
    1284 000000 430C          MOV.W     #0,r12                ; [] |337| 
MSP430 Assembler PC v21.6.1 Tue Dec 20 13:45:56 2022

Copyright (c) 2003-2018 Texas Instruments Incorporated
ADC ISR G.asm                                                        PAGE   25

    1285 000002 F03D          AND.W     #32640,r13            ; [] |337| 
         000004 7F80 
    1286 000006 903D          CMP.W     #32640,r13            ; [] |337| 
         000008 7F80 
    1287 00000a 2401          JEQ       $C$L21                ; [] |337| 
    1288                                                      ; [] |337| 
    1289            ;* --------------------------------------------------------------------------*
    1290 00000c 431C          MOV.W     #1,r12                ; [] |337| 
    1291            ;* --------------------------------------------------------------------------*
    1292 00000e       $C$L21:    
    1293                    .dwpsn  file "C:/ti/ccs1110/ccs/tools/compiler/ti-cgt-msp430_21.6.1.LTS/include/_defs.h",line 
    1294            $C$DW$57        .dwtag  DW_TAG_TI_branch
    1295                    .dwattr $C$DW$57, DW_AT_low_pc(0x00)
    1296                    .dwattr $C$DW$57, DW_AT_TI_return
    1297            
    1298 00000e 0110          RETA      ; [] 
    1299                    ; [] 
    1300                    .dwattr $C$DW$55, DW_AT_TI_end_file("C:/ti/ccs1110/ccs/tools/compiler/ti-cgt-msp430_21.6.1.LTS
    1301                    .dwattr $C$DW$55, DW_AT_TI_end_line(0x151)
    1302                    .dwattr $C$DW$55, DW_AT_TI_end_column(0x2d)
    1303                    .dwendentry
    1304                    .dwendtag $C$DW$55
    1305            
    1306 000000               .sect   ".text:__isfinite"
    1307                    .clink
    1308                    .global __isfinite
    1309            
    1310            $C$DW$58        .dwtag  DW_TAG_subprogram
    1311                    .dwattr $C$DW$58, DW_AT_name("__isfinite")
    1312                    .dwattr $C$DW$58, DW_AT_low_pc(__isfinite)
    1313                    .dwattr $C$DW$58, DW_AT_high_pc(0x00)
    1314                    .dwattr $C$DW$58, DW_AT_TI_symbol_name("__isfinite")
    1315                    .dwattr $C$DW$58, DW_AT_external
    1316                    .dwattr $C$DW$58, DW_AT_type(*$C$DW$T$10)
    1317                    .dwattr $C$DW$58, DW_AT_TI_begin_file("C:/ti/ccs1110/ccs/tools/compiler/ti-cgt-msp430_21.6.1.L
    1318                    .dwattr $C$DW$58, DW_AT_TI_begin_line(0x14e)
    1319                    .dwattr $C$DW$58, DW_AT_TI_begin_column(0x25)
    1320                    .dwattr $C$DW$58, DW_AT_decl_file("C:/ti/ccs1110/ccs/tools/compiler/ti-cgt-msp430_21.6.1.LTS/i
    1321                    .dwattr $C$DW$58, DW_AT_decl_line(0x14e)
    1322                    .dwattr $C$DW$58, DW_AT_decl_column(0x25)
    1323                    .dwattr $C$DW$58, DW_AT_TI_max_frame_size(0x04)
    1324                    .dwpsn  file "C:/ti/ccs1110/ccs/tools/compiler/ti-cgt-msp430_21.6.1.LTS/include/_defs.h",line 
    1325            
    1326                    .dwfde $C$DW$CIE, __isfinite
    1327            $C$DW$59        .dwtag  DW_TAG_formal_parameter
    1328                    .dwattr $C$DW$59, DW_AT_name("d")
    1329                    .dwattr $C$DW$59, DW_AT_TI_symbol_name("d")
    1330                    .dwattr $C$DW$59, DW_AT_type(*$C$DW$T$17)
    1331                    .dwattr $C$DW$59, DW_AT_location[DW_OP_reg12 DW_OP_piece 2 DW_OP_reg13 DW_OP_piece 2 DW_OP_reg
    1332            
    1333            
    1334            ;*****************************************************************************
    1335            ;* FUNCTION NAME: __isfinite                                                 *
    1336            ;*                                                                           *
    1337            ;*   Regs Modified     : SP,SR,r12,r15                                       *
MSP430 Assembler PC v21.6.1 Tue Dec 20 13:45:56 2022

Copyright (c) 2003-2018 Texas Instruments Incorporated
ADC ISR G.asm                                                        PAGE   26

    1338            ;*   Regs Used         : SP,SR,r12,r15                                       *
    1339            ;*   Local Frame Size  : 0 Args + 0 Auto + 0 Save = 0 byte                   *
    1340            ;*****************************************************************************
    1341 000000       __isfinite:
    1342            ;* --------------------------------------------------------------------------*
    1343                    .dwcfi  cfa_offset, 4
    1344                    .dwcfi  save_reg_to_mem, 16, -4
    1345                    .dwpsn  file "C:/ti/ccs1110/ccs/tools/compiler/ti-cgt-msp430_21.6.1.LTS/include/_defs.h",line 
    1346 000000 430C          MOV.W     #0,r12                ; [] |335| 
    1347 000002 F03F          AND.W     #32752,r15            ; [] |335| 
         000004 7FF0 
    1348 000006 903F          CMP.W     #32752,r15            ; [] |335| 
         000008 7FF0 
    1349 00000a 2401          JEQ       $C$L22                ; [] |335| 
    1350                                                      ; [] |335| 
    1351            ;* --------------------------------------------------------------------------*
    1352 00000c 431C          MOV.W     #1,r12                ; [] |335| 
    1353            ;* --------------------------------------------------------------------------*
    1354 00000e       $C$L22:    
    1355                    .dwpsn  file "C:/ti/ccs1110/ccs/tools/compiler/ti-cgt-msp430_21.6.1.LTS/include/_defs.h",line 
    1356            $C$DW$60        .dwtag  DW_TAG_TI_branch
    1357                    .dwattr $C$DW$60, DW_AT_low_pc(0x00)
    1358                    .dwattr $C$DW$60, DW_AT_TI_return
    1359            
    1360 00000e 0110          RETA      ; [] 
    1361                    ; [] 
    1362                    .dwattr $C$DW$58, DW_AT_TI_end_file("C:/ti/ccs1110/ccs/tools/compiler/ti-cgt-msp430_21.6.1.LTS
    1363                    .dwattr $C$DW$58, DW_AT_TI_end_line(0x14f)
    1364                    .dwattr $C$DW$58, DW_AT_TI_end_column(0x2e)
    1365                    .dwendentry
    1366                    .dwendtag $C$DW$58
    1367            
    1368 000000               .sect   ".text:__fpclassifyl"
    1369                    .clink
    1370                    .global __fpclassifyl
    1371            
    1372            $C$DW$61        .dwtag  DW_TAG_subprogram
    1373                    .dwattr $C$DW$61, DW_AT_name("__fpclassifyl")
    1374                    .dwattr $C$DW$61, DW_AT_low_pc(__fpclassifyl)
    1375                    .dwattr $C$DW$61, DW_AT_high_pc(0x00)
    1376                    .dwattr $C$DW$61, DW_AT_TI_symbol_name("__fpclassifyl")
    1377                    .dwattr $C$DW$61, DW_AT_external
    1378                    .dwattr $C$DW$61, DW_AT_type(*$C$DW$T$10)
    1379                    .dwattr $C$DW$61, DW_AT_TI_begin_file("C:/ti/ccs1110/ccs/tools/compiler/ti-cgt-msp430_21.6.1.L
    1380                    .dwattr $C$DW$61, DW_AT_TI_begin_line(0x1ae)
    1381                    .dwattr $C$DW$61, DW_AT_TI_begin_column(0x25)
    1382                    .dwattr $C$DW$61, DW_AT_decl_file("C:/ti/ccs1110/ccs/tools/compiler/ti-cgt-msp430_21.6.1.LTS/i
    1383                    .dwattr $C$DW$61, DW_AT_decl_line(0x1ae)
    1384                    .dwattr $C$DW$61, DW_AT_decl_column(0x25)
    1385                    .dwattr $C$DW$61, DW_AT_TI_max_frame_size(0x20)
    1386                    .dwpsn  file "C:/ti/ccs1110/ccs/tools/compiler/ti-cgt-msp430_21.6.1.LTS/include/_defs.h",line 
    1387            
    1388                    .dwfde $C$DW$CIE, __fpclassifyl
    1389            $C$DW$62        .dwtag  DW_TAG_formal_parameter
    1390                    .dwattr $C$DW$62, DW_AT_name("e")
MSP430 Assembler PC v21.6.1 Tue Dec 20 13:45:56 2022

Copyright (c) 2003-2018 Texas Instruments Incorporated
ADC ISR G.asm                                                        PAGE   27

    1391                    .dwattr $C$DW$62, DW_AT_TI_symbol_name("e")
    1392                    .dwattr $C$DW$62, DW_AT_type(*$C$DW$T$18)
    1393                    .dwattr $C$DW$62, DW_AT_location[DW_OP_reg12 DW_OP_piece 2 DW_OP_reg13 DW_OP_piece 2 DW_OP_reg
    1394            
    1395            
    1396            ;*****************************************************************************
    1397            ;* FUNCTION NAME: __fpclassifyl                                              *
    1398            ;*                                                                           *
    1399            ;*   Regs Modified     : SP,SR,r4,r5,r6,r7,r8,r9,r10,r11,r12,r13,r14,r15     *
    1400            ;*   Regs Used         : SP,SR,r4,r5,r6,r7,r8,r9,r10,r11,r12,r13,r14,r15     *
    1401            ;*   Local Frame Size  : 0 Args + 0 Auto + 28 Save = 28 byte                 *
    1402            ;*****************************************************************************
    1403 000000       __fpclassifyl:
    1404            ;* --------------------------------------------------------------------------*
    1405                    .dwcfi  cfa_offset, 4
    1406                    .dwcfi  save_reg_to_mem, 16, -4
    1407 000000 146A          PUSHM.A   #7,r10                ; [] 
    1408                    .dwcfi  save_reg_to_mem, 10, -8
    1409                    .dwcfi  save_reg_to_mem, 9, -12
    1410                    .dwcfi  save_reg_to_mem, 8, -16
    1411                    .dwcfi  save_reg_to_mem, 7, -20
    1412                    .dwcfi  save_reg_to_mem, 6, -24
    1413                    .dwcfi  save_reg_to_mem, 5, -28
    1414                    .dwcfi  save_reg_to_mem, 4, -32
    1415                    .dwcfi  cfa_offset, 32
    1416            ;* r4    assigned to e
    1417            $C$DW$63        .dwtag  DW_TAG_variable
    1418                    .dwattr $C$DW$63, DW_AT_name("e")
    1419                    .dwattr $C$DW$63, DW_AT_TI_symbol_name("e")
    1420                    .dwattr $C$DW$63, DW_AT_type(*$C$DW$T$18)
    1421                    .dwattr $C$DW$63, DW_AT_location[DW_OP_reg4 DW_OP_piece 2 DW_OP_reg5 DW_OP_piece 2 DW_OP_reg6 
    1422            
    1423 000002 0CC4          MOVA      r12,r4                ; [] |431| 
    1424 000004 0DC5          MOVA      r13,r5                ; [] |431| 
    1425 000006 0EC6          MOVA      r14,r6                ; [] |431| 
    1426 000008 0FC7          MOVA      r15,r7                ; [] |431| 
    1427                    .dwpsn  file "C:/ti/ccs1110/ccs/tools/compiler/ti-cgt-msp430_21.6.1.LTS/include/_defs.h",line 
    1428 00000a F03F          AND.W     #32752,r15            ; [] |436| 
         00000c 7FF0 
    1429 00000e 903F          CMP.W     #32752,r15            ; [] |436| 
         000010 7FF0 
    1430 000012 2011          JNE       $C$L25                ; [] |436| 
    1431                                                      ; [] |436| 
    1432            ;* --------------------------------------------------------------------------*
    1433 000014 F334          AND.W     #65535,r4             ; [] |436| 
    1434 000016 F335          AND.W     #65535,r5             ; [] |436| 
    1435 000018 F336          AND.W     #65535,r6             ; [] |436| 
    1436 00001a F037          AND.W     #15,r7                ; [] |436| 
         00001c 000F 
    1437 00001e 9307          TST.W     r7                    ; [] |436| 
    1438 000020 2006          JNE       $C$L23                ; [] |436| 
    1439                                                      ; [] |436| 
    1440            ;* --------------------------------------------------------------------------*
    1441 000022 9306          TST.W     r6                    ; [] |436| 
    1442 000024 2004          JNE       $C$L23                ; [] |436| 
MSP430 Assembler PC v21.6.1 Tue Dec 20 13:45:56 2022

Copyright (c) 2003-2018 Texas Instruments Incorporated
ADC ISR G.asm                                                        PAGE   28

    1443                                                      ; [] |436| 
    1444            ;* --------------------------------------------------------------------------*
    1445 000026 9305          TST.W     r5                    ; [] |436| 
    1446 000028 2002          JNE       $C$L23                ; [] |436| 
    1447                                                      ; [] |436| 
    1448            ;* --------------------------------------------------------------------------*
    1449 00002a 9304          TST.W     r4                    ; [] |436| 
    1450 00002c 2402          JEQ       $C$L24                ; [] |436| 
    1451                                                      ; [] |436| 
    1452            ;* --------------------------------------------------------------------------*
    1453 00002e       $C$L23:    
    1454 00002e 432C          MOV.W     #2,r12                ; [] |436| 
    1455 000030 3C2A          JMP       $C$L30                ; [] |436| 
    1456                                                      ; [] |436| 
    1457            ;* --------------------------------------------------------------------------*
    1458 000032       $C$L24:    
    1459 000032 431C          MOV.W     #1,r12                ; [] |436| 
    1460 000034 3C28          JMP       $C$L30                ; [] |436| 
    1461                                                      ; [] |436| 
    1462            ;* --------------------------------------------------------------------------*
    1463 000036       $C$L25:    
    1464 000036 04C8          MOVA      r4,r8                 ; [] |436| 
    1465 000038 05C9          MOVA      r5,r9                 ; [] |436| 
    1466 00003a 06CA          MOVA      r6,r10                ; [] |436| 
    1467 00003c 07CB          MOVA      r7,r11                ; [] |436| 
    1468 00003e 403C          MOV.W     #52,r12               ; [] |436| 
         000040 0034 
    1469            $C$DW$64        .dwtag  DW_TAG_TI_branch
    1470                    .dwattr $C$DW$64, DW_AT_low_pc(0x00)
    1471                    .dwattr $C$DW$64, DW_AT_name("__mspabi_srlll")
    1472                    .dwattr $C$DW$64, DW_AT_TI_call
    1473            
    1474 000042 13B0!         CALLA     #__mspabi_srlll       ; [] |436| 
         000044 0000 
    1475                                                      ; [] |436| 
    1476 000046 F03C          AND.W     #2047,r12             ; [] |436| 
         000048 07FF 
    1477 00004a F30D          AND.W     #0,r13                ; [] |436| 
    1478 00004c F30E          AND.W     #0,r14                ; [] |436| 
    1479 00004e F30F          AND.W     #0,r15                ; [] |436| 
    1480 000050 930F          TST.W     r15                   ; [] |436| 
    1481 000052 2006          JNE       $C$L26                ; [] |436| 
    1482                                                      ; [] |436| 
    1483            ;* --------------------------------------------------------------------------*
    1484 000054 930E          TST.W     r14                   ; [] |436| 
    1485 000056 2004          JNE       $C$L26                ; [] |436| 
    1486                                                      ; [] |436| 
    1487            ;* --------------------------------------------------------------------------*
    1488 000058 930D          TST.W     r13                   ; [] |436| 
    1489 00005a 2002          JNE       $C$L26                ; [] |436| 
    1490                                                      ; [] |436| 
    1491            ;* --------------------------------------------------------------------------*
    1492 00005c 930C          TST.W     r12                   ; [] |436| 
    1493 00005e 2402          JEQ       $C$L27                ; [] |436| 
    1494                                                      ; [] |436| 
MSP430 Assembler PC v21.6.1 Tue Dec 20 13:45:56 2022

Copyright (c) 2003-2018 Texas Instruments Incorporated
ADC ISR G.asm                                                        PAGE   29

    1495            ;* --------------------------------------------------------------------------*
    1496 000060       $C$L26:    
    1497 000060 433C          MOV.W     #-1,r12               ; [] |436| 
    1498 000062 3C11          JMP       $C$L30                ; [] |436| 
    1499                                                      ; [] |436| 
    1500            ;* --------------------------------------------------------------------------*
    1501 000064       $C$L27:    
    1502 000064 F334          AND.W     #65535,r4             ; [] |436| 
    1503 000066 F335          AND.W     #65535,r5             ; [] |436| 
    1504 000068 F336          AND.W     #65535,r6             ; [] |436| 
    1505 00006a F037          AND.W     #15,r7                ; [] |436| 
         00006c 000F 
    1506 00006e 9307          TST.W     r7                    ; [] |436| 
    1507 000070 2006          JNE       $C$L28                ; [] |436| 
    1508                                                      ; [] |436| 
    1509            ;* --------------------------------------------------------------------------*
    1510 000072 9306          TST.W     r6                    ; [] |436| 
    1511 000074 2004          JNE       $C$L28                ; [] |436| 
    1512                                                      ; [] |436| 
    1513            ;* --------------------------------------------------------------------------*
    1514 000076 9305          TST.W     r5                    ; [] |436| 
    1515 000078 2002          JNE       $C$L28                ; [] |436| 
    1516                                                      ; [] |436| 
    1517            ;* --------------------------------------------------------------------------*
    1518 00007a 9304          TST.W     r4                    ; [] |436| 
    1519 00007c 2403          JEQ       $C$L29                ; [] |436| 
    1520                                                      ; [] |436| 
    1521            ;* --------------------------------------------------------------------------*
    1522 00007e       $C$L28:    
    1523 00007e 403C          MOV.W     #65534,r12            ; [] |436| 
         000080 FFFE 
    1524 000082 3C01          JMP       $C$L30                ; [] |436| 
    1525                                                      ; [] |436| 
    1526            ;* --------------------------------------------------------------------------*
    1527 000084       $C$L29:    
    1528 000084 430C          MOV.W     #0,r12                ; [] |436| 
    1529            ;* --------------------------------------------------------------------------*
    1530 000086       $C$L30:    
    1531                    .dwpsn  file "C:/ti/ccs1110/ccs/tools/compiler/ti-cgt-msp430_21.6.1.LTS/include/_defs.h",line 
    1532 000086 1664          POPM.A    #7,r10                ; [] 
    1533                    .dwcfi  restore_reg, 4
    1534                    .dwcfi  restore_reg, 5
    1535                    .dwcfi  restore_reg, 6
    1536                    .dwcfi  restore_reg, 7
    1537                    .dwcfi  restore_reg, 8
    1538                    .dwcfi  restore_reg, 9
    1539                    .dwcfi  restore_reg, 10
    1540                    .dwcfi  cfa_offset, 4
    1541            $C$DW$65        .dwtag  DW_TAG_TI_branch
    1542                    .dwattr $C$DW$65, DW_AT_low_pc(0x00)
    1543                    .dwattr $C$DW$65, DW_AT_TI_return
    1544            
    1545 000088 0110          RETA      ; [] 
    1546                    ; [] 
    1547                    .dwattr $C$DW$61, DW_AT_TI_end_file("C:/ti/ccs1110/ccs/tools/compiler/ti-cgt-msp430_21.6.1.LTS
MSP430 Assembler PC v21.6.1 Tue Dec 20 13:45:56 2022

Copyright (c) 2003-2018 Texas Instruments Incorporated
ADC ISR G.asm                                                        PAGE   30

    1548                    .dwattr $C$DW$61, DW_AT_TI_end_line(0x1bd)
    1549                    .dwattr $C$DW$61, DW_AT_TI_end_column(0x01)
    1550                    .dwendentry
    1551                    .dwendtag $C$DW$61
    1552            
    1553 000000               .sect   ".text:__fpclassifyf"
    1554                    .clink
    1555                    .global __fpclassifyf
    1556            
    1557            $C$DW$66        .dwtag  DW_TAG_subprogram
    1558                    .dwattr $C$DW$66, DW_AT_name("__fpclassifyf")
    1559                    .dwattr $C$DW$66, DW_AT_low_pc(__fpclassifyf)
    1560                    .dwattr $C$DW$66, DW_AT_high_pc(0x00)
    1561                    .dwattr $C$DW$66, DW_AT_TI_symbol_name("__fpclassifyf")
    1562                    .dwattr $C$DW$66, DW_AT_external
    1563                    .dwattr $C$DW$66, DW_AT_type(*$C$DW$T$10)
    1564                    .dwattr $C$DW$66, DW_AT_TI_begin_file("C:/ti/ccs1110/ccs/tools/compiler/ti-cgt-msp430_21.6.1.L
    1565                    .dwattr $C$DW$66, DW_AT_TI_begin_line(0x18c)
    1566                    .dwattr $C$DW$66, DW_AT_TI_begin_column(0x25)
    1567                    .dwattr $C$DW$66, DW_AT_decl_file("C:/ti/ccs1110/ccs/tools/compiler/ti-cgt-msp430_21.6.1.LTS/i
    1568                    .dwattr $C$DW$66, DW_AT_decl_line(0x18c)
    1569                    .dwattr $C$DW$66, DW_AT_decl_column(0x25)
    1570                    .dwattr $C$DW$66, DW_AT_TI_max_frame_size(0x04)
    1571                    .dwpsn  file "C:/ti/ccs1110/ccs/tools/compiler/ti-cgt-msp430_21.6.1.LTS/include/_defs.h",line 
    1572            
    1573                    .dwfde $C$DW$CIE, __fpclassifyf
    1574            $C$DW$67        .dwtag  DW_TAG_formal_parameter
    1575                    .dwattr $C$DW$67, DW_AT_name("f")
    1576                    .dwattr $C$DW$67, DW_AT_TI_symbol_name("f")
    1577                    .dwattr $C$DW$67, DW_AT_type(*$C$DW$T$16)
    1578                    .dwattr $C$DW$67, DW_AT_location[DW_OP_reg12 DW_OP_piece 2 DW_OP_reg13 DW_OP_piece 2]
    1579            
    1580            
    1581            ;*****************************************************************************
    1582            ;* FUNCTION NAME: __fpclassifyf                                              *
    1583            ;*                                                                           *
    1584            ;*   Regs Modified     : SP,SR,r12,r13,r15                                   *
    1585            ;*   Regs Used         : SP,SR,r12,r13,r15                                   *
    1586            ;*   Local Frame Size  : 0 Args + 0 Auto + 0 Save = 0 byte                   *
    1587            ;*****************************************************************************
    1588 000000       __fpclassifyf:
    1589            ;* --------------------------------------------------------------------------*
    1590                    .dwcfi  cfa_offset, 4
    1591                    .dwcfi  save_reg_to_mem, 16, -4
    1592                    .dwpsn  file "C:/ti/ccs1110/ccs/tools/compiler/ti-cgt-msp430_21.6.1.LTS/include/_defs.h",line 
    1593 000000 0DCF          MOVA      r13,r15               ; [] |402| 
    1594 000002 F03F          AND.W     #32640,r15            ; [] |402| 
         000004 7F80 
    1595 000006 903F          CMP.W     #32640,r15            ; [] |402| 
         000008 7F80 
    1596 00000a 200B          JNE       $C$L33                ; [] |402| 
    1597                                                      ; [] |402| 
    1598            ;* --------------------------------------------------------------------------*
    1599 00000c F33C          AND.W     #65535,r12            ; [] |402| 
    1600 00000e F03D          AND.W     #127,r13              ; [] |402| 
MSP430 Assembler PC v21.6.1 Tue Dec 20 13:45:56 2022

Copyright (c) 2003-2018 Texas Instruments Incorporated
ADC ISR G.asm                                                        PAGE   31

         000010 007F 
    1601 000012 930D          TST.W     r13                   ; [] |402| 
    1602 000014 2002          JNE       $C$L31                ; [] |402| 
    1603                                                      ; [] |402| 
    1604            ;* --------------------------------------------------------------------------*
    1605 000016 930C          TST.W     r12                   ; [] |402| 
    1606 000018 2402          JEQ       $C$L32                ; [] |402| 
    1607                                                      ; [] |402| 
    1608            ;* --------------------------------------------------------------------------*
    1609 00001a       $C$L31:    
    1610 00001a 432C          MOV.W     #2,r12                ; [] |402| 
    1611 00001c 3C15          JMP       $C$L37                ; [] |402| 
    1612                                                      ; [] |402| 
    1613            ;* --------------------------------------------------------------------------*
    1614 00001e       $C$L32:    
    1615 00001e 431C          MOV.W     #1,r12                ; [] |402| 
    1616 000020 3C13          JMP       $C$L37                ; [] |402| 
    1617                                                      ; [] |402| 
    1618            ;* --------------------------------------------------------------------------*
    1619 000022       $C$L33:    
    1620 000022 0DCF          MOVA      r13,r15               ; [] |402| 
    1621 000024 1946          RPT #7 || RRUX.W r15 ; [] |402| 
         000026 100F 
    1622 000028 B03F          BIT.W     #255,r15              ; [] |402| 
         00002a 00FF 
    1623 00002c 2402          JEQ       $C$L34                ; [] |402| 
    1624                                                      ; [] |402| 
    1625            ;* --------------------------------------------------------------------------*
    1626 00002e 433C          MOV.W     #-1,r12               ; [] |402| 
    1627 000030 3C0B          JMP       $C$L37                ; [] |402| 
    1628                                                      ; [] |402| 
    1629            ;* --------------------------------------------------------------------------*
    1630 000032       $C$L34:    
    1631 000032 F33C          AND.W     #65535,r12            ; [] |402| 
    1632 000034 F03D          AND.W     #127,r13              ; [] |402| 
         000036 007F 
    1633 000038 930D          TST.W     r13                   ; [] |402| 
    1634 00003a 2002          JNE       $C$L35                ; [] |402| 
    1635                                                      ; [] |402| 
    1636            ;* --------------------------------------------------------------------------*
    1637 00003c 930C          TST.W     r12                   ; [] |402| 
    1638 00003e 2403          JEQ       $C$L36                ; [] |402| 
    1639                                                      ; [] |402| 
    1640            ;* --------------------------------------------------------------------------*
    1641 000040       $C$L35:    
    1642 000040 403C          MOV.W     #65534,r12            ; [] |402| 
         000042 FFFE 
    1643 000044 3C01          JMP       $C$L37                ; [] |402| 
    1644                                                      ; [] |402| 
    1645            ;* --------------------------------------------------------------------------*
    1646 000046       $C$L36:    
    1647 000046 430C          MOV.W     #0,r12                ; [] |402| 
    1648            ;* --------------------------------------------------------------------------*
    1649 000048       $C$L37:    
    1650                    .dwpsn  file "C:/ti/ccs1110/ccs/tools/compiler/ti-cgt-msp430_21.6.1.LTS/include/_defs.h",line 
MSP430 Assembler PC v21.6.1 Tue Dec 20 13:45:56 2022

Copyright (c) 2003-2018 Texas Instruments Incorporated
ADC ISR G.asm                                                        PAGE   32

    1651            $C$DW$68        .dwtag  DW_TAG_TI_branch
    1652                    .dwattr $C$DW$68, DW_AT_low_pc(0x00)
    1653                    .dwattr $C$DW$68, DW_AT_TI_return
    1654            
    1655 000048 0110          RETA      ; [] 
    1656                    ; [] 
    1657                    .dwattr $C$DW$66, DW_AT_TI_end_file("C:/ti/ccs1110/ccs/tools/compiler/ti-cgt-msp430_21.6.1.LTS
    1658                    .dwattr $C$DW$66, DW_AT_TI_end_line(0x19b)
    1659                    .dwattr $C$DW$66, DW_AT_TI_end_column(0x01)
    1660                    .dwendentry
    1661                    .dwendtag $C$DW$66
    1662            
    1663 000000               .sect   ".text:__fpclassify"
    1664                    .clink
    1665                    .global __fpclassify
    1666            
    1667            $C$DW$69        .dwtag  DW_TAG_subprogram
    1668                    .dwattr $C$DW$69, DW_AT_name("__fpclassify")
    1669                    .dwattr $C$DW$69, DW_AT_low_pc(__fpclassify)
    1670                    .dwattr $C$DW$69, DW_AT_high_pc(0x00)
    1671                    .dwattr $C$DW$69, DW_AT_TI_symbol_name("__fpclassify")
    1672                    .dwattr $C$DW$69, DW_AT_external
    1673                    .dwattr $C$DW$69, DW_AT_type(*$C$DW$T$10)
    1674                    .dwattr $C$DW$69, DW_AT_TI_begin_file("C:/ti/ccs1110/ccs/tools/compiler/ti-cgt-msp430_21.6.1.L
    1675                    .dwattr $C$DW$69, DW_AT_TI_begin_line(0x19d)
    1676                    .dwattr $C$DW$69, DW_AT_TI_begin_column(0x25)
    1677                    .dwattr $C$DW$69, DW_AT_decl_file("C:/ti/ccs1110/ccs/tools/compiler/ti-cgt-msp430_21.6.1.LTS/i
    1678                    .dwattr $C$DW$69, DW_AT_decl_line(0x19d)
    1679                    .dwattr $C$DW$69, DW_AT_decl_column(0x25)
    1680                    .dwattr $C$DW$69, DW_AT_TI_max_frame_size(0x20)
    1681                    .dwpsn  file "C:/ti/ccs1110/ccs/tools/compiler/ti-cgt-msp430_21.6.1.LTS/include/_defs.h",line 
    1682            
    1683                    .dwfde $C$DW$CIE, __fpclassify
    1684            $C$DW$70        .dwtag  DW_TAG_formal_parameter
    1685                    .dwattr $C$DW$70, DW_AT_name("d")
    1686                    .dwattr $C$DW$70, DW_AT_TI_symbol_name("d")
    1687                    .dwattr $C$DW$70, DW_AT_type(*$C$DW$T$17)
    1688                    .dwattr $C$DW$70, DW_AT_location[DW_OP_reg12 DW_OP_piece 2 DW_OP_reg13 DW_OP_piece 2 DW_OP_reg
    1689            
    1690            
    1691            ;*****************************************************************************
    1692            ;* FUNCTION NAME: __fpclassify                                               *
    1693            ;*                                                                           *
    1694            ;*   Regs Modified     : SP,SR,r4,r5,r6,r7,r8,r9,r10,r11,r12,r13,r14,r15     *
    1695            ;*   Regs Used         : SP,SR,r4,r5,r6,r7,r8,r9,r10,r11,r12,r13,r14,r15     *
    1696            ;*   Local Frame Size  : 0 Args + 0 Auto + 28 Save = 28 byte                 *
    1697            ;*****************************************************************************
    1698 000000       __fpclassify:
    1699            ;* --------------------------------------------------------------------------*
    1700                    .dwcfi  cfa_offset, 4
    1701                    .dwcfi  save_reg_to_mem, 16, -4
    1702 000000 146A          PUSHM.A   #7,r10                ; [] 
    1703                    .dwcfi  save_reg_to_mem, 10, -8
    1704                    .dwcfi  save_reg_to_mem, 9, -12
    1705                    .dwcfi  save_reg_to_mem, 8, -16
MSP430 Assembler PC v21.6.1 Tue Dec 20 13:45:56 2022

Copyright (c) 2003-2018 Texas Instruments Incorporated
ADC ISR G.asm                                                        PAGE   33

    1706                    .dwcfi  save_reg_to_mem, 7, -20
    1707                    .dwcfi  save_reg_to_mem, 6, -24
    1708                    .dwcfi  save_reg_to_mem, 5, -28
    1709                    .dwcfi  save_reg_to_mem, 4, -32
    1710                    .dwcfi  cfa_offset, 32
    1711            ;* r4    assigned to d
    1712            $C$DW$71        .dwtag  DW_TAG_variable
    1713                    .dwattr $C$DW$71, DW_AT_name("d")
    1714                    .dwattr $C$DW$71, DW_AT_TI_symbol_name("d")
    1715                    .dwattr $C$DW$71, DW_AT_type(*$C$DW$T$17)
    1716                    .dwattr $C$DW$71, DW_AT_location[DW_OP_reg4 DW_OP_piece 2 DW_OP_reg5 DW_OP_piece 2 DW_OP_reg6 
    1717            
    1718 000002 0CC4          MOVA      r12,r4                ; [] |414| 
    1719 000004 0DC5          MOVA      r13,r5                ; [] |414| 
    1720 000006 0EC6          MOVA      r14,r6                ; [] |414| 
    1721 000008 0FC7          MOVA      r15,r7                ; [] |414| 
    1722                    .dwpsn  file "C:/ti/ccs1110/ccs/tools/compiler/ti-cgt-msp430_21.6.1.LTS/include/_defs.h",line 
    1723 00000a F03F          AND.W     #32752,r15            ; [] |419| 
         00000c 7FF0 
    1724 00000e 903F          CMP.W     #32752,r15            ; [] |419| 
         000010 7FF0 
    1725 000012 2011          JNE       $C$L40                ; [] |419| 
    1726                                                      ; [] |419| 
    1727            ;* --------------------------------------------------------------------------*
    1728 000014 F334          AND.W     #65535,r4             ; [] |419| 
    1729 000016 F335          AND.W     #65535,r5             ; [] |419| 
    1730 000018 F336          AND.W     #65535,r6             ; [] |419| 
    1731 00001a F037          AND.W     #15,r7                ; [] |419| 
         00001c 000F 
    1732 00001e 9307          TST.W     r7                    ; [] |419| 
    1733 000020 2006          JNE       $C$L38                ; [] |419| 
    1734                                                      ; [] |419| 
    1735            ;* --------------------------------------------------------------------------*
    1736 000022 9306          TST.W     r6                    ; [] |419| 
    1737 000024 2004          JNE       $C$L38                ; [] |419| 
    1738                                                      ; [] |419| 
    1739            ;* --------------------------------------------------------------------------*
    1740 000026 9305          TST.W     r5                    ; [] |419| 
    1741 000028 2002          JNE       $C$L38                ; [] |419| 
    1742                                                      ; [] |419| 
    1743            ;* --------------------------------------------------------------------------*
    1744 00002a 9304          TST.W     r4                    ; [] |419| 
    1745 00002c 2402          JEQ       $C$L39                ; [] |419| 
    1746                                                      ; [] |419| 
    1747            ;* --------------------------------------------------------------------------*
    1748 00002e       $C$L38:    
    1749 00002e 432C          MOV.W     #2,r12                ; [] |419| 
    1750 000030 3C2A          JMP       $C$L45                ; [] |419| 
    1751                                                      ; [] |419| 
    1752            ;* --------------------------------------------------------------------------*
    1753 000032       $C$L39:    
    1754 000032 431C          MOV.W     #1,r12                ; [] |419| 
    1755 000034 3C28          JMP       $C$L45                ; [] |419| 
    1756                                                      ; [] |419| 
    1757            ;* --------------------------------------------------------------------------*
MSP430 Assembler PC v21.6.1 Tue Dec 20 13:45:56 2022

Copyright (c) 2003-2018 Texas Instruments Incorporated
ADC ISR G.asm                                                        PAGE   34

    1758 000036       $C$L40:    
    1759 000036 04C8          MOVA      r4,r8                 ; [] |419| 
    1760 000038 05C9          MOVA      r5,r9                 ; [] |419| 
    1761 00003a 06CA          MOVA      r6,r10                ; [] |419| 
    1762 00003c 07CB          MOVA      r7,r11                ; [] |419| 
    1763 00003e 403C          MOV.W     #52,r12               ; [] |419| 
         000040 0034 
    1764            $C$DW$72        .dwtag  DW_TAG_TI_branch
    1765                    .dwattr $C$DW$72, DW_AT_low_pc(0x00)
    1766                    .dwattr $C$DW$72, DW_AT_name("__mspabi_srlll")
    1767                    .dwattr $C$DW$72, DW_AT_TI_call
    1768            
    1769 000042 13B0!         CALLA     #__mspabi_srlll       ; [] |419| 
         000044 0000 
    1770                                                      ; [] |419| 
    1771 000046 F03C          AND.W     #2047,r12             ; [] |419| 
         000048 07FF 
    1772 00004a F30D          AND.W     #0,r13                ; [] |419| 
    1773 00004c F30E          AND.W     #0,r14                ; [] |419| 
    1774 00004e F30F          AND.W     #0,r15                ; [] |419| 
    1775 000050 930F          TST.W     r15                   ; [] |419| 
    1776 000052 2006          JNE       $C$L41                ; [] |419| 
    1777                                                      ; [] |419| 
    1778            ;* --------------------------------------------------------------------------*
    1779 000054 930E          TST.W     r14                   ; [] |419| 
    1780 000056 2004          JNE       $C$L41                ; [] |419| 
    1781                                                      ; [] |419| 
    1782            ;* --------------------------------------------------------------------------*
    1783 000058 930D          TST.W     r13                   ; [] |419| 
    1784 00005a 2002          JNE       $C$L41                ; [] |419| 
    1785                                                      ; [] |419| 
    1786            ;* --------------------------------------------------------------------------*
    1787 00005c 930C          TST.W     r12                   ; [] |419| 
    1788 00005e 2402          JEQ       $C$L42                ; [] |419| 
    1789                                                      ; [] |419| 
    1790            ;* --------------------------------------------------------------------------*
    1791 000060       $C$L41:    
    1792 000060 433C          MOV.W     #-1,r12               ; [] |419| 
    1793 000062 3C11          JMP       $C$L45                ; [] |419| 
    1794                                                      ; [] |419| 
    1795            ;* --------------------------------------------------------------------------*
    1796 000064       $C$L42:    
    1797 000064 F334          AND.W     #65535,r4             ; [] |419| 
    1798 000066 F335          AND.W     #65535,r5             ; [] |419| 
    1799 000068 F336          AND.W     #65535,r6             ; [] |419| 
    1800 00006a F037          AND.W     #15,r7                ; [] |419| 
         00006c 000F 
    1801 00006e 9307          TST.W     r7                    ; [] |419| 
    1802 000070 2006          JNE       $C$L43                ; [] |419| 
    1803                                                      ; [] |419| 
    1804            ;* --------------------------------------------------------------------------*
    1805 000072 9306          TST.W     r6                    ; [] |419| 
    1806 000074 2004          JNE       $C$L43                ; [] |419| 
    1807                                                      ; [] |419| 
    1808            ;* --------------------------------------------------------------------------*
MSP430 Assembler PC v21.6.1 Tue Dec 20 13:45:56 2022

Copyright (c) 2003-2018 Texas Instruments Incorporated
ADC ISR G.asm                                                        PAGE   35

    1809 000076 9305          TST.W     r5                    ; [] |419| 
    1810 000078 2002          JNE       $C$L43                ; [] |419| 
    1811                                                      ; [] |419| 
    1812            ;* --------------------------------------------------------------------------*
    1813 00007a 9304          TST.W     r4                    ; [] |419| 
    1814 00007c 2403          JEQ       $C$L44                ; [] |419| 
    1815                                                      ; [] |419| 
    1816            ;* --------------------------------------------------------------------------*
    1817 00007e       $C$L43:    
    1818 00007e 403C          MOV.W     #65534,r12            ; [] |419| 
         000080 FFFE 
    1819 000082 3C01          JMP       $C$L45                ; [] |419| 
    1820                                                      ; [] |419| 
    1821            ;* --------------------------------------------------------------------------*
    1822 000084       $C$L44:    
    1823 000084 430C          MOV.W     #0,r12                ; [] |419| 
    1824            ;* --------------------------------------------------------------------------*
    1825 000086       $C$L45:    
    1826                    .dwpsn  file "C:/ti/ccs1110/ccs/tools/compiler/ti-cgt-msp430_21.6.1.LTS/include/_defs.h",line 
    1827 000086 1664          POPM.A    #7,r10                ; [] 
    1828                    .dwcfi  restore_reg, 4
    1829                    .dwcfi  restore_reg, 5
    1830                    .dwcfi  restore_reg, 6
    1831                    .dwcfi  restore_reg, 7
    1832                    .dwcfi  restore_reg, 8
    1833                    .dwcfi  restore_reg, 9
    1834                    .dwcfi  restore_reg, 10
    1835                    .dwcfi  cfa_offset, 4
    1836            $C$DW$73        .dwtag  DW_TAG_TI_branch
    1837                    .dwattr $C$DW$73, DW_AT_low_pc(0x00)
    1838                    .dwattr $C$DW$73, DW_AT_TI_return
    1839            
    1840 000088 0110          RETA      ; [] 
    1841                    ; [] 
    1842                    .dwattr $C$DW$69, DW_AT_TI_end_file("C:/ti/ccs1110/ccs/tools/compiler/ti-cgt-msp430_21.6.1.LTS
    1843                    .dwattr $C$DW$69, DW_AT_TI_end_line(0x1ac)
    1844                    .dwattr $C$DW$69, DW_AT_TI_end_column(0x01)
    1845                    .dwendentry
    1846                    .dwendtag $C$DW$69
    1847            
    1848 000000               .sect   ".text:ADC12_ISR"
    1849                    .clink
    1850                    .global ADC12_ISR
    1851            
    1852            $C$DW$74        .dwtag  DW_TAG_subprogram
    1853                    .dwattr $C$DW$74, DW_AT_name("ADC12_ISR")
    1854                    .dwattr $C$DW$74, DW_AT_low_pc(ADC12_ISR)
    1855                    .dwattr $C$DW$74, DW_AT_high_pc(0x00)
    1856                    .dwattr $C$DW$74, DW_AT_TI_symbol_name("ADC12_ISR")
    1857                    .dwattr $C$DW$74, DW_AT_external
    1858                    .dwattr $C$DW$74, DW_AT_TI_begin_file("../src/ADC ISR G.c")
    1859                    .dwattr $C$DW$74, DW_AT_TI_begin_line(0x28)
    1860                    .dwattr $C$DW$74, DW_AT_TI_begin_column(0x12)
    1861                    .dwattr $C$DW$74, DW_AT_decl_file("../src/ADC ISR G.c")
    1862                    .dwattr $C$DW$74, DW_AT_decl_line(0x28)
MSP430 Assembler PC v21.6.1 Tue Dec 20 13:45:56 2022

Copyright (c) 2003-2018 Texas Instruments Incorporated
ADC ISR G.asm                                                        PAGE   36

    1863                    .dwattr $C$DW$74, DW_AT_decl_column(0x12)
    1864                    .dwattr $C$DW$74, DW_AT_TI_interrupt
    1865                    .dwattr $C$DW$74, DW_AT_TI_max_frame_size(0x08)
    1866                    .dwpsn  file "../src/ADC ISR G.c",line 41,column 1,is_stmt,address ADC12_ISR,isa 0
    1867            
    1868                    .dwfde $C$DW$CIE, ADC12_ISR
    1869            
    1870            ;*****************************************************************************
    1871            ;* FUNCTION NAME: ADC12_ISR                                                  *
    1872            ;*                                                                           *
    1873            ;*   Regs Modified     : SP,SR,r15                                           *
    1874            ;*   Regs Used         : SP,SR,r15                                           *
    1875            ;*   Local Frame Size  : 0 Args + 0 Auto + 4 Save = 4 byte                   *
    1876            ;*****************************************************************************
    1877 000000       ADC12_ISR:
    1878            ;* --------------------------------------------------------------------------*
    1879                    .dwcfi  cfa_offset, 4
    1880                    .dwcfi  save_reg_to_mem, 16, -4
    1881 000000 140F          PUSHM.A   #1,r15                ; [] 
    1882                    .dwcfi  save_reg_to_mem, 15, -8
    1883                    .dwcfi  cfa_offset, 8
    1884                    .dwpsn  file "../src/ADC ISR G.c",line 42,column 5,is_stmt,isa 0
    1885 000002 90B2          CMP.W     #36,&ADC12IV+0        ; [] |42| 
         000004 0024 
         000006 0000!
    1886 000008 2006          JNE       $C$L46                ; [] |42| 
    1887                                                      ; [] |42| 
    1888            ;* --------------------------------------------------------------------------*
    1889                    .dwpsn  file "../src/ADC ISR G.c",line 48,column 9,is_stmt,isa 0
    1890 00000a 421F          MOV.W     &ADC12IFG+0,r15       ; [] |48| 
         00000c 0000!
    1891 00000e 4382          MOV.W     #0,&ADC12IFG+0        ; [] |48| 
         000010 0000!
    1892                    .dwpsn  file "../src/ADC ISR G.c",line 49,column 9,is_stmt,isa 0
    1893 000012 43D2          MOV.B     #1,&ADCdone+0         ; [] |49| 
         000014 0000!
    1894            ;* --------------------------------------------------------------------------*
    1895 000016       $C$L46:    
    1896                    .dwpsn  file "../src/ADC ISR G.c",line 54,column 1,is_stmt,isa 0
    1897 000016 160F          POPM.A    #1,r15                ; [] 
    1898                    .dwcfi  restore_reg, 15
    1899                    .dwcfi  cfa_offset, 4
    1900            $C$DW$75        .dwtag  DW_TAG_TI_branch
    1901                    .dwattr $C$DW$75, DW_AT_low_pc(0x00)
    1902                    .dwattr $C$DW$75, DW_AT_TI_return
    1903            
    1904 000018 1300          RETI      ; [] 
    1905                    ; [] 
    1906                    .dwattr $C$DW$74, DW_AT_TI_end_file("../src/ADC ISR G.c")
    1907                    .dwattr $C$DW$74, DW_AT_TI_end_line(0x36)
    1908                    .dwattr $C$DW$74, DW_AT_TI_end_column(0x01)
    1909                    .dwendentry
    1910                    .dwendtag $C$DW$74
    1911            
    1912            ;*****************************************************************************
MSP430 Assembler PC v21.6.1 Tue Dec 20 13:45:56 2022

Copyright (c) 2003-2018 Texas Instruments Incorporated
ADC ISR G.asm                                                        PAGE   37

    1913            ;* UNDEFINED EXTERNAL REFERENCES                                             *
    1914            ;*****************************************************************************
    1915                    .global ADC12IFG
    1916                    .global ADC12IV
    1917                    .global ADCdone
    1918                    .global __mspabi_srlll
    1919            ;*****************************************************************************
    1920            ;* SECTION GROUPS                                                            *
    1921            ;*****************************************************************************
    1922                    .group    "__fpclassify", 1
    1923                    .gmember  ".text:__fpclassify"
    1924                    .endgroup
    1925                    .group    "__fpclassifyf", 1
    1926                    .gmember  ".text:__fpclassifyf"
    1927                    .endgroup
    1928                    .group    "__fpclassifyl", 1
    1929                    .gmember  ".text:__fpclassifyl"
    1930                    .endgroup
    1931                    .group    "__isfinite", 1
    1932                    .gmember  ".text:__isfinite"
    1933                    .endgroup
    1934                    .group    "__isfinitef", 1
    1935                    .gmember  ".text:__isfinitef"
    1936                    .endgroup
    1937                    .group    "__isfinitel", 1
    1938                    .gmember  ".text:__isfinitel"
    1939                    .endgroup
    1940                    .group    "__isinf", 1
    1941                    .gmember  ".text:__isinf"
    1942                    .endgroup
    1943                    .group    "__isinff", 1
    1944                    .gmember  ".text:__isinff"
    1945                    .endgroup
    1946                    .group    "__isinfl", 1
    1947                    .gmember  ".text:__isinfl"
    1948                    .endgroup
    1949                    .group    "__isnan", 1
    1950                    .gmember  ".text:__isnan"
    1951                    .endgroup
    1952                    .group    "__isnanf", 1
    1953                    .gmember  ".text:__isnanf"
    1954                    .endgroup
    1955                    .group    "__isnanl", 1
    1956                    .gmember  ".text:__isnanl"
    1957                    .endgroup
    1958                    .group    "__isnormal", 1
    1959                    .gmember  ".text:__isnormal"
    1960                    .endgroup
    1961                    .group    "__isnormalf", 1
    1962                    .gmember  ".text:__isnormalf"
    1963                    .endgroup
    1964                    .group    "__isnormall", 1
    1965                    .gmember  ".text:__isnormall"
    1966                    .endgroup
    1967                    .group    "__signbit", 1
MSP430 Assembler PC v21.6.1 Tue Dec 20 13:45:56 2022

Copyright (c) 2003-2018 Texas Instruments Incorporated
ADC ISR G.asm                                                        PAGE   38

    1968                    .gmember  ".text:__signbit"
    1969                    .endgroup
    1970                    .group    "__signbitf", 1
    1971                    .gmember  ".text:__signbitf"
    1972                    .endgroup
    1973                    .group    "__signbitl", 1
    1974                    .gmember  ".text:__signbitl"
    1975                    .endgroup
    1976            
    1977            
    1978            ;******************************************************************************
    1979            ;* BUILD ATTRIBUTES                                                           *
    1980            ;******************************************************************************
    1981                    .battr "TI", Tag_File, 1, Tag_LPM_INFO(1)
    1982                    .battr "TI", Tag_File, 1, Tag_PORTS_INIT_INFO("012345678901ABCDEFGHIJ0000000000001111110000000
    1983                    .battr "TI", Tag_File, 1, Tag_LEA_INFO(1)
    1984                    .battr "TI", Tag_File, 1, Tag_HW_MPY32_INFO(2)
    1985                    .battr "TI", Tag_File, 1, Tag_HW_MPY_ISR_INFO(1)
    1986                    .battr "TI", Tag_File, 1, Tag_HW_MPY_INLINE_INFO(1)
    1987                    .battr "mspabi", Tag_File, 1, Tag_enum_size(2)
    1988            
    1989            ;******************************************************************************
    1990            ;* TYPE INFORMATION                                                           *
    1991            ;******************************************************************************
    1992            
    1993            $C$DW$T$53      .dwtag  DW_TAG_enumeration_type
    1994                    .dwattr $C$DW$T$53, DW_AT_byte_size(0x02)
    1995            $C$DW$76        .dwtag  DW_TAG_enumerator
    1996                    .dwattr $C$DW$76, DW_AT_name("WarmUp")
    1997                    .dwattr $C$DW$76, DW_AT_const_value(0x00)
    1998                    .dwattr $C$DW$76, DW_AT_decl_file("C:/Users/MCourson/workspace_v11/MZERO_HB50Board/include/Mai
    1999                    .dwattr $C$DW$76, DW_AT_decl_line(0x59)
    2000                    .dwattr $C$DW$76, DW_AT_decl_column(0x05)
    2001            
    2002            $C$DW$77        .dwtag  DW_TAG_enumerator
    2003                    .dwattr $C$DW$77, DW_AT_name("Startup")
    2004                    .dwattr $C$DW$77, DW_AT_const_value(0x01)
    2005                    .dwattr $C$DW$77, DW_AT_decl_file("C:/Users/MCourson/workspace_v11/MZERO_HB50Board/include/Mai
    2006                    .dwattr $C$DW$77, DW_AT_decl_line(0x5a)
    2007                    .dwattr $C$DW$77, DW_AT_decl_column(0x05)
    2008            
    2009            $C$DW$78        .dwtag  DW_TAG_enumerator
    2010                    .dwattr $C$DW$78, DW_AT_name("Normal_Run")
    2011                    .dwattr $C$DW$78, DW_AT_const_value(0x02)
    2012                    .dwattr $C$DW$78, DW_AT_decl_file("C:/Users/MCourson/workspace_v11/MZERO_HB50Board/include/Mai
    2013                    .dwattr $C$DW$78, DW_AT_decl_line(0x5b)
    2014                    .dwattr $C$DW$78, DW_AT_decl_column(0x05)
    2015            
    2016            $C$DW$79        .dwtag  DW_TAG_enumerator
    2017                    .dwattr $C$DW$79, DW_AT_name("Standby")
    2018                    .dwattr $C$DW$79, DW_AT_const_value(0x03)
    2019                    .dwattr $C$DW$79, DW_AT_decl_file("C:/Users/MCourson/workspace_v11/MZERO_HB50Board/include/Mai
    2020                    .dwattr $C$DW$79, DW_AT_decl_line(0x5c)
    2021                    .dwattr $C$DW$79, DW_AT_decl_column(0x05)
    2022            
MSP430 Assembler PC v21.6.1 Tue Dec 20 13:45:56 2022

Copyright (c) 2003-2018 Texas Instruments Incorporated
ADC ISR G.asm                                                        PAGE   39

    2023            $C$DW$80        .dwtag  DW_TAG_enumerator
    2024                    .dwattr $C$DW$80, DW_AT_name("ShutDown")
    2025                    .dwattr $C$DW$80, DW_AT_const_value(0x04)
    2026                    .dwattr $C$DW$80, DW_AT_decl_file("C:/Users/MCourson/workspace_v11/MZERO_HB50Board/include/Mai
    2027                    .dwattr $C$DW$80, DW_AT_decl_line(0x5d)
    2028                    .dwattr $C$DW$80, DW_AT_decl_column(0x05)
    2029            
    2030            $C$DW$81        .dwtag  DW_TAG_enumerator
    2031                    .dwattr $C$DW$81, DW_AT_name("Self_Test")
    2032                    .dwattr $C$DW$81, DW_AT_const_value(0x05)
    2033                    .dwattr $C$DW$81, DW_AT_decl_file("C:/Users/MCourson/workspace_v11/MZERO_HB50Board/include/Mai
    2034                    .dwattr $C$DW$81, DW_AT_decl_line(0x5e)
    2035                    .dwattr $C$DW$81, DW_AT_decl_column(0x05)
    2036            
    2037            $C$DW$82        .dwtag  DW_TAG_enumerator
    2038                    .dwattr $C$DW$82, DW_AT_name("Sleep")
    2039                    .dwattr $C$DW$82, DW_AT_const_value(0x06)
    2040                    .dwattr $C$DW$82, DW_AT_decl_file("C:/Users/MCourson/workspace_v11/MZERO_HB50Board/include/Mai
    2041                    .dwattr $C$DW$82, DW_AT_decl_line(0x5f)
    2042                    .dwattr $C$DW$82, DW_AT_decl_column(0x05)
    2043            
    2044            $C$DW$83        .dwtag  DW_TAG_enumerator
    2045                    .dwattr $C$DW$83, DW_AT_name("Fault")
    2046                    .dwattr $C$DW$83, DW_AT_const_value(0x07)
    2047                    .dwattr $C$DW$83, DW_AT_decl_file("C:/Users/MCourson/workspace_v11/MZERO_HB50Board/include/Mai
    2048                    .dwattr $C$DW$83, DW_AT_decl_line(0x60)
    2049                    .dwattr $C$DW$83, DW_AT_decl_column(0x05)
    2050            
    2051            $C$DW$84        .dwtag  DW_TAG_enumerator
    2052                    .dwattr $C$DW$84, DW_AT_name("Wait")
    2053                    .dwattr $C$DW$84, DW_AT_const_value(0x08)
    2054                    .dwattr $C$DW$84, DW_AT_decl_file("C:/Users/MCourson/workspace_v11/MZERO_HB50Board/include/Mai
    2055                    .dwattr $C$DW$84, DW_AT_decl_line(0x61)
    2056                    .dwattr $C$DW$84, DW_AT_decl_column(0x05)
    2057            
    2058            $C$DW$85        .dwtag  DW_TAG_enumerator
    2059                    .dwattr $C$DW$85, DW_AT_name("Cool_down")
    2060                    .dwattr $C$DW$85, DW_AT_const_value(0x09)
    2061                    .dwattr $C$DW$85, DW_AT_decl_file("C:/Users/MCourson/workspace_v11/MZERO_HB50Board/include/Mai
    2062                    .dwattr $C$DW$85, DW_AT_decl_line(0x62)
    2063                    .dwattr $C$DW$85, DW_AT_decl_column(0x05)
    2064            
    2065                    .dwattr $C$DW$T$53, DW_AT_decl_file("C:/Users/MCourson/workspace_v11/MZERO_HB50Board/include/M
    2066                    .dwattr $C$DW$T$53, DW_AT_decl_line(0x58)
    2067                    .dwattr $C$DW$T$53, DW_AT_decl_column(0x0e)
    2068                    .dwendtag $C$DW$T$53
    2069            
    2070            $C$DW$T$54      .dwtag  DW_TAG_typedef
    2071                    .dwattr $C$DW$T$54, DW_AT_name("State")
    2072                    .dwattr $C$DW$T$54, DW_AT_type(*$C$DW$T$53)
    2073                    .dwattr $C$DW$T$54, DW_AT_language(DW_LANG_C)
    2074                    .dwattr $C$DW$T$54, DW_AT_decl_file("C:/Users/MCourson/workspace_v11/MZERO_HB50Board/include/M
    2075                    .dwattr $C$DW$T$54, DW_AT_decl_line(0x63)
    2076                    .dwattr $C$DW$T$54, DW_AT_decl_column(0x03)
    2077            
MSP430 Assembler PC v21.6.1 Tue Dec 20 13:45:56 2022

Copyright (c) 2003-2018 Texas Instruments Incorporated
ADC ISR G.asm                                                        PAGE   40

    2078            
    2079            $C$DW$T$55      .dwtag  DW_TAG_enumeration_type
    2080                    .dwattr $C$DW$T$55, DW_AT_byte_size(0x02)
    2081            $C$DW$86        .dwtag  DW_TAG_enumerator
    2082                    .dwattr $C$DW$86, DW_AT_name("COLD")
    2083                    .dwattr $C$DW$86, DW_AT_const_value(0x00)
    2084                    .dwattr $C$DW$86, DW_AT_decl_file("C:/Users/MCourson/workspace_v11/MZERO_HB50Board/include/Mai
    2085                    .dwattr $C$DW$86, DW_AT_decl_line(0x68)
    2086                    .dwattr $C$DW$86, DW_AT_decl_column(0x05)
    2087            
    2088            $C$DW$87        .dwtag  DW_TAG_enumerator
    2089                    .dwattr $C$DW$87, DW_AT_name("WARM")
    2090                    .dwattr $C$DW$87, DW_AT_const_value(0x01)
    2091                    .dwattr $C$DW$87, DW_AT_decl_file("C:/Users/MCourson/workspace_v11/MZERO_HB50Board/include/Mai
    2092                    .dwattr $C$DW$87, DW_AT_decl_line(0x69)
    2093                    .dwattr $C$DW$87, DW_AT_decl_column(0x05)
    2094            
    2095            $C$DW$88        .dwtag  DW_TAG_enumerator
    2096                    .dwattr $C$DW$88, DW_AT_name("OPERATIONAL")
    2097                    .dwattr $C$DW$88, DW_AT_const_value(0x02)
    2098                    .dwattr $C$DW$88, DW_AT_decl_file("C:/Users/MCourson/workspace_v11/MZERO_HB50Board/include/Mai
    2099                    .dwattr $C$DW$88, DW_AT_decl_line(0x6a)
    2100                    .dwattr $C$DW$88, DW_AT_decl_column(0x05)
    2101            
    2102                    .dwattr $C$DW$T$55, DW_AT_decl_file("C:/Users/MCourson/workspace_v11/MZERO_HB50Board/include/M
    2103                    .dwattr $C$DW$T$55, DW_AT_decl_line(0x67)
    2104                    .dwattr $C$DW$T$55, DW_AT_decl_column(0x0e)
    2105                    .dwendtag $C$DW$T$55
    2106            
    2107            $C$DW$T$56      .dwtag  DW_TAG_typedef
    2108                    .dwattr $C$DW$T$56, DW_AT_name("SetState")
    2109                    .dwattr $C$DW$T$56, DW_AT_type(*$C$DW$T$55)
    2110                    .dwattr $C$DW$T$56, DW_AT_language(DW_LANG_C)
    2111                    .dwattr $C$DW$T$56, DW_AT_decl_file("C:/Users/MCourson/workspace_v11/MZERO_HB50Board/include/M
    2112                    .dwattr $C$DW$T$56, DW_AT_decl_line(0x6b)
    2113                    .dwattr $C$DW$T$56, DW_AT_decl_column(0x03)
    2114            
    2115            
    2116            $C$DW$T$57      .dwtag  DW_TAG_enumeration_type
    2117                    .dwattr $C$DW$T$57, DW_AT_byte_size(0x02)
    2118            $C$DW$89        .dwtag  DW_TAG_enumerator
    2119                    .dwattr $C$DW$89, DW_AT_name("none")
    2120                    .dwattr $C$DW$89, DW_AT_const_value(0x00)
    2121                    .dwattr $C$DW$89, DW_AT_decl_file("C:/Users/MCourson/workspace_v11/MZERO_HB50Board/include/Mai
    2122                    .dwattr $C$DW$89, DW_AT_decl_line(0x70)
    2123                    .dwattr $C$DW$89, DW_AT_decl_column(0x05)
    2124            
    2125            $C$DW$90        .dwtag  DW_TAG_enumerator
    2126                    .dwattr $C$DW$90, DW_AT_name("size")
    2127                    .dwattr $C$DW$90, DW_AT_const_value(0x01)
    2128                    .dwattr $C$DW$90, DW_AT_decl_file("C:/Users/MCourson/workspace_v11/MZERO_HB50Board/include/Mai
    2129                    .dwattr $C$DW$90, DW_AT_decl_line(0x71)
    2130                    .dwattr $C$DW$90, DW_AT_decl_column(0x05)
    2131            
    2132            $C$DW$91        .dwtag  DW_TAG_enumerator
MSP430 Assembler PC v21.6.1 Tue Dec 20 13:45:56 2022

Copyright (c) 2003-2018 Texas Instruments Incorporated
ADC ISR G.asm                                                        PAGE   41

    2133                    .dwattr $C$DW$91, DW_AT_name("cmnd")
    2134                    .dwattr $C$DW$91, DW_AT_const_value(0x02)
    2135                    .dwattr $C$DW$91, DW_AT_decl_file("C:/Users/MCourson/workspace_v11/MZERO_HB50Board/include/Mai
    2136                    .dwattr $C$DW$91, DW_AT_decl_line(0x72)
    2137                    .dwattr $C$DW$91, DW_AT_decl_column(0x05)
    2138            
    2139            $C$DW$92        .dwtag  DW_TAG_enumerator
    2140                    .dwattr $C$DW$92, DW_AT_name("dataln")
    2141                    .dwattr $C$DW$92, DW_AT_const_value(0x03)
    2142                    .dwattr $C$DW$92, DW_AT_decl_file("C:/Users/MCourson/workspace_v11/MZERO_HB50Board/include/Mai
    2143                    .dwattr $C$DW$92, DW_AT_decl_line(0x73)
    2144                    .dwattr $C$DW$92, DW_AT_decl_column(0x05)
    2145            
    2146            $C$DW$93        .dwtag  DW_TAG_enumerator
    2147                    .dwattr $C$DW$93, DW_AT_name("chksum")
    2148                    .dwattr $C$DW$93, DW_AT_const_value(0x04)
    2149                    .dwattr $C$DW$93, DW_AT_decl_file("C:/Users/MCourson/workspace_v11/MZERO_HB50Board/include/Mai
    2150                    .dwattr $C$DW$93, DW_AT_decl_line(0x74)
    2151                    .dwattr $C$DW$93, DW_AT_decl_column(0x05)
    2152            
    2153            $C$DW$94        .dwtag  DW_TAG_enumerator
    2154                    .dwattr $C$DW$94, DW_AT_name("crc1")
    2155                    .dwattr $C$DW$94, DW_AT_const_value(0x05)
    2156                    .dwattr $C$DW$94, DW_AT_decl_file("C:/Users/MCourson/workspace_v11/MZERO_HB50Board/include/Mai
    2157                    .dwattr $C$DW$94, DW_AT_decl_line(0x75)
    2158                    .dwattr $C$DW$94, DW_AT_decl_column(0x05)
    2159            
    2160            $C$DW$95        .dwtag  DW_TAG_enumerator
    2161                    .dwattr $C$DW$95, DW_AT_name("crc2")
    2162                    .dwattr $C$DW$95, DW_AT_const_value(0x06)
    2163                    .dwattr $C$DW$95, DW_AT_decl_file("C:/Users/MCourson/workspace_v11/MZERO_HB50Board/include/Mai
    2164                    .dwattr $C$DW$95, DW_AT_decl_line(0x76)
    2165                    .dwattr $C$DW$95, DW_AT_decl_column(0x05)
    2166            
    2167            $C$DW$96        .dwtag  DW_TAG_enumerator
    2168                    .dwattr $C$DW$96, DW_AT_name("ack")
    2169                    .dwattr $C$DW$96, DW_AT_const_value(0x07)
    2170                    .dwattr $C$DW$96, DW_AT_decl_file("C:/Users/MCourson/workspace_v11/MZERO_HB50Board/include/Mai
    2171                    .dwattr $C$DW$96, DW_AT_decl_line(0x77)
    2172                    .dwattr $C$DW$96, DW_AT_decl_column(0x05)
    2173            
    2174            $C$DW$97        .dwtag  DW_TAG_enumerator
    2175                    .dwattr $C$DW$97, DW_AT_name("var")
    2176                    .dwattr $C$DW$97, DW_AT_const_value(0x08)
    2177                    .dwattr $C$DW$97, DW_AT_decl_file("C:/Users/MCourson/workspace_v11/MZERO_HB50Board/include/Mai
    2178                    .dwattr $C$DW$97, DW_AT_decl_line(0x78)
    2179                    .dwattr $C$DW$97, DW_AT_decl_column(0x05)
    2180            
    2181            $C$DW$98        .dwtag  DW_TAG_enumerator
    2182                    .dwattr $C$DW$98, DW_AT_name("UGmsg")
    2183                    .dwattr $C$DW$98, DW_AT_const_value(0x09)
    2184                    .dwattr $C$DW$98, DW_AT_decl_file("C:/Users/MCourson/workspace_v11/MZERO_HB50Board/include/Mai
    2185                    .dwattr $C$DW$98, DW_AT_decl_line(0x79)
    2186                    .dwattr $C$DW$98, DW_AT_decl_column(0x05)
    2187            
MSP430 Assembler PC v21.6.1 Tue Dec 20 13:45:56 2022

Copyright (c) 2003-2018 Texas Instruments Incorporated
ADC ISR G.asm                                                        PAGE   42

    2188                    .dwattr $C$DW$T$57, DW_AT_decl_file("C:/Users/MCourson/workspace_v11/MZERO_HB50Board/include/M
    2189                    .dwattr $C$DW$T$57, DW_AT_decl_line(0x6f)
    2190                    .dwattr $C$DW$T$57, DW_AT_decl_column(0x0e)
    2191                    .dwendtag $C$DW$T$57
    2192            
    2193            $C$DW$T$58      .dwtag  DW_TAG_typedef
    2194                    .dwattr $C$DW$T$58, DW_AT_name("MessageFields")
    2195                    .dwattr $C$DW$T$58, DW_AT_type(*$C$DW$T$57)
    2196                    .dwattr $C$DW$T$58, DW_AT_language(DW_LANG_C)
    2197                    .dwattr $C$DW$T$58, DW_AT_decl_file("C:/Users/MCourson/workspace_v11/MZERO_HB50Board/include/M
    2198                    .dwattr $C$DW$T$58, DW_AT_decl_line(0x7a)
    2199                    .dwattr $C$DW$T$58, DW_AT_decl_column(0x03)
    2200            
    2201            
    2202            $C$DW$T$59      .dwtag  DW_TAG_enumeration_type
    2203                    .dwattr $C$DW$T$59, DW_AT_byte_size(0x02)
    2204            $C$DW$99        .dwtag  DW_TAG_enumerator
    2205                    .dwattr $C$DW$99, DW_AT_name("init")
    2206                    .dwattr $C$DW$99, DW_AT_const_value(0x00)
    2207                    .dwattr $C$DW$99, DW_AT_decl_file("C:/Users/MCourson/workspace_v11/MZERO_HB50Board/include/Mai
    2208                    .dwattr $C$DW$99, DW_AT_decl_line(0x80)
    2209                    .dwattr $C$DW$99, DW_AT_decl_column(0x05)
    2210            
    2211            $C$DW$100       .dwtag  DW_TAG_enumerator
    2212                    .dwattr $C$DW$100, DW_AT_name("running")
    2213                    .dwattr $C$DW$100, DW_AT_const_value(0x01)
    2214                    .dwattr $C$DW$100, DW_AT_decl_file("C:/Users/MCourson/workspace_v11/MZERO_HB50Board/include/Ma
    2215                    .dwattr $C$DW$100, DW_AT_decl_line(0x80)
    2216                    .dwattr $C$DW$100, DW_AT_decl_column(0x0b)
    2217            
    2218            $C$DW$101       .dwtag  DW_TAG_enumerator
    2219                    .dwattr $C$DW$101, DW_AT_name("wait")
    2220                    .dwattr $C$DW$101, DW_AT_const_value(0x02)
    2221                    .dwattr $C$DW$101, DW_AT_decl_file("C:/Users/MCourson/workspace_v11/MZERO_HB50Board/include/Ma
    2222                    .dwattr $C$DW$101, DW_AT_decl_line(0x80)
    2223                    .dwattr $C$DW$101, DW_AT_decl_column(0x14)
    2224            
    2225                    .dwattr $C$DW$T$59, DW_AT_decl_file("C:/Users/MCourson/workspace_v11/MZERO_HB50Board/include/M
    2226                    .dwattr $C$DW$T$59, DW_AT_decl_line(0x7f)
    2227                    .dwattr $C$DW$T$59, DW_AT_decl_column(0x01)
    2228                    .dwendtag $C$DW$T$59
    2229            
    2230            $C$DW$T$60      .dwtag  DW_TAG_typedef
    2231                    .dwattr $C$DW$T$60, DW_AT_name("StatusFields")
    2232                    .dwattr $C$DW$T$60, DW_AT_type(*$C$DW$T$59)
    2233                    .dwattr $C$DW$T$60, DW_AT_language(DW_LANG_C)
    2234                    .dwattr $C$DW$T$60, DW_AT_decl_file("C:/Users/MCourson/workspace_v11/MZERO_HB50Board/include/M
    2235                    .dwattr $C$DW$T$60, DW_AT_decl_line(0x81)
    2236                    .dwattr $C$DW$T$60, DW_AT_decl_column(0x03)
    2237            
    2238            
    2239            $C$DW$T$22      .dwtag  DW_TAG_structure_type
    2240                    .dwattr $C$DW$T$22, DW_AT_byte_size(0x10)
    2241            $C$DW$102       .dwtag  DW_TAG_member
    2242                    .dwattr $C$DW$102, DW_AT_type(*$C$DW$T$14)
MSP430 Assembler PC v21.6.1 Tue Dec 20 13:45:56 2022

Copyright (c) 2003-2018 Texas Instruments Incorporated
ADC ISR G.asm                                                        PAGE   43

    2243                    .dwattr $C$DW$102, DW_AT_name("__max_align1")
    2244                    .dwattr $C$DW$102, DW_AT_TI_symbol_name("__max_align1")
    2245                    .dwattr $C$DW$102, DW_AT_data_member_location[DW_OP_plus_uconst 0x0]
    2246                    .dwattr $C$DW$102, DW_AT_accessibility(DW_ACCESS_public)
    2247                    .dwattr $C$DW$102, DW_AT_decl_file("C:/ti/ccs1110/ccs/tools/compiler/ti-cgt-msp430_21.6.1.LTS/
    2248                    .dwattr $C$DW$102, DW_AT_decl_line(0x7b)
    2249                    .dwattr $C$DW$102, DW_AT_decl_column(0x0c)
    2250            
    2251            $C$DW$103       .dwtag  DW_TAG_member
    2252                    .dwattr $C$DW$103, DW_AT_type(*$C$DW$T$18)
    2253                    .dwattr $C$DW$103, DW_AT_name("__max_align2")
    2254                    .dwattr $C$DW$103, DW_AT_TI_symbol_name("__max_align2")
    2255                    .dwattr $C$DW$103, DW_AT_data_member_location[DW_OP_plus_uconst 0x8]
    2256                    .dwattr $C$DW$103, DW_AT_accessibility(DW_ACCESS_public)
    2257                    .dwattr $C$DW$103, DW_AT_decl_file("C:/ti/ccs1110/ccs/tools/compiler/ti-cgt-msp430_21.6.1.LTS/
    2258                    .dwattr $C$DW$103, DW_AT_decl_line(0x7c)
    2259                    .dwattr $C$DW$103, DW_AT_decl_column(0x0e)
    2260            
    2261                    .dwattr $C$DW$T$22, DW_AT_decl_file("C:/ti/ccs1110/ccs/tools/compiler/ti-cgt-msp430_21.6.1.LTS
    2262                    .dwattr $C$DW$T$22, DW_AT_decl_line(0x7a)
    2263                    .dwattr $C$DW$T$22, DW_AT_decl_column(0x10)
    2264                    .dwendtag $C$DW$T$22
    2265            
    2266            $C$DW$T$61      .dwtag  DW_TAG_typedef
    2267                    .dwattr $C$DW$T$61, DW_AT_name("__max_align_t")
    2268                    .dwattr $C$DW$T$61, DW_AT_type(*$C$DW$T$22)
    2269                    .dwattr $C$DW$T$61, DW_AT_language(DW_LANG_C)
    2270                    .dwattr $C$DW$T$61, DW_AT_decl_file("C:/ti/ccs1110/ccs/tools/compiler/ti-cgt-msp430_21.6.1.LTS
    2271                    .dwattr $C$DW$T$61, DW_AT_decl_line(0x7d)
    2272                    .dwattr $C$DW$T$61, DW_AT_decl_column(0x03)
    2273            
    2274            
    2275            $C$DW$T$25      .dwtag  DW_TAG_structure_type
    2276                    .dwattr $C$DW$T$25, DW_AT_name("ADC12_A_configureMemoryParam")
    2277                    .dwattr $C$DW$T$25, DW_AT_byte_size(0x05)
    2278            $C$DW$104       .dwtag  DW_TAG_member
    2279                    .dwattr $C$DW$104, DW_AT_type(*$C$DW$T$24)
    2280                    .dwattr $C$DW$104, DW_AT_name("memoryBufferControlIndex")
    2281                    .dwattr $C$DW$104, DW_AT_TI_symbol_name("memoryBufferControlIndex")
    2282                    .dwattr $C$DW$104, DW_AT_data_member_location[DW_OP_plus_uconst 0x0]
    2283                    .dwattr $C$DW$104, DW_AT_accessibility(DW_ACCESS_public)
    2284                    .dwattr $C$DW$104, DW_AT_decl_file("C:/Users/MCourson/workspace_v11/MZERO_HB50Board/include/ad
    2285                    .dwattr $C$DW$104, DW_AT_decl_line(0x27)
    2286                    .dwattr $C$DW$104, DW_AT_decl_column(0x0d)
    2287            
    2288            $C$DW$105       .dwtag  DW_TAG_member
    2289                    .dwattr $C$DW$105, DW_AT_type(*$C$DW$T$24)
    2290                    .dwattr $C$DW$105, DW_AT_name("inputSourceSelect")
    2291                    .dwattr $C$DW$105, DW_AT_TI_symbol_name("inputSourceSelect")
    2292                    .dwattr $C$DW$105, DW_AT_data_member_location[DW_OP_plus_uconst 0x1]
    2293                    .dwattr $C$DW$105, DW_AT_accessibility(DW_ACCESS_public)
    2294                    .dwattr $C$DW$105, DW_AT_decl_file("C:/Users/MCourson/workspace_v11/MZERO_HB50Board/include/ad
    2295                    .dwattr $C$DW$105, DW_AT_decl_line(0x3b)
    2296                    .dwattr $C$DW$105, DW_AT_decl_column(0x0d)
    2297            
MSP430 Assembler PC v21.6.1 Tue Dec 20 13:45:56 2022

Copyright (c) 2003-2018 Texas Instruments Incorporated
ADC ISR G.asm                                                        PAGE   44

    2298            $C$DW$106       .dwtag  DW_TAG_member
    2299                    .dwattr $C$DW$106, DW_AT_type(*$C$DW$T$24)
    2300                    .dwattr $C$DW$106, DW_AT_name("positiveRefVoltageSourceSelect")
    2301                    .dwattr $C$DW$106, DW_AT_TI_symbol_name("positiveRefVoltageSourceSelect")
    2302                    .dwattr $C$DW$106, DW_AT_data_member_location[DW_OP_plus_uconst 0x2]
    2303                    .dwattr $C$DW$106, DW_AT_accessibility(DW_ACCESS_public)
    2304                    .dwattr $C$DW$106, DW_AT_decl_file("C:/Users/MCourson/workspace_v11/MZERO_HB50Board/include/ad
    2305                    .dwattr $C$DW$106, DW_AT_decl_line(0x42)
    2306                    .dwattr $C$DW$106, DW_AT_decl_column(0x0d)
    2307            
    2308            $C$DW$107       .dwtag  DW_TAG_member
    2309                    .dwattr $C$DW$107, DW_AT_type(*$C$DW$T$24)
    2310                    .dwattr $C$DW$107, DW_AT_name("negativeRefVoltageSourceSelect")
    2311                    .dwattr $C$DW$107, DW_AT_TI_symbol_name("negativeRefVoltageSourceSelect")
    2312                    .dwattr $C$DW$107, DW_AT_data_member_location[DW_OP_plus_uconst 0x3]
    2313                    .dwattr $C$DW$107, DW_AT_accessibility(DW_ACCESS_public)
    2314                    .dwattr $C$DW$107, DW_AT_decl_file("C:/Users/MCourson/workspace_v11/MZERO_HB50Board/include/ad
    2315                    .dwattr $C$DW$107, DW_AT_decl_line(0x48)
    2316                    .dwattr $C$DW$107, DW_AT_decl_column(0x0d)
    2317            
    2318            $C$DW$108       .dwtag  DW_TAG_member
    2319                    .dwattr $C$DW$108, DW_AT_type(*$C$DW$T$24)
    2320                    .dwattr $C$DW$108, DW_AT_name("endOfSequence")
    2321                    .dwattr $C$DW$108, DW_AT_TI_symbol_name("endOfSequence")
    2322                    .dwattr $C$DW$108, DW_AT_data_member_location[DW_OP_plus_uconst 0x4]
    2323                    .dwattr $C$DW$108, DW_AT_accessibility(DW_ACCESS_public)
    2324                    .dwattr $C$DW$108, DW_AT_decl_file("C:/Users/MCourson/workspace_v11/MZERO_HB50Board/include/ad
    2325                    .dwattr $C$DW$108, DW_AT_decl_line(0x51)
    2326                    .dwattr $C$DW$108, DW_AT_decl_column(0x0d)
    2327            
    2328                    .dwattr $C$DW$T$25, DW_AT_decl_file("C:/Users/MCourson/workspace_v11/MZERO_HB50Board/include/a
    2329                    .dwattr $C$DW$T$25, DW_AT_decl_line(0x14)
    2330                    .dwattr $C$DW$T$25, DW_AT_decl_column(0x10)
    2331                    .dwendtag $C$DW$T$25
    2332            
    2333            $C$DW$T$62      .dwtag  DW_TAG_typedef
    2334                    .dwattr $C$DW$T$62, DW_AT_name("ADC12_A_configureMemoryParam")
    2335                    .dwattr $C$DW$T$62, DW_AT_type(*$C$DW$T$25)
    2336                    .dwattr $C$DW$T$62, DW_AT_language(DW_LANG_C)
    2337                    .dwattr $C$DW$T$62, DW_AT_decl_file("C:/Users/MCourson/workspace_v11/MZERO_HB50Board/include/a
    2338                    .dwattr $C$DW$T$62, DW_AT_decl_line(0x52)
    2339                    .dwattr $C$DW$T$62, DW_AT_decl_column(0x03)
    2340            
    2341            
    2342            $C$DW$T$28      .dwtag  DW_TAG_structure_type
    2343                    .dwattr $C$DW$T$28, DW_AT_name("Timer_A_initCaptureModeParam")
    2344                    .dwattr $C$DW$T$28, DW_AT_byte_size(0x0c)
    2345            $C$DW$109       .dwtag  DW_TAG_member
    2346                    .dwattr $C$DW$109, DW_AT_type(*$C$DW$T$27)
    2347                    .dwattr $C$DW$109, DW_AT_name("captureRegister")
    2348                    .dwattr $C$DW$109, DW_AT_TI_symbol_name("captureRegister")
    2349                    .dwattr $C$DW$109, DW_AT_data_member_location[DW_OP_plus_uconst 0x0]
    2350                    .dwattr $C$DW$109, DW_AT_accessibility(DW_ACCESS_public)
    2351                    .dwattr $C$DW$109, DW_AT_decl_file("C:/Users/MCourson/workspace_v11/MZERO_HB50Board/include/ti
    2352                    .dwattr $C$DW$109, DW_AT_decl_line(0x58)
MSP430 Assembler PC v21.6.1 Tue Dec 20 13:45:56 2022

Copyright (c) 2003-2018 Texas Instruments Incorporated
ADC ISR G.asm                                                        PAGE   45

    2353                    .dwattr $C$DW$109, DW_AT_decl_column(0x0e)
    2354            
    2355            $C$DW$110       .dwtag  DW_TAG_member
    2356                    .dwattr $C$DW$110, DW_AT_type(*$C$DW$T$27)
    2357                    .dwattr $C$DW$110, DW_AT_name("captureMode")
    2358                    .dwattr $C$DW$110, DW_AT_TI_symbol_name("captureMode")
    2359                    .dwattr $C$DW$110, DW_AT_data_member_location[DW_OP_plus_uconst 0x2]
    2360                    .dwattr $C$DW$110, DW_AT_accessibility(DW_ACCESS_public)
    2361                    .dwattr $C$DW$110, DW_AT_decl_file("C:/Users/MCourson/workspace_v11/MZERO_HB50Board/include/ti
    2362                    .dwattr $C$DW$110, DW_AT_decl_line(0x5f)
    2363                    .dwattr $C$DW$110, DW_AT_decl_column(0x0e)
    2364            
    2365            $C$DW$111       .dwtag  DW_TAG_member
    2366                    .dwattr $C$DW$111, DW_AT_type(*$C$DW$T$27)
    2367                    .dwattr $C$DW$111, DW_AT_name("captureInputSelect")
    2368                    .dwattr $C$DW$111, DW_AT_TI_symbol_name("captureInputSelect")
    2369                    .dwattr $C$DW$111, DW_AT_data_member_location[DW_OP_plus_uconst 0x4]
    2370                    .dwattr $C$DW$111, DW_AT_accessibility(DW_ACCESS_public)
    2371                    .dwattr $C$DW$111, DW_AT_decl_file("C:/Users/MCourson/workspace_v11/MZERO_HB50Board/include/ti
    2372                    .dwattr $C$DW$111, DW_AT_decl_line(0x66)
    2373                    .dwattr $C$DW$111, DW_AT_decl_column(0x0e)
    2374            
    2375            $C$DW$112       .dwtag  DW_TAG_member
    2376                    .dwattr $C$DW$112, DW_AT_type(*$C$DW$T$27)
    2377                    .dwattr $C$DW$112, DW_AT_name("synchronizeCaptureSource")
    2378                    .dwattr $C$DW$112, DW_AT_TI_symbol_name("synchronizeCaptureSource")
    2379                    .dwattr $C$DW$112, DW_AT_data_member_location[DW_OP_plus_uconst 0x6]
    2380                    .dwattr $C$DW$112, DW_AT_accessibility(DW_ACCESS_public)
    2381                    .dwattr $C$DW$112, DW_AT_decl_file("C:/Users/MCourson/workspace_v11/MZERO_HB50Board/include/ti
    2382                    .dwattr $C$DW$112, DW_AT_decl_line(0x6b)
    2383                    .dwattr $C$DW$112, DW_AT_decl_column(0x0e)
    2384            
    2385            $C$DW$113       .dwtag  DW_TAG_member
    2386                    .dwattr $C$DW$113, DW_AT_type(*$C$DW$T$27)
    2387                    .dwattr $C$DW$113, DW_AT_name("captureInterruptEnable")
    2388                    .dwattr $C$DW$113, DW_AT_TI_symbol_name("captureInterruptEnable")
    2389                    .dwattr $C$DW$113, DW_AT_data_member_location[DW_OP_plus_uconst 0x8]
    2390                    .dwattr $C$DW$113, DW_AT_accessibility(DW_ACCESS_public)
    2391                    .dwattr $C$DW$113, DW_AT_decl_file("C:/Users/MCourson/workspace_v11/MZERO_HB50Board/include/ti
    2392                    .dwattr $C$DW$113, DW_AT_decl_line(0x70)
    2393                    .dwattr $C$DW$113, DW_AT_decl_column(0x0e)
    2394            
    2395            $C$DW$114       .dwtag  DW_TAG_member
    2396                    .dwattr $C$DW$114, DW_AT_type(*$C$DW$T$27)
    2397                    .dwattr $C$DW$114, DW_AT_name("captureOutputMode")
    2398                    .dwattr $C$DW$114, DW_AT_TI_symbol_name("captureOutputMode")
    2399                    .dwattr $C$DW$114, DW_AT_data_member_location[DW_OP_plus_uconst 0xa]
    2400                    .dwattr $C$DW$114, DW_AT_accessibility(DW_ACCESS_public)
    2401                    .dwattr $C$DW$114, DW_AT_decl_file("C:/Users/MCourson/workspace_v11/MZERO_HB50Board/include/ti
    2402                    .dwattr $C$DW$114, DW_AT_decl_line(0x7b)
    2403                    .dwattr $C$DW$114, DW_AT_decl_column(0x0e)
    2404            
    2405                    .dwattr $C$DW$T$28, DW_AT_decl_file("C:/Users/MCourson/workspace_v11/MZERO_HB50Board/include/t
    2406                    .dwattr $C$DW$T$28, DW_AT_decl_line(0x4d)
    2407                    .dwattr $C$DW$T$28, DW_AT_decl_column(0x10)
MSP430 Assembler PC v21.6.1 Tue Dec 20 13:45:56 2022

Copyright (c) 2003-2018 Texas Instruments Incorporated
ADC ISR G.asm                                                        PAGE   46

    2408                    .dwendtag $C$DW$T$28
    2409            
    2410            $C$DW$T$63      .dwtag  DW_TAG_typedef
    2411                    .dwattr $C$DW$T$63, DW_AT_name("Timer_A_initCaptureModeParam")
    2412                    .dwattr $C$DW$T$63, DW_AT_type(*$C$DW$T$28)
    2413                    .dwattr $C$DW$T$63, DW_AT_language(DW_LANG_C)
    2414                    .dwattr $C$DW$T$63, DW_AT_decl_file("C:/Users/MCourson/workspace_v11/MZERO_HB50Board/include/t
    2415                    .dwattr $C$DW$T$63, DW_AT_decl_line(0x7c)
    2416                    .dwattr $C$DW$T$63, DW_AT_decl_column(0x03)
    2417            
    2418            
    2419            $C$DW$T$29      .dwtag  DW_TAG_structure_type
    2420                    .dwattr $C$DW$T$29, DW_AT_name("Timer_A_initCompareModeParam")
    2421                    .dwattr $C$DW$T$29, DW_AT_byte_size(0x08)
    2422            $C$DW$115       .dwtag  DW_TAG_member
    2423                    .dwattr $C$DW$115, DW_AT_type(*$C$DW$T$27)
    2424                    .dwattr $C$DW$115, DW_AT_name("compareRegister")
    2425                    .dwattr $C$DW$115, DW_AT_TI_symbol_name("compareRegister")
    2426                    .dwattr $C$DW$115, DW_AT_data_member_location[DW_OP_plus_uconst 0x0]
    2427                    .dwattr $C$DW$115, DW_AT_accessibility(DW_ACCESS_public)
    2428                    .dwattr $C$DW$115, DW_AT_decl_file("C:/Users/MCourson/workspace_v11/MZERO_HB50Board/include/ti
    2429                    .dwattr $C$DW$115, DW_AT_decl_line(0x145)
    2430                    .dwattr $C$DW$115, DW_AT_decl_column(0x0e)
    2431            
    2432            $C$DW$116       .dwtag  DW_TAG_member
    2433                    .dwattr $C$DW$116, DW_AT_type(*$C$DW$T$27)
    2434                    .dwattr $C$DW$116, DW_AT_name("compareInterruptEnable")
    2435                    .dwattr $C$DW$116, DW_AT_TI_symbol_name("compareInterruptEnable")
    2436                    .dwattr $C$DW$116, DW_AT_data_member_location[DW_OP_plus_uconst 0x2]
    2437                    .dwattr $C$DW$116, DW_AT_accessibility(DW_ACCESS_public)
    2438                    .dwattr $C$DW$116, DW_AT_decl_file("C:/Users/MCourson/workspace_v11/MZERO_HB50Board/include/ti
    2439                    .dwattr $C$DW$116, DW_AT_decl_line(0x14a)
    2440                    .dwattr $C$DW$116, DW_AT_decl_column(0x0e)
    2441            
    2442            $C$DW$117       .dwtag  DW_TAG_member
    2443                    .dwattr $C$DW$117, DW_AT_type(*$C$DW$T$27)
    2444                    .dwattr $C$DW$117, DW_AT_name("compareOutputMode")
    2445                    .dwattr $C$DW$117, DW_AT_TI_symbol_name("compareOutputMode")
    2446                    .dwattr $C$DW$117, DW_AT_data_member_location[DW_OP_plus_uconst 0x4]
    2447                    .dwattr $C$DW$117, DW_AT_accessibility(DW_ACCESS_public)
    2448                    .dwattr $C$DW$117, DW_AT_decl_file("C:/Users/MCourson/workspace_v11/MZERO_HB50Board/include/ti
    2449                    .dwattr $C$DW$117, DW_AT_decl_line(0x155)
    2450                    .dwattr $C$DW$117, DW_AT_decl_column(0x0e)
    2451            
    2452            $C$DW$118       .dwtag  DW_TAG_member
    2453                    .dwattr $C$DW$118, DW_AT_type(*$C$DW$T$27)
    2454                    .dwattr $C$DW$118, DW_AT_name("compareValue")
    2455                    .dwattr $C$DW$118, DW_AT_TI_symbol_name("compareValue")
    2456                    .dwattr $C$DW$118, DW_AT_data_member_location[DW_OP_plus_uconst 0x6]
    2457                    .dwattr $C$DW$118, DW_AT_accessibility(DW_ACCESS_public)
    2458                    .dwattr $C$DW$118, DW_AT_decl_file("C:/Users/MCourson/workspace_v11/MZERO_HB50Board/include/ti
    2459                    .dwattr $C$DW$118, DW_AT_decl_line(0x157)
    2460                    .dwattr $C$DW$118, DW_AT_decl_column(0x0e)
    2461            
    2462                    .dwattr $C$DW$T$29, DW_AT_decl_file("C:/Users/MCourson/workspace_v11/MZERO_HB50Board/include/t
MSP430 Assembler PC v21.6.1 Tue Dec 20 13:45:56 2022

Copyright (c) 2003-2018 Texas Instruments Incorporated
ADC ISR G.asm                                                        PAGE   47

    2463                    .dwattr $C$DW$T$29, DW_AT_decl_line(0x13a)
    2464                    .dwattr $C$DW$T$29, DW_AT_decl_column(0x10)
    2465                    .dwendtag $C$DW$T$29
    2466            
    2467            $C$DW$T$64      .dwtag  DW_TAG_typedef
    2468                    .dwattr $C$DW$T$64, DW_AT_name("Timer_A_initCompareModeParam")
    2469                    .dwattr $C$DW$T$64, DW_AT_type(*$C$DW$T$29)
    2470                    .dwattr $C$DW$T$64, DW_AT_language(DW_LANG_C)
    2471                    .dwattr $C$DW$T$64, DW_AT_decl_file("C:/Users/MCourson/workspace_v11/MZERO_HB50Board/include/t
    2472                    .dwattr $C$DW$T$64, DW_AT_decl_line(0x158)
    2473                    .dwattr $C$DW$T$64, DW_AT_decl_column(0x03)
    2474            
    2475            
    2476            $C$DW$T$31      .dwtag  DW_TAG_structure_type
    2477                    .dwattr $C$DW$T$31, DW_AT_name("Timer_A_initContinuousModeParam")
    2478                    .dwattr $C$DW$T$31, DW_AT_byte_size(0x0a)
    2479            $C$DW$119       .dwtag  DW_TAG_member
    2480                    .dwattr $C$DW$119, DW_AT_type(*$C$DW$T$27)
    2481                    .dwattr $C$DW$119, DW_AT_name("clockSource")
    2482                    .dwattr $C$DW$119, DW_AT_TI_symbol_name("clockSource")
    2483                    .dwattr $C$DW$119, DW_AT_data_member_location[DW_OP_plus_uconst 0x0]
    2484                    .dwattr $C$DW$119, DW_AT_accessibility(DW_ACCESS_public)
    2485                    .dwattr $C$DW$119, DW_AT_decl_file("C:/Users/MCourson/workspace_v11/MZERO_HB50Board/include/ti
    2486                    .dwattr $C$DW$119, DW_AT_decl_line(0x20)
    2487                    .dwattr $C$DW$119, DW_AT_decl_column(0x0e)
    2488            
    2489            $C$DW$120       .dwtag  DW_TAG_member
    2490                    .dwattr $C$DW$120, DW_AT_type(*$C$DW$T$27)
    2491                    .dwattr $C$DW$120, DW_AT_name("clockSourceDivider")
    2492                    .dwattr $C$DW$120, DW_AT_TI_symbol_name("clockSourceDivider")
    2493                    .dwattr $C$DW$120, DW_AT_data_member_location[DW_OP_plus_uconst 0x2]
    2494                    .dwattr $C$DW$120, DW_AT_accessibility(DW_ACCESS_public)
    2495                    .dwattr $C$DW$120, DW_AT_decl_file("C:/Users/MCourson/workspace_v11/MZERO_HB50Board/include/ti
    2496                    .dwattr $C$DW$120, DW_AT_decl_line(0x37)
    2497                    .dwattr $C$DW$120, DW_AT_decl_column(0x0e)
    2498            
    2499            $C$DW$121       .dwtag  DW_TAG_member
    2500                    .dwattr $C$DW$121, DW_AT_type(*$C$DW$T$27)
    2501                    .dwattr $C$DW$121, DW_AT_name("timerInterruptEnable_TAIE")
    2502                    .dwattr $C$DW$121, DW_AT_TI_symbol_name("timerInterruptEnable_TAIE")
    2503                    .dwattr $C$DW$121, DW_AT_data_member_location[DW_OP_plus_uconst 0x4]
    2504                    .dwattr $C$DW$121, DW_AT_accessibility(DW_ACCESS_public)
    2505                    .dwattr $C$DW$121, DW_AT_decl_file("C:/Users/MCourson/workspace_v11/MZERO_HB50Board/include/ti
    2506                    .dwattr $C$DW$121, DW_AT_decl_line(0x3c)
    2507                    .dwattr $C$DW$121, DW_AT_decl_column(0x0e)
    2508            
    2509            $C$DW$122       .dwtag  DW_TAG_member
    2510                    .dwattr $C$DW$122, DW_AT_type(*$C$DW$T$27)
    2511                    .dwattr $C$DW$122, DW_AT_name("timerClear")
    2512                    .dwattr $C$DW$122, DW_AT_TI_symbol_name("timerClear")
    2513                    .dwattr $C$DW$122, DW_AT_data_member_location[DW_OP_plus_uconst 0x6]
    2514                    .dwattr $C$DW$122, DW_AT_accessibility(DW_ACCESS_public)
    2515                    .dwattr $C$DW$122, DW_AT_decl_file("C:/Users/MCourson/workspace_v11/MZERO_HB50Board/include/ti
    2516                    .dwattr $C$DW$122, DW_AT_decl_line(0x42)
    2517                    .dwattr $C$DW$122, DW_AT_decl_column(0x0e)
MSP430 Assembler PC v21.6.1 Tue Dec 20 13:45:56 2022

Copyright (c) 2003-2018 Texas Instruments Incorporated
ADC ISR G.asm                                                        PAGE   48

    2518            
    2519            $C$DW$123       .dwtag  DW_TAG_member
    2520                    .dwattr $C$DW$123, DW_AT_type(*$C$DW$T$30)
    2521                    .dwattr $C$DW$123, DW_AT_name("startTimer")
    2522                    .dwattr $C$DW$123, DW_AT_TI_symbol_name("startTimer")
    2523                    .dwattr $C$DW$123, DW_AT_data_member_location[DW_OP_plus_uconst 0x8]
    2524                    .dwattr $C$DW$123, DW_AT_accessibility(DW_ACCESS_public)
    2525                    .dwattr $C$DW$123, DW_AT_decl_file("C:/Users/MCourson/workspace_v11/MZERO_HB50Board/include/ti
    2526                    .dwattr $C$DW$123, DW_AT_decl_line(0x44)
    2527                    .dwattr $C$DW$123, DW_AT_decl_column(0x0a)
    2528            
    2529                    .dwattr $C$DW$T$31, DW_AT_decl_file("C:/Users/MCourson/workspace_v11/MZERO_HB50Board/include/t
    2530                    .dwattr $C$DW$T$31, DW_AT_decl_line(0x19)
    2531                    .dwattr $C$DW$T$31, DW_AT_decl_column(0x10)
    2532                    .dwendtag $C$DW$T$31
    2533            
    2534            $C$DW$T$65      .dwtag  DW_TAG_typedef
    2535                    .dwattr $C$DW$T$65, DW_AT_name("Timer_A_initContinuousModeParam")
    2536                    .dwattr $C$DW$T$65, DW_AT_type(*$C$DW$T$31)
    2537                    .dwattr $C$DW$T$65, DW_AT_language(DW_LANG_C)
    2538                    .dwattr $C$DW$T$65, DW_AT_decl_file("C:/Users/MCourson/workspace_v11/MZERO_HB50Board/include/t
    2539                    .dwattr $C$DW$T$65, DW_AT_decl_line(0x45)
    2540                    .dwattr $C$DW$T$65, DW_AT_decl_column(0x03)
    2541            
    2542            
    2543            $C$DW$T$32      .dwtag  DW_TAG_structure_type
    2544                    .dwattr $C$DW$T$32, DW_AT_name("Timer_A_initUpDownModeParam")
    2545                    .dwattr $C$DW$T$32, DW_AT_byte_size(0x0e)
    2546            $C$DW$124       .dwtag  DW_TAG_member
    2547                    .dwattr $C$DW$124, DW_AT_type(*$C$DW$T$27)
    2548                    .dwattr $C$DW$124, DW_AT_name("clockSource")
    2549                    .dwattr $C$DW$124, DW_AT_TI_symbol_name("clockSource")
    2550                    .dwattr $C$DW$124, DW_AT_data_member_location[DW_OP_plus_uconst 0x0]
    2551                    .dwattr $C$DW$124, DW_AT_accessibility(DW_ACCESS_public)
    2552                    .dwattr $C$DW$124, DW_AT_decl_file("C:/Users/MCourson/workspace_v11/MZERO_HB50Board/include/ti
    2553                    .dwattr $C$DW$124, DW_AT_decl_line(0x8b)
    2554                    .dwattr $C$DW$124, DW_AT_decl_column(0x0e)
    2555            
    2556            $C$DW$125       .dwtag  DW_TAG_member
    2557                    .dwattr $C$DW$125, DW_AT_type(*$C$DW$T$27)
    2558                    .dwattr $C$DW$125, DW_AT_name("clockSourceDivider")
    2559                    .dwattr $C$DW$125, DW_AT_TI_symbol_name("clockSourceDivider")
    2560                    .dwattr $C$DW$125, DW_AT_data_member_location[DW_OP_plus_uconst 0x2]
    2561                    .dwattr $C$DW$125, DW_AT_accessibility(DW_ACCESS_public)
    2562                    .dwattr $C$DW$125, DW_AT_decl_file("C:/Users/MCourson/workspace_v11/MZERO_HB50Board/include/ti
    2563                    .dwattr $C$DW$125, DW_AT_decl_line(0xa2)
    2564                    .dwattr $C$DW$125, DW_AT_decl_column(0x0e)
    2565            
    2566            $C$DW$126       .dwtag  DW_TAG_member
    2567                    .dwattr $C$DW$126, DW_AT_type(*$C$DW$T$27)
    2568                    .dwattr $C$DW$126, DW_AT_name("timerPeriod")
    2569                    .dwattr $C$DW$126, DW_AT_TI_symbol_name("timerPeriod")
    2570                    .dwattr $C$DW$126, DW_AT_data_member_location[DW_OP_plus_uconst 0x4]
    2571                    .dwattr $C$DW$126, DW_AT_accessibility(DW_ACCESS_public)
    2572                    .dwattr $C$DW$126, DW_AT_decl_file("C:/Users/MCourson/workspace_v11/MZERO_HB50Board/include/ti
MSP430 Assembler PC v21.6.1 Tue Dec 20 13:45:56 2022

Copyright (c) 2003-2018 Texas Instruments Incorporated
ADC ISR G.asm                                                        PAGE   49

    2573                    .dwattr $C$DW$126, DW_AT_decl_line(0xa4)
    2574                    .dwattr $C$DW$126, DW_AT_decl_column(0x0e)
    2575            
    2576            $C$DW$127       .dwtag  DW_TAG_member
    2577                    .dwattr $C$DW$127, DW_AT_type(*$C$DW$T$27)
    2578                    .dwattr $C$DW$127, DW_AT_name("timerInterruptEnable_TAIE")
    2579                    .dwattr $C$DW$127, DW_AT_TI_symbol_name("timerInterruptEnable_TAIE")
    2580                    .dwattr $C$DW$127, DW_AT_data_member_location[DW_OP_plus_uconst 0x6]
    2581                    .dwattr $C$DW$127, DW_AT_accessibility(DW_ACCESS_public)
    2582                    .dwattr $C$DW$127, DW_AT_decl_file("C:/Users/MCourson/workspace_v11/MZERO_HB50Board/include/ti
    2583                    .dwattr $C$DW$127, DW_AT_decl_line(0xa9)
    2584                    .dwattr $C$DW$127, DW_AT_decl_column(0x0e)
    2585            
    2586            $C$DW$128       .dwtag  DW_TAG_member
    2587                    .dwattr $C$DW$128, DW_AT_type(*$C$DW$T$27)
    2588                    .dwattr $C$DW$128, DW_AT_name("captureCompareInterruptEnable_CCR0_CCIE")
    2589                    .dwattr $C$DW$128, DW_AT_TI_symbol_name("captureCompareInterruptEnable_CCR0_CCIE")
    2590                    .dwattr $C$DW$128, DW_AT_data_member_location[DW_OP_plus_uconst 0x8]
    2591                    .dwattr $C$DW$128, DW_AT_accessibility(DW_ACCESS_public)
    2592                    .dwattr $C$DW$128, DW_AT_decl_file("C:/Users/MCourson/workspace_v11/MZERO_HB50Board/include/ti
    2593                    .dwattr $C$DW$128, DW_AT_decl_line(0xae)
    2594                    .dwattr $C$DW$128, DW_AT_decl_column(0x0e)
    2595            
    2596            $C$DW$129       .dwtag  DW_TAG_member
    2597                    .dwattr $C$DW$129, DW_AT_type(*$C$DW$T$27)
    2598                    .dwattr $C$DW$129, DW_AT_name("timerClear")
    2599                    .dwattr $C$DW$129, DW_AT_TI_symbol_name("timerClear")
    2600                    .dwattr $C$DW$129, DW_AT_data_member_location[DW_OP_plus_uconst 0xa]
    2601                    .dwattr $C$DW$129, DW_AT_accessibility(DW_ACCESS_public)
    2602                    .dwattr $C$DW$129, DW_AT_decl_file("C:/Users/MCourson/workspace_v11/MZERO_HB50Board/include/ti
    2603                    .dwattr $C$DW$129, DW_AT_decl_line(0xb4)
    2604                    .dwattr $C$DW$129, DW_AT_decl_column(0x0e)
    2605            
    2606            $C$DW$130       .dwtag  DW_TAG_member
    2607                    .dwattr $C$DW$130, DW_AT_type(*$C$DW$T$30)
    2608                    .dwattr $C$DW$130, DW_AT_name("startTimer")
    2609                    .dwattr $C$DW$130, DW_AT_TI_symbol_name("startTimer")
    2610                    .dwattr $C$DW$130, DW_AT_data_member_location[DW_OP_plus_uconst 0xc]
    2611                    .dwattr $C$DW$130, DW_AT_accessibility(DW_ACCESS_public)
    2612                    .dwattr $C$DW$130, DW_AT_decl_file("C:/Users/MCourson/workspace_v11/MZERO_HB50Board/include/ti
    2613                    .dwattr $C$DW$130, DW_AT_decl_line(0xb6)
    2614                    .dwattr $C$DW$130, DW_AT_decl_column(0x0a)
    2615            
    2616                    .dwattr $C$DW$T$32, DW_AT_decl_file("C:/Users/MCourson/workspace_v11/MZERO_HB50Board/include/t
    2617                    .dwattr $C$DW$T$32, DW_AT_decl_line(0x84)
    2618                    .dwattr $C$DW$T$32, DW_AT_decl_column(0x10)
    2619                    .dwendtag $C$DW$T$32
    2620            
    2621            $C$DW$T$66      .dwtag  DW_TAG_typedef
    2622                    .dwattr $C$DW$T$66, DW_AT_name("Timer_A_initUpDownModeParam")
    2623                    .dwattr $C$DW$T$66, DW_AT_type(*$C$DW$T$32)
    2624                    .dwattr $C$DW$T$66, DW_AT_language(DW_LANG_C)
    2625                    .dwattr $C$DW$T$66, DW_AT_decl_file("C:/Users/MCourson/workspace_v11/MZERO_HB50Board/include/t
    2626                    .dwattr $C$DW$T$66, DW_AT_decl_line(0xb7)
    2627                    .dwattr $C$DW$T$66, DW_AT_decl_column(0x03)
MSP430 Assembler PC v21.6.1 Tue Dec 20 13:45:56 2022

Copyright (c) 2003-2018 Texas Instruments Incorporated
ADC ISR G.asm                                                        PAGE   50

    2628            
    2629            
    2630            $C$DW$T$33      .dwtag  DW_TAG_structure_type
    2631                    .dwattr $C$DW$T$33, DW_AT_name("Timer_A_initUpModeParam")
    2632                    .dwattr $C$DW$T$33, DW_AT_byte_size(0x0e)
    2633            $C$DW$131       .dwtag  DW_TAG_member
    2634                    .dwattr $C$DW$131, DW_AT_type(*$C$DW$T$27)
    2635                    .dwattr $C$DW$131, DW_AT_name("clockSource")
    2636                    .dwattr $C$DW$131, DW_AT_TI_symbol_name("clockSource")
    2637                    .dwattr $C$DW$131, DW_AT_data_member_location[DW_OP_plus_uconst 0x0]
    2638                    .dwattr $C$DW$131, DW_AT_accessibility(DW_ACCESS_public)
    2639                    .dwattr $C$DW$131, DW_AT_decl_file("C:/Users/MCourson/workspace_v11/MZERO_HB50Board/include/ti
    2640                    .dwattr $C$DW$131, DW_AT_decl_line(0x105)
    2641                    .dwattr $C$DW$131, DW_AT_decl_column(0x0e)
    2642            
    2643            $C$DW$132       .dwtag  DW_TAG_member
    2644                    .dwattr $C$DW$132, DW_AT_type(*$C$DW$T$27)
    2645                    .dwattr $C$DW$132, DW_AT_name("clockSourceDivider")
    2646                    .dwattr $C$DW$132, DW_AT_TI_symbol_name("clockSourceDivider")
    2647                    .dwattr $C$DW$132, DW_AT_data_member_location[DW_OP_plus_uconst 0x2]
    2648                    .dwattr $C$DW$132, DW_AT_accessibility(DW_ACCESS_public)
    2649                    .dwattr $C$DW$132, DW_AT_decl_file("C:/Users/MCourson/workspace_v11/MZERO_HB50Board/include/ti
    2650                    .dwattr $C$DW$132, DW_AT_decl_line(0x11c)
    2651                    .dwattr $C$DW$132, DW_AT_decl_column(0x0e)
    2652            
    2653            $C$DW$133       .dwtag  DW_TAG_member
    2654                    .dwattr $C$DW$133, DW_AT_type(*$C$DW$T$27)
    2655                    .dwattr $C$DW$133, DW_AT_name("timerPeriod")
    2656                    .dwattr $C$DW$133, DW_AT_TI_symbol_name("timerPeriod")
    2657                    .dwattr $C$DW$133, DW_AT_data_member_location[DW_OP_plus_uconst 0x4]
    2658                    .dwattr $C$DW$133, DW_AT_accessibility(DW_ACCESS_public)
    2659                    .dwattr $C$DW$133, DW_AT_decl_file("C:/Users/MCourson/workspace_v11/MZERO_HB50Board/include/ti
    2660                    .dwattr $C$DW$133, DW_AT_decl_line(0x11f)
    2661                    .dwattr $C$DW$133, DW_AT_decl_column(0x0e)
    2662            
    2663            $C$DW$134       .dwtag  DW_TAG_member
    2664                    .dwattr $C$DW$134, DW_AT_type(*$C$DW$T$27)
    2665                    .dwattr $C$DW$134, DW_AT_name("timerInterruptEnable_TAIE")
    2666                    .dwattr $C$DW$134, DW_AT_TI_symbol_name("timerInterruptEnable_TAIE")
    2667                    .dwattr $C$DW$134, DW_AT_data_member_location[DW_OP_plus_uconst 0x6]
    2668                    .dwattr $C$DW$134, DW_AT_accessibility(DW_ACCESS_public)
    2669                    .dwattr $C$DW$134, DW_AT_decl_file("C:/Users/MCourson/workspace_v11/MZERO_HB50Board/include/ti
    2670                    .dwattr $C$DW$134, DW_AT_decl_line(0x124)
    2671                    .dwattr $C$DW$134, DW_AT_decl_column(0x0e)
    2672            
    2673            $C$DW$135       .dwtag  DW_TAG_member
    2674                    .dwattr $C$DW$135, DW_AT_type(*$C$DW$T$27)
    2675                    .dwattr $C$DW$135, DW_AT_name("captureCompareInterruptEnable_CCR0_CCIE")
    2676                    .dwattr $C$DW$135, DW_AT_TI_symbol_name("captureCompareInterruptEnable_CCR0_CCIE")
    2677                    .dwattr $C$DW$135, DW_AT_data_member_location[DW_OP_plus_uconst 0x8]
    2678                    .dwattr $C$DW$135, DW_AT_accessibility(DW_ACCESS_public)
    2679                    .dwattr $C$DW$135, DW_AT_decl_file("C:/Users/MCourson/workspace_v11/MZERO_HB50Board/include/ti
    2680                    .dwattr $C$DW$135, DW_AT_decl_line(0x129)
    2681                    .dwattr $C$DW$135, DW_AT_decl_column(0x0e)
    2682            
MSP430 Assembler PC v21.6.1 Tue Dec 20 13:45:56 2022

Copyright (c) 2003-2018 Texas Instruments Incorporated
ADC ISR G.asm                                                        PAGE   51

    2683            $C$DW$136       .dwtag  DW_TAG_member
    2684                    .dwattr $C$DW$136, DW_AT_type(*$C$DW$T$27)
    2685                    .dwattr $C$DW$136, DW_AT_name("timerClear")
    2686                    .dwattr $C$DW$136, DW_AT_TI_symbol_name("timerClear")
    2687                    .dwattr $C$DW$136, DW_AT_data_member_location[DW_OP_plus_uconst 0xa]
    2688                    .dwattr $C$DW$136, DW_AT_accessibility(DW_ACCESS_public)
    2689                    .dwattr $C$DW$136, DW_AT_decl_file("C:/Users/MCourson/workspace_v11/MZERO_HB50Board/include/ti
    2690                    .dwattr $C$DW$136, DW_AT_decl_line(0x12f)
    2691                    .dwattr $C$DW$136, DW_AT_decl_column(0x0e)
    2692            
    2693            $C$DW$137       .dwtag  DW_TAG_member
    2694                    .dwattr $C$DW$137, DW_AT_type(*$C$DW$T$30)
    2695                    .dwattr $C$DW$137, DW_AT_name("startTimer")
    2696                    .dwattr $C$DW$137, DW_AT_TI_symbol_name("startTimer")
    2697                    .dwattr $C$DW$137, DW_AT_data_member_location[DW_OP_plus_uconst 0xc]
    2698                    .dwattr $C$DW$137, DW_AT_accessibility(DW_ACCESS_public)
    2699                    .dwattr $C$DW$137, DW_AT_decl_file("C:/Users/MCourson/workspace_v11/MZERO_HB50Board/include/ti
    2700                    .dwattr $C$DW$137, DW_AT_decl_line(0x131)
    2701                    .dwattr $C$DW$137, DW_AT_decl_column(0x0a)
    2702            
    2703                    .dwattr $C$DW$T$33, DW_AT_decl_file("C:/Users/MCourson/workspace_v11/MZERO_HB50Board/include/t
    2704                    .dwattr $C$DW$T$33, DW_AT_decl_line(0xfe)
    2705                    .dwattr $C$DW$T$33, DW_AT_decl_column(0x10)
    2706                    .dwendtag $C$DW$T$33
    2707            
    2708            $C$DW$T$67      .dwtag  DW_TAG_typedef
    2709                    .dwattr $C$DW$T$67, DW_AT_name("Timer_A_initUpModeParam")
    2710                    .dwattr $C$DW$T$67, DW_AT_type(*$C$DW$T$33)
    2711                    .dwattr $C$DW$T$67, DW_AT_language(DW_LANG_C)
    2712                    .dwattr $C$DW$T$67, DW_AT_decl_file("C:/Users/MCourson/workspace_v11/MZERO_HB50Board/include/t
    2713                    .dwattr $C$DW$T$67, DW_AT_decl_line(0x132)
    2714                    .dwattr $C$DW$T$67, DW_AT_decl_column(0x03)
    2715            
    2716            
    2717            $C$DW$T$34      .dwtag  DW_TAG_structure_type
    2718                    .dwattr $C$DW$T$34, DW_AT_name("Timer_A_outputPWMParam")
    2719                    .dwattr $C$DW$T$34, DW_AT_byte_size(0x0c)
    2720            $C$DW$138       .dwtag  DW_TAG_member
    2721                    .dwattr $C$DW$138, DW_AT_type(*$C$DW$T$27)
    2722                    .dwattr $C$DW$138, DW_AT_name("clockSource")
    2723                    .dwattr $C$DW$138, DW_AT_TI_symbol_name("clockSource")
    2724                    .dwattr $C$DW$138, DW_AT_data_member_location[DW_OP_plus_uconst 0x0]
    2725                    .dwattr $C$DW$138, DW_AT_accessibility(DW_ACCESS_public)
    2726                    .dwattr $C$DW$138, DW_AT_decl_file("C:/Users/MCourson/workspace_v11/MZERO_HB50Board/include/ti
    2727                    .dwattr $C$DW$138, DW_AT_decl_line(0xc5)
    2728                    .dwattr $C$DW$138, DW_AT_decl_column(0x0e)
    2729            
    2730            $C$DW$139       .dwtag  DW_TAG_member
    2731                    .dwattr $C$DW$139, DW_AT_type(*$C$DW$T$27)
    2732                    .dwattr $C$DW$139, DW_AT_name("clockSourceDivider")
    2733                    .dwattr $C$DW$139, DW_AT_TI_symbol_name("clockSourceDivider")
    2734                    .dwattr $C$DW$139, DW_AT_data_member_location[DW_OP_plus_uconst 0x2]
    2735                    .dwattr $C$DW$139, DW_AT_accessibility(DW_ACCESS_public)
    2736                    .dwattr $C$DW$139, DW_AT_decl_file("C:/Users/MCourson/workspace_v11/MZERO_HB50Board/include/ti
    2737                    .dwattr $C$DW$139, DW_AT_decl_line(0xdc)
MSP430 Assembler PC v21.6.1 Tue Dec 20 13:45:56 2022

Copyright (c) 2003-2018 Texas Instruments Incorporated
ADC ISR G.asm                                                        PAGE   52

    2738                    .dwattr $C$DW$139, DW_AT_decl_column(0x0e)
    2739            
    2740            $C$DW$140       .dwtag  DW_TAG_member
    2741                    .dwattr $C$DW$140, DW_AT_type(*$C$DW$T$27)
    2742                    .dwattr $C$DW$140, DW_AT_name("timerPeriod")
    2743                    .dwattr $C$DW$140, DW_AT_TI_symbol_name("timerPeriod")
    2744                    .dwattr $C$DW$140, DW_AT_data_member_location[DW_OP_plus_uconst 0x4]
    2745                    .dwattr $C$DW$140, DW_AT_accessibility(DW_ACCESS_public)
    2746                    .dwattr $C$DW$140, DW_AT_decl_file("C:/Users/MCourson/workspace_v11/MZERO_HB50Board/include/ti
    2747                    .dwattr $C$DW$140, DW_AT_decl_line(0xde)
    2748                    .dwattr $C$DW$140, DW_AT_decl_column(0x0e)
    2749            
    2750            $C$DW$141       .dwtag  DW_TAG_member
    2751                    .dwattr $C$DW$141, DW_AT_type(*$C$DW$T$27)
    2752                    .dwattr $C$DW$141, DW_AT_name("compareRegister")
    2753                    .dwattr $C$DW$141, DW_AT_TI_symbol_name("compareRegister")
    2754                    .dwattr $C$DW$141, DW_AT_data_member_location[DW_OP_plus_uconst 0x6]
    2755                    .dwattr $C$DW$141, DW_AT_accessibility(DW_ACCESS_public)
    2756                    .dwattr $C$DW$141, DW_AT_decl_file("C:/Users/MCourson/workspace_v11/MZERO_HB50Board/include/ti
    2757                    .dwattr $C$DW$141, DW_AT_decl_line(0xe9)
    2758                    .dwattr $C$DW$141, DW_AT_decl_column(0x0e)
    2759            
    2760            $C$DW$142       .dwtag  DW_TAG_member
    2761                    .dwattr $C$DW$142, DW_AT_type(*$C$DW$T$27)
    2762                    .dwattr $C$DW$142, DW_AT_name("compareOutputMode")
    2763                    .dwattr $C$DW$142, DW_AT_TI_symbol_name("compareOutputMode")
    2764                    .dwattr $C$DW$142, DW_AT_data_member_location[DW_OP_plus_uconst 0x8]
    2765                    .dwattr $C$DW$142, DW_AT_accessibility(DW_ACCESS_public)
    2766                    .dwattr $C$DW$142, DW_AT_decl_file("C:/Users/MCourson/workspace_v11/MZERO_HB50Board/include/ti
    2767                    .dwattr $C$DW$142, DW_AT_decl_line(0xf4)
    2768                    .dwattr $C$DW$142, DW_AT_decl_column(0x0e)
    2769            
    2770            $C$DW$143       .dwtag  DW_TAG_member
    2771                    .dwattr $C$DW$143, DW_AT_type(*$C$DW$T$27)
    2772                    .dwattr $C$DW$143, DW_AT_name("dutyCycle")
    2773                    .dwattr $C$DW$143, DW_AT_TI_symbol_name("dutyCycle")
    2774                    .dwattr $C$DW$143, DW_AT_data_member_location[DW_OP_plus_uconst 0xa]
    2775                    .dwattr $C$DW$143, DW_AT_accessibility(DW_ACCESS_public)
    2776                    .dwattr $C$DW$143, DW_AT_decl_file("C:/Users/MCourson/workspace_v11/MZERO_HB50Board/include/ti
    2777                    .dwattr $C$DW$143, DW_AT_decl_line(0xf6)
    2778                    .dwattr $C$DW$143, DW_AT_decl_column(0x0e)
    2779            
    2780                    .dwattr $C$DW$T$34, DW_AT_decl_file("C:/Users/MCourson/workspace_v11/MZERO_HB50Board/include/t
    2781                    .dwattr $C$DW$T$34, DW_AT_decl_line(0xbe)
    2782                    .dwattr $C$DW$T$34, DW_AT_decl_column(0x10)
    2783                    .dwendtag $C$DW$T$34
    2784            
    2785            $C$DW$T$68      .dwtag  DW_TAG_typedef
    2786                    .dwattr $C$DW$T$68, DW_AT_name("Timer_A_outputPWMParam")
    2787                    .dwattr $C$DW$T$68, DW_AT_type(*$C$DW$T$34)
    2788                    .dwattr $C$DW$T$68, DW_AT_language(DW_LANG_C)
    2789                    .dwattr $C$DW$T$68, DW_AT_decl_file("C:/Users/MCourson/workspace_v11/MZERO_HB50Board/include/t
    2790                    .dwattr $C$DW$T$68, DW_AT_decl_line(0xf7)
    2791                    .dwattr $C$DW$T$68, DW_AT_decl_column(0x03)
    2792            
MSP430 Assembler PC v21.6.1 Tue Dec 20 13:45:56 2022

Copyright (c) 2003-2018 Texas Instruments Incorporated
ADC ISR G.asm                                                        PAGE   53

    2793            
    2794            $C$DW$T$35      .dwtag  DW_TAG_structure_type
    2795                    .dwattr $C$DW$T$35, DW_AT_name("Timer_B_initCaptureModeParam")
    2796                    .dwattr $C$DW$T$35, DW_AT_byte_size(0x0c)
    2797            $C$DW$144       .dwtag  DW_TAG_member
    2798                    .dwattr $C$DW$144, DW_AT_type(*$C$DW$T$27)
    2799                    .dwattr $C$DW$144, DW_AT_name("captureRegister")
    2800                    .dwattr $C$DW$144, DW_AT_TI_symbol_name("captureRegister")
    2801                    .dwattr $C$DW$144, DW_AT_data_member_location[DW_OP_plus_uconst 0x0]
    2802                    .dwattr $C$DW$144, DW_AT_accessibility(DW_ACCESS_public)
    2803                    .dwattr $C$DW$144, DW_AT_decl_file("C:/Users/MCourson/workspace_v11/MZERO_HB50Board/include/ti
    2804                    .dwattr $C$DW$144, DW_AT_decl_line(0xa0)
    2805                    .dwattr $C$DW$144, DW_AT_decl_column(0x0e)
    2806            
    2807            $C$DW$145       .dwtag  DW_TAG_member
    2808                    .dwattr $C$DW$145, DW_AT_type(*$C$DW$T$27)
    2809                    .dwattr $C$DW$145, DW_AT_name("captureMode")
    2810                    .dwattr $C$DW$145, DW_AT_TI_symbol_name("captureMode")
    2811                    .dwattr $C$DW$145, DW_AT_data_member_location[DW_OP_plus_uconst 0x2]
    2812                    .dwattr $C$DW$145, DW_AT_accessibility(DW_ACCESS_public)
    2813                    .dwattr $C$DW$145, DW_AT_decl_file("C:/Users/MCourson/workspace_v11/MZERO_HB50Board/include/ti
    2814                    .dwattr $C$DW$145, DW_AT_decl_line(0xa7)
    2815                    .dwattr $C$DW$145, DW_AT_decl_column(0x0e)
    2816            
    2817            $C$DW$146       .dwtag  DW_TAG_member
    2818                    .dwattr $C$DW$146, DW_AT_type(*$C$DW$T$27)
    2819                    .dwattr $C$DW$146, DW_AT_name("captureInputSelect")
    2820                    .dwattr $C$DW$146, DW_AT_TI_symbol_name("captureInputSelect")
    2821                    .dwattr $C$DW$146, DW_AT_data_member_location[DW_OP_plus_uconst 0x4]
    2822                    .dwattr $C$DW$146, DW_AT_accessibility(DW_ACCESS_public)
    2823                    .dwattr $C$DW$146, DW_AT_decl_file("C:/Users/MCourson/workspace_v11/MZERO_HB50Board/include/ti
    2824                    .dwattr $C$DW$146, DW_AT_decl_line(0xae)
    2825                    .dwattr $C$DW$146, DW_AT_decl_column(0x0e)
    2826            
    2827            $C$DW$147       .dwtag  DW_TAG_member
    2828                    .dwattr $C$DW$147, DW_AT_type(*$C$DW$T$27)
    2829                    .dwattr $C$DW$147, DW_AT_name("synchronizeCaptureSource")
    2830                    .dwattr $C$DW$147, DW_AT_TI_symbol_name("synchronizeCaptureSource")
    2831                    .dwattr $C$DW$147, DW_AT_data_member_location[DW_OP_plus_uconst 0x6]
    2832                    .dwattr $C$DW$147, DW_AT_accessibility(DW_ACCESS_public)
    2833                    .dwattr $C$DW$147, DW_AT_decl_file("C:/Users/MCourson/workspace_v11/MZERO_HB50Board/include/ti
    2834                    .dwattr $C$DW$147, DW_AT_decl_line(0xb3)
    2835                    .dwattr $C$DW$147, DW_AT_decl_column(0x0e)
    2836            
    2837            $C$DW$148       .dwtag  DW_TAG_member
    2838                    .dwattr $C$DW$148, DW_AT_type(*$C$DW$T$27)
    2839                    .dwattr $C$DW$148, DW_AT_name("captureInterruptEnable")
    2840                    .dwattr $C$DW$148, DW_AT_TI_symbol_name("captureInterruptEnable")
    2841                    .dwattr $C$DW$148, DW_AT_data_member_location[DW_OP_plus_uconst 0x8]
    2842                    .dwattr $C$DW$148, DW_AT_accessibility(DW_ACCESS_public)
    2843                    .dwattr $C$DW$148, DW_AT_decl_file("C:/Users/MCourson/workspace_v11/MZERO_HB50Board/include/ti
    2844                    .dwattr $C$DW$148, DW_AT_decl_line(0xb8)
    2845                    .dwattr $C$DW$148, DW_AT_decl_column(0x0e)
    2846            
    2847            $C$DW$149       .dwtag  DW_TAG_member
MSP430 Assembler PC v21.6.1 Tue Dec 20 13:45:56 2022

Copyright (c) 2003-2018 Texas Instruments Incorporated
ADC ISR G.asm                                                        PAGE   54

    2848                    .dwattr $C$DW$149, DW_AT_type(*$C$DW$T$27)
    2849                    .dwattr $C$DW$149, DW_AT_name("captureOutputMode")
    2850                    .dwattr $C$DW$149, DW_AT_TI_symbol_name("captureOutputMode")
    2851                    .dwattr $C$DW$149, DW_AT_data_member_location[DW_OP_plus_uconst 0xa]
    2852                    .dwattr $C$DW$149, DW_AT_accessibility(DW_ACCESS_public)
    2853                    .dwattr $C$DW$149, DW_AT_decl_file("C:/Users/MCourson/workspace_v11/MZERO_HB50Board/include/ti
    2854                    .dwattr $C$DW$149, DW_AT_decl_line(0xc3)
    2855                    .dwattr $C$DW$149, DW_AT_decl_column(0x0e)
    2856            
    2857                    .dwattr $C$DW$T$35, DW_AT_decl_file("C:/Users/MCourson/workspace_v11/MZERO_HB50Board/include/t
    2858                    .dwattr $C$DW$T$35, DW_AT_decl_line(0x95)
    2859                    .dwattr $C$DW$T$35, DW_AT_decl_column(0x10)
    2860                    .dwendtag $C$DW$T$35
    2861            
    2862            $C$DW$T$69      .dwtag  DW_TAG_typedef
    2863                    .dwattr $C$DW$T$69, DW_AT_name("Timer_B_initCaptureModeParam")
    2864                    .dwattr $C$DW$T$69, DW_AT_type(*$C$DW$T$35)
    2865                    .dwattr $C$DW$T$69, DW_AT_language(DW_LANG_C)
    2866                    .dwattr $C$DW$T$69, DW_AT_decl_file("C:/Users/MCourson/workspace_v11/MZERO_HB50Board/include/t
    2867                    .dwattr $C$DW$T$69, DW_AT_decl_line(0xc4)
    2868                    .dwattr $C$DW$T$69, DW_AT_decl_column(0x03)
    2869            
    2870            
    2871            $C$DW$T$36      .dwtag  DW_TAG_structure_type
    2872                    .dwattr $C$DW$T$36, DW_AT_name("Timer_B_initCompareModeParam")
    2873                    .dwattr $C$DW$T$36, DW_AT_byte_size(0x08)
    2874            $C$DW$150       .dwtag  DW_TAG_member
    2875                    .dwattr $C$DW$150, DW_AT_type(*$C$DW$T$27)
    2876                    .dwattr $C$DW$150, DW_AT_name("compareRegister")
    2877                    .dwattr $C$DW$150, DW_AT_TI_symbol_name("compareRegister")
    2878                    .dwattr $C$DW$150, DW_AT_data_member_location[DW_OP_plus_uconst 0x0]
    2879                    .dwattr $C$DW$150, DW_AT_accessibility(DW_ACCESS_public)
    2880                    .dwattr $C$DW$150, DW_AT_decl_file("C:/Users/MCourson/workspace_v11/MZERO_HB50Board/include/ti
    2881                    .dwattr $C$DW$150, DW_AT_decl_line(0x146)
    2882                    .dwattr $C$DW$150, DW_AT_decl_column(0x0e)
    2883            
    2884            $C$DW$151       .dwtag  DW_TAG_member
    2885                    .dwattr $C$DW$151, DW_AT_type(*$C$DW$T$27)
    2886                    .dwattr $C$DW$151, DW_AT_name("compareInterruptEnable")
    2887                    .dwattr $C$DW$151, DW_AT_TI_symbol_name("compareInterruptEnable")
    2888                    .dwattr $C$DW$151, DW_AT_data_member_location[DW_OP_plus_uconst 0x2]
    2889                    .dwattr $C$DW$151, DW_AT_accessibility(DW_ACCESS_public)
    2890                    .dwattr $C$DW$151, DW_AT_decl_file("C:/Users/MCourson/workspace_v11/MZERO_HB50Board/include/ti
    2891                    .dwattr $C$DW$151, DW_AT_decl_line(0x14b)
    2892                    .dwattr $C$DW$151, DW_AT_decl_column(0x0e)
    2893            
    2894            $C$DW$152       .dwtag  DW_TAG_member
    2895                    .dwattr $C$DW$152, DW_AT_type(*$C$DW$T$27)
    2896                    .dwattr $C$DW$152, DW_AT_name("compareOutputMode")
    2897                    .dwattr $C$DW$152, DW_AT_TI_symbol_name("compareOutputMode")
    2898                    .dwattr $C$DW$152, DW_AT_data_member_location[DW_OP_plus_uconst 0x4]
    2899                    .dwattr $C$DW$152, DW_AT_accessibility(DW_ACCESS_public)
    2900                    .dwattr $C$DW$152, DW_AT_decl_file("C:/Users/MCourson/workspace_v11/MZERO_HB50Board/include/ti
    2901                    .dwattr $C$DW$152, DW_AT_decl_line(0x156)
    2902                    .dwattr $C$DW$152, DW_AT_decl_column(0x0e)
MSP430 Assembler PC v21.6.1 Tue Dec 20 13:45:56 2022

Copyright (c) 2003-2018 Texas Instruments Incorporated
ADC ISR G.asm                                                        PAGE   55

    2903            
    2904            $C$DW$153       .dwtag  DW_TAG_member
    2905                    .dwattr $C$DW$153, DW_AT_type(*$C$DW$T$27)
    2906                    .dwattr $C$DW$153, DW_AT_name("compareValue")
    2907                    .dwattr $C$DW$153, DW_AT_TI_symbol_name("compareValue")
    2908                    .dwattr $C$DW$153, DW_AT_data_member_location[DW_OP_plus_uconst 0x6]
    2909                    .dwattr $C$DW$153, DW_AT_accessibility(DW_ACCESS_public)
    2910                    .dwattr $C$DW$153, DW_AT_decl_file("C:/Users/MCourson/workspace_v11/MZERO_HB50Board/include/ti
    2911                    .dwattr $C$DW$153, DW_AT_decl_line(0x158)
    2912                    .dwattr $C$DW$153, DW_AT_decl_column(0x0e)
    2913            
    2914                    .dwattr $C$DW$T$36, DW_AT_decl_file("C:/Users/MCourson/workspace_v11/MZERO_HB50Board/include/t
    2915                    .dwattr $C$DW$T$36, DW_AT_decl_line(0x13b)
    2916                    .dwattr $C$DW$T$36, DW_AT_decl_column(0x10)
    2917                    .dwendtag $C$DW$T$36
    2918            
    2919            $C$DW$T$70      .dwtag  DW_TAG_typedef
    2920                    .dwattr $C$DW$T$70, DW_AT_name("Timer_B_initCompareModeParam")
    2921                    .dwattr $C$DW$T$70, DW_AT_type(*$C$DW$T$36)
    2922                    .dwattr $C$DW$T$70, DW_AT_language(DW_LANG_C)
    2923                    .dwattr $C$DW$T$70, DW_AT_decl_file("C:/Users/MCourson/workspace_v11/MZERO_HB50Board/include/t
    2924                    .dwattr $C$DW$T$70, DW_AT_decl_line(0x159)
    2925                    .dwattr $C$DW$T$70, DW_AT_decl_column(0x03)
    2926            
    2927            
    2928            $C$DW$T$37      .dwtag  DW_TAG_structure_type
    2929                    .dwattr $C$DW$T$37, DW_AT_name("Timer_B_initContinuousModeParam")
    2930                    .dwattr $C$DW$T$37, DW_AT_byte_size(0x0a)
    2931            $C$DW$154       .dwtag  DW_TAG_member
    2932                    .dwattr $C$DW$154, DW_AT_type(*$C$DW$T$27)
    2933                    .dwattr $C$DW$154, DW_AT_name("clockSource")
    2934                    .dwattr $C$DW$154, DW_AT_TI_symbol_name("clockSource")
    2935                    .dwattr $C$DW$154, DW_AT_data_member_location[DW_OP_plus_uconst 0x0]
    2936                    .dwattr $C$DW$154, DW_AT_accessibility(DW_ACCESS_public)
    2937                    .dwattr $C$DW$154, DW_AT_decl_file("C:/Users/MCourson/workspace_v11/MZERO_HB50Board/include/ti
    2938                    .dwattr $C$DW$154, DW_AT_decl_line(0xd3)
    2939                    .dwattr $C$DW$154, DW_AT_decl_column(0x0e)
    2940            
    2941            $C$DW$155       .dwtag  DW_TAG_member
    2942                    .dwattr $C$DW$155, DW_AT_type(*$C$DW$T$27)
    2943                    .dwattr $C$DW$155, DW_AT_name("clockSourceDivider")
    2944                    .dwattr $C$DW$155, DW_AT_TI_symbol_name("clockSourceDivider")
    2945                    .dwattr $C$DW$155, DW_AT_data_member_location[DW_OP_plus_uconst 0x2]
    2946                    .dwattr $C$DW$155, DW_AT_accessibility(DW_ACCESS_public)
    2947                    .dwattr $C$DW$155, DW_AT_decl_file("C:/Users/MCourson/workspace_v11/MZERO_HB50Board/include/ti
    2948                    .dwattr $C$DW$155, DW_AT_decl_line(0xea)
    2949                    .dwattr $C$DW$155, DW_AT_decl_column(0x0e)
    2950            
    2951            $C$DW$156       .dwtag  DW_TAG_member
    2952                    .dwattr $C$DW$156, DW_AT_type(*$C$DW$T$27)
    2953                    .dwattr $C$DW$156, DW_AT_name("timerInterruptEnable_TBIE")
    2954                    .dwattr $C$DW$156, DW_AT_TI_symbol_name("timerInterruptEnable_TBIE")
    2955                    .dwattr $C$DW$156, DW_AT_data_member_location[DW_OP_plus_uconst 0x4]
    2956                    .dwattr $C$DW$156, DW_AT_accessibility(DW_ACCESS_public)
    2957                    .dwattr $C$DW$156, DW_AT_decl_file("C:/Users/MCourson/workspace_v11/MZERO_HB50Board/include/ti
MSP430 Assembler PC v21.6.1 Tue Dec 20 13:45:56 2022

Copyright (c) 2003-2018 Texas Instruments Incorporated
ADC ISR G.asm                                                        PAGE   56

    2958                    .dwattr $C$DW$156, DW_AT_decl_line(0xef)
    2959                    .dwattr $C$DW$156, DW_AT_decl_column(0x0e)
    2960            
    2961            $C$DW$157       .dwtag  DW_TAG_member
    2962                    .dwattr $C$DW$157, DW_AT_type(*$C$DW$T$27)
    2963                    .dwattr $C$DW$157, DW_AT_name("timerClear")
    2964                    .dwattr $C$DW$157, DW_AT_TI_symbol_name("timerClear")
    2965                    .dwattr $C$DW$157, DW_AT_data_member_location[DW_OP_plus_uconst 0x6]
    2966                    .dwattr $C$DW$157, DW_AT_accessibility(DW_ACCESS_public)
    2967                    .dwattr $C$DW$157, DW_AT_decl_file("C:/Users/MCourson/workspace_v11/MZERO_HB50Board/include/ti
    2968                    .dwattr $C$DW$157, DW_AT_decl_line(0xf5)
    2969                    .dwattr $C$DW$157, DW_AT_decl_column(0x0e)
    2970            
    2971            $C$DW$158       .dwtag  DW_TAG_member
    2972                    .dwattr $C$DW$158, DW_AT_type(*$C$DW$T$30)
    2973                    .dwattr $C$DW$158, DW_AT_name("startTimer")
    2974                    .dwattr $C$DW$158, DW_AT_TI_symbol_name("startTimer")
    2975                    .dwattr $C$DW$158, DW_AT_data_member_location[DW_OP_plus_uconst 0x8]
    2976                    .dwattr $C$DW$158, DW_AT_accessibility(DW_ACCESS_public)
    2977                    .dwattr $C$DW$158, DW_AT_decl_file("C:/Users/MCourson/workspace_v11/MZERO_HB50Board/include/ti
    2978                    .dwattr $C$DW$158, DW_AT_decl_line(0xf7)
    2979                    .dwattr $C$DW$158, DW_AT_decl_column(0x0a)
    2980            
    2981                    .dwattr $C$DW$T$37, DW_AT_decl_file("C:/Users/MCourson/workspace_v11/MZERO_HB50Board/include/t
    2982                    .dwattr $C$DW$T$37, DW_AT_decl_line(0xcc)
    2983                    .dwattr $C$DW$T$37, DW_AT_decl_column(0x10)
    2984                    .dwendtag $C$DW$T$37
    2985            
    2986            $C$DW$T$71      .dwtag  DW_TAG_typedef
    2987                    .dwattr $C$DW$T$71, DW_AT_name("Timer_B_initContinuousModeParam")
    2988                    .dwattr $C$DW$T$71, DW_AT_type(*$C$DW$T$37)
    2989                    .dwattr $C$DW$T$71, DW_AT_language(DW_LANG_C)
    2990                    .dwattr $C$DW$T$71, DW_AT_decl_file("C:/Users/MCourson/workspace_v11/MZERO_HB50Board/include/t
    2991                    .dwattr $C$DW$T$71, DW_AT_decl_line(0xf8)
    2992                    .dwattr $C$DW$T$71, DW_AT_decl_column(0x03)
    2993            
    2994            
    2995            $C$DW$T$38      .dwtag  DW_TAG_structure_type
    2996                    .dwattr $C$DW$T$38, DW_AT_name("Timer_B_initUpDownModeParam")
    2997                    .dwattr $C$DW$T$38, DW_AT_byte_size(0x0e)
    2998            $C$DW$159       .dwtag  DW_TAG_member
    2999                    .dwattr $C$DW$159, DW_AT_type(*$C$DW$T$27)
    3000                    .dwattr $C$DW$159, DW_AT_name("clockSource")
    3001                    .dwattr $C$DW$159, DW_AT_TI_symbol_name("clockSource")
    3002                    .dwattr $C$DW$159, DW_AT_data_member_location[DW_OP_plus_uconst 0x0]
    3003                    .dwattr $C$DW$159, DW_AT_accessibility(DW_ACCESS_public)
    3004                    .dwattr $C$DW$159, DW_AT_decl_file("C:/Users/MCourson/workspace_v11/MZERO_HB50Board/include/ti
    3005                    .dwattr $C$DW$159, DW_AT_decl_line(0x107)
    3006                    .dwattr $C$DW$159, DW_AT_decl_column(0x0e)
    3007            
    3008            $C$DW$160       .dwtag  DW_TAG_member
    3009                    .dwattr $C$DW$160, DW_AT_type(*$C$DW$T$27)
    3010                    .dwattr $C$DW$160, DW_AT_name("clockSourceDivider")
    3011                    .dwattr $C$DW$160, DW_AT_TI_symbol_name("clockSourceDivider")
    3012                    .dwattr $C$DW$160, DW_AT_data_member_location[DW_OP_plus_uconst 0x2]
MSP430 Assembler PC v21.6.1 Tue Dec 20 13:45:56 2022

Copyright (c) 2003-2018 Texas Instruments Incorporated
ADC ISR G.asm                                                        PAGE   57

    3013                    .dwattr $C$DW$160, DW_AT_accessibility(DW_ACCESS_public)
    3014                    .dwattr $C$DW$160, DW_AT_decl_file("C:/Users/MCourson/workspace_v11/MZERO_HB50Board/include/ti
    3015                    .dwattr $C$DW$160, DW_AT_decl_line(0x11e)
    3016                    .dwattr $C$DW$160, DW_AT_decl_column(0x0e)
    3017            
    3018            $C$DW$161       .dwtag  DW_TAG_member
    3019                    .dwattr $C$DW$161, DW_AT_type(*$C$DW$T$27)
    3020                    .dwattr $C$DW$161, DW_AT_name("timerPeriod")
    3021                    .dwattr $C$DW$161, DW_AT_TI_symbol_name("timerPeriod")
    3022                    .dwattr $C$DW$161, DW_AT_data_member_location[DW_OP_plus_uconst 0x4]
    3023                    .dwattr $C$DW$161, DW_AT_accessibility(DW_ACCESS_public)
    3024                    .dwattr $C$DW$161, DW_AT_decl_file("C:/Users/MCourson/workspace_v11/MZERO_HB50Board/include/ti
    3025                    .dwattr $C$DW$161, DW_AT_decl_line(0x120)
    3026                    .dwattr $C$DW$161, DW_AT_decl_column(0x0e)
    3027            
    3028            $C$DW$162       .dwtag  DW_TAG_member
    3029                    .dwattr $C$DW$162, DW_AT_type(*$C$DW$T$27)
    3030                    .dwattr $C$DW$162, DW_AT_name("timerInterruptEnable_TBIE")
    3031                    .dwattr $C$DW$162, DW_AT_TI_symbol_name("timerInterruptEnable_TBIE")
    3032                    .dwattr $C$DW$162, DW_AT_data_member_location[DW_OP_plus_uconst 0x6]
    3033                    .dwattr $C$DW$162, DW_AT_accessibility(DW_ACCESS_public)
    3034                    .dwattr $C$DW$162, DW_AT_decl_file("C:/Users/MCourson/workspace_v11/MZERO_HB50Board/include/ti
    3035                    .dwattr $C$DW$162, DW_AT_decl_line(0x125)
    3036                    .dwattr $C$DW$162, DW_AT_decl_column(0x0e)
    3037            
    3038            $C$DW$163       .dwtag  DW_TAG_member
    3039                    .dwattr $C$DW$163, DW_AT_type(*$C$DW$T$27)
    3040                    .dwattr $C$DW$163, DW_AT_name("captureCompareInterruptEnable_CCR0_CCIE")
    3041                    .dwattr $C$DW$163, DW_AT_TI_symbol_name("captureCompareInterruptEnable_CCR0_CCIE")
    3042                    .dwattr $C$DW$163, DW_AT_data_member_location[DW_OP_plus_uconst 0x8]
    3043                    .dwattr $C$DW$163, DW_AT_accessibility(DW_ACCESS_public)
    3044                    .dwattr $C$DW$163, DW_AT_decl_file("C:/Users/MCourson/workspace_v11/MZERO_HB50Board/include/ti
    3045                    .dwattr $C$DW$163, DW_AT_decl_line(0x12a)
    3046                    .dwattr $C$DW$163, DW_AT_decl_column(0x0e)
    3047            
    3048            $C$DW$164       .dwtag  DW_TAG_member
    3049                    .dwattr $C$DW$164, DW_AT_type(*$C$DW$T$27)
    3050                    .dwattr $C$DW$164, DW_AT_name("timerClear")
    3051                    .dwattr $C$DW$164, DW_AT_TI_symbol_name("timerClear")
    3052                    .dwattr $C$DW$164, DW_AT_data_member_location[DW_OP_plus_uconst 0xa]
    3053                    .dwattr $C$DW$164, DW_AT_accessibility(DW_ACCESS_public)
    3054                    .dwattr $C$DW$164, DW_AT_decl_file("C:/Users/MCourson/workspace_v11/MZERO_HB50Board/include/ti
    3055                    .dwattr $C$DW$164, DW_AT_decl_line(0x130)
    3056                    .dwattr $C$DW$164, DW_AT_decl_column(0x0e)
    3057            
    3058            $C$DW$165       .dwtag  DW_TAG_member
    3059                    .dwattr $C$DW$165, DW_AT_type(*$C$DW$T$30)
    3060                    .dwattr $C$DW$165, DW_AT_name("startTimer")
    3061                    .dwattr $C$DW$165, DW_AT_TI_symbol_name("startTimer")
    3062                    .dwattr $C$DW$165, DW_AT_data_member_location[DW_OP_plus_uconst 0xc]
    3063                    .dwattr $C$DW$165, DW_AT_accessibility(DW_ACCESS_public)
    3064                    .dwattr $C$DW$165, DW_AT_decl_file("C:/Users/MCourson/workspace_v11/MZERO_HB50Board/include/ti
    3065                    .dwattr $C$DW$165, DW_AT_decl_line(0x132)
    3066                    .dwattr $C$DW$165, DW_AT_decl_column(0x0a)
    3067            
MSP430 Assembler PC v21.6.1 Tue Dec 20 13:45:56 2022

Copyright (c) 2003-2018 Texas Instruments Incorporated
ADC ISR G.asm                                                        PAGE   58

    3068                    .dwattr $C$DW$T$38, DW_AT_decl_file("C:/Users/MCourson/workspace_v11/MZERO_HB50Board/include/t
    3069                    .dwattr $C$DW$T$38, DW_AT_decl_line(0x100)
    3070                    .dwattr $C$DW$T$38, DW_AT_decl_column(0x10)
    3071                    .dwendtag $C$DW$T$38
    3072            
    3073            $C$DW$T$72      .dwtag  DW_TAG_typedef
    3074                    .dwattr $C$DW$T$72, DW_AT_name("Timer_B_initUpDownModeParam")
    3075                    .dwattr $C$DW$T$72, DW_AT_type(*$C$DW$T$38)
    3076                    .dwattr $C$DW$T$72, DW_AT_language(DW_LANG_C)
    3077                    .dwattr $C$DW$T$72, DW_AT_decl_file("C:/Users/MCourson/workspace_v11/MZERO_HB50Board/include/t
    3078                    .dwattr $C$DW$T$72, DW_AT_decl_line(0x133)
    3079                    .dwattr $C$DW$T$72, DW_AT_decl_column(0x03)
    3080            
    3081            
    3082            $C$DW$T$39      .dwtag  DW_TAG_structure_type
    3083                    .dwattr $C$DW$T$39, DW_AT_name("Timer_B_initUpModeParam")
    3084                    .dwattr $C$DW$T$39, DW_AT_byte_size(0x0e)
    3085            $C$DW$166       .dwtag  DW_TAG_member
    3086                    .dwattr $C$DW$166, DW_AT_type(*$C$DW$T$27)
    3087                    .dwattr $C$DW$166, DW_AT_name("clockSource")
    3088                    .dwattr $C$DW$166, DW_AT_TI_symbol_name("clockSource")
    3089                    .dwattr $C$DW$166, DW_AT_data_member_location[DW_OP_plus_uconst 0x0]
    3090                    .dwattr $C$DW$166, DW_AT_accessibility(DW_ACCESS_public)
    3091                    .dwattr $C$DW$166, DW_AT_decl_file("C:/Users/MCourson/workspace_v11/MZERO_HB50Board/include/ti
    3092                    .dwattr $C$DW$166, DW_AT_decl_line(0x60)
    3093                    .dwattr $C$DW$166, DW_AT_decl_column(0x0e)
    3094            
    3095            $C$DW$167       .dwtag  DW_TAG_member
    3096                    .dwattr $C$DW$167, DW_AT_type(*$C$DW$T$27)
    3097                    .dwattr $C$DW$167, DW_AT_name("clockSourceDivider")
    3098                    .dwattr $C$DW$167, DW_AT_TI_symbol_name("clockSourceDivider")
    3099                    .dwattr $C$DW$167, DW_AT_data_member_location[DW_OP_plus_uconst 0x2]
    3100                    .dwattr $C$DW$167, DW_AT_accessibility(DW_ACCESS_public)
    3101                    .dwattr $C$DW$167, DW_AT_decl_file("C:/Users/MCourson/workspace_v11/MZERO_HB50Board/include/ti
    3102                    .dwattr $C$DW$167, DW_AT_decl_line(0x77)
    3103                    .dwattr $C$DW$167, DW_AT_decl_column(0x0e)
    3104            
    3105            $C$DW$168       .dwtag  DW_TAG_member
    3106                    .dwattr $C$DW$168, DW_AT_type(*$C$DW$T$27)
    3107                    .dwattr $C$DW$168, DW_AT_name("timerPeriod")
    3108                    .dwattr $C$DW$168, DW_AT_TI_symbol_name("timerPeriod")
    3109                    .dwattr $C$DW$168, DW_AT_data_member_location[DW_OP_plus_uconst 0x4]
    3110                    .dwattr $C$DW$168, DW_AT_accessibility(DW_ACCESS_public)
    3111                    .dwattr $C$DW$168, DW_AT_decl_file("C:/Users/MCourson/workspace_v11/MZERO_HB50Board/include/ti
    3112                    .dwattr $C$DW$168, DW_AT_decl_line(0x7a)
    3113                    .dwattr $C$DW$168, DW_AT_decl_column(0x0e)
    3114            
    3115            $C$DW$169       .dwtag  DW_TAG_member
    3116                    .dwattr $C$DW$169, DW_AT_type(*$C$DW$T$27)
    3117                    .dwattr $C$DW$169, DW_AT_name("timerInterruptEnable_TBIE")
    3118                    .dwattr $C$DW$169, DW_AT_TI_symbol_name("timerInterruptEnable_TBIE")
    3119                    .dwattr $C$DW$169, DW_AT_data_member_location[DW_OP_plus_uconst 0x6]
    3120                    .dwattr $C$DW$169, DW_AT_accessibility(DW_ACCESS_public)
    3121                    .dwattr $C$DW$169, DW_AT_decl_file("C:/Users/MCourson/workspace_v11/MZERO_HB50Board/include/ti
    3122                    .dwattr $C$DW$169, DW_AT_decl_line(0x7f)
MSP430 Assembler PC v21.6.1 Tue Dec 20 13:45:56 2022

Copyright (c) 2003-2018 Texas Instruments Incorporated
ADC ISR G.asm                                                        PAGE   59

    3123                    .dwattr $C$DW$169, DW_AT_decl_column(0x0e)
    3124            
    3125            $C$DW$170       .dwtag  DW_TAG_member
    3126                    .dwattr $C$DW$170, DW_AT_type(*$C$DW$T$27)
    3127                    .dwattr $C$DW$170, DW_AT_name("captureCompareInterruptEnable_CCR0_CCIE")
    3128                    .dwattr $C$DW$170, DW_AT_TI_symbol_name("captureCompareInterruptEnable_CCR0_CCIE")
    3129                    .dwattr $C$DW$170, DW_AT_data_member_location[DW_OP_plus_uconst 0x8]
    3130                    .dwattr $C$DW$170, DW_AT_accessibility(DW_ACCESS_public)
    3131                    .dwattr $C$DW$170, DW_AT_decl_file("C:/Users/MCourson/workspace_v11/MZERO_HB50Board/include/ti
    3132                    .dwattr $C$DW$170, DW_AT_decl_line(0x84)
    3133                    .dwattr $C$DW$170, DW_AT_decl_column(0x0e)
    3134            
    3135            $C$DW$171       .dwtag  DW_TAG_member
    3136                    .dwattr $C$DW$171, DW_AT_type(*$C$DW$T$27)
    3137                    .dwattr $C$DW$171, DW_AT_name("timerClear")
    3138                    .dwattr $C$DW$171, DW_AT_TI_symbol_name("timerClear")
    3139                    .dwattr $C$DW$171, DW_AT_data_member_location[DW_OP_plus_uconst 0xa]
    3140                    .dwattr $C$DW$171, DW_AT_accessibility(DW_ACCESS_public)
    3141                    .dwattr $C$DW$171, DW_AT_decl_file("C:/Users/MCourson/workspace_v11/MZERO_HB50Board/include/ti
    3142                    .dwattr $C$DW$171, DW_AT_decl_line(0x8a)
    3143                    .dwattr $C$DW$171, DW_AT_decl_column(0x0e)
    3144            
    3145            $C$DW$172       .dwtag  DW_TAG_member
    3146                    .dwattr $C$DW$172, DW_AT_type(*$C$DW$T$30)
    3147                    .dwattr $C$DW$172, DW_AT_name("startTimer")
    3148                    .dwattr $C$DW$172, DW_AT_TI_symbol_name("startTimer")
    3149                    .dwattr $C$DW$172, DW_AT_data_member_location[DW_OP_plus_uconst 0xc]
    3150                    .dwattr $C$DW$172, DW_AT_accessibility(DW_ACCESS_public)
    3151                    .dwattr $C$DW$172, DW_AT_decl_file("C:/Users/MCourson/workspace_v11/MZERO_HB50Board/include/ti
    3152                    .dwattr $C$DW$172, DW_AT_decl_line(0x8c)
    3153                    .dwattr $C$DW$172, DW_AT_decl_column(0x0a)
    3154            
    3155                    .dwattr $C$DW$T$39, DW_AT_decl_file("C:/Users/MCourson/workspace_v11/MZERO_HB50Board/include/t
    3156                    .dwattr $C$DW$T$39, DW_AT_decl_line(0x59)
    3157                    .dwattr $C$DW$T$39, DW_AT_decl_column(0x10)
    3158                    .dwendtag $C$DW$T$39
    3159            
    3160            $C$DW$T$73      .dwtag  DW_TAG_typedef
    3161                    .dwattr $C$DW$T$73, DW_AT_name("Timer_B_initUpModeParam")
    3162                    .dwattr $C$DW$T$73, DW_AT_type(*$C$DW$T$39)
    3163                    .dwattr $C$DW$T$73, DW_AT_language(DW_LANG_C)
    3164                    .dwattr $C$DW$T$73, DW_AT_decl_file("C:/Users/MCourson/workspace_v11/MZERO_HB50Board/include/t
    3165                    .dwattr $C$DW$T$73, DW_AT_decl_line(0x8d)
    3166                    .dwattr $C$DW$T$73, DW_AT_decl_column(0x03)
    3167            
    3168            
    3169            $C$DW$T$40      .dwtag  DW_TAG_structure_type
    3170                    .dwattr $C$DW$T$40, DW_AT_name("Timer_B_outputPWMParam")
    3171                    .dwattr $C$DW$T$40, DW_AT_byte_size(0x0c)
    3172            $C$DW$173       .dwtag  DW_TAG_member
    3173                    .dwattr $C$DW$173, DW_AT_type(*$C$DW$T$27)
    3174                    .dwattr $C$DW$173, DW_AT_name("clockSource")
    3175                    .dwattr $C$DW$173, DW_AT_TI_symbol_name("clockSource")
    3176                    .dwattr $C$DW$173, DW_AT_data_member_location[DW_OP_plus_uconst 0x0]
    3177                    .dwattr $C$DW$173, DW_AT_accessibility(DW_ACCESS_public)
MSP430 Assembler PC v21.6.1 Tue Dec 20 13:45:56 2022

Copyright (c) 2003-2018 Texas Instruments Incorporated
ADC ISR G.asm                                                        PAGE   60

    3178                    .dwattr $C$DW$173, DW_AT_decl_file("C:/Users/MCourson/workspace_v11/MZERO_HB50Board/include/ti
    3179                    .dwattr $C$DW$173, DW_AT_decl_line(0x20)
    3180                    .dwattr $C$DW$173, DW_AT_decl_column(0x0e)
    3181            
    3182            $C$DW$174       .dwtag  DW_TAG_member
    3183                    .dwattr $C$DW$174, DW_AT_type(*$C$DW$T$27)
    3184                    .dwattr $C$DW$174, DW_AT_name("clockSourceDivider")
    3185                    .dwattr $C$DW$174, DW_AT_TI_symbol_name("clockSourceDivider")
    3186                    .dwattr $C$DW$174, DW_AT_data_member_location[DW_OP_plus_uconst 0x2]
    3187                    .dwattr $C$DW$174, DW_AT_accessibility(DW_ACCESS_public)
    3188                    .dwattr $C$DW$174, DW_AT_decl_file("C:/Users/MCourson/workspace_v11/MZERO_HB50Board/include/ti
    3189                    .dwattr $C$DW$174, DW_AT_decl_line(0x37)
    3190                    .dwattr $C$DW$174, DW_AT_decl_column(0x0e)
    3191            
    3192            $C$DW$175       .dwtag  DW_TAG_member
    3193                    .dwattr $C$DW$175, DW_AT_type(*$C$DW$T$27)
    3194                    .dwattr $C$DW$175, DW_AT_name("timerPeriod")
    3195                    .dwattr $C$DW$175, DW_AT_TI_symbol_name("timerPeriod")
    3196                    .dwattr $C$DW$175, DW_AT_data_member_location[DW_OP_plus_uconst 0x4]
    3197                    .dwattr $C$DW$175, DW_AT_accessibility(DW_ACCESS_public)
    3198                    .dwattr $C$DW$175, DW_AT_decl_file("C:/Users/MCourson/workspace_v11/MZERO_HB50Board/include/ti
    3199                    .dwattr $C$DW$175, DW_AT_decl_line(0x39)
    3200                    .dwattr $C$DW$175, DW_AT_decl_column(0x0e)
    3201            
    3202            $C$DW$176       .dwtag  DW_TAG_member
    3203                    .dwattr $C$DW$176, DW_AT_type(*$C$DW$T$27)
    3204                    .dwattr $C$DW$176, DW_AT_name("compareRegister")
    3205                    .dwattr $C$DW$176, DW_AT_TI_symbol_name("compareRegister")
    3206                    .dwattr $C$DW$176, DW_AT_data_member_location[DW_OP_plus_uconst 0x6]
    3207                    .dwattr $C$DW$176, DW_AT_accessibility(DW_ACCESS_public)
    3208                    .dwattr $C$DW$176, DW_AT_decl_file("C:/Users/MCourson/workspace_v11/MZERO_HB50Board/include/ti
    3209                    .dwattr $C$DW$176, DW_AT_decl_line(0x44)
    3210                    .dwattr $C$DW$176, DW_AT_decl_column(0x0e)
    3211            
    3212            $C$DW$177       .dwtag  DW_TAG_member
    3213                    .dwattr $C$DW$177, DW_AT_type(*$C$DW$T$27)
    3214                    .dwattr $C$DW$177, DW_AT_name("compareOutputMode")
    3215                    .dwattr $C$DW$177, DW_AT_TI_symbol_name("compareOutputMode")
    3216                    .dwattr $C$DW$177, DW_AT_data_member_location[DW_OP_plus_uconst 0x8]
    3217                    .dwattr $C$DW$177, DW_AT_accessibility(DW_ACCESS_public)
    3218                    .dwattr $C$DW$177, DW_AT_decl_file("C:/Users/MCourson/workspace_v11/MZERO_HB50Board/include/ti
    3219                    .dwattr $C$DW$177, DW_AT_decl_line(0x4f)
    3220                    .dwattr $C$DW$177, DW_AT_decl_column(0x0e)
    3221            
    3222            $C$DW$178       .dwtag  DW_TAG_member
    3223                    .dwattr $C$DW$178, DW_AT_type(*$C$DW$T$27)
    3224                    .dwattr $C$DW$178, DW_AT_name("dutyCycle")
    3225                    .dwattr $C$DW$178, DW_AT_TI_symbol_name("dutyCycle")
    3226                    .dwattr $C$DW$178, DW_AT_data_member_location[DW_OP_plus_uconst 0xa]
    3227                    .dwattr $C$DW$178, DW_AT_accessibility(DW_ACCESS_public)
    3228                    .dwattr $C$DW$178, DW_AT_decl_file("C:/Users/MCourson/workspace_v11/MZERO_HB50Board/include/ti
    3229                    .dwattr $C$DW$178, DW_AT_decl_line(0x51)
    3230                    .dwattr $C$DW$178, DW_AT_decl_column(0x0e)
    3231            
    3232                    .dwattr $C$DW$T$40, DW_AT_decl_file("C:/Users/MCourson/workspace_v11/MZERO_HB50Board/include/t
MSP430 Assembler PC v21.6.1 Tue Dec 20 13:45:56 2022

Copyright (c) 2003-2018 Texas Instruments Incorporated
ADC ISR G.asm                                                        PAGE   61

    3233                    .dwattr $C$DW$T$40, DW_AT_decl_line(0x19)
    3234                    .dwattr $C$DW$T$40, DW_AT_decl_column(0x10)
    3235                    .dwendtag $C$DW$T$40
    3236            
    3237            $C$DW$T$74      .dwtag  DW_TAG_typedef
    3238                    .dwattr $C$DW$T$74, DW_AT_name("Timer_B_outputPWMParam")
    3239                    .dwattr $C$DW$T$74, DW_AT_type(*$C$DW$T$40)
    3240                    .dwattr $C$DW$T$74, DW_AT_language(DW_LANG_C)
    3241                    .dwattr $C$DW$T$74, DW_AT_decl_file("C:/Users/MCourson/workspace_v11/MZERO_HB50Board/include/t
    3242                    .dwattr $C$DW$T$74, DW_AT_decl_line(0x52)
    3243                    .dwattr $C$DW$T$74, DW_AT_decl_column(0x03)
    3244            
    3245            
    3246            $C$DW$T$41      .dwtag  DW_TAG_structure_type
    3247                    .dwattr $C$DW$T$41, DW_AT_name("USCI_A_UART_initParam")
    3248                    .dwattr $C$DW$T$41, DW_AT_byte_size(0x0c)
    3249            $C$DW$179       .dwtag  DW_TAG_member
    3250                    .dwattr $C$DW$179, DW_AT_type(*$C$DW$T$24)
    3251                    .dwattr $C$DW$179, DW_AT_name("selectClockSource")
    3252                    .dwattr $C$DW$179, DW_AT_TI_symbol_name("selectClockSource")
    3253                    .dwattr $C$DW$179, DW_AT_data_member_location[DW_OP_plus_uconst 0x0]
    3254                    .dwattr $C$DW$179, DW_AT_accessibility(DW_ACCESS_public)
    3255                    .dwattr $C$DW$179, DW_AT_decl_file("C:/Users/MCourson/workspace_v11/MZERO_HB50Board/include/us
    3256                    .dwattr $C$DW$179, DW_AT_decl_line(0x1c)
    3257                    .dwattr $C$DW$179, DW_AT_decl_column(0x0d)
    3258            
    3259            $C$DW$180       .dwtag  DW_TAG_member
    3260                    .dwattr $C$DW$180, DW_AT_type(*$C$DW$T$27)
    3261                    .dwattr $C$DW$180, DW_AT_name("clockPrescalar")
    3262                    .dwattr $C$DW$180, DW_AT_TI_symbol_name("clockPrescalar")
    3263                    .dwattr $C$DW$180, DW_AT_data_member_location[DW_OP_plus_uconst 0x2]
    3264                    .dwattr $C$DW$180, DW_AT_accessibility(DW_ACCESS_public)
    3265                    .dwattr $C$DW$180, DW_AT_decl_file("C:/Users/MCourson/workspace_v11/MZERO_HB50Board/include/us
    3266                    .dwattr $C$DW$180, DW_AT_decl_line(0x1e)
    3267                    .dwattr $C$DW$180, DW_AT_decl_column(0x0e)
    3268            
    3269            $C$DW$181       .dwtag  DW_TAG_member
    3270                    .dwattr $C$DW$181, DW_AT_type(*$C$DW$T$24)
    3271                    .dwattr $C$DW$181, DW_AT_name("firstModReg")
    3272                    .dwattr $C$DW$181, DW_AT_TI_symbol_name("firstModReg")
    3273                    .dwattr $C$DW$181, DW_AT_data_member_location[DW_OP_plus_uconst 0x4]
    3274                    .dwattr $C$DW$181, DW_AT_accessibility(DW_ACCESS_public)
    3275                    .dwattr $C$DW$181, DW_AT_decl_file("C:/Users/MCourson/workspace_v11/MZERO_HB50Board/include/us
    3276                    .dwattr $C$DW$181, DW_AT_decl_line(0x22)
    3277                    .dwattr $C$DW$181, DW_AT_decl_column(0x0d)
    3278            
    3279            $C$DW$182       .dwtag  DW_TAG_member
    3280                    .dwattr $C$DW$182, DW_AT_type(*$C$DW$T$24)
    3281                    .dwattr $C$DW$182, DW_AT_name("secondModReg")
    3282                    .dwattr $C$DW$182, DW_AT_TI_symbol_name("secondModReg")
    3283                    .dwattr $C$DW$182, DW_AT_data_member_location[DW_OP_plus_uconst 0x5]
    3284                    .dwattr $C$DW$182, DW_AT_accessibility(DW_ACCESS_public)
    3285                    .dwattr $C$DW$182, DW_AT_decl_file("C:/Users/MCourson/workspace_v11/MZERO_HB50Board/include/us
    3286                    .dwattr $C$DW$182, DW_AT_decl_line(0x26)
    3287                    .dwattr $C$DW$182, DW_AT_decl_column(0x0d)
MSP430 Assembler PC v21.6.1 Tue Dec 20 13:45:56 2022

Copyright (c) 2003-2018 Texas Instruments Incorporated
ADC ISR G.asm                                                        PAGE   62

    3288            
    3289            $C$DW$183       .dwtag  DW_TAG_member
    3290                    .dwattr $C$DW$183, DW_AT_type(*$C$DW$T$24)
    3291                    .dwattr $C$DW$183, DW_AT_name("parity")
    3292                    .dwattr $C$DW$183, DW_AT_TI_symbol_name("parity")
    3293                    .dwattr $C$DW$183, DW_AT_data_member_location[DW_OP_plus_uconst 0x6]
    3294                    .dwattr $C$DW$183, DW_AT_accessibility(DW_ACCESS_public)
    3295                    .dwattr $C$DW$183, DW_AT_decl_file("C:/Users/MCourson/workspace_v11/MZERO_HB50Board/include/us
    3296                    .dwattr $C$DW$183, DW_AT_decl_line(0x2c)
    3297                    .dwattr $C$DW$183, DW_AT_decl_column(0x0d)
    3298            
    3299            $C$DW$184       .dwtag  DW_TAG_member
    3300                    .dwattr $C$DW$184, DW_AT_type(*$C$DW$T$24)
    3301                    .dwattr $C$DW$184, DW_AT_name("msborLsbFirst")
    3302                    .dwattr $C$DW$184, DW_AT_TI_symbol_name("msborLsbFirst")
    3303                    .dwattr $C$DW$184, DW_AT_data_member_location[DW_OP_plus_uconst 0x7]
    3304                    .dwattr $C$DW$184, DW_AT_accessibility(DW_ACCESS_public)
    3305                    .dwattr $C$DW$184, DW_AT_decl_file("C:/Users/MCourson/workspace_v11/MZERO_HB50Board/include/us
    3306                    .dwattr $C$DW$184, DW_AT_decl_line(0x31)
    3307                    .dwattr $C$DW$184, DW_AT_decl_column(0x0d)
    3308            
    3309            $C$DW$185       .dwtag  DW_TAG_member
    3310                    .dwattr $C$DW$185, DW_AT_type(*$C$DW$T$24)
    3311                    .dwattr $C$DW$185, DW_AT_name("numberofStopBits")
    3312                    .dwattr $C$DW$185, DW_AT_TI_symbol_name("numberofStopBits")
    3313                    .dwattr $C$DW$185, DW_AT_data_member_location[DW_OP_plus_uconst 0x8]
    3314                    .dwattr $C$DW$185, DW_AT_accessibility(DW_ACCESS_public)
