MSP430 Assembler PC v21.6.1 Tue Dec 20 13:45:56 2022

Copyright (c) 2003-2018 Texas Instruments Incorporated
ADC_Calculations.asm                                                 PAGE    1

       1            ;******************************************************************************
       2            ;* MSP430 G3 C/C++ Codegen                                              PC v21.6.1.LTS *
       3            ;* Date/Time created: Tue Dec 20 13:45:56 2022                                *
       4            ;******************************************************************************
       5                    .compiler_opts --abi=eabi --diag_wrap=off --hll_source=on --mem_model:code=large --mem_model:d
       6            
       7            $C$DW$CU        .dwtag  DW_TAG_compile_unit
       8                    .dwattr $C$DW$CU, DW_AT_name("../src/ADC_Calculations.c")
       9                    .dwattr $C$DW$CU, DW_AT_producer("TI MSP430 G3 C/C++ Codegen PC v21.6.1.LTS Copyright (c) 2003
      10                    .dwattr $C$DW$CU, DW_AT_TI_version(0x01)
      11                    .dwattr $C$DW$CU, DW_AT_comp_dir("C:\Users\MCourson\workspace_v11\MZERO_HB50Board\Debug")
      12            $C$DW$1 .dwtag  DW_TAG_variable
      13                    .dwattr $C$DW$1, DW_AT_name("ADC12MEM0")
      14                    .dwattr $C$DW$1, DW_AT_TI_symbol_name("ADC12MEM0")
      15                    .dwattr $C$DW$1, DW_AT_type(*$C$DW$T$115)
      16                    .dwattr $C$DW$1, DW_AT_declaration
      17                    .dwattr $C$DW$1, DW_AT_external
      18                    .dwattr $C$DW$1, DW_AT_decl_file("C:\ti\ccs1110\ccs\ccs_base\msp430\include\msp430f5438a.h")
      19                    .dwattr $C$DW$1, DW_AT_decl_line(0xb1)
      20                    .dwattr $C$DW$1, DW_AT_decl_column(0x01)
      21            
      22            $C$DW$2 .dwtag  DW_TAG_variable
      23                    .dwattr $C$DW$2, DW_AT_name("PEOUT_L")
      24                    .dwattr $C$DW$2, DW_AT_TI_symbol_name("PEOUT_L")
      25                    .dwattr $C$DW$2, DW_AT_type(*$C$DW$T$88)
      26                    .dwattr $C$DW$2, DW_AT_declaration
      27                    .dwattr $C$DW$2, DW_AT_external
      28                    .dwattr $C$DW$2, DW_AT_decl_file("C:\ti\ccs1110\ccs\ccs_base\msp430\include\msp430f5438a.h")
      29                    .dwattr $C$DW$2, DW_AT_decl_line(0x550)
      30                    .dwattr $C$DW$2, DW_AT_decl_column(0x01)
      31            
      32                    .global mode
      33                    .common mode,2,2
      34            $C$DW$3 .dwtag  DW_TAG_variable
      35                    .dwattr $C$DW$3, DW_AT_name("mode")
      36                    .dwattr $C$DW$3, DW_AT_TI_symbol_name("mode")
      37                    .dwattr $C$DW$3, DW_AT_location[DW_OP_addr mode]
      38                    .dwattr $C$DW$3, DW_AT_type(*$C$DW$T$54)
      39                    .dwattr $C$DW$3, DW_AT_external
      40                    .dwattr $C$DW$3, DW_AT_decl_file("C:/Users/MCourson/workspace_v11/MZERO_HB50Board/include/Main
      41                    .dwattr $C$DW$3, DW_AT_decl_line(0x65)
      42                    .dwattr $C$DW$3, DW_AT_decl_column(0x07)
      43            
      44                    .global FCState
      45                    .common FCState,2,2
      46            $C$DW$4 .dwtag  DW_TAG_variable
      47                    .dwattr $C$DW$4, DW_AT_name("FCState")
      48                    .dwattr $C$DW$4, DW_AT_TI_symbol_name("FCState")
      49                    .dwattr $C$DW$4, DW_AT_location[DW_OP_addr FCState]
      50                    .dwattr $C$DW$4, DW_AT_type(*$C$DW$T$56)
      51                    .dwattr $C$DW$4, DW_AT_external
      52                    .dwattr $C$DW$4, DW_AT_decl_file("C:/Users/MCourson/workspace_v11/MZERO_HB50Board/include/Main
      53                    .dwattr $C$DW$4, DW_AT_decl_line(0x6d)
      54                    .dwattr $C$DW$4, DW_AT_decl_column(0x0a)
      55            
MSP430 Assembler PC v21.6.1 Tue Dec 20 13:45:56 2022

Copyright (c) 2003-2018 Texas Instruments Incorporated
ADC_Calculations.asm                                                 PAGE    2

      56                    .global msgstatus
      57                    .common msgstatus,2,2
      58            $C$DW$5 .dwtag  DW_TAG_variable
      59                    .dwattr $C$DW$5, DW_AT_name("msgstatus")
      60                    .dwattr $C$DW$5, DW_AT_TI_symbol_name("msgstatus")
      61                    .dwattr $C$DW$5, DW_AT_location[DW_OP_addr msgstatus]
      62                    .dwattr $C$DW$5, DW_AT_type(*$C$DW$T$58)
      63                    .dwattr $C$DW$5, DW_AT_external
      64                    .dwattr $C$DW$5, DW_AT_decl_file("C:/Users/MCourson/workspace_v11/MZERO_HB50Board/include/Main
      65                    .dwattr $C$DW$5, DW_AT_decl_line(0x7c)
      66                    .dwattr $C$DW$5, DW_AT_decl_column(0x0f)
      67            
      68                    .global status
      69                    .common status,2,2
      70            $C$DW$6 .dwtag  DW_TAG_variable
      71                    .dwattr $C$DW$6, DW_AT_name("status")
      72                    .dwattr $C$DW$6, DW_AT_TI_symbol_name("status")
      73                    .dwattr $C$DW$6, DW_AT_location[DW_OP_addr status]
      74                    .dwattr $C$DW$6, DW_AT_type(*$C$DW$T$60)
      75                    .dwattr $C$DW$6, DW_AT_external
      76                    .dwattr $C$DW$6, DW_AT_decl_file("C:/Users/MCourson/workspace_v11/MZERO_HB50Board/include/Main
      77                    .dwattr $C$DW$6, DW_AT_decl_line(0x83)
      78                    .dwattr $C$DW$6, DW_AT_decl_column(0x0e)
      79            
      80            $C$DW$7 .dwtag  DW_TAG_variable
      81                    .dwattr $C$DW$7, DW_AT_name("FC_volts")
      82                    .dwattr $C$DW$7, DW_AT_TI_symbol_name("FC_volts")
      83                    .dwattr $C$DW$7, DW_AT_type(*$C$DW$T$16)
      84                    .dwattr $C$DW$7, DW_AT_declaration
      85                    .dwattr $C$DW$7, DW_AT_external
      86                    .dwattr $C$DW$7, DW_AT_decl_file("../src/ADC_Calculations.c")
      87                    .dwattr $C$DW$7, DW_AT_decl_line(0x16)
      88                    .dwattr $C$DW$7, DW_AT_decl_column(0x0e)
      89            
      90            $C$DW$8 .dwtag  DW_TAG_variable
      91                    .dwattr $C$DW$8, DW_AT_name("FC_Current")
      92                    .dwattr $C$DW$8, DW_AT_TI_symbol_name("FC_Current")
      93                    .dwattr $C$DW$8, DW_AT_type(*$C$DW$T$16)
      94                    .dwattr $C$DW$8, DW_AT_declaration
      95                    .dwattr $C$DW$8, DW_AT_external
      96                    .dwattr $C$DW$8, DW_AT_decl_file("../src/ADC_Calculations.c")
      97                    .dwattr $C$DW$8, DW_AT_decl_line(0x17)
      98                    .dwattr $C$DW$8, DW_AT_decl_column(0x0e)
      99            
     100            $C$DW$9 .dwtag  DW_TAG_variable
     101                    .dwattr $C$DW$9, DW_AT_name("RS_Batt_V")
     102                    .dwattr $C$DW$9, DW_AT_TI_symbol_name("RS_Batt_V")
     103                    .dwattr $C$DW$9, DW_AT_type(*$C$DW$T$16)
     104                    .dwattr $C$DW$9, DW_AT_declaration
     105                    .dwattr $C$DW$9, DW_AT_external
     106                    .dwattr $C$DW$9, DW_AT_decl_file("../src/ADC_Calculations.c")
     107                    .dwattr $C$DW$9, DW_AT_decl_line(0x18)
     108                    .dwattr $C$DW$9, DW_AT_decl_column(0x0e)
     109            
     110            $C$DW$10        .dwtag  DW_TAG_variable
MSP430 Assembler PC v21.6.1 Tue Dec 20 13:45:56 2022

Copyright (c) 2003-2018 Texas Instruments Incorporated
ADC_Calculations.asm                                                 PAGE    3

     111                    .dwattr $C$DW$10, DW_AT_name("CO_Batt_V")
     112                    .dwattr $C$DW$10, DW_AT_TI_symbol_name("CO_Batt_V")
     113                    .dwattr $C$DW$10, DW_AT_type(*$C$DW$T$16)
     114                    .dwattr $C$DW$10, DW_AT_declaration
     115                    .dwattr $C$DW$10, DW_AT_external
     116                    .dwattr $C$DW$10, DW_AT_decl_file("../src/ADC_Calculations.c")
     117                    .dwattr $C$DW$10, DW_AT_decl_line(0x19)
     118                    .dwattr $C$DW$10, DW_AT_decl_column(0x0e)
     119            
     120            $C$DW$11        .dwtag  DW_TAG_variable
     121                    .dwattr $C$DW$11, DW_AT_name("AA_Batt_V")
     122                    .dwattr $C$DW$11, DW_AT_TI_symbol_name("AA_Batt_V")
     123                    .dwattr $C$DW$11, DW_AT_type(*$C$DW$T$16)
     124                    .dwattr $C$DW$11, DW_AT_declaration
     125                    .dwattr $C$DW$11, DW_AT_external
     126                    .dwattr $C$DW$11, DW_AT_decl_file("../src/ADC_Calculations.c")
     127                    .dwattr $C$DW$11, DW_AT_decl_line(0x1a)
     128                    .dwattr $C$DW$11, DW_AT_decl_column(0x0e)
     129            
     130            $C$DW$12        .dwtag  DW_TAG_variable
     131                    .dwattr $C$DW$12, DW_AT_name("Load_Current")
     132                    .dwattr $C$DW$12, DW_AT_TI_symbol_name("Load_Current")
     133                    .dwattr $C$DW$12, DW_AT_type(*$C$DW$T$16)
     134                    .dwattr $C$DW$12, DW_AT_declaration
     135                    .dwattr $C$DW$12, DW_AT_external
     136                    .dwattr $C$DW$12, DW_AT_decl_file("../src/ADC_Calculations.c")
     137                    .dwattr $C$DW$12, DW_AT_decl_line(0x1b)
     138                    .dwattr $C$DW$12, DW_AT_decl_column(0x0e)
     139            
     140            $C$DW$13        .dwtag  DW_TAG_variable
     141                    .dwattr $C$DW$13, DW_AT_name("Output_volts")
     142                    .dwattr $C$DW$13, DW_AT_TI_symbol_name("Output_volts")
     143                    .dwattr $C$DW$13, DW_AT_type(*$C$DW$T$16)
     144                    .dwattr $C$DW$13, DW_AT_declaration
     145                    .dwattr $C$DW$13, DW_AT_external
     146                    .dwattr $C$DW$13, DW_AT_decl_file("../src/ADC_Calculations.c")
     147                    .dwattr $C$DW$13, DW_AT_decl_line(0x1c)
     148                    .dwattr $C$DW$13, DW_AT_decl_column(0x0e)
     149            
     150            $C$DW$14        .dwtag  DW_TAG_variable
     151                    .dwattr $C$DW$14, DW_AT_name("airflow")
     152                    .dwattr $C$DW$14, DW_AT_TI_symbol_name("airflow")
     153                    .dwattr $C$DW$14, DW_AT_type(*$C$DW$T$16)
     154                    .dwattr $C$DW$14, DW_AT_declaration
     155                    .dwattr $C$DW$14, DW_AT_external
     156                    .dwattr $C$DW$14, DW_AT_decl_file("../src/ADC_Calculations.c")
     157                    .dwattr $C$DW$14, DW_AT_decl_line(0x1d)
     158                    .dwattr $C$DW$14, DW_AT_decl_column(0x0e)
     159            
     160            $C$DW$15        .dwtag  DW_TAG_variable
     161                    .dwattr $C$DW$15, DW_AT_name("TC1_temp")
     162                    .dwattr $C$DW$15, DW_AT_TI_symbol_name("TC1_temp")
     163                    .dwattr $C$DW$15, DW_AT_type(*$C$DW$T$16)
     164                    .dwattr $C$DW$15, DW_AT_declaration
     165                    .dwattr $C$DW$15, DW_AT_external
MSP430 Assembler PC v21.6.1 Tue Dec 20 13:45:56 2022

Copyright (c) 2003-2018 Texas Instruments Incorporated
ADC_Calculations.asm                                                 PAGE    4

     166                    .dwattr $C$DW$15, DW_AT_decl_file("../src/ADC_Calculations.c")
     167                    .dwattr $C$DW$15, DW_AT_decl_line(0x36)
     168                    .dwattr $C$DW$15, DW_AT_decl_column(0x0e)
     169            
     170            $C$DW$16        .dwtag  DW_TAG_variable
     171                    .dwattr $C$DW$16, DW_AT_name("TC2_temp")
     172                    .dwattr $C$DW$16, DW_AT_TI_symbol_name("TC2_temp")
     173                    .dwattr $C$DW$16, DW_AT_type(*$C$DW$T$16)
     174                    .dwattr $C$DW$16, DW_AT_declaration
     175                    .dwattr $C$DW$16, DW_AT_external
     176                    .dwattr $C$DW$16, DW_AT_decl_file("../src/ADC_Calculations.c")
     177                    .dwattr $C$DW$16, DW_AT_decl_line(0x37)
     178                    .dwattr $C$DW$16, DW_AT_decl_column(0x0e)
     179            
     180            $C$DW$17        .dwtag  DW_TAG_variable
     181                    .dwattr $C$DW$17, DW_AT_name("TC3_temp")
     182                    .dwattr $C$DW$17, DW_AT_TI_symbol_name("TC3_temp")
     183                    .dwattr $C$DW$17, DW_AT_type(*$C$DW$T$16)
     184                    .dwattr $C$DW$17, DW_AT_declaration
     185                    .dwattr $C$DW$17, DW_AT_external
     186                    .dwattr $C$DW$17, DW_AT_decl_file("../src/ADC_Calculations.c")
     187                    .dwattr $C$DW$17, DW_AT_decl_line(0x38)
     188                    .dwattr $C$DW$17, DW_AT_decl_column(0x0e)
     189            
     190            $C$DW$18        .dwtag  DW_TAG_variable
     191                    .dwattr $C$DW$18, DW_AT_name("ambient_temp")
     192                    .dwattr $C$DW$18, DW_AT_TI_symbol_name("ambient_temp")
     193                    .dwattr $C$DW$18, DW_AT_type(*$C$DW$T$16)
     194                    .dwattr $C$DW$18, DW_AT_declaration
     195                    .dwattr $C$DW$18, DW_AT_external
     196                    .dwattr $C$DW$18, DW_AT_decl_file("../src/ADC_Calculations.c")
     197                    .dwattr $C$DW$18, DW_AT_decl_line(0x3a)
     198                    .dwattr $C$DW$18, DW_AT_decl_column(0x0e)
     199            
     200            $C$DW$19        .dwtag  DW_TAG_variable
     201                    .dwattr $C$DW$19, DW_AT_name("PCB_Calibration_GUI")
     202                    .dwattr $C$DW$19, DW_AT_TI_symbol_name("PCB_Calibration_GUI")
     203                    .dwattr $C$DW$19, DW_AT_type(*$C$DW$T$24)
     204                    .dwattr $C$DW$19, DW_AT_declaration
     205                    .dwattr $C$DW$19, DW_AT_external
     206                    .dwattr $C$DW$19, DW_AT_decl_file("../src/ADC_Calculations.c")
     207                    .dwattr $C$DW$19, DW_AT_decl_line(0x3b)
     208                    .dwattr $C$DW$19, DW_AT_decl_column(0x10)
     209            
     210                    .global ADCdone
     211                    .common ADCdone,1,1
     212            $C$DW$20        .dwtag  DW_TAG_variable
     213                    .dwattr $C$DW$20, DW_AT_name("ADCdone")
     214                    .dwattr $C$DW$20, DW_AT_TI_symbol_name("ADCdone")
     215                    .dwattr $C$DW$20, DW_AT_location[DW_OP_addr ADCdone]
     216                    .dwattr $C$DW$20, DW_AT_type(*$C$DW$T$24)
     217                    .dwattr $C$DW$20, DW_AT_external
     218                    .dwattr $C$DW$20, DW_AT_decl_file("../src/ADC_Calculations.c")
     219                    .dwattr $C$DW$20, DW_AT_decl_line(0x4b)
     220                    .dwattr $C$DW$20, DW_AT_decl_column(0x09)
MSP430 Assembler PC v21.6.1 Tue Dec 20 13:45:56 2022

Copyright (c) 2003-2018 Texas Instruments Incorporated
ADC_Calculations.asm                                                 PAGE    5

     221            
     222                    .global ADCSamples
     223                    .common ADCSamples,32,2
     224            $C$DW$21        .dwtag  DW_TAG_variable
     225                    .dwattr $C$DW$21, DW_AT_name("ADCSamples")
     226                    .dwattr $C$DW$21, DW_AT_TI_symbol_name("ADCSamples")
     227                    .dwattr $C$DW$21, DW_AT_location[DW_OP_addr ADCSamples]
     228                    .dwattr $C$DW$21, DW_AT_type(*$C$DW$T$128)
     229                    .dwattr $C$DW$21, DW_AT_external
     230                    .dwattr $C$DW$21, DW_AT_decl_file("../src/ADC_Calculations.c")
     231                    .dwattr $C$DW$21, DW_AT_decl_line(0x4c)
     232                    .dwattr $C$DW$21, DW_AT_decl_column(0x0a)
     233            
     234                    .global ext_TC
     235                    .common ext_TC,2,2
     236            $C$DW$22        .dwtag  DW_TAG_variable
     237                    .dwattr $C$DW$22, DW_AT_name("ext_TC")
     238                    .dwattr $C$DW$22, DW_AT_TI_symbol_name("ext_TC")
     239                    .dwattr $C$DW$22, DW_AT_location[DW_OP_addr ext_TC]
     240                    .dwattr $C$DW$22, DW_AT_type(*$C$DW$T$10)
     241                    .dwattr $C$DW$22, DW_AT_external
     242                    .dwattr $C$DW$22, DW_AT_decl_file("../src/ADC_Calculations.c")
     243                    .dwattr $C$DW$22, DW_AT_decl_line(0x4e)
     244                    .dwattr $C$DW$22, DW_AT_decl_column(0x05)
     245            
     246                    .global TC4_temp
     247                    .common TC4_temp,4,2
     248            $C$DW$23        .dwtag  DW_TAG_variable
     249                    .dwattr $C$DW$23, DW_AT_name("TC4_temp")
     250                    .dwattr $C$DW$23, DW_AT_TI_symbol_name("TC4_temp")
     251                    .dwattr $C$DW$23, DW_AT_location[DW_OP_addr TC4_temp]
     252                    .dwattr $C$DW$23, DW_AT_type(*$C$DW$T$16)
     253                    .dwattr $C$DW$23, DW_AT_external
     254                    .dwattr $C$DW$23, DW_AT_decl_file("../src/ADC_Calculations.c")
     255                    .dwattr $C$DW$23, DW_AT_decl_line(0x4f)
     256                    .dwattr $C$DW$23, DW_AT_decl_column(0x07)
     257            
     258                    .global TC5_temp
     259                    .common TC5_temp,4,2
     260            $C$DW$24        .dwtag  DW_TAG_variable
     261                    .dwattr $C$DW$24, DW_AT_name("TC5_temp")
     262                    .dwattr $C$DW$24, DW_AT_TI_symbol_name("TC5_temp")
     263                    .dwattr $C$DW$24, DW_AT_location[DW_OP_addr TC5_temp]
     264                    .dwattr $C$DW$24, DW_AT_type(*$C$DW$T$16)
     265                    .dwattr $C$DW$24, DW_AT_external
     266                    .dwattr $C$DW$24, DW_AT_decl_file("../src/ADC_Calculations.c")
     267                    .dwattr $C$DW$24, DW_AT_decl_line(0x50)
     268                    .dwattr $C$DW$24, DW_AT_decl_column(0x07)
     269            
     270                    .global TC6_temp
     271                    .common TC6_temp,4,2
     272            $C$DW$25        .dwtag  DW_TAG_variable
     273                    .dwattr $C$DW$25, DW_AT_name("TC6_temp")
     274                    .dwattr $C$DW$25, DW_AT_TI_symbol_name("TC6_temp")
     275                    .dwattr $C$DW$25, DW_AT_location[DW_OP_addr TC6_temp]
MSP430 Assembler PC v21.6.1 Tue Dec 20 13:45:56 2022

Copyright (c) 2003-2018 Texas Instruments Incorporated
ADC_Calculations.asm                                                 PAGE    6

     276                    .dwattr $C$DW$25, DW_AT_type(*$C$DW$T$16)
     277                    .dwattr $C$DW$25, DW_AT_external
     278                    .dwattr $C$DW$25, DW_AT_decl_file("../src/ADC_Calculations.c")
     279                    .dwattr $C$DW$25, DW_AT_decl_line(0x51)
     280                    .dwattr $C$DW$25, DW_AT_decl_column(0x07)
     281            
     282                    .global Exhaust_temp
     283                    .common Exhaust_temp,4,2
     284            $C$DW$26        .dwtag  DW_TAG_variable
     285                    .dwattr $C$DW$26, DW_AT_name("Exhaust_temp")
     286                    .dwattr $C$DW$26, DW_AT_TI_symbol_name("Exhaust_temp")
     287                    .dwattr $C$DW$26, DW_AT_location[DW_OP_addr Exhaust_temp]
     288                    .dwattr $C$DW$26, DW_AT_type(*$C$DW$T$16)
     289                    .dwattr $C$DW$26, DW_AT_external
     290                    .dwattr $C$DW$26, DW_AT_decl_file("../src/ADC_Calculations.c")
     291                    .dwattr $C$DW$26, DW_AT_decl_line(0x52)
     292                    .dwattr $C$DW$26, DW_AT_decl_column(0x07)
     293            
     294                    .global Water_Tank_temp
     295                    .common Water_Tank_temp,4,2
     296            $C$DW$27        .dwtag  DW_TAG_variable
     297                    .dwattr $C$DW$27, DW_AT_name("Water_Tank_temp")
     298                    .dwattr $C$DW$27, DW_AT_TI_symbol_name("Water_Tank_temp")
     299                    .dwattr $C$DW$27, DW_AT_location[DW_OP_addr Water_Tank_temp]
     300                    .dwattr $C$DW$27, DW_AT_type(*$C$DW$T$16)
     301                    .dwattr $C$DW$27, DW_AT_external
     302                    .dwattr $C$DW$27, DW_AT_decl_file("../src/ADC_Calculations.c")
     303                    .dwattr $C$DW$27, DW_AT_decl_line(0x53)
     304                    .dwattr $C$DW$27, DW_AT_decl_column(0x07)
     305            
     306                    .global Internal_Box_temp
     307                    .common Internal_Box_temp,4,2
     308            $C$DW$28        .dwtag  DW_TAG_variable
     309                    .dwattr $C$DW$28, DW_AT_name("Internal_Box_temp")
     310                    .dwattr $C$DW$28, DW_AT_TI_symbol_name("Internal_Box_temp")
     311                    .dwattr $C$DW$28, DW_AT_location[DW_OP_addr Internal_Box_temp]
     312                    .dwattr $C$DW$28, DW_AT_type(*$C$DW$T$16)
     313                    .dwattr $C$DW$28, DW_AT_external
     314                    .dwattr $C$DW$28, DW_AT_decl_file("../src/ADC_Calculations.c")
     315                    .dwattr $C$DW$28, DW_AT_decl_line(0x54)
     316                    .dwattr $C$DW$28, DW_AT_decl_column(0x07)
     317            
     318                    .global FC_burner_temp
     319                    .common FC_burner_temp,4,2
     320            $C$DW$29        .dwtag  DW_TAG_variable
     321                    .dwattr $C$DW$29, DW_AT_name("FC_burner_temp")
     322                    .dwattr $C$DW$29, DW_AT_TI_symbol_name("FC_burner_temp")
     323                    .dwattr $C$DW$29, DW_AT_location[DW_OP_addr FC_burner_temp]
     324                    .dwattr $C$DW$29, DW_AT_type(*$C$DW$T$16)
     325                    .dwattr $C$DW$29, DW_AT_external
     326                    .dwattr $C$DW$29, DW_AT_decl_file("../src/ADC_Calculations.c")
     327                    .dwattr $C$DW$29, DW_AT_decl_line(0x55)
     328                    .dwattr $C$DW$29, DW_AT_decl_column(0x07)
     329            
     330            ;       C:\ti\ccs1110\ccs\tools\compiler\ti-cgt-msp430_21.6.1.LTS\bin\opt430.exe C:\\Users\\MCourson\\
MSP430 Assembler PC v21.6.1 Tue Dec 20 13:45:56 2022

Copyright (c) 2003-2018 Texas Instruments Incorporated
ADC_Calculations.asm                                                 PAGE    7

     331 000000               .sect   ".text:__signbitl"
     332                    .clink
     333                    .global __signbitl
     334            
     335            $C$DW$30        .dwtag  DW_TAG_subprogram
     336                    .dwattr $C$DW$30, DW_AT_name("__signbitl")
     337                    .dwattr $C$DW$30, DW_AT_low_pc(__signbitl)
     338                    .dwattr $C$DW$30, DW_AT_high_pc(0x00)
     339                    .dwattr $C$DW$30, DW_AT_TI_symbol_name("__signbitl")
     340                    .dwattr $C$DW$30, DW_AT_external
     341                    .dwattr $C$DW$30, DW_AT_type(*$C$DW$T$10)
     342                    .dwattr $C$DW$30, DW_AT_TI_begin_file("C:/ti/ccs1110/ccs/tools/compiler/ti-cgt-msp430_21.6.1.L
     343                    .dwattr $C$DW$30, DW_AT_TI_begin_line(0x16f)
     344                    .dwattr $C$DW$30, DW_AT_TI_begin_column(0x25)
     345                    .dwattr $C$DW$30, DW_AT_decl_file("C:/ti/ccs1110/ccs/tools/compiler/ti-cgt-msp430_21.6.1.LTS/i
     346                    .dwattr $C$DW$30, DW_AT_decl_line(0x16f)
     347                    .dwattr $C$DW$30, DW_AT_decl_column(0x25)
     348                    .dwattr $C$DW$30, DW_AT_TI_max_frame_size(0x04)
     349                    .dwpsn  file "C:/ti/ccs1110/ccs/tools/compiler/ti-cgt-msp430_21.6.1.LTS/include/_defs.h",line 
     350            
     351                    .dwfde $C$DW$CIE, __signbitl
     352            $C$DW$31        .dwtag  DW_TAG_formal_parameter
     353                    .dwattr $C$DW$31, DW_AT_name("e")
     354                    .dwattr $C$DW$31, DW_AT_TI_symbol_name("e")
     355                    .dwattr $C$DW$31, DW_AT_type(*$C$DW$T$18)
     356                    .dwattr $C$DW$31, DW_AT_location[DW_OP_reg12 DW_OP_piece 2 DW_OP_reg13 DW_OP_piece 2 DW_OP_reg
     357            
     358            
     359            ;*****************************************************************************
     360            ;* FUNCTION NAME: __signbitl                                                 *
     361            ;*                                                                           *
     362            ;*   Regs Modified     : SP,SR,r11,r12,r13,r14,r15                           *
     363            ;*   Regs Used         : SP,SR,r11,r12,r13,r14,r15                           *
     364            ;*   Local Frame Size  : 0 Args + 0 Auto + 0 Save = 0 byte                   *
     365            ;*****************************************************************************
     366 000000       __signbitl:
     367            ;* --------------------------------------------------------------------------*
     368                    .dwcfi  cfa_offset, 4
     369                    .dwcfi  save_reg_to_mem, 16, -4
     370                    .dwpsn  file "C:/ti/ccs1110/ccs/tools/compiler/ti-cgt-msp430_21.6.1.LTS/include/_defs.h",line 
     371 000000 430B          MOV.W     #0,r11                ; [] |368| 
     372 000002 F30C          AND.W     #0,r12                ; [] |368| 
     373 000004 F30D          AND.W     #0,r13                ; [] |368| 
     374 000006 F30E          AND.W     #0,r14                ; [] |368| 
     375 000008 F03F          AND.W     #32768,r15            ; [] |368| 
         00000a 8000 
     376 00000c 930F          TST.W     r15                   ; [] |368| 
     377 00000e 2006          JNE       $C$L1                 ; [] |368| 
     378                                                      ; [] |368| 
     379            ;* --------------------------------------------------------------------------*
     380 000010 930E          TST.W     r14                   ; [] |368| 
     381 000012 2004          JNE       $C$L1                 ; [] |368| 
     382                                                      ; [] |368| 
     383            ;* --------------------------------------------------------------------------*
     384 000014 930D          TST.W     r13                   ; [] |368| 
MSP430 Assembler PC v21.6.1 Tue Dec 20 13:45:56 2022

Copyright (c) 2003-2018 Texas Instruments Incorporated
ADC_Calculations.asm                                                 PAGE    8

     385 000016 2002          JNE       $C$L1                 ; [] |368| 
     386                                                      ; [] |368| 
     387            ;* --------------------------------------------------------------------------*
     388 000018 930C          TST.W     r12                   ; [] |368| 
     389 00001a 2401          JEQ       $C$L2                 ; [] |368| 
     390                                                      ; [] |368| 
     391            ;* --------------------------------------------------------------------------*
     392 00001c       $C$L1:    
     393 00001c 431B          MOV.W     #1,r11                ; [] |368| 
     394            ;* --------------------------------------------------------------------------*
     395 00001e       $C$L2:    
     396 00001e 0BCC          MOVA      r11,r12               ; [] |368| 
     397                    .dwpsn  file "C:/ti/ccs1110/ccs/tools/compiler/ti-cgt-msp430_21.6.1.LTS/include/_defs.h",line 
     398            $C$DW$32        .dwtag  DW_TAG_TI_branch
     399                    .dwattr $C$DW$32, DW_AT_low_pc(0x00)
     400                    .dwattr $C$DW$32, DW_AT_TI_return
     401            
     402 000020 0110          RETA      ; [] 
     403                    ; [] 
     404                    .dwattr $C$DW$30, DW_AT_TI_end_file("C:/ti/ccs1110/ccs/tools/compiler/ti-cgt-msp430_21.6.1.LTS
     405                    .dwattr $C$DW$30, DW_AT_TI_end_line(0x170)
     406                    .dwattr $C$DW$30, DW_AT_TI_end_column(0x2b)
     407                    .dwendentry
     408                    .dwendtag $C$DW$30
     409            
     410 000000               .sect   ".text:__signbitf"
     411                    .clink
     412                    .global __signbitf
     413            
     414            $C$DW$33        .dwtag  DW_TAG_subprogram
     415                    .dwattr $C$DW$33, DW_AT_name("__signbitf")
     416                    .dwattr $C$DW$33, DW_AT_low_pc(__signbitf)
     417                    .dwattr $C$DW$33, DW_AT_high_pc(0x00)
     418                    .dwattr $C$DW$33, DW_AT_TI_symbol_name("__signbitf")
     419                    .dwattr $C$DW$33, DW_AT_external
     420                    .dwattr $C$DW$33, DW_AT_type(*$C$DW$T$10)
     421                    .dwattr $C$DW$33, DW_AT_TI_begin_file("C:/ti/ccs1110/ccs/tools/compiler/ti-cgt-msp430_21.6.1.L
     422                    .dwattr $C$DW$33, DW_AT_TI_begin_line(0x16d)
     423                    .dwattr $C$DW$33, DW_AT_TI_begin_column(0x25)
     424                    .dwattr $C$DW$33, DW_AT_decl_file("C:/ti/ccs1110/ccs/tools/compiler/ti-cgt-msp430_21.6.1.LTS/i
     425                    .dwattr $C$DW$33, DW_AT_decl_line(0x16d)
     426                    .dwattr $C$DW$33, DW_AT_decl_column(0x25)
     427                    .dwattr $C$DW$33, DW_AT_TI_max_frame_size(0x04)
     428                    .dwpsn  file "C:/ti/ccs1110/ccs/tools/compiler/ti-cgt-msp430_21.6.1.LTS/include/_defs.h",line 
     429            
     430                    .dwfde $C$DW$CIE, __signbitf
     431            $C$DW$34        .dwtag  DW_TAG_formal_parameter
     432                    .dwattr $C$DW$34, DW_AT_name("f")
     433                    .dwattr $C$DW$34, DW_AT_TI_symbol_name("f")
     434                    .dwattr $C$DW$34, DW_AT_type(*$C$DW$T$16)
     435                    .dwattr $C$DW$34, DW_AT_location[DW_OP_reg12 DW_OP_piece 2 DW_OP_reg13 DW_OP_piece 2]
     436            
     437            
     438            ;*****************************************************************************
     439            ;* FUNCTION NAME: __signbitf                                                 *
MSP430 Assembler PC v21.6.1 Tue Dec 20 13:45:56 2022

Copyright (c) 2003-2018 Texas Instruments Incorporated
ADC_Calculations.asm                                                 PAGE    9

     440            ;*                                                                           *
     441            ;*   Regs Modified     : SP,SR,r12                                           *
     442            ;*   Regs Used         : SP,SR,r12,r13                                       *
     443            ;*   Local Frame Size  : 0 Args + 0 Auto + 0 Save = 0 byte                   *
     444            ;*****************************************************************************
     445 000000       __signbitf:
     446            ;* --------------------------------------------------------------------------*
     447                    .dwcfi  cfa_offset, 4
     448                    .dwcfi  save_reg_to_mem, 16, -4
     449                    .dwpsn  file "C:/ti/ccs1110/ccs/tools/compiler/ti-cgt-msp430_21.6.1.LTS/include/_defs.h",line 
     450 000000 430C          MOV.W     #0,r12                ; [] |366| 
     451 000002 930D          TST.W     r13                   ; [] |366| 
     452 000004 3401          JGE       $C$L3                 ; [] |366| 
     453                                                      ; [] |366| 
     454            ;* --------------------------------------------------------------------------*
     455 000006 431C          MOV.W     #1,r12                ; [] |366| 
     456            ;* --------------------------------------------------------------------------*
     457 000008       $C$L3:    
     458                    .dwpsn  file "C:/ti/ccs1110/ccs/tools/compiler/ti-cgt-msp430_21.6.1.LTS/include/_defs.h",line 
     459            $C$DW$35        .dwtag  DW_TAG_TI_branch
     460                    .dwattr $C$DW$35, DW_AT_low_pc(0x00)
     461                    .dwattr $C$DW$35, DW_AT_TI_return
     462            
     463 000008 0110          RETA      ; [] 
     464                    ; [] 
     465                    .dwattr $C$DW$33, DW_AT_TI_end_file("C:/ti/ccs1110/ccs/tools/compiler/ti-cgt-msp430_21.6.1.LTS
     466                    .dwattr $C$DW$33, DW_AT_TI_end_line(0x16e)
     467                    .dwattr $C$DW$33, DW_AT_TI_end_column(0x29)
     468                    .dwendentry
     469                    .dwendtag $C$DW$33
     470            
     471 000000               .sect   ".text:__signbit"
     472                    .clink
     473                    .global __signbit
     474            
     475            $C$DW$36        .dwtag  DW_TAG_subprogram
     476                    .dwattr $C$DW$36, DW_AT_name("__signbit")
     477                    .dwattr $C$DW$36, DW_AT_low_pc(__signbit)
     478                    .dwattr $C$DW$36, DW_AT_high_pc(0x00)
     479                    .dwattr $C$DW$36, DW_AT_TI_symbol_name("__signbit")
     480                    .dwattr $C$DW$36, DW_AT_external
     481                    .dwattr $C$DW$36, DW_AT_type(*$C$DW$T$10)
     482                    .dwattr $C$DW$36, DW_AT_TI_begin_file("C:/ti/ccs1110/ccs/tools/compiler/ti-cgt-msp430_21.6.1.L
     483                    .dwattr $C$DW$36, DW_AT_TI_begin_line(0x16b)
     484                    .dwattr $C$DW$36, DW_AT_TI_begin_column(0x25)
     485                    .dwattr $C$DW$36, DW_AT_decl_file("C:/ti/ccs1110/ccs/tools/compiler/ti-cgt-msp430_21.6.1.LTS/i
     486                    .dwattr $C$DW$36, DW_AT_decl_line(0x16b)
     487                    .dwattr $C$DW$36, DW_AT_decl_column(0x25)
     488                    .dwattr $C$DW$36, DW_AT_TI_max_frame_size(0x04)
     489                    .dwpsn  file "C:/ti/ccs1110/ccs/tools/compiler/ti-cgt-msp430_21.6.1.LTS/include/_defs.h",line 
     490            
     491                    .dwfde $C$DW$CIE, __signbit
     492            $C$DW$37        .dwtag  DW_TAG_formal_parameter
     493                    .dwattr $C$DW$37, DW_AT_name("d")
     494                    .dwattr $C$DW$37, DW_AT_TI_symbol_name("d")
MSP430 Assembler PC v21.6.1 Tue Dec 20 13:45:56 2022

Copyright (c) 2003-2018 Texas Instruments Incorporated
ADC_Calculations.asm                                                 PAGE   10

     495                    .dwattr $C$DW$37, DW_AT_type(*$C$DW$T$17)
     496                    .dwattr $C$DW$37, DW_AT_location[DW_OP_reg12 DW_OP_piece 2 DW_OP_reg13 DW_OP_piece 2 DW_OP_reg
     497            
     498            
     499            ;*****************************************************************************
     500            ;* FUNCTION NAME: __signbit                                                  *
     501            ;*                                                                           *
     502            ;*   Regs Modified     : SP,SR,r11,r12,r13,r14,r15                           *
     503            ;*   Regs Used         : SP,SR,r11,r12,r13,r14,r15                           *
     504            ;*   Local Frame Size  : 0 Args + 0 Auto + 0 Save = 0 byte                   *
     505            ;*****************************************************************************
     506 000000       __signbit:
     507            ;* --------------------------------------------------------------------------*
     508                    .dwcfi  cfa_offset, 4
     509                    .dwcfi  save_reg_to_mem, 16, -4
     510                    .dwpsn  file "C:/ti/ccs1110/ccs/tools/compiler/ti-cgt-msp430_21.6.1.LTS/include/_defs.h",line 
     511 000000 430B          MOV.W     #0,r11                ; [] |364| 
     512 000002 F30C          AND.W     #0,r12                ; [] |364| 
     513 000004 F30D          AND.W     #0,r13                ; [] |364| 
     514 000006 F30E          AND.W     #0,r14                ; [] |364| 
     515 000008 F03F          AND.W     #32768,r15            ; [] |364| 
         00000a 8000 
     516 00000c 930F          TST.W     r15                   ; [] |364| 
     517 00000e 2006          JNE       $C$L4                 ; [] |364| 
     518                                                      ; [] |364| 
     519            ;* --------------------------------------------------------------------------*
     520 000010 930E          TST.W     r14                   ; [] |364| 
     521 000012 2004          JNE       $C$L4                 ; [] |364| 
     522                                                      ; [] |364| 
     523            ;* --------------------------------------------------------------------------*
     524 000014 930D          TST.W     r13                   ; [] |364| 
     525 000016 2002          JNE       $C$L4                 ; [] |364| 
     526                                                      ; [] |364| 
     527            ;* --------------------------------------------------------------------------*
     528 000018 930C          TST.W     r12                   ; [] |364| 
     529 00001a 2401          JEQ       $C$L5                 ; [] |364| 
     530                                                      ; [] |364| 
     531            ;* --------------------------------------------------------------------------*
     532 00001c       $C$L4:    
     533 00001c 431B          MOV.W     #1,r11                ; [] |364| 
     534            ;* --------------------------------------------------------------------------*
     535 00001e       $C$L5:    
     536 00001e 0BCC          MOVA      r11,r12               ; [] |364| 
     537                    .dwpsn  file "C:/ti/ccs1110/ccs/tools/compiler/ti-cgt-msp430_21.6.1.LTS/include/_defs.h",line 
     538            $C$DW$38        .dwtag  DW_TAG_TI_branch
     539                    .dwattr $C$DW$38, DW_AT_low_pc(0x00)
     540                    .dwattr $C$DW$38, DW_AT_TI_return
     541            
     542 000020 0110          RETA      ; [] 
     543                    ; [] 
     544                    .dwattr $C$DW$36, DW_AT_TI_end_file("C:/ti/ccs1110/ccs/tools/compiler/ti-cgt-msp430_21.6.1.LTS
     545                    .dwattr $C$DW$36, DW_AT_TI_end_line(0x16c)
     546                    .dwattr $C$DW$36, DW_AT_TI_end_column(0x2a)
     547                    .dwendentry
     548                    .dwendtag $C$DW$36
MSP430 Assembler PC v21.6.1 Tue Dec 20 13:45:56 2022

Copyright (c) 2003-2018 Texas Instruments Incorporated
ADC_Calculations.asm                                                 PAGE   11

     549            
     550 000000               .sect   ".text:__isnormall"
     551                    .clink
     552                    .global __isnormall
     553            
     554            $C$DW$39        .dwtag  DW_TAG_subprogram
     555                    .dwattr $C$DW$39, DW_AT_name("__isnormall")
     556                    .dwattr $C$DW$39, DW_AT_low_pc(__isnormall)
     557                    .dwattr $C$DW$39, DW_AT_high_pc(0x00)
     558                    .dwattr $C$DW$39, DW_AT_TI_symbol_name("__isnormall")
     559                    .dwattr $C$DW$39, DW_AT_external
     560                    .dwattr $C$DW$39, DW_AT_type(*$C$DW$T$10)
     561                    .dwattr $C$DW$39, DW_AT_TI_begin_file("C:/ti/ccs1110/ccs/tools/compiler/ti-cgt-msp430_21.6.1.L
     562                    .dwattr $C$DW$39, DW_AT_TI_begin_line(0x167)
     563                    .dwattr $C$DW$39, DW_AT_TI_begin_column(0x25)
     564                    .dwattr $C$DW$39, DW_AT_decl_file("C:/ti/ccs1110/ccs/tools/compiler/ti-cgt-msp430_21.6.1.LTS/i
     565                    .dwattr $C$DW$39, DW_AT_decl_line(0x167)
     566                    .dwattr $C$DW$39, DW_AT_decl_column(0x25)
     567                    .dwattr $C$DW$39, DW_AT_TI_max_frame_size(0x18)
     568                    .dwpsn  file "C:/ti/ccs1110/ccs/tools/compiler/ti-cgt-msp430_21.6.1.LTS/include/_defs.h",line 
     569            
     570                    .dwfde $C$DW$CIE, __isnormall
     571            $C$DW$40        .dwtag  DW_TAG_formal_parameter
     572                    .dwattr $C$DW$40, DW_AT_name("e")
     573                    .dwattr $C$DW$40, DW_AT_TI_symbol_name("e")
     574                    .dwattr $C$DW$40, DW_AT_type(*$C$DW$T$18)
     575                    .dwattr $C$DW$40, DW_AT_location[DW_OP_reg12 DW_OP_piece 2 DW_OP_reg13 DW_OP_piece 2 DW_OP_reg
     576            
     577            
     578            ;*****************************************************************************
     579            ;* FUNCTION NAME: __isnormall                                                *
     580            ;*                                                                           *
     581            ;*   Regs Modified     : SP,SR,r6,r7,r8,r9,r10,r11,r12,r13,r14,r15           *
     582            ;*   Regs Used         : SP,SR,r6,r7,r8,r9,r10,r11,r12,r13,r14,r15           *
     583            ;*   Local Frame Size  : 0 Args + 0 Auto + 20 Save = 20 byte                 *
     584            ;*****************************************************************************
     585 000000       __isnormall:
     586            ;* --------------------------------------------------------------------------*
     587                    .dwcfi  cfa_offset, 4
     588                    .dwcfi  save_reg_to_mem, 16, -4
     589 000000 144A          PUSHM.A   #5,r10                ; [] 
     590                    .dwcfi  save_reg_to_mem, 10, -8
     591                    .dwcfi  save_reg_to_mem, 9, -12
     592                    .dwcfi  save_reg_to_mem, 8, -16
     593                    .dwcfi  save_reg_to_mem, 7, -20
     594                    .dwcfi  save_reg_to_mem, 6, -24
     595                    .dwcfi  cfa_offset, 24
     596            ;* r6    assigned to $O$S1
     597            ;* r12   assigned to e
     598            $C$DW$41        .dwtag  DW_TAG_variable
     599                    .dwattr $C$DW$41, DW_AT_name("e")
     600                    .dwattr $C$DW$41, DW_AT_TI_symbol_name("e")
     601                    .dwattr $C$DW$41, DW_AT_type(*$C$DW$T$18)
     602                    .dwattr $C$DW$41, DW_AT_location[DW_OP_reg12 DW_OP_piece 2 DW_OP_reg13 DW_OP_piece 2 DW_OP_reg
     603            
MSP430 Assembler PC v21.6.1 Tue Dec 20 13:45:56 2022

Copyright (c) 2003-2018 Texas Instruments Incorporated
ADC_Calculations.asm                                                 PAGE   12

     604 000002 0FC7          MOVA      r15,r7                ; [] |360| 
     605                    .dwpsn  file "C:/ti/ccs1110/ccs/tools/compiler/ti-cgt-msp430_21.6.1.LTS/include/_defs.h",line 
     606 000004 4306          MOV.W     #0,r6                 ; [] |360| 
     607 000006 0CC8          MOVA      r12,r8                ; [] |360| 
     608 000008 0DC9          MOVA      r13,r9                ; [] |360| 
     609 00000a 0ECA          MOVA      r14,r10               ; [] |360| 
     610 00000c 07CB          MOVA      r7,r11                ; [] |360| 
     611 00000e 403C          MOV.W     #52,r12               ; [] |360| 
         000010 0034 
     612            $C$DW$42        .dwtag  DW_TAG_TI_branch
     613                    .dwattr $C$DW$42, DW_AT_low_pc(0x00)
     614                    .dwattr $C$DW$42, DW_AT_name("__mspabi_srlll")
     615                    .dwattr $C$DW$42, DW_AT_TI_call
     616            
     617 000012 13B0!         CALLA     #__mspabi_srlll       ; [] |360| 
         000014 0000 
     618                                                      ; [] |360| 
     619 000016 F03C          AND.W     #2047,r12             ; [] |360| 
         000018 07FF 
     620 00001a F30D          AND.W     #0,r13                ; [] |360| 
     621 00001c F30E          AND.W     #0,r14                ; [] |360| 
     622 00001e F30F          AND.W     #0,r15                ; [] |360| 
     623 000020 930F          TST.W     r15                   ; [] |360| 
     624 000022 2006          JNE       $C$L6                 ; [] |360| 
     625                                                      ; [] |360| 
     626            ;* --------------------------------------------------------------------------*
     627 000024 930E          TST.W     r14                   ; [] |360| 
     628 000026 2004          JNE       $C$L6                 ; [] |360| 
     629                                                      ; [] |360| 
     630            ;* --------------------------------------------------------------------------*
     631 000028 930D          TST.W     r13                   ; [] |360| 
     632 00002a 2002          JNE       $C$L6                 ; [] |360| 
     633                                                      ; [] |360| 
     634            ;* --------------------------------------------------------------------------*
     635 00002c 930C          TST.W     r12                   ; [] |360| 
     636 00002e 2406          JEQ       $C$L7                 ; [] |360| 
     637                                                      ; [] |360| 
     638            ;* --------------------------------------------------------------------------*
     639 000030       $C$L6:    
     640 000030 F037          AND.W     #32752,r7             ; [] |360| 
         000032 7FF0 
     641 000034 9037          CMP.W     #32752,r7             ; [] |360| 
         000036 7FF0 
     642 000038 2401          JEQ       $C$L7                 ; [] |360| 
     643                                                      ; [] |360| 
     644            ;* --------------------------------------------------------------------------*
     645 00003a 4316          MOV.W     #1,r6                 ; [] |360| 
     646            ;* --------------------------------------------------------------------------*
     647 00003c       $C$L7:    
     648 00003c 06CC          MOVA      r6,r12                ; [] |360| 
     649                    .dwpsn  file "C:/ti/ccs1110/ccs/tools/compiler/ti-cgt-msp430_21.6.1.LTS/include/_defs.h",line 
     650 00003e 1646          POPM.A    #5,r10                ; [] 
     651                    .dwcfi  restore_reg, 6
     652                    .dwcfi  restore_reg, 7
     653                    .dwcfi  restore_reg, 8
MSP430 Assembler PC v21.6.1 Tue Dec 20 13:45:56 2022

Copyright (c) 2003-2018 Texas Instruments Incorporated
ADC_Calculations.asm                                                 PAGE   13

     654                    .dwcfi  restore_reg, 9
     655                    .dwcfi  restore_reg, 10
     656                    .dwcfi  cfa_offset, 4
     657            $C$DW$43        .dwtag  DW_TAG_TI_branch
     658                    .dwattr $C$DW$43, DW_AT_low_pc(0x00)
     659                    .dwattr $C$DW$43, DW_AT_TI_return
     660            
     661 000040 0110          RETA      ; [] 
     662                    ; [] 
     663                    .dwattr $C$DW$39, DW_AT_TI_end_file("C:/ti/ccs1110/ccs/tools/compiler/ti-cgt-msp430_21.6.1.LTS
     664                    .dwattr $C$DW$39, DW_AT_TI_end_line(0x169)
     665                    .dwattr $C$DW$39, DW_AT_TI_end_column(0x31)
     666                    .dwendentry
     667                    .dwendtag $C$DW$39
     668            
     669 000000               .sect   ".text:__isnormalf"
     670                    .clink
     671                    .global __isnormalf
     672            
     673            $C$DW$44        .dwtag  DW_TAG_subprogram
     674                    .dwattr $C$DW$44, DW_AT_name("__isnormalf")
     675                    .dwattr $C$DW$44, DW_AT_low_pc(__isnormalf)
     676                    .dwattr $C$DW$44, DW_AT_high_pc(0x00)
     677                    .dwattr $C$DW$44, DW_AT_TI_symbol_name("__isnormalf")
     678                    .dwattr $C$DW$44, DW_AT_external
     679                    .dwattr $C$DW$44, DW_AT_type(*$C$DW$T$10)
     680                    .dwattr $C$DW$44, DW_AT_TI_begin_file("C:/ti/ccs1110/ccs/tools/compiler/ti-cgt-msp430_21.6.1.L
     681                    .dwattr $C$DW$44, DW_AT_TI_begin_line(0x163)
     682                    .dwattr $C$DW$44, DW_AT_TI_begin_column(0x25)
     683                    .dwattr $C$DW$44, DW_AT_decl_file("C:/ti/ccs1110/ccs/tools/compiler/ti-cgt-msp430_21.6.1.LTS/i
     684                    .dwattr $C$DW$44, DW_AT_decl_line(0x163)
     685                    .dwattr $C$DW$44, DW_AT_decl_column(0x25)
     686                    .dwattr $C$DW$44, DW_AT_TI_max_frame_size(0x04)
     687                    .dwpsn  file "C:/ti/ccs1110/ccs/tools/compiler/ti-cgt-msp430_21.6.1.LTS/include/_defs.h",line 
     688            
     689                    .dwfde $C$DW$CIE, __isnormalf
     690            $C$DW$45        .dwtag  DW_TAG_formal_parameter
     691                    .dwattr $C$DW$45, DW_AT_name("f")
     692                    .dwattr $C$DW$45, DW_AT_TI_symbol_name("f")
     693                    .dwattr $C$DW$45, DW_AT_type(*$C$DW$T$16)
     694                    .dwattr $C$DW$45, DW_AT_location[DW_OP_reg12 DW_OP_piece 2 DW_OP_reg13 DW_OP_piece 2]
     695            
     696            
     697            ;*****************************************************************************
     698            ;* FUNCTION NAME: __isnormalf                                                *
     699            ;*                                                                           *
     700            ;*   Regs Modified     : SP,SR,r12,r13,r15                                   *
     701            ;*   Regs Used         : SP,SR,r12,r13,r15                                   *
     702            ;*   Local Frame Size  : 0 Args + 0 Auto + 0 Save = 0 byte                   *
     703            ;*****************************************************************************
     704 000000       __isnormalf:
     705            ;* --------------------------------------------------------------------------*
     706                    .dwcfi  cfa_offset, 4
     707                    .dwcfi  save_reg_to_mem, 16, -4
     708            ;* r12   assigned to $O$S1
MSP430 Assembler PC v21.6.1 Tue Dec 20 13:45:56 2022

Copyright (c) 2003-2018 Texas Instruments Incorporated
ADC_Calculations.asm                                                 PAGE   14

     709                    .dwpsn  file "C:/ti/ccs1110/ccs/tools/compiler/ti-cgt-msp430_21.6.1.LTS/include/_defs.h",line 
     710 000000 430C          MOV.W     #0,r12                ; [] |356| 
     711 000002 0DCF          MOVA      r13,r15               ; [] |356| 
     712 000004 1946          RPT #7 || RRUX.W r15 ; [] |356| 
         000006 100F 
     713 000008 B03F          BIT.W     #255,r15              ; [] |356| 
         00000a 00FF 
     714 00000c 2406          JEQ       $C$L8                 ; [] |356| 
     715                                                      ; [] |356| 
     716            ;* --------------------------------------------------------------------------*
     717 00000e F03D          AND.W     #32640,r13            ; [] |356| 
         000010 7F80 
     718 000012 903D          CMP.W     #32640,r13            ; [] |356| 
         000014 7F80 
     719 000016 2401          JEQ       $C$L8                 ; [] |356| 
     720                                                      ; [] |356| 
     721            ;* --------------------------------------------------------------------------*
     722 000018 431C          MOV.W     #1,r12                ; [] |356| 
     723            ;* --------------------------------------------------------------------------*
     724 00001a       $C$L8:    
     725                    .dwpsn  file "C:/ti/ccs1110/ccs/tools/compiler/ti-cgt-msp430_21.6.1.LTS/include/_defs.h",line 
     726            $C$DW$46        .dwtag  DW_TAG_TI_branch
     727                    .dwattr $C$DW$46, DW_AT_low_pc(0x00)
     728                    .dwattr $C$DW$46, DW_AT_TI_return
     729            
     730 00001a 0110          RETA      ; [] 
     731                    ; [] 
     732                    .dwattr $C$DW$44, DW_AT_TI_end_file("C:/ti/ccs1110/ccs/tools/compiler/ti-cgt-msp430_21.6.1.LTS
     733                    .dwattr $C$DW$44, DW_AT_TI_end_line(0x165)
     734                    .dwattr $C$DW$44, DW_AT_TI_end_column(0x2f)
     735                    .dwendentry
     736                    .dwendtag $C$DW$44
     737            
     738 000000               .sect   ".text:__isnormal"
     739                    .clink
     740                    .global __isnormal
     741            
     742            $C$DW$47        .dwtag  DW_TAG_subprogram
     743                    .dwattr $C$DW$47, DW_AT_name("__isnormal")
     744                    .dwattr $C$DW$47, DW_AT_low_pc(__isnormal)
     745                    .dwattr $C$DW$47, DW_AT_high_pc(0x00)
     746                    .dwattr $C$DW$47, DW_AT_TI_symbol_name("__isnormal")
     747                    .dwattr $C$DW$47, DW_AT_external
     748                    .dwattr $C$DW$47, DW_AT_type(*$C$DW$T$10)
     749                    .dwattr $C$DW$47, DW_AT_TI_begin_file("C:/ti/ccs1110/ccs/tools/compiler/ti-cgt-msp430_21.6.1.L
     750                    .dwattr $C$DW$47, DW_AT_TI_begin_line(0x15f)
     751                    .dwattr $C$DW$47, DW_AT_TI_begin_column(0x25)
     752                    .dwattr $C$DW$47, DW_AT_decl_file("C:/ti/ccs1110/ccs/tools/compiler/ti-cgt-msp430_21.6.1.LTS/i
     753                    .dwattr $C$DW$47, DW_AT_decl_line(0x15f)
     754                    .dwattr $C$DW$47, DW_AT_decl_column(0x25)
     755                    .dwattr $C$DW$47, DW_AT_TI_max_frame_size(0x18)
     756                    .dwpsn  file "C:/ti/ccs1110/ccs/tools/compiler/ti-cgt-msp430_21.6.1.LTS/include/_defs.h",line 
     757            
     758                    .dwfde $C$DW$CIE, __isnormal
     759            $C$DW$48        .dwtag  DW_TAG_formal_parameter
MSP430 Assembler PC v21.6.1 Tue Dec 20 13:45:56 2022

Copyright (c) 2003-2018 Texas Instruments Incorporated
ADC_Calculations.asm                                                 PAGE   15

     760                    .dwattr $C$DW$48, DW_AT_name("d")
     761                    .dwattr $C$DW$48, DW_AT_TI_symbol_name("d")
     762                    .dwattr $C$DW$48, DW_AT_type(*$C$DW$T$17)
     763                    .dwattr $C$DW$48, DW_AT_location[DW_OP_reg12 DW_OP_piece 2 DW_OP_reg13 DW_OP_piece 2 DW_OP_reg
     764            
     765            
     766            ;*****************************************************************************
     767            ;* FUNCTION NAME: __isnormal                                                 *
     768            ;*                                                                           *
     769            ;*   Regs Modified     : SP,SR,r6,r7,r8,r9,r10,r11,r12,r13,r14,r15           *
     770            ;*   Regs Used         : SP,SR,r6,r7,r8,r9,r10,r11,r12,r13,r14,r15           *
     771            ;*   Local Frame Size  : 0 Args + 0 Auto + 20 Save = 20 byte                 *
     772            ;*****************************************************************************
     773 000000       __isnormal:
     774            ;* --------------------------------------------------------------------------*
     775                    .dwcfi  cfa_offset, 4
     776                    .dwcfi  save_reg_to_mem, 16, -4
     777 000000 144A          PUSHM.A   #5,r10                ; [] 
     778                    .dwcfi  save_reg_to_mem, 10, -8
     779                    .dwcfi  save_reg_to_mem, 9, -12
     780                    .dwcfi  save_reg_to_mem, 8, -16
     781                    .dwcfi  save_reg_to_mem, 7, -20
     782                    .dwcfi  save_reg_to_mem, 6, -24
     783                    .dwcfi  cfa_offset, 24
     784            ;* r6    assigned to $O$S1
     785            ;* r12   assigned to d
     786            $C$DW$49        .dwtag  DW_TAG_variable
     787                    .dwattr $C$DW$49, DW_AT_name("d")
     788                    .dwattr $C$DW$49, DW_AT_TI_symbol_name("d")
     789                    .dwattr $C$DW$49, DW_AT_type(*$C$DW$T$17)
     790                    .dwattr $C$DW$49, DW_AT_location[DW_OP_reg12 DW_OP_piece 2 DW_OP_reg13 DW_OP_piece 2 DW_OP_reg
     791            
     792 000002 0FC7          MOVA      r15,r7                ; [] |352| 
     793                    .dwpsn  file "C:/ti/ccs1110/ccs/tools/compiler/ti-cgt-msp430_21.6.1.LTS/include/_defs.h",line 
     794 000004 4306          MOV.W     #0,r6                 ; [] |352| 
     795 000006 0CC8          MOVA      r12,r8                ; [] |352| 
     796 000008 0DC9          MOVA      r13,r9                ; [] |352| 
     797 00000a 0ECA          MOVA      r14,r10               ; [] |352| 
     798 00000c 07CB          MOVA      r7,r11                ; [] |352| 
     799 00000e 403C          MOV.W     #52,r12               ; [] |352| 
         000010 0034 
     800            $C$DW$50        .dwtag  DW_TAG_TI_branch
     801                    .dwattr $C$DW$50, DW_AT_low_pc(0x00)
     802                    .dwattr $C$DW$50, DW_AT_name("__mspabi_srlll")
     803                    .dwattr $C$DW$50, DW_AT_TI_call
     804            
     805 000012 13B0!         CALLA     #__mspabi_srlll       ; [] |352| 
         000014 0000 
     806                                                      ; [] |352| 
     807 000016 F03C          AND.W     #2047,r12             ; [] |352| 
         000018 07FF 
     808 00001a F30D          AND.W     #0,r13                ; [] |352| 
     809 00001c F30E          AND.W     #0,r14                ; [] |352| 
     810 00001e F30F          AND.W     #0,r15                ; [] |352| 
     811 000020 930F          TST.W     r15                   ; [] |352| 
MSP430 Assembler PC v21.6.1 Tue Dec 20 13:45:56 2022

Copyright (c) 2003-2018 Texas Instruments Incorporated
ADC_Calculations.asm                                                 PAGE   16

     812 000022 2006          JNE       $C$L9                 ; [] |352| 
     813                                                      ; [] |352| 
     814            ;* --------------------------------------------------------------------------*
     815 000024 930E          TST.W     r14                   ; [] |352| 
     816 000026 2004          JNE       $C$L9                 ; [] |352| 
     817                                                      ; [] |352| 
     818            ;* --------------------------------------------------------------------------*
     819 000028 930D          TST.W     r13                   ; [] |352| 
     820 00002a 2002          JNE       $C$L9                 ; [] |352| 
     821                                                      ; [] |352| 
     822            ;* --------------------------------------------------------------------------*
     823 00002c 930C          TST.W     r12                   ; [] |352| 
     824 00002e 2406          JEQ       $C$L10                ; [] |352| 
     825                                                      ; [] |352| 
     826            ;* --------------------------------------------------------------------------*
     827 000030       $C$L9:    
     828 000030 F037          AND.W     #32752,r7             ; [] |352| 
         000032 7FF0 
     829 000034 9037          CMP.W     #32752,r7             ; [] |352| 
         000036 7FF0 
     830 000038 2401          JEQ       $C$L10                ; [] |352| 
     831                                                      ; [] |352| 
     832            ;* --------------------------------------------------------------------------*
     833 00003a 4316          MOV.W     #1,r6                 ; [] |352| 
     834            ;* --------------------------------------------------------------------------*
     835 00003c       $C$L10:    
     836 00003c 06CC          MOVA      r6,r12                ; [] |352| 
     837                    .dwpsn  file "C:/ti/ccs1110/ccs/tools/compiler/ti-cgt-msp430_21.6.1.LTS/include/_defs.h",line 
     838 00003e 1646          POPM.A    #5,r10                ; [] 
     839                    .dwcfi  restore_reg, 6
     840                    .dwcfi  restore_reg, 7
     841                    .dwcfi  restore_reg, 8
     842                    .dwcfi  restore_reg, 9
     843                    .dwcfi  restore_reg, 10
     844                    .dwcfi  cfa_offset, 4
     845            $C$DW$51        .dwtag  DW_TAG_TI_branch
     846                    .dwattr $C$DW$51, DW_AT_low_pc(0x00)
     847                    .dwattr $C$DW$51, DW_AT_TI_return
     848            
     849 000040 0110          RETA      ; [] 
     850                    ; [] 
     851                    .dwattr $C$DW$47, DW_AT_TI_end_file("C:/ti/ccs1110/ccs/tools/compiler/ti-cgt-msp430_21.6.1.LTS
     852                    .dwattr $C$DW$47, DW_AT_TI_end_line(0x161)
     853                    .dwattr $C$DW$47, DW_AT_TI_end_column(0x30)
     854                    .dwendentry
     855                    .dwendtag $C$DW$47
     856            
     857 000000               .sect   ".text:__isnanl"
     858                    .clink
     859                    .global __isnanl
     860            
     861            $C$DW$52        .dwtag  DW_TAG_subprogram
     862                    .dwattr $C$DW$52, DW_AT_name("__isnanl")
     863                    .dwattr $C$DW$52, DW_AT_low_pc(__isnanl)
     864                    .dwattr $C$DW$52, DW_AT_high_pc(0x00)
MSP430 Assembler PC v21.6.1 Tue Dec 20 13:45:56 2022

Copyright (c) 2003-2018 Texas Instruments Incorporated
ADC_Calculations.asm                                                 PAGE   17

     865                    .dwattr $C$DW$52, DW_AT_TI_symbol_name("__isnanl")
     866                    .dwattr $C$DW$52, DW_AT_external
     867                    .dwattr $C$DW$52, DW_AT_type(*$C$DW$T$10)
     868                    .dwattr $C$DW$52, DW_AT_TI_begin_file("C:/ti/ccs1110/ccs/tools/compiler/ti-cgt-msp430_21.6.1.L
     869                    .dwattr $C$DW$52, DW_AT_TI_begin_line(0x15b)
     870                    .dwattr $C$DW$52, DW_AT_TI_begin_column(0x25)
     871                    .dwattr $C$DW$52, DW_AT_decl_file("C:/ti/ccs1110/ccs/tools/compiler/ti-cgt-msp430_21.6.1.LTS/i
     872                    .dwattr $C$DW$52, DW_AT_decl_line(0x15b)
     873                    .dwattr $C$DW$52, DW_AT_decl_column(0x25)
     874                    .dwattr $C$DW$52, DW_AT_TI_max_frame_size(0x08)
     875                    .dwpsn  file "C:/ti/ccs1110/ccs/tools/compiler/ti-cgt-msp430_21.6.1.LTS/include/_defs.h",line 
     876            
     877                    .dwfde $C$DW$CIE, __isnanl
     878            $C$DW$53        .dwtag  DW_TAG_formal_parameter
     879                    .dwattr $C$DW$53, DW_AT_name("e")
     880                    .dwattr $C$DW$53, DW_AT_TI_symbol_name("e")
     881                    .dwattr $C$DW$53, DW_AT_type(*$C$DW$T$18)
     882                    .dwattr $C$DW$53, DW_AT_location[DW_OP_reg12 DW_OP_piece 2 DW_OP_reg13 DW_OP_piece 2 DW_OP_reg
     883            
     884            
     885            ;*****************************************************************************
     886            ;* FUNCTION NAME: __isnanl                                                   *
     887            ;*                                                                           *
     888            ;*   Regs Modified     : SP,SR,r10,r11,r12,r13,r14,r15                       *
     889            ;*   Regs Used         : SP,SR,r10,r11,r12,r13,r14,r15                       *
     890            ;*   Local Frame Size  : 0 Args + 0 Auto + 4 Save = 4 byte                   *
     891            ;*****************************************************************************
     892 000000       __isnanl:
     893            ;* --------------------------------------------------------------------------*
     894                    .dwcfi  cfa_offset, 4
     895                    .dwcfi  save_reg_to_mem, 16, -4
     896 000000 140A          PUSHM.A   #1,r10                ; [] 
     897                    .dwcfi  save_reg_to_mem, 10, -8
     898                    .dwcfi  cfa_offset, 8
     899            ;* r11   assigned to $O$S1
     900                    .dwpsn  file "C:/ti/ccs1110/ccs/tools/compiler/ti-cgt-msp430_21.6.1.LTS/include/_defs.h",line 
     901 000002 430B          MOV.W     #0,r11                ; [] |348| 
     902 000004 0FCA          MOVA      r15,r10               ; [] |348| 
     903 000006 F03A          AND.W     #32752,r10            ; [] |348| 
         000008 7FF0 
     904 00000a 903A          CMP.W     #32752,r10            ; [] |348| 
         00000c 7FF0 
     905 00000e 200E          JNE       $C$L12                ; [] |348| 
     906                                                      ; [] |348| 
     907            ;* --------------------------------------------------------------------------*
     908 000010 F33C          AND.W     #65535,r12            ; [] |348| 
     909 000012 F33D          AND.W     #65535,r13            ; [] |348| 
     910 000014 F33E          AND.W     #65535,r14            ; [] |348| 
     911 000016 F03F          AND.W     #15,r15               ; [] |348| 
         000018 000F 
     912 00001a 930F          TST.W     r15                   ; [] |348| 
     913 00001c 2006          JNE       $C$L11                ; [] |348| 
     914                                                      ; [] |348| 
     915            ;* --------------------------------------------------------------------------*
     916 00001e 930E          TST.W     r14                   ; [] |348| 
MSP430 Assembler PC v21.6.1 Tue Dec 20 13:45:56 2022

Copyright (c) 2003-2018 Texas Instruments Incorporated
ADC_Calculations.asm                                                 PAGE   18

     917 000020 2004          JNE       $C$L11                ; [] |348| 
     918                                                      ; [] |348| 
     919            ;* --------------------------------------------------------------------------*
     920 000022 930D          TST.W     r13                   ; [] |348| 
     921 000024 2002          JNE       $C$L11                ; [] |348| 
     922                                                      ; [] |348| 
     923            ;* --------------------------------------------------------------------------*
     924 000026 930C          TST.W     r12                   ; [] |348| 
     925 000028 2401          JEQ       $C$L12                ; [] |348| 
     926                                                      ; [] |348| 
     927            ;* --------------------------------------------------------------------------*
     928 00002a       $C$L11:    
     929 00002a 431B          MOV.W     #1,r11                ; [] |348| 
     930            ;* --------------------------------------------------------------------------*
     931 00002c       $C$L12:    
     932 00002c 0BCC          MOVA      r11,r12               ; [] |348| 
     933                    .dwpsn  file "C:/ti/ccs1110/ccs/tools/compiler/ti-cgt-msp430_21.6.1.LTS/include/_defs.h",line 
     934 00002e 160A          POPM.A    #1,r10                ; [] 
     935                    .dwcfi  restore_reg, 10
     936                    .dwcfi  cfa_offset, 4
     937            $C$DW$54        .dwtag  DW_TAG_TI_branch
     938                    .dwattr $C$DW$54, DW_AT_low_pc(0x00)
     939                    .dwattr $C$DW$54, DW_AT_TI_return
     940            
     941 000030 0110          RETA      ; [] 
     942                    ; [] 
     943                    .dwattr $C$DW$52, DW_AT_TI_end_file("C:/ti/ccs1110/ccs/tools/compiler/ti-cgt-msp430_21.6.1.LTS
     944                    .dwattr $C$DW$52, DW_AT_TI_end_line(0x15d)
     945                    .dwattr $C$DW$52, DW_AT_TI_end_column(0x30)
     946                    .dwendentry
     947                    .dwendtag $C$DW$52
     948            
     949 000000               .sect   ".text:__isnanf"
     950                    .clink
     951                    .global __isnanf
     952            
     953            $C$DW$55        .dwtag  DW_TAG_subprogram
     954                    .dwattr $C$DW$55, DW_AT_name("__isnanf")
     955                    .dwattr $C$DW$55, DW_AT_low_pc(__isnanf)
     956                    .dwattr $C$DW$55, DW_AT_high_pc(0x00)
     957                    .dwattr $C$DW$55, DW_AT_TI_symbol_name("__isnanf")
     958                    .dwattr $C$DW$55, DW_AT_external
     959                    .dwattr $C$DW$55, DW_AT_type(*$C$DW$T$10)
     960                    .dwattr $C$DW$55, DW_AT_TI_begin_file("C:/ti/ccs1110/ccs/tools/compiler/ti-cgt-msp430_21.6.1.L
     961                    .dwattr $C$DW$55, DW_AT_TI_begin_line(0x158)
     962                    .dwattr $C$DW$55, DW_AT_TI_begin_column(0x25)
     963                    .dwattr $C$DW$55, DW_AT_decl_file("C:/ti/ccs1110/ccs/tools/compiler/ti-cgt-msp430_21.6.1.LTS/i
     964                    .dwattr $C$DW$55, DW_AT_decl_line(0x158)
     965                    .dwattr $C$DW$55, DW_AT_decl_column(0x25)
     966                    .dwattr $C$DW$55, DW_AT_TI_max_frame_size(0x04)
     967                    .dwpsn  file "C:/ti/ccs1110/ccs/tools/compiler/ti-cgt-msp430_21.6.1.LTS/include/_defs.h",line 
     968            
     969                    .dwfde $C$DW$CIE, __isnanf
     970            $C$DW$56        .dwtag  DW_TAG_formal_parameter
     971                    .dwattr $C$DW$56, DW_AT_name("f")
MSP430 Assembler PC v21.6.1 Tue Dec 20 13:45:56 2022

Copyright (c) 2003-2018 Texas Instruments Incorporated
ADC_Calculations.asm                                                 PAGE   19

     972                    .dwattr $C$DW$56, DW_AT_TI_symbol_name("f")
     973                    .dwattr $C$DW$56, DW_AT_type(*$C$DW$T$16)
     974                    .dwattr $C$DW$56, DW_AT_location[DW_OP_reg12 DW_OP_piece 2 DW_OP_reg13 DW_OP_piece 2]
     975            
     976            
     977            ;*****************************************************************************
     978            ;* FUNCTION NAME: __isnanf                                                   *
     979            ;*                                                                           *
     980            ;*   Regs Modified     : SP,SR,r12,r13,r14,r15                               *
     981            ;*   Regs Used         : SP,SR,r12,r13,r14,r15                               *
     982            ;*   Local Frame Size  : 0 Args + 0 Auto + 0 Save = 0 byte                   *
     983            ;*****************************************************************************
     984 000000       __isnanf:
     985            ;* --------------------------------------------------------------------------*
     986                    .dwcfi  cfa_offset, 4
     987                    .dwcfi  save_reg_to_mem, 16, -4
     988            ;* r15   assigned to $O$S1
     989                    .dwpsn  file "C:/ti/ccs1110/ccs/tools/compiler/ti-cgt-msp430_21.6.1.LTS/include/_defs.h",line 
     990 000000 430F          MOV.W     #0,r15                ; [] |345| 
     991 000002 0DCE          MOVA      r13,r14               ; [] |345| 
     992 000004 F03E          AND.W     #32640,r14            ; [] |345| 
         000006 7F80 
     993 000008 903E          CMP.W     #32640,r14            ; [] |345| 
         00000a 7F80 
     994 00000c 2008          JNE       $C$L14                ; [] |345| 
     995                                                      ; [] |345| 
     996            ;* --------------------------------------------------------------------------*
     997 00000e F33C          AND.W     #65535,r12            ; [] |345| 
     998 000010 F03D          AND.W     #127,r13              ; [] |345| 
         000012 007F 
     999 000014 930D          TST.W     r13                   ; [] |345| 
    1000 000016 2002          JNE       $C$L13                ; [] |345| 
    1001                                                      ; [] |345| 
    1002            ;* --------------------------------------------------------------------------*
    1003 000018 930C          TST.W     r12                   ; [] |345| 
    1004 00001a 2401          JEQ       $C$L14                ; [] |345| 
    1005                                                      ; [] |345| 
    1006            ;* --------------------------------------------------------------------------*
    1007 00001c       $C$L13:    
    1008 00001c 431F          MOV.W     #1,r15                ; [] |345| 
    1009            ;* --------------------------------------------------------------------------*
    1010 00001e       $C$L14:    
    1011 00001e 0FCC          MOVA      r15,r12               ; [] |345| 
    1012                    .dwpsn  file "C:/ti/ccs1110/ccs/tools/compiler/ti-cgt-msp430_21.6.1.LTS/include/_defs.h",line 
    1013            $C$DW$57        .dwtag  DW_TAG_TI_branch
    1014                    .dwattr $C$DW$57, DW_AT_low_pc(0x00)
    1015                    .dwattr $C$DW$57, DW_AT_TI_return
    1016            
    1017 000020 0110          RETA      ; [] 
    1018                    ; [] 
    1019                    .dwattr $C$DW$55, DW_AT_TI_end_file("C:/ti/ccs1110/ccs/tools/compiler/ti-cgt-msp430_21.6.1.LTS
    1020                    .dwattr $C$DW$55, DW_AT_TI_end_line(0x15a)
    1021                    .dwattr $C$DW$55, DW_AT_TI_end_column(0x2e)
    1022                    .dwendentry
    1023                    .dwendtag $C$DW$55
MSP430 Assembler PC v21.6.1 Tue Dec 20 13:45:56 2022

Copyright (c) 2003-2018 Texas Instruments Incorporated
ADC_Calculations.asm                                                 PAGE   20

    1024            
    1025 000000               .sect   ".text:__isnan"
    1026                    .clink
    1027                    .global __isnan
    1028            
    1029            $C$DW$58        .dwtag  DW_TAG_subprogram
    1030                    .dwattr $C$DW$58, DW_AT_name("__isnan")
    1031                    .dwattr $C$DW$58, DW_AT_low_pc(__isnan)
    1032                    .dwattr $C$DW$58, DW_AT_high_pc(0x00)
    1033                    .dwattr $C$DW$58, DW_AT_TI_symbol_name("__isnan")
    1034                    .dwattr $C$DW$58, DW_AT_external
    1035                    .dwattr $C$DW$58, DW_AT_type(*$C$DW$T$10)
    1036                    .dwattr $C$DW$58, DW_AT_TI_begin_file("C:/ti/ccs1110/ccs/tools/compiler/ti-cgt-msp430_21.6.1.L
    1037                    .dwattr $C$DW$58, DW_AT_TI_begin_line(0x155)
    1038                    .dwattr $C$DW$58, DW_AT_TI_begin_column(0x25)
    1039                    .dwattr $C$DW$58, DW_AT_decl_file("C:/ti/ccs1110/ccs/tools/compiler/ti-cgt-msp430_21.6.1.LTS/i
    1040                    .dwattr $C$DW$58, DW_AT_decl_line(0x155)
    1041                    .dwattr $C$DW$58, DW_AT_decl_column(0x25)
    1042                    .dwattr $C$DW$58, DW_AT_TI_max_frame_size(0x08)
    1043                    .dwpsn  file "C:/ti/ccs1110/ccs/tools/compiler/ti-cgt-msp430_21.6.1.LTS/include/_defs.h",line 
    1044            
    1045                    .dwfde $C$DW$CIE, __isnan
    1046            $C$DW$59        .dwtag  DW_TAG_formal_parameter
    1047                    .dwattr $C$DW$59, DW_AT_name("d")
    1048                    .dwattr $C$DW$59, DW_AT_TI_symbol_name("d")
    1049                    .dwattr $C$DW$59, DW_AT_type(*$C$DW$T$17)
    1050                    .dwattr $C$DW$59, DW_AT_location[DW_OP_reg12 DW_OP_piece 2 DW_OP_reg13 DW_OP_piece 2 DW_OP_reg
    1051            
    1052            
    1053            ;*****************************************************************************
    1054            ;* FUNCTION NAME: __isnan                                                    *
    1055            ;*                                                                           *
    1056            ;*   Regs Modified     : SP,SR,r10,r11,r12,r13,r14,r15                       *
    1057            ;*   Regs Used         : SP,SR,r10,r11,r12,r13,r14,r15                       *
    1058            ;*   Local Frame Size  : 0 Args + 0 Auto + 4 Save = 4 byte                   *
    1059            ;*****************************************************************************
    1060 000000       __isnan:
    1061            ;* --------------------------------------------------------------------------*
    1062                    .dwcfi  cfa_offset, 4
    1063                    .dwcfi  save_reg_to_mem, 16, -4
    1064 000000 140A          PUSHM.A   #1,r10                ; [] 
    1065                    .dwcfi  save_reg_to_mem, 10, -8
    1066                    .dwcfi  cfa_offset, 8
    1067            ;* r11   assigned to $O$S1
    1068                    .dwpsn  file "C:/ti/ccs1110/ccs/tools/compiler/ti-cgt-msp430_21.6.1.LTS/include/_defs.h",line 
    1069 000002 430B          MOV.W     #0,r11                ; [] |342| 
    1070 000004 0FCA          MOVA      r15,r10               ; [] |342| 
    1071 000006 F03A          AND.W     #32752,r10            ; [] |342| 
         000008 7FF0 
    1072 00000a 903A          CMP.W     #32752,r10            ; [] |342| 
         00000c 7FF0 
    1073 00000e 200E          JNE       $C$L16                ; [] |342| 
    1074                                                      ; [] |342| 
    1075            ;* --------------------------------------------------------------------------*
    1076 000010 F33C          AND.W     #65535,r12            ; [] |342| 
MSP430 Assembler PC v21.6.1 Tue Dec 20 13:45:56 2022

Copyright (c) 2003-2018 Texas Instruments Incorporated
ADC_Calculations.asm                                                 PAGE   21

    1077 000012 F33D          AND.W     #65535,r13            ; [] |342| 
    1078 000014 F33E          AND.W     #65535,r14            ; [] |342| 
    1079 000016 F03F          AND.W     #15,r15               ; [] |342| 
         000018 000F 
    1080 00001a 930F          TST.W     r15                   ; [] |342| 
    1081 00001c 2006          JNE       $C$L15                ; [] |342| 
    1082                                                      ; [] |342| 
    1083            ;* --------------------------------------------------------------------------*
    1084 00001e 930E          TST.W     r14                   ; [] |342| 
    1085 000020 2004          JNE       $C$L15                ; [] |342| 
    1086                                                      ; [] |342| 
    1087            ;* --------------------------------------------------------------------------*
    1088 000022 930D          TST.W     r13                   ; [] |342| 
    1089 000024 2002          JNE       $C$L15                ; [] |342| 
    1090                                                      ; [] |342| 
    1091            ;* --------------------------------------------------------------------------*
    1092 000026 930C          TST.W     r12                   ; [] |342| 
    1093 000028 2401          JEQ       $C$L16                ; [] |342| 
    1094                                                      ; [] |342| 
    1095            ;* --------------------------------------------------------------------------*
    1096 00002a       $C$L15:    
    1097 00002a 431B          MOV.W     #1,r11                ; [] |342| 
    1098            ;* --------------------------------------------------------------------------*
    1099 00002c       $C$L16:    
    1100 00002c 0BCC          MOVA      r11,r12               ; [] |342| 
    1101                    .dwpsn  file "C:/ti/ccs1110/ccs/tools/compiler/ti-cgt-msp430_21.6.1.LTS/include/_defs.h",line 
    1102 00002e 160A          POPM.A    #1,r10                ; [] 
    1103                    .dwcfi  restore_reg, 10
    1104                    .dwcfi  cfa_offset, 4
    1105            $C$DW$60        .dwtag  DW_TAG_TI_branch
    1106                    .dwattr $C$DW$60, DW_AT_low_pc(0x00)
    1107                    .dwattr $C$DW$60, DW_AT_TI_return
    1108            
    1109 000030 0110          RETA      ; [] 
    1110                    ; [] 
    1111                    .dwattr $C$DW$58, DW_AT_TI_end_file("C:/ti/ccs1110/ccs/tools/compiler/ti-cgt-msp430_21.6.1.LTS
    1112                    .dwattr $C$DW$58, DW_AT_TI_end_line(0x157)
    1113                    .dwattr $C$DW$58, DW_AT_TI_end_column(0x2f)
    1114                    .dwendentry
    1115                    .dwendtag $C$DW$58
    1116            
    1117 000000               .sect   ".text:__isinfl"
    1118                    .clink
    1119                    .global __isinfl
    1120            
    1121            $C$DW$61        .dwtag  DW_TAG_subprogram
    1122                    .dwattr $C$DW$61, DW_AT_name("__isinfl")
    1123                    .dwattr $C$DW$61, DW_AT_low_pc(__isinfl)
    1124                    .dwattr $C$DW$61, DW_AT_high_pc(0x00)
    1125                    .dwattr $C$DW$61, DW_AT_TI_symbol_name("__isinfl")
    1126                    .dwattr $C$DW$61, DW_AT_external
    1127                    .dwattr $C$DW$61, DW_AT_type(*$C$DW$T$10)
    1128                    .dwattr $C$DW$61, DW_AT_TI_begin_file("C:/ti/ccs1110/ccs/tools/compiler/ti-cgt-msp430_21.6.1.L
    1129                    .dwattr $C$DW$61, DW_AT_TI_begin_line(0x17a)
    1130                    .dwattr $C$DW$61, DW_AT_TI_begin_column(0x25)
MSP430 Assembler PC v21.6.1 Tue Dec 20 13:45:56 2022

Copyright (c) 2003-2018 Texas Instruments Incorporated
ADC_Calculations.asm                                                 PAGE   22

    1131                    .dwattr $C$DW$61, DW_AT_decl_file("C:/ti/ccs1110/ccs/tools/compiler/ti-cgt-msp430_21.6.1.LTS/i
    1132                    .dwattr $C$DW$61, DW_AT_decl_line(0x17a)
    1133                    .dwattr $C$DW$61, DW_AT_decl_column(0x25)
    1134                    .dwattr $C$DW$61, DW_AT_TI_max_frame_size(0x08)
    1135                    .dwpsn  file "C:/ti/ccs1110/ccs/tools/compiler/ti-cgt-msp430_21.6.1.LTS/include/_defs.h",line 
    1136            
    1137                    .dwfde $C$DW$CIE, __isinfl
    1138            $C$DW$62        .dwtag  DW_TAG_formal_parameter
    1139                    .dwattr $C$DW$62, DW_AT_name("e")
    1140                    .dwattr $C$DW$62, DW_AT_TI_symbol_name("e")
    1141                    .dwattr $C$DW$62, DW_AT_type(*$C$DW$T$18)
    1142                    .dwattr $C$DW$62, DW_AT_location[DW_OP_reg12 DW_OP_piece 2 DW_OP_reg13 DW_OP_piece 2 DW_OP_reg
    1143            
    1144            
    1145            ;*****************************************************************************
    1146            ;* FUNCTION NAME: __isinfl                                                   *
    1147            ;*                                                                           *
    1148            ;*   Regs Modified     : SP,SR,r10,r11,r12,r13,r14,r15                       *
    1149            ;*   Regs Used         : SP,SR,r10,r11,r12,r13,r14,r15                       *
    1150            ;*   Local Frame Size  : 0 Args + 0 Auto + 4 Save = 4 byte                   *
    1151            ;*****************************************************************************
    1152 000000       __isinfl:
    1153            ;* --------------------------------------------------------------------------*
    1154                    .dwcfi  cfa_offset, 4
    1155                    .dwcfi  save_reg_to_mem, 16, -4
    1156 000000 140A          PUSHM.A   #1,r10                ; [] 
    1157                    .dwcfi  save_reg_to_mem, 10, -8
    1158                    .dwcfi  cfa_offset, 8
    1159            ;* r11   assigned to $O$S1
    1160                    .dwpsn  file "C:/ti/ccs1110/ccs/tools/compiler/ti-cgt-msp430_21.6.1.LTS/include/_defs.h",line 
    1161 000002 430B          MOV.W     #0,r11                ; [] |379| 
    1162 000004 0FCA          MOVA      r15,r10               ; [] |379| 
    1163 000006 F03A          AND.W     #32752,r10            ; [] |379| 
         000008 7FF0 
    1164 00000a 903A          CMP.W     #32752,r10            ; [] |379| 
         00000c 7FF0 
    1165 00000e 200E          JNE       $C$L17                ; [] |379| 
    1166                                                      ; [] |379| 
    1167            ;* --------------------------------------------------------------------------*
    1168 000010 F33C          AND.W     #65535,r12            ; [] |379| 
    1169 000012 F33D          AND.W     #65535,r13            ; [] |379| 
    1170 000014 F33E          AND.W     #65535,r14            ; [] |379| 
    1171 000016 F03F          AND.W     #15,r15               ; [] |379| 
         000018 000F 
    1172 00001a 930F          TST.W     r15                   ; [] |379| 
    1173 00001c 2007          JNE       $C$L17                ; [] |379| 
    1174                                                      ; [] |379| 
    1175            ;* --------------------------------------------------------------------------*
    1176 00001e 930E          TST.W     r14                   ; [] |379| 
    1177 000020 2005          JNE       $C$L17                ; [] |379| 
    1178                                                      ; [] |379| 
    1179            ;* --------------------------------------------------------------------------*
    1180 000022 930D          TST.W     r13                   ; [] |379| 
    1181 000024 2003          JNE       $C$L17                ; [] |379| 
    1182                                                      ; [] |379| 
MSP430 Assembler PC v21.6.1 Tue Dec 20 13:45:56 2022

Copyright (c) 2003-2018 Texas Instruments Incorporated
ADC_Calculations.asm                                                 PAGE   23

    1183            ;* --------------------------------------------------------------------------*
    1184 000026 930C          TST.W     r12                   ; [] |379| 
    1185 000028 2001          JNE       $C$L17                ; [] |379| 
    1186                                                      ; [] |379| 
    1187            ;* --------------------------------------------------------------------------*
    1188 00002a 431B          MOV.W     #1,r11                ; [] |379| 
    1189            ;* --------------------------------------------------------------------------*
    1190 00002c       $C$L17:    
    1191 00002c 0BCC          MOVA      r11,r12               ; [] |379| 
    1192                    .dwpsn  file "C:/ti/ccs1110/ccs/tools/compiler/ti-cgt-msp430_21.6.1.LTS/include/_defs.h",line 
    1193 00002e 160A          POPM.A    #1,r10                ; [] 
    1194                    .dwcfi  restore_reg, 10
    1195                    .dwcfi  cfa_offset, 4
    1196            $C$DW$63        .dwtag  DW_TAG_TI_branch
    1197                    .dwattr $C$DW$63, DW_AT_low_pc(0x00)
    1198                    .dwattr $C$DW$63, DW_AT_TI_return
    1199            
    1200 000030 0110          RETA      ; [] 
    1201                    ; [] 
    1202                    .dwattr $C$DW$61, DW_AT_TI_end_file("C:/ti/ccs1110/ccs/tools/compiler/ti-cgt-msp430_21.6.1.LTS
    1203                    .dwattr $C$DW$61, DW_AT_TI_end_line(0x17b)
    1204                    .dwattr $C$DW$61, DW_AT_TI_end_column(0x4c)
    1205                    .dwendentry
    1206                    .dwendtag $C$DW$61
    1207            
    1208 000000               .sect   ".text:__isinff"
    1209                    .clink
    1210                    .global __isinff
    1211            
    1212            $C$DW$64        .dwtag  DW_TAG_subprogram
    1213                    .dwattr $C$DW$64, DW_AT_name("__isinff")
    1214                    .dwattr $C$DW$64, DW_AT_low_pc(__isinff)
    1215                    .dwattr $C$DW$64, DW_AT_high_pc(0x00)
    1216                    .dwattr $C$DW$64, DW_AT_TI_symbol_name("__isinff")
    1217                    .dwattr $C$DW$64, DW_AT_external
    1218                    .dwattr $C$DW$64, DW_AT_type(*$C$DW$T$10)
    1219                    .dwattr $C$DW$64, DW_AT_TI_begin_file("C:/ti/ccs1110/ccs/tools/compiler/ti-cgt-msp430_21.6.1.L
    1220                    .dwattr $C$DW$64, DW_AT_TI_begin_line(0x176)
    1221                    .dwattr $C$DW$64, DW_AT_TI_begin_column(0x25)
    1222                    .dwattr $C$DW$64, DW_AT_decl_file("C:/ti/ccs1110/ccs/tools/compiler/ti-cgt-msp430_21.6.1.LTS/i
    1223                    .dwattr $C$DW$64, DW_AT_decl_line(0x176)
    1224                    .dwattr $C$DW$64, DW_AT_decl_column(0x25)
    1225                    .dwattr $C$DW$64, DW_AT_TI_max_frame_size(0x04)
    1226                    .dwpsn  file "C:/ti/ccs1110/ccs/tools/compiler/ti-cgt-msp430_21.6.1.LTS/include/_defs.h",line 
    1227            
    1228                    .dwfde $C$DW$CIE, __isinff
    1229            $C$DW$65        .dwtag  DW_TAG_formal_parameter
    1230                    .dwattr $C$DW$65, DW_AT_name("f")
    1231                    .dwattr $C$DW$65, DW_AT_TI_symbol_name("f")
    1232                    .dwattr $C$DW$65, DW_AT_type(*$C$DW$T$16)
    1233                    .dwattr $C$DW$65, DW_AT_location[DW_OP_reg12 DW_OP_piece 2 DW_OP_reg13 DW_OP_piece 2]
    1234            
    1235            
    1236            ;*****************************************************************************
    1237            ;* FUNCTION NAME: __isinff                                                   *
MSP430 Assembler PC v21.6.1 Tue Dec 20 13:45:56 2022

Copyright (c) 2003-2018 Texas Instruments Incorporated
ADC_Calculations.asm                                                 PAGE   24

    1238            ;*                                                                           *
    1239            ;*   Regs Modified     : SP,SR,r12,r13,r14,r15                               *
    1240            ;*   Regs Used         : SP,SR,r12,r13,r14,r15                               *
    1241            ;*   Local Frame Size  : 0 Args + 0 Auto + 0 Save = 0 byte                   *
    1242            ;*****************************************************************************
    1243 000000       __isinff:
    1244            ;* --------------------------------------------------------------------------*
    1245                    .dwcfi  cfa_offset, 4
    1246                    .dwcfi  save_reg_to_mem, 16, -4
    1247            ;* r15   assigned to $O$S1
    1248                    .dwpsn  file "C:/ti/ccs1110/ccs/tools/compiler/ti-cgt-msp430_21.6.1.LTS/include/_defs.h",line 
    1249 000000 430F          MOV.W     #0,r15                ; [] |375| 
    1250 000002 0DCE          MOVA      r13,r14               ; [] |375| 
    1251 000004 F03E          AND.W     #32640,r14            ; [] |375| 
         000006 7F80 
    1252 000008 903E          CMP.W     #32640,r14            ; [] |375| 
         00000a 7F80 
    1253 00000c 2008          JNE       $C$L18                ; [] |375| 
    1254                                                      ; [] |375| 
    1255            ;* --------------------------------------------------------------------------*
    1256 00000e F33C          AND.W     #65535,r12            ; [] |375| 
    1257 000010 F03D          AND.W     #127,r13              ; [] |375| 
         000012 007F 
    1258 000014 930D          TST.W     r13                   ; [] |375| 
    1259 000016 2003          JNE       $C$L18                ; [] |375| 
    1260                                                      ; [] |375| 
    1261            ;* --------------------------------------------------------------------------*
    1262 000018 930C          TST.W     r12                   ; [] |375| 
    1263 00001a 2001          JNE       $C$L18                ; [] |375| 
    1264                                                      ; [] |375| 
    1265            ;* --------------------------------------------------------------------------*
    1266 00001c 431F          MOV.W     #1,r15                ; [] |375| 
    1267            ;* --------------------------------------------------------------------------*
    1268 00001e       $C$L18:    
    1269 00001e 0FCC          MOVA      r15,r12               ; [] |375| 
    1270                    .dwpsn  file "C:/ti/ccs1110/ccs/tools/compiler/ti-cgt-msp430_21.6.1.LTS/include/_defs.h",line 
    1271            $C$DW$66        .dwtag  DW_TAG_TI_branch
    1272                    .dwattr $C$DW$66, DW_AT_low_pc(0x00)
    1273                    .dwattr $C$DW$66, DW_AT_TI_return
    1274            
    1275 000020 0110          RETA      ; [] 
    1276                    ; [] 
    1277                    .dwattr $C$DW$64, DW_AT_TI_end_file("C:/ti/ccs1110/ccs/tools/compiler/ti-cgt-msp430_21.6.1.LTS
    1278                    .dwattr $C$DW$64, DW_AT_TI_end_line(0x177)
    1279                    .dwattr $C$DW$64, DW_AT_TI_end_column(0x48)
    1280                    .dwendentry
    1281                    .dwendtag $C$DW$64
    1282            
    1283 000000               .sect   ".text:__isinf"
    1284                    .clink
    1285                    .global __isinf
    1286            
    1287            $C$DW$67        .dwtag  DW_TAG_subprogram
    1288                    .dwattr $C$DW$67, DW_AT_name("__isinf")
    1289                    .dwattr $C$DW$67, DW_AT_low_pc(__isinf)
MSP430 Assembler PC v21.6.1 Tue Dec 20 13:45:56 2022

Copyright (c) 2003-2018 Texas Instruments Incorporated
ADC_Calculations.asm                                                 PAGE   25

    1290                    .dwattr $C$DW$67, DW_AT_high_pc(0x00)
    1291                    .dwattr $C$DW$67, DW_AT_TI_symbol_name("__isinf")
    1292                    .dwattr $C$DW$67, DW_AT_external
    1293                    .dwattr $C$DW$67, DW_AT_type(*$C$DW$T$10)
    1294                    .dwattr $C$DW$67, DW_AT_TI_begin_file("C:/ti/ccs1110/ccs/tools/compiler/ti-cgt-msp430_21.6.1.L
    1295                    .dwattr $C$DW$67, DW_AT_TI_begin_line(0x178)
    1296                    .dwattr $C$DW$67, DW_AT_TI_begin_column(0x25)
    1297                    .dwattr $C$DW$67, DW_AT_decl_file("C:/ti/ccs1110/ccs/tools/compiler/ti-cgt-msp430_21.6.1.LTS/i
    1298                    .dwattr $C$DW$67, DW_AT_decl_line(0x178)
    1299                    .dwattr $C$DW$67, DW_AT_decl_column(0x25)
    1300                    .dwattr $C$DW$67, DW_AT_TI_max_frame_size(0x08)
    1301                    .dwpsn  file "C:/ti/ccs1110/ccs/tools/compiler/ti-cgt-msp430_21.6.1.LTS/include/_defs.h",line 
    1302            
    1303                    .dwfde $C$DW$CIE, __isinf
    1304            $C$DW$68        .dwtag  DW_TAG_formal_parameter
    1305                    .dwattr $C$DW$68, DW_AT_name("d")
    1306                    .dwattr $C$DW$68, DW_AT_TI_symbol_name("d")
    1307                    .dwattr $C$DW$68, DW_AT_type(*$C$DW$T$17)
    1308                    .dwattr $C$DW$68, DW_AT_location[DW_OP_reg12 DW_OP_piece 2 DW_OP_reg13 DW_OP_piece 2 DW_OP_reg
    1309            
    1310            
    1311            ;*****************************************************************************
    1312            ;* FUNCTION NAME: __isinf                                                    *
    1313            ;*                                                                           *
    1314            ;*   Regs Modified     : SP,SR,r10,r11,r12,r13,r14,r15                       *
    1315            ;*   Regs Used         : SP,SR,r10,r11,r12,r13,r14,r15                       *
    1316            ;*   Local Frame Size  : 0 Args + 0 Auto + 4 Save = 4 byte                   *
    1317            ;*****************************************************************************
    1318 000000       __isinf:
    1319            ;* --------------------------------------------------------------------------*
    1320                    .dwcfi  cfa_offset, 4
    1321                    .dwcfi  save_reg_to_mem, 16, -4
    1322 000000 140A          PUSHM.A   #1,r10                ; [] 
    1323                    .dwcfi  save_reg_to_mem, 10, -8
    1324                    .dwcfi  cfa_offset, 8
    1325            ;* r11   assigned to $O$S1
    1326                    .dwpsn  file "C:/ti/ccs1110/ccs/tools/compiler/ti-cgt-msp430_21.6.1.LTS/include/_defs.h",line 
    1327 000002 430B          MOV.W     #0,r11                ; [] |377| 
    1328 000004 0FCA          MOVA      r15,r10               ; [] |377| 
    1329 000006 F03A          AND.W     #32752,r10            ; [] |377| 
         000008 7FF0 
    1330 00000a 903A          CMP.W     #32752,r10            ; [] |377| 
         00000c 7FF0 
    1331 00000e 200E          JNE       $C$L19                ; [] |377| 
    1332                                                      ; [] |377| 
    1333            ;* --------------------------------------------------------------------------*
    1334 000010 F33C          AND.W     #65535,r12            ; [] |377| 
    1335 000012 F33D          AND.W     #65535,r13            ; [] |377| 
    1336 000014 F33E          AND.W     #65535,r14            ; [] |377| 
    1337 000016 F03F          AND.W     #15,r15               ; [] |377| 
         000018 000F 
    1338 00001a 930F          TST.W     r15                   ; [] |377| 
    1339 00001c 2007          JNE       $C$L19                ; [] |377| 
    1340                                                      ; [] |377| 
    1341            ;* --------------------------------------------------------------------------*
MSP430 Assembler PC v21.6.1 Tue Dec 20 13:45:56 2022

Copyright (c) 2003-2018 Texas Instruments Incorporated
ADC_Calculations.asm                                                 PAGE   26

    1342 00001e 930E          TST.W     r14                   ; [] |377| 
    1343 000020 2005          JNE       $C$L19                ; [] |377| 
    1344                                                      ; [] |377| 
    1345            ;* --------------------------------------------------------------------------*
    1346 000022 930D          TST.W     r13                   ; [] |377| 
    1347 000024 2003          JNE       $C$L19                ; [] |377| 
    1348                                                      ; [] |377| 
    1349            ;* --------------------------------------------------------------------------*
    1350 000026 930C          TST.W     r12                   ; [] |377| 
    1351 000028 2001          JNE       $C$L19                ; [] |377| 
    1352                                                      ; [] |377| 
    1353            ;* --------------------------------------------------------------------------*
    1354 00002a 431B          MOV.W     #1,r11                ; [] |377| 
    1355            ;* --------------------------------------------------------------------------*
    1356 00002c       $C$L19:    
    1357 00002c 0BCC          MOVA      r11,r12               ; [] |377| 
    1358                    .dwpsn  file "C:/ti/ccs1110/ccs/tools/compiler/ti-cgt-msp430_21.6.1.LTS/include/_defs.h",line 
    1359 00002e 160A          POPM.A    #1,r10                ; [] 
    1360                    .dwcfi  restore_reg, 10
    1361                    .dwcfi  cfa_offset, 4
    1362            $C$DW$69        .dwtag  DW_TAG_TI_branch
    1363                    .dwattr $C$DW$69, DW_AT_low_pc(0x00)
    1364                    .dwattr $C$DW$69, DW_AT_TI_return
    1365            
    1366 000030 0110          RETA      ; [] 
    1367                    ; [] 
    1368                    .dwattr $C$DW$67, DW_AT_TI_end_file("C:/ti/ccs1110/ccs/tools/compiler/ti-cgt-msp430_21.6.1.LTS
    1369                    .dwattr $C$DW$67, DW_AT_TI_end_line(0x179)
    1370                    .dwattr $C$DW$67, DW_AT_TI_end_column(0x4a)
    1371                    .dwendentry
    1372                    .dwendtag $C$DW$67
    1373            
    1374 000000               .sect   ".text:__isfinitel"
    1375                    .clink
    1376                    .global __isfinitel
    1377            
    1378            $C$DW$70        .dwtag  DW_TAG_subprogram
    1379                    .dwattr $C$DW$70, DW_AT_name("__isfinitel")
    1380                    .dwattr $C$DW$70, DW_AT_low_pc(__isfinitel)
    1381                    .dwattr $C$DW$70, DW_AT_high_pc(0x00)
    1382                    .dwattr $C$DW$70, DW_AT_TI_symbol_name("__isfinitel")
    1383                    .dwattr $C$DW$70, DW_AT_external
    1384                    .dwattr $C$DW$70, DW_AT_type(*$C$DW$T$10)
    1385                    .dwattr $C$DW$70, DW_AT_TI_begin_file("C:/ti/ccs1110/ccs/tools/compiler/ti-cgt-msp430_21.6.1.L
    1386                    .dwattr $C$DW$70, DW_AT_TI_begin_line(0x152)
    1387                    .dwattr $C$DW$70, DW_AT_TI_begin_column(0x25)
    1388                    .dwattr $C$DW$70, DW_AT_decl_file("C:/ti/ccs1110/ccs/tools/compiler/ti-cgt-msp430_21.6.1.LTS/i
    1389                    .dwattr $C$DW$70, DW_AT_decl_line(0x152)
    1390                    .dwattr $C$DW$70, DW_AT_decl_column(0x25)
    1391                    .dwattr $C$DW$70, DW_AT_TI_max_frame_size(0x04)
    1392                    .dwpsn  file "C:/ti/ccs1110/ccs/tools/compiler/ti-cgt-msp430_21.6.1.LTS/include/_defs.h",line 
    1393            
    1394                    .dwfde $C$DW$CIE, __isfinitel
    1395            $C$DW$71        .dwtag  DW_TAG_formal_parameter
    1396                    .dwattr $C$DW$71, DW_AT_name("e")
MSP430 Assembler PC v21.6.1 Tue Dec 20 13:45:56 2022

Copyright (c) 2003-2018 Texas Instruments Incorporated
ADC_Calculations.asm                                                 PAGE   27

    1397                    .dwattr $C$DW$71, DW_AT_TI_symbol_name("e")
    1398                    .dwattr $C$DW$71, DW_AT_type(*$C$DW$T$18)
    1399                    .dwattr $C$DW$71, DW_AT_location[DW_OP_reg12 DW_OP_piece 2 DW_OP_reg13 DW_OP_piece 2 DW_OP_reg
    1400            
    1401            
    1402            ;*****************************************************************************
    1403            ;* FUNCTION NAME: __isfinitel                                                *
    1404            ;*                                                                           *
    1405            ;*   Regs Modified     : SP,SR,r12,r15                                       *
    1406            ;*   Regs Used         : SP,SR,r12,r15                                       *
    1407            ;*   Local Frame Size  : 0 Args + 0 Auto + 0 Save = 0 byte                   *
    1408            ;*****************************************************************************
    1409 000000       __isfinitel:
    1410            ;* --------------------------------------------------------------------------*
    1411                    .dwcfi  cfa_offset, 4
    1412                    .dwcfi  save_reg_to_mem, 16, -4
    1413                    .dwpsn  file "C:/ti/ccs1110/ccs/tools/compiler/ti-cgt-msp430_21.6.1.LTS/include/_defs.h",line 
    1414 000000 430C          MOV.W     #0,r12                ; [] |339| 
    1415 000002 F03F          AND.W     #32752,r15            ; [] |339| 
         000004 7FF0 
    1416 000006 903F          CMP.W     #32752,r15            ; [] |339| 
         000008 7FF0 
    1417 00000a 2401          JEQ       $C$L20                ; [] |339| 
    1418                                                      ; [] |339| 
    1419            ;* --------------------------------------------------------------------------*
    1420 00000c 431C          MOV.W     #1,r12                ; [] |339| 
    1421            ;* --------------------------------------------------------------------------*
    1422 00000e       $C$L20:    
    1423                    .dwpsn  file "C:/ti/ccs1110/ccs/tools/compiler/ti-cgt-msp430_21.6.1.LTS/include/_defs.h",line 
    1424            $C$DW$72        .dwtag  DW_TAG_TI_branch
    1425                    .dwattr $C$DW$72, DW_AT_low_pc(0x00)
    1426                    .dwattr $C$DW$72, DW_AT_TI_return
    1427            
    1428 00000e 0110          RETA      ; [] 
    1429                    ; [] 
    1430                    .dwattr $C$DW$70, DW_AT_TI_end_file("C:/ti/ccs1110/ccs/tools/compiler/ti-cgt-msp430_21.6.1.LTS
    1431                    .dwattr $C$DW$70, DW_AT_TI_end_line(0x153)
    1432                    .dwattr $C$DW$70, DW_AT_TI_end_column(0x2f)
    1433                    .dwendentry
    1434                    .dwendtag $C$DW$70
    1435            
    1436 000000               .sect   ".text:__isfinitef"
    1437                    .clink
    1438                    .global __isfinitef
    1439            
    1440            $C$DW$73        .dwtag  DW_TAG_subprogram
    1441                    .dwattr $C$DW$73, DW_AT_name("__isfinitef")
    1442                    .dwattr $C$DW$73, DW_AT_low_pc(__isfinitef)
    1443                    .dwattr $C$DW$73, DW_AT_high_pc(0x00)
    1444                    .dwattr $C$DW$73, DW_AT_TI_symbol_name("__isfinitef")
    1445                    .dwattr $C$DW$73, DW_AT_external
    1446                    .dwattr $C$DW$73, DW_AT_type(*$C$DW$T$10)
    1447                    .dwattr $C$DW$73, DW_AT_TI_begin_file("C:/ti/ccs1110/ccs/tools/compiler/ti-cgt-msp430_21.6.1.L
    1448                    .dwattr $C$DW$73, DW_AT_TI_begin_line(0x150)
    1449                    .dwattr $C$DW$73, DW_AT_TI_begin_column(0x25)
MSP430 Assembler PC v21.6.1 Tue Dec 20 13:45:56 2022

Copyright (c) 2003-2018 Texas Instruments Incorporated
ADC_Calculations.asm                                                 PAGE   28

    1450                    .dwattr $C$DW$73, DW_AT_decl_file("C:/ti/ccs1110/ccs/tools/compiler/ti-cgt-msp430_21.6.1.LTS/i
    1451                    .dwattr $C$DW$73, DW_AT_decl_line(0x150)
    1452                    .dwattr $C$DW$73, DW_AT_decl_column(0x25)
    1453                    .dwattr $C$DW$73, DW_AT_TI_max_frame_size(0x04)
    1454                    .dwpsn  file "C:/ti/ccs1110/ccs/tools/compiler/ti-cgt-msp430_21.6.1.LTS/include/_defs.h",line 
    1455            
    1456                    .dwfde $C$DW$CIE, __isfinitef
    1457            $C$DW$74        .dwtag  DW_TAG_formal_parameter
    1458                    .dwattr $C$DW$74, DW_AT_name("f")
    1459                    .dwattr $C$DW$74, DW_AT_TI_symbol_name("f")
    1460                    .dwattr $C$DW$74, DW_AT_type(*$C$DW$T$16)
    1461                    .dwattr $C$DW$74, DW_AT_location[DW_OP_reg12 DW_OP_piece 2 DW_OP_reg13 DW_OP_piece 2]
    1462            
    1463            
    1464            ;*****************************************************************************
    1465            ;* FUNCTION NAME: __isfinitef                                                *
    1466            ;*                                                                           *
    1467            ;*   Regs Modified     : SP,SR,r12,r13                                       *
    1468            ;*   Regs Used         : SP,SR,r12,r13                                       *
    1469            ;*   Local Frame Size  : 0 Args + 0 Auto + 0 Save = 0 byte                   *
    1470            ;*****************************************************************************
    1471 000000       __isfinitef:
    1472            ;* --------------------------------------------------------------------------*
    1473                    .dwcfi  cfa_offset, 4
    1474                    .dwcfi  save_reg_to_mem, 16, -4
    1475                    .dwpsn  file "C:/ti/ccs1110/ccs/tools/compiler/ti-cgt-msp430_21.6.1.LTS/include/_defs.h",line 
    1476 000000 430C          MOV.W     #0,r12                ; [] |337| 
    1477 000002 F03D          AND.W     #32640,r13            ; [] |337| 
         000004 7F80 
    1478 000006 903D          CMP.W     #32640,r13            ; [] |337| 
         000008 7F80 
    1479 00000a 2401          JEQ       $C$L21                ; [] |337| 
    1480                                                      ; [] |337| 
    1481            ;* --------------------------------------------------------------------------*
    1482 00000c 431C          MOV.W     #1,r12                ; [] |337| 
    1483            ;* --------------------------------------------------------------------------*
    1484 00000e       $C$L21:    
    1485                    .dwpsn  file "C:/ti/ccs1110/ccs/tools/compiler/ti-cgt-msp430_21.6.1.LTS/include/_defs.h",line 
    1486            $C$DW$75        .dwtag  DW_TAG_TI_branch
    1487                    .dwattr $C$DW$75, DW_AT_low_pc(0x00)
    1488                    .dwattr $C$DW$75, DW_AT_TI_return
    1489            
    1490 00000e 0110          RETA      ; [] 
    1491                    ; [] 
    1492                    .dwattr $C$DW$73, DW_AT_TI_end_file("C:/ti/ccs1110/ccs/tools/compiler/ti-cgt-msp430_21.6.1.LTS
    1493                    .dwattr $C$DW$73, DW_AT_TI_end_line(0x151)
    1494                    .dwattr $C$DW$73, DW_AT_TI_end_column(0x2d)
    1495                    .dwendentry
    1496                    .dwendtag $C$DW$73
    1497            
    1498 000000               .sect   ".text:__isfinite"
    1499                    .clink
    1500                    .global __isfinite
    1501            
    1502            $C$DW$76        .dwtag  DW_TAG_subprogram
MSP430 Assembler PC v21.6.1 Tue Dec 20 13:45:56 2022

Copyright (c) 2003-2018 Texas Instruments Incorporated
ADC_Calculations.asm                                                 PAGE   29

    1503                    .dwattr $C$DW$76, DW_AT_name("__isfinite")
    1504                    .dwattr $C$DW$76, DW_AT_low_pc(__isfinite)
    1505                    .dwattr $C$DW$76, DW_AT_high_pc(0x00)
    1506                    .dwattr $C$DW$76, DW_AT_TI_symbol_name("__isfinite")
    1507                    .dwattr $C$DW$76, DW_AT_external
    1508                    .dwattr $C$DW$76, DW_AT_type(*$C$DW$T$10)
    1509                    .dwattr $C$DW$76, DW_AT_TI_begin_file("C:/ti/ccs1110/ccs/tools/compiler/ti-cgt-msp430_21.6.1.L
    1510                    .dwattr $C$DW$76, DW_AT_TI_begin_line(0x14e)
    1511                    .dwattr $C$DW$76, DW_AT_TI_begin_column(0x25)
    1512                    .dwattr $C$DW$76, DW_AT_decl_file("C:/ti/ccs1110/ccs/tools/compiler/ti-cgt-msp430_21.6.1.LTS/i
    1513                    .dwattr $C$DW$76, DW_AT_decl_line(0x14e)
    1514                    .dwattr $C$DW$76, DW_AT_decl_column(0x25)
    1515                    .dwattr $C$DW$76, DW_AT_TI_max_frame_size(0x04)
    1516                    .dwpsn  file "C:/ti/ccs1110/ccs/tools/compiler/ti-cgt-msp430_21.6.1.LTS/include/_defs.h",line 
    1517            
    1518                    .dwfde $C$DW$CIE, __isfinite
    1519            $C$DW$77        .dwtag  DW_TAG_formal_parameter
    1520                    .dwattr $C$DW$77, DW_AT_name("d")
    1521                    .dwattr $C$DW$77, DW_AT_TI_symbol_name("d")
    1522                    .dwattr $C$DW$77, DW_AT_type(*$C$DW$T$17)
    1523                    .dwattr $C$DW$77, DW_AT_location[DW_OP_reg12 DW_OP_piece 2 DW_OP_reg13 DW_OP_piece 2 DW_OP_reg
    1524            
    1525            
    1526            ;*****************************************************************************
    1527            ;* FUNCTION NAME: __isfinite                                                 *
    1528            ;*                                                                           *
    1529            ;*   Regs Modified     : SP,SR,r12,r15                                       *
    1530            ;*   Regs Used         : SP,SR,r12,r15                                       *
    1531            ;*   Local Frame Size  : 0 Args + 0 Auto + 0 Save = 0 byte                   *
    1532            ;*****************************************************************************
    1533 000000       __isfinite:
    1534            ;* --------------------------------------------------------------------------*
    1535                    .dwcfi  cfa_offset, 4
    1536                    .dwcfi  save_reg_to_mem, 16, -4
    1537                    .dwpsn  file "C:/ti/ccs1110/ccs/tools/compiler/ti-cgt-msp430_21.6.1.LTS/include/_defs.h",line 
    1538 000000 430C          MOV.W     #0,r12                ; [] |335| 
    1539 000002 F03F          AND.W     #32752,r15            ; [] |335| 
         000004 7FF0 
    1540 000006 903F          CMP.W     #32752,r15            ; [] |335| 
         000008 7FF0 
    1541 00000a 2401          JEQ       $C$L22                ; [] |335| 
    1542                                                      ; [] |335| 
    1543            ;* --------------------------------------------------------------------------*
    1544 00000c 431C          MOV.W     #1,r12                ; [] |335| 
    1545            ;* --------------------------------------------------------------------------*
    1546 00000e       $C$L22:    
    1547                    .dwpsn  file "C:/ti/ccs1110/ccs/tools/compiler/ti-cgt-msp430_21.6.1.LTS/include/_defs.h",line 
    1548            $C$DW$78        .dwtag  DW_TAG_TI_branch
    1549                    .dwattr $C$DW$78, DW_AT_low_pc(0x00)
    1550                    .dwattr $C$DW$78, DW_AT_TI_return
    1551            
    1552 00000e 0110          RETA      ; [] 
    1553                    ; [] 
    1554                    .dwattr $C$DW$76, DW_AT_TI_end_file("C:/ti/ccs1110/ccs/tools/compiler/ti-cgt-msp430_21.6.1.LTS
    1555                    .dwattr $C$DW$76, DW_AT_TI_end_line(0x14f)
MSP430 Assembler PC v21.6.1 Tue Dec 20 13:45:56 2022

Copyright (c) 2003-2018 Texas Instruments Incorporated
ADC_Calculations.asm                                                 PAGE   30

    1556                    .dwattr $C$DW$76, DW_AT_TI_end_column(0x2e)
    1557                    .dwendentry
    1558                    .dwendtag $C$DW$76
    1559            
    1560 000000               .sect   ".text:__fpclassifyl"
    1561                    .clink
    1562                    .global __fpclassifyl
    1563            
    1564            $C$DW$79        .dwtag  DW_TAG_subprogram
    1565                    .dwattr $C$DW$79, DW_AT_name("__fpclassifyl")
    1566                    .dwattr $C$DW$79, DW_AT_low_pc(__fpclassifyl)
    1567                    .dwattr $C$DW$79, DW_AT_high_pc(0x00)
    1568                    .dwattr $C$DW$79, DW_AT_TI_symbol_name("__fpclassifyl")
    1569                    .dwattr $C$DW$79, DW_AT_external
    1570                    .dwattr $C$DW$79, DW_AT_type(*$C$DW$T$10)
    1571                    .dwattr $C$DW$79, DW_AT_TI_begin_file("C:/ti/ccs1110/ccs/tools/compiler/ti-cgt-msp430_21.6.1.L
    1572                    .dwattr $C$DW$79, DW_AT_TI_begin_line(0x1ae)
    1573                    .dwattr $C$DW$79, DW_AT_TI_begin_column(0x25)
    1574                    .dwattr $C$DW$79, DW_AT_decl_file("C:/ti/ccs1110/ccs/tools/compiler/ti-cgt-msp430_21.6.1.LTS/i
    1575                    .dwattr $C$DW$79, DW_AT_decl_line(0x1ae)
    1576                    .dwattr $C$DW$79, DW_AT_decl_column(0x25)
    1577                    .dwattr $C$DW$79, DW_AT_TI_max_frame_size(0x20)
    1578                    .dwpsn  file "C:/ti/ccs1110/ccs/tools/compiler/ti-cgt-msp430_21.6.1.LTS/include/_defs.h",line 
    1579            
    1580                    .dwfde $C$DW$CIE, __fpclassifyl
    1581            $C$DW$80        .dwtag  DW_TAG_formal_parameter
    1582                    .dwattr $C$DW$80, DW_AT_name("e")
    1583                    .dwattr $C$DW$80, DW_AT_TI_symbol_name("e")
    1584                    .dwattr $C$DW$80, DW_AT_type(*$C$DW$T$18)
    1585                    .dwattr $C$DW$80, DW_AT_location[DW_OP_reg12 DW_OP_piece 2 DW_OP_reg13 DW_OP_piece 2 DW_OP_reg
    1586            
    1587            
    1588            ;*****************************************************************************
    1589            ;* FUNCTION NAME: __fpclassifyl                                              *
    1590            ;*                                                                           *
    1591            ;*   Regs Modified     : SP,SR,r4,r5,r6,r7,r8,r9,r10,r11,r12,r13,r14,r15     *
    1592            ;*   Regs Used         : SP,SR,r4,r5,r6,r7,r8,r9,r10,r11,r12,r13,r14,r15     *
    1593            ;*   Local Frame Size  : 0 Args + 0 Auto + 28 Save = 28 byte                 *
    1594            ;*****************************************************************************
    1595 000000       __fpclassifyl:
    1596            ;* --------------------------------------------------------------------------*
    1597                    .dwcfi  cfa_offset, 4
    1598                    .dwcfi  save_reg_to_mem, 16, -4
    1599 000000 146A          PUSHM.A   #7,r10                ; [] 
    1600                    .dwcfi  save_reg_to_mem, 10, -8
    1601                    .dwcfi  save_reg_to_mem, 9, -12
    1602                    .dwcfi  save_reg_to_mem, 8, -16
    1603                    .dwcfi  save_reg_to_mem, 7, -20
    1604                    .dwcfi  save_reg_to_mem, 6, -24
    1605                    .dwcfi  save_reg_to_mem, 5, -28
    1606                    .dwcfi  save_reg_to_mem, 4, -32
    1607                    .dwcfi  cfa_offset, 32
    1608            ;* r4    assigned to e
    1609            $C$DW$81        .dwtag  DW_TAG_variable
    1610                    .dwattr $C$DW$81, DW_AT_name("e")
MSP430 Assembler PC v21.6.1 Tue Dec 20 13:45:56 2022

Copyright (c) 2003-2018 Texas Instruments Incorporated
ADC_Calculations.asm                                                 PAGE   31

    1611                    .dwattr $C$DW$81, DW_AT_TI_symbol_name("e")
    1612                    .dwattr $C$DW$81, DW_AT_type(*$C$DW$T$18)
    1613                    .dwattr $C$DW$81, DW_AT_location[DW_OP_reg4 DW_OP_piece 2 DW_OP_reg5 DW_OP_piece 2 DW_OP_reg6 
    1614            
    1615 000002 0CC4          MOVA      r12,r4                ; [] |431| 
    1616 000004 0DC5          MOVA      r13,r5                ; [] |431| 
    1617 000006 0EC6          MOVA      r14,r6                ; [] |431| 
    1618 000008 0FC7          MOVA      r15,r7                ; [] |431| 
    1619                    .dwpsn  file "C:/ti/ccs1110/ccs/tools/compiler/ti-cgt-msp430_21.6.1.LTS/include/_defs.h",line 
    1620 00000a F03F          AND.W     #32752,r15            ; [] |436| 
         00000c 7FF0 
    1621 00000e 903F          CMP.W     #32752,r15            ; [] |436| 
         000010 7FF0 
    1622 000012 2011          JNE       $C$L25                ; [] |436| 
    1623                                                      ; [] |436| 
    1624            ;* --------------------------------------------------------------------------*
    1625 000014 F334          AND.W     #65535,r4             ; [] |436| 
    1626 000016 F335          AND.W     #65535,r5             ; [] |436| 
    1627 000018 F336          AND.W     #65535,r6             ; [] |436| 
    1628 00001a F037          AND.W     #15,r7                ; [] |436| 
         00001c 000F 
    1629 00001e 9307          TST.W     r7                    ; [] |436| 
    1630 000020 2006          JNE       $C$L23                ; [] |436| 
    1631                                                      ; [] |436| 
    1632            ;* --------------------------------------------------------------------------*
    1633 000022 9306          TST.W     r6                    ; [] |436| 
    1634 000024 2004          JNE       $C$L23                ; [] |436| 
    1635                                                      ; [] |436| 
    1636            ;* --------------------------------------------------------------------------*
    1637 000026 9305          TST.W     r5                    ; [] |436| 
    1638 000028 2002          JNE       $C$L23                ; [] |436| 
    1639                                                      ; [] |436| 
    1640            ;* --------------------------------------------------------------------------*
    1641 00002a 9304          TST.W     r4                    ; [] |436| 
    1642 00002c 2402          JEQ       $C$L24                ; [] |436| 
    1643                                                      ; [] |436| 
    1644            ;* --------------------------------------------------------------------------*
    1645 00002e       $C$L23:    
    1646 00002e 432C          MOV.W     #2,r12                ; [] |436| 
    1647 000030 3C2A          JMP       $C$L30                ; [] |436| 
    1648                                                      ; [] |436| 
    1649            ;* --------------------------------------------------------------------------*
    1650 000032       $C$L24:    
    1651 000032 431C          MOV.W     #1,r12                ; [] |436| 
    1652 000034 3C28          JMP       $C$L30                ; [] |436| 
    1653                                                      ; [] |436| 
    1654            ;* --------------------------------------------------------------------------*
    1655 000036       $C$L25:    
    1656 000036 04C8          MOVA      r4,r8                 ; [] |436| 
    1657 000038 05C9          MOVA      r5,r9                 ; [] |436| 
    1658 00003a 06CA          MOVA      r6,r10                ; [] |436| 
    1659 00003c 07CB          MOVA      r7,r11                ; [] |436| 
    1660 00003e 403C          MOV.W     #52,r12               ; [] |436| 
         000040 0034 
    1661            $C$DW$82        .dwtag  DW_TAG_TI_branch
MSP430 Assembler PC v21.6.1 Tue Dec 20 13:45:56 2022

Copyright (c) 2003-2018 Texas Instruments Incorporated
ADC_Calculations.asm                                                 PAGE   32

    1662                    .dwattr $C$DW$82, DW_AT_low_pc(0x00)
    1663                    .dwattr $C$DW$82, DW_AT_name("__mspabi_srlll")
    1664                    .dwattr $C$DW$82, DW_AT_TI_call
    1665            
    1666 000042 13B0!         CALLA     #__mspabi_srlll       ; [] |436| 
         000044 0000 
    1667                                                      ; [] |436| 
    1668 000046 F03C          AND.W     #2047,r12             ; [] |436| 
         000048 07FF 
    1669 00004a F30D          AND.W     #0,r13                ; [] |436| 
    1670 00004c F30E          AND.W     #0,r14                ; [] |436| 
    1671 00004e F30F          AND.W     #0,r15                ; [] |436| 
    1672 000050 930F          TST.W     r15                   ; [] |436| 
    1673 000052 2006          JNE       $C$L26                ; [] |436| 
    1674                                                      ; [] |436| 
    1675            ;* --------------------------------------------------------------------------*
    1676 000054 930E          TST.W     r14                   ; [] |436| 
    1677 000056 2004          JNE       $C$L26                ; [] |436| 
    1678                                                      ; [] |436| 
    1679            ;* --------------------------------------------------------------------------*
    1680 000058 930D          TST.W     r13                   ; [] |436| 
    1681 00005a 2002          JNE       $C$L26                ; [] |436| 
    1682                                                      ; [] |436| 
    1683            ;* --------------------------------------------------------------------------*
    1684 00005c 930C          TST.W     r12                   ; [] |436| 
    1685 00005e 2402          JEQ       $C$L27                ; [] |436| 
    1686                                                      ; [] |436| 
    1687            ;* --------------------------------------------------------------------------*
    1688 000060       $C$L26:    
    1689 000060 433C          MOV.W     #-1,r12               ; [] |436| 
    1690 000062 3C11          JMP       $C$L30                ; [] |436| 
    1691                                                      ; [] |436| 
    1692            ;* --------------------------------------------------------------------------*
    1693 000064       $C$L27:    
    1694 000064 F334          AND.W     #65535,r4             ; [] |436| 
    1695 000066 F335          AND.W     #65535,r5             ; [] |436| 
    1696 000068 F336          AND.W     #65535,r6             ; [] |436| 
    1697 00006a F037          AND.W     #15,r7                ; [] |436| 
         00006c 000F 
    1698 00006e 9307          TST.W     r7                    ; [] |436| 
    1699 000070 2006          JNE       $C$L28                ; [] |436| 
    1700                                                      ; [] |436| 
    1701            ;* --------------------------------------------------------------------------*
    1702 000072 9306          TST.W     r6                    ; [] |436| 
    1703 000074 2004          JNE       $C$L28                ; [] |436| 
    1704                                                      ; [] |436| 
    1705            ;* --------------------------------------------------------------------------*
    1706 000076 9305          TST.W     r5                    ; [] |436| 
    1707 000078 2002          JNE       $C$L28                ; [] |436| 
    1708                                                      ; [] |436| 
    1709            ;* --------------------------------------------------------------------------*
    1710 00007a 9304          TST.W     r4                    ; [] |436| 
    1711 00007c 2403          JEQ       $C$L29                ; [] |436| 
    1712                                                      ; [] |436| 
    1713            ;* --------------------------------------------------------------------------*
MSP430 Assembler PC v21.6.1 Tue Dec 20 13:45:56 2022

Copyright (c) 2003-2018 Texas Instruments Incorporated
ADC_Calculations.asm                                                 PAGE   33

    1714 00007e       $C$L28:    
    1715 00007e 403C          MOV.W     #65534,r12            ; [] |436| 
         000080 FFFE 
    1716 000082 3C01          JMP       $C$L30                ; [] |436| 
    1717                                                      ; [] |436| 
    1718            ;* --------------------------------------------------------------------------*
    1719 000084       $C$L29:    
    1720 000084 430C          MOV.W     #0,r12                ; [] |436| 
    1721            ;* --------------------------------------------------------------------------*
    1722 000086       $C$L30:    
    1723                    .dwpsn  file "C:/ti/ccs1110/ccs/tools/compiler/ti-cgt-msp430_21.6.1.LTS/include/_defs.h",line 
    1724 000086 1664          POPM.A    #7,r10                ; [] 
    1725                    .dwcfi  restore_reg, 4
    1726                    .dwcfi  restore_reg, 5
    1727                    .dwcfi  restore_reg, 6
    1728                    .dwcfi  restore_reg, 7
    1729                    .dwcfi  restore_reg, 8
    1730                    .dwcfi  restore_reg, 9
    1731                    .dwcfi  restore_reg, 10
    1732                    .dwcfi  cfa_offset, 4
    1733            $C$DW$83        .dwtag  DW_TAG_TI_branch
    1734                    .dwattr $C$DW$83, DW_AT_low_pc(0x00)
    1735                    .dwattr $C$DW$83, DW_AT_TI_return
    1736            
    1737 000088 0110          RETA      ; [] 
    1738                    ; [] 
    1739                    .dwattr $C$DW$79, DW_AT_TI_end_file("C:/ti/ccs1110/ccs/tools/compiler/ti-cgt-msp430_21.6.1.LTS
    1740                    .dwattr $C$DW$79, DW_AT_TI_end_line(0x1bd)
    1741                    .dwattr $C$DW$79, DW_AT_TI_end_column(0x01)
    1742                    .dwendentry
    1743                    .dwendtag $C$DW$79
    1744            
    1745 000000               .sect   ".text:__fpclassifyf"
    1746                    .clink
    1747                    .global __fpclassifyf
    1748            
    1749            $C$DW$84        .dwtag  DW_TAG_subprogram
    1750                    .dwattr $C$DW$84, DW_AT_name("__fpclassifyf")
    1751                    .dwattr $C$DW$84, DW_AT_low_pc(__fpclassifyf)
    1752                    .dwattr $C$DW$84, DW_AT_high_pc(0x00)
    1753                    .dwattr $C$DW$84, DW_AT_TI_symbol_name("__fpclassifyf")
    1754                    .dwattr $C$DW$84, DW_AT_external
    1755                    .dwattr $C$DW$84, DW_AT_type(*$C$DW$T$10)
    1756                    .dwattr $C$DW$84, DW_AT_TI_begin_file("C:/ti/ccs1110/ccs/tools/compiler/ti-cgt-msp430_21.6.1.L
    1757                    .dwattr $C$DW$84, DW_AT_TI_begin_line(0x18c)
    1758                    .dwattr $C$DW$84, DW_AT_TI_begin_column(0x25)
    1759                    .dwattr $C$DW$84, DW_AT_decl_file("C:/ti/ccs1110/ccs/tools/compiler/ti-cgt-msp430_21.6.1.LTS/i
    1760                    .dwattr $C$DW$84, DW_AT_decl_line(0x18c)
    1761                    .dwattr $C$DW$84, DW_AT_decl_column(0x25)
    1762                    .dwattr $C$DW$84, DW_AT_TI_max_frame_size(0x04)
    1763                    .dwpsn  file "C:/ti/ccs1110/ccs/tools/compiler/ti-cgt-msp430_21.6.1.LTS/include/_defs.h",line 
    1764            
    1765                    .dwfde $C$DW$CIE, __fpclassifyf
    1766            $C$DW$85        .dwtag  DW_TAG_formal_parameter
    1767                    .dwattr $C$DW$85, DW_AT_name("f")
MSP430 Assembler PC v21.6.1 Tue Dec 20 13:45:56 2022

Copyright (c) 2003-2018 Texas Instruments Incorporated
ADC_Calculations.asm                                                 PAGE   34

    1768                    .dwattr $C$DW$85, DW_AT_TI_symbol_name("f")
    1769                    .dwattr $C$DW$85, DW_AT_type(*$C$DW$T$16)
    1770                    .dwattr $C$DW$85, DW_AT_location[DW_OP_reg12 DW_OP_piece 2 DW_OP_reg13 DW_OP_piece 2]
    1771            
    1772            
    1773            ;*****************************************************************************
    1774            ;* FUNCTION NAME: __fpclassifyf                                              *
    1775            ;*                                                                           *
    1776            ;*   Regs Modified     : SP,SR,r12,r13,r15                                   *
    1777            ;*   Regs Used         : SP,SR,r12,r13,r15                                   *
    1778            ;*   Local Frame Size  : 0 Args + 0 Auto + 0 Save = 0 byte                   *
    1779            ;*****************************************************************************
    1780 000000       __fpclassifyf:
    1781            ;* --------------------------------------------------------------------------*
    1782                    .dwcfi  cfa_offset, 4
    1783                    .dwcfi  save_reg_to_mem, 16, -4
    1784                    .dwpsn  file "C:/ti/ccs1110/ccs/tools/compiler/ti-cgt-msp430_21.6.1.LTS/include/_defs.h",line 
    1785 000000 0DCF          MOVA      r13,r15               ; [] |402| 
    1786 000002 F03F          AND.W     #32640,r15            ; [] |402| 
         000004 7F80 
    1787 000006 903F          CMP.W     #32640,r15            ; [] |402| 
         000008 7F80 
    1788 00000a 200B          JNE       $C$L33                ; [] |402| 
    1789                                                      ; [] |402| 
    1790            ;* --------------------------------------------------------------------------*
    1791 00000c F33C          AND.W     #65535,r12            ; [] |402| 
    1792 00000e F03D          AND.W     #127,r13              ; [] |402| 
         000010 007F 
    1793 000012 930D          TST.W     r13                   ; [] |402| 
    1794 000014 2002          JNE       $C$L31                ; [] |402| 
    1795                                                      ; [] |402| 
    1796            ;* --------------------------------------------------------------------------*
    1797 000016 930C          TST.W     r12                   ; [] |402| 
    1798 000018 2402          JEQ       $C$L32                ; [] |402| 
    1799                                                      ; [] |402| 
    1800            ;* --------------------------------------------------------------------------*
    1801 00001a       $C$L31:    
    1802 00001a 432C          MOV.W     #2,r12                ; [] |402| 
    1803 00001c 3C15          JMP       $C$L37                ; [] |402| 
    1804                                                      ; [] |402| 
    1805            ;* --------------------------------------------------------------------------*
    1806 00001e       $C$L32:    
    1807 00001e 431C          MOV.W     #1,r12                ; [] |402| 
    1808 000020 3C13          JMP       $C$L37                ; [] |402| 
    1809                                                      ; [] |402| 
    1810            ;* --------------------------------------------------------------------------*
    1811 000022       $C$L33:    
    1812 000022 0DCF          MOVA      r13,r15               ; [] |402| 
    1813 000024 1946          RPT #7 || RRUX.W r15 ; [] |402| 
         000026 100F 
    1814 000028 B03F          BIT.W     #255,r15              ; [] |402| 
         00002a 00FF 
    1815 00002c 2402          JEQ       $C$L34                ; [] |402| 
    1816                                                      ; [] |402| 
    1817            ;* --------------------------------------------------------------------------*
MSP430 Assembler PC v21.6.1 Tue Dec 20 13:45:56 2022

Copyright (c) 2003-2018 Texas Instruments Incorporated
ADC_Calculations.asm                                                 PAGE   35

    1818 00002e 433C          MOV.W     #-1,r12               ; [] |402| 
    1819 000030 3C0B          JMP       $C$L37                ; [] |402| 
    1820                                                      ; [] |402| 
    1821            ;* --------------------------------------------------------------------------*
    1822 000032       $C$L34:    
    1823 000032 F33C          AND.W     #65535,r12            ; [] |402| 
    1824 000034 F03D          AND.W     #127,r13              ; [] |402| 
         000036 007F 
    1825 000038 930D          TST.W     r13                   ; [] |402| 
    1826 00003a 2002          JNE       $C$L35                ; [] |402| 
    1827                                                      ; [] |402| 
    1828            ;* --------------------------------------------------------------------------*
    1829 00003c 930C          TST.W     r12                   ; [] |402| 
    1830 00003e 2403          JEQ       $C$L36                ; [] |402| 
    1831                                                      ; [] |402| 
    1832            ;* --------------------------------------------------------------------------*
    1833 000040       $C$L35:    
    1834 000040 403C          MOV.W     #65534,r12            ; [] |402| 
         000042 FFFE 
    1835 000044 3C01          JMP       $C$L37                ; [] |402| 
    1836                                                      ; [] |402| 
    1837            ;* --------------------------------------------------------------------------*
    1838 000046       $C$L36:    
    1839 000046 430C          MOV.W     #0,r12                ; [] |402| 
    1840            ;* --------------------------------------------------------------------------*
    1841 000048       $C$L37:    
    1842                    .dwpsn  file "C:/ti/ccs1110/ccs/tools/compiler/ti-cgt-msp430_21.6.1.LTS/include/_defs.h",line 
    1843            $C$DW$86        .dwtag  DW_TAG_TI_branch
    1844                    .dwattr $C$DW$86, DW_AT_low_pc(0x00)
    1845                    .dwattr $C$DW$86, DW_AT_TI_return
    1846            
    1847 000048 0110          RETA      ; [] 
    1848                    ; [] 
    1849                    .dwattr $C$DW$84, DW_AT_TI_end_file("C:/ti/ccs1110/ccs/tools/compiler/ti-cgt-msp430_21.6.1.LTS
    1850                    .dwattr $C$DW$84, DW_AT_TI_end_line(0x19b)
    1851                    .dwattr $C$DW$84, DW_AT_TI_end_column(0x01)
    1852                    .dwendentry
    1853                    .dwendtag $C$DW$84
    1854            
    1855 000000               .sect   ".text:__fpclassify"
    1856                    .clink
    1857                    .global __fpclassify
    1858            
    1859            $C$DW$87        .dwtag  DW_TAG_subprogram
    1860                    .dwattr $C$DW$87, DW_AT_name("__fpclassify")
    1861                    .dwattr $C$DW$87, DW_AT_low_pc(__fpclassify)
    1862                    .dwattr $C$DW$87, DW_AT_high_pc(0x00)
    1863                    .dwattr $C$DW$87, DW_AT_TI_symbol_name("__fpclassify")
    1864                    .dwattr $C$DW$87, DW_AT_external
    1865                    .dwattr $C$DW$87, DW_AT_type(*$C$DW$T$10)
    1866                    .dwattr $C$DW$87, DW_AT_TI_begin_file("C:/ti/ccs1110/ccs/tools/compiler/ti-cgt-msp430_21.6.1.L
    1867                    .dwattr $C$DW$87, DW_AT_TI_begin_line(0x19d)
    1868                    .dwattr $C$DW$87, DW_AT_TI_begin_column(0x25)
    1869                    .dwattr $C$DW$87, DW_AT_decl_file("C:/ti/ccs1110/ccs/tools/compiler/ti-cgt-msp430_21.6.1.LTS/i
    1870                    .dwattr $C$DW$87, DW_AT_decl_line(0x19d)
MSP430 Assembler PC v21.6.1 Tue Dec 20 13:45:56 2022

Copyright (c) 2003-2018 Texas Instruments Incorporated
ADC_Calculations.asm                                                 PAGE   36

    1871                    .dwattr $C$DW$87, DW_AT_decl_column(0x25)
    1872                    .dwattr $C$DW$87, DW_AT_TI_max_frame_size(0x20)
    1873                    .dwpsn  file "C:/ti/ccs1110/ccs/tools/compiler/ti-cgt-msp430_21.6.1.LTS/include/_defs.h",line 
    1874            
    1875                    .dwfde $C$DW$CIE, __fpclassify
    1876            $C$DW$88        .dwtag  DW_TAG_formal_parameter
    1877                    .dwattr $C$DW$88, DW_AT_name("d")
    1878                    .dwattr $C$DW$88, DW_AT_TI_symbol_name("d")
    1879                    .dwattr $C$DW$88, DW_AT_type(*$C$DW$T$17)
    1880                    .dwattr $C$DW$88, DW_AT_location[DW_OP_reg12 DW_OP_piece 2 DW_OP_reg13 DW_OP_piece 2 DW_OP_reg
    1881            
    1882            
    1883            ;*****************************************************************************
    1884            ;* FUNCTION NAME: __fpclassify                                               *
    1885            ;*                                                                           *
    1886            ;*   Regs Modified     : SP,SR,r4,r5,r6,r7,r8,r9,r10,r11,r12,r13,r14,r15     *
    1887            ;*   Regs Used         : SP,SR,r4,r5,r6,r7,r8,r9,r10,r11,r12,r13,r14,r15     *
    1888            ;*   Local Frame Size  : 0 Args + 0 Auto + 28 Save = 28 byte                 *
    1889            ;*****************************************************************************
    1890 000000       __fpclassify:
    1891            ;* --------------------------------------------------------------------------*
    1892                    .dwcfi  cfa_offset, 4
    1893                    .dwcfi  save_reg_to_mem, 16, -4
    1894 000000 146A          PUSHM.A   #7,r10                ; [] 
    1895                    .dwcfi  save_reg_to_mem, 10, -8
    1896                    .dwcfi  save_reg_to_mem, 9, -12
    1897                    .dwcfi  save_reg_to_mem, 8, -16
    1898                    .dwcfi  save_reg_to_mem, 7, -20
    1899                    .dwcfi  save_reg_to_mem, 6, -24
    1900                    .dwcfi  save_reg_to_mem, 5, -28
    1901                    .dwcfi  save_reg_to_mem, 4, -32
    1902                    .dwcfi  cfa_offset, 32
    1903            ;* r4    assigned to d
    1904            $C$DW$89        .dwtag  DW_TAG_variable
    1905                    .dwattr $C$DW$89, DW_AT_name("d")
    1906                    .dwattr $C$DW$89, DW_AT_TI_symbol_name("d")
    1907                    .dwattr $C$DW$89, DW_AT_type(*$C$DW$T$17)
    1908                    .dwattr $C$DW$89, DW_AT_location[DW_OP_reg4 DW_OP_piece 2 DW_OP_reg5 DW_OP_piece 2 DW_OP_reg6 
    1909            
    1910 000002 0CC4          MOVA      r12,r4                ; [] |414| 
    1911 000004 0DC5          MOVA      r13,r5                ; [] |414| 
    1912 000006 0EC6          MOVA      r14,r6                ; [] |414| 
    1913 000008 0FC7          MOVA      r15,r7                ; [] |414| 
    1914                    .dwpsn  file "C:/ti/ccs1110/ccs/tools/compiler/ti-cgt-msp430_21.6.1.LTS/include/_defs.h",line 
    1915 00000a F03F          AND.W     #32752,r15            ; [] |419| 
         00000c 7FF0 
    1916 00000e 903F          CMP.W     #32752,r15            ; [] |419| 
         000010 7FF0 
    1917 000012 2011          JNE       $C$L40                ; [] |419| 
    1918                                                      ; [] |419| 
    1919            ;* --------------------------------------------------------------------------*
    1920 000014 F334          AND.W     #65535,r4             ; [] |419| 
    1921 000016 F335          AND.W     #65535,r5             ; [] |419| 
    1922 000018 F336          AND.W     #65535,r6             ; [] |419| 
    1923 00001a F037          AND.W     #15,r7                ; [] |419| 
MSP430 Assembler PC v21.6.1 Tue Dec 20 13:45:56 2022

Copyright (c) 2003-2018 Texas Instruments Incorporated
ADC_Calculations.asm                                                 PAGE   37

         00001c 000F 
    1924 00001e 9307          TST.W     r7                    ; [] |419| 
    1925 000020 2006          JNE       $C$L38                ; [] |419| 
    1926                                                      ; [] |419| 
    1927            ;* --------------------------------------------------------------------------*
    1928 000022 9306          TST.W     r6                    ; [] |419| 
    1929 000024 2004          JNE       $C$L38                ; [] |419| 
    1930                                                      ; [] |419| 
    1931            ;* --------------------------------------------------------------------------*
    1932 000026 9305          TST.W     r5                    ; [] |419| 
    1933 000028 2002          JNE       $C$L38                ; [] |419| 
    1934                                                      ; [] |419| 
    1935            ;* --------------------------------------------------------------------------*
    1936 00002a 9304          TST.W     r4                    ; [] |419| 
    1937 00002c 2402          JEQ       $C$L39                ; [] |419| 
    1938                                                      ; [] |419| 
    1939            ;* --------------------------------------------------------------------------*
    1940 00002e       $C$L38:    
    1941 00002e 432C          MOV.W     #2,r12                ; [] |419| 
    1942 000030 3C2A          JMP       $C$L45                ; [] |419| 
    1943                                                      ; [] |419| 
    1944            ;* --------------------------------------------------------------------------*
    1945 000032       $C$L39:    
    1946 000032 431C          MOV.W     #1,r12                ; [] |419| 
    1947 000034 3C28          JMP       $C$L45                ; [] |419| 
    1948                                                      ; [] |419| 
    1949            ;* --------------------------------------------------------------------------*
    1950 000036       $C$L40:    
    1951 000036 04C8          MOVA      r4,r8                 ; [] |419| 
    1952 000038 05C9          MOVA      r5,r9                 ; [] |419| 
    1953 00003a 06CA          MOVA      r6,r10                ; [] |419| 
    1954 00003c 07CB          MOVA      r7,r11                ; [] |419| 
    1955 00003e 403C          MOV.W     #52,r12               ; [] |419| 
         000040 0034 
    1956            $C$DW$90        .dwtag  DW_TAG_TI_branch
    1957                    .dwattr $C$DW$90, DW_AT_low_pc(0x00)
    1958                    .dwattr $C$DW$90, DW_AT_name("__mspabi_srlll")
    1959                    .dwattr $C$DW$90, DW_AT_TI_call
    1960            
    1961 000042 13B0!         CALLA     #__mspabi_srlll       ; [] |419| 
         000044 0000 
    1962                                                      ; [] |419| 
    1963 000046 F03C          AND.W     #2047,r12             ; [] |419| 
         000048 07FF 
    1964 00004a F30D          AND.W     #0,r13                ; [] |419| 
    1965 00004c F30E          AND.W     #0,r14                ; [] |419| 
    1966 00004e F30F          AND.W     #0,r15                ; [] |419| 
    1967 000050 930F          TST.W     r15                   ; [] |419| 
    1968 000052 2006          JNE       $C$L41                ; [] |419| 
    1969                                                      ; [] |419| 
    1970            ;* --------------------------------------------------------------------------*
    1971 000054 930E          TST.W     r14                   ; [] |419| 
    1972 000056 2004          JNE       $C$L41                ; [] |419| 
    1973                                                      ; [] |419| 
    1974            ;* --------------------------------------------------------------------------*
MSP430 Assembler PC v21.6.1 Tue Dec 20 13:45:56 2022

Copyright (c) 2003-2018 Texas Instruments Incorporated
ADC_Calculations.asm                                                 PAGE   38

    1975 000058 930D          TST.W     r13                   ; [] |419| 
    1976 00005a 2002          JNE       $C$L41                ; [] |419| 
    1977                                                      ; [] |419| 
    1978            ;* --------------------------------------------------------------------------*
    1979 00005c 930C          TST.W     r12                   ; [] |419| 
    1980 00005e 2402          JEQ       $C$L42                ; [] |419| 
    1981                                                      ; [] |419| 
    1982            ;* --------------------------------------------------------------------------*
    1983 000060       $C$L41:    
    1984 000060 433C          MOV.W     #-1,r12               ; [] |419| 
    1985 000062 3C11          JMP       $C$L45                ; [] |419| 
    1986                                                      ; [] |419| 
    1987            ;* --------------------------------------------------------------------------*
    1988 000064       $C$L42:    
    1989 000064 F334          AND.W     #65535,r4             ; [] |419| 
    1990 000066 F335          AND.W     #65535,r5             ; [] |419| 
    1991 000068 F336          AND.W     #65535,r6             ; [] |419| 
    1992 00006a F037          AND.W     #15,r7                ; [] |419| 
         00006c 000F 
    1993 00006e 9307          TST.W     r7                    ; [] |419| 
    1994 000070 2006          JNE       $C$L43                ; [] |419| 
    1995                                                      ; [] |419| 
    1996            ;* --------------------------------------------------------------------------*
    1997 000072 9306          TST.W     r6                    ; [] |419| 
    1998 000074 2004          JNE       $C$L43                ; [] |419| 
    1999                                                      ; [] |419| 
    2000            ;* --------------------------------------------------------------------------*
    2001 000076 9305          TST.W     r5                    ; [] |419| 
    2002 000078 2002          JNE       $C$L43                ; [] |419| 
    2003                                                      ; [] |419| 
    2004            ;* --------------------------------------------------------------------------*
    2005 00007a 9304          TST.W     r4                    ; [] |419| 
    2006 00007c 2403          JEQ       $C$L44                ; [] |419| 
    2007                                                      ; [] |419| 
    2008            ;* --------------------------------------------------------------------------*
    2009 00007e       $C$L43:    
    2010 00007e 403C          MOV.W     #65534,r12            ; [] |419| 
         000080 FFFE 
    2011 000082 3C01          JMP       $C$L45                ; [] |419| 
    2012                                                      ; [] |419| 
    2013            ;* --------------------------------------------------------------------------*
    2014 000084       $C$L44:    
    2015 000084 430C          MOV.W     #0,r12                ; [] |419| 
    2016            ;* --------------------------------------------------------------------------*
    2017 000086       $C$L45:    
    2018                    .dwpsn  file "C:/ti/ccs1110/ccs/tools/compiler/ti-cgt-msp430_21.6.1.LTS/include/_defs.h",line 
    2019 000086 1664          POPM.A    #7,r10                ; [] 
    2020                    .dwcfi  restore_reg, 4
    2021                    .dwcfi  restore_reg, 5
    2022                    .dwcfi  restore_reg, 6
    2023                    .dwcfi  restore_reg, 7
    2024                    .dwcfi  restore_reg, 8
    2025                    .dwcfi  restore_reg, 9
    2026                    .dwcfi  restore_reg, 10
    2027                    .dwcfi  cfa_offset, 4
MSP430 Assembler PC v21.6.1 Tue Dec 20 13:45:56 2022

Copyright (c) 2003-2018 Texas Instruments Incorporated
ADC_Calculations.asm                                                 PAGE   39

    2028            $C$DW$91        .dwtag  DW_TAG_TI_branch
    2029                    .dwattr $C$DW$91, DW_AT_low_pc(0x00)
    2030                    .dwattr $C$DW$91, DW_AT_TI_return
    2031            
    2032 000088 0110          RETA      ; [] 
    2033                    ; [] 
    2034                    .dwattr $C$DW$87, DW_AT_TI_end_file("C:/ti/ccs1110/ccs/tools/compiler/ti-cgt-msp430_21.6.1.LTS
    2035                    .dwattr $C$DW$87, DW_AT_TI_end_line(0x1ac)
    2036                    .dwattr $C$DW$87, DW_AT_TI_end_column(0x01)
    2037                    .dwendentry
    2038                    .dwendtag $C$DW$87
    2039            
    2040 000000               .sect   ".text:ADC_Calculations"
    2041                    .clink
    2042                    .global ADC_Calculations
    2043            
    2044            $C$DW$92        .dwtag  DW_TAG_subprogram
    2045                    .dwattr $C$DW$92, DW_AT_name("ADC_Calculations")
    2046                    .dwattr $C$DW$92, DW_AT_low_pc(ADC_Calculations)
    2047                    .dwattr $C$DW$92, DW_AT_high_pc(0x00)
    2048                    .dwattr $C$DW$92, DW_AT_TI_symbol_name("ADC_Calculations")
    2049                    .dwattr $C$DW$92, DW_AT_external
    2050                    .dwattr $C$DW$92, DW_AT_TI_begin_file("../src/ADC_Calculations.c")
    2051                    .dwattr $C$DW$92, DW_AT_TI_begin_line(0x68)
    2052                    .dwattr $C$DW$92, DW_AT_TI_begin_column(0x06)
    2053                    .dwattr $C$DW$92, DW_AT_decl_file("../src/ADC_Calculations.c")
    2054                    .dwattr $C$DW$92, DW_AT_decl_line(0x68)
    2055                    .dwattr $C$DW$92, DW_AT_decl_column(0x06)
    2056                    .dwattr $C$DW$92, DW_AT_TI_max_frame_size(0x20)
    2057                    .dwpsn  file "../src/ADC_Calculations.c",line 105,column 1,is_stmt,address ADC_Calculations,is
    2058            
    2059                    .dwfde $C$DW$CIE, ADC_Calculations
    2060            
    2061            ;*****************************************************************************
    2062            ;* FUNCTION NAME: ADC_Calculations                                           *
    2063            ;*                                                                           *
    2064            ;*   Regs Modified     : SP,SR,r4,r5,r6,r7,r8,r9,r10,r11,r12,r13,r14,r15     *
    2065            ;*   Regs Used         : SP,SR,r4,r5,r6,r7,r8,r9,r10,r11,r12,r13,r14,r15     *
    2066            ;*   Local Frame Size  : 0 Args + 0 Auto + 28 Save = 28 byte                 *
    2067            ;*****************************************************************************
    2068 000000       ADC_Calculations:
    2069            ;* --------------------------------------------------------------------------*
    2070                    .dwcfi  cfa_offset, 4
    2071                    .dwcfi  save_reg_to_mem, 16, -4
    2072 000000 146A          PUSHM.A   #7,r10                ; [] 
    2073                    .dwcfi  save_reg_to_mem, 10, -8
    2074                    .dwcfi  save_reg_to_mem, 9, -12
    2075                    .dwcfi  save_reg_to_mem, 8, -16
    2076                    .dwcfi  save_reg_to_mem, 7, -20
    2077                    .dwcfi  save_reg_to_mem, 6, -24
    2078                    .dwcfi  save_reg_to_mem, 5, -28
    2079                    .dwcfi  save_reg_to_mem, 4, -32
    2080                    .dwcfi  cfa_offset, 32
    2081            ;* r13   assigned to adcSrcAddr
    2082            $C$DW$93        .dwtag  DW_TAG_variable
MSP430 Assembler PC v21.6.1 Tue Dec 20 13:45:56 2022

Copyright (c) 2003-2018 Texas Instruments Incorporated
ADC_Calculations.asm                                                 PAGE   40

    2083                    .dwattr $C$DW$93, DW_AT_name("adcSrcAddr")
    2084                    .dwattr $C$DW$93, DW_AT_TI_symbol_name("adcSrcAddr")
    2085                    .dwattr $C$DW$93, DW_AT_type(*$C$DW$T$129)
    2086                    .dwattr $C$DW$93, DW_AT_location[DW_OP_reg13]
    2087            
    2088            ;* r12   assigned to adcDestAddr
    2089            $C$DW$94        .dwtag  DW_TAG_variable
    2090                    .dwattr $C$DW$94, DW_AT_name("adcDestAddr")
    2091                    .dwattr $C$DW$94, DW_AT_TI_symbol_name("adcDestAddr")
    2092                    .dwattr $C$DW$94, DW_AT_type(*$C$DW$T$129)
    2093                    .dwattr $C$DW$94, DW_AT_location[DW_OP_reg12]
    2094            
    2095            ;* r6    assigned to tmp3
    2096            $C$DW$95        .dwtag  DW_TAG_variable
    2097                    .dwattr $C$DW$95, DW_AT_name("tmp3")
    2098                    .dwattr $C$DW$95, DW_AT_TI_symbol_name("tmp3")
    2099                    .dwattr $C$DW$95, DW_AT_type(*$C$DW$T$16)
    2100                    .dwattr $C$DW$95, DW_AT_location[DW_OP_reg6 DW_OP_piece 2 DW_OP_reg7 DW_OP_piece 2]
    2101            
    2102            ;* r5    assigned to tmp4
    2103            $C$DW$96        .dwtag  DW_TAG_variable
    2104                    .dwattr $C$DW$96, DW_AT_name("tmp4")
    2105                    .dwattr $C$DW$96, DW_AT_TI_symbol_name("tmp4")
    2106                    .dwattr $C$DW$96, DW_AT_type(*$C$DW$T$16)
    2107                    .dwattr $C$DW$96, DW_AT_location[DW_OP_reg5 DW_OP_piece 2 DW_OP_reg6 DW_OP_piece 2]
    2108            
    2109            ;* r5    assigned to tmp5
    2110            $C$DW$97        .dwtag  DW_TAG_variable
    2111                    .dwattr $C$DW$97, DW_AT_name("tmp5")
    2112                    .dwattr $C$DW$97, DW_AT_TI_symbol_name("tmp5")
    2113                    .dwattr $C$DW$97, DW_AT_type(*$C$DW$T$16)
    2114                    .dwattr $C$DW$97, DW_AT_location[DW_OP_reg5 DW_OP_piece 2 DW_OP_reg6 DW_OP_piece 2]
    2115            
    2116            ;* r5    assigned to tmp6
    2117            $C$DW$98        .dwtag  DW_TAG_variable
    2118                    .dwattr $C$DW$98, DW_AT_name("tmp6")
    2119                    .dwattr $C$DW$98, DW_AT_TI_symbol_name("tmp6")
    2120                    .dwattr $C$DW$98, DW_AT_type(*$C$DW$T$16)
    2121                    .dwattr $C$DW$98, DW_AT_location[DW_OP_reg5 DW_OP_piece 2 DW_OP_reg6 DW_OP_piece 2]
    2122            
    2123                    .dwpsn  file "../src/ADC_Calculations.c",line 118,column 5,is_stmt,isa 0
    2124 000002 008C!         MOVX.A    #ADCSamples+0,r12     ; [] |118| 
         000004 0000 
    2125 000006 008D!         MOVX.A    #ADC12MEM0+0,r13      ; [] |118| 
         000008 0000 
    2126 00000a 403E          MOV.W     #32,r14               ; [] |118| 
         00000c 0020 
    2127            $C$DW$99        .dwtag  DW_TAG_TI_branch
    2128                    .dwattr $C$DW$99, DW_AT_low_pc(0x00)
    2129                    .dwattr $C$DW$99, DW_AT_name("memcpy")
    2130                    .dwattr $C$DW$99, DW_AT_TI_call
    2131            
    2132 00000e 13B0!         CALLA     #memcpy               ; [] |118| 
         000010 0000 
    2133                                                      ; [] |118| 
MSP430 Assembler PC v21.6.1 Tue Dec 20 13:45:56 2022

Copyright (c) 2003-2018 Texas Instruments Incorporated
ADC_Calculations.asm                                                 PAGE   41

    2134                    .dwpsn  file "../src/ADC_Calculations.c",line 122,column 5,is_stmt,isa 0
    2135 000012 421C          MOV.W     &ADCSamples+0,r12     ; [] |122| 
         000014 0000!
    2136            $C$DW$100       .dwtag  DW_TAG_TI_branch
    2137                    .dwattr $C$DW$100, DW_AT_low_pc(0x00)
    2138                    .dwattr $C$DW$100, DW_AT_name("__mspabi_fltud")
    2139                    .dwattr $C$DW$100, DW_AT_TI_call
    2140            
    2141 000016 13B0!         CALLA     #__mspabi_fltud       ; [] |122| 
         000018 0000 
    2142                                                      ; [] |122| 
    2143 00001a 0CC8          MOVA      r12,r8                ; [] |122| 
    2144 00001c 0DC9          MOVA      r13,r9                ; [] |122| 
    2145 00001e 0ECA          MOVA      r14,r10               ; [] |122| 
    2146 000020 0FC7          MOVA      r15,r7                ; [] |122| 
    2147 000022 421C          MOV.W     &ADCSamples+0,r12     ; [] |122| 
         000024 0000!
    2148            $C$DW$101       .dwtag  DW_TAG_TI_branch
    2149                    .dwattr $C$DW$101, DW_AT_low_pc(0x00)
    2150                    .dwattr $C$DW$101, DW_AT_name("__mspabi_fltud")
    2151                    .dwattr $C$DW$101, DW_AT_TI_call
    2152            
    2153 000026 13B0!         CALLA     #__mspabi_fltud       ; [] |122| 
         000028 0000 
    2154                                                      ; [] |122| 
    2155 00002a 07CB          MOVA      r7,r11                ; [] |122| 
    2156            $C$DW$102       .dwtag  DW_TAG_TI_branch
    2157                    .dwattr $C$DW$102, DW_AT_low_pc(0x00)
    2158                    .dwattr $C$DW$102, DW_AT_name("__mspabi_mpyd")
    2159                    .dwattr $C$DW$102, DW_AT_TI_call
    2160            
    2161 00002c 13B0!         CALLA     #__mspabi_mpyd        ; [] |122| 
         00002e 0000 
    2162                                                      ; [] |122| 
    2163 000030 0CC8          MOVA      r12,r8                ; [] |122| 
    2164 000032 0DC9          MOVA      r13,r9                ; [] |122| 
    2165 000034 0ECA          MOVA      r14,r10               ; [] |122| 
    2166 000036 0FC7          MOVA      r15,r7                ; [] |122| 
    2167 000038 421C          MOV.W     &ADCSamples+0,r12     ; [] |122| 
         00003a 0000!
    2168            $C$DW$103       .dwtag  DW_TAG_TI_branch
    2169                    .dwattr $C$DW$103, DW_AT_low_pc(0x00)
    2170                    .dwattr $C$DW$103, DW_AT_name("__mspabi_fltud")
    2171                    .dwattr $C$DW$103, DW_AT_TI_call
    2172            
    2173 00003c 13B0!         CALLA     #__mspabi_fltud       ; [] |122| 
         00003e 0000 
    2174                                                      ; [] |122| 
    2175 000040 07CB          MOVA      r7,r11                ; [] |122| 
    2176            $C$DW$104       .dwtag  DW_TAG_TI_branch
    2177                    .dwattr $C$DW$104, DW_AT_low_pc(0x00)
    2178                    .dwattr $C$DW$104, DW_AT_name("__mspabi_addd")
    2179                    .dwattr $C$DW$104, DW_AT_TI_call
    2180            
    2181 000042 13B0!         CALLA     #__mspabi_addd        ; [] |122| 
MSP430 Assembler PC v21.6.1 Tue Dec 20 13:45:56 2022

Copyright (c) 2003-2018 Texas Instruments Incorporated
ADC_Calculations.asm                                                 PAGE   42

         000044 0000 
    2182                                                      ; [] |122| 
    2183 000046 0CC8          MOVA      r12,r8                ; [] |122| 
    2184 000048 0DC9          MOVA      r13,r9                ; [] |122| 
    2185 00004a 0ECA          MOVA      r14,r10               ; [] |122| 
    2186 00004c 0FCB          MOVA      r15,r11               ; [] |122| 
    2187 00004e 403C          MOV.W     #3138,r12             ; [] |122| 
         000050 0C42 
    2188 000052 403D          MOV.W     #28149,r13            ; [] |122| 
         000054 6DF5 
    2189 000056 403E          MOV.W     #50465,r14            ; [] |122| 
         000058 C521 
    2190 00005a 403F          MOV.W     #16233,r15            ; [] |122| 
         00005c 3F69 
    2191            $C$DW$105       .dwtag  DW_TAG_TI_branch
    2192                    .dwattr $C$DW$105, DW_AT_low_pc(0x00)
    2193                    .dwattr $C$DW$105, DW_AT_name("__mspabi_addd")
    2194                    .dwattr $C$DW$105, DW_AT_TI_call
    2195            
    2196 00005e 13B0!         CALLA     #__mspabi_addd        ; [] |122| 
         000060 0000 
    2197                                                      ; [] |122| 
    2198            $C$DW$106       .dwtag  DW_TAG_TI_branch
    2199                    .dwattr $C$DW$106, DW_AT_low_pc(0x00)
    2200                    .dwattr $C$DW$106, DW_AT_name("__mspabi_cvtdf")
    2201                    .dwattr $C$DW$106, DW_AT_TI_call
    2202            
    2203 000062 13B0!         CALLA     #__mspabi_cvtdf       ; [] |122| 
         000064 0000 
    2204                                                      ; [] |122| 
    2205                    .dwpsn  file "../src/ADC_Calculations.c",line 125,column 3,is_stmt,isa 0
    2206            ;* --------------------------------------------------------------------------*
    2207            $C$DW$107       .dwtag  DW_TAG_TI_branch
    2208                    .dwattr $C$DW$107, DW_AT_low_pc(0x00)
    2209                    .dwattr $C$DW$107, DW_AT_name("__mspabi_cvtfd")
    2210                    .dwattr $C$DW$107, DW_AT_TI_call
    2211            
    2212 000066 13B0!         CALLA     #__mspabi_cvtfd       ; [] |125| 
         000068 0000 
    2213                                                      ; [] |125| 
    2214 00006a 0CC4          MOVA      r12,r4                ; [] |125| 
    2215 00006c 0DC5          MOVA      r13,r5                ; [] |125| 
    2216 00006e 0EC6          MOVA      r14,r6                ; [] |125| 
    2217 000070 0FC7          MOVA      r15,r7                ; [] |125| 
    2218 000072 421C          MOV.W     &FC_volts+0,r12       ; [] |125| 
         000074 0000!
    2219 000076 421D          MOV.W     &FC_volts+2,r13       ; [] |125| 
         000078 0002!
    2220            $C$DW$108       .dwtag  DW_TAG_TI_branch
    2221                    .dwattr $C$DW$108, DW_AT_low_pc(0x00)
    2222                    .dwattr $C$DW$108, DW_AT_name("__mspabi_cvtfd")
    2223                    .dwattr $C$DW$108, DW_AT_TI_call
    2224            
    2225 00007a 13B0!         CALLA     #__mspabi_cvtfd       ; [] |125| 
         00007c 0000 
MSP430 Assembler PC v21.6.1 Tue Dec 20 13:45:56 2022

Copyright (c) 2003-2018 Texas Instruments Incorporated
ADC_Calculations.asm                                                 PAGE   43

    2226                                                      ; [] |125| 
    2227 00007e 0CC8          MOVA      r12,r8                ; [] |125| 
    2228 000080 0DC9          MOVA      r13,r9                ; [] |125| 
    2229 000082 0ECA          MOVA      r14,r10               ; [] |125| 
    2230 000084 0FCB          MOVA      r15,r11               ; [] |125| 
    2231 000086 430C          MOV.W     #0,r12                ; [] |125| 
    2232 000088 430D          MOV.W     #0,r13                ; [] |125| 
    2233 00008a 430E          MOV.W     #0,r14                ; [] |125| 
    2234 00008c 403F          MOV.W     #16392,r15            ; [] |125| 
         00008e 4008 
    2235            $C$DW$109       .dwtag  DW_TAG_TI_branch
    2236                    .dwattr $C$DW$109, DW_AT_low_pc(0x00)
    2237                    .dwattr $C$DW$109, DW_AT_name("__mspabi_mpyd")
    2238                    .dwattr $C$DW$109, DW_AT_TI_call
    2239            
    2240 000090 13B0!         CALLA     #__mspabi_mpyd        ; [] |125| 
         000092 0000 
    2241                                                      ; [] |125| 
    2242 000094 04C8          MOVA      r4,r8                 ; [] |125| 
    2243 000096 05C9          MOVA      r5,r9                 ; [] |125| 
    2244 000098 06CA          MOVA      r6,r10                ; [] |125| 
    2245 00009a 07CB          MOVA      r7,r11                ; [] |125| 
    2246            $C$DW$110       .dwtag  DW_TAG_TI_branch
    2247                    .dwattr $C$DW$110, DW_AT_low_pc(0x00)
    2248                    .dwattr $C$DW$110, DW_AT_name("__mspabi_addd")
    2249                    .dwattr $C$DW$110, DW_AT_TI_call
    2250            
    2251 00009c 13B0!         CALLA     #__mspabi_addd        ; [] |125| 
         00009e 0000 
    2252                                                      ; [] |125| 
    2253 0000a0 0CC8          MOVA      r12,r8                ; [] |125| 
    2254 0000a2 0DC9          MOVA      r13,r9                ; [] |125| 
    2255 0000a4 0ECA          MOVA      r14,r10               ; [] |125| 
    2256 0000a6 0FCB          MOVA      r15,r11               ; [] |125| 
    2257 0000a8 430C          MOV.W     #0,r12                ; [] |125| 
    2258 0000aa 430D          MOV.W     #0,r13                ; [] |125| 
    2259 0000ac 430E          MOV.W     #0,r14                ; [] |125| 
    2260 0000ae 403F          MOV.W     #16336,r15            ; [] |125| 
         0000b0 3FD0 
    2261            $C$DW$111       .dwtag  DW_TAG_TI_branch
    2262                    .dwattr $C$DW$111, DW_AT_low_pc(0x00)
    2263                    .dwattr $C$DW$111, DW_AT_name("__mspabi_mpyd")
    2264                    .dwattr $C$DW$111, DW_AT_TI_call
    2265            
    2266 0000b2 13B0!         CALLA     #__mspabi_mpyd        ; [] |125| 
         0000b4 0000 
    2267                                                      ; [] |125| 
    2268            $C$DW$112       .dwtag  DW_TAG_TI_branch
    2269                    .dwattr $C$DW$112, DW_AT_low_pc(0x00)
    2270                    .dwattr $C$DW$112, DW_AT_name("__mspabi_cvtdf")
    2271                    .dwattr $C$DW$112, DW_AT_TI_call
    2272            
    2273 0000b6 13B0!         CALLA     #__mspabi_cvtdf       ; [] |125| 
         0000b8 0000 
    2274                                                      ; [] |125| 
MSP430 Assembler PC v21.6.1 Tue Dec 20 13:45:56 2022

Copyright (c) 2003-2018 Texas Instruments Incorporated
ADC_Calculations.asm                                                 PAGE   44

    2275 0000ba 4C82          MOV.W     r12,&FC_volts+0       ; [] |125| 
         0000bc 0000!
    2276 0000be 4D82          MOV.W     r13,&FC_volts+2       ; [] |125| 
         0000c0 0002!
    2277                    .dwpsn  file "../src/ADC_Calculations.c",line 131,column 5,is_stmt,isa 0
    2278 0000c2 421C          MOV.W     &ADCSamples+2,r12     ; [] |131| 
         0000c4 0002!
    2279            $C$DW$113       .dwtag  DW_TAG_TI_branch
    2280                    .dwattr $C$DW$113, DW_AT_low_pc(0x00)
    2281                    .dwattr $C$DW$113, DW_AT_name("__mspabi_fltud")
    2282                    .dwattr $C$DW$113, DW_AT_TI_call
    2283            
    2284 0000c6 13B0!         CALLA     #__mspabi_fltud       ; [] |131| 
         0000c8 0000 
    2285                                                      ; [] |131| 
    2286 0000ca 0CC8          MOVA      r12,r8                ; [] |131| 
    2287 0000cc 0DC9          MOVA      r13,r9                ; [] |131| 
    2288 0000ce 0ECA          MOVA      r14,r10               ; [] |131| 
    2289 0000d0 0FCB          MOVA      r15,r11               ; [] |131| 
    2290 0000d2 403C          MOV.W     #29114,r12            ; [] |131| 
         0000d4 71BA 
    2291 0000d6 403D          MOV.W     #58540,r13            ; [] |131| 
         0000d8 E4AC 
    2292 0000da 403E          MOV.W     #53243,r14            ; [] |131| 
         0000dc CFFB 
    2293 0000de 403F          MOV.W     #48753,r15            ; [] |131| 
         0000e0 BE71 
    2294            $C$DW$114       .dwtag  DW_TAG_TI_branch
    2295                    .dwattr $C$DW$114, DW_AT_low_pc(0x00)
    2296                    .dwattr $C$DW$114, DW_AT_name("__mspabi_mpyd")
    2297                    .dwattr $C$DW$114, DW_AT_TI_call
    2298            
    2299 0000e2 13B0!         CALLA     #__mspabi_mpyd        ; [] |131| 
         0000e4 0000 
    2300                                                      ; [] |131| 
    2301 0000e6 0CC8          MOVA      r12,r8                ; [] |131| 
    2302 0000e8 0DC9          MOVA      r13,r9                ; [] |131| 
    2303 0000ea 0ECA          MOVA      r14,r10               ; [] |131| 
    2304 0000ec 0FC7          MOVA      r15,r7                ; [] |131| 
    2305 0000ee 421C          MOV.W     &ADCSamples+2,r12     ; [] |131| 
         0000f0 0002!
    2306            $C$DW$115       .dwtag  DW_TAG_TI_branch
    2307                    .dwattr $C$DW$115, DW_AT_low_pc(0x00)
    2308                    .dwattr $C$DW$115, DW_AT_name("__mspabi_fltud")
    2309                    .dwattr $C$DW$115, DW_AT_TI_call
    2310            
    2311 0000f2 13B0!         CALLA     #__mspabi_fltud       ; [] |131| 
         0000f4 0000 
    2312                                                      ; [] |131| 
    2313            ;* --------------------------------------------------------------------------*
    2314 0000f6 07CB          MOVA      r7,r11                ; [] |131| 
    2315            $C$DW$116       .dwtag  DW_TAG_TI_branch
    2316                    .dwattr $C$DW$116, DW_AT_low_pc(0x00)
    2317                    .dwattr $C$DW$116, DW_AT_name("__mspabi_mpyd")
    2318                    .dwattr $C$DW$116, DW_AT_TI_call
MSP430 Assembler PC v21.6.1 Tue Dec 20 13:45:56 2022

Copyright (c) 2003-2018 Texas Instruments Incorporated
ADC_Calculations.asm                                                 PAGE   45

    2319            
    2320 0000f8 13B0!         CALLA     #__mspabi_mpyd        ; [] |131| 
         0000fa 0000 
    2321                                                      ; [] |131| 
    2322 0000fc 0CC4          MOVA      r12,r4                ; [] |131| 
    2323 0000fe 0DC5          MOVA      r13,r5                ; [] |131| 
    2324 000100 0EC6          MOVA      r14,r6                ; [] |131| 
    2325 000102 0FC7          MOVA      r15,r7                ; [] |131| 
    2326 000104 421C          MOV.W     &ADCSamples+2,r12     ; [] |131| 
         000106 0002!
    2327            $C$DW$117       .dwtag  DW_TAG_TI_branch
    2328                    .dwattr $C$DW$117, DW_AT_low_pc(0x00)
    2329                    .dwattr $C$DW$117, DW_AT_name("__mspabi_fltud")
    2330                    .dwattr $C$DW$117, DW_AT_TI_call
    2331            
    2332 000108 13B0!         CALLA     #__mspabi_fltud       ; [] |131| 
         00010a 0000 
    2333                                                      ; [] |131| 
    2334 00010c 0CC8          MOVA      r12,r8                ; [] |131| 
    2335 00010e 0DC9          MOVA      r13,r9                ; [] |131| 
    2336 000110 0ECA          MOVA      r14,r10               ; [] |131| 
    2337 000112 0FCB          MOVA      r15,r11               ; [] |131| 
    2338 000114 403C          MOV.W     #53565,r12            ; [] |131| 
         000116 D13D 
    2339 000118 403D          MOV.W     #17586,r13            ; [] |131| 
         00011a 44B2 
    2340 00011c 403E          MOV.W     #50208,r14            ; [] |131| 
         00011e C420 
    2341 000120 403F          MOV.W     #16241,r15            ; [] |131| 
         000122 3F71 
    2342            $C$DW$118       .dwtag  DW_TAG_TI_branch
    2343                    .dwattr $C$DW$118, DW_AT_low_pc(0x00)
    2344                    .dwattr $C$DW$118, DW_AT_name("__mspabi_mpyd")
    2345                    .dwattr $C$DW$118, DW_AT_TI_call
    2346            
    2347 000124 13B0!         CALLA     #__mspabi_mpyd        ; [] |131| 
         000126 0000 
    2348                                                      ; [] |131| 
    2349 000128 04C8          MOVA      r4,r8                 ; [] |131| 
    2350 00012a 05C9          MOVA      r5,r9                 ; [] |131| 
    2351 00012c 06CA          MOVA      r6,r10                ; [] |131| 
    2352 00012e 07CB          MOVA      r7,r11                ; [] |131| 
    2353            $C$DW$119       .dwtag  DW_TAG_TI_branch
    2354                    .dwattr $C$DW$119, DW_AT_low_pc(0x00)
    2355                    .dwattr $C$DW$119, DW_AT_name("__mspabi_addd")
    2356                    .dwattr $C$DW$119, DW_AT_TI_call
    2357            
    2358 000130 13B0!         CALLA     #__mspabi_addd        ; [] |131| 
         000132 0000 
    2359                                                      ; [] |131| 
    2360 000134 0CC8          MOVA      r12,r8                ; [] |131| 
    2361 000136 0DC9          MOVA      r13,r9                ; [] |131| 
    2362 000138 0ECA          MOVA      r14,r10               ; [] |131| 
    2363 00013a 0FCB          MOVA      r15,r11               ; [] |131| 
    2364 00013c 403C          MOV.W     #6569,r12             ; [] |131| 
MSP430 Assembler PC v21.6.1 Tue Dec 20 13:45:56 2022

Copyright (c) 2003-2018 Texas Instruments Incorporated
ADC_Calculations.asm                                                 PAGE   46

         00013e 19A9 
    2365 000140 403D          MOV.W     #57963,r13            ; [] |131| 
         000142 E26B 
    2366 000144 403E          MOV.W     #13969,r14            ; [] |131| 
         000146 3691 
    2367 000148 403F          MOV.W     #16253,r15            ; [] |131| 
         00014a 3F7D 
    2368            $C$DW$120       .dwtag  DW_TAG_TI_branch
    2369                    .dwattr $C$DW$120, DW_AT_low_pc(0x00)
    2370                    .dwattr $C$DW$120, DW_AT_name("__mspabi_addd")
    2371                    .dwattr $C$DW$120, DW_AT_TI_call
    2372            
    2373 00014c 13B0!         CALLA     #__mspabi_addd        ; [] |131| 
         00014e 0000 
    2374                                                      ; [] |131| 
    2375            $C$DW$121       .dwtag  DW_TAG_TI_branch
    2376                    .dwattr $C$DW$121, DW_AT_low_pc(0x00)
    2377                    .dwattr $C$DW$121, DW_AT_name("__mspabi_cvtdf")
    2378                    .dwattr $C$DW$121, DW_AT_TI_call
    2379            
    2380 000150 13B0!         CALLA     #__mspabi_cvtdf       ; [] |131| 
         000152 0000 
    2381                                                      ; [] |131| 
    2382                    .dwpsn  file "../src/ADC_Calculations.c",line 133,column 3,is_stmt,isa 0
    2383            $C$DW$122       .dwtag  DW_TAG_TI_branch
    2384                    .dwattr $C$DW$122, DW_AT_low_pc(0x00)
    2385                    .dwattr $C$DW$122, DW_AT_name("__mspabi_cvtfd")
    2386                    .dwattr $C$DW$122, DW_AT_TI_call
    2387            
    2388 000154 13B0!         CALLA     #__mspabi_cvtfd       ; [] |133| 
         000156 0000 
    2389                                                      ; [] |133| 
    2390 000158 0CC8          MOVA      r12,r8                ; [] |133| 
    2391 00015a 0DC9          MOVA      r13,r9                ; [] |133| 
    2392 00015c 0ECA          MOVA      r14,r10               ; [] |133| 
    2393 00015e 0FCB          MOVA      r15,r11               ; [] |133| 
    2394 000160 403C          MOV.W     #39322,r12            ; [] |133| 
         000162 999A 
    2395 000164 403D          MOV.W     #39321,r13            ; [] |133| 
         000166 9999 
    2396 000168 403E          MOV.W     #39321,r14            ; [] |133| 
         00016a 9999 
    2397 00016c 403F          MOV.W     #16313,r15            ; [] |133| 
         00016e 3FB9 
    2398            $C$DW$123       .dwtag  DW_TAG_TI_branch
    2399                    .dwattr $C$DW$123, DW_AT_low_pc(0x00)
    2400                    .dwattr $C$DW$123, DW_AT_name("__mspabi_mpyd")
    2401                    .dwattr $C$DW$123, DW_AT_TI_call
    2402            
    2403 000170 13B0!         CALLA     #__mspabi_mpyd        ; [] |133| 
         000172 0000 
    2404                                                      ; [] |133| 
    2405 000174 0CC4          MOVA      r12,r4                ; [] |133| 
    2406 000176 0DC5          MOVA      r13,r5                ; [] |133| 
    2407 000178 0EC6          MOVA      r14,r6                ; [] |133| 
MSP430 Assembler PC v21.6.1 Tue Dec 20 13:45:56 2022

Copyright (c) 2003-2018 Texas Instruments Incorporated
ADC_Calculations.asm                                                 PAGE   47

    2408 00017a 0FC7          MOVA      r15,r7                ; [] |133| 
    2409 00017c 421C          MOV.W     &FC_Current+0,r12     ; [] |133| 
         00017e 0000!
    2410 000180 421D          MOV.W     &FC_Current+2,r13     ; [] |133| 
         000182 0002!
    2411            $C$DW$124       .dwtag  DW_TAG_TI_branch
    2412                    .dwattr $C$DW$124, DW_AT_low_pc(0x00)
    2413                    .dwattr $C$DW$124, DW_AT_name("__mspabi_cvtfd")
    2414                    .dwattr $C$DW$124, DW_AT_TI_call
    2415            
    2416 000184 13B0!         CALLA     #__mspabi_cvtfd       ; [] |133| 
         000186 0000 
    2417                                                      ; [] |133| 
    2418 000188 0CC8          MOVA      r12,r8                ; [] |133| 
    2419 00018a 0DC9          MOVA      r13,r9                ; [] |133| 
    2420 00018c 0ECA          MOVA      r14,r10               ; [] |133| 
    2421 00018e 0FCB          MOVA      r15,r11               ; [] |133| 
    2422            ;* --------------------------------------------------------------------------*
    2423 000190 430C          MOV.W     #0,r12                ; [] |133| 
    2424 000192 430D          MOV.W     #0,r13                ; [] |133| 
    2425 000194 430E          MOV.W     #0,r14                ; [] |133| 
    2426 000196 403F          MOV.W     #16418,r15            ; [] |133| 
         000198 4022 
    2427            $C$DW$125       .dwtag  DW_TAG_TI_branch
    2428                    .dwattr $C$DW$125, DW_AT_low_pc(0x00)
    2429                    .dwattr $C$DW$125, DW_AT_name("__mspabi_mpyd")
    2430                    .dwattr $C$DW$125, DW_AT_TI_call
    2431            
    2432 00019a 13B0!         CALLA     #__mspabi_mpyd        ; [] |133| 
         00019c 0000 
    2433                                                      ; [] |133| 
    2434 00019e 0CC8          MOVA      r12,r8                ; [] |133| 
    2435 0001a0 0DC9          MOVA      r13,r9                ; [] |133| 
    2436 0001a2 0ECA          MOVA      r14,r10               ; [] |133| 
    2437 0001a4 0FCB          MOVA      r15,r11               ; [] |133| 
    2438 0001a6 403C          MOV.W     #39322,r12            ; [] |133| 
         0001a8 999A 
    2439 0001aa 403D          MOV.W     #39321,r13            ; [] |133| 
         0001ac 9999 
    2440 0001ae 403E          MOV.W     #39321,r14            ; [] |133| 
         0001b0 9999 
    2441 0001b2 403F          MOV.W     #16313,r15            ; [] |133| 
         0001b4 3FB9 
    2442            $C$DW$126       .dwtag  DW_TAG_TI_branch
    2443                    .dwattr $C$DW$126, DW_AT_low_pc(0x00)
    2444                    .dwattr $C$DW$126, DW_AT_name("__mspabi_mpyd")
    2445                    .dwattr $C$DW$126, DW_AT_TI_call
    2446            
    2447 0001b6 13B0!         CALLA     #__mspabi_mpyd        ; [] |133| 
         0001b8 0000 
    2448                                                      ; [] |133| 
    2449 0001ba 04C8          MOVA      r4,r8                 ; [] |133| 
    2450 0001bc 05C9          MOVA      r5,r9                 ; [] |133| 
    2451 0001be 06CA          MOVA      r6,r10                ; [] |133| 
    2452 0001c0 07CB          MOVA      r7,r11                ; [] |133| 
MSP430 Assembler PC v21.6.1 Tue Dec 20 13:45:56 2022

Copyright (c) 2003-2018 Texas Instruments Incorporated
ADC_Calculations.asm                                                 PAGE   48

    2453            $C$DW$127       .dwtag  DW_TAG_TI_branch
    2454                    .dwattr $C$DW$127, DW_AT_low_pc(0x00)
    2455                    .dwattr $C$DW$127, DW_AT_name("__mspabi_addd")
    2456                    .dwattr $C$DW$127, DW_AT_TI_call
    2457            
    2458 0001c2 13B0!         CALLA     #__mspabi_addd        ; [] |133| 
         0001c4 0000 
    2459                                                      ; [] |133| 
    2460            $C$DW$128       .dwtag  DW_TAG_TI_branch
    2461                    .dwattr $C$DW$128, DW_AT_low_pc(0x00)
    2462                    .dwattr $C$DW$128, DW_AT_name("__mspabi_cvtdf")
    2463                    .dwattr $C$DW$128, DW_AT_TI_call
    2464            
    2465 0001c6 13B0!         CALLA     #__mspabi_cvtdf       ; [] |133| 
         0001c8 0000 
    2466                                                      ; [] |133| 
    2467 0001ca 4C82          MOV.W     r12,&FC_Current+0     ; [] |133| 
         0001cc 0000!
    2468 0001ce 4D82          MOV.W     r13,&FC_Current+2     ; [] |133| 
         0001d0 0002!
    2469                    .dwpsn  file "../src/ADC_Calculations.c",line 139,column 5,is_stmt,isa 0
    2470 0001d2 421C          MOV.W     &ADCSamples+6,r12     ; [] |139| 
         0001d4 0006!
    2471            $C$DW$129       .dwtag  DW_TAG_TI_branch
    2472                    .dwattr $C$DW$129, DW_AT_low_pc(0x00)
    2473                    .dwattr $C$DW$129, DW_AT_name("__mspabi_fltuf")
    2474                    .dwattr $C$DW$129, DW_AT_TI_call
    2475            
    2476 0001d6 13B0!         CALLA     #__mspabi_fltuf       ; [] |139| 
         0001d8 0000 
    2477                                                      ; [] |139| 
    2478 0001da 0CC6          MOVA      r12,r6                ; [] |139| 
    2479 0001dc 0DC7          MOVA      r13,r7                ; [] |139| 
    2480                    .dwpsn  file "../src/ADC_Calculations.c",line 140,column 3,is_stmt,isa 0
    2481 0001de 4682          MOV.W     r6,&airflow+0         ; [] |140| 
         0001e0 0000!
    2482 0001e2 4782          MOV.W     r7,&airflow+2         ; [] |140| 
         0001e4 0002!
    2483                    .dwpsn  file "../src/ADC_Calculations.c",line 144,column 5,is_stmt,isa 0
    2484 0001e6 421C          MOV.W     &ADCSamples+8,r12     ; [] |144| 
         0001e8 0008!
    2485            $C$DW$130       .dwtag  DW_TAG_TI_branch
    2486                    .dwattr $C$DW$130, DW_AT_low_pc(0x00)
    2487                    .dwattr $C$DW$130, DW_AT_name("__mspabi_fltud")
    2488                    .dwattr $C$DW$130, DW_AT_TI_call
    2489            
    2490 0001ea 13B0!         CALLA     #__mspabi_fltud       ; [] |144| 
         0001ec 0000 
    2491                                                      ; [] |144| 
    2492 0001ee 0CC8          MOVA      r12,r8                ; [] |144| 
    2493 0001f0 0DC9          MOVA      r13,r9                ; [] |144| 
    2494 0001f2 0ECA          MOVA      r14,r10               ; [] |144| 
    2495 0001f4 0FCB          MOVA      r15,r11               ; [] |144| 
    2496 0001f6 403C          MOV.W     #40101,r12            ; [] |144| 
         0001f8 9CA5 
MSP430 Assembler PC v21.6.1 Tue Dec 20 13:45:56 2022

Copyright (c) 2003-2018 Texas Instruments Incorporated
ADC_Calculations.asm                                                 PAGE   49

    2497 0001fa 403D          MOV.W     #19189,r13            ; [] |144| 
         0001fc 4AF5 
    2498 0001fe 403E          MOV.W     #19925,r14            ; [] |144| 
         000200 4DD5 
    2499 000202 403F          MOV.W     #16244,r15            ; [] |144| 
         000204 3F74 
    2500            $C$DW$131       .dwtag  DW_TAG_TI_branch
    2501                    .dwattr $C$DW$131, DW_AT_low_pc(0x00)
    2502                    .dwattr $C$DW$131, DW_AT_name("__mspabi_mpyd")
    2503                    .dwattr $C$DW$131, DW_AT_TI_call
    2504            
    2505 000206 13B0!         CALLA     #__mspabi_mpyd        ; [] |144| 
         000208 0000 
    2506                                                      ; [] |144| 
    2507 00020a 0CC8          MOVA      r12,r8                ; [] |144| 
    2508 00020c 0DC9          MOVA      r13,r9                ; [] |144| 
    2509 00020e 0ECA          MOVA      r14,r10               ; [] |144| 
    2510 000210 0FCB          MOVA      r15,r11               ; [] |144| 
    2511 000212 403C          MOV.W     #17881,r12            ; [] |144| 
         000214 45D9 
    2512 000216 403D          MOV.W     #44811,r13            ; [] |144| 
         000218 AF0B 
    2513 00021a 403E          MOV.W     #45480,r14            ; [] |144| 
         00021c B1A8 
    2514 00021e 403F          MOV.W     #16242,r15            ; [] |144| 
         000220 3F72 
    2515            $C$DW$132       .dwtag  DW_TAG_TI_branch
    2516                    .dwattr $C$DW$132, DW_AT_low_pc(0x00)
    2517                    .dwattr $C$DW$132, DW_AT_name("__mspabi_addd")
    2518                    .dwattr $C$DW$132, DW_AT_TI_call
    2519            
    2520 000222 13B0!         CALLA     #__mspabi_addd        ; [] |144| 
         000224 0000 
    2521                                                      ; [] |144| 
    2522            $C$DW$133       .dwtag  DW_TAG_TI_branch
    2523                    .dwattr $C$DW$133, DW_AT_low_pc(0x00)
    2524                    .dwattr $C$DW$133, DW_AT_name("__mspabi_cvtdf")
    2525                    .dwattr $C$DW$133, DW_AT_TI_call
    2526            
    2527 000226 13B0!         CALLA     #__mspabi_cvtdf       ; [] |144| 
         000228 0000 
    2528                                                      ; [] |144| 
    2529 00022a 0CC6          MOVA      r12,r6                ; [] |144| 
    2530 00022c 0DC7          MOVA      r13,r7                ; [] |144| 
    2531                    .dwpsn  file "../src/ADC_Calculations.c",line 145,column 3,is_stmt,isa 0
    2532 00022e 90B2          CMP.W     #6,&mode+0            ; [] |145| 
         000230 0006 
         000232 0000!
    2533 000234 2440          JEQ       $C$L46                ; [] |145| 
    2534                                                      ; [] |145| 
    2535            ;* --------------------------------------------------------------------------*
    2536                    .dwpsn  file "../src/ADC_Calculations.c",line 151,column 4,is_stmt,isa 0
    2537            $C$DW$134       .dwtag  DW_TAG_TI_branch
    2538                    .dwattr $C$DW$134, DW_AT_low_pc(0x00)
    2539                    .dwattr $C$DW$134, DW_AT_name("__mspabi_cvtfd")
MSP430 Assembler PC v21.6.1 Tue Dec 20 13:45:56 2022

Copyright (c) 2003-2018 Texas Instruments Incorporated
ADC_Calculations.asm                                                 PAGE   50

    2540                    .dwattr $C$DW$134, DW_AT_TI_call
    2541            
    2542 000236 13B0!         CALLA     #__mspabi_cvtfd       ; [] |151| 
         000238 0000 
    2543                                                      ; [] |151| 
    2544 00023a 0CC8          MOVA      r12,r8                ; [] |151| 
    2545 00023c 0DC9          MOVA      r13,r9                ; [] |151| 
    2546 00023e 0ECA          MOVA      r14,r10               ; [] |151| 
    2547 000240 0FCB          MOVA      r15,r11               ; [] |151| 
    2548 000242 403C          MOV.W     #39322,r12            ; [] |151| 
         000244 999A 
    2549 000246 403D          MOV.W     #39321,r13            ; [] |151| 
         000248 9999 
    2550 00024a 403E          MOV.W     #39321,r14            ; [] |151| 
         00024c 9999 
    2551 00024e 403F          MOV.W     #16313,r15            ; [] |151| 
         000250 3FB9 
    2552            $C$DW$135       .dwtag  DW_TAG_TI_branch
    2553                    .dwattr $C$DW$135, DW_AT_low_pc(0x00)
    2554                    .dwattr $C$DW$135, DW_AT_name("__mspabi_mpyd")
    2555                    .dwattr $C$DW$135, DW_AT_TI_call
    2556            
    2557 000252 13B0!         CALLA     #__mspabi_mpyd        ; [] |151| 
         000254 0000 
    2558                                                      ; [] |151| 
    2559 000256 0CC4          MOVA      r12,r4                ; [] |151| 
    2560 000258 0DC5          MOVA      r13,r5                ; [] |151| 
    2561 00025a 0EC6          MOVA      r14,r6                ; [] |151| 
    2562 00025c 0FC7          MOVA      r15,r7                ; [] |151| 
    2563 00025e 421C          MOV.W     &Output_volts+0,r12   ; [] |151| 
         000260 0000!
    2564 000262 421D          MOV.W     &Output_volts+2,r13   ; [] |151| 
         000264 0002!
    2565            $C$DW$136       .dwtag  DW_TAG_TI_branch
    2566                    .dwattr $C$DW$136, DW_AT_low_pc(0x00)
    2567                    .dwattr $C$DW$136, DW_AT_name("__mspabi_cvtfd")
    2568                    .dwattr $C$DW$136, DW_AT_TI_call
    2569            
    2570 000266 13B0!         CALLA     #__mspabi_cvtfd       ; [] |151| 
         000268 0000 
    2571                                                      ; [] |151| 
    2572 00026a 0CC8          MOVA      r12,r8                ; [] |151| 
    2573 00026c 0DC9          MOVA      r13,r9                ; [] |151| 
    2574 00026e 0ECA          MOVA      r14,r10               ; [] |151| 
    2575 000270 0FCB          MOVA      r15,r11               ; [] |151| 
    2576 000272 430C          MOV.W     #0,r12                ; [] |151| 
    2577 000274 430D          MOV.W     #0,r13                ; [] |151| 
    2578 000276 430E          MOV.W     #0,r14                ; [] |151| 
    2579 000278 403F          MOV.W     #16418,r15            ; [] |151| 
         00027a 4022 
    2580            $C$DW$137       .dwtag  DW_TAG_TI_branch
    2581                    .dwattr $C$DW$137, DW_AT_low_pc(0x00)
    2582                    .dwattr $C$DW$137, DW_AT_name("__mspabi_mpyd")
    2583                    .dwattr $C$DW$137, DW_AT_TI_call
    2584            
MSP430 Assembler PC v21.6.1 Tue Dec 20 13:45:56 2022

Copyright (c) 2003-2018 Texas Instruments Incorporated
ADC_Calculations.asm                                                 PAGE   51

    2585 00027c 13B0!         CALLA     #__mspabi_mpyd        ; [] |151| 
         00027e 0000 
    2586                                                      ; [] |151| 
    2587 000280 0CC8          MOVA      r12,r8                ; [] |151| 
    2588 000282 0DC9          MOVA      r13,r9                ; [] |151| 
    2589 000284 0ECA          MOVA      r14,r10               ; [] |151| 
    2590 000286 0FCB          MOVA      r15,r11               ; [] |151| 
    2591 000288 403C          MOV.W     #39322,r12            ; [] |151| 
         00028a 999A 
    2592 00028c 403D          MOV.W     #39321,r13            ; [] |151| 
         00028e 9999 
    2593 000290 403E          MOV.W     #39321,r14            ; [] |151| 
         000292 9999 
    2594 000294 403F          MOV.W     #16313,r15            ; [] |151| 
         000296 3FB9 
    2595            $C$DW$138       .dwtag  DW_TAG_TI_branch
    2596                    .dwattr $C$DW$138, DW_AT_low_pc(0x00)
    2597                    .dwattr $C$DW$138, DW_AT_name("__mspabi_mpyd")
    2598                    .dwattr $C$DW$138, DW_AT_TI_call
    2599            
    2600 000298 13B0!         CALLA     #__mspabi_mpyd        ; [] |151| 
         00029a 0000 
    2601                                                      ; [] |151| 
    2602 00029c 04C8          MOVA      r4,r8                 ; [] |151| 
    2603 00029e 05C9          MOVA      r5,r9                 ; [] |151| 
    2604 0002a0 06CA          MOVA      r6,r10                ; [] |151| 
    2605 0002a2 07CB          MOVA      r7,r11                ; [] |151| 
    2606            $C$DW$139       .dwtag  DW_TAG_TI_branch
    2607                    .dwattr $C$DW$139, DW_AT_low_pc(0x00)
    2608                    .dwattr $C$DW$139, DW_AT_name("__mspabi_addd")
    2609                    .dwattr $C$DW$139, DW_AT_TI_call
    2610            
    2611 0002a4 13B0!         CALLA     #__mspabi_addd        ; [] |151| 
         0002a6 0000 
    2612                                                      ; [] |151| 
    2613            $C$DW$140       .dwtag  DW_TAG_TI_branch
    2614                    .dwattr $C$DW$140, DW_AT_low_pc(0x00)
    2615                    .dwattr $C$DW$140, DW_AT_name("__mspabi_cvtdf")
    2616                    .dwattr $C$DW$140, DW_AT_TI_call
    2617            
    2618 0002a8 13B0!         CALLA     #__mspabi_cvtdf       ; [] |151| 
         0002aa 0000 
    2619                                                      ; [] |151| 
    2620 0002ac 4C82          MOV.W     r12,&Output_volts+0   ; [] |151| 
         0002ae 0000!
    2621 0002b0 4D82          MOV.W     r13,&Output_volts+2   ; [] |151| 
         0002b2 0002!
    2622 0002b4 3C04          JMP       $C$L47                ; [] |151| 
    2623                                                      ; [] |151| 
    2624            ;* --------------------------------------------------------------------------*
    2625 0002b6       $C$L46:    
    2626                    .dwpsn  file "../src/ADC_Calculations.c",line 147,column 4,is_stmt,isa 0
    2627 0002b6 4682          MOV.W     r6,&Output_volts+0    ; [] |147| 
         0002b8 0000!
    2628 0002ba 4782          MOV.W     r7,&Output_volts+2    ; [] |147| 
MSP430 Assembler PC v21.6.1 Tue Dec 20 13:45:56 2022

Copyright (c) 2003-2018 Texas Instruments Incorporated
ADC_Calculations.asm                                                 PAGE   52

         0002bc 0002!
    2629            ;* --------------------------------------------------------------------------*
    2630 0002be       $C$L47:    
    2631                    .dwpsn  file "../src/ADC_Calculations.c",line 157,column 5,is_stmt,isa 0
    2632 0002be 421C          MOV.W     &ADCSamples+10,r12    ; [] |157| 
         0002c0 000A!
    2633            $C$DW$141       .dwtag  DW_TAG_TI_branch
    2634                    .dwattr $C$DW$141, DW_AT_low_pc(0x00)
    2635                    .dwattr $C$DW$141, DW_AT_name("__mspabi_fltud")
    2636                    .dwattr $C$DW$141, DW_AT_TI_call
    2637            
    2638 0002c2 13B0!         CALLA     #__mspabi_fltud       ; [] |157| 
         0002c4 0000 
    2639                                                      ; [] |157| 
    2640 0002c6 0CC8          MOVA      r12,r8                ; [] |157| 
    2641 0002c8 0DC9          MOVA      r13,r9                ; [] |157| 
    2642 0002ca 0ECA          MOVA      r14,r10               ; [] |157| 
    2643 0002cc 0FCB          MOVA      r15,r11               ; [] |157| 
    2644 0002ce 403C          MOV.W     #49825,r12            ; [] |157| 
         0002d0 C2A1 
    2645 0002d2 403D          MOV.W     #16682,r13            ; [] |157| 
         0002d4 412A 
    2646 0002d6 403E          MOV.W     #63475,r14            ; [] |157| 
         0002d8 F7F3 
    2647 0002da 403F          MOV.W     #16218,r15            ; [] |157| 
         0002dc 3F5A 
    2648            $C$DW$142       .dwtag  DW_TAG_TI_branch
    2649                    .dwattr $C$DW$142, DW_AT_low_pc(0x00)
    2650                    .dwattr $C$DW$142, DW_AT_name("__mspabi_mpyd")
    2651                    .dwattr $C$DW$142, DW_AT_TI_call
    2652            
    2653 0002de 13B0!         CALLA     #__mspabi_mpyd        ; [] |157| 
         0002e0 0000 
    2654                                                      ; [] |157| 
    2655 0002e2 0CC8          MOVA      r12,r8                ; [] |157| 
    2656 0002e4 0DC9          MOVA      r13,r9                ; [] |157| 
    2657 0002e6 0ECA          MOVA      r14,r10               ; [] |157| 
    2658 0002e8 0FCB          MOVA      r15,r11               ; [] |157| 
    2659 0002ea 403C          MOV.W     #17093,r12            ; [] |157| 
         0002ec 42C5 
    2660 0002ee 403D          MOV.W     #63653,r13            ; [] |157| 
         0002f0 F8A5 
    2661 0002f2 403E          MOV.W     #23189,r14            ; [] |157| 
         0002f4 5A95 
    2662 0002f6 403F          MOV.W     #48993,r15            ; [] |157| 
         0002f8 BF61 
    2663            $C$DW$143       .dwtag  DW_TAG_TI_branch
    2664                    .dwattr $C$DW$143, DW_AT_low_pc(0x00)
    2665                    .dwattr $C$DW$143, DW_AT_name("__mspabi_addd")
    2666                    .dwattr $C$DW$143, DW_AT_TI_call
    2667            
    2668 0002fa 13B0!         CALLA     #__mspabi_addd        ; [] |157| 
         0002fc 0000 
    2669                                                      ; [] |157| 
    2670            $C$DW$144       .dwtag  DW_TAG_TI_branch
MSP430 Assembler PC v21.6.1 Tue Dec 20 13:45:56 2022

Copyright (c) 2003-2018 Texas Instruments Incorporated
ADC_Calculations.asm                                                 PAGE   53

    2671                    .dwattr $C$DW$144, DW_AT_low_pc(0x00)
    2672                    .dwattr $C$DW$144, DW_AT_name("__mspabi_cvtdf")
    2673                    .dwattr $C$DW$144, DW_AT_TI_call
    2674            
    2675 0002fe 13B0!         CALLA     #__mspabi_cvtdf       ; [] |157| 
         000300 0000 
    2676                                                      ; [] |157| 
    2677                    .dwpsn  file "../src/ADC_Calculations.c",line 158,column 3,is_stmt,isa 0
    2678            $C$DW$145       .dwtag  DW_TAG_TI_branch
    2679                    .dwattr $C$DW$145, DW_AT_low_pc(0x00)
    2680                    .dwattr $C$DW$145, DW_AT_name("__mspabi_cvtfd")
    2681                    .dwattr $C$DW$145, DW_AT_TI_call
    2682            
    2683 000302 13B0!         CALLA     #__mspabi_cvtfd       ; [] |158| 
         000304 0000 
    2684                                                      ; [] |158| 
    2685 000306 0CC8          MOVA      r12,r8                ; [] |158| 
    2686 000308 0DC9          MOVA      r13,r9                ; [] |158| 
    2687 00030a 0ECA          MOVA      r14,r10               ; [] |158| 
    2688 00030c 0FCB          MOVA      r15,r11               ; [] |158| 
    2689 00030e 430C          MOV.W     #0,r12                ; [] |158| 
    2690 000310 430D          MOV.W     #0,r13                ; [] |158| 
    2691 000312 430E          MOV.W     #0,r14                ; [] |158| 
    2692 000314 403F          MOV.W     #16336,r15            ; [] |158| 
         000316 3FD0 
    2693            $C$DW$146       .dwtag  DW_TAG_TI_branch
    2694                    .dwattr $C$DW$146, DW_AT_low_pc(0x00)
    2695                    .dwattr $C$DW$146, DW_AT_name("__mspabi_mpyd")
    2696                    .dwattr $C$DW$146, DW_AT_TI_call
    2697            
    2698 000318 13B0!         CALLA     #__mspabi_mpyd        ; [] |158| 
         00031a 0000 
    2699                                                      ; [] |158| 
    2700 00031c 0CC4          MOVA      r12,r4                ; [] |158| 
    2701 00031e 0DC5          MOVA      r13,r5                ; [] |158| 
    2702 000320 0EC6          MOVA      r14,r6                ; [] |158| 
    2703 000322 0FC7          MOVA      r15,r7                ; [] |158| 
    2704 000324 421C          MOV.W     &Load_Current+0,r12   ; [] |158| 
         000326 0000!
    2705 000328 421D          MOV.W     &Load_Current+2,r13   ; [] |158| 
         00032a 0002!
    2706            $C$DW$147       .dwtag  DW_TAG_TI_branch
    2707                    .dwattr $C$DW$147, DW_AT_low_pc(0x00)
    2708                    .dwattr $C$DW$147, DW_AT_name("__mspabi_cvtfd")
    2709                    .dwattr $C$DW$147, DW_AT_TI_call
    2710            
    2711 00032c 13B0!         CALLA     #__mspabi_cvtfd       ; [] |158| 
         00032e 0000 
    2712                                                      ; [] |158| 
    2713 000330 0CC8          MOVA      r12,r8                ; [] |158| 
    2714 000332 0DC9          MOVA      r13,r9                ; [] |158| 
    2715 000334 0ECA          MOVA      r14,r10               ; [] |158| 
    2716 000336 0FCB          MOVA      r15,r11               ; [] |158| 
    2717            ;* --------------------------------------------------------------------------*
    2718 000338 430C          MOV.W     #0,r12                ; [] |158| 
MSP430 Assembler PC v21.6.1 Tue Dec 20 13:45:56 2022

Copyright (c) 2003-2018 Texas Instruments Incorporated
ADC_Calculations.asm                                                 PAGE   54

    2719 00033a 430D          MOV.W     #0,r13                ; [] |158| 
    2720 00033c 430E          MOV.W     #0,r14                ; [] |158| 
    2721 00033e 403F          MOV.W     #16392,r15            ; [] |158| 
         000340 4008 
    2722            $C$DW$148       .dwtag  DW_TAG_TI_branch
    2723                    .dwattr $C$DW$148, DW_AT_low_pc(0x00)
    2724                    .dwattr $C$DW$148, DW_AT_name("__mspabi_mpyd")
    2725                    .dwattr $C$DW$148, DW_AT_TI_call
    2726            
    2727 000342 13B0!         CALLA     #__mspabi_mpyd        ; [] |158| 
         000344 0000 
    2728                                                      ; [] |158| 
    2729 000346 0CC8          MOVA      r12,r8                ; [] |158| 
    2730 000348 0DC9          MOVA      r13,r9                ; [] |158| 
    2731 00034a 0ECA          MOVA      r14,r10               ; [] |158| 
    2732 00034c 0FCB          MOVA      r15,r11               ; [] |158| 
    2733 00034e 430C          MOV.W     #0,r12                ; [] |158| 
    2734 000350 430D          MOV.W     #0,r13                ; [] |158| 
    2735 000352 430E          MOV.W     #0,r14                ; [] |158| 
    2736 000354 403F          MOV.W     #16336,r15            ; [] |158| 
         000356 3FD0 
    2737            $C$DW$149       .dwtag  DW_TAG_TI_branch
    2738                    .dwattr $C$DW$149, DW_AT_low_pc(0x00)
    2739                    .dwattr $C$DW$149, DW_AT_name("__mspabi_mpyd")
    2740                    .dwattr $C$DW$149, DW_AT_TI_call
    2741            
    2742 000358 13B0!         CALLA     #__mspabi_mpyd        ; [] |158| 
         00035a 0000 
    2743                                                      ; [] |158| 
    2744 00035c 04C8          MOVA      r4,r8                 ; [] |158| 
    2745 00035e 05C9          MOVA      r5,r9                 ; [] |158| 
    2746 000360 06CA          MOVA      r6,r10                ; [] |158| 
    2747 000362 07CB          MOVA      r7,r11                ; [] |158| 
    2748            $C$DW$150       .dwtag  DW_TAG_TI_branch
    2749                    .dwattr $C$DW$150, DW_AT_low_pc(0x00)
    2750                    .dwattr $C$DW$150, DW_AT_name("__mspabi_addd")
    2751                    .dwattr $C$DW$150, DW_AT_TI_call
    2752            
    2753 000364 13B0!         CALLA     #__mspabi_addd        ; [] |158| 
         000366 0000 
    2754                                                      ; [] |158| 
    2755            $C$DW$151       .dwtag  DW_TAG_TI_branch
    2756                    .dwattr $C$DW$151, DW_AT_low_pc(0x00)
    2757                    .dwattr $C$DW$151, DW_AT_name("__mspabi_cvtdf")
    2758                    .dwattr $C$DW$151, DW_AT_TI_call
    2759            
    2760 000368 13B0!         CALLA     #__mspabi_cvtdf       ; [] |158| 
         00036a 0000 
    2761                                                      ; [] |158| 
    2762 00036c 4C82          MOV.W     r12,&Load_Current+0   ; [] |158| 
         00036e 0000!
    2763 000370 4D82          MOV.W     r13,&Load_Current+2   ; [] |158| 
         000372 0002!
    2764                    .dwpsn  file "../src/ADC_Calculations.c",line 162,column 5,is_stmt,isa 0
    2765 000374 421C          MOV.W     &ADCSamples+12,r12    ; [] |162| 
MSP430 Assembler PC v21.6.1 Tue Dec 20 13:45:56 2022

Copyright (c) 2003-2018 Texas Instruments Incorporated
ADC_Calculations.asm                                                 PAGE   55

         000376 000C!
    2766            $C$DW$152       .dwtag  DW_TAG_TI_branch
    2767                    .dwattr $C$DW$152, DW_AT_low_pc(0x00)
    2768                    .dwattr $C$DW$152, DW_AT_name("__mspabi_fltud")
    2769                    .dwattr $C$DW$152, DW_AT_TI_call
    2770            
    2771 000378 13B0!         CALLA     #__mspabi_fltud       ; [] |162| 
         00037a 0000 
    2772                                                      ; [] |162| 
    2773 00037c 0CC8          MOVA      r12,r8                ; [] |162| 
    2774 00037e 0DC9          MOVA      r13,r9                ; [] |162| 
    2775 000380 0ECA          MOVA      r14,r10               ; [] |162| 
    2776 000382 0FCB          MOVA      r15,r11               ; [] |162| 
    2777 000384 403C          MOV.W     #34689,r12            ; [] |162| 
         000386 8781 
    2778 000388 403D          MOV.W     #42295,r13            ; [] |162| 
         00038a A537 
    2779 00038c 403E          MOV.W     #18587,r14            ; [] |162| 
         00038e 489B 
    2780 000390 403F          MOV.W     #16319,r15            ; [] |162| 
         000392 3FBF 
    2781            $C$DW$153       .dwtag  DW_TAG_TI_branch
    2782                    .dwattr $C$DW$153, DW_AT_low_pc(0x00)
    2783                    .dwattr $C$DW$153, DW_AT_name("__mspabi_mpyd")
    2784                    .dwattr $C$DW$153, DW_AT_TI_call
    2785            
    2786 000394 13B0!         CALLA     #__mspabi_mpyd        ; [] |162| 
         000396 0000 
    2787                                                      ; [] |162| 
    2788 000398 0CC8          MOVA      r12,r8                ; [] |162| 
    2789 00039a 0DC9          MOVA      r13,r9                ; [] |162| 
    2790 00039c 0ECA          MOVA      r14,r10               ; [] |162| 
    2791 00039e 0FCB          MOVA      r15,r11               ; [] |162| 
    2792 0003a0 403C          MOV.W     #7418,r12             ; [] |162| 
         0003a2 1CFA 
    2793 0003a4 403D          MOV.W     #51338,r13            ; [] |162| 
         0003a6 C88A 
    2794 0003a8 403E          MOV.W     #51409,r14            ; [] |162| 
         0003aa C8D1 
    2795 0003ac 403F          MOV.W     #49145,r15            ; [] |162| 
         0003ae BFF9 
    2796            $C$DW$154       .dwtag  DW_TAG_TI_branch
    2797                    .dwattr $C$DW$154, DW_AT_low_pc(0x00)
    2798                    .dwattr $C$DW$154, DW_AT_name("__mspabi_addd")
    2799                    .dwattr $C$DW$154, DW_AT_TI_call
    2800            
    2801 0003b0 13B0!         CALLA     #__mspabi_addd        ; [] |162| 
         0003b2 0000 
    2802                                                      ; [] |162| 
    2803            $C$DW$155       .dwtag  DW_TAG_TI_branch
    2804                    .dwattr $C$DW$155, DW_AT_low_pc(0x00)
    2805                    .dwattr $C$DW$155, DW_AT_name("__mspabi_cvtdf")
    2806                    .dwattr $C$DW$155, DW_AT_TI_call
    2807            
    2808 0003b4 13B0!         CALLA     #__mspabi_cvtdf       ; [] |162| 
MSP430 Assembler PC v21.6.1 Tue Dec 20 13:45:56 2022

Copyright (c) 2003-2018 Texas Instruments Incorporated
ADC_Calculations.asm                                                 PAGE   56

         0003b6 0000 
    2809                                                      ; [] |162| 
    2810 0003b8 0CC6          MOVA      r12,r6                ; [] |162| 
    2811 0003ba 0DC7          MOVA      r13,r7                ; [] |162| 
    2812                    .dwpsn  file "../src/ADC_Calculations.c",line 164,column 3,is_stmt,isa 0
    2813 0003bc 430E          MOV.W     #0,r14                ; [] |164| 
    2814 0003be 430F          MOV.W     #0,r15                ; [] |164| 
    2815            $C$DW$156       .dwtag  DW_TAG_TI_branch
    2816                    .dwattr $C$DW$156, DW_AT_low_pc(0x00)
    2817                    .dwattr $C$DW$156, DW_AT_name("__mspabi_cmpf")
    2818                    .dwattr $C$DW$156, DW_AT_TI_call
    2819            
    2820 0003c0 13B0!         CALLA     #__mspabi_cmpf        ; [] |164| 
         0003c2 0000 
    2821                                                      ; [] |164| 
    2822 0003c4 930C          TST.W     r12                   ; [] |164| 
    2823 0003c6 3402          JGE       $C$L48                ; [] |164| 
    2824                                                      ; [] |164| 
    2825            ;* --------------------------------------------------------------------------*
    2826                    .dwpsn  file "../src/ADC_Calculations.c",line 164,column 14,is_stmt,isa 0
    2827 0003c8 4306          MOV.W     #0,r6                 ; [] |164| 
    2828 0003ca 4307          MOV.W     #0,r7                 ; [] |164| 
    2829            ;* --------------------------------------------------------------------------*
    2830 0003cc       $C$L48:    
    2831                    .dwpsn  file "../src/ADC_Calculations.c",line 166,column 3,is_stmt,isa 0
    2832 0003cc 421C          MOV.W     &TC1_temp+0,r12       ; [] |166| 
         0003ce 0000!
    2833 0003d0 421D          MOV.W     &TC1_temp+2,r13       ; [] |166| 
         0003d2 0002!
    2834            $C$DW$157       .dwtag  DW_TAG_TI_branch
    2835                    .dwattr $C$DW$157, DW_AT_low_pc(0x00)
    2836                    .dwattr $C$DW$157, DW_AT_name("__mspabi_cvtfd")
    2837                    .dwattr $C$DW$157, DW_AT_TI_call
    2838            
    2839 0003d4 13B0!         CALLA     #__mspabi_cvtfd       ; [] |166| 
         0003d6 0000 
    2840                                                      ; [] |166| 
    2841 0003d8 0CC8          MOVA      r12,r8                ; [] |166| 
    2842 0003da 0DC9          MOVA      r13,r9                ; [] |166| 
    2843 0003dc 0ECA          MOVA      r14,r10               ; [] |166| 
    2844 0003de 0FCB          MOVA      r15,r11               ; [] |166| 
    2845 0003e0 430C          MOV.W     #0,r12                ; [] |166| 
    2846 0003e2 430D          MOV.W     #0,r13                ; [] |166| 
    2847 0003e4 403E          MOV.W     #32768,r14            ; [] |166| 
         0003e6 8000 
    2848 0003e8 403F          MOV.W     #16456,r15            ; [] |166| 
         0003ea 4048 
    2849            $C$DW$158       .dwtag  DW_TAG_TI_branch
    2850                    .dwattr $C$DW$158, DW_AT_low_pc(0x00)
    2851                    .dwattr $C$DW$158, DW_AT_name("__mspabi_mpyd")
    2852                    .dwattr $C$DW$158, DW_AT_TI_call
    2853            
    2854 0003ec 13B0!         CALLA     #__mspabi_mpyd        ; [] |166| 
         0003ee 0000 
    2855                                                      ; [] |166| 
MSP430 Assembler PC v21.6.1 Tue Dec 20 13:45:56 2022

Copyright (c) 2003-2018 Texas Instruments Incorporated
ADC_Calculations.asm                                                 PAGE   57

    2856 0003f0 0CC8          MOVA      r12,r8                ; [] |166| 
    2857 0003f2 0DC9          MOVA      r13,r9                ; [] |166| 
    2858 0003f4 0ECA          MOVA      r14,r10               ; [] |166| 
    2859 0003f6 0FCB          MOVA      r15,r11               ; [] |166| 
    2860 0003f8 430C          MOV.W     #0,r12                ; [] |166| 
    2861 0003fa 430D          MOV.W     #0,r13                ; [] |166| 
    2862 0003fc 430E          MOV.W     #0,r14                ; [] |166| 
    2863 0003fe 403F          MOV.W     #16457,r15            ; [] |166| 
         000400 4049 
    2864            $C$DW$159       .dwtag  DW_TAG_TI_branch
    2865                    .dwattr $C$DW$159, DW_AT_low_pc(0x00)
    2866                    .dwattr $C$DW$159, DW_AT_name("__mspabi_divd")
    2867                    .dwattr $C$DW$159, DW_AT_TI_call
    2868            
    2869 000402 13B0!         CALLA     #__mspabi_divd        ; [] |166| 
         000404 0000 
    2870                                                      ; [] |166| 
    2871 000406 0CC8          MOVA      r12,r8                ; [] |166| 
    2872 000408 0DC9          MOVA      r13,r9                ; [] |166| 
    2873 00040a 0ECA          MOVA      r14,r10               ; [] |166| 
    2874 00040c 0FC5          MOVA      r15,r5                ; [] |166| 
    2875 00040e 06CC          MOVA      r6,r12                ; [] |166| 
    2876 000410 07CD          MOVA      r7,r13                ; [] |166| 
    2877 000412 430E          MOV.W     #0,r14                ; [] |166| 
    2878 000414 403F          MOV.W     #16968,r15            ; [] |166| 
         000416 4248 
    2879            $C$DW$160       .dwtag  DW_TAG_TI_branch
    2880                    .dwattr $C$DW$160, DW_AT_low_pc(0x00)
    2881                    .dwattr $C$DW$160, DW_AT_name("__mspabi_divf")
    2882                    .dwattr $C$DW$160, DW_AT_TI_call
    2883            
    2884 000418 13B0!         CALLA     #__mspabi_divf        ; [] |166| 
         00041a 0000 
    2885                                                      ; [] |166| 
    2886            $C$DW$161       .dwtag  DW_TAG_TI_branch
    2887                    .dwattr $C$DW$161, DW_AT_low_pc(0x00)
    2888                    .dwattr $C$DW$161, DW_AT_name("__mspabi_cvtfd")
    2889                    .dwattr $C$DW$161, DW_AT_TI_call
    2890            
    2891 00041c 13B0!         CALLA     #__mspabi_cvtfd       ; [] |166| 
         00041e 0000 
    2892                                                      ; [] |166| 
    2893 000420 05CB          MOVA      r5,r11                ; [] |166| 
    2894            $C$DW$162       .dwtag  DW_TAG_TI_branch
    2895                    .dwattr $C$DW$162, DW_AT_low_pc(0x00)
    2896                    .dwattr $C$DW$162, DW_AT_name("__mspabi_addd")
    2897                    .dwattr $C$DW$162, DW_AT_TI_call
    2898            
    2899 000422 13B0!         CALLA     #__mspabi_addd        ; [] |166| 
         000424 0000 
    2900                                                      ; [] |166| 
    2901            $C$DW$163       .dwtag  DW_TAG_TI_branch
    2902                    .dwattr $C$DW$163, DW_AT_low_pc(0x00)
    2903                    .dwattr $C$DW$163, DW_AT_name("__mspabi_cvtdf")
    2904                    .dwattr $C$DW$163, DW_AT_TI_call
MSP430 Assembler PC v21.6.1 Tue Dec 20 13:45:56 2022

Copyright (c) 2003-2018 Texas Instruments Incorporated
ADC_Calculations.asm                                                 PAGE   58

    2905            
    2906 000426 13B0!         CALLA     #__mspabi_cvtdf       ; [] |166| 
         000428 0000 
    2907                                                      ; [] |166| 
    2908 00042a 4C82          MOV.W     r12,&TC1_temp+0       ; [] |166| 
         00042c 0000!
    2909 00042e 4D82          MOV.W     r13,&TC1_temp+2       ; [] |166| 
         000430 0002!
    2910                    .dwpsn  file "../src/ADC_Calculations.c",line 168,column 1,is_stmt,isa 0
    2911 000432 93C2          TST.B     &PCB_Calibration_GUI+0 ; [] |168| 
         000434 0000!
    2912 000436 2405          JEQ       $C$L49                ; [] |168| 
    2913                                                      ; [] |168| 
    2914            ;* --------------------------------------------------------------------------*
    2915                    .dwpsn  file "../src/ADC_Calculations.c",line 168,column 25,is_stmt,isa 0
    2916 000438 4382          MOV.W     #0,&TC1_temp+0        ; [] |168| 
         00043a 0000!
    2917 00043c 40B2          MOV.W     #17174,&TC1_temp+2    ; [] |168| 
         00043e 4316 
         000440 0002!
    2918            ;* --------------------------------------------------------------------------*
    2919 000442       $C$L49:    
    2920                    .dwpsn  file "../src/ADC_Calculations.c",line 170,column 3,is_stmt,isa 0
    2921 000442 421C          MOV.W     &TC1_temp+0,r12       ; [] |170| 
         000444 0000!
    2922 000446 421D          MOV.W     &TC1_temp+2,r13       ; [] |170| 
         000448 0002!
    2923 00044a 430E          MOV.W     #0,r14                ; [] |170| 
    2924 00044c 430F          MOV.W     #0,r15                ; [] |170| 
    2925            $C$DW$164       .dwtag  DW_TAG_TI_branch
    2926                    .dwattr $C$DW$164, DW_AT_low_pc(0x00)
    2927                    .dwattr $C$DW$164, DW_AT_name("__mspabi_cmpf")
    2928                    .dwattr $C$DW$164, DW_AT_TI_call
    2929            
    2930 00044e 13B0!         CALLA     #__mspabi_cmpf        ; [] |170| 
         000450 0000 
    2931                                                      ; [] |170| 
    2932 000452 930C          TST.W     r12                   ; [] |170| 
    2933 000454 3404          JGE       $C$L50                ; [] |170| 
    2934                                                      ; [] |170| 
    2935            ;* --------------------------------------------------------------------------*
    2936                    .dwpsn  file "../src/ADC_Calculations.c",line 170,column 23,is_stmt,isa 0
    2937 000456 4382          MOV.W     #0,&TC1_temp+0        ; [] |170| 
         000458 0000!
    2938 00045a 4382          MOV.W     #0,&TC1_temp+2        ; [] |170| 
         00045c 0002!
    2939            ;* --------------------------------------------------------------------------*
    2940 00045e       $C$L50:    
    2941                    .dwpsn  file "../src/ADC_Calculations.c",line 173,column 5,is_stmt,isa 0
    2942 00045e 421C          MOV.W     &ADCSamples+14,r12    ; [] |173| 
         000460 000E!
    2943            $C$DW$165       .dwtag  DW_TAG_TI_branch
    2944                    .dwattr $C$DW$165, DW_AT_low_pc(0x00)
    2945                    .dwattr $C$DW$165, DW_AT_name("__mspabi_fltud")
    2946                    .dwattr $C$DW$165, DW_AT_TI_call
MSP430 Assembler PC v21.6.1 Tue Dec 20 13:45:56 2022

Copyright (c) 2003-2018 Texas Instruments Incorporated
ADC_Calculations.asm                                                 PAGE   59

    2947            
    2948 000462 13B0!         CALLA     #__mspabi_fltud       ; [] |173| 
         000464 0000 
    2949                                                      ; [] |173| 
    2950 000466 0CC8          MOVA      r12,r8                ; [] |173| 
    2951 000468 0DC9          MOVA      r13,r9                ; [] |173| 
    2952 00046a 0ECA          MOVA      r14,r10               ; [] |173| 
    2953 00046c 0FCB          MOVA      r15,r11               ; [] |173| 
    2954 00046e 403C          MOV.W     #18048,r12            ; [] |173| 
         000470 4680 
    2955 000472 403D          MOV.W     #53993,r13            ; [] |173| 
         000474 D2E9 
    2956 000476 403E          MOV.W     #9407,r14             ; [] |173| 
         000478 24BF 
    2957 00047a 403F          MOV.W     #16319,r15            ; [] |173| 
         00047c 3FBF 
    2958            $C$DW$166       .dwtag  DW_TAG_TI_branch
    2959                    .dwattr $C$DW$166, DW_AT_low_pc(0x00)
    2960                    .dwattr $C$DW$166, DW_AT_name("__mspabi_mpyd")
    2961                    .dwattr $C$DW$166, DW_AT_TI_call
    2962            
    2963 00047e 13B0!         CALLA     #__mspabi_mpyd        ; [] |173| 
         000480 0000 
    2964                                                      ; [] |173| 
    2965 000482 0CC8          MOVA      r12,r8                ; [] |173| 
    2966 000484 0DC9          MOVA      r13,r9                ; [] |173| 
    2967 000486 0ECA          MOVA      r14,r10               ; [] |173| 
    2968 000488 0FCB          MOVA      r15,r11               ; [] |173| 
    2969 00048a 430C          MOV.W     #0,r12                ; [] |173| 
    2970 00048c 430D          MOV.W     #0,r13                ; [] |173| 
    2971 00048e 430E          MOV.W     #0,r14                ; [] |173| 
    2972 000490 430F          MOV.W     #0,r15                ; [] |173| 
    2973            $C$DW$167       .dwtag  DW_TAG_TI_branch
    2974                    .dwattr $C$DW$167, DW_AT_low_pc(0x00)
    2975                    .dwattr $C$DW$167, DW_AT_name("__mspabi_addd")
    2976                    .dwattr $C$DW$167, DW_AT_TI_call
    2977            
    2978 000492 13B0!         CALLA     #__mspabi_addd        ; [] |173| 
         000494 0000 
    2979                                                      ; [] |173| 
    2980            $C$DW$168       .dwtag  DW_TAG_TI_branch
    2981                    .dwattr $C$DW$168, DW_AT_low_pc(0x00)
    2982                    .dwattr $C$DW$168, DW_AT_name("__mspabi_cvtdf")
    2983                    .dwattr $C$DW$168, DW_AT_TI_call
    2984            
    2985 000496 13B0!         CALLA     #__mspabi_cvtdf       ; [] |173| 
         000498 0000 
    2986                                                      ; [] |173| 
    2987 00049a 0CC6          MOVA      r12,r6                ; [] |173| 
    2988 00049c 0DC7          MOVA      r13,r7                ; [] |173| 
    2989                    .dwpsn  file "../src/ADC_Calculations.c",line 174,column 3,is_stmt,isa 0
    2990 00049e 430C          MOV.W     #0,r12                ; [] |174| 
    2991 0004a0 403D          MOV.W     #17276,r13            ; [] |174| 
         0004a2 437C 
    2992 0004a4 06CE          MOVA      r6,r14                ; [] |174| 
MSP430 Assembler PC v21.6.1 Tue Dec 20 13:45:56 2022

Copyright (c) 2003-2018 Texas Instruments Incorporated
ADC_Calculations.asm                                                 PAGE   60

    2993 0004a6 07CF          MOVA      r7,r15                ; [] |174| 
    2994            $C$DW$169       .dwtag  DW_TAG_TI_branch
    2995                    .dwattr $C$DW$169, DW_AT_low_pc(0x00)
    2996                    .dwattr $C$DW$169, DW_AT_name("__mspabi_cmpf")
    2997                    .dwattr $C$DW$169, DW_AT_TI_call
    2998            
    2999 0004a8 13B0!         CALLA     #__mspabi_cmpf        ; [] |174| 
         0004aa 0000 
    3000                                                      ; [] |174| 
    3001 0004ac 930C          TST.W     r12                   ; [] |174| 
    3002 0004ae 341F          JGE       $C$L51                ; [] |174| 
    3003                                                      ; [] |174| 
    3004            ;* --------------------------------------------------------------------------*
    3005                    .dwpsn  file "../src/ADC_Calculations.c",line 174,column 21,is_stmt,isa 0
    3006 0004b0 06CC          MOVA      r6,r12                ; [] |174| 
    3007 0004b2 07CD          MOVA      r7,r13                ; [] |174| 
    3008            $C$DW$170       .dwtag  DW_TAG_TI_branch
    3009                    .dwattr $C$DW$170, DW_AT_low_pc(0x00)
    3010                    .dwattr $C$DW$170, DW_AT_name("__mspabi_cvtfd")
    3011                    .dwattr $C$DW$170, DW_AT_TI_call
    3012            
    3013 0004b4 13B0!         CALLA     #__mspabi_cvtfd       ; [] |174| 
         0004b6 0000 
    3014                                                      ; [] |174| 
    3015 0004b8 0CC8          MOVA      r12,r8                ; [] |174| 
    3016 0004ba 0DC9          MOVA      r13,r9                ; [] |174| 
    3017 0004bc 0ECA          MOVA      r14,r10               ; [] |174| 
    3018 0004be 0FCB          MOVA      r15,r11               ; [] |174| 
    3019 0004c0 430C          MOV.W     #0,r12                ; [] |174| 
    3020 0004c2 430D          MOV.W     #0,r13                ; [] |174| 
    3021 0004c4 430E          MOV.W     #0,r14                ; [] |174| 
    3022 0004c6 403F          MOV.W     #16372,r15            ; [] |174| 
         0004c8 3FF4 
    3023            $C$DW$171       .dwtag  DW_TAG_TI_branch
    3024                    .dwattr $C$DW$171, DW_AT_low_pc(0x00)
    3025                    .dwattr $C$DW$171, DW_AT_name("__mspabi_mpyd")
    3026                    .dwattr $C$DW$171, DW_AT_TI_call
    3027            
    3028 0004ca 13B0!         CALLA     #__mspabi_mpyd        ; [] |174| 
         0004cc 0000 
    3029                                                      ; [] |174| 
    3030 0004ce 0CC8          MOVA      r12,r8                ; [] |174| 
    3031 0004d0 0DC9          MOVA      r13,r9                ; [] |174| 
    3032 0004d2 0ECA          MOVA      r14,r10               ; [] |174| 
    3033 0004d4 0FCB          MOVA      r15,r11               ; [] |174| 
    3034 0004d6 430C          MOV.W     #0,r12                ; [] |174| 
    3035 0004d8 430D          MOV.W     #0,r13                ; [] |174| 
    3036 0004da 403E          MOV.W     #32768,r14            ; [] |174| 
         0004dc 8000 
    3037 0004de 403F          MOV.W     #16463,r15            ; [] |174| 
         0004e0 404F 
    3038            $C$DW$172       .dwtag  DW_TAG_TI_branch
    3039                    .dwattr $C$DW$172, DW_AT_low_pc(0x00)
    3040                    .dwattr $C$DW$172, DW_AT_name("__mspabi_subd")
    3041                    .dwattr $C$DW$172, DW_AT_TI_call
MSP430 Assembler PC v21.6.1 Tue Dec 20 13:45:56 2022

Copyright (c) 2003-2018 Texas Instruments Incorporated
ADC_Calculations.asm                                                 PAGE   61

    3042            
    3043 0004e2 13B0!         CALLA     #__mspabi_subd        ; [] |174| 
         0004e4 0000 
    3044                                                      ; [] |174| 
    3045            $C$DW$173       .dwtag  DW_TAG_TI_branch
    3046                    .dwattr $C$DW$173, DW_AT_low_pc(0x00)
    3047                    .dwattr $C$DW$173, DW_AT_name("__mspabi_cvtdf")
    3048                    .dwattr $C$DW$173, DW_AT_TI_call
    3049            
    3050 0004e6 13B0!         CALLA     #__mspabi_cvtdf       ; [] |174| 
         0004e8 0000 
    3051                                                      ; [] |174| 
    3052 0004ea 0CC6          MOVA      r12,r6                ; [] |174| 
    3053 0004ec 0DC7          MOVA      r13,r7                ; [] |174| 
    3054            ;* --------------------------------------------------------------------------*
    3055 0004ee       $C$L51:    
    3056                    .dwpsn  file "../src/ADC_Calculations.c",line 176,column 3,is_stmt,isa 0
    3057 0004ee 06CC          MOVA      r6,r12                ; [] |176| 
    3058 0004f0 07CD          MOVA      r7,r13                ; [] |176| 
    3059 0004f2 430E          MOV.W     #0,r14                ; [] |176| 
    3060 0004f4 430F          MOV.W     #0,r15                ; [] |176| 
    3061            $C$DW$174       .dwtag  DW_TAG_TI_branch
    3062                    .dwattr $C$DW$174, DW_AT_low_pc(0x00)
    3063                    .dwattr $C$DW$174, DW_AT_name("__mspabi_cmpf")
    3064                    .dwattr $C$DW$174, DW_AT_TI_call
    3065            
    3066 0004f6 13B0!         CALLA     #__mspabi_cmpf        ; [] |176| 
         0004f8 0000 
    3067                                                      ; [] |176| 
    3068 0004fa 930C          TST.W     r12                   ; [] |176| 
    3069 0004fc 3402          JGE       $C$L52                ; [] |176| 
    3070                                                      ; [] |176| 
    3071            ;* --------------------------------------------------------------------------*
    3072                    .dwpsn  file "../src/ADC_Calculations.c",line 176,column 14,is_stmt,isa 0
    3073 0004fe 4306          MOV.W     #0,r6                 ; [] |176| 
    3074 000500 4307          MOV.W     #0,r7                 ; [] |176| 
    3075            ;* --------------------------------------------------------------------------*
    3076 000502       $C$L52:    
    3077                    .dwpsn  file "../src/ADC_Calculations.c",line 178,column 3,is_stmt,isa 0
    3078 000502 421C          MOV.W     &TC2_temp+0,r12       ; [] |178| 
         000504 0000!
    3079 000506 421D          MOV.W     &TC2_temp+2,r13       ; [] |178| 
         000508 0002!
    3080            $C$DW$175       .dwtag  DW_TAG_TI_branch
    3081                    .dwattr $C$DW$175, DW_AT_low_pc(0x00)
    3082                    .dwattr $C$DW$175, DW_AT_name("__mspabi_cvtfd")
    3083                    .dwattr $C$DW$175, DW_AT_TI_call
    3084            
    3085 00050a 13B0!         CALLA     #__mspabi_cvtfd       ; [] |178| 
         00050c 0000 
    3086                                                      ; [] |178| 
    3087 00050e 0CC8          MOVA      r12,r8                ; [] |178| 
    3088 000510 0DC9          MOVA      r13,r9                ; [] |178| 
    3089 000512 0ECA          MOVA      r14,r10               ; [] |178| 
    3090 000514 0FCB          MOVA      r15,r11               ; [] |178| 
MSP430 Assembler PC v21.6.1 Tue Dec 20 13:45:56 2022

Copyright (c) 2003-2018 Texas Instruments Incorporated
ADC_Calculations.asm                                                 PAGE   62

    3091 000516 430C          MOV.W     #0,r12                ; [] |178| 
    3092 000518 430D          MOV.W     #0,r13                ; [] |178| 
    3093 00051a 403E          MOV.W     #32768,r14            ; [] |178| 
         00051c 8000 
    3094 00051e 403F          MOV.W     #16456,r15            ; [] |178| 
         000520 4048 
    3095            $C$DW$176       .dwtag  DW_TAG_TI_branch
    3096                    .dwattr $C$DW$176, DW_AT_low_pc(0x00)
    3097                    .dwattr $C$DW$176, DW_AT_name("__mspabi_mpyd")
    3098                    .dwattr $C$DW$176, DW_AT_TI_call
    3099            
    3100 000522 13B0!         CALLA     #__mspabi_mpyd        ; [] |178| 
         000524 0000 
    3101                                                      ; [] |178| 
    3102 000526 0CC8          MOVA      r12,r8                ; [] |178| 
    3103 000528 0DC9          MOVA      r13,r9                ; [] |178| 
    3104 00052a 0ECA          MOVA      r14,r10               ; [] |178| 
    3105 00052c 0FCB          MOVA      r15,r11               ; [] |178| 
    3106 00052e 430C          MOV.W     #0,r12                ; [] |178| 
    3107 000530 430D          MOV.W     #0,r13                ; [] |178| 
    3108 000532 430E          MOV.W     #0,r14                ; [] |178| 
    3109 000534 403F          MOV.W     #16457,r15            ; [] |178| 
         000536 4049 
    3110            $C$DW$177       .dwtag  DW_TAG_TI_branch
    3111                    .dwattr $C$DW$177, DW_AT_low_pc(0x00)
    3112                    .dwattr $C$DW$177, DW_AT_name("__mspabi_divd")
    3113                    .dwattr $C$DW$177, DW_AT_TI_call
    3114            
    3115 000538 13B0!         CALLA     #__mspabi_divd        ; [] |178| 
         00053a 0000 
    3116                                                      ; [] |178| 
    3117 00053c 0CC8          MOVA      r12,r8                ; [] |178| 
    3118 00053e 0DC9          MOVA      r13,r9                ; [] |178| 
    3119 000540 0ECA          MOVA      r14,r10               ; [] |178| 
    3120 000542 0FC5          MOVA      r15,r5                ; [] |178| 
    3121 000544 06CC          MOVA      r6,r12                ; [] |178| 
    3122 000546 07CD          MOVA      r7,r13                ; [] |178| 
    3123 000548 430E          MOV.W     #0,r14                ; [] |178| 
    3124 00054a 403F          MOV.W     #16968,r15            ; [] |178| 
         00054c 4248 
    3125            $C$DW$178       .dwtag  DW_TAG_TI_branch
    3126                    .dwattr $C$DW$178, DW_AT_low_pc(0x00)
    3127                    .dwattr $C$DW$178, DW_AT_name("__mspabi_divf")
    3128                    .dwattr $C$DW$178, DW_AT_TI_call
    3129            
    3130 00054e 13B0!         CALLA     #__mspabi_divf        ; [] |178| 
         000550 0000 
    3131                                                      ; [] |178| 
    3132            $C$DW$179       .dwtag  DW_TAG_TI_branch
    3133                    .dwattr $C$DW$179, DW_AT_low_pc(0x00)
    3134                    .dwattr $C$DW$179, DW_AT_name("__mspabi_cvtfd")
    3135                    .dwattr $C$DW$179, DW_AT_TI_call
    3136            
    3137 000552 13B0!         CALLA     #__mspabi_cvtfd       ; [] |178| 
         000554 0000 
MSP430 Assembler PC v21.6.1 Tue Dec 20 13:45:56 2022

Copyright (c) 2003-2018 Texas Instruments Incorporated
ADC_Calculations.asm                                                 PAGE   63

    3138                                                      ; [] |178| 
    3139 000556 05CB          MOVA      r5,r11                ; [] |178| 
    3140            $C$DW$180       .dwtag  DW_TAG_TI_branch
    3141                    .dwattr $C$DW$180, DW_AT_low_pc(0x00)
    3142                    .dwattr $C$DW$180, DW_AT_name("__mspabi_addd")
    3143                    .dwattr $C$DW$180, DW_AT_TI_call
    3144            
    3145 000558 13B0!         CALLA     #__mspabi_addd        ; [] |178| 
         00055a 0000 
    3146                                                      ; [] |178| 
    3147            $C$DW$181       .dwtag  DW_TAG_TI_branch
    3148                    .dwattr $C$DW$181, DW_AT_low_pc(0x00)
    3149                    .dwattr $C$DW$181, DW_AT_name("__mspabi_cvtdf")
    3150                    .dwattr $C$DW$181, DW_AT_TI_call
    3151            
    3152 00055c 13B0!         CALLA     #__mspabi_cvtdf       ; [] |178| 
         00055e 0000 
    3153                                                      ; [] |178| 
    3154 000560 4C82          MOV.W     r12,&TC2_temp+0       ; [] |178| 
         000562 0000!
    3155 000564 4D82          MOV.W     r13,&TC2_temp+2       ; [] |178| 
         000566 0002!
    3156                    .dwpsn  file "../src/ADC_Calculations.c",line 180,column 1,is_stmt,isa 0
    3157 000568 93C2          TST.B     &PCB_Calibration_GUI+0 ; [] |180| 
         00056a 0000!
    3158 00056c 2406          JEQ       $C$L53                ; [] |180| 
    3159                                                      ; [] |180| 
    3160            ;* --------------------------------------------------------------------------*
    3161                    .dwpsn  file "../src/ADC_Calculations.c",line 180,column 25,is_stmt,isa 0
    3162 00056e 40B2          MOV.W     #32768,&TC2_temp+0    ; [] |180| 
         000570 8000 
         000572 0000!
    3163 000574 40B2          MOV.W     #17294,&TC2_temp+2    ; [] |180| 
         000576 438E 
         000578 0002!
    3164            ;* --------------------------------------------------------------------------*
    3165 00057a       $C$L53:    
    3166                    .dwpsn  file "../src/ADC_Calculations.c",line 184,column 3,is_stmt,isa 0
    3167 00057a 421C          MOV.W     &TC2_temp+0,r12       ; [] |184| 
         00057c 0000!
    3168 00057e 421D          MOV.W     &TC2_temp+2,r13       ; [] |184| 
         000580 0002!
    3169 000582 430E          MOV.W     #0,r14                ; [] |184| 
    3170 000584 430F          MOV.W     #0,r15                ; [] |184| 
    3171            $C$DW$182       .dwtag  DW_TAG_TI_branch
    3172                    .dwattr $C$DW$182, DW_AT_low_pc(0x00)
    3173                    .dwattr $C$DW$182, DW_AT_name("__mspabi_cmpf")
    3174                    .dwattr $C$DW$182, DW_AT_TI_call
    3175            
    3176 000586 13B0!         CALLA     #__mspabi_cmpf        ; [] |184| 
         000588 0000 
    3177                                                      ; [] |184| 
    3178 00058a 930C          TST.W     r12                   ; [] |184| 
    3179 00058c 3404          JGE       $C$L54                ; [] |184| 
    3180                                                      ; [] |184| 
MSP430 Assembler PC v21.6.1 Tue Dec 20 13:45:56 2022

Copyright (c) 2003-2018 Texas Instruments Incorporated
ADC_Calculations.asm                                                 PAGE   64

    3181            ;* --------------------------------------------------------------------------*
    3182                    .dwpsn  file "../src/ADC_Calculations.c",line 184,column 23,is_stmt,isa 0
    3183 00058e 4382          MOV.W     #0,&TC2_temp+0        ; [] |184| 
         000590 0000!
    3184 000592 4382          MOV.W     #0,&TC2_temp+2        ; [] |184| 
         000594 0002!
    3185            ;* --------------------------------------------------------------------------*
    3186 000596       $C$L54:    
    3187                    .dwpsn  file "../src/ADC_Calculations.c",line 192,column 5,is_stmt,isa 0
    3188 000596 421C          MOV.W     &ADCSamples+20,r12    ; [] |192| 
         000598 0014!
    3189 00059a 821C          SUB.W     &0x1a22,r12           ; [] |192| 
         00059c 1A22 
    3190            $C$DW$183       .dwtag  DW_TAG_TI_branch
    3191                    .dwattr $C$DW$183, DW_AT_low_pc(0x00)
    3192                    .dwattr $C$DW$183, DW_AT_name("__mspabi_fltid")
    3193                    .dwattr $C$DW$183, DW_AT_TI_call
    3194            
    3195 00059e 13B0!         CALLA     #__mspabi_fltid       ; [] |192| 
         0005a0 0000 
    3196                                                      ; [] |192| 
    3197 0005a2 0CC4          MOVA      r12,r4                ; [] |192| 
    3198 0005a4 0DC5          MOVA      r13,r5                ; [] |192| 
    3199 0005a6 0EC6          MOVA      r14,r6                ; [] |192| 
    3200 0005a8 0FC7          MOVA      r15,r7                ; [] |192| 
    3201 0005aa 421C          MOV.W     &0x1a24,r12           ; [] |192| 
         0005ac 1A24 
    3202 0005ae 821C          SUB.W     &0x1a22,r12           ; [] |192| 
         0005b0 1A22 
    3203            $C$DW$184       .dwtag  DW_TAG_TI_branch
    3204                    .dwattr $C$DW$184, DW_AT_low_pc(0x00)
    3205                    .dwattr $C$DW$184, DW_AT_name("__mspabi_fltid")
    3206                    .dwattr $C$DW$184, DW_AT_TI_call
    3207            
    3208 0005b2 13B0!         CALLA     #__mspabi_fltid       ; [] |192| 
         0005b4 0000 
    3209                                                      ; [] |192| 
    3210 0005b6 4308          MOV.W     #0,r8                 ; [] |192| 
    3211 0005b8 4309          MOV.W     #0,r9                 ; [] |192| 
    3212 0005ba 403A          MOV.W     #32768,r10            ; [] |192| 
         0005bc 8000 
    3213 0005be 403B          MOV.W     #16459,r11            ; [] |192| 
         0005c0 404B 
    3214            $C$DW$185       .dwtag  DW_TAG_TI_branch
    3215                    .dwattr $C$DW$185, DW_AT_low_pc(0x00)
    3216                    .dwattr $C$DW$185, DW_AT_name("__mspabi_divd")
    3217                    .dwattr $C$DW$185, DW_AT_TI_call
    3218            
    3219 0005c2 13B0!         CALLA     #__mspabi_divd        ; [] |192| 
         0005c4 0000 
    3220                                                      ; [] |192| 
    3221 0005c6 04C8          MOVA      r4,r8                 ; [] |192| 
    3222 0005c8 05C9          MOVA      r5,r9                 ; [] |192| 
    3223 0005ca 06CA          MOVA      r6,r10                ; [] |192| 
    3224 0005cc 07CB          MOVA      r7,r11                ; [] |192| 
MSP430 Assembler PC v21.6.1 Tue Dec 20 13:45:56 2022

Copyright (c) 2003-2018 Texas Instruments Incorporated
ADC_Calculations.asm                                                 PAGE   65

    3225            $C$DW$186       .dwtag  DW_TAG_TI_branch
    3226                    .dwattr $C$DW$186, DW_AT_low_pc(0x00)
    3227                    .dwattr $C$DW$186, DW_AT_name("__mspabi_mpyd")
    3228                    .dwattr $C$DW$186, DW_AT_TI_call
    3229            
    3230 0005ce 13B0!         CALLA     #__mspabi_mpyd        ; [] |192| 
         0005d0 0000 
    3231                                                      ; [] |192| 
    3232 0005d2 0CC8          MOVA      r12,r8                ; [] |192| 
    3233 0005d4 0DC9          MOVA      r13,r9                ; [] |192| 
    3234 0005d6 0ECA          MOVA      r14,r10               ; [] |192| 
    3235 0005d8 0FCB          MOVA      r15,r11               ; [] |192| 
    3236 0005da 430C          MOV.W     #0,r12                ; [] |192| 
    3237 0005dc 430D          MOV.W     #0,r13                ; [] |192| 
    3238 0005de 430E          MOV.W     #0,r14                ; [] |192| 
    3239 0005e0 403F          MOV.W     #16446,r15            ; [] |192| 
         0005e2 403E 
    3240            $C$DW$187       .dwtag  DW_TAG_TI_branch
    3241                    .dwattr $C$DW$187, DW_AT_low_pc(0x00)
    3242                    .dwattr $C$DW$187, DW_AT_name("__mspabi_addd")
    3243                    .dwattr $C$DW$187, DW_AT_TI_call
    3244            
    3245 0005e4 13B0!         CALLA     #__mspabi_addd        ; [] |192| 
         0005e6 0000 
    3246                                                      ; [] |192| 
    3247            $C$DW$188       .dwtag  DW_TAG_TI_branch
    3248                    .dwattr $C$DW$188, DW_AT_low_pc(0x00)
    3249                    .dwattr $C$DW$188, DW_AT_name("__mspabi_cvtdf")
    3250                    .dwattr $C$DW$188, DW_AT_TI_call
    3251            
    3252 0005e8 13B0!         CALLA     #__mspabi_cvtdf       ; [] |192| 
         0005ea 0000 
    3253                                                      ; [] |192| 
    3254            ;* --------------------------------------------------------------------------*
    3255 0005ec 430E          MOV.W     #0,r14                ; [] |192| 
    3256 0005ee 403F          MOV.W     #16968,r15            ; [] |192| 
         0005f0 4248 
    3257            $C$DW$189       .dwtag  DW_TAG_TI_branch
    3258                    .dwattr $C$DW$189, DW_AT_low_pc(0x00)
    3259                    .dwattr $C$DW$189, DW_AT_name("__mspabi_divf")
    3260                    .dwattr $C$DW$189, DW_AT_TI_call
    3261            
    3262 0005f2 13B0!         CALLA     #__mspabi_divf        ; [] |192| 
         0005f4 0000 
    3263                                                      ; [] |192| 
    3264 0005f6 0CC6          MOVA      r12,r6                ; [] |192| 
    3265 0005f8 0DC7          MOVA      r13,r7                ; [] |192| 
    3266                    .dwpsn  file "../src/ADC_Calculations.c",line 196,column 3,is_stmt,isa 0
    3267 0005fa 421C          MOV.W     &ambient_temp+0,r12   ; [] |196| 
         0005fc 0000!
    3268 0005fe 421D          MOV.W     &ambient_temp+2,r13   ; [] |196| 
         000600 0002!
    3269            $C$DW$190       .dwtag  DW_TAG_TI_branch
    3270                    .dwattr $C$DW$190, DW_AT_low_pc(0x00)
    3271                    .dwattr $C$DW$190, DW_AT_name("__mspabi_cvtfd")
MSP430 Assembler PC v21.6.1 Tue Dec 20 13:45:56 2022

Copyright (c) 2003-2018 Texas Instruments Incorporated
ADC_Calculations.asm                                                 PAGE   66

    3272                    .dwattr $C$DW$190, DW_AT_TI_call
    3273            
    3274 000602 13B0!         CALLA     #__mspabi_cvtfd       ; [] |196| 
         000604 0000 
    3275                                                      ; [] |196| 
    3276 000606 0CC8          MOVA      r12,r8                ; [] |196| 
    3277 000608 0DC9          MOVA      r13,r9                ; [] |196| 
    3278 00060a 0ECA          MOVA      r14,r10               ; [] |196| 
    3279 00060c 0FCB          MOVA      r15,r11               ; [] |196| 
    3280 00060e 430C          MOV.W     #0,r12                ; [] |196| 
    3281 000610 430D          MOV.W     #0,r13                ; [] |196| 
    3282 000612 403E          MOV.W     #32768,r14            ; [] |196| 
         000614 8000 
    3283 000616 403F          MOV.W     #16456,r15            ; [] |196| 
         000618 4048 
    3284            $C$DW$191       .dwtag  DW_TAG_TI_branch
    3285                    .dwattr $C$DW$191, DW_AT_low_pc(0x00)
    3286                    .dwattr $C$DW$191, DW_AT_name("__mspabi_mpyd")
    3287                    .dwattr $C$DW$191, DW_AT_TI_call
    3288            
    3289 00061a 13B0!         CALLA     #__mspabi_mpyd        ; [] |196| 
         00061c 0000 
    3290                                                      ; [] |196| 
    3291 00061e 0CC8          MOVA      r12,r8                ; [] |196| 
    3292 000620 0DC9          MOVA      r13,r9                ; [] |196| 
    3293 000622 0ECA          MOVA      r14,r10               ; [] |196| 
    3294 000624 0FCB          MOVA      r15,r11               ; [] |196| 
    3295 000626 430C          MOV.W     #0,r12                ; [] |196| 
    3296 000628 430D          MOV.W     #0,r13                ; [] |196| 
    3297 00062a 430E          MOV.W     #0,r14                ; [] |196| 
    3298 00062c 403F          MOV.W     #16457,r15            ; [] |196| 
         00062e 4049 
    3299            $C$DW$192       .dwtag  DW_TAG_TI_branch
    3300                    .dwattr $C$DW$192, DW_AT_low_pc(0x00)
    3301                    .dwattr $C$DW$192, DW_AT_name("__mspabi_divd")
    3302                    .dwattr $C$DW$192, DW_AT_TI_call
    3303            
    3304 000630 13B0!         CALLA     #__mspabi_divd        ; [] |196| 
         000632 0000 
    3305                                                      ; [] |196| 
    3306 000634 0CC8          MOVA      r12,r8                ; [] |196| 
    3307 000636 0DC9          MOVA      r13,r9                ; [] |196| 
    3308 000638 0ECA          MOVA      r14,r10               ; [] |196| 
    3309 00063a 0FC5          MOVA      r15,r5                ; [] |196| 
    3310 00063c 06CC          MOVA      r6,r12                ; [] |196| 
    3311 00063e 07CD          MOVA      r7,r13                ; [] |196| 
    3312            $C$DW$193       .dwtag  DW_TAG_TI_branch
    3313                    .dwattr $C$DW$193, DW_AT_low_pc(0x00)
    3314                    .dwattr $C$DW$193, DW_AT_name("__mspabi_cvtfd")
    3315                    .dwattr $C$DW$193, DW_AT_TI_call
    3316            
    3317 000640 13B0!         CALLA     #__mspabi_cvtfd       ; [] |196| 
         000642 0000 
    3318                                                      ; [] |196| 
    3319 000644 05CB          MOVA      r5,r11                ; [] |196| 
MSP430 Assembler PC v21.6.1 Tue Dec 20 13:45:56 2022

Copyright (c) 2003-2018 Texas Instruments Incorporated
