MSP430 Assembler PC v21.6.1 Tue Dec 20 13:45:56 2022

Copyright (c) 2003-2018 Texas Instruments Incorporated
Air_Compressors.asm                                                  PAGE    1

       1            ;******************************************************************************
       2            ;* MSP430 G3 C/C++ Codegen                                              PC v21.6.1.LTS *
       3            ;* Date/Time created: Tue Dec 20 13:45:56 2022                                *
       4            ;******************************************************************************
       5                    .compiler_opts --abi=eabi --diag_wrap=off --hll_source=on --mem_model:code=large --mem_model:d
       6            
       7            $C$DW$CU        .dwtag  DW_TAG_compile_unit
       8                    .dwattr $C$DW$CU, DW_AT_name("../src/Air_Compressors.C")
       9                    .dwattr $C$DW$CU, DW_AT_producer("TI MSP430 G3 C/C++ Codegen PC v21.6.1.LTS Copyright (c) 2003
      10                    .dwattr $C$DW$CU, DW_AT_TI_version(0x01)
      11                    .dwattr $C$DW$CU, DW_AT_comp_dir("C:\Users\MCourson\workspace_v11\MZERO_HB50Board\Debug")
      12            $C$DW$1 .dwtag  DW_TAG_variable
      13                    .dwattr $C$DW$1, DW_AT_name("TB0CCR2")
      14                    .dwattr $C$DW$1, DW_AT_TI_symbol_name("TB0CCR2")
      15                    .dwattr $C$DW$1, DW_AT_type(*$C$DW$T$111)
      16                    .dwattr $C$DW$1, DW_AT_declaration
      17                    .dwattr $C$DW$1, DW_AT_external
      18                    .dwattr $C$DW$1, DW_AT_decl_file("C:\ti\ccs1110\ccs\ccs_base\msp430\include\msp430f5438a.h")
      19                    .dwattr $C$DW$1, DW_AT_decl_line(0x9e3)
      20                    .dwattr $C$DW$1, DW_AT_decl_column(0x01)
      21            
      22            $C$DW$2 .dwtag  DW_TAG_variable
      23                    .dwattr $C$DW$2, DW_AT_name("TB0CCR4")
      24                    .dwattr $C$DW$2, DW_AT_TI_symbol_name("TB0CCR4")
      25                    .dwattr $C$DW$2, DW_AT_type(*$C$DW$T$111)
      26                    .dwattr $C$DW$2, DW_AT_declaration
      27                    .dwattr $C$DW$2, DW_AT_external
      28                    .dwattr $C$DW$2, DW_AT_decl_file("C:\ti\ccs1110\ccs\ccs_base\msp430\include\msp430f5438a.h")
      29                    .dwattr $C$DW$2, DW_AT_decl_line(0x9e5)
      30                    .dwattr $C$DW$2, DW_AT_decl_column(0x01)
      31            
      32                    .global mode
      33                    .common mode,2,2
      34            $C$DW$3 .dwtag  DW_TAG_variable
      35                    .dwattr $C$DW$3, DW_AT_name("mode")
      36                    .dwattr $C$DW$3, DW_AT_TI_symbol_name("mode")
      37                    .dwattr $C$DW$3, DW_AT_location[DW_OP_addr mode]
      38                    .dwattr $C$DW$3, DW_AT_type(*$C$DW$T$54)
      39                    .dwattr $C$DW$3, DW_AT_external
      40                    .dwattr $C$DW$3, DW_AT_decl_file("C:/Users/MCourson/workspace_v11/MZERO_HB50Board/include/Main
      41                    .dwattr $C$DW$3, DW_AT_decl_line(0x65)
      42                    .dwattr $C$DW$3, DW_AT_decl_column(0x07)
      43            
      44                    .global FCState
      45                    .common FCState,2,2
      46            $C$DW$4 .dwtag  DW_TAG_variable
      47                    .dwattr $C$DW$4, DW_AT_name("FCState")
      48                    .dwattr $C$DW$4, DW_AT_TI_symbol_name("FCState")
      49                    .dwattr $C$DW$4, DW_AT_location[DW_OP_addr FCState]
      50                    .dwattr $C$DW$4, DW_AT_type(*$C$DW$T$56)
      51                    .dwattr $C$DW$4, DW_AT_external
      52                    .dwattr $C$DW$4, DW_AT_decl_file("C:/Users/MCourson/workspace_v11/MZERO_HB50Board/include/Main
      53                    .dwattr $C$DW$4, DW_AT_decl_line(0x6d)
      54                    .dwattr $C$DW$4, DW_AT_decl_column(0x0a)
      55            
MSP430 Assembler PC v21.6.1 Tue Dec 20 13:45:56 2022

Copyright (c) 2003-2018 Texas Instruments Incorporated
Air_Compressors.asm                                                  PAGE    2

      56                    .global msgstatus
      57                    .common msgstatus,2,2
      58            $C$DW$5 .dwtag  DW_TAG_variable
      59                    .dwattr $C$DW$5, DW_AT_name("msgstatus")
      60                    .dwattr $C$DW$5, DW_AT_TI_symbol_name("msgstatus")
      61                    .dwattr $C$DW$5, DW_AT_location[DW_OP_addr msgstatus]
      62                    .dwattr $C$DW$5, DW_AT_type(*$C$DW$T$58)
      63                    .dwattr $C$DW$5, DW_AT_external
      64                    .dwattr $C$DW$5, DW_AT_decl_file("C:/Users/MCourson/workspace_v11/MZERO_HB50Board/include/Main
      65                    .dwattr $C$DW$5, DW_AT_decl_line(0x7c)
      66                    .dwattr $C$DW$5, DW_AT_decl_column(0x0f)
      67            
      68                    .global status
      69                    .common status,2,2
      70            $C$DW$6 .dwtag  DW_TAG_variable
      71                    .dwattr $C$DW$6, DW_AT_name("status")
      72                    .dwattr $C$DW$6, DW_AT_TI_symbol_name("status")
      73                    .dwattr $C$DW$6, DW_AT_location[DW_OP_addr status]
      74                    .dwattr $C$DW$6, DW_AT_type(*$C$DW$T$60)
      75                    .dwattr $C$DW$6, DW_AT_external
      76                    .dwattr $C$DW$6, DW_AT_decl_file("C:/Users/MCourson/workspace_v11/MZERO_HB50Board/include/Main
      77                    .dwattr $C$DW$6, DW_AT_decl_line(0x83)
      78                    .dwattr $C$DW$6, DW_AT_decl_column(0x0e)
      79            
      80            $C$DW$7 .dwtag  DW_TAG_variable
      81                    .dwattr $C$DW$7, DW_AT_name("Altitude")
      82                    .dwattr $C$DW$7, DW_AT_TI_symbol_name("Altitude")
      83                    .dwattr $C$DW$7, DW_AT_type(*$C$DW$T$11)
      84                    .dwattr $C$DW$7, DW_AT_declaration
      85                    .dwattr $C$DW$7, DW_AT_external
      86                    .dwattr $C$DW$7, DW_AT_decl_file("../src/Air_Compressors.C")
      87                    .dwattr $C$DW$7, DW_AT_decl_line(0x13)
      88                    .dwattr $C$DW$7, DW_AT_decl_column(0x15)
      89            
      90                    .global air_GUI
      91 000000               .data
      92                    .align  2
      93                    .elfsym air_GUI,SYM_SIZE(4)
      94 000000       air_GUI:
      95 000000 0000          .float          $strtod("0x0p+0")               ; air_GUI @ 0
         000002 0000 
      96            
      97            $C$DW$8 .dwtag  DW_TAG_variable
      98                    .dwattr $C$DW$8, DW_AT_name("air_GUI")
      99                    .dwattr $C$DW$8, DW_AT_TI_symbol_name("air_GUI")
     100                    .dwattr $C$DW$8, DW_AT_location[DW_OP_addr air_GUI]
     101                    .dwattr $C$DW$8, DW_AT_type(*$C$DW$T$16)
     102                    .dwattr $C$DW$8, DW_AT_external
     103                    .dwattr $C$DW$8, DW_AT_decl_file("../src/Air_Compressors.C")
     104                    .dwattr $C$DW$8, DW_AT_decl_line(0x16)
     105                    .dwattr $C$DW$8, DW_AT_decl_column(0x07)
     106            
     107            $C$DW$9 .dwtag  DW_TAG_variable
     108                    .dwattr $C$DW$9, DW_AT_name("TC2_temp")
     109                    .dwattr $C$DW$9, DW_AT_TI_symbol_name("TC2_temp")
MSP430 Assembler PC v21.6.1 Tue Dec 20 13:45:56 2022

Copyright (c) 2003-2018 Texas Instruments Incorporated
Air_Compressors.asm                                                  PAGE    3

     110                    .dwattr $C$DW$9, DW_AT_type(*$C$DW$T$16)
     111                    .dwattr $C$DW$9, DW_AT_declaration
     112                    .dwattr $C$DW$9, DW_AT_external
     113                    .dwattr $C$DW$9, DW_AT_decl_file("../src/Air_Compressors.C")
     114                    .dwattr $C$DW$9, DW_AT_decl_line(0x18)
     115                    .dwattr $C$DW$9, DW_AT_decl_column(0x0e)
     116            
     117            $C$DW$10        .dwtag  DW_TAG_variable
     118                    .dwattr $C$DW$10, DW_AT_name("Tset")
     119                    .dwattr $C$DW$10, DW_AT_TI_symbol_name("Tset")
     120                    .dwattr $C$DW$10, DW_AT_type(*$C$DW$T$10)
     121                    .dwattr $C$DW$10, DW_AT_declaration
     122                    .dwattr $C$DW$10, DW_AT_external
     123                    .dwattr $C$DW$10, DW_AT_decl_file("../src/Air_Compressors.C")
     124                    .dwattr $C$DW$10, DW_AT_decl_line(0x19)
     125                    .dwattr $C$DW$10, DW_AT_decl_column(0x0c)
     126            
     127            $C$DW$11        .dwtag  DW_TAG_variable
     128                    .dwattr $C$DW$11, DW_AT_name("SerialNumber")
     129                    .dwattr $C$DW$11, DW_AT_TI_symbol_name("SerialNumber")
     130                    .dwattr $C$DW$11, DW_AT_type(*$C$DW$T$10)
     131                    .dwattr $C$DW$11, DW_AT_declaration
     132                    .dwattr $C$DW$11, DW_AT_external
     133                    .dwattr $C$DW$11, DW_AT_decl_file("../src/Air_Compressors.C")
     134                    .dwattr $C$DW$11, DW_AT_decl_line(0x1a)
     135                    .dwattr $C$DW$11, DW_AT_decl_column(0x0c)
     136            
     137            $C$DW$12        .dwtag  DW_TAG_variable
     138                    .dwattr $C$DW$12, DW_AT_name("air")
     139                    .dwattr $C$DW$12, DW_AT_TI_symbol_name("air")
     140                    .dwattr $C$DW$12, DW_AT_type(*$C$DW$T$16)
     141                    .dwattr $C$DW$12, DW_AT_declaration
     142                    .dwattr $C$DW$12, DW_AT_external
     143                    .dwattr $C$DW$12, DW_AT_decl_file("../src/Air_Compressors.C")
     144                    .dwattr $C$DW$12, DW_AT_decl_line(0x1d)
     145                    .dwattr $C$DW$12, DW_AT_decl_column(0x0e)
     146            
     147                    .global FC_Burner_air
     148                    .common FC_Burner_air,4,2
     149            $C$DW$13        .dwtag  DW_TAG_variable
     150                    .dwattr $C$DW$13, DW_AT_name("FC_Burner_air")
     151                    .dwattr $C$DW$13, DW_AT_TI_symbol_name("FC_Burner_air")
     152                    .dwattr $C$DW$13, DW_AT_location[DW_OP_addr FC_Burner_air]
     153                    .dwattr $C$DW$13, DW_AT_type(*$C$DW$T$16)
     154                    .dwattr $C$DW$13, DW_AT_external
     155                    .dwattr $C$DW$13, DW_AT_decl_file("../src/Air_Compressors.C")
     156                    .dwattr $C$DW$13, DW_AT_decl_line(0x1e)
     157                    .dwattr $C$DW$13, DW_AT_decl_column(0x07)
     158            
     159            $C$DW$14        .dwtag  DW_TAG_variable
     160                    .dwattr $C$DW$14, DW_AT_name("ACS")
     161                    .dwattr $C$DW$14, DW_AT_TI_symbol_name("ACS")
     162                    .dwattr $C$DW$14, DW_AT_type(*$C$DW$T$10)
     163                    .dwattr $C$DW$14, DW_AT_declaration
     164                    .dwattr $C$DW$14, DW_AT_external
MSP430 Assembler PC v21.6.1 Tue Dec 20 13:45:56 2022

Copyright (c) 2003-2018 Texas Instruments Incorporated
Air_Compressors.asm                                                  PAGE    4

     165                    .dwattr $C$DW$14, DW_AT_decl_file("../src/Air_Compressors.C")
     166                    .dwattr $C$DW$14, DW_AT_decl_line(0x22)
     167                    .dwattr $C$DW$14, DW_AT_decl_column(0x0c)
     168            
     169                    .global ALT_Temp
     170                    .common ALT_Temp,2,2
     171            $C$DW$15        .dwtag  DW_TAG_variable
     172                    .dwattr $C$DW$15, DW_AT_name("ALT_Temp")
     173                    .dwattr $C$DW$15, DW_AT_TI_symbol_name("ALT_Temp")
     174                    .dwattr $C$DW$15, DW_AT_location[DW_OP_addr ALT_Temp]
     175                    .dwattr $C$DW$15, DW_AT_type(*$C$DW$T$11)
     176                    .dwattr $C$DW$15, DW_AT_external
     177                    .dwattr $C$DW$15, DW_AT_decl_file("../src/Air_Compressors.C")
     178                    .dwattr $C$DW$15, DW_AT_decl_line(0x24)
     179                    .dwattr $C$DW$15, DW_AT_decl_column(0x0e)
     180            
     181                    .global afc
     182                    .common afc,2,2
     183            $C$DW$16        .dwtag  DW_TAG_variable
     184                    .dwattr $C$DW$16, DW_AT_name("afc")
     185                    .dwattr $C$DW$16, DW_AT_TI_symbol_name("afc")
     186                    .dwattr $C$DW$16, DW_AT_location[DW_OP_addr afc]
     187                    .dwattr $C$DW$16, DW_AT_type(*$C$DW$T$11)
     188                    .dwattr $C$DW$16, DW_AT_external
     189                    .dwattr $C$DW$16, DW_AT_decl_file("../src/Air_Compressors.C")
     190                    .dwattr $C$DW$16, DW_AT_decl_line(0x27)
     191                    .dwattr $C$DW$16, DW_AT_decl_column(0x0e)
     192            
     193                    .global secondary_afc
     194                    .common secondary_afc,2,2
     195            $C$DW$17        .dwtag  DW_TAG_variable
     196                    .dwattr $C$DW$17, DW_AT_name("secondary_afc")
     197                    .dwattr $C$DW$17, DW_AT_TI_symbol_name("secondary_afc")
     198                    .dwattr $C$DW$17, DW_AT_location[DW_OP_addr secondary_afc]
     199                    .dwattr $C$DW$17, DW_AT_type(*$C$DW$T$11)
     200                    .dwattr $C$DW$17, DW_AT_external
     201                    .dwattr $C$DW$17, DW_AT_decl_file("../src/Air_Compressors.C")
     202                    .dwattr $C$DW$17, DW_AT_decl_line(0x28)
     203                    .dwattr $C$DW$17, DW_AT_decl_column(0x0e)
     204            
     205            $C$DW$18        .dwtag  DW_TAG_variable
     206                    .dwattr $C$DW$18, DW_AT_name("FC_Burner_air_GUI")
     207                    .dwattr $C$DW$18, DW_AT_TI_symbol_name("FC_Burner_air_GUI")
     208                    .dwattr $C$DW$18, DW_AT_type(*$C$DW$T$16)
     209                    .dwattr $C$DW$18, DW_AT_declaration
     210                    .dwattr $C$DW$18, DW_AT_external
     211                    .dwattr $C$DW$18, DW_AT_decl_file("../src/Air_Compressors.C")
     212                    .dwattr $C$DW$18, DW_AT_decl_line(0x2a)
     213                    .dwattr $C$DW$18, DW_AT_decl_column(0x0e)
     214            
     215            $C$DW$19        .dwtag  DW_TAG_variable
     216                    .dwattr $C$DW$19, DW_AT_name("Warming")
     217                    .dwattr $C$DW$19, DW_AT_TI_symbol_name("Warming")
     218                    .dwattr $C$DW$19, DW_AT_type(*$C$DW$T$24)
     219                    .dwattr $C$DW$19, DW_AT_declaration
MSP430 Assembler PC v21.6.1 Tue Dec 20 13:45:56 2022

Copyright (c) 2003-2018 Texas Instruments Incorporated
Air_Compressors.asm                                                  PAGE    5

     220                    .dwattr $C$DW$19, DW_AT_external
     221                    .dwattr $C$DW$19, DW_AT_decl_file("../src/Air_Compressors.C")
     222                    .dwattr $C$DW$19, DW_AT_decl_line(0x2e)
     223                    .dwattr $C$DW$19, DW_AT_decl_column(0x10)
     224            
     225            $C$DW$20        .dwtag  DW_TAG_variable
     226                    .dwattr $C$DW$20, DW_AT_name("ALT_P")
     227                    .dwattr $C$DW$20, DW_AT_TI_symbol_name("ALT_P")
     228                    .dwattr $C$DW$20, DW_AT_type(*$C$DW$T$12)
     229                    .dwattr $C$DW$20, DW_AT_declaration
     230                    .dwattr $C$DW$20, DW_AT_external
     231                    .dwattr $C$DW$20, DW_AT_decl_file("../src/Air_Compressors.C")
     232                    .dwattr $C$DW$20, DW_AT_decl_line(0x32)
     233                    .dwattr $C$DW$20, DW_AT_decl_column(0x0d)
     234            
     235                    .global airA
     236                    .common airA,4,2
     237            $C$DW$21        .dwtag  DW_TAG_variable
     238                    .dwattr $C$DW$21, DW_AT_name("airA")
     239                    .dwattr $C$DW$21, DW_AT_TI_symbol_name("airA")
     240                    .dwattr $C$DW$21, DW_AT_location[DW_OP_addr airA]
     241                    .dwattr $C$DW$21, DW_AT_type(*$C$DW$T$16)
     242                    .dwattr $C$DW$21, DW_AT_external
     243                    .dwattr $C$DW$21, DW_AT_decl_file("../src/Air_Compressors.C")
     244                    .dwattr $C$DW$21, DW_AT_decl_line(0x33)
     245                    .dwattr $C$DW$21, DW_AT_decl_column(0x07)
     246            
     247                    .global airB
     248                    .common airB,4,2
     249            $C$DW$22        .dwtag  DW_TAG_variable
     250                    .dwattr $C$DW$22, DW_AT_name("airB")
     251                    .dwattr $C$DW$22, DW_AT_TI_symbol_name("airB")
     252                    .dwattr $C$DW$22, DW_AT_location[DW_OP_addr airB]
     253                    .dwattr $C$DW$22, DW_AT_type(*$C$DW$T$16)
     254                    .dwattr $C$DW$22, DW_AT_external
     255                    .dwattr $C$DW$22, DW_AT_decl_file("../src/Air_Compressors.C")
     256                    .dwattr $C$DW$22, DW_AT_decl_line(0x34)
     257                    .dwattr $C$DW$22, DW_AT_decl_column(0x07)
     258            
     259                    .global QQ
     260 000004               .data
     261                    .align  2
     262                    .elfsym QQ,SYM_SIZE(2)
     263 000004       QQ:
     264 000004 0000          .bits           0,16
     265                                    ; QQ @ 0
     266            
     267            $C$DW$23        .dwtag  DW_TAG_variable
     268                    .dwattr $C$DW$23, DW_AT_name("QQ")
     269                    .dwattr $C$DW$23, DW_AT_TI_symbol_name("QQ")
     270                    .dwattr $C$DW$23, DW_AT_location[DW_OP_addr QQ]
     271                    .dwattr $C$DW$23, DW_AT_type(*$C$DW$T$10)
     272                    .dwattr $C$DW$23, DW_AT_external
     273                    .dwattr $C$DW$23, DW_AT_decl_file("../src/Air_Compressors.C")
     274                    .dwattr $C$DW$23, DW_AT_decl_line(0x35)
MSP430 Assembler PC v21.6.1 Tue Dec 20 13:45:56 2022

Copyright (c) 2003-2018 Texas Instruments Incorporated
Air_Compressors.asm                                                  PAGE    6

     275                    .dwattr $C$DW$23, DW_AT_decl_column(0x05)
     276            
     277            ;       C:\ti\ccs1110\ccs\tools\compiler\ti-cgt-msp430_21.6.1.LTS\bin\opt430.exe C:\\Users\\MCourson\\
     278 000000               .sect   ".text:__signbitl"
     279                    .clink
     280                    .global __signbitl
     281            
     282            $C$DW$24        .dwtag  DW_TAG_subprogram
     283                    .dwattr $C$DW$24, DW_AT_name("__signbitl")
     284                    .dwattr $C$DW$24, DW_AT_low_pc(__signbitl)
     285                    .dwattr $C$DW$24, DW_AT_high_pc(0x00)
     286                    .dwattr $C$DW$24, DW_AT_TI_symbol_name("__signbitl")
     287                    .dwattr $C$DW$24, DW_AT_external
     288                    .dwattr $C$DW$24, DW_AT_type(*$C$DW$T$10)
     289                    .dwattr $C$DW$24, DW_AT_TI_begin_file("C:/ti/ccs1110/ccs/tools/compiler/ti-cgt-msp430_21.6.1.L
     290                    .dwattr $C$DW$24, DW_AT_TI_begin_line(0x16f)
     291                    .dwattr $C$DW$24, DW_AT_TI_begin_column(0x25)
     292                    .dwattr $C$DW$24, DW_AT_decl_file("C:/ti/ccs1110/ccs/tools/compiler/ti-cgt-msp430_21.6.1.LTS/i
     293                    .dwattr $C$DW$24, DW_AT_decl_line(0x16f)
     294                    .dwattr $C$DW$24, DW_AT_decl_column(0x25)
     295                    .dwattr $C$DW$24, DW_AT_TI_max_frame_size(0x04)
     296                    .dwpsn  file "C:/ti/ccs1110/ccs/tools/compiler/ti-cgt-msp430_21.6.1.LTS/include/_defs.h",line 
     297            
     298                    .dwfde $C$DW$CIE, __signbitl
     299            $C$DW$25        .dwtag  DW_TAG_formal_parameter
     300                    .dwattr $C$DW$25, DW_AT_name("e")
     301                    .dwattr $C$DW$25, DW_AT_TI_symbol_name("e")
     302                    .dwattr $C$DW$25, DW_AT_type(*$C$DW$T$18)
     303                    .dwattr $C$DW$25, DW_AT_location[DW_OP_reg12 DW_OP_piece 2 DW_OP_reg13 DW_OP_piece 2 DW_OP_reg
     304            
     305            
     306            ;*****************************************************************************
     307            ;* FUNCTION NAME: __signbitl                                                 *
     308            ;*                                                                           *
     309            ;*   Regs Modified     : SP,SR,r11,r12,r13,r14,r15                           *
     310            ;*   Regs Used         : SP,SR,r11,r12,r13,r14,r15                           *
     311            ;*   Local Frame Size  : 0 Args + 0 Auto + 0 Save = 0 byte                   *
     312            ;*****************************************************************************
     313 000000       __signbitl:
     314            ;* --------------------------------------------------------------------------*
     315                    .dwcfi  cfa_offset, 4
     316                    .dwcfi  save_reg_to_mem, 16, -4
     317                    .dwpsn  file "C:/ti/ccs1110/ccs/tools/compiler/ti-cgt-msp430_21.6.1.LTS/include/_defs.h",line 
     318 000000 430B          MOV.W     #0,r11                ; [] |368| 
     319 000002 F30C          AND.W     #0,r12                ; [] |368| 
     320 000004 F30D          AND.W     #0,r13                ; [] |368| 
     321 000006 F30E          AND.W     #0,r14                ; [] |368| 
     322 000008 F03F          AND.W     #32768,r15            ; [] |368| 
         00000a 8000 
     323 00000c 930F          TST.W     r15                   ; [] |368| 
     324 00000e 2006          JNE       $C$L1                 ; [] |368| 
     325                                                      ; [] |368| 
     326            ;* --------------------------------------------------------------------------*
     327 000010 930E          TST.W     r14                   ; [] |368| 
     328 000012 2004          JNE       $C$L1                 ; [] |368| 
MSP430 Assembler PC v21.6.1 Tue Dec 20 13:45:56 2022

Copyright (c) 2003-2018 Texas Instruments Incorporated
Air_Compressors.asm                                                  PAGE    7

     329                                                      ; [] |368| 
     330            ;* --------------------------------------------------------------------------*
     331 000014 930D          TST.W     r13                   ; [] |368| 
     332 000016 2002          JNE       $C$L1                 ; [] |368| 
     333                                                      ; [] |368| 
     334            ;* --------------------------------------------------------------------------*
     335 000018 930C          TST.W     r12                   ; [] |368| 
     336 00001a 2401          JEQ       $C$L2                 ; [] |368| 
     337                                                      ; [] |368| 
     338            ;* --------------------------------------------------------------------------*
     339 00001c       $C$L1:    
     340 00001c 431B          MOV.W     #1,r11                ; [] |368| 
     341            ;* --------------------------------------------------------------------------*
     342 00001e       $C$L2:    
     343 00001e 0BCC          MOVA      r11,r12               ; [] |368| 
     344                    .dwpsn  file "C:/ti/ccs1110/ccs/tools/compiler/ti-cgt-msp430_21.6.1.LTS/include/_defs.h",line 
     345            $C$DW$26        .dwtag  DW_TAG_TI_branch
     346                    .dwattr $C$DW$26, DW_AT_low_pc(0x00)
     347                    .dwattr $C$DW$26, DW_AT_TI_return
     348            
     349 000020 0110          RETA      ; [] 
     350                    ; [] 
     351                    .dwattr $C$DW$24, DW_AT_TI_end_file("C:/ti/ccs1110/ccs/tools/compiler/ti-cgt-msp430_21.6.1.LTS
     352                    .dwattr $C$DW$24, DW_AT_TI_end_line(0x170)
     353                    .dwattr $C$DW$24, DW_AT_TI_end_column(0x2b)
     354                    .dwendentry
     355                    .dwendtag $C$DW$24
     356            
     357 000000               .sect   ".text:__signbitf"
     358                    .clink
     359                    .global __signbitf
     360            
     361            $C$DW$27        .dwtag  DW_TAG_subprogram
     362                    .dwattr $C$DW$27, DW_AT_name("__signbitf")
     363                    .dwattr $C$DW$27, DW_AT_low_pc(__signbitf)
     364                    .dwattr $C$DW$27, DW_AT_high_pc(0x00)
     365                    .dwattr $C$DW$27, DW_AT_TI_symbol_name("__signbitf")
     366                    .dwattr $C$DW$27, DW_AT_external
     367                    .dwattr $C$DW$27, DW_AT_type(*$C$DW$T$10)
     368                    .dwattr $C$DW$27, DW_AT_TI_begin_file("C:/ti/ccs1110/ccs/tools/compiler/ti-cgt-msp430_21.6.1.L
     369                    .dwattr $C$DW$27, DW_AT_TI_begin_line(0x16d)
     370                    .dwattr $C$DW$27, DW_AT_TI_begin_column(0x25)
     371                    .dwattr $C$DW$27, DW_AT_decl_file("C:/ti/ccs1110/ccs/tools/compiler/ti-cgt-msp430_21.6.1.LTS/i
     372                    .dwattr $C$DW$27, DW_AT_decl_line(0x16d)
     373                    .dwattr $C$DW$27, DW_AT_decl_column(0x25)
     374                    .dwattr $C$DW$27, DW_AT_TI_max_frame_size(0x04)
     375                    .dwpsn  file "C:/ti/ccs1110/ccs/tools/compiler/ti-cgt-msp430_21.6.1.LTS/include/_defs.h",line 
     376            
     377                    .dwfde $C$DW$CIE, __signbitf
     378            $C$DW$28        .dwtag  DW_TAG_formal_parameter
     379                    .dwattr $C$DW$28, DW_AT_name("f")
     380                    .dwattr $C$DW$28, DW_AT_TI_symbol_name("f")
     381                    .dwattr $C$DW$28, DW_AT_type(*$C$DW$T$16)
     382                    .dwattr $C$DW$28, DW_AT_location[DW_OP_reg12 DW_OP_piece 2 DW_OP_reg13 DW_OP_piece 2]
     383            
MSP430 Assembler PC v21.6.1 Tue Dec 20 13:45:56 2022

Copyright (c) 2003-2018 Texas Instruments Incorporated
Air_Compressors.asm                                                  PAGE    8

     384            
     385            ;*****************************************************************************
     386            ;* FUNCTION NAME: __signbitf                                                 *
     387            ;*                                                                           *
     388            ;*   Regs Modified     : SP,SR,r12                                           *
     389            ;*   Regs Used         : SP,SR,r12,r13                                       *
     390            ;*   Local Frame Size  : 0 Args + 0 Auto + 0 Save = 0 byte                   *
     391            ;*****************************************************************************
     392 000000       __signbitf:
     393            ;* --------------------------------------------------------------------------*
     394                    .dwcfi  cfa_offset, 4
     395                    .dwcfi  save_reg_to_mem, 16, -4
     396                    .dwpsn  file "C:/ti/ccs1110/ccs/tools/compiler/ti-cgt-msp430_21.6.1.LTS/include/_defs.h",line 
     397 000000 430C          MOV.W     #0,r12                ; [] |366| 
     398 000002 930D          TST.W     r13                   ; [] |366| 
     399 000004 3401          JGE       $C$L3                 ; [] |366| 
     400                                                      ; [] |366| 
     401            ;* --------------------------------------------------------------------------*
     402 000006 431C          MOV.W     #1,r12                ; [] |366| 
     403            ;* --------------------------------------------------------------------------*
     404 000008       $C$L3:    
     405                    .dwpsn  file "C:/ti/ccs1110/ccs/tools/compiler/ti-cgt-msp430_21.6.1.LTS/include/_defs.h",line 
     406            $C$DW$29        .dwtag  DW_TAG_TI_branch
     407                    .dwattr $C$DW$29, DW_AT_low_pc(0x00)
     408                    .dwattr $C$DW$29, DW_AT_TI_return
     409            
     410 000008 0110          RETA      ; [] 
     411                    ; [] 
     412                    .dwattr $C$DW$27, DW_AT_TI_end_file("C:/ti/ccs1110/ccs/tools/compiler/ti-cgt-msp430_21.6.1.LTS
     413                    .dwattr $C$DW$27, DW_AT_TI_end_line(0x16e)
     414                    .dwattr $C$DW$27, DW_AT_TI_end_column(0x29)
     415                    .dwendentry
     416                    .dwendtag $C$DW$27
     417            
     418 000000               .sect   ".text:__signbit"
     419                    .clink
     420                    .global __signbit
     421            
     422            $C$DW$30        .dwtag  DW_TAG_subprogram
     423                    .dwattr $C$DW$30, DW_AT_name("__signbit")
     424                    .dwattr $C$DW$30, DW_AT_low_pc(__signbit)
     425                    .dwattr $C$DW$30, DW_AT_high_pc(0x00)
     426                    .dwattr $C$DW$30, DW_AT_TI_symbol_name("__signbit")
     427                    .dwattr $C$DW$30, DW_AT_external
     428                    .dwattr $C$DW$30, DW_AT_type(*$C$DW$T$10)
     429                    .dwattr $C$DW$30, DW_AT_TI_begin_file("C:/ti/ccs1110/ccs/tools/compiler/ti-cgt-msp430_21.6.1.L
     430                    .dwattr $C$DW$30, DW_AT_TI_begin_line(0x16b)
     431                    .dwattr $C$DW$30, DW_AT_TI_begin_column(0x25)
     432                    .dwattr $C$DW$30, DW_AT_decl_file("C:/ti/ccs1110/ccs/tools/compiler/ti-cgt-msp430_21.6.1.LTS/i
     433                    .dwattr $C$DW$30, DW_AT_decl_line(0x16b)
     434                    .dwattr $C$DW$30, DW_AT_decl_column(0x25)
     435                    .dwattr $C$DW$30, DW_AT_TI_max_frame_size(0x04)
     436                    .dwpsn  file "C:/ti/ccs1110/ccs/tools/compiler/ti-cgt-msp430_21.6.1.LTS/include/_defs.h",line 
     437            
     438                    .dwfde $C$DW$CIE, __signbit
MSP430 Assembler PC v21.6.1 Tue Dec 20 13:45:56 2022

Copyright (c) 2003-2018 Texas Instruments Incorporated
Air_Compressors.asm                                                  PAGE    9

     439            $C$DW$31        .dwtag  DW_TAG_formal_parameter
     440                    .dwattr $C$DW$31, DW_AT_name("d")
     441                    .dwattr $C$DW$31, DW_AT_TI_symbol_name("d")
     442                    .dwattr $C$DW$31, DW_AT_type(*$C$DW$T$17)
     443                    .dwattr $C$DW$31, DW_AT_location[DW_OP_reg12 DW_OP_piece 2 DW_OP_reg13 DW_OP_piece 2 DW_OP_reg
     444            
     445            
     446            ;*****************************************************************************
     447            ;* FUNCTION NAME: __signbit                                                  *
     448            ;*                                                                           *
     449            ;*   Regs Modified     : SP,SR,r11,r12,r13,r14,r15                           *
     450            ;*   Regs Used         : SP,SR,r11,r12,r13,r14,r15                           *
     451            ;*   Local Frame Size  : 0 Args + 0 Auto + 0 Save = 0 byte                   *
     452            ;*****************************************************************************
     453 000000       __signbit:
     454            ;* --------------------------------------------------------------------------*
     455                    .dwcfi  cfa_offset, 4
     456                    .dwcfi  save_reg_to_mem, 16, -4
     457                    .dwpsn  file "C:/ti/ccs1110/ccs/tools/compiler/ti-cgt-msp430_21.6.1.LTS/include/_defs.h",line 
     458 000000 430B          MOV.W     #0,r11                ; [] |364| 
     459 000002 F30C          AND.W     #0,r12                ; [] |364| 
     460 000004 F30D          AND.W     #0,r13                ; [] |364| 
     461 000006 F30E          AND.W     #0,r14                ; [] |364| 
     462 000008 F03F          AND.W     #32768,r15            ; [] |364| 
         00000a 8000 
     463 00000c 930F          TST.W     r15                   ; [] |364| 
     464 00000e 2006          JNE       $C$L4                 ; [] |364| 
     465                                                      ; [] |364| 
     466            ;* --------------------------------------------------------------------------*
     467 000010 930E          TST.W     r14                   ; [] |364| 
     468 000012 2004          JNE       $C$L4                 ; [] |364| 
     469                                                      ; [] |364| 
     470            ;* --------------------------------------------------------------------------*
     471 000014 930D          TST.W     r13                   ; [] |364| 
     472 000016 2002          JNE       $C$L4                 ; [] |364| 
     473                                                      ; [] |364| 
     474            ;* --------------------------------------------------------------------------*
     475 000018 930C          TST.W     r12                   ; [] |364| 
     476 00001a 2401          JEQ       $C$L5                 ; [] |364| 
     477                                                      ; [] |364| 
     478            ;* --------------------------------------------------------------------------*
     479 00001c       $C$L4:    
     480 00001c 431B          MOV.W     #1,r11                ; [] |364| 
     481            ;* --------------------------------------------------------------------------*
     482 00001e       $C$L5:    
     483 00001e 0BCC          MOVA      r11,r12               ; [] |364| 
     484                    .dwpsn  file "C:/ti/ccs1110/ccs/tools/compiler/ti-cgt-msp430_21.6.1.LTS/include/_defs.h",line 
     485            $C$DW$32        .dwtag  DW_TAG_TI_branch
     486                    .dwattr $C$DW$32, DW_AT_low_pc(0x00)
     487                    .dwattr $C$DW$32, DW_AT_TI_return
     488            
     489 000020 0110          RETA      ; [] 
     490                    ; [] 
     491                    .dwattr $C$DW$30, DW_AT_TI_end_file("C:/ti/ccs1110/ccs/tools/compiler/ti-cgt-msp430_21.6.1.LTS
     492                    .dwattr $C$DW$30, DW_AT_TI_end_line(0x16c)
MSP430 Assembler PC v21.6.1 Tue Dec 20 13:45:56 2022

Copyright (c) 2003-2018 Texas Instruments Incorporated
Air_Compressors.asm                                                  PAGE   10

     493                    .dwattr $C$DW$30, DW_AT_TI_end_column(0x2a)
     494                    .dwendentry
     495                    .dwendtag $C$DW$30
     496            
     497 000000               .sect   ".text:__isnormall"
     498                    .clink
     499                    .global __isnormall
     500            
     501            $C$DW$33        .dwtag  DW_TAG_subprogram
     502                    .dwattr $C$DW$33, DW_AT_name("__isnormall")
     503                    .dwattr $C$DW$33, DW_AT_low_pc(__isnormall)
     504                    .dwattr $C$DW$33, DW_AT_high_pc(0x00)
     505                    .dwattr $C$DW$33, DW_AT_TI_symbol_name("__isnormall")
     506                    .dwattr $C$DW$33, DW_AT_external
     507                    .dwattr $C$DW$33, DW_AT_type(*$C$DW$T$10)
     508                    .dwattr $C$DW$33, DW_AT_TI_begin_file("C:/ti/ccs1110/ccs/tools/compiler/ti-cgt-msp430_21.6.1.L
     509                    .dwattr $C$DW$33, DW_AT_TI_begin_line(0x167)
     510                    .dwattr $C$DW$33, DW_AT_TI_begin_column(0x25)
     511                    .dwattr $C$DW$33, DW_AT_decl_file("C:/ti/ccs1110/ccs/tools/compiler/ti-cgt-msp430_21.6.1.LTS/i
     512                    .dwattr $C$DW$33, DW_AT_decl_line(0x167)
     513                    .dwattr $C$DW$33, DW_AT_decl_column(0x25)
     514                    .dwattr $C$DW$33, DW_AT_TI_max_frame_size(0x18)
     515                    .dwpsn  file "C:/ti/ccs1110/ccs/tools/compiler/ti-cgt-msp430_21.6.1.LTS/include/_defs.h",line 
     516            
     517                    .dwfde $C$DW$CIE, __isnormall
     518            $C$DW$34        .dwtag  DW_TAG_formal_parameter
     519                    .dwattr $C$DW$34, DW_AT_name("e")
     520                    .dwattr $C$DW$34, DW_AT_TI_symbol_name("e")
     521                    .dwattr $C$DW$34, DW_AT_type(*$C$DW$T$18)
     522                    .dwattr $C$DW$34, DW_AT_location[DW_OP_reg12 DW_OP_piece 2 DW_OP_reg13 DW_OP_piece 2 DW_OP_reg
     523            
     524            
     525            ;*****************************************************************************
     526            ;* FUNCTION NAME: __isnormall                                                *
     527            ;*                                                                           *
     528            ;*   Regs Modified     : SP,SR,r6,r7,r8,r9,r10,r11,r12,r13,r14,r15           *
     529            ;*   Regs Used         : SP,SR,r6,r7,r8,r9,r10,r11,r12,r13,r14,r15           *
     530            ;*   Local Frame Size  : 0 Args + 0 Auto + 20 Save = 20 byte                 *
     531            ;*****************************************************************************
     532 000000       __isnormall:
     533            ;* --------------------------------------------------------------------------*
     534                    .dwcfi  cfa_offset, 4
     535                    .dwcfi  save_reg_to_mem, 16, -4
     536 000000 144A          PUSHM.A   #5,r10                ; [] 
     537                    .dwcfi  save_reg_to_mem, 10, -8
     538                    .dwcfi  save_reg_to_mem, 9, -12
     539                    .dwcfi  save_reg_to_mem, 8, -16
     540                    .dwcfi  save_reg_to_mem, 7, -20
     541                    .dwcfi  save_reg_to_mem, 6, -24
     542                    .dwcfi  cfa_offset, 24
     543            ;* r6    assigned to $O$S1
     544            ;* r12   assigned to e
     545            $C$DW$35        .dwtag  DW_TAG_variable
     546                    .dwattr $C$DW$35, DW_AT_name("e")
     547                    .dwattr $C$DW$35, DW_AT_TI_symbol_name("e")
MSP430 Assembler PC v21.6.1 Tue Dec 20 13:45:56 2022

Copyright (c) 2003-2018 Texas Instruments Incorporated
Air_Compressors.asm                                                  PAGE   11

     548                    .dwattr $C$DW$35, DW_AT_type(*$C$DW$T$18)
     549                    .dwattr $C$DW$35, DW_AT_location[DW_OP_reg12 DW_OP_piece 2 DW_OP_reg13 DW_OP_piece 2 DW_OP_reg
     550            
     551 000002 0FC7          MOVA      r15,r7                ; [] |360| 
     552                    .dwpsn  file "C:/ti/ccs1110/ccs/tools/compiler/ti-cgt-msp430_21.6.1.LTS/include/_defs.h",line 
     553 000004 4306          MOV.W     #0,r6                 ; [] |360| 
     554 000006 0CC8          MOVA      r12,r8                ; [] |360| 
     555 000008 0DC9          MOVA      r13,r9                ; [] |360| 
     556 00000a 0ECA          MOVA      r14,r10               ; [] |360| 
     557 00000c 07CB          MOVA      r7,r11                ; [] |360| 
     558 00000e 403C          MOV.W     #52,r12               ; [] |360| 
         000010 0034 
     559            $C$DW$36        .dwtag  DW_TAG_TI_branch
     560                    .dwattr $C$DW$36, DW_AT_low_pc(0x00)
     561                    .dwattr $C$DW$36, DW_AT_name("__mspabi_srlll")
     562                    .dwattr $C$DW$36, DW_AT_TI_call
     563            
     564 000012 13B0!         CALLA     #__mspabi_srlll       ; [] |360| 
         000014 0000 
     565                                                      ; [] |360| 
     566 000016 F03C          AND.W     #2047,r12             ; [] |360| 
         000018 07FF 
     567 00001a F30D          AND.W     #0,r13                ; [] |360| 
     568 00001c F30E          AND.W     #0,r14                ; [] |360| 
     569 00001e F30F          AND.W     #0,r15                ; [] |360| 
     570 000020 930F          TST.W     r15                   ; [] |360| 
     571 000022 2006          JNE       $C$L6                 ; [] |360| 
     572                                                      ; [] |360| 
     573            ;* --------------------------------------------------------------------------*
     574 000024 930E          TST.W     r14                   ; [] |360| 
     575 000026 2004          JNE       $C$L6                 ; [] |360| 
     576                                                      ; [] |360| 
     577            ;* --------------------------------------------------------------------------*
     578 000028 930D          TST.W     r13                   ; [] |360| 
     579 00002a 2002          JNE       $C$L6                 ; [] |360| 
     580                                                      ; [] |360| 
     581            ;* --------------------------------------------------------------------------*
     582 00002c 930C          TST.W     r12                   ; [] |360| 
     583 00002e 2406          JEQ       $C$L7                 ; [] |360| 
     584                                                      ; [] |360| 
     585            ;* --------------------------------------------------------------------------*
     586 000030       $C$L6:    
     587 000030 F037          AND.W     #32752,r7             ; [] |360| 
         000032 7FF0 
     588 000034 9037          CMP.W     #32752,r7             ; [] |360| 
         000036 7FF0 
     589 000038 2401          JEQ       $C$L7                 ; [] |360| 
     590                                                      ; [] |360| 
     591            ;* --------------------------------------------------------------------------*
     592 00003a 4316          MOV.W     #1,r6                 ; [] |360| 
     593            ;* --------------------------------------------------------------------------*
     594 00003c       $C$L7:    
     595 00003c 06CC          MOVA      r6,r12                ; [] |360| 
     596                    .dwpsn  file "C:/ti/ccs1110/ccs/tools/compiler/ti-cgt-msp430_21.6.1.LTS/include/_defs.h",line 
     597 00003e 1646          POPM.A    #5,r10                ; [] 
MSP430 Assembler PC v21.6.1 Tue Dec 20 13:45:56 2022

Copyright (c) 2003-2018 Texas Instruments Incorporated
Air_Compressors.asm                                                  PAGE   12

     598                    .dwcfi  restore_reg, 6
     599                    .dwcfi  restore_reg, 7
     600                    .dwcfi  restore_reg, 8
     601                    .dwcfi  restore_reg, 9
     602                    .dwcfi  restore_reg, 10
     603                    .dwcfi  cfa_offset, 4
     604            $C$DW$37        .dwtag  DW_TAG_TI_branch
     605                    .dwattr $C$DW$37, DW_AT_low_pc(0x00)
     606                    .dwattr $C$DW$37, DW_AT_TI_return
     607            
     608 000040 0110          RETA      ; [] 
     609                    ; [] 
     610                    .dwattr $C$DW$33, DW_AT_TI_end_file("C:/ti/ccs1110/ccs/tools/compiler/ti-cgt-msp430_21.6.1.LTS
     611                    .dwattr $C$DW$33, DW_AT_TI_end_line(0x169)
     612                    .dwattr $C$DW$33, DW_AT_TI_end_column(0x31)
     613                    .dwendentry
     614                    .dwendtag $C$DW$33
     615            
     616 000000               .sect   ".text:__isnormalf"
     617                    .clink
     618                    .global __isnormalf
     619            
     620            $C$DW$38        .dwtag  DW_TAG_subprogram
     621                    .dwattr $C$DW$38, DW_AT_name("__isnormalf")
     622                    .dwattr $C$DW$38, DW_AT_low_pc(__isnormalf)
     623                    .dwattr $C$DW$38, DW_AT_high_pc(0x00)
     624                    .dwattr $C$DW$38, DW_AT_TI_symbol_name("__isnormalf")
     625                    .dwattr $C$DW$38, DW_AT_external
     626                    .dwattr $C$DW$38, DW_AT_type(*$C$DW$T$10)
     627                    .dwattr $C$DW$38, DW_AT_TI_begin_file("C:/ti/ccs1110/ccs/tools/compiler/ti-cgt-msp430_21.6.1.L
     628                    .dwattr $C$DW$38, DW_AT_TI_begin_line(0x163)
     629                    .dwattr $C$DW$38, DW_AT_TI_begin_column(0x25)
     630                    .dwattr $C$DW$38, DW_AT_decl_file("C:/ti/ccs1110/ccs/tools/compiler/ti-cgt-msp430_21.6.1.LTS/i
     631                    .dwattr $C$DW$38, DW_AT_decl_line(0x163)
     632                    .dwattr $C$DW$38, DW_AT_decl_column(0x25)
     633                    .dwattr $C$DW$38, DW_AT_TI_max_frame_size(0x04)
     634                    .dwpsn  file "C:/ti/ccs1110/ccs/tools/compiler/ti-cgt-msp430_21.6.1.LTS/include/_defs.h",line 
     635            
     636                    .dwfde $C$DW$CIE, __isnormalf
     637            $C$DW$39        .dwtag  DW_TAG_formal_parameter
     638                    .dwattr $C$DW$39, DW_AT_name("f")
     639                    .dwattr $C$DW$39, DW_AT_TI_symbol_name("f")
     640                    .dwattr $C$DW$39, DW_AT_type(*$C$DW$T$16)
     641                    .dwattr $C$DW$39, DW_AT_location[DW_OP_reg12 DW_OP_piece 2 DW_OP_reg13 DW_OP_piece 2]
     642            
     643            
     644            ;*****************************************************************************
     645            ;* FUNCTION NAME: __isnormalf                                                *
     646            ;*                                                                           *
     647            ;*   Regs Modified     : SP,SR,r12,r13,r15                                   *
     648            ;*   Regs Used         : SP,SR,r12,r13,r15                                   *
     649            ;*   Local Frame Size  : 0 Args + 0 Auto + 0 Save = 0 byte                   *
     650            ;*****************************************************************************
     651 000000       __isnormalf:
     652            ;* --------------------------------------------------------------------------*
MSP430 Assembler PC v21.6.1 Tue Dec 20 13:45:56 2022

Copyright (c) 2003-2018 Texas Instruments Incorporated
Air_Compressors.asm                                                  PAGE   13

     653                    .dwcfi  cfa_offset, 4
     654                    .dwcfi  save_reg_to_mem, 16, -4
     655            ;* r12   assigned to $O$S1
     656                    .dwpsn  file "C:/ti/ccs1110/ccs/tools/compiler/ti-cgt-msp430_21.6.1.LTS/include/_defs.h",line 
     657 000000 430C          MOV.W     #0,r12                ; [] |356| 
     658 000002 0DCF          MOVA      r13,r15               ; [] |356| 
     659 000004 1946          RPT #7 || RRUX.W r15 ; [] |356| 
         000006 100F 
     660 000008 B03F          BIT.W     #255,r15              ; [] |356| 
         00000a 00FF 
     661 00000c 2406          JEQ       $C$L8                 ; [] |356| 
     662                                                      ; [] |356| 
     663            ;* --------------------------------------------------------------------------*
     664 00000e F03D          AND.W     #32640,r13            ; [] |356| 
         000010 7F80 
     665 000012 903D          CMP.W     #32640,r13            ; [] |356| 
         000014 7F80 
     666 000016 2401          JEQ       $C$L8                 ; [] |356| 
     667                                                      ; [] |356| 
     668            ;* --------------------------------------------------------------------------*
     669 000018 431C          MOV.W     #1,r12                ; [] |356| 
     670            ;* --------------------------------------------------------------------------*
     671 00001a       $C$L8:    
     672                    .dwpsn  file "C:/ti/ccs1110/ccs/tools/compiler/ti-cgt-msp430_21.6.1.LTS/include/_defs.h",line 
     673            $C$DW$40        .dwtag  DW_TAG_TI_branch
     674                    .dwattr $C$DW$40, DW_AT_low_pc(0x00)
     675                    .dwattr $C$DW$40, DW_AT_TI_return
     676            
     677 00001a 0110          RETA      ; [] 
     678                    ; [] 
     679                    .dwattr $C$DW$38, DW_AT_TI_end_file("C:/ti/ccs1110/ccs/tools/compiler/ti-cgt-msp430_21.6.1.LTS
     680                    .dwattr $C$DW$38, DW_AT_TI_end_line(0x165)
     681                    .dwattr $C$DW$38, DW_AT_TI_end_column(0x2f)
     682                    .dwendentry
     683                    .dwendtag $C$DW$38
     684            
     685 000000               .sect   ".text:__isnormal"
     686                    .clink
     687                    .global __isnormal
     688            
     689            $C$DW$41        .dwtag  DW_TAG_subprogram
     690                    .dwattr $C$DW$41, DW_AT_name("__isnormal")
     691                    .dwattr $C$DW$41, DW_AT_low_pc(__isnormal)
     692                    .dwattr $C$DW$41, DW_AT_high_pc(0x00)
     693                    .dwattr $C$DW$41, DW_AT_TI_symbol_name("__isnormal")
     694                    .dwattr $C$DW$41, DW_AT_external
     695                    .dwattr $C$DW$41, DW_AT_type(*$C$DW$T$10)
     696                    .dwattr $C$DW$41, DW_AT_TI_begin_file("C:/ti/ccs1110/ccs/tools/compiler/ti-cgt-msp430_21.6.1.L
     697                    .dwattr $C$DW$41, DW_AT_TI_begin_line(0x15f)
     698                    .dwattr $C$DW$41, DW_AT_TI_begin_column(0x25)
     699                    .dwattr $C$DW$41, DW_AT_decl_file("C:/ti/ccs1110/ccs/tools/compiler/ti-cgt-msp430_21.6.1.LTS/i
     700                    .dwattr $C$DW$41, DW_AT_decl_line(0x15f)
     701                    .dwattr $C$DW$41, DW_AT_decl_column(0x25)
     702                    .dwattr $C$DW$41, DW_AT_TI_max_frame_size(0x18)
     703                    .dwpsn  file "C:/ti/ccs1110/ccs/tools/compiler/ti-cgt-msp430_21.6.1.LTS/include/_defs.h",line 
MSP430 Assembler PC v21.6.1 Tue Dec 20 13:45:56 2022

Copyright (c) 2003-2018 Texas Instruments Incorporated
Air_Compressors.asm                                                  PAGE   14

     704            
     705                    .dwfde $C$DW$CIE, __isnormal
     706            $C$DW$42        .dwtag  DW_TAG_formal_parameter
     707                    .dwattr $C$DW$42, DW_AT_name("d")
     708                    .dwattr $C$DW$42, DW_AT_TI_symbol_name("d")
     709                    .dwattr $C$DW$42, DW_AT_type(*$C$DW$T$17)
     710                    .dwattr $C$DW$42, DW_AT_location[DW_OP_reg12 DW_OP_piece 2 DW_OP_reg13 DW_OP_piece 2 DW_OP_reg
     711            
     712            
     713            ;*****************************************************************************
     714            ;* FUNCTION NAME: __isnormal                                                 *
     715            ;*                                                                           *
     716            ;*   Regs Modified     : SP,SR,r6,r7,r8,r9,r10,r11,r12,r13,r14,r15           *
     717            ;*   Regs Used         : SP,SR,r6,r7,r8,r9,r10,r11,r12,r13,r14,r15           *
     718            ;*   Local Frame Size  : 0 Args + 0 Auto + 20 Save = 20 byte                 *
     719            ;*****************************************************************************
     720 000000       __isnormal:
     721            ;* --------------------------------------------------------------------------*
     722                    .dwcfi  cfa_offset, 4
     723                    .dwcfi  save_reg_to_mem, 16, -4
     724 000000 144A          PUSHM.A   #5,r10                ; [] 
     725                    .dwcfi  save_reg_to_mem, 10, -8
     726                    .dwcfi  save_reg_to_mem, 9, -12
     727                    .dwcfi  save_reg_to_mem, 8, -16
     728                    .dwcfi  save_reg_to_mem, 7, -20
     729                    .dwcfi  save_reg_to_mem, 6, -24
     730                    .dwcfi  cfa_offset, 24
     731            ;* r6    assigned to $O$S1
     732            ;* r12   assigned to d
     733            $C$DW$43        .dwtag  DW_TAG_variable
     734                    .dwattr $C$DW$43, DW_AT_name("d")
     735                    .dwattr $C$DW$43, DW_AT_TI_symbol_name("d")
     736                    .dwattr $C$DW$43, DW_AT_type(*$C$DW$T$17)
     737                    .dwattr $C$DW$43, DW_AT_location[DW_OP_reg12 DW_OP_piece 2 DW_OP_reg13 DW_OP_piece 2 DW_OP_reg
     738            
     739 000002 0FC7          MOVA      r15,r7                ; [] |352| 
     740                    .dwpsn  file "C:/ti/ccs1110/ccs/tools/compiler/ti-cgt-msp430_21.6.1.LTS/include/_defs.h",line 
     741 000004 4306          MOV.W     #0,r6                 ; [] |352| 
     742 000006 0CC8          MOVA      r12,r8                ; [] |352| 
     743 000008 0DC9          MOVA      r13,r9                ; [] |352| 
     744 00000a 0ECA          MOVA      r14,r10               ; [] |352| 
     745 00000c 07CB          MOVA      r7,r11                ; [] |352| 
     746 00000e 403C          MOV.W     #52,r12               ; [] |352| 
         000010 0034 
     747            $C$DW$44        .dwtag  DW_TAG_TI_branch
     748                    .dwattr $C$DW$44, DW_AT_low_pc(0x00)
     749                    .dwattr $C$DW$44, DW_AT_name("__mspabi_srlll")
     750                    .dwattr $C$DW$44, DW_AT_TI_call
     751            
     752 000012 13B0!         CALLA     #__mspabi_srlll       ; [] |352| 
         000014 0000 
     753                                                      ; [] |352| 
     754 000016 F03C          AND.W     #2047,r12             ; [] |352| 
         000018 07FF 
     755 00001a F30D          AND.W     #0,r13                ; [] |352| 
MSP430 Assembler PC v21.6.1 Tue Dec 20 13:45:56 2022

Copyright (c) 2003-2018 Texas Instruments Incorporated
Air_Compressors.asm                                                  PAGE   15

     756 00001c F30E          AND.W     #0,r14                ; [] |352| 
     757 00001e F30F          AND.W     #0,r15                ; [] |352| 
     758 000020 930F          TST.W     r15                   ; [] |352| 
     759 000022 2006          JNE       $C$L9                 ; [] |352| 
     760                                                      ; [] |352| 
     761            ;* --------------------------------------------------------------------------*
     762 000024 930E          TST.W     r14                   ; [] |352| 
     763 000026 2004          JNE       $C$L9                 ; [] |352| 
     764                                                      ; [] |352| 
     765            ;* --------------------------------------------------------------------------*
     766 000028 930D          TST.W     r13                   ; [] |352| 
     767 00002a 2002          JNE       $C$L9                 ; [] |352| 
     768                                                      ; [] |352| 
     769            ;* --------------------------------------------------------------------------*
     770 00002c 930C          TST.W     r12                   ; [] |352| 
     771 00002e 2406          JEQ       $C$L10                ; [] |352| 
     772                                                      ; [] |352| 
     773            ;* --------------------------------------------------------------------------*
     774 000030       $C$L9:    
     775 000030 F037          AND.W     #32752,r7             ; [] |352| 
         000032 7FF0 
     776 000034 9037          CMP.W     #32752,r7             ; [] |352| 
         000036 7FF0 
     777 000038 2401          JEQ       $C$L10                ; [] |352| 
     778                                                      ; [] |352| 
     779            ;* --------------------------------------------------------------------------*
     780 00003a 4316          MOV.W     #1,r6                 ; [] |352| 
     781            ;* --------------------------------------------------------------------------*
     782 00003c       $C$L10:    
     783 00003c 06CC          MOVA      r6,r12                ; [] |352| 
     784                    .dwpsn  file "C:/ti/ccs1110/ccs/tools/compiler/ti-cgt-msp430_21.6.1.LTS/include/_defs.h",line 
     785 00003e 1646          POPM.A    #5,r10                ; [] 
     786                    .dwcfi  restore_reg, 6
     787                    .dwcfi  restore_reg, 7
     788                    .dwcfi  restore_reg, 8
     789                    .dwcfi  restore_reg, 9
     790                    .dwcfi  restore_reg, 10
     791                    .dwcfi  cfa_offset, 4
     792            $C$DW$45        .dwtag  DW_TAG_TI_branch
     793                    .dwattr $C$DW$45, DW_AT_low_pc(0x00)
     794                    .dwattr $C$DW$45, DW_AT_TI_return
     795            
     796 000040 0110          RETA      ; [] 
     797                    ; [] 
     798                    .dwattr $C$DW$41, DW_AT_TI_end_file("C:/ti/ccs1110/ccs/tools/compiler/ti-cgt-msp430_21.6.1.LTS
     799                    .dwattr $C$DW$41, DW_AT_TI_end_line(0x161)
     800                    .dwattr $C$DW$41, DW_AT_TI_end_column(0x30)
     801                    .dwendentry
     802                    .dwendtag $C$DW$41
     803            
     804 000000               .sect   ".text:__isnanl"
     805                    .clink
     806                    .global __isnanl
     807            
     808            $C$DW$46        .dwtag  DW_TAG_subprogram
MSP430 Assembler PC v21.6.1 Tue Dec 20 13:45:56 2022

Copyright (c) 2003-2018 Texas Instruments Incorporated
Air_Compressors.asm                                                  PAGE   16

     809                    .dwattr $C$DW$46, DW_AT_name("__isnanl")
     810                    .dwattr $C$DW$46, DW_AT_low_pc(__isnanl)
     811                    .dwattr $C$DW$46, DW_AT_high_pc(0x00)
     812                    .dwattr $C$DW$46, DW_AT_TI_symbol_name("__isnanl")
     813                    .dwattr $C$DW$46, DW_AT_external
     814                    .dwattr $C$DW$46, DW_AT_type(*$C$DW$T$10)
     815                    .dwattr $C$DW$46, DW_AT_TI_begin_file("C:/ti/ccs1110/ccs/tools/compiler/ti-cgt-msp430_21.6.1.L
     816                    .dwattr $C$DW$46, DW_AT_TI_begin_line(0x15b)
     817                    .dwattr $C$DW$46, DW_AT_TI_begin_column(0x25)
     818                    .dwattr $C$DW$46, DW_AT_decl_file("C:/ti/ccs1110/ccs/tools/compiler/ti-cgt-msp430_21.6.1.LTS/i
     819                    .dwattr $C$DW$46, DW_AT_decl_line(0x15b)
     820                    .dwattr $C$DW$46, DW_AT_decl_column(0x25)
     821                    .dwattr $C$DW$46, DW_AT_TI_max_frame_size(0x08)
     822                    .dwpsn  file "C:/ti/ccs1110/ccs/tools/compiler/ti-cgt-msp430_21.6.1.LTS/include/_defs.h",line 
     823            
     824                    .dwfde $C$DW$CIE, __isnanl
     825            $C$DW$47        .dwtag  DW_TAG_formal_parameter
     826                    .dwattr $C$DW$47, DW_AT_name("e")
     827                    .dwattr $C$DW$47, DW_AT_TI_symbol_name("e")
     828                    .dwattr $C$DW$47, DW_AT_type(*$C$DW$T$18)
     829                    .dwattr $C$DW$47, DW_AT_location[DW_OP_reg12 DW_OP_piece 2 DW_OP_reg13 DW_OP_piece 2 DW_OP_reg
     830            
     831            
     832            ;*****************************************************************************
     833            ;* FUNCTION NAME: __isnanl                                                   *
     834            ;*                                                                           *
     835            ;*   Regs Modified     : SP,SR,r10,r11,r12,r13,r14,r15                       *
     836            ;*   Regs Used         : SP,SR,r10,r11,r12,r13,r14,r15                       *
     837            ;*   Local Frame Size  : 0 Args + 0 Auto + 4 Save = 4 byte                   *
     838            ;*****************************************************************************
     839 000000       __isnanl:
     840            ;* --------------------------------------------------------------------------*
     841                    .dwcfi  cfa_offset, 4
     842                    .dwcfi  save_reg_to_mem, 16, -4
     843 000000 140A          PUSHM.A   #1,r10                ; [] 
     844                    .dwcfi  save_reg_to_mem, 10, -8
     845                    .dwcfi  cfa_offset, 8
     846            ;* r11   assigned to $O$S1
     847                    .dwpsn  file "C:/ti/ccs1110/ccs/tools/compiler/ti-cgt-msp430_21.6.1.LTS/include/_defs.h",line 
     848 000002 430B          MOV.W     #0,r11                ; [] |348| 
     849 000004 0FCA          MOVA      r15,r10               ; [] |348| 
     850 000006 F03A          AND.W     #32752,r10            ; [] |348| 
         000008 7FF0 
     851 00000a 903A          CMP.W     #32752,r10            ; [] |348| 
         00000c 7FF0 
     852 00000e 200E          JNE       $C$L12                ; [] |348| 
     853                                                      ; [] |348| 
     854            ;* --------------------------------------------------------------------------*
     855 000010 F33C          AND.W     #65535,r12            ; [] |348| 
     856 000012 F33D          AND.W     #65535,r13            ; [] |348| 
     857 000014 F33E          AND.W     #65535,r14            ; [] |348| 
     858 000016 F03F          AND.W     #15,r15               ; [] |348| 
         000018 000F 
     859 00001a 930F          TST.W     r15                   ; [] |348| 
     860 00001c 2006          JNE       $C$L11                ; [] |348| 
MSP430 Assembler PC v21.6.1 Tue Dec 20 13:45:56 2022

Copyright (c) 2003-2018 Texas Instruments Incorporated
Air_Compressors.asm                                                  PAGE   17

     861                                                      ; [] |348| 
     862            ;* --------------------------------------------------------------------------*
     863 00001e 930E          TST.W     r14                   ; [] |348| 
     864 000020 2004          JNE       $C$L11                ; [] |348| 
     865                                                      ; [] |348| 
     866            ;* --------------------------------------------------------------------------*
     867 000022 930D          TST.W     r13                   ; [] |348| 
     868 000024 2002          JNE       $C$L11                ; [] |348| 
     869                                                      ; [] |348| 
     870            ;* --------------------------------------------------------------------------*
     871 000026 930C          TST.W     r12                   ; [] |348| 
     872 000028 2401          JEQ       $C$L12                ; [] |348| 
     873                                                      ; [] |348| 
     874            ;* --------------------------------------------------------------------------*
     875 00002a       $C$L11:    
     876 00002a 431B          MOV.W     #1,r11                ; [] |348| 
     877            ;* --------------------------------------------------------------------------*
     878 00002c       $C$L12:    
     879 00002c 0BCC          MOVA      r11,r12               ; [] |348| 
     880                    .dwpsn  file "C:/ti/ccs1110/ccs/tools/compiler/ti-cgt-msp430_21.6.1.LTS/include/_defs.h",line 
     881 00002e 160A          POPM.A    #1,r10                ; [] 
     882                    .dwcfi  restore_reg, 10
     883                    .dwcfi  cfa_offset, 4
     884            $C$DW$48        .dwtag  DW_TAG_TI_branch
     885                    .dwattr $C$DW$48, DW_AT_low_pc(0x00)
     886                    .dwattr $C$DW$48, DW_AT_TI_return
     887            
     888 000030 0110          RETA      ; [] 
     889                    ; [] 
     890                    .dwattr $C$DW$46, DW_AT_TI_end_file("C:/ti/ccs1110/ccs/tools/compiler/ti-cgt-msp430_21.6.1.LTS
     891                    .dwattr $C$DW$46, DW_AT_TI_end_line(0x15d)
     892                    .dwattr $C$DW$46, DW_AT_TI_end_column(0x30)
     893                    .dwendentry
     894                    .dwendtag $C$DW$46
     895            
     896 000000               .sect   ".text:__isnanf"
     897                    .clink
     898                    .global __isnanf
     899            
     900            $C$DW$49        .dwtag  DW_TAG_subprogram
     901                    .dwattr $C$DW$49, DW_AT_name("__isnanf")
     902                    .dwattr $C$DW$49, DW_AT_low_pc(__isnanf)
     903                    .dwattr $C$DW$49, DW_AT_high_pc(0x00)
     904                    .dwattr $C$DW$49, DW_AT_TI_symbol_name("__isnanf")
     905                    .dwattr $C$DW$49, DW_AT_external
     906                    .dwattr $C$DW$49, DW_AT_type(*$C$DW$T$10)
     907                    .dwattr $C$DW$49, DW_AT_TI_begin_file("C:/ti/ccs1110/ccs/tools/compiler/ti-cgt-msp430_21.6.1.L
     908                    .dwattr $C$DW$49, DW_AT_TI_begin_line(0x158)
     909                    .dwattr $C$DW$49, DW_AT_TI_begin_column(0x25)
     910                    .dwattr $C$DW$49, DW_AT_decl_file("C:/ti/ccs1110/ccs/tools/compiler/ti-cgt-msp430_21.6.1.LTS/i
     911                    .dwattr $C$DW$49, DW_AT_decl_line(0x158)
     912                    .dwattr $C$DW$49, DW_AT_decl_column(0x25)
     913                    .dwattr $C$DW$49, DW_AT_TI_max_frame_size(0x04)
     914                    .dwpsn  file "C:/ti/ccs1110/ccs/tools/compiler/ti-cgt-msp430_21.6.1.LTS/include/_defs.h",line 
     915            
MSP430 Assembler PC v21.6.1 Tue Dec 20 13:45:56 2022

Copyright (c) 2003-2018 Texas Instruments Incorporated
Air_Compressors.asm                                                  PAGE   18

     916                    .dwfde $C$DW$CIE, __isnanf
     917            $C$DW$50        .dwtag  DW_TAG_formal_parameter
     918                    .dwattr $C$DW$50, DW_AT_name("f")
     919                    .dwattr $C$DW$50, DW_AT_TI_symbol_name("f")
     920                    .dwattr $C$DW$50, DW_AT_type(*$C$DW$T$16)
     921                    .dwattr $C$DW$50, DW_AT_location[DW_OP_reg12 DW_OP_piece 2 DW_OP_reg13 DW_OP_piece 2]
     922            
     923            
     924            ;*****************************************************************************
     925            ;* FUNCTION NAME: __isnanf                                                   *
     926            ;*                                                                           *
     927            ;*   Regs Modified     : SP,SR,r12,r13,r14,r15                               *
     928            ;*   Regs Used         : SP,SR,r12,r13,r14,r15                               *
     929            ;*   Local Frame Size  : 0 Args + 0 Auto + 0 Save = 0 byte                   *
     930            ;*****************************************************************************
     931 000000       __isnanf:
     932            ;* --------------------------------------------------------------------------*
     933                    .dwcfi  cfa_offset, 4
     934                    .dwcfi  save_reg_to_mem, 16, -4
     935            ;* r15   assigned to $O$S1
     936                    .dwpsn  file "C:/ti/ccs1110/ccs/tools/compiler/ti-cgt-msp430_21.6.1.LTS/include/_defs.h",line 
     937 000000 430F          MOV.W     #0,r15                ; [] |345| 
     938 000002 0DCE          MOVA      r13,r14               ; [] |345| 
     939 000004 F03E          AND.W     #32640,r14            ; [] |345| 
         000006 7F80 
     940 000008 903E          CMP.W     #32640,r14            ; [] |345| 
         00000a 7F80 
     941 00000c 2008          JNE       $C$L14                ; [] |345| 
     942                                                      ; [] |345| 
     943            ;* --------------------------------------------------------------------------*
     944 00000e F33C          AND.W     #65535,r12            ; [] |345| 
     945 000010 F03D          AND.W     #127,r13              ; [] |345| 
         000012 007F 
     946 000014 930D          TST.W     r13                   ; [] |345| 
     947 000016 2002          JNE       $C$L13                ; [] |345| 
     948                                                      ; [] |345| 
     949            ;* --------------------------------------------------------------------------*
     950 000018 930C          TST.W     r12                   ; [] |345| 
     951 00001a 2401          JEQ       $C$L14                ; [] |345| 
     952                                                      ; [] |345| 
     953            ;* --------------------------------------------------------------------------*
     954 00001c       $C$L13:    
     955 00001c 431F          MOV.W     #1,r15                ; [] |345| 
     956            ;* --------------------------------------------------------------------------*
     957 00001e       $C$L14:    
     958 00001e 0FCC          MOVA      r15,r12               ; [] |345| 
     959                    .dwpsn  file "C:/ti/ccs1110/ccs/tools/compiler/ti-cgt-msp430_21.6.1.LTS/include/_defs.h",line 
     960            $C$DW$51        .dwtag  DW_TAG_TI_branch
     961                    .dwattr $C$DW$51, DW_AT_low_pc(0x00)
     962                    .dwattr $C$DW$51, DW_AT_TI_return
     963            
     964 000020 0110          RETA      ; [] 
     965                    ; [] 
     966                    .dwattr $C$DW$49, DW_AT_TI_end_file("C:/ti/ccs1110/ccs/tools/compiler/ti-cgt-msp430_21.6.1.LTS
     967                    .dwattr $C$DW$49, DW_AT_TI_end_line(0x15a)
MSP430 Assembler PC v21.6.1 Tue Dec 20 13:45:56 2022

Copyright (c) 2003-2018 Texas Instruments Incorporated
Air_Compressors.asm                                                  PAGE   19

     968                    .dwattr $C$DW$49, DW_AT_TI_end_column(0x2e)
     969                    .dwendentry
     970                    .dwendtag $C$DW$49
     971            
     972 000000               .sect   ".text:__isnan"
     973                    .clink
     974                    .global __isnan
     975            
     976            $C$DW$52        .dwtag  DW_TAG_subprogram
     977                    .dwattr $C$DW$52, DW_AT_name("__isnan")
     978                    .dwattr $C$DW$52, DW_AT_low_pc(__isnan)
     979                    .dwattr $C$DW$52, DW_AT_high_pc(0x00)
     980                    .dwattr $C$DW$52, DW_AT_TI_symbol_name("__isnan")
     981                    .dwattr $C$DW$52, DW_AT_external
     982                    .dwattr $C$DW$52, DW_AT_type(*$C$DW$T$10)
     983                    .dwattr $C$DW$52, DW_AT_TI_begin_file("C:/ti/ccs1110/ccs/tools/compiler/ti-cgt-msp430_21.6.1.L
     984                    .dwattr $C$DW$52, DW_AT_TI_begin_line(0x155)
     985                    .dwattr $C$DW$52, DW_AT_TI_begin_column(0x25)
     986                    .dwattr $C$DW$52, DW_AT_decl_file("C:/ti/ccs1110/ccs/tools/compiler/ti-cgt-msp430_21.6.1.LTS/i
     987                    .dwattr $C$DW$52, DW_AT_decl_line(0x155)
     988                    .dwattr $C$DW$52, DW_AT_decl_column(0x25)
     989                    .dwattr $C$DW$52, DW_AT_TI_max_frame_size(0x08)
     990                    .dwpsn  file "C:/ti/ccs1110/ccs/tools/compiler/ti-cgt-msp430_21.6.1.LTS/include/_defs.h",line 
     991            
     992                    .dwfde $C$DW$CIE, __isnan
     993            $C$DW$53        .dwtag  DW_TAG_formal_parameter
     994                    .dwattr $C$DW$53, DW_AT_name("d")
     995                    .dwattr $C$DW$53, DW_AT_TI_symbol_name("d")
     996                    .dwattr $C$DW$53, DW_AT_type(*$C$DW$T$17)
     997                    .dwattr $C$DW$53, DW_AT_location[DW_OP_reg12 DW_OP_piece 2 DW_OP_reg13 DW_OP_piece 2 DW_OP_reg
     998            
     999            
    1000            ;*****************************************************************************
    1001            ;* FUNCTION NAME: __isnan                                                    *
    1002            ;*                                                                           *
    1003            ;*   Regs Modified     : SP,SR,r10,r11,r12,r13,r14,r15                       *
    1004            ;*   Regs Used         : SP,SR,r10,r11,r12,r13,r14,r15                       *
    1005            ;*   Local Frame Size  : 0 Args + 0 Auto + 4 Save = 4 byte                   *
    1006            ;*****************************************************************************
    1007 000000       __isnan:
    1008            ;* --------------------------------------------------------------------------*
    1009                    .dwcfi  cfa_offset, 4
    1010                    .dwcfi  save_reg_to_mem, 16, -4
    1011 000000 140A          PUSHM.A   #1,r10                ; [] 
    1012                    .dwcfi  save_reg_to_mem, 10, -8
    1013                    .dwcfi  cfa_offset, 8
    1014            ;* r11   assigned to $O$S1
    1015                    .dwpsn  file "C:/ti/ccs1110/ccs/tools/compiler/ti-cgt-msp430_21.6.1.LTS/include/_defs.h",line 
    1016 000002 430B          MOV.W     #0,r11                ; [] |342| 
    1017 000004 0FCA          MOVA      r15,r10               ; [] |342| 
    1018 000006 F03A          AND.W     #32752,r10            ; [] |342| 
         000008 7FF0 
    1019 00000a 903A          CMP.W     #32752,r10            ; [] |342| 
         00000c 7FF0 
    1020 00000e 200E          JNE       $C$L16                ; [] |342| 
MSP430 Assembler PC v21.6.1 Tue Dec 20 13:45:56 2022

Copyright (c) 2003-2018 Texas Instruments Incorporated
Air_Compressors.asm                                                  PAGE   20

    1021                                                      ; [] |342| 
    1022            ;* --------------------------------------------------------------------------*
    1023 000010 F33C          AND.W     #65535,r12            ; [] |342| 
    1024 000012 F33D          AND.W     #65535,r13            ; [] |342| 
    1025 000014 F33E          AND.W     #65535,r14            ; [] |342| 
    1026 000016 F03F          AND.W     #15,r15               ; [] |342| 
         000018 000F 
    1027 00001a 930F          TST.W     r15                   ; [] |342| 
    1028 00001c 2006          JNE       $C$L15                ; [] |342| 
    1029                                                      ; [] |342| 
    1030            ;* --------------------------------------------------------------------------*
    1031 00001e 930E          TST.W     r14                   ; [] |342| 
    1032 000020 2004          JNE       $C$L15                ; [] |342| 
    1033                                                      ; [] |342| 
    1034            ;* --------------------------------------------------------------------------*
    1035 000022 930D          TST.W     r13                   ; [] |342| 
    1036 000024 2002          JNE       $C$L15                ; [] |342| 
    1037                                                      ; [] |342| 
    1038            ;* --------------------------------------------------------------------------*
    1039 000026 930C          TST.W     r12                   ; [] |342| 
    1040 000028 2401          JEQ       $C$L16                ; [] |342| 
    1041                                                      ; [] |342| 
    1042            ;* --------------------------------------------------------------------------*
    1043 00002a       $C$L15:    
    1044 00002a 431B          MOV.W     #1,r11                ; [] |342| 
    1045            ;* --------------------------------------------------------------------------*
    1046 00002c       $C$L16:    
    1047 00002c 0BCC          MOVA      r11,r12               ; [] |342| 
    1048                    .dwpsn  file "C:/ti/ccs1110/ccs/tools/compiler/ti-cgt-msp430_21.6.1.LTS/include/_defs.h",line 
    1049 00002e 160A          POPM.A    #1,r10                ; [] 
    1050                    .dwcfi  restore_reg, 10
    1051                    .dwcfi  cfa_offset, 4
    1052            $C$DW$54        .dwtag  DW_TAG_TI_branch
    1053                    .dwattr $C$DW$54, DW_AT_low_pc(0x00)
    1054                    .dwattr $C$DW$54, DW_AT_TI_return
    1055            
    1056 000030 0110          RETA      ; [] 
    1057                    ; [] 
    1058                    .dwattr $C$DW$52, DW_AT_TI_end_file("C:/ti/ccs1110/ccs/tools/compiler/ti-cgt-msp430_21.6.1.LTS
    1059                    .dwattr $C$DW$52, DW_AT_TI_end_line(0x157)
    1060                    .dwattr $C$DW$52, DW_AT_TI_end_column(0x2f)
    1061                    .dwendentry
    1062                    .dwendtag $C$DW$52
    1063            
    1064 000000               .sect   ".text:__isinfl"
    1065                    .clink
    1066                    .global __isinfl
    1067            
    1068            $C$DW$55        .dwtag  DW_TAG_subprogram
    1069                    .dwattr $C$DW$55, DW_AT_name("__isinfl")
    1070                    .dwattr $C$DW$55, DW_AT_low_pc(__isinfl)
    1071                    .dwattr $C$DW$55, DW_AT_high_pc(0x00)
    1072                    .dwattr $C$DW$55, DW_AT_TI_symbol_name("__isinfl")
    1073                    .dwattr $C$DW$55, DW_AT_external
    1074                    .dwattr $C$DW$55, DW_AT_type(*$C$DW$T$10)
MSP430 Assembler PC v21.6.1 Tue Dec 20 13:45:56 2022

Copyright (c) 2003-2018 Texas Instruments Incorporated
Air_Compressors.asm                                                  PAGE   21

    1075                    .dwattr $C$DW$55, DW_AT_TI_begin_file("C:/ti/ccs1110/ccs/tools/compiler/ti-cgt-msp430_21.6.1.L
    1076                    .dwattr $C$DW$55, DW_AT_TI_begin_line(0x17a)
    1077                    .dwattr $C$DW$55, DW_AT_TI_begin_column(0x25)
    1078                    .dwattr $C$DW$55, DW_AT_decl_file("C:/ti/ccs1110/ccs/tools/compiler/ti-cgt-msp430_21.6.1.LTS/i
    1079                    .dwattr $C$DW$55, DW_AT_decl_line(0x17a)
    1080                    .dwattr $C$DW$55, DW_AT_decl_column(0x25)
    1081                    .dwattr $C$DW$55, DW_AT_TI_max_frame_size(0x08)
    1082                    .dwpsn  file "C:/ti/ccs1110/ccs/tools/compiler/ti-cgt-msp430_21.6.1.LTS/include/_defs.h",line 
    1083            
    1084                    .dwfde $C$DW$CIE, __isinfl
    1085            $C$DW$56        .dwtag  DW_TAG_formal_parameter
    1086                    .dwattr $C$DW$56, DW_AT_name("e")
    1087                    .dwattr $C$DW$56, DW_AT_TI_symbol_name("e")
    1088                    .dwattr $C$DW$56, DW_AT_type(*$C$DW$T$18)
    1089                    .dwattr $C$DW$56, DW_AT_location[DW_OP_reg12 DW_OP_piece 2 DW_OP_reg13 DW_OP_piece 2 DW_OP_reg
    1090            
    1091            
    1092            ;*****************************************************************************
    1093            ;* FUNCTION NAME: __isinfl                                                   *
    1094            ;*                                                                           *
    1095            ;*   Regs Modified     : SP,SR,r10,r11,r12,r13,r14,r15                       *
    1096            ;*   Regs Used         : SP,SR,r10,r11,r12,r13,r14,r15                       *
    1097            ;*   Local Frame Size  : 0 Args + 0 Auto + 4 Save = 4 byte                   *
    1098            ;*****************************************************************************
    1099 000000       __isinfl:
    1100            ;* --------------------------------------------------------------------------*
    1101                    .dwcfi  cfa_offset, 4
    1102                    .dwcfi  save_reg_to_mem, 16, -4
    1103 000000 140A          PUSHM.A   #1,r10                ; [] 
    1104                    .dwcfi  save_reg_to_mem, 10, -8
    1105                    .dwcfi  cfa_offset, 8
    1106            ;* r11   assigned to $O$S1
    1107                    .dwpsn  file "C:/ti/ccs1110/ccs/tools/compiler/ti-cgt-msp430_21.6.1.LTS/include/_defs.h",line 
    1108 000002 430B          MOV.W     #0,r11                ; [] |379| 
    1109 000004 0FCA          MOVA      r15,r10               ; [] |379| 
    1110 000006 F03A          AND.W     #32752,r10            ; [] |379| 
         000008 7FF0 
    1111 00000a 903A          CMP.W     #32752,r10            ; [] |379| 
         00000c 7FF0 
    1112 00000e 200E          JNE       $C$L17                ; [] |379| 
    1113                                                      ; [] |379| 
    1114            ;* --------------------------------------------------------------------------*
    1115 000010 F33C          AND.W     #65535,r12            ; [] |379| 
    1116 000012 F33D          AND.W     #65535,r13            ; [] |379| 
    1117 000014 F33E          AND.W     #65535,r14            ; [] |379| 
    1118 000016 F03F          AND.W     #15,r15               ; [] |379| 
         000018 000F 
    1119 00001a 930F          TST.W     r15                   ; [] |379| 
    1120 00001c 2007          JNE       $C$L17                ; [] |379| 
    1121                                                      ; [] |379| 
    1122            ;* --------------------------------------------------------------------------*
    1123 00001e 930E          TST.W     r14                   ; [] |379| 
    1124 000020 2005          JNE       $C$L17                ; [] |379| 
    1125                                                      ; [] |379| 
    1126            ;* --------------------------------------------------------------------------*
MSP430 Assembler PC v21.6.1 Tue Dec 20 13:45:56 2022

Copyright (c) 2003-2018 Texas Instruments Incorporated
Air_Compressors.asm                                                  PAGE   22

    1127 000022 930D          TST.W     r13                   ; [] |379| 
    1128 000024 2003          JNE       $C$L17                ; [] |379| 
    1129                                                      ; [] |379| 
    1130            ;* --------------------------------------------------------------------------*
    1131 000026 930C          TST.W     r12                   ; [] |379| 
    1132 000028 2001          JNE       $C$L17                ; [] |379| 
    1133                                                      ; [] |379| 
    1134            ;* --------------------------------------------------------------------------*
    1135 00002a 431B          MOV.W     #1,r11                ; [] |379| 
    1136            ;* --------------------------------------------------------------------------*
    1137 00002c       $C$L17:    
    1138 00002c 0BCC          MOVA      r11,r12               ; [] |379| 
    1139                    .dwpsn  file "C:/ti/ccs1110/ccs/tools/compiler/ti-cgt-msp430_21.6.1.LTS/include/_defs.h",line 
    1140 00002e 160A          POPM.A    #1,r10                ; [] 
    1141                    .dwcfi  restore_reg, 10
    1142                    .dwcfi  cfa_offset, 4
    1143            $C$DW$57        .dwtag  DW_TAG_TI_branch
    1144                    .dwattr $C$DW$57, DW_AT_low_pc(0x00)
    1145                    .dwattr $C$DW$57, DW_AT_TI_return
    1146            
    1147 000030 0110          RETA      ; [] 
    1148                    ; [] 
    1149                    .dwattr $C$DW$55, DW_AT_TI_end_file("C:/ti/ccs1110/ccs/tools/compiler/ti-cgt-msp430_21.6.1.LTS
    1150                    .dwattr $C$DW$55, DW_AT_TI_end_line(0x17b)
    1151                    .dwattr $C$DW$55, DW_AT_TI_end_column(0x4c)
    1152                    .dwendentry
    1153                    .dwendtag $C$DW$55
    1154            
    1155 000000               .sect   ".text:__isinff"
    1156                    .clink
    1157                    .global __isinff
    1158            
    1159            $C$DW$58        .dwtag  DW_TAG_subprogram
    1160                    .dwattr $C$DW$58, DW_AT_name("__isinff")
    1161                    .dwattr $C$DW$58, DW_AT_low_pc(__isinff)
    1162                    .dwattr $C$DW$58, DW_AT_high_pc(0x00)
    1163                    .dwattr $C$DW$58, DW_AT_TI_symbol_name("__isinff")
    1164                    .dwattr $C$DW$58, DW_AT_external
    1165                    .dwattr $C$DW$58, DW_AT_type(*$C$DW$T$10)
    1166                    .dwattr $C$DW$58, DW_AT_TI_begin_file("C:/ti/ccs1110/ccs/tools/compiler/ti-cgt-msp430_21.6.1.L
    1167                    .dwattr $C$DW$58, DW_AT_TI_begin_line(0x176)
    1168                    .dwattr $C$DW$58, DW_AT_TI_begin_column(0x25)
    1169                    .dwattr $C$DW$58, DW_AT_decl_file("C:/ti/ccs1110/ccs/tools/compiler/ti-cgt-msp430_21.6.1.LTS/i
    1170                    .dwattr $C$DW$58, DW_AT_decl_line(0x176)
    1171                    .dwattr $C$DW$58, DW_AT_decl_column(0x25)
    1172                    .dwattr $C$DW$58, DW_AT_TI_max_frame_size(0x04)
    1173                    .dwpsn  file "C:/ti/ccs1110/ccs/tools/compiler/ti-cgt-msp430_21.6.1.LTS/include/_defs.h",line 
    1174            
    1175                    .dwfde $C$DW$CIE, __isinff
    1176            $C$DW$59        .dwtag  DW_TAG_formal_parameter
    1177                    .dwattr $C$DW$59, DW_AT_name("f")
    1178                    .dwattr $C$DW$59, DW_AT_TI_symbol_name("f")
    1179                    .dwattr $C$DW$59, DW_AT_type(*$C$DW$T$16)
    1180                    .dwattr $C$DW$59, DW_AT_location[DW_OP_reg12 DW_OP_piece 2 DW_OP_reg13 DW_OP_piece 2]
    1181            
MSP430 Assembler PC v21.6.1 Tue Dec 20 13:45:56 2022

Copyright (c) 2003-2018 Texas Instruments Incorporated
Air_Compressors.asm                                                  PAGE   23

    1182            
    1183            ;*****************************************************************************
    1184            ;* FUNCTION NAME: __isinff                                                   *
    1185            ;*                                                                           *
    1186            ;*   Regs Modified     : SP,SR,r12,r13,r14,r15                               *
    1187            ;*   Regs Used         : SP,SR,r12,r13,r14,r15                               *
    1188            ;*   Local Frame Size  : 0 Args + 0 Auto + 0 Save = 0 byte                   *
    1189            ;*****************************************************************************
    1190 000000       __isinff:
    1191            ;* --------------------------------------------------------------------------*
    1192                    .dwcfi  cfa_offset, 4
    1193                    .dwcfi  save_reg_to_mem, 16, -4
    1194            ;* r15   assigned to $O$S1
    1195                    .dwpsn  file "C:/ti/ccs1110/ccs/tools/compiler/ti-cgt-msp430_21.6.1.LTS/include/_defs.h",line 
    1196 000000 430F          MOV.W     #0,r15                ; [] |375| 
    1197 000002 0DCE          MOVA      r13,r14               ; [] |375| 
    1198 000004 F03E          AND.W     #32640,r14            ; [] |375| 
         000006 7F80 
    1199 000008 903E          CMP.W     #32640,r14            ; [] |375| 
         00000a 7F80 
    1200 00000c 2008          JNE       $C$L18                ; [] |375| 
    1201                                                      ; [] |375| 
    1202            ;* --------------------------------------------------------------------------*
    1203 00000e F33C          AND.W     #65535,r12            ; [] |375| 
    1204 000010 F03D          AND.W     #127,r13              ; [] |375| 
         000012 007F 
    1205 000014 930D          TST.W     r13                   ; [] |375| 
    1206 000016 2003          JNE       $C$L18                ; [] |375| 
    1207                                                      ; [] |375| 
    1208            ;* --------------------------------------------------------------------------*
    1209 000018 930C          TST.W     r12                   ; [] |375| 
    1210 00001a 2001          JNE       $C$L18                ; [] |375| 
    1211                                                      ; [] |375| 
    1212            ;* --------------------------------------------------------------------------*
    1213 00001c 431F          MOV.W     #1,r15                ; [] |375| 
    1214            ;* --------------------------------------------------------------------------*
    1215 00001e       $C$L18:    
    1216 00001e 0FCC          MOVA      r15,r12               ; [] |375| 
    1217                    .dwpsn  file "C:/ti/ccs1110/ccs/tools/compiler/ti-cgt-msp430_21.6.1.LTS/include/_defs.h",line 
    1218            $C$DW$60        .dwtag  DW_TAG_TI_branch
    1219                    .dwattr $C$DW$60, DW_AT_low_pc(0x00)
    1220                    .dwattr $C$DW$60, DW_AT_TI_return
    1221            
    1222 000020 0110          RETA      ; [] 
    1223                    ; [] 
    1224                    .dwattr $C$DW$58, DW_AT_TI_end_file("C:/ti/ccs1110/ccs/tools/compiler/ti-cgt-msp430_21.6.1.LTS
    1225                    .dwattr $C$DW$58, DW_AT_TI_end_line(0x177)
    1226                    .dwattr $C$DW$58, DW_AT_TI_end_column(0x48)
    1227                    .dwendentry
    1228                    .dwendtag $C$DW$58
    1229            
    1230 000000               .sect   ".text:__isinf"
    1231                    .clink
    1232                    .global __isinf
    1233            
MSP430 Assembler PC v21.6.1 Tue Dec 20 13:45:56 2022

Copyright (c) 2003-2018 Texas Instruments Incorporated
Air_Compressors.asm                                                  PAGE   24

    1234            $C$DW$61        .dwtag  DW_TAG_subprogram
    1235                    .dwattr $C$DW$61, DW_AT_name("__isinf")
    1236                    .dwattr $C$DW$61, DW_AT_low_pc(__isinf)
    1237                    .dwattr $C$DW$61, DW_AT_high_pc(0x00)
    1238                    .dwattr $C$DW$61, DW_AT_TI_symbol_name("__isinf")
    1239                    .dwattr $C$DW$61, DW_AT_external
    1240                    .dwattr $C$DW$61, DW_AT_type(*$C$DW$T$10)
    1241                    .dwattr $C$DW$61, DW_AT_TI_begin_file("C:/ti/ccs1110/ccs/tools/compiler/ti-cgt-msp430_21.6.1.L
    1242                    .dwattr $C$DW$61, DW_AT_TI_begin_line(0x178)
    1243                    .dwattr $C$DW$61, DW_AT_TI_begin_column(0x25)
    1244                    .dwattr $C$DW$61, DW_AT_decl_file("C:/ti/ccs1110/ccs/tools/compiler/ti-cgt-msp430_21.6.1.LTS/i
    1245                    .dwattr $C$DW$61, DW_AT_decl_line(0x178)
    1246                    .dwattr $C$DW$61, DW_AT_decl_column(0x25)
    1247                    .dwattr $C$DW$61, DW_AT_TI_max_frame_size(0x08)
    1248                    .dwpsn  file "C:/ti/ccs1110/ccs/tools/compiler/ti-cgt-msp430_21.6.1.LTS/include/_defs.h",line 
    1249            
    1250                    .dwfde $C$DW$CIE, __isinf
    1251            $C$DW$62        .dwtag  DW_TAG_formal_parameter
    1252                    .dwattr $C$DW$62, DW_AT_name("d")
    1253                    .dwattr $C$DW$62, DW_AT_TI_symbol_name("d")
    1254                    .dwattr $C$DW$62, DW_AT_type(*$C$DW$T$17)
    1255                    .dwattr $C$DW$62, DW_AT_location[DW_OP_reg12 DW_OP_piece 2 DW_OP_reg13 DW_OP_piece 2 DW_OP_reg
    1256            
    1257            
    1258            ;*****************************************************************************
    1259            ;* FUNCTION NAME: __isinf                                                    *
    1260            ;*                                                                           *
    1261            ;*   Regs Modified     : SP,SR,r10,r11,r12,r13,r14,r15                       *
    1262            ;*   Regs Used         : SP,SR,r10,r11,r12,r13,r14,r15                       *
    1263            ;*   Local Frame Size  : 0 Args + 0 Auto + 4 Save = 4 byte                   *
    1264            ;*****************************************************************************
    1265 000000       __isinf:
    1266            ;* --------------------------------------------------------------------------*
    1267                    .dwcfi  cfa_offset, 4
    1268                    .dwcfi  save_reg_to_mem, 16, -4
    1269 000000 140A          PUSHM.A   #1,r10                ; [] 
    1270                    .dwcfi  save_reg_to_mem, 10, -8
    1271                    .dwcfi  cfa_offset, 8
    1272            ;* r11   assigned to $O$S1
    1273                    .dwpsn  file "C:/ti/ccs1110/ccs/tools/compiler/ti-cgt-msp430_21.6.1.LTS/include/_defs.h",line 
    1274 000002 430B          MOV.W     #0,r11                ; [] |377| 
    1275 000004 0FCA          MOVA      r15,r10               ; [] |377| 
    1276 000006 F03A          AND.W     #32752,r10            ; [] |377| 
         000008 7FF0 
    1277 00000a 903A          CMP.W     #32752,r10            ; [] |377| 
         00000c 7FF0 
    1278 00000e 200E          JNE       $C$L19                ; [] |377| 
    1279                                                      ; [] |377| 
    1280            ;* --------------------------------------------------------------------------*
    1281 000010 F33C          AND.W     #65535,r12            ; [] |377| 
    1282 000012 F33D          AND.W     #65535,r13            ; [] |377| 
    1283 000014 F33E          AND.W     #65535,r14            ; [] |377| 
    1284 000016 F03F          AND.W     #15,r15               ; [] |377| 
         000018 000F 
    1285 00001a 930F          TST.W     r15                   ; [] |377| 
MSP430 Assembler PC v21.6.1 Tue Dec 20 13:45:56 2022

Copyright (c) 2003-2018 Texas Instruments Incorporated
Air_Compressors.asm                                                  PAGE   25

    1286 00001c 2007          JNE       $C$L19                ; [] |377| 
    1287                                                      ; [] |377| 
    1288            ;* --------------------------------------------------------------------------*
    1289 00001e 930E          TST.W     r14                   ; [] |377| 
    1290 000020 2005          JNE       $C$L19                ; [] |377| 
    1291                                                      ; [] |377| 
    1292            ;* --------------------------------------------------------------------------*
    1293 000022 930D          TST.W     r13                   ; [] |377| 
    1294 000024 2003          JNE       $C$L19                ; [] |377| 
    1295                                                      ; [] |377| 
    1296            ;* --------------------------------------------------------------------------*
    1297 000026 930C          TST.W     r12                   ; [] |377| 
    1298 000028 2001          JNE       $C$L19                ; [] |377| 
    1299                                                      ; [] |377| 
    1300            ;* --------------------------------------------------------------------------*
    1301 00002a 431B          MOV.W     #1,r11                ; [] |377| 
    1302            ;* --------------------------------------------------------------------------*
    1303 00002c       $C$L19:    
    1304 00002c 0BCC          MOVA      r11,r12               ; [] |377| 
    1305                    .dwpsn  file "C:/ti/ccs1110/ccs/tools/compiler/ti-cgt-msp430_21.6.1.LTS/include/_defs.h",line 
    1306 00002e 160A          POPM.A    #1,r10                ; [] 
    1307                    .dwcfi  restore_reg, 10
    1308                    .dwcfi  cfa_offset, 4
    1309            $C$DW$63        .dwtag  DW_TAG_TI_branch
    1310                    .dwattr $C$DW$63, DW_AT_low_pc(0x00)
    1311                    .dwattr $C$DW$63, DW_AT_TI_return
    1312            
    1313 000030 0110          RETA      ; [] 
    1314                    ; [] 
    1315                    .dwattr $C$DW$61, DW_AT_TI_end_file("C:/ti/ccs1110/ccs/tools/compiler/ti-cgt-msp430_21.6.1.LTS
    1316                    .dwattr $C$DW$61, DW_AT_TI_end_line(0x179)
    1317                    .dwattr $C$DW$61, DW_AT_TI_end_column(0x4a)
    1318                    .dwendentry
    1319                    .dwendtag $C$DW$61
    1320            
    1321 000000               .sect   ".text:__isfinitel"
    1322                    .clink
    1323                    .global __isfinitel
    1324            
    1325            $C$DW$64        .dwtag  DW_TAG_subprogram
    1326                    .dwattr $C$DW$64, DW_AT_name("__isfinitel")
    1327                    .dwattr $C$DW$64, DW_AT_low_pc(__isfinitel)
    1328                    .dwattr $C$DW$64, DW_AT_high_pc(0x00)
    1329                    .dwattr $C$DW$64, DW_AT_TI_symbol_name("__isfinitel")
    1330                    .dwattr $C$DW$64, DW_AT_external
    1331                    .dwattr $C$DW$64, DW_AT_type(*$C$DW$T$10)
    1332                    .dwattr $C$DW$64, DW_AT_TI_begin_file("C:/ti/ccs1110/ccs/tools/compiler/ti-cgt-msp430_21.6.1.L
    1333                    .dwattr $C$DW$64, DW_AT_TI_begin_line(0x152)
    1334                    .dwattr $C$DW$64, DW_AT_TI_begin_column(0x25)
    1335                    .dwattr $C$DW$64, DW_AT_decl_file("C:/ti/ccs1110/ccs/tools/compiler/ti-cgt-msp430_21.6.1.LTS/i
    1336                    .dwattr $C$DW$64, DW_AT_decl_line(0x152)
    1337                    .dwattr $C$DW$64, DW_AT_decl_column(0x25)
    1338                    .dwattr $C$DW$64, DW_AT_TI_max_frame_size(0x04)
    1339                    .dwpsn  file "C:/ti/ccs1110/ccs/tools/compiler/ti-cgt-msp430_21.6.1.LTS/include/_defs.h",line 
    1340            
MSP430 Assembler PC v21.6.1 Tue Dec 20 13:45:56 2022

Copyright (c) 2003-2018 Texas Instruments Incorporated
Air_Compressors.asm                                                  PAGE   26

    1341                    .dwfde $C$DW$CIE, __isfinitel
    1342            $C$DW$65        .dwtag  DW_TAG_formal_parameter
    1343                    .dwattr $C$DW$65, DW_AT_name("e")
    1344                    .dwattr $C$DW$65, DW_AT_TI_symbol_name("e")
    1345                    .dwattr $C$DW$65, DW_AT_type(*$C$DW$T$18)
    1346                    .dwattr $C$DW$65, DW_AT_location[DW_OP_reg12 DW_OP_piece 2 DW_OP_reg13 DW_OP_piece 2 DW_OP_reg
    1347            
    1348            
    1349            ;*****************************************************************************
    1350            ;* FUNCTION NAME: __isfinitel                                                *
    1351            ;*                                                                           *
    1352            ;*   Regs Modified     : SP,SR,r12,r15                                       *
    1353            ;*   Regs Used         : SP,SR,r12,r15                                       *
    1354            ;*   Local Frame Size  : 0 Args + 0 Auto + 0 Save = 0 byte                   *
    1355            ;*****************************************************************************
    1356 000000       __isfinitel:
    1357            ;* --------------------------------------------------------------------------*
    1358                    .dwcfi  cfa_offset, 4
    1359                    .dwcfi  save_reg_to_mem, 16, -4
    1360                    .dwpsn  file "C:/ti/ccs1110/ccs/tools/compiler/ti-cgt-msp430_21.6.1.LTS/include/_defs.h",line 
    1361 000000 430C          MOV.W     #0,r12                ; [] |339| 
    1362 000002 F03F          AND.W     #32752,r15            ; [] |339| 
         000004 7FF0 
    1363 000006 903F          CMP.W     #32752,r15            ; [] |339| 
         000008 7FF0 
    1364 00000a 2401          JEQ       $C$L20                ; [] |339| 
    1365                                                      ; [] |339| 
    1366            ;* --------------------------------------------------------------------------*
    1367 00000c 431C          MOV.W     #1,r12                ; [] |339| 
    1368            ;* --------------------------------------------------------------------------*
    1369 00000e       $C$L20:    
    1370                    .dwpsn  file "C:/ti/ccs1110/ccs/tools/compiler/ti-cgt-msp430_21.6.1.LTS/include/_defs.h",line 
    1371            $C$DW$66        .dwtag  DW_TAG_TI_branch
    1372                    .dwattr $C$DW$66, DW_AT_low_pc(0x00)
    1373                    .dwattr $C$DW$66, DW_AT_TI_return
    1374            
    1375 00000e 0110          RETA      ; [] 
    1376                    ; [] 
    1377                    .dwattr $C$DW$64, DW_AT_TI_end_file("C:/ti/ccs1110/ccs/tools/compiler/ti-cgt-msp430_21.6.1.LTS
    1378                    .dwattr $C$DW$64, DW_AT_TI_end_line(0x153)
    1379                    .dwattr $C$DW$64, DW_AT_TI_end_column(0x2f)
    1380                    .dwendentry
    1381                    .dwendtag $C$DW$64
    1382            
    1383 000000               .sect   ".text:__isfinitef"
    1384                    .clink
    1385                    .global __isfinitef
    1386            
    1387            $C$DW$67        .dwtag  DW_TAG_subprogram
    1388                    .dwattr $C$DW$67, DW_AT_name("__isfinitef")
    1389                    .dwattr $C$DW$67, DW_AT_low_pc(__isfinitef)
    1390                    .dwattr $C$DW$67, DW_AT_high_pc(0x00)
    1391                    .dwattr $C$DW$67, DW_AT_TI_symbol_name("__isfinitef")
    1392                    .dwattr $C$DW$67, DW_AT_external
    1393                    .dwattr $C$DW$67, DW_AT_type(*$C$DW$T$10)
MSP430 Assembler PC v21.6.1 Tue Dec 20 13:45:56 2022

Copyright (c) 2003-2018 Texas Instruments Incorporated
Air_Compressors.asm                                                  PAGE   27

    1394                    .dwattr $C$DW$67, DW_AT_TI_begin_file("C:/ti/ccs1110/ccs/tools/compiler/ti-cgt-msp430_21.6.1.L
    1395                    .dwattr $C$DW$67, DW_AT_TI_begin_line(0x150)
    1396                    .dwattr $C$DW$67, DW_AT_TI_begin_column(0x25)
    1397                    .dwattr $C$DW$67, DW_AT_decl_file("C:/ti/ccs1110/ccs/tools/compiler/ti-cgt-msp430_21.6.1.LTS/i
    1398                    .dwattr $C$DW$67, DW_AT_decl_line(0x150)
    1399                    .dwattr $C$DW$67, DW_AT_decl_column(0x25)
    1400                    .dwattr $C$DW$67, DW_AT_TI_max_frame_size(0x04)
    1401                    .dwpsn  file "C:/ti/ccs1110/ccs/tools/compiler/ti-cgt-msp430_21.6.1.LTS/include/_defs.h",line 
    1402            
    1403                    .dwfde $C$DW$CIE, __isfinitef
    1404            $C$DW$68        .dwtag  DW_TAG_formal_parameter
    1405                    .dwattr $C$DW$68, DW_AT_name("f")
    1406                    .dwattr $C$DW$68, DW_AT_TI_symbol_name("f")
    1407                    .dwattr $C$DW$68, DW_AT_type(*$C$DW$T$16)
    1408                    .dwattr $C$DW$68, DW_AT_location[DW_OP_reg12 DW_OP_piece 2 DW_OP_reg13 DW_OP_piece 2]
    1409            
    1410            
    1411            ;*****************************************************************************
    1412            ;* FUNCTION NAME: __isfinitef                                                *
    1413            ;*                                                                           *
    1414            ;*   Regs Modified     : SP,SR,r12,r13                                       *
    1415            ;*   Regs Used         : SP,SR,r12,r13                                       *
    1416            ;*   Local Frame Size  : 0 Args + 0 Auto + 0 Save = 0 byte                   *
    1417            ;*****************************************************************************
    1418 000000       __isfinitef:
    1419            ;* --------------------------------------------------------------------------*
    1420                    .dwcfi  cfa_offset, 4
    1421                    .dwcfi  save_reg_to_mem, 16, -4
    1422                    .dwpsn  file "C:/ti/ccs1110/ccs/tools/compiler/ti-cgt-msp430_21.6.1.LTS/include/_defs.h",line 
    1423 000000 430C          MOV.W     #0,r12                ; [] |337| 
    1424 000002 F03D          AND.W     #32640,r13            ; [] |337| 
         000004 7F80 
    1425 000006 903D          CMP.W     #32640,r13            ; [] |337| 
         000008 7F80 
    1426 00000a 2401          JEQ       $C$L21                ; [] |337| 
    1427                                                      ; [] |337| 
    1428            ;* --------------------------------------------------------------------------*
    1429 00000c 431C          MOV.W     #1,r12                ; [] |337| 
    1430            ;* --------------------------------------------------------------------------*
    1431 00000e       $C$L21:    
    1432                    .dwpsn  file "C:/ti/ccs1110/ccs/tools/compiler/ti-cgt-msp430_21.6.1.LTS/include/_defs.h",line 
    1433            $C$DW$69        .dwtag  DW_TAG_TI_branch
    1434                    .dwattr $C$DW$69, DW_AT_low_pc(0x00)
    1435                    .dwattr $C$DW$69, DW_AT_TI_return
    1436            
    1437 00000e 0110          RETA      ; [] 
    1438                    ; [] 
    1439                    .dwattr $C$DW$67, DW_AT_TI_end_file("C:/ti/ccs1110/ccs/tools/compiler/ti-cgt-msp430_21.6.1.LTS
    1440                    .dwattr $C$DW$67, DW_AT_TI_end_line(0x151)
    1441                    .dwattr $C$DW$67, DW_AT_TI_end_column(0x2d)
    1442                    .dwendentry
    1443                    .dwendtag $C$DW$67
    1444            
    1445 000000               .sect   ".text:__isfinite"
    1446                    .clink
MSP430 Assembler PC v21.6.1 Tue Dec 20 13:45:56 2022

Copyright (c) 2003-2018 Texas Instruments Incorporated
Air_Compressors.asm                                                  PAGE   28

    1447                    .global __isfinite
    1448            
    1449            $C$DW$70        .dwtag  DW_TAG_subprogram
    1450                    .dwattr $C$DW$70, DW_AT_name("__isfinite")
    1451                    .dwattr $C$DW$70, DW_AT_low_pc(__isfinite)
    1452                    .dwattr $C$DW$70, DW_AT_high_pc(0x00)
    1453                    .dwattr $C$DW$70, DW_AT_TI_symbol_name("__isfinite")
    1454                    .dwattr $C$DW$70, DW_AT_external
    1455                    .dwattr $C$DW$70, DW_AT_type(*$C$DW$T$10)
    1456                    .dwattr $C$DW$70, DW_AT_TI_begin_file("C:/ti/ccs1110/ccs/tools/compiler/ti-cgt-msp430_21.6.1.L
    1457                    .dwattr $C$DW$70, DW_AT_TI_begin_line(0x14e)
    1458                    .dwattr $C$DW$70, DW_AT_TI_begin_column(0x25)
    1459                    .dwattr $C$DW$70, DW_AT_decl_file("C:/ti/ccs1110/ccs/tools/compiler/ti-cgt-msp430_21.6.1.LTS/i
    1460                    .dwattr $C$DW$70, DW_AT_decl_line(0x14e)
    1461                    .dwattr $C$DW$70, DW_AT_decl_column(0x25)
    1462                    .dwattr $C$DW$70, DW_AT_TI_max_frame_size(0x04)
    1463                    .dwpsn  file "C:/ti/ccs1110/ccs/tools/compiler/ti-cgt-msp430_21.6.1.LTS/include/_defs.h",line 
    1464            
    1465                    .dwfde $C$DW$CIE, __isfinite
    1466            $C$DW$71        .dwtag  DW_TAG_formal_parameter
    1467                    .dwattr $C$DW$71, DW_AT_name("d")
    1468                    .dwattr $C$DW$71, DW_AT_TI_symbol_name("d")
    1469                    .dwattr $C$DW$71, DW_AT_type(*$C$DW$T$17)
    1470                    .dwattr $C$DW$71, DW_AT_location[DW_OP_reg12 DW_OP_piece 2 DW_OP_reg13 DW_OP_piece 2 DW_OP_reg
    1471            
    1472            
    1473            ;*****************************************************************************
    1474            ;* FUNCTION NAME: __isfinite                                                 *
    1475            ;*                                                                           *
    1476            ;*   Regs Modified     : SP,SR,r12,r15                                       *
    1477            ;*   Regs Used         : SP,SR,r12,r15                                       *
    1478            ;*   Local Frame Size  : 0 Args + 0 Auto + 0 Save = 0 byte                   *
    1479            ;*****************************************************************************
    1480 000000       __isfinite:
    1481            ;* --------------------------------------------------------------------------*
    1482                    .dwcfi  cfa_offset, 4
    1483                    .dwcfi  save_reg_to_mem, 16, -4
    1484                    .dwpsn  file "C:/ti/ccs1110/ccs/tools/compiler/ti-cgt-msp430_21.6.1.LTS/include/_defs.h",line 
    1485 000000 430C          MOV.W     #0,r12                ; [] |335| 
    1486 000002 F03F          AND.W     #32752,r15            ; [] |335| 
         000004 7FF0 
    1487 000006 903F          CMP.W     #32752,r15            ; [] |335| 
         000008 7FF0 
    1488 00000a 2401          JEQ       $C$L22                ; [] |335| 
    1489                                                      ; [] |335| 
    1490            ;* --------------------------------------------------------------------------*
    1491 00000c 431C          MOV.W     #1,r12                ; [] |335| 
    1492            ;* --------------------------------------------------------------------------*
    1493 00000e       $C$L22:    
    1494                    .dwpsn  file "C:/ti/ccs1110/ccs/tools/compiler/ti-cgt-msp430_21.6.1.LTS/include/_defs.h",line 
    1495            $C$DW$72        .dwtag  DW_TAG_TI_branch
    1496                    .dwattr $C$DW$72, DW_AT_low_pc(0x00)
    1497                    .dwattr $C$DW$72, DW_AT_TI_return
    1498            
    1499 00000e 0110          RETA      ; [] 
MSP430 Assembler PC v21.6.1 Tue Dec 20 13:45:56 2022

Copyright (c) 2003-2018 Texas Instruments Incorporated
Air_Compressors.asm                                                  PAGE   29

    1500                    ; [] 
    1501                    .dwattr $C$DW$70, DW_AT_TI_end_file("C:/ti/ccs1110/ccs/tools/compiler/ti-cgt-msp430_21.6.1.LTS
    1502                    .dwattr $C$DW$70, DW_AT_TI_end_line(0x14f)
    1503                    .dwattr $C$DW$70, DW_AT_TI_end_column(0x2e)
    1504                    .dwendentry
    1505                    .dwendtag $C$DW$70
    1506            
    1507 000000               .sect   ".text:__fpclassifyl"
    1508                    .clink
    1509                    .global __fpclassifyl
    1510            
    1511            $C$DW$73        .dwtag  DW_TAG_subprogram
    1512                    .dwattr $C$DW$73, DW_AT_name("__fpclassifyl")
    1513                    .dwattr $C$DW$73, DW_AT_low_pc(__fpclassifyl)
    1514                    .dwattr $C$DW$73, DW_AT_high_pc(0x00)
    1515                    .dwattr $C$DW$73, DW_AT_TI_symbol_name("__fpclassifyl")
    1516                    .dwattr $C$DW$73, DW_AT_external
    1517                    .dwattr $C$DW$73, DW_AT_type(*$C$DW$T$10)
    1518                    .dwattr $C$DW$73, DW_AT_TI_begin_file("C:/ti/ccs1110/ccs/tools/compiler/ti-cgt-msp430_21.6.1.L
    1519                    .dwattr $C$DW$73, DW_AT_TI_begin_line(0x1ae)
    1520                    .dwattr $C$DW$73, DW_AT_TI_begin_column(0x25)
    1521                    .dwattr $C$DW$73, DW_AT_decl_file("C:/ti/ccs1110/ccs/tools/compiler/ti-cgt-msp430_21.6.1.LTS/i
    1522                    .dwattr $C$DW$73, DW_AT_decl_line(0x1ae)
    1523                    .dwattr $C$DW$73, DW_AT_decl_column(0x25)
    1524                    .dwattr $C$DW$73, DW_AT_TI_max_frame_size(0x20)
    1525                    .dwpsn  file "C:/ti/ccs1110/ccs/tools/compiler/ti-cgt-msp430_21.6.1.LTS/include/_defs.h",line 
    1526            
    1527                    .dwfde $C$DW$CIE, __fpclassifyl
    1528            $C$DW$74        .dwtag  DW_TAG_formal_parameter
    1529                    .dwattr $C$DW$74, DW_AT_name("e")
    1530                    .dwattr $C$DW$74, DW_AT_TI_symbol_name("e")
    1531                    .dwattr $C$DW$74, DW_AT_type(*$C$DW$T$18)
    1532                    .dwattr $C$DW$74, DW_AT_location[DW_OP_reg12 DW_OP_piece 2 DW_OP_reg13 DW_OP_piece 2 DW_OP_reg
    1533            
    1534            
    1535            ;*****************************************************************************
    1536            ;* FUNCTION NAME: __fpclassifyl                                              *
    1537            ;*                                                                           *
    1538            ;*   Regs Modified     : SP,SR,r4,r5,r6,r7,r8,r9,r10,r11,r12,r13,r14,r15     *
    1539            ;*   Regs Used         : SP,SR,r4,r5,r6,r7,r8,r9,r10,r11,r12,r13,r14,r15     *
    1540            ;*   Local Frame Size  : 0 Args + 0 Auto + 28 Save = 28 byte                 *
    1541            ;*****************************************************************************
    1542 000000       __fpclassifyl:
    1543            ;* --------------------------------------------------------------------------*
    1544                    .dwcfi  cfa_offset, 4
    1545                    .dwcfi  save_reg_to_mem, 16, -4
    1546 000000 146A          PUSHM.A   #7,r10                ; [] 
    1547                    .dwcfi  save_reg_to_mem, 10, -8
    1548                    .dwcfi  save_reg_to_mem, 9, -12
    1549                    .dwcfi  save_reg_to_mem, 8, -16
    1550                    .dwcfi  save_reg_to_mem, 7, -20
    1551                    .dwcfi  save_reg_to_mem, 6, -24
    1552                    .dwcfi  save_reg_to_mem, 5, -28
    1553                    .dwcfi  save_reg_to_mem, 4, -32
    1554                    .dwcfi  cfa_offset, 32
MSP430 Assembler PC v21.6.1 Tue Dec 20 13:45:56 2022

Copyright (c) 2003-2018 Texas Instruments Incorporated
Air_Compressors.asm                                                  PAGE   30

    1555            ;* r4    assigned to e
    1556            $C$DW$75        .dwtag  DW_TAG_variable
    1557                    .dwattr $C$DW$75, DW_AT_name("e")
    1558                    .dwattr $C$DW$75, DW_AT_TI_symbol_name("e")
    1559                    .dwattr $C$DW$75, DW_AT_type(*$C$DW$T$18)
    1560                    .dwattr $C$DW$75, DW_AT_location[DW_OP_reg4 DW_OP_piece 2 DW_OP_reg5 DW_OP_piece 2 DW_OP_reg6 
    1561            
    1562 000002 0CC4          MOVA      r12,r4                ; [] |431| 
    1563 000004 0DC5          MOVA      r13,r5                ; [] |431| 
    1564 000006 0EC6          MOVA      r14,r6                ; [] |431| 
    1565 000008 0FC7          MOVA      r15,r7                ; [] |431| 
    1566                    .dwpsn  file "C:/ti/ccs1110/ccs/tools/compiler/ti-cgt-msp430_21.6.1.LTS/include/_defs.h",line 
    1567 00000a F03F          AND.W     #32752,r15            ; [] |436| 
         00000c 7FF0 
    1568 00000e 903F          CMP.W     #32752,r15            ; [] |436| 
         000010 7FF0 
    1569 000012 2011          JNE       $C$L25                ; [] |436| 
    1570                                                      ; [] |436| 
    1571            ;* --------------------------------------------------------------------------*
    1572 000014 F334          AND.W     #65535,r4             ; [] |436| 
    1573 000016 F335          AND.W     #65535,r5             ; [] |436| 
    1574 000018 F336          AND.W     #65535,r6             ; [] |436| 
    1575 00001a F037          AND.W     #15,r7                ; [] |436| 
         00001c 000F 
    1576 00001e 9307          TST.W     r7                    ; [] |436| 
    1577 000020 2006          JNE       $C$L23                ; [] |436| 
    1578                                                      ; [] |436| 
    1579            ;* --------------------------------------------------------------------------*
    1580 000022 9306          TST.W     r6                    ; [] |436| 
    1581 000024 2004          JNE       $C$L23                ; [] |436| 
    1582                                                      ; [] |436| 
    1583            ;* --------------------------------------------------------------------------*
    1584 000026 9305          TST.W     r5                    ; [] |436| 
    1585 000028 2002          JNE       $C$L23                ; [] |436| 
    1586                                                      ; [] |436| 
    1587            ;* --------------------------------------------------------------------------*
    1588 00002a 9304          TST.W     r4                    ; [] |436| 
    1589 00002c 2402          JEQ       $C$L24                ; [] |436| 
    1590                                                      ; [] |436| 
    1591            ;* --------------------------------------------------------------------------*
    1592 00002e       $C$L23:    
    1593 00002e 432C          MOV.W     #2,r12                ; [] |436| 
    1594 000030 3C2A          JMP       $C$L30                ; [] |436| 
    1595                                                      ; [] |436| 
    1596            ;* --------------------------------------------------------------------------*
    1597 000032       $C$L24:    
    1598 000032 431C          MOV.W     #1,r12                ; [] |436| 
    1599 000034 3C28          JMP       $C$L30                ; [] |436| 
    1600                                                      ; [] |436| 
    1601            ;* --------------------------------------------------------------------------*
    1602 000036       $C$L25:    
    1603 000036 04C8          MOVA      r4,r8                 ; [] |436| 
    1604 000038 05C9          MOVA      r5,r9                 ; [] |436| 
    1605 00003a 06CA          MOVA      r6,r10                ; [] |436| 
    1606 00003c 07CB          MOVA      r7,r11                ; [] |436| 
MSP430 Assembler PC v21.6.1 Tue Dec 20 13:45:56 2022

Copyright (c) 2003-2018 Texas Instruments Incorporated
Air_Compressors.asm                                                  PAGE   31

    1607 00003e 403C          MOV.W     #52,r12               ; [] |436| 
         000040 0034 
    1608            $C$DW$76        .dwtag  DW_TAG_TI_branch
    1609                    .dwattr $C$DW$76, DW_AT_low_pc(0x00)
    1610                    .dwattr $C$DW$76, DW_AT_name("__mspabi_srlll")
    1611                    .dwattr $C$DW$76, DW_AT_TI_call
    1612            
    1613 000042 13B0!         CALLA     #__mspabi_srlll       ; [] |436| 
         000044 0000 
    1614                                                      ; [] |436| 
    1615 000046 F03C          AND.W     #2047,r12             ; [] |436| 
         000048 07FF 
    1616 00004a F30D          AND.W     #0,r13                ; [] |436| 
    1617 00004c F30E          AND.W     #0,r14                ; [] |436| 
    1618 00004e F30F          AND.W     #0,r15                ; [] |436| 
    1619 000050 930F          TST.W     r15                   ; [] |436| 
    1620 000052 2006          JNE       $C$L26                ; [] |436| 
    1621                                                      ; [] |436| 
    1622            ;* --------------------------------------------------------------------------*
    1623 000054 930E          TST.W     r14                   ; [] |436| 
    1624 000056 2004          JNE       $C$L26                ; [] |436| 
    1625                                                      ; [] |436| 
    1626            ;* --------------------------------------------------------------------------*
    1627 000058 930D          TST.W     r13                   ; [] |436| 
    1628 00005a 2002          JNE       $C$L26                ; [] |436| 
    1629                                                      ; [] |436| 
    1630            ;* --------------------------------------------------------------------------*
    1631 00005c 930C          TST.W     r12                   ; [] |436| 
    1632 00005e 2402          JEQ       $C$L27                ; [] |436| 
    1633                                                      ; [] |436| 
    1634            ;* --------------------------------------------------------------------------*
    1635 000060       $C$L26:    
    1636 000060 433C          MOV.W     #-1,r12               ; [] |436| 
    1637 000062 3C11          JMP       $C$L30                ; [] |436| 
    1638                                                      ; [] |436| 
    1639            ;* --------------------------------------------------------------------------*
    1640 000064       $C$L27:    
    1641 000064 F334          AND.W     #65535,r4             ; [] |436| 
    1642 000066 F335          AND.W     #65535,r5             ; [] |436| 
    1643 000068 F336          AND.W     #65535,r6             ; [] |436| 
    1644 00006a F037          AND.W     #15,r7                ; [] |436| 
         00006c 000F 
    1645 00006e 9307          TST.W     r7                    ; [] |436| 
    1646 000070 2006          JNE       $C$L28                ; [] |436| 
    1647                                                      ; [] |436| 
    1648            ;* --------------------------------------------------------------------------*
    1649 000072 9306          TST.W     r6                    ; [] |436| 
    1650 000074 2004          JNE       $C$L28                ; [] |436| 
    1651                                                      ; [] |436| 
    1652            ;* --------------------------------------------------------------------------*
    1653 000076 9305          TST.W     r5                    ; [] |436| 
    1654 000078 2002          JNE       $C$L28                ; [] |436| 
    1655                                                      ; [] |436| 
    1656            ;* --------------------------------------------------------------------------*
    1657 00007a 9304          TST.W     r4                    ; [] |436| 
MSP430 Assembler PC v21.6.1 Tue Dec 20 13:45:56 2022

Copyright (c) 2003-2018 Texas Instruments Incorporated
Air_Compressors.asm                                                  PAGE   32

    1658 00007c 2403          JEQ       $C$L29                ; [] |436| 
    1659                                                      ; [] |436| 
    1660            ;* --------------------------------------------------------------------------*
    1661 00007e       $C$L28:    
    1662 00007e 403C          MOV.W     #65534,r12            ; [] |436| 
         000080 FFFE 
    1663 000082 3C01          JMP       $C$L30                ; [] |436| 
    1664                                                      ; [] |436| 
    1665            ;* --------------------------------------------------------------------------*
    1666 000084       $C$L29:    
    1667 000084 430C          MOV.W     #0,r12                ; [] |436| 
    1668            ;* --------------------------------------------------------------------------*
    1669 000086       $C$L30:    
    1670                    .dwpsn  file "C:/ti/ccs1110/ccs/tools/compiler/ti-cgt-msp430_21.6.1.LTS/include/_defs.h",line 
    1671 000086 1664          POPM.A    #7,r10                ; [] 
    1672                    .dwcfi  restore_reg, 4
    1673                    .dwcfi  restore_reg, 5
    1674                    .dwcfi  restore_reg, 6
    1675                    .dwcfi  restore_reg, 7
    1676                    .dwcfi  restore_reg, 8
    1677                    .dwcfi  restore_reg, 9
    1678                    .dwcfi  restore_reg, 10
    1679                    .dwcfi  cfa_offset, 4
    1680            $C$DW$77        .dwtag  DW_TAG_TI_branch
    1681                    .dwattr $C$DW$77, DW_AT_low_pc(0x00)
    1682                    .dwattr $C$DW$77, DW_AT_TI_return
    1683            
    1684 000088 0110          RETA      ; [] 
    1685                    ; [] 
    1686                    .dwattr $C$DW$73, DW_AT_TI_end_file("C:/ti/ccs1110/ccs/tools/compiler/ti-cgt-msp430_21.6.1.LTS
    1687                    .dwattr $C$DW$73, DW_AT_TI_end_line(0x1bd)
    1688                    .dwattr $C$DW$73, DW_AT_TI_end_column(0x01)
    1689                    .dwendentry
    1690                    .dwendtag $C$DW$73
    1691            
    1692 000000               .sect   ".text:__fpclassifyf"
    1693                    .clink
    1694                    .global __fpclassifyf
    1695            
    1696            $C$DW$78        .dwtag  DW_TAG_subprogram
    1697                    .dwattr $C$DW$78, DW_AT_name("__fpclassifyf")
    1698                    .dwattr $C$DW$78, DW_AT_low_pc(__fpclassifyf)
    1699                    .dwattr $C$DW$78, DW_AT_high_pc(0x00)
    1700                    .dwattr $C$DW$78, DW_AT_TI_symbol_name("__fpclassifyf")
    1701                    .dwattr $C$DW$78, DW_AT_external
    1702                    .dwattr $C$DW$78, DW_AT_type(*$C$DW$T$10)
    1703                    .dwattr $C$DW$78, DW_AT_TI_begin_file("C:/ti/ccs1110/ccs/tools/compiler/ti-cgt-msp430_21.6.1.L
    1704                    .dwattr $C$DW$78, DW_AT_TI_begin_line(0x18c)
    1705                    .dwattr $C$DW$78, DW_AT_TI_begin_column(0x25)
    1706                    .dwattr $C$DW$78, DW_AT_decl_file("C:/ti/ccs1110/ccs/tools/compiler/ti-cgt-msp430_21.6.1.LTS/i
    1707                    .dwattr $C$DW$78, DW_AT_decl_line(0x18c)
    1708                    .dwattr $C$DW$78, DW_AT_decl_column(0x25)
    1709                    .dwattr $C$DW$78, DW_AT_TI_max_frame_size(0x04)
    1710                    .dwpsn  file "C:/ti/ccs1110/ccs/tools/compiler/ti-cgt-msp430_21.6.1.LTS/include/_defs.h",line 
    1711            
MSP430 Assembler PC v21.6.1 Tue Dec 20 13:45:56 2022

Copyright (c) 2003-2018 Texas Instruments Incorporated
Air_Compressors.asm                                                  PAGE   33

    1712                    .dwfde $C$DW$CIE, __fpclassifyf
    1713            $C$DW$79        .dwtag  DW_TAG_formal_parameter
    1714                    .dwattr $C$DW$79, DW_AT_name("f")
    1715                    .dwattr $C$DW$79, DW_AT_TI_symbol_name("f")
    1716                    .dwattr $C$DW$79, DW_AT_type(*$C$DW$T$16)
    1717                    .dwattr $C$DW$79, DW_AT_location[DW_OP_reg12 DW_OP_piece 2 DW_OP_reg13 DW_OP_piece 2]
    1718            
    1719            
    1720            ;*****************************************************************************
    1721            ;* FUNCTION NAME: __fpclassifyf                                              *
    1722            ;*                                                                           *
    1723            ;*   Regs Modified     : SP,SR,r12,r13,r15                                   *
    1724            ;*   Regs Used         : SP,SR,r12,r13,r15                                   *
    1725            ;*   Local Frame Size  : 0 Args + 0 Auto + 0 Save = 0 byte                   *
    1726            ;*****************************************************************************
    1727 000000       __fpclassifyf:
    1728            ;* --------------------------------------------------------------------------*
    1729                    .dwcfi  cfa_offset, 4
    1730                    .dwcfi  save_reg_to_mem, 16, -4
    1731                    .dwpsn  file "C:/ti/ccs1110/ccs/tools/compiler/ti-cgt-msp430_21.6.1.LTS/include/_defs.h",line 
    1732 000000 0DCF          MOVA      r13,r15               ; [] |402| 
    1733 000002 F03F          AND.W     #32640,r15            ; [] |402| 
         000004 7F80 
    1734 000006 903F          CMP.W     #32640,r15            ; [] |402| 
         000008 7F80 
    1735 00000a 200B          JNE       $C$L33                ; [] |402| 
    1736                                                      ; [] |402| 
    1737            ;* --------------------------------------------------------------------------*
    1738 00000c F33C          AND.W     #65535,r12            ; [] |402| 
    1739 00000e F03D          AND.W     #127,r13              ; [] |402| 
         000010 007F 
    1740 000012 930D          TST.W     r13                   ; [] |402| 
    1741 000014 2002          JNE       $C$L31                ; [] |402| 
    1742                                                      ; [] |402| 
    1743            ;* --------------------------------------------------------------------------*
    1744 000016 930C          TST.W     r12                   ; [] |402| 
    1745 000018 2402          JEQ       $C$L32                ; [] |402| 
    1746                                                      ; [] |402| 
    1747            ;* --------------------------------------------------------------------------*
    1748 00001a       $C$L31:    
    1749 00001a 432C          MOV.W     #2,r12                ; [] |402| 
    1750 00001c 3C15          JMP       $C$L37                ; [] |402| 
    1751                                                      ; [] |402| 
    1752            ;* --------------------------------------------------------------------------*
    1753 00001e       $C$L32:    
    1754 00001e 431C          MOV.W     #1,r12                ; [] |402| 
    1755 000020 3C13          JMP       $C$L37                ; [] |402| 
    1756                                                      ; [] |402| 
    1757            ;* --------------------------------------------------------------------------*
    1758 000022       $C$L33:    
    1759 000022 0DCF          MOVA      r13,r15               ; [] |402| 
    1760 000024 1946          RPT #7 || RRUX.W r15 ; [] |402| 
         000026 100F 
    1761 000028 B03F          BIT.W     #255,r15              ; [] |402| 
         00002a 00FF 
MSP430 Assembler PC v21.6.1 Tue Dec 20 13:45:56 2022

Copyright (c) 2003-2018 Texas Instruments Incorporated
Air_Compressors.asm                                                  PAGE   34

    1762 00002c 2402          JEQ       $C$L34                ; [] |402| 
    1763                                                      ; [] |402| 
    1764            ;* --------------------------------------------------------------------------*
    1765 00002e 433C          MOV.W     #-1,r12               ; [] |402| 
    1766 000030 3C0B          JMP       $C$L37                ; [] |402| 
    1767                                                      ; [] |402| 
    1768            ;* --------------------------------------------------------------------------*
    1769 000032       $C$L34:    
    1770 000032 F33C          AND.W     #65535,r12            ; [] |402| 
    1771 000034 F03D          AND.W     #127,r13              ; [] |402| 
         000036 007F 
    1772 000038 930D          TST.W     r13                   ; [] |402| 
    1773 00003a 2002          JNE       $C$L35                ; [] |402| 
    1774                                                      ; [] |402| 
    1775            ;* --------------------------------------------------------------------------*
    1776 00003c 930C          TST.W     r12                   ; [] |402| 
    1777 00003e 2403          JEQ       $C$L36                ; [] |402| 
    1778                                                      ; [] |402| 
    1779            ;* --------------------------------------------------------------------------*
    1780 000040       $C$L35:    
    1781 000040 403C          MOV.W     #65534,r12            ; [] |402| 
         000042 FFFE 
    1782 000044 3C01          JMP       $C$L37                ; [] |402| 
    1783                                                      ; [] |402| 
    1784            ;* --------------------------------------------------------------------------*
    1785 000046       $C$L36:    
    1786 000046 430C          MOV.W     #0,r12                ; [] |402| 
    1787            ;* --------------------------------------------------------------------------*
    1788 000048       $C$L37:    
    1789                    .dwpsn  file "C:/ti/ccs1110/ccs/tools/compiler/ti-cgt-msp430_21.6.1.LTS/include/_defs.h",line 
    1790            $C$DW$80        .dwtag  DW_TAG_TI_branch
    1791                    .dwattr $C$DW$80, DW_AT_low_pc(0x00)
    1792                    .dwattr $C$DW$80, DW_AT_TI_return
    1793            
    1794 000048 0110          RETA      ; [] 
    1795                    ; [] 
    1796                    .dwattr $C$DW$78, DW_AT_TI_end_file("C:/ti/ccs1110/ccs/tools/compiler/ti-cgt-msp430_21.6.1.LTS
    1797                    .dwattr $C$DW$78, DW_AT_TI_end_line(0x19b)
    1798                    .dwattr $C$DW$78, DW_AT_TI_end_column(0x01)
    1799                    .dwendentry
    1800                    .dwendtag $C$DW$78
    1801            
    1802 000000               .sect   ".text:__fpclassify"
    1803                    .clink
    1804                    .global __fpclassify
    1805            
    1806            $C$DW$81        .dwtag  DW_TAG_subprogram
    1807                    .dwattr $C$DW$81, DW_AT_name("__fpclassify")
    1808                    .dwattr $C$DW$81, DW_AT_low_pc(__fpclassify)
    1809                    .dwattr $C$DW$81, DW_AT_high_pc(0x00)
    1810                    .dwattr $C$DW$81, DW_AT_TI_symbol_name("__fpclassify")
    1811                    .dwattr $C$DW$81, DW_AT_external
    1812                    .dwattr $C$DW$81, DW_AT_type(*$C$DW$T$10)
    1813                    .dwattr $C$DW$81, DW_AT_TI_begin_file("C:/ti/ccs1110/ccs/tools/compiler/ti-cgt-msp430_21.6.1.L
    1814                    .dwattr $C$DW$81, DW_AT_TI_begin_line(0x19d)
MSP430 Assembler PC v21.6.1 Tue Dec 20 13:45:56 2022

Copyright (c) 2003-2018 Texas Instruments Incorporated
Air_Compressors.asm                                                  PAGE   35

    1815                    .dwattr $C$DW$81, DW_AT_TI_begin_column(0x25)
    1816                    .dwattr $C$DW$81, DW_AT_decl_file("C:/ti/ccs1110/ccs/tools/compiler/ti-cgt-msp430_21.6.1.LTS/i
    1817                    .dwattr $C$DW$81, DW_AT_decl_line(0x19d)
    1818                    .dwattr $C$DW$81, DW_AT_decl_column(0x25)
    1819                    .dwattr $C$DW$81, DW_AT_TI_max_frame_size(0x20)
    1820                    .dwpsn  file "C:/ti/ccs1110/ccs/tools/compiler/ti-cgt-msp430_21.6.1.LTS/include/_defs.h",line 
    1821            
    1822                    .dwfde $C$DW$CIE, __fpclassify
    1823            $C$DW$82        .dwtag  DW_TAG_formal_parameter
    1824                    .dwattr $C$DW$82, DW_AT_name("d")
    1825                    .dwattr $C$DW$82, DW_AT_TI_symbol_name("d")
    1826                    .dwattr $C$DW$82, DW_AT_type(*$C$DW$T$17)
    1827                    .dwattr $C$DW$82, DW_AT_location[DW_OP_reg12 DW_OP_piece 2 DW_OP_reg13 DW_OP_piece 2 DW_OP_reg
    1828            
    1829            
    1830            ;*****************************************************************************
    1831            ;* FUNCTION NAME: __fpclassify                                               *
    1832            ;*                                                                           *
    1833            ;*   Regs Modified     : SP,SR,r4,r5,r6,r7,r8,r9,r10,r11,r12,r13,r14,r15     *
    1834            ;*   Regs Used         : SP,SR,r4,r5,r6,r7,r8,r9,r10,r11,r12,r13,r14,r15     *
    1835            ;*   Local Frame Size  : 0 Args + 0 Auto + 28 Save = 28 byte                 *
    1836            ;*****************************************************************************
    1837 000000       __fpclassify:
    1838            ;* --------------------------------------------------------------------------*
    1839                    .dwcfi  cfa_offset, 4
    1840                    .dwcfi  save_reg_to_mem, 16, -4
    1841 000000 146A          PUSHM.A   #7,r10                ; [] 
    1842                    .dwcfi  save_reg_to_mem, 10, -8
    1843                    .dwcfi  save_reg_to_mem, 9, -12
    1844                    .dwcfi  save_reg_to_mem, 8, -16
    1845                    .dwcfi  save_reg_to_mem, 7, -20
    1846                    .dwcfi  save_reg_to_mem, 6, -24
    1847                    .dwcfi  save_reg_to_mem, 5, -28
    1848                    .dwcfi  save_reg_to_mem, 4, -32
    1849                    .dwcfi  cfa_offset, 32
    1850            ;* r4    assigned to d
    1851            $C$DW$83        .dwtag  DW_TAG_variable
    1852                    .dwattr $C$DW$83, DW_AT_name("d")
    1853                    .dwattr $C$DW$83, DW_AT_TI_symbol_name("d")
    1854                    .dwattr $C$DW$83, DW_AT_type(*$C$DW$T$17)
    1855                    .dwattr $C$DW$83, DW_AT_location[DW_OP_reg4 DW_OP_piece 2 DW_OP_reg5 DW_OP_piece 2 DW_OP_reg6 
    1856            
    1857 000002 0CC4          MOVA      r12,r4                ; [] |414| 
    1858 000004 0DC5          MOVA      r13,r5                ; [] |414| 
    1859 000006 0EC6          MOVA      r14,r6                ; [] |414| 
    1860 000008 0FC7          MOVA      r15,r7                ; [] |414| 
    1861                    .dwpsn  file "C:/ti/ccs1110/ccs/tools/compiler/ti-cgt-msp430_21.6.1.LTS/include/_defs.h",line 
    1862 00000a F03F          AND.W     #32752,r15            ; [] |419| 
         00000c 7FF0 
    1863 00000e 903F          CMP.W     #32752,r15            ; [] |419| 
         000010 7FF0 
    1864 000012 2011          JNE       $C$L40                ; [] |419| 
    1865                                                      ; [] |419| 
    1866            ;* --------------------------------------------------------------------------*
    1867 000014 F334          AND.W     #65535,r4             ; [] |419| 
MSP430 Assembler PC v21.6.1 Tue Dec 20 13:45:56 2022

Copyright (c) 2003-2018 Texas Instruments Incorporated
Air_Compressors.asm                                                  PAGE   36

    1868 000016 F335          AND.W     #65535,r5             ; [] |419| 
    1869 000018 F336          AND.W     #65535,r6             ; [] |419| 
    1870 00001a F037          AND.W     #15,r7                ; [] |419| 
         00001c 000F 
    1871 00001e 9307          TST.W     r7                    ; [] |419| 
    1872 000020 2006          JNE       $C$L38                ; [] |419| 
    1873                                                      ; [] |419| 
    1874            ;* --------------------------------------------------------------------------*
    1875 000022 9306          TST.W     r6                    ; [] |419| 
    1876 000024 2004          JNE       $C$L38                ; [] |419| 
    1877                                                      ; [] |419| 
    1878            ;* --------------------------------------------------------------------------*
    1879 000026 9305          TST.W     r5                    ; [] |419| 
    1880 000028 2002          JNE       $C$L38                ; [] |419| 
    1881                                                      ; [] |419| 
    1882            ;* --------------------------------------------------------------------------*
    1883 00002a 9304          TST.W     r4                    ; [] |419| 
    1884 00002c 2402          JEQ       $C$L39                ; [] |419| 
    1885                                                      ; [] |419| 
    1886            ;* --------------------------------------------------------------------------*
    1887 00002e       $C$L38:    
    1888 00002e 432C          MOV.W     #2,r12                ; [] |419| 
    1889 000030 3C2A          JMP       $C$L45                ; [] |419| 
    1890                                                      ; [] |419| 
    1891            ;* --------------------------------------------------------------------------*
    1892 000032       $C$L39:    
    1893 000032 431C          MOV.W     #1,r12                ; [] |419| 
    1894 000034 3C28          JMP       $C$L45                ; [] |419| 
    1895                                                      ; [] |419| 
    1896            ;* --------------------------------------------------------------------------*
    1897 000036       $C$L40:    
    1898 000036 04C8          MOVA      r4,r8                 ; [] |419| 
    1899 000038 05C9          MOVA      r5,r9                 ; [] |419| 
    1900 00003a 06CA          MOVA      r6,r10                ; [] |419| 
    1901 00003c 07CB          MOVA      r7,r11                ; [] |419| 
    1902 00003e 403C          MOV.W     #52,r12               ; [] |419| 
         000040 0034 
    1903            $C$DW$84        .dwtag  DW_TAG_TI_branch
    1904                    .dwattr $C$DW$84, DW_AT_low_pc(0x00)
    1905                    .dwattr $C$DW$84, DW_AT_name("__mspabi_srlll")
    1906                    .dwattr $C$DW$84, DW_AT_TI_call
    1907            
    1908 000042 13B0!         CALLA     #__mspabi_srlll       ; [] |419| 
         000044 0000 
    1909                                                      ; [] |419| 
    1910 000046 F03C          AND.W     #2047,r12             ; [] |419| 
         000048 07FF 
    1911 00004a F30D          AND.W     #0,r13                ; [] |419| 
    1912 00004c F30E          AND.W     #0,r14                ; [] |419| 
    1913 00004e F30F          AND.W     #0,r15                ; [] |419| 
    1914 000050 930F          TST.W     r15                   ; [] |419| 
    1915 000052 2006          JNE       $C$L41                ; [] |419| 
    1916                                                      ; [] |419| 
    1917            ;* --------------------------------------------------------------------------*
    1918 000054 930E          TST.W     r14                   ; [] |419| 
MSP430 Assembler PC v21.6.1 Tue Dec 20 13:45:56 2022

Copyright (c) 2003-2018 Texas Instruments Incorporated
Air_Compressors.asm                                                  PAGE   37

    1919 000056 2004          JNE       $C$L41                ; [] |419| 
    1920                                                      ; [] |419| 
    1921            ;* --------------------------------------------------------------------------*
    1922 000058 930D          TST.W     r13                   ; [] |419| 
    1923 00005a 2002          JNE       $C$L41                ; [] |419| 
    1924                                                      ; [] |419| 
    1925            ;* --------------------------------------------------------------------------*
    1926 00005c 930C          TST.W     r12                   ; [] |419| 
    1927 00005e 2402          JEQ       $C$L42                ; [] |419| 
    1928                                                      ; [] |419| 
    1929            ;* --------------------------------------------------------------------------*
    1930 000060       $C$L41:    
    1931 000060 433C          MOV.W     #-1,r12               ; [] |419| 
    1932 000062 3C11          JMP       $C$L45                ; [] |419| 
    1933                                                      ; [] |419| 
    1934            ;* --------------------------------------------------------------------------*
    1935 000064       $C$L42:    
    1936 000064 F334          AND.W     #65535,r4             ; [] |419| 
    1937 000066 F335          AND.W     #65535,r5             ; [] |419| 
    1938 000068 F336          AND.W     #65535,r6             ; [] |419| 
    1939 00006a F037          AND.W     #15,r7                ; [] |419| 
         00006c 000F 
    1940 00006e 9307          TST.W     r7                    ; [] |419| 
    1941 000070 2006          JNE       $C$L43                ; [] |419| 
    1942                                                      ; [] |419| 
    1943            ;* --------------------------------------------------------------------------*
    1944 000072 9306          TST.W     r6                    ; [] |419| 
    1945 000074 2004          JNE       $C$L43                ; [] |419| 
    1946                                                      ; [] |419| 
    1947            ;* --------------------------------------------------------------------------*
    1948 000076 9305          TST.W     r5                    ; [] |419| 
    1949 000078 2002          JNE       $C$L43                ; [] |419| 
    1950                                                      ; [] |419| 
    1951            ;* --------------------------------------------------------------------------*
    1952 00007a 9304          TST.W     r4                    ; [] |419| 
    1953 00007c 2403          JEQ       $C$L44                ; [] |419| 
    1954                                                      ; [] |419| 
    1955            ;* --------------------------------------------------------------------------*
    1956 00007e       $C$L43:    
    1957 00007e 403C          MOV.W     #65534,r12            ; [] |419| 
         000080 FFFE 
    1958 000082 3C01          JMP       $C$L45                ; [] |419| 
    1959                                                      ; [] |419| 
    1960            ;* --------------------------------------------------------------------------*
    1961 000084       $C$L44:    
    1962 000084 430C          MOV.W     #0,r12                ; [] |419| 
    1963            ;* --------------------------------------------------------------------------*
    1964 000086       $C$L45:    
    1965                    .dwpsn  file "C:/ti/ccs1110/ccs/tools/compiler/ti-cgt-msp430_21.6.1.LTS/include/_defs.h",line 
    1966 000086 1664          POPM.A    #7,r10                ; [] 
    1967                    .dwcfi  restore_reg, 4
    1968                    .dwcfi  restore_reg, 5
    1969                    .dwcfi  restore_reg, 6
    1970                    .dwcfi  restore_reg, 7
    1971                    .dwcfi  restore_reg, 8
MSP430 Assembler PC v21.6.1 Tue Dec 20 13:45:56 2022

Copyright (c) 2003-2018 Texas Instruments Incorporated
Air_Compressors.asm                                                  PAGE   38

    1972                    .dwcfi  restore_reg, 9
    1973                    .dwcfi  restore_reg, 10
    1974                    .dwcfi  cfa_offset, 4
    1975            $C$DW$85        .dwtag  DW_TAG_TI_branch
    1976                    .dwattr $C$DW$85, DW_AT_low_pc(0x00)
    1977                    .dwattr $C$DW$85, DW_AT_TI_return
    1978            
    1979 000088 0110          RETA      ; [] 
    1980                    ; [] 
    1981                    .dwattr $C$DW$81, DW_AT_TI_end_file("C:/ti/ccs1110/ccs/tools/compiler/ti-cgt-msp430_21.6.1.LTS
    1982                    .dwattr $C$DW$81, DW_AT_TI_end_line(0x1ac)
    1983                    .dwattr $C$DW$81, DW_AT_TI_end_column(0x01)
    1984                    .dwendentry
    1985                    .dwendtag $C$DW$81
    1986            
    1987 000000               .sect   ".text:Set_Air_Compressors"
    1988                    .clink
    1989                    .global Set_Air_Compressors
    1990            
    1991            $C$DW$86        .dwtag  DW_TAG_subprogram
    1992                    .dwattr $C$DW$86, DW_AT_name("Set_Air_Compressors")
    1993                    .dwattr $C$DW$86, DW_AT_low_pc(Set_Air_Compressors)
    1994                    .dwattr $C$DW$86, DW_AT_high_pc(0x00)
    1995                    .dwattr $C$DW$86, DW_AT_TI_symbol_name("Set_Air_Compressors")
    1996                    .dwattr $C$DW$86, DW_AT_external
    1997                    .dwattr $C$DW$86, DW_AT_TI_begin_file("../src/Air_Compressors.C")
    1998                    .dwattr $C$DW$86, DW_AT_TI_begin_line(0x3f)
    1999                    .dwattr $C$DW$86, DW_AT_TI_begin_column(0x06)
    2000                    .dwattr $C$DW$86, DW_AT_decl_file("../src/Air_Compressors.C")
    2001                    .dwattr $C$DW$86, DW_AT_decl_line(0x3f)
    2002                    .dwattr $C$DW$86, DW_AT_decl_column(0x06)
    2003                    .dwattr $C$DW$86, DW_AT_TI_max_frame_size(0x28)
    2004                    .dwpsn  file "../src/Air_Compressors.C",line 65,column 1,is_stmt,address Set_Air_Compressors,i
    2005            
    2006                    .dwfde $C$DW$CIE, Set_Air_Compressors
    2007            
    2008            ;*****************************************************************************
    2009            ;* FUNCTION NAME: Set_Air_Compressors                                        *
    2010            ;*                                                                           *
    2011            ;*   Regs Modified     : SP,SR,r4,r5,r6,r7,r8,r9,r10,r11,r12,r13,r14,r15     *
    2012            ;*   Regs Used         : SP,SR,r4,r5,r6,r7,r8,r9,r10,r11,r12,r13,r14,r15     *
    2013            ;*   Local Frame Size  : 0 Args + 8 Auto + 28 Save = 36 byte                 *
    2014            ;*****************************************************************************
    2015 000000       Set_Air_Compressors:
    2016            ;* --------------------------------------------------------------------------*
    2017                    .dwcfi  cfa_offset, 4
    2018                    .dwcfi  save_reg_to_mem, 16, -4
    2019 000000 146A          PUSHM.A   #7,r10                ; [] 
    2020                    .dwcfi  save_reg_to_mem, 10, -8
    2021                    .dwcfi  save_reg_to_mem, 9, -12
    2022                    .dwcfi  save_reg_to_mem, 8, -16
    2023                    .dwcfi  save_reg_to_mem, 7, -20
    2024                    .dwcfi  save_reg_to_mem, 6, -24
    2025                    .dwcfi  save_reg_to_mem, 5, -28
    2026                    .dwcfi  save_reg_to_mem, 4, -32
MSP430 Assembler PC v21.6.1 Tue Dec 20 13:45:56 2022

Copyright (c) 2003-2018 Texas Instruments Incorporated
Air_Compressors.asm                                                  PAGE   39

    2027                    .dwcfi  cfa_offset, 32
    2028 000002 00B1          SUBA      #8,SP                 ; [] 
         000004 0008 
    2029                    .dwcfi  cfa_offset, 40
    2030                    .dwpsn  file "../src/Air_Compressors.C",line 67,column 3,is_stmt,isa 0
    2031 000006 9382          TST.W     &ACS+0                ; [] |67| 
         000008 0000!
    2032 00000a 3402          JGE       $C$L46                ; [] |67| 
    2033                                                      ; [] |67| 
    2034            ;* --------------------------------------------------------------------------*
    2035                    .dwpsn  file "../src/Air_Compressors.C",line 67,column 16,is_stmt,isa 0
    2036 00000c 4382          MOV.W     #0,&ACS+0             ; [] |67| 
         00000e 0000!
    2037            ;* --------------------------------------------------------------------------*
    2038 000010       $C$L46:    
    2039                    .dwpsn  file "../src/Air_Compressors.C",line 68,column 3,is_stmt,isa 0
    2040 000010 90B2          CMP.W     #26,&ACS+0            ; [] |68| 
         000012 001A 
         000014 0000!
    2041 000016 3803          JL        $C$L47                ; [] |68| 
    2042                                                      ; [] |68| 
    2043            ;* --------------------------------------------------------------------------*
    2044                    .dwpsn  file "../src/Air_Compressors.C",line 68,column 17,is_stmt,isa 0
    2045 000018 40B2          MOV.W     #25,&ACS+0            ; [] |68| 
         00001a 0019 
         00001c 0000!
    2046            ;* --------------------------------------------------------------------------*
    2047 00001e       $C$L47:    
    2048                    .dwpsn  file "../src/Air_Compressors.C",line 70,column 3,is_stmt,isa 0
    2049 00001e 9392          CMP.W     #1,&mode+0            ; [] |70| 
         000020 0000!
    2050 000022 2020          JNE       $C$L49                ; [] |70| 
    2051                                                      ; [] |70| 
    2052            ;* --------------------------------------------------------------------------*
    2053 000024 403C          MOV.W     #20,r12               ; [] |70| 
         000026 0014 
    2054 000028 521C          ADD.W     &Tset+0,r12           ; [] |70| 
         00002a 0000!
    2055            $C$DW$87        .dwtag  DW_TAG_TI_branch
    2056                    .dwattr $C$DW$87, DW_AT_low_pc(0x00)
    2057                    .dwattr $C$DW$87, DW_AT_name("__mspabi_fltif")
    2058                    .dwattr $C$DW$87, DW_AT_TI_call
    2059            
    2060 00002c 13B0!         CALLA     #__mspabi_fltif       ; [] |70| 
         00002e 0000 
    2061                                                      ; [] |70| 
    2062 000030 421E          MOV.W     &TC2_temp+0,r14       ; [] |70| 
         000032 0000!
    2063 000034 421F          MOV.W     &TC2_temp+2,r15       ; [] |70| 
         000036 0002!
    2064            $C$DW$88        .dwtag  DW_TAG_TI_branch
    2065                    .dwattr $C$DW$88, DW_AT_low_pc(0x00)
    2066                    .dwattr $C$DW$88, DW_AT_name("__mspabi_cmpf")
    2067                    .dwattr $C$DW$88, DW_AT_TI_call
    2068            
MSP430 Assembler PC v21.6.1 Tue Dec 20 13:45:56 2022

Copyright (c) 2003-2018 Texas Instruments Incorporated
Air_Compressors.asm                                                  PAGE   40

    2069 000038 13B0!         CALLA     #__mspabi_cmpf        ; [] |70| 
         00003a 0000 
    2070                                                      ; [] |70| 
    2071 00003c 930C          TST.W     r12                   ; [] |70| 
    2072 00003e 3412          JGE       $C$L49                ; [] |70| 
    2073                                                      ; [] |70| 
    2074            ;* --------------------------------------------------------------------------*
    2075 000040 90B2          CMP.W     #5,&Altitude+0        ; [] |70| 
         000042 0005 
         000044 0000!
    2076 000046 2C08          JHS       $C$L48                ; [] |70| 
    2077                                                      ; [] |70| 
    2078            ;* --------------------------------------------------------------------------*
    2079 000048 9392          CMP.W     #1,&ALT_P+2           ; [] |70| 
         00004a 0002!
    2080 00004c 3805          JL        $C$L48                ; [] |70| 
    2081                                                      ; [] |70| 
    2082            ;* --------------------------------------------------------------------------*
    2083 00004e 200A          JNE       $C$L49                ; [] |70| 
    2084                                                      ; [] |70| 
    2085            ;* --------------------------------------------------------------------------*
    2086 000050 90B2          CMP.W     #21954,&ALT_P+0       ; [] |70| 
         000052 55C2 
         000054 0000!
    2087 000056 2C06          JHS       $C$L49                ; [] |70| 
    2088                                                      ; [] |70| 
    2089            ;* --------------------------------------------------------------------------*
    2090 000058       $C$L48:    
    2091                    .dwpsn  file "../src/Air_Compressors.C",line 74,column 8,is_stmt,isa 0
    2092 000058 42A2          MOV.W     #4,&Altitude+0        ; [] |74| 
         00005a 0000!
    2093                    .dwpsn  file "../src/Air_Compressors.C",line 75,column 8,is_stmt,isa 0
    2094 00005c 1880!         MOVX.A    #0x155c2,&ALT_P+0     ; [] |75| 
         00005e 40F2 
         000060 55C2 
         000062 0000 
    2095            ;* --------------------------------------------------------------------------*
    2096 000064       $C$L49:    
    2097                    .dwpsn  file "../src/Air_Compressors.C",line 82,column 3,is_stmt,isa 0
    2098 000064 430C          MOV.W     #0,r12                ; [] |82| 
    2099 000066 403D          MOV.W     #16608,r13            ; [] |82| 
         000068 40E0 
    2100 00006a 421E          MOV.W     &air+0,r14            ; [] |82| 
         00006c 0000!
    2101 00006e 421F          MOV.W     &air+2,r15            ; [] |82| 
         000070 0002!
    2102            $C$DW$89        .dwtag  DW_TAG_TI_branch
    2103                    .dwattr $C$DW$89, DW_AT_low_pc(0x00)
    2104                    .dwattr $C$DW$89, DW_AT_name("__mspabi_cmpf")
    2105                    .dwattr $C$DW$89, DW_AT_TI_call
    2106            
    2107 000072 13B0!         CALLA     #__mspabi_cmpf        ; [] |82| 
         000074 0000 
    2108                                                      ; [] |82| 
    2109 000076 930C          TST.W     r12                   ; [] |82| 
MSP430 Assembler PC v21.6.1 Tue Dec 20 13:45:56 2022

Copyright (c) 2003-2018 Texas Instruments Incorporated
Air_Compressors.asm                                                  PAGE   41

    2110 000078 3405          JGE       $C$L50                ; [] |82| 
    2111                                                      ; [] |82| 
    2112            ;* --------------------------------------------------------------------------*
    2113                    .dwpsn  file "../src/Air_Compressors.C",line 82,column 17,is_stmt,isa 0
    2114 00007a 4382          MOV.W     #0,&air+0             ; [] |82| 
         00007c 0000!
    2115 00007e 40B2          MOV.W     #16608,&air+2         ; [] |82| 
         000080 40E0 
         000082 0002!
    2116            ;* --------------------------------------------------------------------------*
    2117 000084       $C$L50:    
    2118                    .dwpsn  file "../src/Air_Compressors.C",line 83,column 3,is_stmt,isa 0
    2119 000084 9392          CMP.W     #1,&mode+0            ; [] |83| 
         000086 0000!
    2120 000088 2403          JEQ       $C$L51                ; [] |83| 
    2121                                                      ; [] |83| 
    2122            ;* --------------------------------------------------------------------------*
    2123 00008a 93A2          CMP.W     #2,&mode+0            ; [] |83| 
         00008c 0000!
    2124 00008e 203C          JNE       $C$L56                ; [] |83| 
    2125                                                      ; [] |83| 
    2126            ;* --------------------------------------------------------------------------*
    2127 000090       $C$L51:    
    2128                    .dwpsn  file "../src/Air_Compressors.C",line 85,column 5,is_stmt,isa 0
    2129 000090 93C2          TST.B     &Warming+0            ; [] |85| 
         000092 0000!
    2130 000094 200E          JNE       $C$L52                ; [] |85| 
    2131                                                      ; [] |85| 
    2132            ;* --------------------------------------------------------------------------*
    2133 000096 421C          MOV.W     &air+0,r12            ; [] |85| 
         000098 0000!
    2134 00009a 421D          MOV.W     &air+2,r13            ; [] |85| 
         00009c 0002!
    2135 00009e 430E          MOV.W     #0,r14                ; [] |85| 
    2136 0000a0 403F          MOV.W     #16320,r15            ; [] |85| 
         0000a2 3FC0 
    2137            $C$DW$90        .dwtag  DW_TAG_TI_branch
    2138                    .dwattr $C$DW$90, DW_AT_low_pc(0x00)
    2139                    .dwattr $C$DW$90, DW_AT_name("__mspabi_cmpf")
    2140                    .dwattr $C$DW$90, DW_AT_TI_call
    2141            
    2142 0000a4 13B0!         CALLA     #__mspabi_cmpf        ; [] |85| 
         0000a6 0000 
    2143                                                      ; [] |85| 
    2144 0000a8 930C          TST.W     r12                   ; [] |85| 
    2145 0000aa 3403          JGE       $C$L52                ; [] |85| 
    2146                                                      ; [] |85| 
    2147            ;* --------------------------------------------------------------------------*
    2148 0000ac 93A2          CMP.W     #2,&SerialNumber+0    ; [] |85| 
         0000ae 0000!
    2149 0000b0 2026          JNE       $C$L55                ; [] |85| 
    2150                                                      ; [] |85| 
    2151            ;* --------------------------------------------------------------------------*
    2152 0000b2       $C$L52:    
    2153                    .dwpsn  file "../src/Air_Compressors.C",line 86,column 10,is_stmt,isa 0
MSP430 Assembler PC v21.6.1 Tue Dec 20 13:45:56 2022

Copyright (c) 2003-2018 Texas Instruments Incorporated
Air_Compressors.asm                                                  PAGE   42

    2154 0000b2 93C2          TST.B     &Warming+0            ; [] |86| 
         0000b4 0000!
    2155 0000b6 200E          JNE       $C$L53                ; [] |86| 
    2156                                                      ; [] |86| 
    2157            ;* --------------------------------------------------------------------------*
    2158 0000b8 421C          MOV.W     &air+0,r12            ; [] |86| 
         0000ba 0000!
    2159 0000bc 421D          MOV.W     &air+2,r13            ; [] |86| 
         0000be 0002!
    2160 0000c0 430E          MOV.W     #0,r14                ; [] |86| 
    2161 0000c2 403F          MOV.W     #16384,r15            ; [] |86| 
         0000c4 4000 
    2162            $C$DW$91        .dwtag  DW_TAG_TI_branch
    2163                    .dwattr $C$DW$91, DW_AT_low_pc(0x00)
    2164                    .dwattr $C$DW$91, DW_AT_name("__mspabi_cmpf")
    2165                    .dwattr $C$DW$91, DW_AT_TI_call
    2166            
    2167 0000c6 13B0!         CALLA     #__mspabi_cmpf        ; [] |86| 
         0000c8 0000 
    2168                                                      ; [] |86| 
    2169 0000ca 930C          TST.W     r12                   ; [] |86| 
    2170 0000cc 3403          JGE       $C$L53                ; [] |86| 
    2171                                                      ; [] |86| 
    2172            ;* --------------------------------------------------------------------------*
    2173 0000ce 93A2          CMP.W     #2,&SerialNumber+0    ; [] |86| 
         0000d0 0000!
    2174 0000d2 240F          JEQ       $C$L54                ; [] |86| 
    2175                                                      ; [] |86| 
    2176            ;* --------------------------------------------------------------------------*
    2177 0000d4       $C$L53:    
    2178                    .dwpsn  file "../src/Air_Compressors.C",line 87,column 10,is_stmt,isa 0
    2179 0000d4 421C          MOV.W     &air+0,r12            ; [] |87| 
         0000d6 0000!
    2180 0000d8 421D          MOV.W     &air+2,r13            ; [] |87| 
         0000da 0002!
    2181 0000dc 430E          MOV.W     #0,r14                ; [] |87| 
    2182 0000de 430F          MOV.W     #0,r15                ; [] |87| 
    2183            $C$DW$92        .dwtag  DW_TAG_TI_branch
    2184                    .dwattr $C$DW$92, DW_AT_low_pc(0x00)
    2185                    .dwattr $C$DW$92, DW_AT_name("__mspabi_cmpf")
    2186                    .dwattr $C$DW$92, DW_AT_TI_call
    2187            
    2188 0000e0 13B0!         CALLA     #__mspabi_cmpf        ; [] |87| 
         0000e2 0000 
    2189                                                      ; [] |87| 
    2190 0000e4 930C          TST.W     r12                   ; [] |87| 
    2191 0000e6 3410          JGE       $C$L56                ; [] |87| 
    2192                                                      ; [] |87| 
    2193            ;* --------------------------------------------------------------------------*
    2194                    .dwpsn  file "../src/Air_Compressors.C",line 87,column 24,is_stmt,isa 0
    2195 0000e8 4382          MOV.W     #0,&air+0             ; [] |87| 
         0000ea 0000!
    2196 0000ec 4382          MOV.W     #0,&air+2             ; [] |87| 
         0000ee 0002!
    2197 0000f0 3C0B          JMP       $C$L56                ; [] |87| 
MSP430 Assembler PC v21.6.1 Tue Dec 20 13:45:56 2022

Copyright (c) 2003-2018 Texas Instruments Incorporated
Air_Compressors.asm                                                  PAGE   43

    2198                                                      ; [] |87| 
    2199            ;* --------------------------------------------------------------------------*
    2200 0000f2       $C$L54:    
    2201                    .dwpsn  file "../src/Air_Compressors.C",line 86,column 57,is_stmt,isa 0
    2202 0000f2 4382          MOV.W     #0,&air+0             ; [] |86| 
         0000f4 0000!
    2203 0000f6 40B2          MOV.W     #16384,&air+2         ; [] |86| 
         0000f8 4000 
         0000fa 0002!
    2204 0000fc 3C05          JMP       $C$L56                ; [] 
    2205                                                      ; [] 
    2206            ;* --------------------------------------------------------------------------*
    2207 0000fe       $C$L55:    
    2208                    .dwpsn  file "../src/Air_Compressors.C",line 85,column 52,is_stmt,isa 0
    2209 0000fe 4382          MOV.W     #0,&air+0             ; [] |85| 
         000100 0000!
    2210 000102 40B2          MOV.W     #16320,&air+2         ; [] |85| 
         000104 3FC0 
         000106 0002!
    2211            ;* --------------------------------------------------------------------------*
    2212 000108       $C$L56:    
    2213                    .dwpsn  file "../src/Air_Compressors.C",line 90,column 3,is_stmt,isa 0
    2214 000108 430C          MOV.W     #0,r12                ; [] |90| 
    2215 00010a 430D          MOV.W     #0,r13                ; [] |90| 
    2216 00010c 421E          MOV.W     &air_GUI+0,r14        ; [] |90| 
         00010e 0000!
    2217 000110 421F          MOV.W     &air_GUI+2,r15        ; [] |90| 
         000112 0002!
    2218            $C$DW$93        .dwtag  DW_TAG_TI_branch
    2219                    .dwattr $C$DW$93, DW_AT_low_pc(0x00)
    2220                    .dwattr $C$DW$93, DW_AT_name("__mspabi_cmpf")
    2221                    .dwattr $C$DW$93, DW_AT_TI_call
    2222            
    2223 000114 13B0!         CALLA     #__mspabi_cmpf        ; [] |90| 
         000116 0000 
    2224                                                      ; [] |90| 
    2225 000118 930C          TST.W     r12                   ; [] |90| 
    2226 00011a 3406          JGE       $C$L57                ; [] |90| 
    2227                                                      ; [] |90| 
    2228            ;* --------------------------------------------------------------------------*
    2229                    .dwpsn  file "../src/Air_Compressors.C",line 90,column 20,is_stmt,isa 0
    2230 00011c 4292          MOV.W     &air_GUI+0,&air+0     ; [] |90| 
         00011e 0000!
         000120 0000!
    2231 000122 4292          MOV.W     &air_GUI+2,&air+2     ; [] |90| 
         000124 0002!
         000126 0002!
    2232            ;* --------------------------------------------------------------------------*
    2233 000128       $C$L57:    
    2234                    .dwpsn  file "../src/Air_Compressors.C",line 101,column 6,is_stmt,isa 0
    2235 000128 421C          MOV.W     &air+0,r12            ; [] |101| 
         00012a 0000!
    2236 00012c 421D          MOV.W     &air+2,r13            ; [] |101| 
         00012e 0002!
    2237            $C$DW$94        .dwtag  DW_TAG_TI_branch
MSP430 Assembler PC v21.6.1 Tue Dec 20 13:45:56 2022

Copyright (c) 2003-2018 Texas Instruments Incorporated
Air_Compressors.asm                                                  PAGE   44

    2238                    .dwattr $C$DW$94, DW_AT_low_pc(0x00)
    2239                    .dwattr $C$DW$94, DW_AT_name("__mspabi_cvtfd")
    2240                    .dwattr $C$DW$94, DW_AT_TI_call
    2241            
    2242 000130 13B0!         CALLA     #__mspabi_cvtfd       ; [] |101| 
         000132 0000 
    2243                                                      ; [] |101| 
    2244 000134 4C81          MOV.W     r12,0(SP)             ; [] 
         000136 0000 
    2245 000138 4D81          MOV.W     r13,2(SP)             ; [] 
         00013a 0002 
    2246 00013c 4E81          MOV.W     r14,4(SP)             ; [] 
         00013e 0004 
    2247 000140 4F81          MOV.W     r15,6(SP)             ; [] 
         000142 0006 
    2248 000144 421C          MOV.W     &Altitude+0,r12       ; [] |101| 
         000146 0000!
    2249            $C$DW$95        .dwtag  DW_TAG_TI_branch
    2250                    .dwattr $C$DW$95, DW_AT_low_pc(0x00)
    2251                    .dwattr $C$DW$95, DW_AT_name("__mspabi_fltud")
    2252                    .dwattr $C$DW$95, DW_AT_TI_call
    2253            
    2254 000148 13B0!         CALLA     #__mspabi_fltud       ; [] |101| 
         00014a 0000 
    2255                                                      ; [] |101| 
    2256 00014c 0CC8          MOVA      r12,r8                ; [] |101| 
    2257 00014e 0DC9          MOVA      r13,r9                ; [] |101| 
    2258 000150 0ECA          MOVA      r14,r10               ; [] |101| 
    2259 000152 0FCB          MOVA      r15,r11               ; [] |101| 
    2260 000154 403C          MOV.W     #17197,r12            ; [] |101| 
         000156 432D 
    2261 000158 403D          MOV.W     #60188,r13            ; [] |101| 
         00015a EB1C 
    2262 00015c 403E          MOV.W     #14050,r14            ; [] |101| 
         00015e 36E2 
    2263 000160 403F          MOV.W     #48954,r15            ; [] |101| 
         000162 BF3A 
    2264            $C$DW$96        .dwtag  DW_TAG_TI_branch
    2265                    .dwattr $C$DW$96, DW_AT_low_pc(0x00)
    2266                    .dwattr $C$DW$96, DW_AT_name("__mspabi_mpyd")
    2267                    .dwattr $C$DW$96, DW_AT_TI_call
    2268            
    2269 000164 13B0!         CALLA     #__mspabi_mpyd        ; [] |101| 
         000166 0000 
    2270                                                      ; [] |101| 
    2271 000168 0CC8          MOVA      r12,r8                ; [] |101| 
    2272 00016a 0DC9          MOVA      r13,r9                ; [] |101| 
    2273 00016c 0ECA          MOVA      r14,r10               ; [] |101| 
    2274 00016e 0FC7          MOVA      r15,r7                ; [] |101| 
    2275 000170 421C          MOV.W     &Altitude+0,r12       ; [] |101| 
         000172 0000!
    2276            $C$DW$97        .dwtag  DW_TAG_TI_branch
    2277                    .dwattr $C$DW$97, DW_AT_low_pc(0x00)
    2278                    .dwattr $C$DW$97, DW_AT_name("__mspabi_fltud")
    2279                    .dwattr $C$DW$97, DW_AT_TI_call
MSP430 Assembler PC v21.6.1 Tue Dec 20 13:45:56 2022

Copyright (c) 2003-2018 Texas Instruments Incorporated
Air_Compressors.asm                                                  PAGE   45

    2280            
    2281 000174 13B0!         CALLA     #__mspabi_fltud       ; [] |101| 
         000176 0000 
    2282                                                      ; [] |101| 
    2283 000178 07CB          MOVA      r7,r11                ; [] |101| 
    2284            $C$DW$98        .dwtag  DW_TAG_TI_branch
    2285                    .dwattr $C$DW$98, DW_AT_low_pc(0x00)
    2286                    .dwattr $C$DW$98, DW_AT_name("__mspabi_mpyd")
    2287                    .dwattr $C$DW$98, DW_AT_TI_call
    2288            
    2289 00017a 13B0!         CALLA     #__mspabi_mpyd        ; [] |101| 
         00017c 0000 
    2290                                                      ; [] |101| 
    2291 00017e 0CC4          MOVA      r12,r4                ; [] |101| 
    2292 000180 0DC5          MOVA      r13,r5                ; [] |101| 
    2293 000182 0EC6          MOVA      r14,r6                ; [] |101| 
    2294 000184 0FC7          MOVA      r15,r7                ; [] |101| 
    2295 000186 421C          MOV.W     &Altitude+0,r12       ; [] |101| 
         000188 0000!
    2296            $C$DW$99        .dwtag  DW_TAG_TI_branch
    2297                    .dwattr $C$DW$99, DW_AT_low_pc(0x00)
    2298                    .dwattr $C$DW$99, DW_AT_name("__mspabi_fltud")
    2299                    .dwattr $C$DW$99, DW_AT_TI_call
    2300            
    2301 00018a 13B0!         CALLA     #__mspabi_fltud       ; [] |101| 
         00018c 0000 
    2302                                                      ; [] |101| 
    2303 00018e 0CC8          MOVA      r12,r8                ; [] |101| 
    2304 000190 0DC9          MOVA      r13,r9                ; [] |101| 
    2305 000192 0ECA          MOVA      r14,r10               ; [] |101| 
    2306 000194 0FCB          MOVA      r15,r11               ; [] |101| 
    2307            ;* --------------------------------------------------------------------------*
    2308 000196 403C          MOV.W     #27997,r12            ; [] |101| 
         000198 6D5D 
    2309 00019a 403D          MOV.W     #65221,r13            ; [] |101| 
         00019c FEC5 
    2310 00019e 403E          MOV.W     #31666,r14            ; [] |101| 
         0001a0 7BB2 
    2311 0001a2 403F          MOV.W     #16290,r15            ; [] |101| 
         0001a4 3FA2 
    2312            $C$DW$100       .dwtag  DW_TAG_TI_branch
    2313                    .dwattr $C$DW$100, DW_AT_low_pc(0x00)
    2314                    .dwattr $C$DW$100, DW_AT_name("__mspabi_mpyd")
    2315                    .dwattr $C$DW$100, DW_AT_TI_call
    2316            
    2317 0001a6 13B0!         CALLA     #__mspabi_mpyd        ; [] |101| 
         0001a8 0000 
    2318                                                      ; [] |101| 
    2319 0001aa 04C8          MOVA      r4,r8                 ; [] |101| 
    2320 0001ac 05C9          MOVA      r5,r9                 ; [] |101| 
    2321 0001ae 06CA          MOVA      r6,r10                ; [] |101| 
    2322 0001b0 07CB          MOVA      r7,r11                ; [] |101| 
    2323            $C$DW$101       .dwtag  DW_TAG_TI_branch
    2324                    .dwattr $C$DW$101, DW_AT_low_pc(0x00)
    2325                    .dwattr $C$DW$101, DW_AT_name("__mspabi_addd")
MSP430 Assembler PC v21.6.1 Tue Dec 20 13:45:56 2022

Copyright (c) 2003-2018 Texas Instruments Incorporated
Air_Compressors.asm                                                  PAGE   46

    2326                    .dwattr $C$DW$101, DW_AT_TI_call
    2327            
    2328 0001b2 13B0!         CALLA     #__mspabi_addd        ; [] |101| 
         0001b4 0000 
    2329                                                      ; [] |101| 
    2330 0001b6 0CC8          MOVA      r12,r8                ; [] |101| 
    2331 0001b8 0DC9          MOVA      r13,r9                ; [] |101| 
    2332 0001ba 0ECA          MOVA      r14,r10               ; [] |101| 
    2333 0001bc 0FCB          MOVA      r15,r11               ; [] |101| 
    2334 0001be 403C          MOV.W     #39322,r12            ; [] |101| 
         0001c0 999A 
    2335 0001c2 403D          MOV.W     #39321,r13            ; [] |101| 
         0001c4 9999 
    2336 0001c6 403E          MOV.W     #39321,r14            ; [] |101| 
         0001c8 9999 
    2337 0001ca 403F          MOV.W     #16367,r15            ; [] |101| 
         0001cc 3FEF 
    2338            $C$DW$102       .dwtag  DW_TAG_TI_branch
    2339                    .dwattr $C$DW$102, DW_AT_low_pc(0x00)
    2340                    .dwattr $C$DW$102, DW_AT_name("__mspabi_addd")
    2341                    .dwattr $C$DW$102, DW_AT_TI_call
    2342            
    2343 0001ce 13B0!         CALLA     #__mspabi_addd        ; [] |101| 
         0001d0 0000 
    2344                                                      ; [] |101| 
    2345 0001d2 4128          MOV.W     0(SP),r8              ; [] 
    2346 0001d4 4119          MOV.W     2(SP),r9              ; [] 
         0001d6 0002 
    2347 0001d8 411A          MOV.W     4(SP),r10             ; [] 
         0001da 0004 
    2348 0001dc 411B          MOV.W     6(SP),r11             ; [] 
         0001de 0006 
    2349            $C$DW$103       .dwtag  DW_TAG_TI_branch
    2350                    .dwattr $C$DW$103, DW_AT_low_pc(0x00)
    2351                    .dwattr $C$DW$103, DW_AT_name("__mspabi_mpyd")
    2352                    .dwattr $C$DW$103, DW_AT_TI_call
    2353            
    2354 0001e0 13B0!         CALLA     #__mspabi_mpyd        ; [] |101| 
         0001e2 0000 
    2355                                                      ; [] |101| 
    2356 0001e4 0CC4          MOVA      r12,r4                ; [] |101| 
    2357 0001e6 0DC5          MOVA      r13,r5                ; [] |101| 
    2358 0001e8 0EC6          MOVA      r14,r6                ; [] |101| 
    2359 0001ea 0FC7          MOVA      r15,r7                ; [] |101| 
    2360 0001ec 421C          MOV.W     &ACS+0,r12            ; [] |101| 
         0001ee 0000!
    2361            $C$DW$104       .dwtag  DW_TAG_TI_branch
    2362                    .dwattr $C$DW$104, DW_AT_low_pc(0x00)
    2363                    .dwattr $C$DW$104, DW_AT_name("__mspabi_fltid")
    2364                    .dwattr $C$DW$104, DW_AT_TI_call
    2365            
    2366 0001f0 13B0!         CALLA     #__mspabi_fltid       ; [] |101| 
         0001f2 0000 
    2367                                                      ; [] |101| 
    2368 0001f4 0CC8          MOVA      r12,r8                ; [] |101| 
MSP430 Assembler PC v21.6.1 Tue Dec 20 13:45:56 2022

Copyright (c) 2003-2018 Texas Instruments Incorporated
Air_Compressors.asm                                                  PAGE   47

    2369 0001f6 0DC9          MOVA      r13,r9                ; [] |101| 
    2370 0001f8 0ECA          MOVA      r14,r10               ; [] |101| 
    2371 0001fa 0FCB          MOVA      r15,r11               ; [] |101| 
    2372 0001fc 403C          MOV.W     #5243,r12             ; [] |101| 
         0001fe 147B 
    2373 000200 403D          MOV.W     #18350,r13            ; [] |101| 
         000202 47AE 
    2374 000204 403E          MOV.W     #31457,r14            ; [] |101| 
         000206 7AE1 
    2375 000208 403F          MOV.W     #16260,r15            ; [] |101| 
         00020a 3F84 
    2376            $C$DW$105       .dwtag  DW_TAG_TI_branch
    2377                    .dwattr $C$DW$105, DW_AT_low_pc(0x00)
    2378                    .dwattr $C$DW$105, DW_AT_name("__mspabi_mpyd")
    2379                    .dwattr $C$DW$105, DW_AT_TI_call
    2380            
    2381 00020c 13B0!         CALLA     #__mspabi_mpyd        ; [] |101| 
         00020e 0000 
    2382                                                      ; [] |101| 
    2383 000210 0CC8          MOVA      r12,r8                ; [] |101| 
    2384 000212 0DC9          MOVA      r13,r9                ; [] |101| 
    2385 000214 0ECA          MOVA      r14,r10               ; [] |101| 
    2386 000216 0FCB          MOVA      r15,r11               ; [] |101| 
    2387 000218 430C          MOV.W     #0,r12                ; [] |101| 
    2388 00021a 430D          MOV.W     #0,r13                ; [] |101| 
    2389 00021c 430E          MOV.W     #0,r14                ; [] |101| 
    2390 00021e 403F          MOV.W     #16368,r15            ; [] |101| 
         000220 3FF0 
    2391            $C$DW$106       .dwtag  DW_TAG_TI_branch
    2392                    .dwattr $C$DW$106, DW_AT_low_pc(0x00)
    2393                    .dwattr $C$DW$106, DW_AT_name("__mspabi_addd")
    2394                    .dwattr $C$DW$106, DW_AT_TI_call
    2395            
    2396 000222 13B0!         CALLA     #__mspabi_addd        ; [] |101| 
         000224 0000 
    2397                                                      ; [] |101| 
    2398 000226 04C8          MOVA      r4,r8                 ; [] |101| 
    2399 000228 05C9          MOVA      r5,r9                 ; [] |101| 
    2400 00022a 06CA          MOVA      r6,r10                ; [] |101| 
    2401 00022c 07CB          MOVA      r7,r11                ; [] |101| 
    2402            $C$DW$107       .dwtag  DW_TAG_TI_branch
    2403                    .dwattr $C$DW$107, DW_AT_low_pc(0x00)
    2404                    .dwattr $C$DW$107, DW_AT_name("__mspabi_mpyd")
    2405                    .dwattr $C$DW$107, DW_AT_TI_call
    2406            
    2407 00022e 13B0!         CALLA     #__mspabi_mpyd        ; [] |101| 
         000230 0000 
    2408                                                      ; [] |101| 
    2409            $C$DW$108       .dwtag  DW_TAG_TI_branch
    2410                    .dwattr $C$DW$108, DW_AT_low_pc(0x00)
    2411                    .dwattr $C$DW$108, DW_AT_name("__mspabi_cvtdf")
    2412                    .dwattr $C$DW$108, DW_AT_TI_call
    2413            
    2414 000232 13B0!         CALLA     #__mspabi_cvtdf       ; [] |101| 
         000234 0000 
MSP430 Assembler PC v21.6.1 Tue Dec 20 13:45:56 2022

Copyright (c) 2003-2018 Texas Instruments Incorporated
Air_Compressors.asm                                                  PAGE   48

    2415                                                      ; [] |101| 
    2416 000236 4C82          MOV.W     r12,&airA+0           ; [] |101| 
         000238 0000!
    2417 00023a 4D82          MOV.W     r13,&airA+2           ; [] |101| 
         00023c 0002!
    2418                    .dwpsn  file "../src/Air_Compressors.C",line 103,column 3,is_stmt,isa 0
    2419 00023e 4292          MOV.W     &air+0,&airA+0        ; [] |103| 
         000240 0000!
         000242 0000!
    2420 000244 4292          MOV.W     &air+2,&airA+2        ; [] |103| 
         000246 0002!
         000248 0002!
    2421                    .dwpsn  file "../src/Air_Compressors.C",line 107,column 3,is_stmt,isa 0
    2422            ;* --------------------------------------------------------------------------*
    2423 00024a 421C          MOV.W     &airA+0,r12           ; [] |107| 
         00024c 0000!
    2424 00024e 421D          MOV.W     &airA+2,r13           ; [] |107| 
         000250 0002!
    2425            $C$DW$109       .dwtag  DW_TAG_TI_branch
    2426                    .dwattr $C$DW$109, DW_AT_low_pc(0x00)
    2427                    .dwattr $C$DW$109, DW_AT_name("__mspabi_cvtfd")
    2428                    .dwattr $C$DW$109, DW_AT_TI_call
    2429            
    2430 000252 13B0!         CALLA     #__mspabi_cvtfd       ; [] |107| 
         000254 0000 
    2431                                                      ; [] |107| 
    2432 000256 0CC8          MOVA      r12,r8                ; [] |107| 
    2433 000258 0DC9          MOVA      r13,r9                ; [] |107| 
    2434 00025a 0ECA          MOVA      r14,r10               ; [] |107| 
    2435 00025c 0FCB          MOVA      r15,r11               ; [] |107| 
    2436 00025e 403C          MOV.W     #13107,r12            ; [] |107| 
         000260 3333 
    2437 000262 403D          MOV.W     #13107,r13            ; [] |107| 
         000264 3333 
    2438 000266 403E          MOV.W     #13107,r14            ; [] |107| 
         000268 3333 
    2439 00026a 403F          MOV.W     #16323,r15            ; [] |107| 
         00026c 3FC3 
    2440            $C$DW$110       .dwtag  DW_TAG_TI_branch
    2441                    .dwattr $C$DW$110, DW_AT_low_pc(0x00)
    2442                    .dwattr $C$DW$110, DW_AT_name("__mspabi_mpyd")
    2443                    .dwattr $C$DW$110, DW_AT_TI_call
    2444            
    2445 00026e 13B0!         CALLA     #__mspabi_mpyd        ; [] |107| 
         000270 0000 
    2446                                                      ; [] |107| 
    2447 000272 0CC8          MOVA      r12,r8                ; [] |107| 
    2448 000274 0DC9          MOVA      r13,r9                ; [] |107| 
    2449 000276 0ECA          MOVA      r14,r10               ; [] |107| 
    2450 000278 0FC7          MOVA      r15,r7                ; [] |107| 
    2451 00027a 421C          MOV.W     &airA+0,r12           ; [] |107| 
         00027c 0000!
    2452 00027e 421D          MOV.W     &airA+2,r13           ; [] |107| 
         000280 0002!
    2453            $C$DW$111       .dwtag  DW_TAG_TI_branch
MSP430 Assembler PC v21.6.1 Tue Dec 20 13:45:56 2022

Copyright (c) 2003-2018 Texas Instruments Incorporated
Air_Compressors.asm                                                  PAGE   49

    2454                    .dwattr $C$DW$111, DW_AT_low_pc(0x00)
    2455                    .dwattr $C$DW$111, DW_AT_name("__mspabi_cvtfd")
    2456                    .dwattr $C$DW$111, DW_AT_TI_call
    2457            
    2458 000282 13B0!         CALLA     #__mspabi_cvtfd       ; [] |107| 
         000284 0000 
    2459                                                      ; [] |107| 
    2460 000286 07CB          MOVA      r7,r11                ; [] |107| 
    2461            $C$DW$112       .dwtag  DW_TAG_TI_branch
    2462                    .dwattr $C$DW$112, DW_AT_low_pc(0x00)
    2463                    .dwattr $C$DW$112, DW_AT_name("__mspabi_mpyd")
    2464                    .dwattr $C$DW$112, DW_AT_TI_call
    2465            
    2466 000288 13B0!         CALLA     #__mspabi_mpyd        ; [] |107| 
         00028a 0000 
    2467                                                      ; [] |107| 
    2468 00028c 0CC8          MOVA      r12,r8                ; [] |107| 
    2469 00028e 0DC9          MOVA      r13,r9                ; [] |107| 
    2470 000290 0ECA          MOVA      r14,r10               ; [] |107| 
    2471 000292 0FC7          MOVA      r15,r7                ; [] |107| 
    2472 000294 421C          MOV.W     &airA+0,r12           ; [] |107| 
         000296 0000!
    2473 000298 421D          MOV.W     &airA+2,r13           ; [] |107| 
         00029a 0002!
    2474            $C$DW$113       .dwtag  DW_TAG_TI_branch
    2475                    .dwattr $C$DW$113, DW_AT_low_pc(0x00)
    2476                    .dwattr $C$DW$113, DW_AT_name("__mspabi_cvtfd")
    2477                    .dwattr $C$DW$113, DW_AT_TI_call
    2478            
    2479 00029c 13B0!         CALLA     #__mspabi_cvtfd       ; [] |107| 
         00029e 0000 
    2480                                                      ; [] |107| 
    2481 0002a0 07CB          MOVA      r7,r11                ; [] |107| 
    2482            $C$DW$114       .dwtag  DW_TAG_TI_branch
    2483                    .dwattr $C$DW$114, DW_AT_low_pc(0x00)
    2484                    .dwattr $C$DW$114, DW_AT_name("__mspabi_mpyd")
    2485                    .dwattr $C$DW$114, DW_AT_TI_call
    2486            
    2487 0002a2 13B0!         CALLA     #__mspabi_mpyd        ; [] |107| 
         0002a4 0000 
    2488                                                      ; [] |107| 
    2489 0002a6 4C81          MOV.W     r12,0(SP)             ; [] 
         0002a8 0000 
    2490 0002aa 0DC4          MOVA      r13,r4                ; [] |107| 
    2491 0002ac 0EC5          MOVA      r14,r5                ; [] |107| 
    2492 0002ae 0FC6          MOVA      r15,r6                ; [] |107| 
    2493 0002b0 421C          MOV.W     &airA+0,r12           ; [] |107| 
         0002b2 0000!
    2494 0002b4 421D          MOV.W     &airA+2,r13           ; [] |107| 
         0002b6 0002!
    2495            $C$DW$115       .dwtag  DW_TAG_TI_branch
    2496                    .dwattr $C$DW$115, DW_AT_low_pc(0x00)
    2497                    .dwattr $C$DW$115, DW_AT_name("__mspabi_cvtfd")
    2498                    .dwattr $C$DW$115, DW_AT_TI_call
    2499            
MSP430 Assembler PC v21.6.1 Tue Dec 20 13:45:56 2022

Copyright (c) 2003-2018 Texas Instruments Incorporated
Air_Compressors.asm                                                  PAGE   50

    2500 0002b8 13B0!         CALLA     #__mspabi_cvtfd       ; [] |107| 
         0002ba 0000 
    2501                                                      ; [] |107| 
    2502 0002bc 0CC8          MOVA      r12,r8                ; [] |107| 
    2503 0002be 0DC9          MOVA      r13,r9                ; [] |107| 
    2504 0002c0 0ECA          MOVA      r14,r10               ; [] |107| 
    2505 0002c2 0FC7          MOVA      r15,r7                ; [] |107| 
    2506 0002c4 421C          MOV.W     &airA+0,r12           ; [] |107| 
         0002c6 0000!
    2507 0002c8 421D          MOV.W     &airA+2,r13           ; [] |107| 
         0002ca 0002!
    2508            $C$DW$116       .dwtag  DW_TAG_TI_branch
    2509                    .dwattr $C$DW$116, DW_AT_low_pc(0x00)
    2510                    .dwattr $C$DW$116, DW_AT_name("__mspabi_cvtfd")
    2511                    .dwattr $C$DW$116, DW_AT_TI_call
    2512            
    2513 0002cc 13B0!         CALLA     #__mspabi_cvtfd       ; [] |107| 
         0002ce 0000 
    2514                                                      ; [] |107| 
    2515 0002d0 07CB          MOVA      r7,r11                ; [] |107| 
    2516            $C$DW$117       .dwtag  DW_TAG_TI_branch
    2517                    .dwattr $C$DW$117, DW_AT_low_pc(0x00)
    2518                    .dwattr $C$DW$117, DW_AT_name("__mspabi_addd")
    2519                    .dwattr $C$DW$117, DW_AT_TI_call
    2520            
    2521 0002d2 13B0!         CALLA     #__mspabi_addd        ; [] |107| 
         0002d4 0000 
    2522                                                      ; [] |107| 
    2523 0002d6 0CC8          MOVA      r12,r8                ; [] |107| 
    2524 0002d8 0DC9          MOVA      r13,r9                ; [] |107| 
    2525 0002da 0ECA          MOVA      r14,r10               ; [] |107| 
    2526 0002dc 0FC7          MOVA      r15,r7                ; [] |107| 
    2527            ;* --------------------------------------------------------------------------*
    2528 0002de 421C          MOV.W     &airA+0,r12           ; [] |107| 
         0002e0 0000!
    2529 0002e2 421D          MOV.W     &airA+2,r13           ; [] |107| 
         0002e4 0002!
    2530            $C$DW$118       .dwtag  DW_TAG_TI_branch
    2531                    .dwattr $C$DW$118, DW_AT_low_pc(0x00)
    2532                    .dwattr $C$DW$118, DW_AT_name("__mspabi_cvtfd")
    2533                    .dwattr $C$DW$118, DW_AT_TI_call
    2534            
    2535 0002e6 13B0!         CALLA     #__mspabi_cvtfd       ; [] |107| 
         0002e8 0000 
    2536                                                      ; [] |107| 
    2537 0002ea 07CB          MOVA      r7,r11                ; [] |107| 
    2538            $C$DW$119       .dwtag  DW_TAG_TI_branch
    2539                    .dwattr $C$DW$119, DW_AT_low_pc(0x00)
    2540                    .dwattr $C$DW$119, DW_AT_name("__mspabi_mpyd")
    2541                    .dwattr $C$DW$119, DW_AT_TI_call
    2542            
    2543 0002ec 13B0!         CALLA     #__mspabi_mpyd        ; [] |107| 
         0002ee 0000 
    2544                                                      ; [] |107| 
    2545 0002f0 4128          MOV.W     0(SP),r8              ; [] 
MSP430 Assembler PC v21.6.1 Tue Dec 20 13:45:56 2022

Copyright (c) 2003-2018 Texas Instruments Incorporated
Air_Compressors.asm                                                  PAGE   51

    2546 0002f2 04C9          MOVA      r4,r9                 ; [] |107| 
    2547 0002f4 05CA          MOVA      r5,r10                ; [] |107| 
    2548 0002f6 06CB          MOVA      r6,r11                ; [] |107| 
    2549            $C$DW$120       .dwtag  DW_TAG_TI_branch
    2550                    .dwattr $C$DW$120, DW_AT_low_pc(0x00)
    2551                    .dwattr $C$DW$120, DW_AT_name("__mspabi_addd")
    2552                    .dwattr $C$DW$120, DW_AT_TI_call
    2553            
    2554 0002f8 13B0!         CALLA     #__mspabi_addd        ; [] |107| 
         0002fa 0000 
    2555                                                      ; [] |107| 
    2556 0002fc 0CC4          MOVA      r12,r4                ; [] |107| 
    2557 0002fe 0DC5          MOVA      r13,r5                ; [] |107| 
    2558 000300 0EC6          MOVA      r14,r6                ; [] |107| 
    2559 000302 0FC7          MOVA      r15,r7                ; [] |107| 
    2560 000304 421C          MOV.W     &airA+0,r12           ; [] |107| 
         000306 0000!
    2561 000308 421D          MOV.W     &airA+2,r13           ; [] |107| 
         00030a 0002!
    2562            $C$DW$121       .dwtag  DW_TAG_TI_branch
    2563                    .dwattr $C$DW$121, DW_AT_low_pc(0x00)
    2564                    .dwattr $C$DW$121, DW_AT_name("__mspabi_cvtfd")
    2565                    .dwattr $C$DW$121, DW_AT_TI_call
    2566            
    2567 00030c 13B0!         CALLA     #__mspabi_cvtfd       ; [] |107| 
         00030e 0000 
    2568                                                      ; [] |107| 
    2569 000310 0CC8          MOVA      r12,r8                ; [] |107| 
    2570 000312 0DC9          MOVA      r13,r9                ; [] |107| 
    2571 000314 0ECA          MOVA      r14,r10               ; [] |107| 
    2572 000316 0FCB          MOVA      r15,r11               ; [] |107| 
    2573 000318 430C          MOV.W     #0,r12                ; [] |107| 
    2574 00031a 430D          MOV.W     #0,r13                ; [] |107| 
    2575 00031c 430E          MOV.W     #0,r14                ; [] |107| 
    2576 00031e 403F          MOV.W     #16451,r15            ; [] |107| 
         000320 4043 
    2577            $C$DW$122       .dwtag  DW_TAG_TI_branch
    2578                    .dwattr $C$DW$122, DW_AT_low_pc(0x00)
    2579                    .dwattr $C$DW$122, DW_AT_name("__mspabi_mpyd")
    2580                    .dwattr $C$DW$122, DW_AT_TI_call
    2581            
    2582 000322 13B0!         CALLA     #__mspabi_mpyd        ; [] |107| 
         000324 0000 
    2583                                                      ; [] |107| 
    2584 000326 04C8          MOVA      r4,r8                 ; [] |107| 
    2585 000328 05C9          MOVA      r5,r9                 ; [] |107| 
    2586 00032a 06CA          MOVA      r6,r10                ; [] |107| 
    2587 00032c 07CB          MOVA      r7,r11                ; [] |107| 
    2588            $C$DW$123       .dwtag  DW_TAG_TI_branch
    2589                    .dwattr $C$DW$123, DW_AT_low_pc(0x00)
    2590                    .dwattr $C$DW$123, DW_AT_name("__mspabi_addd")
    2591                    .dwattr $C$DW$123, DW_AT_TI_call
    2592            
    2593 00032e 13B0!         CALLA     #__mspabi_addd        ; [] |107| 
         000330 0000 
MSP430 Assembler PC v21.6.1 Tue Dec 20 13:45:56 2022

Copyright (c) 2003-2018 Texas Instruments Incorporated
Air_Compressors.asm                                                  PAGE   52

    2594                                                      ; [] |107| 
    2595 000332 0CC8          MOVA      r12,r8                ; [] |107| 
    2596 000334 0DC9          MOVA      r13,r9                ; [] |107| 
    2597 000336 0ECA          MOVA      r14,r10               ; [] |107| 
    2598 000338 0FCB          MOVA      r15,r11               ; [] |107| 
    2599 00033a 430C          MOV.W     #0,r12                ; [] |107| 
    2600 00033c 430D          MOV.W     #0,r13                ; [] |107| 
    2601 00033e 430E          MOV.W     #0,r14                ; [] |107| 
    2602 000340 403F          MOV.W     #16436,r15            ; [] |107| 
         000342 4034 
    2603            $C$DW$124       .dwtag  DW_TAG_TI_branch
    2604                    .dwattr $C$DW$124, DW_AT_low_pc(0x00)
    2605                    .dwattr $C$DW$124, DW_AT_name("__mspabi_addd")
    2606                    .dwattr $C$DW$124, DW_AT_TI_call
    2607            
    2608 000344 13B0!         CALLA     #__mspabi_addd        ; [] |107| 
         000346 0000 
    2609                                                      ; [] |107| 
    2610 000348 0CC8          MOVA      r12,r8                ; [] |107| 
    2611 00034a 0DC9          MOVA      r13,r9                ; [] |107| 
    2612 00034c 0ECA          MOVA      r14,r10               ; [] |107| 
    2613 00034e 0FCB          MOVA      r15,r11               ; [] |107| 
    2614 000350 430C          MOV.W     #0,r12                ; [] |107| 
    2615 000352 430D          MOV.W     #0,r13                ; [] |107| 
    2616 000354 430E          MOV.W     #0,r14                ; [] |107| 
    2617 000356 403F          MOV.W     #16352,r15            ; [] |107| 
         000358 3FE0 
    2618            $C$DW$125       .dwtag  DW_TAG_TI_branch
    2619                    .dwattr $C$DW$125, DW_AT_low_pc(0x00)
    2620                    .dwattr $C$DW$125, DW_AT_name("__mspabi_addd")
    2621                    .dwattr $C$DW$125, DW_AT_TI_call
    2622            
    2623 00035a 13B0!         CALLA     #__mspabi_addd        ; [] |107| 
         00035c 0000 
    2624                                                      ; [] |107| 
    2625            $C$DW$126       .dwtag  DW_TAG_TI_branch
    2626                    .dwattr $C$DW$126, DW_AT_low_pc(0x00)
    2627                    .dwattr $C$DW$126, DW_AT_name("__mspabi_fixdu")
    2628                    .dwattr $C$DW$126, DW_AT_TI_call
    2629            
    2630 00035e 13B0!         CALLA     #__mspabi_fixdu       ; [] |107| 
         000360 0000 
    2631                                                      ; [] |107| 
    2632 000362 4C82          MOV.W     r12,&afc+0            ; [] |107| 
         000364 0000!
    2633 000366 9382          TST.W     &afc+0                ; [] |107| 
         000368 0000!
    2634 00036a 2416          JEQ       $C$L58                ; [] |107| 
    2635                                                      ; [] |107| 
    2636            ;* --------------------------------------------------------------------------*
    2637 00036c 421C          MOV.W     &air+0,r12            ; [] |107| 
         00036e 0000!
    2638 000370 421D          MOV.W     &air+2,r13            ; [] |107| 
         000372 0002!
    2639            $C$DW$127       .dwtag  DW_TAG_TI_branch
MSP430 Assembler PC v21.6.1 Tue Dec 20 13:45:56 2022

Copyright (c) 2003-2018 Texas Instruments Incorporated
Air_Compressors.asm                                                  PAGE   53

    2640                    .dwattr $C$DW$127, DW_AT_low_pc(0x00)
    2641                    .dwattr $C$DW$127, DW_AT_name("__mspabi_cvtfd")
    2642                    .dwattr $C$DW$127, DW_AT_TI_call
    2643            
    2644 000374 13B0!         CALLA     #__mspabi_cvtfd       ; [] |107| 
         000376 0000 
    2645                                                      ; [] |107| 
    2646 000378 0CC8          MOVA      r12,r8                ; [] |107| 
    2647 00037a 0DC9          MOVA      r13,r9                ; [] |107| 
    2648 00037c 0ECA          MOVA      r14,r10               ; [] |107| 
    2649 00037e 0FCB          MOVA      r15,r11               ; [] |107| 
    2650 000380 403C          MOV.W     #39322,r12            ; [] |107| 
         000382 999A 
    2651 000384 403D          MOV.W     #39321,r13            ; [] |107| 
         000386 9999 
    2652 000388 403E          MOV.W     #39321,r14            ; [] |107| 
         00038a 9999 
    2653 00038c 403F          MOV.W     #16329,r15            ; [] |107| 
         00038e 3FC9 
    2654            $C$DW$128       .dwtag  DW_TAG_TI_branch
    2655                    .dwattr $C$DW$128, DW_AT_low_pc(0x00)
    2656                    .dwattr $C$DW$128, DW_AT_name("__mspabi_cmpd")
    2657                    .dwattr $C$DW$128, DW_AT_TI_call
    2658            
    2659 000390 13B0!         CALLA     #__mspabi_cmpd        ; [] |107| 
         000392 0000 
    2660                                                      ; [] |107| 
    2661 000394 930C          TST.W     r12                   ; [] |107| 
    2662 000396 3402          JGE       $C$L59                ; [] |107| 
    2663                                                      ; [] |107| 
    2664            ;* --------------------------------------------------------------------------*
    2665 000398       $C$L58:    
    2666                    .dwpsn  file "../src/Air_Compressors.C",line 109,column 28,is_stmt,isa 0
    2667 000398 4382          MOV.W     #0,&afc+0             ; [] |109| 
         00039a 0000!
    2668            ;* --------------------------------------------------------------------------*
    2669 00039c       $C$L59:    
    2670                    .dwpsn  file "../src/Air_Compressors.C",line 110,column 3,is_stmt,isa 0
    2671 00039c 90B2          CMP.W     #281,&afc+0           ; [] |110| 
         00039e 0119 
         0003a0 0000!
    2672 0003a2 2803          JLO       $C$L60                ; [] |110| 
    2673                                                      ; [] |110| 
    2674            ;* --------------------------------------------------------------------------*
    2675                    .dwpsn  file "../src/Air_Compressors.C",line 110,column 17,is_stmt,isa 0
    2676 0003a4 40B2          MOV.W     #280,&afc+0           ; [] |110| 
         0003a6 0118 
         0003a8 0000!
    2677            ;* --------------------------------------------------------------------------*
    2678 0003aa       $C$L60:    
    2679                    .dwpsn  file "../src/Air_Compressors.C",line 112,column 3,is_stmt,isa 0
    2680 0003aa 4292          MOV.W     &afc+0,&TB0CCR2+0     ; [] |112| 
         0003ac 0000!
         0003ae 0000!
    2681                    .dwpsn  file "../src/Air_Compressors.C",line 120,column 3,is_stmt,isa 0
MSP430 Assembler PC v21.6.1 Tue Dec 20 13:45:56 2022

Copyright (c) 2003-2018 Texas Instruments Incorporated
Air_Compressors.asm                                                  PAGE   54

    2682 0003b0 421C          MOV.W     &FC_Burner_air+0,r12  ; [] |120| 
         0003b2 0000!
    2683 0003b4 421D          MOV.W     &FC_Burner_air+2,r13  ; [] |120| 
         0003b6 0002!
    2684 0003b8 430E          MOV.W     #0,r14                ; [] |120| 
    2685 0003ba 430F          MOV.W     #0,r15                ; [] |120| 
    2686            $C$DW$129       .dwtag  DW_TAG_TI_branch
    2687                    .dwattr $C$DW$129, DW_AT_low_pc(0x00)
    2688                    .dwattr $C$DW$129, DW_AT_name("__mspabi_cmpf")
    2689                    .dwattr $C$DW$129, DW_AT_TI_call
    2690            
    2691 0003bc 13B0!         CALLA     #__mspabi_cmpf        ; [] |120| 
         0003be 0000 
    2692                                                      ; [] |120| 
    2693 0003c0 930C          TST.W     r12                   ; [] |120| 
    2694 0003c2 3404          JGE       $C$L61                ; [] |120| 
    2695                                                      ; [] |120| 
    2696            ;* --------------------------------------------------------------------------*
    2697                    .dwpsn  file "../src/Air_Compressors.C",line 120,column 27,is_stmt,isa 0
    2698 0003c4 4382          MOV.W     #0,&FC_Burner_air+0   ; [] |120| 
         0003c6 0000!
    2699 0003c8 4382          MOV.W     #0,&FC_Burner_air+2   ; [] |120| 
         0003ca 0002!
    2700            ;* --------------------------------------------------------------------------*
    2701 0003cc       $C$L61:    
    2702                    .dwpsn  file "../src/Air_Compressors.C",line 121,column 3,is_stmt,isa 0
    2703 0003cc 430C          MOV.W     #0,r12                ; [] |121| 
    2704 0003ce 403D          MOV.W     #16544,r13            ; [] |121| 
         0003d0 40A0 
    2705 0003d2 421E          MOV.W     &FC_Burner_air+0,r14  ; [] |121| 
         0003d4 0000!
    2706 0003d6 421F          MOV.W     &FC_Burner_air+2,r15  ; [] |121| 
         0003d8 0002!
    2707            $C$DW$130       .dwtag  DW_TAG_TI_branch
    2708                    .dwattr $C$DW$130, DW_AT_low_pc(0x00)
    2709                    .dwattr $C$DW$130, DW_AT_name("__mspabi_cmpf")
    2710                    .dwattr $C$DW$130, DW_AT_TI_call
    2711            
    2712 0003da 13B0!         CALLA     #__mspabi_cmpf        ; [] |121| 
         0003dc 0000 
    2713                                                      ; [] |121| 
    2714 0003de 930C          TST.W     r12                   ; [] |121| 
    2715 0003e0 3405          JGE       $C$L62                ; [] |121| 
    2716                                                      ; [] |121| 
    2717            ;* --------------------------------------------------------------------------*
    2718                    .dwpsn  file "../src/Air_Compressors.C",line 121,column 27,is_stmt,isa 0
    2719 0003e2 4382          MOV.W     #0,&FC_Burner_air+0   ; [] |121| 
         0003e4 0000!
    2720 0003e6 40B2          MOV.W     #16544,&FC_Burner_air+2 ; [] |121| 
         0003e8 40A0 
         0003ea 0002!
    2721            ;* --------------------------------------------------------------------------*
    2722 0003ec       $C$L62:    
    2723                    .dwpsn  file "../src/Air_Compressors.C",line 123,column 3,is_stmt,isa 0
    2724 0003ec 430C          MOV.W     #0,r12                ; [] |123| 
MSP430 Assembler PC v21.6.1 Tue Dec 20 13:45:56 2022

Copyright (c) 2003-2018 Texas Instruments Incorporated
Air_Compressors.asm                                                  PAGE   55

    2725 0003ee 430D          MOV.W     #0,r13                ; [] |123| 
    2726 0003f0 421E          MOV.W     &FC_Burner_air_GUI+0,r14 ; [] |123| 
         0003f2 0000!
    2727 0003f4 421F          MOV.W     &FC_Burner_air_GUI+2,r15 ; [] |123| 
         0003f6 0002!
    2728            $C$DW$131       .dwtag  DW_TAG_TI_branch
    2729                    .dwattr $C$DW$131, DW_AT_low_pc(0x00)
    2730                    .dwattr $C$DW$131, DW_AT_name("__mspabi_cmpf")
    2731                    .dwattr $C$DW$131, DW_AT_TI_call
    2732            
    2733 0003f8 13B0!         CALLA     #__mspabi_cmpf        ; [] |123| 
         0003fa 0000 
    2734                                                      ; [] |123| 
    2735 0003fc 930C          TST.W     r12                   ; [] |123| 
    2736 0003fe 3406          JGE       $C$L63                ; [] |123| 
    2737                                                      ; [] |123| 
    2738            ;* --------------------------------------------------------------------------*
    2739                    .dwpsn  file "../src/Air_Compressors.C",line 124,column 6,is_stmt,isa 0
    2740 000400 4292          MOV.W     &FC_Burner_air_GUI+0,&FC_Burner_air+0 ; [] |124| 
         000402 0000!
         000404 0000!
    2741 000406 4292          MOV.W     &FC_Burner_air_GUI+2,&FC_Burner_air+2 ; [] |124| 
         000408 0002!
         00040a 0002!
    2742            ;* --------------------------------------------------------------------------*
    2743 00040c       $C$L63:    
    2744                    .dwpsn  file "../src/Air_Compressors.C",line 128,column 3,is_stmt,isa 0
    2745 00040c 4292          MOV.W     &FC_Burner_air+0,&airB+0 ; [] |128| 
         00040e 0000!
         000410 0000!
    2746 000412 4292          MOV.W     &FC_Burner_air+2,&airB+2 ; [] |128| 
         000414 0002!
         000416 0002!
    2747                    .dwpsn  file "../src/Air_Compressors.C",line 132,column 3,is_stmt,isa 0
    2748 000418 421C          MOV.W     &airB+0,r12           ; [] |132| 
         00041a 0000!
    2749 00041c 421D          MOV.W     &airB+2,r13           ; [] |132| 
         00041e 0002!
    2750            $C$DW$132       .dwtag  DW_TAG_TI_branch
    2751                    .dwattr $C$DW$132, DW_AT_low_pc(0x00)
    2752                    .dwattr $C$DW$132, DW_AT_name("__mspabi_cvtfd")
    2753                    .dwattr $C$DW$132, DW_AT_TI_call
    2754            
    2755 000420 13B0!         CALLA     #__mspabi_cvtfd       ; [] |132| 
         000422 0000 
    2756                                                      ; [] |132| 
    2757 000424 0CC8          MOVA      r12,r8                ; [] |132| 
    2758 000426 0DC9          MOVA      r13,r9                ; [] |132| 
    2759 000428 0ECA          MOVA      r14,r10               ; [] |132| 
    2760 00042a 0FCB          MOVA      r15,r11               ; [] |132| 
    2761 00042c 403C          MOV.W     #13107,r12            ; [] |132| 
         00042e 3333 
    2762 000430 403D          MOV.W     #13107,r13            ; [] |132| 
         000432 3333 
    2763 000434 403E          MOV.W     #13107,r14            ; [] |132| 
MSP430 Assembler PC v21.6.1 Tue Dec 20 13:45:56 2022

Copyright (c) 2003-2018 Texas Instruments Incorporated
Air_Compressors.asm                                                  PAGE   56

         000436 3333 
    2764 000438 403F          MOV.W     #16323,r15            ; [] |132| 
         00043a 3FC3 
    2765            $C$DW$133       .dwtag  DW_TAG_TI_branch
    2766                    .dwattr $C$DW$133, DW_AT_low_pc(0x00)
    2767                    .dwattr $C$DW$133, DW_AT_name("__mspabi_mpyd")
    2768                    .dwattr $C$DW$133, DW_AT_TI_call
    2769            
    2770 00043c 13B0!         CALLA     #__mspabi_mpyd        ; [] |132| 
         00043e 0000 
    2771                                                      ; [] |132| 
    2772 000440 0CC8          MOVA      r12,r8                ; [] |132| 
    2773 000442 0DC9          MOVA      r13,r9                ; [] |132| 
    2774 000444 0ECA          MOVA      r14,r10               ; [] |132| 
    2775 000446 0FC7          MOVA      r15,r7                ; [] |132| 
    2776 000448 421C          MOV.W     &airB+0,r12           ; [] |132| 
         00044a 0000!
    2777 00044c 421D          MOV.W     &airB+2,r13           ; [] |132| 
         00044e 0002!
    2778            $C$DW$134       .dwtag  DW_TAG_TI_branch
    2779                    .dwattr $C$DW$134, DW_AT_low_pc(0x00)
    2780                    .dwattr $C$DW$134, DW_AT_name("__mspabi_cvtfd")
    2781                    .dwattr $C$DW$134, DW_AT_TI_call
    2782            
    2783 000450 13B0!         CALLA     #__mspabi_cvtfd       ; [] |132| 
         000452 0000 
    2784                                                      ; [] |132| 
    2785 000454 07CB          MOVA      r7,r11                ; [] |132| 
    2786            $C$DW$135       .dwtag  DW_TAG_TI_branch
    2787                    .dwattr $C$DW$135, DW_AT_low_pc(0x00)
    2788                    .dwattr $C$DW$135, DW_AT_name("__mspabi_mpyd")
    2789                    .dwattr $C$DW$135, DW_AT_TI_call
    2790            
    2791 000456 13B0!         CALLA     #__mspabi_mpyd        ; [] |132| 
         000458 0000 
    2792                                                      ; [] |132| 
    2793 00045a 0CC8          MOVA      r12,r8                ; [] |132| 
    2794 00045c 0DC9          MOVA      r13,r9                ; [] |132| 
    2795 00045e 0ECA          MOVA      r14,r10               ; [] |132| 
    2796 000460 0FC7          MOVA      r15,r7                ; [] |132| 
    2797 000462 421C          MOV.W     &airB+0,r12           ; [] |132| 
         000464 0000!
    2798 000466 421D          MOV.W     &airB+2,r13           ; [] |132| 
         000468 0002!
    2799            $C$DW$136       .dwtag  DW_TAG_TI_branch
    2800                    .dwattr $C$DW$136, DW_AT_low_pc(0x00)
    2801                    .dwattr $C$DW$136, DW_AT_name("__mspabi_cvtfd")
    2802                    .dwattr $C$DW$136, DW_AT_TI_call
    2803            
    2804 00046a 13B0!         CALLA     #__mspabi_cvtfd       ; [] |132| 
         00046c 0000 
    2805                                                      ; [] |132| 
    2806 00046e 07CB          MOVA      r7,r11                ; [] |132| 
    2807            $C$DW$137       .dwtag  DW_TAG_TI_branch
    2808                    .dwattr $C$DW$137, DW_AT_low_pc(0x00)
MSP430 Assembler PC v21.6.1 Tue Dec 20 13:45:56 2022

Copyright (c) 2003-2018 Texas Instruments Incorporated
Air_Compressors.asm                                                  PAGE   57

    2809                    .dwattr $C$DW$137, DW_AT_name("__mspabi_mpyd")
    2810                    .dwattr $C$DW$137, DW_AT_TI_call
    2811            
    2812 000470 13B0!         CALLA     #__mspabi_mpyd        ; [] |132| 
         000472 0000 
    2813                                                      ; [] |132| 
    2814 000474 4C81          MOV.W     r12,0(SP)             ; [] 
         000476 0000 
    2815 000478 0DC4          MOVA      r13,r4                ; [] |132| 
    2816 00047a 0EC5          MOVA      r14,r5                ; [] |132| 
    2817 00047c 0FC6          MOVA      r15,r6                ; [] |132| 
    2818 00047e 421C          MOV.W     &airB+0,r12           ; [] |132| 
         000480 0000!
    2819 000482 421D          MOV.W     &airB+2,r13           ; [] |132| 
         000484 0002!
    2820            $C$DW$138       .dwtag  DW_TAG_TI_branch
    2821                    .dwattr $C$DW$138, DW_AT_low_pc(0x00)
    2822                    .dwattr $C$DW$138, DW_AT_name("__mspabi_cvtfd")
    2823                    .dwattr $C$DW$138, DW_AT_TI_call
    2824            
    2825 000486 13B0!         CALLA     #__mspabi_cvtfd       ; [] |132| 
         000488 0000 
    2826                                                      ; [] |132| 
    2827 00048a 0CC8          MOVA      r12,r8                ; [] |132| 
    2828 00048c 0DC9          MOVA      r13,r9                ; [] |132| 
    2829 00048e 0ECA          MOVA      r14,r10               ; [] |132| 
    2830 000490 0FC7          MOVA      r15,r7                ; [] |132| 
    2831 000492 421C          MOV.W     &airB+0,r12           ; [] |132| 
         000494 0000!
    2832 000496 421D          MOV.W     &airB+2,r13           ; [] |132| 
         000498 0002!
    2833            $C$DW$139       .dwtag  DW_TAG_TI_branch
    2834                    .dwattr $C$DW$139, DW_AT_low_pc(0x00)
    2835                    .dwattr $C$DW$139, DW_AT_name("__mspabi_cvtfd")
    2836                    .dwattr $C$DW$139, DW_AT_TI_call
    2837            
    2838 00049a 13B0!         CALLA     #__mspabi_cvtfd       ; [] |132| 
         00049c 0000 
    2839                                                      ; [] |132| 
    2840            ;* --------------------------------------------------------------------------*
    2841 00049e 07CB          MOVA      r7,r11                ; [] |132| 
    2842            $C$DW$140       .dwtag  DW_TAG_TI_branch
    2843                    .dwattr $C$DW$140, DW_AT_low_pc(0x00)
    2844                    .dwattr $C$DW$140, DW_AT_name("__mspabi_addd")
    2845                    .dwattr $C$DW$140, DW_AT_TI_call
    2846            
    2847 0004a0 13B0!         CALLA     #__mspabi_addd        ; [] |132| 
         0004a2 0000 
    2848                                                      ; [] |132| 
    2849 0004a4 0CC8          MOVA      r12,r8                ; [] |132| 
    2850 0004a6 0DC9          MOVA      r13,r9                ; [] |132| 
    2851 0004a8 0ECA          MOVA      r14,r10               ; [] |132| 
    2852 0004aa 0FC7          MOVA      r15,r7                ; [] |132| 
    2853 0004ac 421C          MOV.W     &airB+0,r12           ; [] |132| 
         0004ae 0000!
MSP430 Assembler PC v21.6.1 Tue Dec 20 13:45:56 2022

Copyright (c) 2003-2018 Texas Instruments Incorporated
Air_Compressors.asm                                                  PAGE   58

    2854 0004b0 421D          MOV.W     &airB+2,r13           ; [] |132| 
         0004b2 0002!
    2855            $C$DW$141       .dwtag  DW_TAG_TI_branch
    2856                    .dwattr $C$DW$141, DW_AT_low_pc(0x00)
    2857                    .dwattr $C$DW$141, DW_AT_name("__mspabi_cvtfd")
    2858                    .dwattr $C$DW$141, DW_AT_TI_call
    2859            
    2860 0004b4 13B0!         CALLA     #__mspabi_cvtfd       ; [] |132| 
         0004b6 0000 
    2861                                                      ; [] |132| 
    2862 0004b8 07CB          MOVA      r7,r11                ; [] |132| 
    2863            $C$DW$142       .dwtag  DW_TAG_TI_branch
    2864                    .dwattr $C$DW$142, DW_AT_low_pc(0x00)
    2865                    .dwattr $C$DW$142, DW_AT_name("__mspabi_mpyd")
    2866                    .dwattr $C$DW$142, DW_AT_TI_call
    2867            
    2868 0004ba 13B0!         CALLA     #__mspabi_mpyd        ; [] |132| 
         0004bc 0000 
    2869                                                      ; [] |132| 
    2870 0004be 4128          MOV.W     0(SP),r8              ; [] 
    2871 0004c0 04C9          MOVA      r4,r9                 ; [] |132| 
    2872 0004c2 05CA          MOVA      r5,r10                ; [] |132| 
    2873 0004c4 06CB          MOVA      r6,r11                ; [] |132| 
    2874            $C$DW$143       .dwtag  DW_TAG_TI_branch
    2875                    .dwattr $C$DW$143, DW_AT_low_pc(0x00)
    2876                    .dwattr $C$DW$143, DW_AT_name("__mspabi_addd")
    2877                    .dwattr $C$DW$143, DW_AT_TI_call
    2878            
    2879 0004c6 13B0!         CALLA     #__mspabi_addd        ; [] |132| 
         0004c8 0000 
    2880                                                      ; [] |132| 
    2881 0004ca 0CC4          MOVA      r12,r4                ; [] |132| 
    2882 0004cc 0DC5          MOVA      r13,r5                ; [] |132| 
    2883 0004ce 0EC6          MOVA      r14,r6                ; [] |132| 
    2884 0004d0 0FC7          MOVA      r15,r7                ; [] |132| 
    2885 0004d2 421C          MOV.W     &airB+0,r12           ; [] |132| 
         0004d4 0000!
    2886 0004d6 421D          MOV.W     &airB+2,r13           ; [] |132| 
         0004d8 0002!
    2887            $C$DW$144       .dwtag  DW_TAG_TI_branch
    2888                    .dwattr $C$DW$144, DW_AT_low_pc(0x00)
    2889                    .dwattr $C$DW$144, DW_AT_name("__mspabi_cvtfd")
    2890                    .dwattr $C$DW$144, DW_AT_TI_call
    2891            
    2892 0004da 13B0!         CALLA     #__mspabi_cvtfd       ; [] |132| 
         0004dc 0000 
    2893                                                      ; [] |132| 
    2894 0004de 0CC8          MOVA      r12,r8                ; [] |132| 
    2895 0004e0 0DC9          MOVA      r13,r9                ; [] |132| 
    2896 0004e2 0ECA          MOVA      r14,r10               ; [] |132| 
    2897 0004e4 0FCB          MOVA      r15,r11               ; [] |132| 
    2898 0004e6 430C          MOV.W     #0,r12                ; [] |132| 
    2899 0004e8 430D          MOV.W     #0,r13                ; [] |132| 
    2900 0004ea 430E          MOV.W     #0,r14                ; [] |132| 
    2901 0004ec 403F          MOV.W     #16451,r15            ; [] |132| 
MSP430 Assembler PC v21.6.1 Tue Dec 20 13:45:56 2022

Copyright (c) 2003-2018 Texas Instruments Incorporated
Air_Compressors.asm                                                  PAGE   59

         0004ee 4043 
    2902            $C$DW$145       .dwtag  DW_TAG_TI_branch
    2903                    .dwattr $C$DW$145, DW_AT_low_pc(0x00)
    2904                    .dwattr $C$DW$145, DW_AT_name("__mspabi_mpyd")
    2905                    .dwattr $C$DW$145, DW_AT_TI_call
    2906            
    2907 0004f0 13B0!         CALLA     #__mspabi_mpyd        ; [] |132| 
         0004f2 0000 
    2908                                                      ; [] |132| 
    2909 0004f4 04C8          MOVA      r4,r8                 ; [] |132| 
    2910 0004f6 05C9          MOVA      r5,r9                 ; [] |132| 
    2911 0004f8 06CA          MOVA      r6,r10                ; [] |132| 
    2912 0004fa 07CB          MOVA      r7,r11                ; [] |132| 
    2913            $C$DW$146       .dwtag  DW_TAG_TI_branch
    2914                    .dwattr $C$DW$146, DW_AT_low_pc(0x00)
    2915                    .dwattr $C$DW$146, DW_AT_name("__mspabi_addd")
    2916                    .dwattr $C$DW$146, DW_AT_TI_call
    2917            
    2918 0004fc 13B0!         CALLA     #__mspabi_addd        ; [] |132| 
         0004fe 0000 
    2919                                                      ; [] |132| 
    2920 000500 0CC8          MOVA      r12,r8                ; [] |132| 
    2921 000502 0DC9          MOVA      r13,r9                ; [] |132| 
    2922 000504 0ECA          MOVA      r14,r10               ; [] |132| 
    2923 000506 0FCB          MOVA      r15,r11               ; [] |132| 
    2924 000508 430C          MOV.W     #0,r12                ; [] |132| 
    2925 00050a 430D          MOV.W     #0,r13                ; [] |132| 
    2926 00050c 430E          MOV.W     #0,r14                ; [] |132| 
    2927 00050e 403F          MOV.W     #16436,r15            ; [] |132| 
         000510 4034 
    2928            $C$DW$147       .dwtag  DW_TAG_TI_branch
    2929                    .dwattr $C$DW$147, DW_AT_low_pc(0x00)
    2930                    .dwattr $C$DW$147, DW_AT_name("__mspabi_addd")
    2931                    .dwattr $C$DW$147, DW_AT_TI_call
    2932            
    2933 000512 13B0!         CALLA     #__mspabi_addd        ; [] |132| 
         000514 0000 
    2934                                                      ; [] |132| 
    2935 000516 0CC8          MOVA      r12,r8                ; [] |132| 
    2936 000518 0DC9          MOVA      r13,r9                ; [] |132| 
    2937 00051a 0ECA          MOVA      r14,r10               ; [] |132| 
    2938 00051c 0FCB          MOVA      r15,r11               ; [] |132| 
    2939 00051e 430C          MOV.W     #0,r12                ; [] |132| 
    2940 000520 430D          MOV.W     #0,r13                ; [] |132| 
    2941 000522 430E          MOV.W     #0,r14                ; [] |132| 
    2942 000524 403F          MOV.W     #16352,r15            ; [] |132| 
         000526 3FE0 
    2943            $C$DW$148       .dwtag  DW_TAG_TI_branch
    2944                    .dwattr $C$DW$148, DW_AT_low_pc(0x00)
    2945                    .dwattr $C$DW$148, DW_AT_name("__mspabi_addd")
    2946                    .dwattr $C$DW$148, DW_AT_TI_call
    2947            
    2948 000528 13B0!         CALLA     #__mspabi_addd        ; [] |132| 
         00052a 0000 
    2949                                                      ; [] |132| 
MSP430 Assembler PC v21.6.1 Tue Dec 20 13:45:56 2022

Copyright (c) 2003-2018 Texas Instruments Incorporated
Air_Compressors.asm                                                  PAGE   60

    2950            $C$DW$149       .dwtag  DW_TAG_TI_branch
    2951                    .dwattr $C$DW$149, DW_AT_low_pc(0x00)
    2952                    .dwattr $C$DW$149, DW_AT_name("__mspabi_fixdu")
    2953                    .dwattr $C$DW$149, DW_AT_TI_call
    2954            
    2955 00052c 13B0!         CALLA     #__mspabi_fixdu       ; [] |132| 
         00052e 0000 
    2956                                                      ; [] |132| 
    2957 000530 4C82          MOV.W     r12,&secondary_afc+0  ; [] |132| 
         000532 0000!
    2958 000534 9382          TST.W     &secondary_afc+0      ; [] |132| 
         000536 0000!
    2959 000538 2416          JEQ       $C$L64                ; [] |132| 
    2960                                                      ; [] |132| 
    2961            ;* --------------------------------------------------------------------------*
    2962 00053a 421C          MOV.W     &airB+0,r12           ; [] |132| 
         00053c 0000!
    2963 00053e 421D          MOV.W     &airB+2,r13           ; [] |132| 
         000540 0002!
    2964            $C$DW$150       .dwtag  DW_TAG_TI_branch
    2965                    .dwattr $C$DW$150, DW_AT_low_pc(0x00)
    2966                    .dwattr $C$DW$150, DW_AT_name("__mspabi_cvtfd")
    2967                    .dwattr $C$DW$150, DW_AT_TI_call
    2968            
    2969 000542 13B0!         CALLA     #__mspabi_cvtfd       ; [] |132| 
         000544 0000 
    2970                                                      ; [] |132| 
    2971 000546 0CC8          MOVA      r12,r8                ; [] |132| 
    2972 000548 0DC9          MOVA      r13,r9                ; [] |132| 
    2973 00054a 0ECA          MOVA      r14,r10               ; [] |132| 
    2974 00054c 0FCB          MOVA      r15,r11               ; [] |132| 
    2975 00054e 403C          MOV.W     #39322,r12            ; [] |132| 
         000550 999A 
    2976 000552 403D          MOV.W     #39321,r13            ; [] |132| 
         000554 9999 
    2977 000556 403E          MOV.W     #39321,r14            ; [] |132| 
         000558 9999 
    2978 00055a 403F          MOV.W     #16345,r15            ; [] |132| 
         00055c 3FD9 
    2979            $C$DW$151       .dwtag  DW_TAG_TI_branch
    2980                    .dwattr $C$DW$151, DW_AT_low_pc(0x00)
    2981                    .dwattr $C$DW$151, DW_AT_name("__mspabi_cmpd")
    2982                    .dwattr $C$DW$151, DW_AT_TI_call
    2983            
    2984 00055e 13B0!         CALLA     #__mspabi_cmpd        ; [] |132| 
         000560 0000 
    2985                                                      ; [] |132| 
    2986 000562 930C          TST.W     r12                   ; [] |132| 
    2987 000564 3402          JGE       $C$L65                ; [] |132| 
    2988                                                      ; [] |132| 
    2989            ;* --------------------------------------------------------------------------*
    2990 000566       $C$L64:    
    2991                    .dwpsn  file "../src/Air_Compressors.C",line 134,column 39,is_stmt,isa 0
    2992 000566 4382          MOV.W     #0,&secondary_afc+0   ; [] |134| 
         000568 0000!
MSP430 Assembler PC v21.6.1 Tue Dec 20 13:45:56 2022

Copyright (c) 2003-2018 Texas Instruments Incorporated
Air_Compressors.asm                                                  PAGE   61

    2993            ;* --------------------------------------------------------------------------*
    2994 00056a       $C$L65:    
    2995                    .dwpsn  file "../src/Air_Compressors.C",line 135,column 3,is_stmt,isa 0
    2996 00056a 90B2          CMP.W     #281,&secondary_afc+0 ; [] |135| 
         00056c 0119 
         00056e 0000!
    2997 000570 2803          JLO       $C$L66                ; [] |135| 
    2998                                                      ; [] |135| 
    2999            ;* --------------------------------------------------------------------------*
    3000                    .dwpsn  file "../src/Air_Compressors.C",line 135,column 27,is_stmt,isa 0
    3001 000572 40B2          MOV.W     #280,&secondary_afc+0 ; [] |135| 
         000574 0118 
         000576 0000!
    3002            ;* --------------------------------------------------------------------------*
    3003 000578       $C$L66:    
    3004                    .dwpsn  file "../src/Air_Compressors.C",line 137,column 3,is_stmt,isa 0
    3005 000578 4292          MOV.W     &secondary_afc+0,&TB0CCR4+0 ; [] |137| 
         00057a 0000!
         00057c 0000!
    3006                    .dwpsn  file "../src/Air_Compressors.C",line 138,column 1,is_stmt,isa 0
    3007 00057e 00A1          ADDA      #8,SP                 ; [] 
         000580 0008 
    3008                    .dwcfi  cfa_offset, 32
    3009 000582 1664          POPM.A    #7,r10                ; [] 
    3010                    .dwcfi  restore_reg, 4
    3011                    .dwcfi  restore_reg, 5
    3012                    .dwcfi  restore_reg, 6
    3013                    .dwcfi  restore_reg, 7
    3014                    .dwcfi  restore_reg, 8
    3015                    .dwcfi  restore_reg, 9
    3016                    .dwcfi  restore_reg, 10
    3017                    .dwcfi  cfa_offset, 4
    3018            $C$DW$152       .dwtag  DW_TAG_TI_branch
    3019                    .dwattr $C$DW$152, DW_AT_low_pc(0x00)
    3020                    .dwattr $C$DW$152, DW_AT_TI_return
    3021            
    3022 000584 0110          RETA      ; [] 
    3023                    ; [] 
    3024                    .dwattr $C$DW$86, DW_AT_TI_end_file("../src/Air_Compressors.C")
    3025                    .dwattr $C$DW$86, DW_AT_TI_end_line(0x8a)
    3026                    .dwattr $C$DW$86, DW_AT_TI_end_column(0x01)
    3027                    .dwendentry
    3028                    .dwendtag $C$DW$86
    3029            
    3030            ;*****************************************************************************
    3031            ;* UNDEFINED EXTERNAL REFERENCES                                             *
    3032            ;*****************************************************************************
    3033                    .global TB0CCR2
    3034                    .global TB0CCR4
    3035                    .global Altitude
    3036                    .global TC2_temp
    3037                    .global Tset
    3038                    .global SerialNumber
    3039                    .global air
    3040                    .global ACS
MSP430 Assembler PC v21.6.1 Tue Dec 20 13:45:56 2022

Copyright (c) 2003-2018 Texas Instruments Incorporated
Air_Compressors.asm                                                  PAGE   62

    3041                    .global FC_Burner_air_GUI
    3042                    .global Warming
    3043                    .global ALT_P
    3044                    .global __mspabi_srlll
    3045                    .global __mspabi_fltif
    3046                    .global __mspabi_cmpf
    3047                    .global __mspabi_cvtfd
    3048                    .global __mspabi_fltud
    3049                    .global __mspabi_mpyd
    3050                    .global __mspabi_addd
    3051                    .global __mspabi_fltid
    3052                    .global __mspabi_cvtdf
    3053                    .global __mspabi_fixdu
    3054                    .global __mspabi_cmpd
    3055            ;*****************************************************************************
    3056            ;* SECTION GROUPS                                                            *
    3057            ;*****************************************************************************
    3058                    .group    "__fpclassify", 1
    3059                    .gmember  ".text:__fpclassify"
    3060                    .endgroup
    3061                    .group    "__fpclassifyf", 1
    3062                    .gmember  ".text:__fpclassifyf"
    3063                    .endgroup
    3064                    .group    "__fpclassifyl", 1
    3065                    .gmember  ".text:__fpclassifyl"
    3066                    .endgroup
    3067                    .group    "__isfinite", 1
    3068                    .gmember  ".text:__isfinite"
    3069                    .endgroup
    3070                    .group    "__isfinitef", 1
    3071                    .gmember  ".text:__isfinitef"
    3072                    .endgroup
    3073                    .group    "__isfinitel", 1
    3074                    .gmember  ".text:__isfinitel"
    3075                    .endgroup
    3076                    .group    "__isinf", 1
    3077                    .gmember  ".text:__isinf"
    3078                    .endgroup
    3079                    .group    "__isinff", 1
    3080                    .gmember  ".text:__isinff"
    3081                    .endgroup
    3082                    .group    "__isinfl", 1
    3083                    .gmember  ".text:__isinfl"
    3084                    .endgroup
    3085                    .group    "__isnan", 1
    3086                    .gmember  ".text:__isnan"
    3087                    .endgroup
    3088                    .group    "__isnanf", 1
    3089                    .gmember  ".text:__isnanf"
    3090                    .endgroup
    3091                    .group    "__isnanl", 1
    3092                    .gmember  ".text:__isnanl"
    3093                    .endgroup
    3094                    .group    "__isnormal", 1
    3095                    .gmember  ".text:__isnormal"
MSP430 Assembler PC v21.6.1 Tue Dec 20 13:45:56 2022

Copyright (c) 2003-2018 Texas Instruments Incorporated
Air_Compressors.asm                                                  PAGE   63

    3096                    .endgroup
    3097                    .group    "__isnormalf", 1
    3098                    .gmember  ".text:__isnormalf"
    3099                    .endgroup
    3100                    .group    "__isnormall", 1
    3101                    .gmember  ".text:__isnormall"
    3102                    .endgroup
    3103                    .group    "__signbit", 1
    3104                    .gmember  ".text:__signbit"
    3105                    .endgroup
    3106                    .group    "__signbitf", 1
    3107                    .gmember  ".text:__signbitf"
    3108                    .endgroup
    3109                    .group    "__signbitl", 1
    3110                    .gmember  ".text:__signbitl"
    3111                    .endgroup
    3112            
    3113            
    3114            ;******************************************************************************
    3115            ;* BUILD ATTRIBUTES                                                           *
    3116            ;******************************************************************************
    3117                    .battr "TI", Tag_File, 1, Tag_LPM_INFO(1)
    3118                    .battr "TI", Tag_File, 1, Tag_PORTS_INIT_INFO("012345678901ABCDEFGHIJ0000000000001111110000000
    3119                    .battr "TI", Tag_File, 1, Tag_LEA_INFO(1)
    3120                    .battr "TI", Tag_File, 1, Tag_HW_MPY32_INFO(2)
    3121                    .battr "TI", Tag_File, 1, Tag_HW_MPY_ISR_INFO(1)
    3122                    .battr "TI", Tag_File, 1, Tag_HW_MPY_INLINE_INFO(1)
    3123                    .battr "mspabi", Tag_File, 1, Tag_enum_size(2)
    3124            
    3125            ;******************************************************************************
    3126            ;* TYPE INFORMATION                                                           *
    3127            ;******************************************************************************
    3128            
    3129            $C$DW$T$53      .dwtag  DW_TAG_enumeration_type
    3130                    .dwattr $C$DW$T$53, DW_AT_byte_size(0x02)
    3131            $C$DW$153       .dwtag  DW_TAG_enumerator
    3132                    .dwattr $C$DW$153, DW_AT_name("WarmUp")
    3133                    .dwattr $C$DW$153, DW_AT_const_value(0x00)
    3134                    .dwattr $C$DW$153, DW_AT_decl_file("C:/Users/MCourson/workspace_v11/MZERO_HB50Board/include/Ma
    3135                    .dwattr $C$DW$153, DW_AT_decl_line(0x59)
    3136                    .dwattr $C$DW$153, DW_AT_decl_column(0x05)
    3137            
    3138            $C$DW$154       .dwtag  DW_TAG_enumerator
    3139                    .dwattr $C$DW$154, DW_AT_name("Startup")
    3140                    .dwattr $C$DW$154, DW_AT_const_value(0x01)
    3141                    .dwattr $C$DW$154, DW_AT_decl_file("C:/Users/MCourson/workspace_v11/MZERO_HB50Board/include/Ma
    3142                    .dwattr $C$DW$154, DW_AT_decl_line(0x5a)
    3143                    .dwattr $C$DW$154, DW_AT_decl_column(0x05)
    3144            
    3145            $C$DW$155       .dwtag  DW_TAG_enumerator
    3146                    .dwattr $C$DW$155, DW_AT_name("Normal_Run")
    3147                    .dwattr $C$DW$155, DW_AT_const_value(0x02)
    3148                    .dwattr $C$DW$155, DW_AT_decl_file("C:/Users/MCourson/workspace_v11/MZERO_HB50Board/include/Ma
    3149                    .dwattr $C$DW$155, DW_AT_decl_line(0x5b)
    3150                    .dwattr $C$DW$155, DW_AT_decl_column(0x05)
MSP430 Assembler PC v21.6.1 Tue Dec 20 13:45:56 2022

Copyright (c) 2003-2018 Texas Instruments Incorporated
Air_Compressors.asm                                                  PAGE   64

    3151            
    3152            $C$DW$156       .dwtag  DW_TAG_enumerator
    3153                    .dwattr $C$DW$156, DW_AT_name("Standby")
    3154                    .dwattr $C$DW$156, DW_AT_const_value(0x03)
    3155                    .dwattr $C$DW$156, DW_AT_decl_file("C:/Users/MCourson/workspace_v11/MZERO_HB50Board/include/Ma
    3156                    .dwattr $C$DW$156, DW_AT_decl_line(0x5c)
    3157                    .dwattr $C$DW$156, DW_AT_decl_column(0x05)
    3158            
    3159            $C$DW$157       .dwtag  DW_TAG_enumerator
    3160                    .dwattr $C$DW$157, DW_AT_name("ShutDown")
    3161                    .dwattr $C$DW$157, DW_AT_const_value(0x04)
    3162                    .dwattr $C$DW$157, DW_AT_decl_file("C:/Users/MCourson/workspace_v11/MZERO_HB50Board/include/Ma
    3163                    .dwattr $C$DW$157, DW_AT_decl_line(0x5d)
    3164                    .dwattr $C$DW$157, DW_AT_decl_column(0x05)
    3165            
    3166            $C$DW$158       .dwtag  DW_TAG_enumerator
    3167                    .dwattr $C$DW$158, DW_AT_name("Self_Test")
    3168                    .dwattr $C$DW$158, DW_AT_const_value(0x05)
    3169                    .dwattr $C$DW$158, DW_AT_decl_file("C:/Users/MCourson/workspace_v11/MZERO_HB50Board/include/Ma
    3170                    .dwattr $C$DW$158, DW_AT_decl_line(0x5e)
    3171                    .dwattr $C$DW$158, DW_AT_decl_column(0x05)
    3172            
    3173            $C$DW$159       .dwtag  DW_TAG_enumerator
    3174                    .dwattr $C$DW$159, DW_AT_name("Sleep")
    3175                    .dwattr $C$DW$159, DW_AT_const_value(0x06)
    3176                    .dwattr $C$DW$159, DW_AT_decl_file("C:/Users/MCourson/workspace_v11/MZERO_HB50Board/include/Ma
    3177                    .dwattr $C$DW$159, DW_AT_decl_line(0x5f)
    3178                    .dwattr $C$DW$159, DW_AT_decl_column(0x05)
    3179            
    3180            $C$DW$160       .dwtag  DW_TAG_enumerator
    3181                    .dwattr $C$DW$160, DW_AT_name("Fault")
    3182                    .dwattr $C$DW$160, DW_AT_const_value(0x07)
    3183                    .dwattr $C$DW$160, DW_AT_decl_file("C:/Users/MCourson/workspace_v11/MZERO_HB50Board/include/Ma
    3184                    .dwattr $C$DW$160, DW_AT_decl_line(0x60)
    3185                    .dwattr $C$DW$160, DW_AT_decl_column(0x05)
    3186            
    3187            $C$DW$161       .dwtag  DW_TAG_enumerator
    3188                    .dwattr $C$DW$161, DW_AT_name("Wait")
    3189                    .dwattr $C$DW$161, DW_AT_const_value(0x08)
    3190                    .dwattr $C$DW$161, DW_AT_decl_file("C:/Users/MCourson/workspace_v11/MZERO_HB50Board/include/Ma
    3191                    .dwattr $C$DW$161, DW_AT_decl_line(0x61)
    3192                    .dwattr $C$DW$161, DW_AT_decl_column(0x05)
    3193            
    3194            $C$DW$162       .dwtag  DW_TAG_enumerator
    3195                    .dwattr $C$DW$162, DW_AT_name("Cool_down")
    3196                    .dwattr $C$DW$162, DW_AT_const_value(0x09)
    3197                    .dwattr $C$DW$162, DW_AT_decl_file("C:/Users/MCourson/workspace_v11/MZERO_HB50Board/include/Ma
    3198                    .dwattr $C$DW$162, DW_AT_decl_line(0x62)
    3199                    .dwattr $C$DW$162, DW_AT_decl_column(0x05)
    3200            
    3201                    .dwattr $C$DW$T$53, DW_AT_decl_file("C:/Users/MCourson/workspace_v11/MZERO_HB50Board/include/M
    3202                    .dwattr $C$DW$T$53, DW_AT_decl_line(0x58)
    3203                    .dwattr $C$DW$T$53, DW_AT_decl_column(0x0e)
    3204                    .dwendtag $C$DW$T$53
    3205            
MSP430 Assembler PC v21.6.1 Tue Dec 20 13:45:56 2022

Copyright (c) 2003-2018 Texas Instruments Incorporated
Air_Compressors.asm                                                  PAGE   65

    3206            $C$DW$T$54      .dwtag  DW_TAG_typedef
    3207                    .dwattr $C$DW$T$54, DW_AT_name("State")
    3208                    .dwattr $C$DW$T$54, DW_AT_type(*$C$DW$T$53)
    3209                    .dwattr $C$DW$T$54, DW_AT_language(DW_LANG_C)
    3210                    .dwattr $C$DW$T$54, DW_AT_decl_file("C:/Users/MCourson/workspace_v11/MZERO_HB50Board/include/M
    3211                    .dwattr $C$DW$T$54, DW_AT_decl_line(0x63)
    3212                    .dwattr $C$DW$T$54, DW_AT_decl_column(0x03)
    3213            
    3214            
    3215            $C$DW$T$55      .dwtag  DW_TAG_enumeration_type
    3216                    .dwattr $C$DW$T$55, DW_AT_byte_size(0x02)
    3217            $C$DW$163       .dwtag  DW_TAG_enumerator
    3218                    .dwattr $C$DW$163, DW_AT_name("COLD")
    3219                    .dwattr $C$DW$163, DW_AT_const_value(0x00)
    3220                    .dwattr $C$DW$163, DW_AT_decl_file("C:/Users/MCourson/workspace_v11/MZERO_HB50Board/include/Ma
    3221                    .dwattr $C$DW$163, DW_AT_decl_line(0x68)
    3222                    .dwattr $C$DW$163, DW_AT_decl_column(0x05)
    3223            
    3224            $C$DW$164       .dwtag  DW_TAG_enumerator
    3225                    .dwattr $C$DW$164, DW_AT_name("WARM")
    3226                    .dwattr $C$DW$164, DW_AT_const_value(0x01)
    3227                    .dwattr $C$DW$164, DW_AT_decl_file("C:/Users/MCourson/workspace_v11/MZERO_HB50Board/include/Ma
    3228                    .dwattr $C$DW$164, DW_AT_decl_line(0x69)
    3229                    .dwattr $C$DW$164, DW_AT_decl_column(0x05)
    3230            
    3231            $C$DW$165       .dwtag  DW_TAG_enumerator
    3232                    .dwattr $C$DW$165, DW_AT_name("OPERATIONAL")
    3233                    .dwattr $C$DW$165, DW_AT_const_value(0x02)
    3234                    .dwattr $C$DW$165, DW_AT_decl_file("C:/Users/MCourson/workspace_v11/MZERO_HB50Board/include/Ma
    3235                    .dwattr $C$DW$165, DW_AT_decl_line(0x6a)
    3236                    .dwattr $C$DW$165, DW_AT_decl_column(0x05)
    3237            
    3238                    .dwattr $C$DW$T$55, DW_AT_decl_file("C:/Users/MCourson/workspace_v11/MZERO_HB50Board/include/M
    3239                    .dwattr $C$DW$T$55, DW_AT_decl_line(0x67)
    3240                    .dwattr $C$DW$T$55, DW_AT_decl_column(0x0e)
    3241                    .dwendtag $C$DW$T$55
    3242            
    3243            $C$DW$T$56      .dwtag  DW_TAG_typedef
    3244                    .dwattr $C$DW$T$56, DW_AT_name("SetState")
    3245                    .dwattr $C$DW$T$56, DW_AT_type(*$C$DW$T$55)
    3246                    .dwattr $C$DW$T$56, DW_AT_language(DW_LANG_C)
    3247                    .dwattr $C$DW$T$56, DW_AT_decl_file("C:/Users/MCourson/workspace_v11/MZERO_HB50Board/include/M
    3248                    .dwattr $C$DW$T$56, DW_AT_decl_line(0x6b)
    3249                    .dwattr $C$DW$T$56, DW_AT_decl_column(0x03)
    3250            
    3251            
    3252            $C$DW$T$57      .dwtag  DW_TAG_enumeration_type
    3253                    .dwattr $C$DW$T$57, DW_AT_byte_size(0x02)
    3254            $C$DW$166       .dwtag  DW_TAG_enumerator
    3255                    .dwattr $C$DW$166, DW_AT_name("none")
    3256                    .dwattr $C$DW$166, DW_AT_const_value(0x00)
    3257                    .dwattr $C$DW$166, DW_AT_decl_file("C:/Users/MCourson/workspace_v11/MZERO_HB50Board/include/Ma
    3258                    .dwattr $C$DW$166, DW_AT_decl_line(0x70)
    3259                    .dwattr $C$DW$166, DW_AT_decl_column(0x05)
    3260            
MSP430 Assembler PC v21.6.1 Tue Dec 20 13:45:56 2022

Copyright (c) 2003-2018 Texas Instruments Incorporated
Air_Compressors.asm                                                  PAGE   66

    3261            $C$DW$167       .dwtag  DW_TAG_enumerator
    3262                    .dwattr $C$DW$167, DW_AT_name("size")
    3263                    .dwattr $C$DW$167, DW_AT_const_value(0x01)
    3264                    .dwattr $C$DW$167, DW_AT_decl_file("C:/Users/MCourson/workspace_v11/MZERO_HB50Board/include/Ma
    3265                    .dwattr $C$DW$167, DW_AT_decl_line(0x71)
    3266                    .dwattr $C$DW$167, DW_AT_decl_column(0x05)
    3267            
    3268            $C$DW$168       .dwtag  DW_TAG_enumerator
    3269                    .dwattr $C$DW$168, DW_AT_name("cmnd")
    3270                    .dwattr $C$DW$168, DW_AT_const_value(0x02)
    3271                    .dwattr $C$DW$168, DW_AT_decl_file("C:/Users/MCourson/workspace_v11/MZERO_HB50Board/include/Ma
    3272                    .dwattr $C$DW$168, DW_AT_decl_line(0x72)
    3273                    .dwattr $C$DW$168, DW_AT_decl_column(0x05)
    3274            
    3275            $C$DW$169       .dwtag  DW_TAG_enumerator
    3276                    .dwattr $C$DW$169, DW_AT_name("dataln")
    3277                    .dwattr $C$DW$169, DW_AT_const_value(0x03)
    3278                    .dwattr $C$DW$169, DW_AT_decl_file("C:/Users/MCourson/workspace_v11/MZERO_HB50Board/include/Ma
    3279                    .dwattr $C$DW$169, DW_AT_decl_line(0x73)
    3280                    .dwattr $C$DW$169, DW_AT_decl_column(0x05)
    3281            
    3282            $C$DW$170       .dwtag  DW_TAG_enumerator
    3283                    .dwattr $C$DW$170, DW_AT_name("chksum")
    3284                    .dwattr $C$DW$170, DW_AT_const_value(0x04)
    3285                    .dwattr $C$DW$170, DW_AT_decl_file("C:/Users/MCourson/workspace_v11/MZERO_HB50Board/include/Ma
    3286                    .dwattr $C$DW$170, DW_AT_decl_line(0x74)
    3287                    .dwattr $C$DW$170, DW_AT_decl_column(0x05)
    3288            
    3289            $C$DW$171       .dwtag  DW_TAG_enumerator
    3290                    .dwattr $C$DW$171, DW_AT_name("crc1")
    3291                    .dwattr $C$DW$171, DW_AT_const_value(0x05)
    3292                    .dwattr $C$DW$171, DW_AT_decl_file("C:/Users/MCourson/workspace_v11/MZERO_HB50Board/include/Ma
    3293                    .dwattr $C$DW$171, DW_AT_decl_line(0x75)
    3294                    .dwattr $C$DW$171, DW_AT_decl_column(0x05)
    3295            
    3296            $C$DW$172       .dwtag  DW_TAG_enumerator
    3297                    .dwattr $C$DW$172, DW_AT_name("crc2")
    3298                    .dwattr $C$DW$172, DW_AT_const_value(0x06)
    3299                    .dwattr $C$DW$172, DW_AT_decl_file("C:/Users/MCourson/workspace_v11/MZERO_HB50Board/include/Ma
    3300                    .dwattr $C$DW$172, DW_AT_decl_line(0x76)
    3301                    .dwattr $C$DW$172, DW_AT_decl_column(0x05)
    3302            
    3303            $C$DW$173       .dwtag  DW_TAG_enumerator
    3304                    .dwattr $C$DW$173, DW_AT_name("ack")
    3305                    .dwattr $C$DW$173, DW_AT_const_value(0x07)
    3306                    .dwattr $C$DW$173, DW_AT_decl_file("C:/Users/MCourson/workspace_v11/MZERO_HB50Board/include/Ma
    3307                    .dwattr $C$DW$173, DW_AT_decl_line(0x77)
    3308                    .dwattr $C$DW$173, DW_AT_decl_column(0x05)
    3309            
    3310            $C$DW$174       .dwtag  DW_TAG_enumerator
    3311                    .dwattr $C$DW$174, DW_AT_name("var")
    3312                    .dwattr $C$DW$174, DW_AT_const_value(0x08)
    3313                    .dwattr $C$DW$174, DW_AT_decl_file("C:/Users/MCourson/workspace_v11/MZERO_HB50Board/include/Ma
    3314                    .dwattr $C$DW$174, DW_AT_decl_line(0x78)
    3315                    .dwattr $C$DW$174, DW_AT_decl_column(0x05)
MSP430 Assembler PC v21.6.1 Tue Dec 20 13:45:56 2022

Copyright (c) 2003-2018 Texas Instruments Incorporated
Air_Compressors.asm                                                  PAGE   67

    3316            
    3317            $C$DW$175       .dwtag  DW_TAG_enumerator
    3318                    .dwattr $C$DW$175, DW_AT_name("UGmsg")
    3319                    .dwattr $C$DW$175, DW_AT_const_value(0x09)
