MSP430 Assembler PC v21.6.1 Tue Dec 20 13:59:30 2022

Copyright (c) 2003-2018 Texas Instruments Incorporated
Dallas.asm                                                           PAGE    1

       1            ;******************************************************************************
       2            ;* MSP430 G3 C/C++ Codegen                                              PC v21.6.1.LTS *
       3            ;* Date/Time created: Tue Dec 20 13:59:30 2022                                *
       4            ;******************************************************************************
       5                    .compiler_opts --abi=eabi --diag_wrap=off --hll_source=on --mem_model:code=large --mem_model:d
       6            
       7            $C$DW$CU        .dwtag  DW_TAG_compile_unit
       8                    .dwattr $C$DW$CU, DW_AT_name("../src/Dallas.c")
       9                    .dwattr $C$DW$CU, DW_AT_producer("TI MSP430 G3 C/C++ Codegen PC v21.6.1.LTS Copyright (c) 2003
      10                    .dwattr $C$DW$CU, DW_AT_TI_version(0x01)
      11                    .dwattr $C$DW$CU, DW_AT_comp_dir("C:\Users\MCourson\workspace_v11\MZERO_HB50Board\Debug")
      12            $C$DW$1 .dwtag  DW_TAG_variable
      13                    .dwattr $C$DW$1, DW_AT_name("PAIN_L")
      14                    .dwattr $C$DW$1, DW_AT_TI_symbol_name("PAIN_L")
      15                    .dwattr $C$DW$1, DW_AT_type(*$C$DW$T$87)
      16                    .dwattr $C$DW$1, DW_AT_declaration
      17                    .dwattr $C$DW$1, DW_AT_external
      18                    .dwattr $C$DW$1, DW_AT_decl_file("C:\ti\ccs1110\ccs\ccs_base\msp430\include\msp430f5438a.h")
      19                    .dwattr $C$DW$1, DW_AT_decl_line(0x45a)
      20                    .dwattr $C$DW$1, DW_AT_decl_column(0x01)
      21            
      22                    .global mode
      23                    .common mode,2,2
      24            $C$DW$2 .dwtag  DW_TAG_variable
      25                    .dwattr $C$DW$2, DW_AT_name("mode")
      26                    .dwattr $C$DW$2, DW_AT_TI_symbol_name("mode")
      27                    .dwattr $C$DW$2, DW_AT_location[DW_OP_addr mode]
      28                    .dwattr $C$DW$2, DW_AT_type(*$C$DW$T$54)
      29                    .dwattr $C$DW$2, DW_AT_external
      30                    .dwattr $C$DW$2, DW_AT_decl_file("C:/Users/MCourson/workspace_v11/MZERO_HB50Board/include/Main
      31                    .dwattr $C$DW$2, DW_AT_decl_line(0x65)
      32                    .dwattr $C$DW$2, DW_AT_decl_column(0x07)
      33            
      34                    .global FCState
      35                    .common FCState,2,2
      36            $C$DW$3 .dwtag  DW_TAG_variable
      37                    .dwattr $C$DW$3, DW_AT_name("FCState")
      38                    .dwattr $C$DW$3, DW_AT_TI_symbol_name("FCState")
      39                    .dwattr $C$DW$3, DW_AT_location[DW_OP_addr FCState]
      40                    .dwattr $C$DW$3, DW_AT_type(*$C$DW$T$56)
      41                    .dwattr $C$DW$3, DW_AT_external
      42                    .dwattr $C$DW$3, DW_AT_decl_file("C:/Users/MCourson/workspace_v11/MZERO_HB50Board/include/Main
      43                    .dwattr $C$DW$3, DW_AT_decl_line(0x6d)
      44                    .dwattr $C$DW$3, DW_AT_decl_column(0x0a)
      45            
      46                    .global msgstatus
      47                    .common msgstatus,2,2
      48            $C$DW$4 .dwtag  DW_TAG_variable
      49                    .dwattr $C$DW$4, DW_AT_name("msgstatus")
      50                    .dwattr $C$DW$4, DW_AT_TI_symbol_name("msgstatus")
      51                    .dwattr $C$DW$4, DW_AT_location[DW_OP_addr msgstatus]
      52                    .dwattr $C$DW$4, DW_AT_type(*$C$DW$T$58)
      53                    .dwattr $C$DW$4, DW_AT_external
      54                    .dwattr $C$DW$4, DW_AT_decl_file("C:/Users/MCourson/workspace_v11/MZERO_HB50Board/include/Main
      55                    .dwattr $C$DW$4, DW_AT_decl_line(0x7c)
MSP430 Assembler PC v21.6.1 Tue Dec 20 13:59:30 2022

Copyright (c) 2003-2018 Texas Instruments Incorporated
Dallas.asm                                                           PAGE    2

      56                    .dwattr $C$DW$4, DW_AT_decl_column(0x0f)
      57            
      58                    .global status
      59                    .common status,2,2
      60            $C$DW$5 .dwtag  DW_TAG_variable
      61                    .dwattr $C$DW$5, DW_AT_name("status")
      62                    .dwattr $C$DW$5, DW_AT_TI_symbol_name("status")
      63                    .dwattr $C$DW$5, DW_AT_location[DW_OP_addr status]
      64                    .dwattr $C$DW$5, DW_AT_type(*$C$DW$T$60)
      65                    .dwattr $C$DW$5, DW_AT_external
      66                    .dwattr $C$DW$5, DW_AT_decl_file("C:/Users/MCourson/workspace_v11/MZERO_HB50Board/include/Main
      67                    .dwattr $C$DW$5, DW_AT_decl_line(0x83)
      68                    .dwattr $C$DW$5, DW_AT_decl_column(0x0e)
      69            
      70            $C$DW$6 .dwtag  DW_TAG_variable
      71                    .dwattr $C$DW$6, DW_AT_name("fuel_gauge_decrement")
      72                    .dwattr $C$DW$6, DW_AT_TI_symbol_name("fuel_gauge_decrement")
      73                    .dwattr $C$DW$6, DW_AT_type(*$C$DW$T$24)
      74                    .dwattr $C$DW$6, DW_AT_declaration
      75                    .dwattr $C$DW$6, DW_AT_external
      76                    .dwattr $C$DW$6, DW_AT_decl_file("../src/Dallas.c")
      77                    .dwattr $C$DW$6, DW_AT_decl_line(0x1e)
      78                    .dwattr $C$DW$6, DW_AT_decl_column(0x10)
      79            
      80                    .global error_message
      81                    .common error_message,198,2
      82            $C$DW$7 .dwtag  DW_TAG_variable
      83                    .dwattr $C$DW$7, DW_AT_name("error_message")
      84                    .dwattr $C$DW$7, DW_AT_TI_symbol_name("error_message")
      85                    .dwattr $C$DW$7, DW_AT_location[DW_OP_addr error_message]
      86                    .dwattr $C$DW$7, DW_AT_type(*$C$DW$T$100)
      87                    .dwattr $C$DW$7, DW_AT_external
      88                    .dwattr $C$DW$7, DW_AT_decl_file("../src/Dallas.c")
      89                    .dwattr $C$DW$7, DW_AT_decl_line(0x20)
      90                    .dwattr $C$DW$7, DW_AT_decl_column(0x05)
      91            
      92            $C$DW$8 .dwtag  DW_TAG_variable
      93                    .dwattr $C$DW$8, DW_AT_name("modelno")
      94                    .dwattr $C$DW$8, DW_AT_TI_symbol_name("modelno")
      95                    .dwattr $C$DW$8, DW_AT_type(*$C$DW$T$24)
      96                    .dwattr $C$DW$8, DW_AT_declaration
      97                    .dwattr $C$DW$8, DW_AT_external
      98                    .dwattr $C$DW$8, DW_AT_decl_file("../src/Dallas.c")
      99                    .dwattr $C$DW$8, DW_AT_decl_line(0x23)
     100                    .dwattr $C$DW$8, DW_AT_decl_column(0x10)
     101            
     102            $C$DW$9 .dwtag  DW_TAG_variable
     103                    .dwattr $C$DW$9, DW_AT_name("datarev")
     104                    .dwattr $C$DW$9, DW_AT_TI_symbol_name("datarev")
     105                    .dwattr $C$DW$9, DW_AT_type(*$C$DW$T$24)
     106                    .dwattr $C$DW$9, DW_AT_declaration
     107                    .dwattr $C$DW$9, DW_AT_external
     108                    .dwattr $C$DW$9, DW_AT_decl_file("../src/Dallas.c")
     109                    .dwattr $C$DW$9, DW_AT_decl_line(0x24)
     110                    .dwattr $C$DW$9, DW_AT_decl_column(0x10)
MSP430 Assembler PC v21.6.1 Tue Dec 20 13:59:30 2022

Copyright (c) 2003-2018 Texas Instruments Incorporated
Dallas.asm                                                           PAGE    3

     111            
     112            $C$DW$10        .dwtag  DW_TAG_variable
     113                    .dwattr $C$DW$10, DW_AT_name("CartData")
     114                    .dwattr $C$DW$10, DW_AT_TI_symbol_name("CartData")
     115                    .dwattr $C$DW$10, DW_AT_type(*$C$DW$T$93)
     116                    .dwattr $C$DW$10, DW_AT_declaration
     117                    .dwattr $C$DW$10, DW_AT_external
     118                    .dwattr $C$DW$10, DW_AT_decl_file("../src/Dallas.c")
     119                    .dwattr $C$DW$10, DW_AT_decl_line(0x25)
     120                    .dwattr $C$DW$10, DW_AT_decl_column(0x10)
     121            
     122            $C$DW$11        .dwtag  DW_TAG_variable
     123                    .dwattr $C$DW$11, DW_AT_name("fuel_remaining")
     124                    .dwattr $C$DW$11, DW_AT_TI_symbol_name("fuel_remaining")
     125                    .dwattr $C$DW$11, DW_AT_type(*$C$DW$T$16)
     126                    .dwattr $C$DW$11, DW_AT_declaration
     127                    .dwattr $C$DW$11, DW_AT_external
     128                    .dwattr $C$DW$11, DW_AT_decl_file("../src/Dallas.c")
     129                    .dwattr $C$DW$11, DW_AT_decl_line(0x26)
     130                    .dwattr $C$DW$11, DW_AT_decl_column(0x0e)
     131            
     132            $C$DW$12        .dwtag  DW_TAG_variable
     133                    .dwattr $C$DW$12, DW_AT_name("cartread")
     134                    .dwattr $C$DW$12, DW_AT_TI_symbol_name("cartread")
     135                    .dwattr $C$DW$12, DW_AT_type(*$C$DW$T$24)
     136                    .dwattr $C$DW$12, DW_AT_declaration
     137                    .dwattr $C$DW$12, DW_AT_external
     138                    .dwattr $C$DW$12, DW_AT_decl_file("../src/Dallas.c")
     139                    .dwattr $C$DW$12, DW_AT_decl_line(0x29)
     140                    .dwattr $C$DW$12, DW_AT_decl_column(0x10)
     141            
     142            $C$DW$13        .dwtag  DW_TAG_variable
     143                    .dwattr $C$DW$13, DW_AT_name("CartFuel")
     144                    .dwattr $C$DW$13, DW_AT_TI_symbol_name("CartFuel")
     145                    .dwattr $C$DW$13, DW_AT_type(*$C$DW$T$24)
     146                    .dwattr $C$DW$13, DW_AT_declaration
     147                    .dwattr $C$DW$13, DW_AT_external
     148                    .dwattr $C$DW$13, DW_AT_decl_file("../src/Dallas.c")
     149                    .dwattr $C$DW$13, DW_AT_decl_line(0x2a)
     150                    .dwattr $C$DW$13, DW_AT_decl_column(0x10)
     151            
     152                    .global Fuelcount
     153                    .common Fuelcount,2,2
     154            $C$DW$14        .dwtag  DW_TAG_variable
     155                    .dwattr $C$DW$14, DW_AT_name("Fuelcount")
     156                    .dwattr $C$DW$14, DW_AT_TI_symbol_name("Fuelcount")
     157                    .dwattr $C$DW$14, DW_AT_location[DW_OP_addr Fuelcount]
     158                    .dwattr $C$DW$14, DW_AT_type(*$C$DW$T$11)
     159                    .dwattr $C$DW$14, DW_AT_external
     160                    .dwattr $C$DW$14, DW_AT_decl_file("../src/Dallas.c")
     161                    .dwattr $C$DW$14, DW_AT_decl_line(0x2b)
     162                    .dwattr $C$DW$14, DW_AT_decl_column(0x0e)
     163            
     164                    .global SwapCount
     165                    .common SwapCount,1,1
MSP430 Assembler PC v21.6.1 Tue Dec 20 13:59:30 2022

Copyright (c) 2003-2018 Texas Instruments Incorporated
Dallas.asm                                                           PAGE    4

     166            $C$DW$15        .dwtag  DW_TAG_variable
     167                    .dwattr $C$DW$15, DW_AT_name("SwapCount")
     168                    .dwattr $C$DW$15, DW_AT_TI_symbol_name("SwapCount")
     169                    .dwattr $C$DW$15, DW_AT_location[DW_OP_addr SwapCount]
     170                    .dwattr $C$DW$15, DW_AT_type(*$C$DW$T$24)
     171                    .dwattr $C$DW$15, DW_AT_external
     172                    .dwattr $C$DW$15, DW_AT_decl_file("../src/Dallas.c")
     173                    .dwattr $C$DW$15, DW_AT_decl_line(0x2c)
     174                    .dwattr $C$DW$15, DW_AT_decl_column(0x09)
     175            
     176            $C$DW$16        .dwtag  DW_TAG_variable
     177                    .dwattr $C$DW$16, DW_AT_name("cartOK")
     178                    .dwattr $C$DW$16, DW_AT_TI_symbol_name("cartOK")
     179                    .dwattr $C$DW$16, DW_AT_type(*$C$DW$T$24)
     180                    .dwattr $C$DW$16, DW_AT_declaration
     181                    .dwattr $C$DW$16, DW_AT_external
     182                    .dwattr $C$DW$16, DW_AT_decl_file("../src/Dallas.c")
     183                    .dwattr $C$DW$16, DW_AT_decl_line(0x2d)
     184                    .dwattr $C$DW$16, DW_AT_decl_column(0x10)
     185            
     186            $C$DW$17        .dwtag  DW_TAG_variable
     187                    .dwattr $C$DW$17, DW_AT_name("Reprogram_Cartridge")
     188                    .dwattr $C$DW$17, DW_AT_TI_symbol_name("Reprogram_Cartridge")
     189                    .dwattr $C$DW$17, DW_AT_type(*$C$DW$T$24)
     190                    .dwattr $C$DW$17, DW_AT_declaration
     191                    .dwattr $C$DW$17, DW_AT_external
     192                    .dwattr $C$DW$17, DW_AT_decl_file("../src/Dallas.c")
     193                    .dwattr $C$DW$17, DW_AT_decl_line(0x2e)
     194                    .dwattr $C$DW$17, DW_AT_decl_column(0x10)
     195            
     196            $C$DW$18        .dwtag  DW_TAG_variable
     197                    .dwattr $C$DW$18, DW_AT_name("fuel_full")
     198                    .dwattr $C$DW$18, DW_AT_TI_symbol_name("fuel_full")
     199                    .dwattr $C$DW$18, DW_AT_type(*$C$DW$T$16)
     200                    .dwattr $C$DW$18, DW_AT_declaration
     201                    .dwattr $C$DW$18, DW_AT_external
     202                    .dwattr $C$DW$18, DW_AT_decl_file("../src/Dallas.c")
     203                    .dwattr $C$DW$18, DW_AT_decl_line(0x30)
     204                    .dwattr $C$DW$18, DW_AT_decl_column(0x0e)
     205            
     206            $C$DW$19        .dwtag  DW_TAG_variable
     207                    .dwattr $C$DW$19, DW_AT_name("burner_flag")
     208                    .dwattr $C$DW$19, DW_AT_TI_symbol_name("burner_flag")
     209                    .dwattr $C$DW$19, DW_AT_type(*$C$DW$T$24)
     210                    .dwattr $C$DW$19, DW_AT_declaration
     211                    .dwattr $C$DW$19, DW_AT_external
     212                    .dwattr $C$DW$19, DW_AT_decl_file("../src/Dallas.c")
     213                    .dwattr $C$DW$19, DW_AT_decl_line(0x34)
     214                    .dwattr $C$DW$19, DW_AT_decl_column(0x10)
     215            
     216                    .global ect
     217                    .common ect,1,1
     218            $C$DW$20        .dwtag  DW_TAG_variable
     219                    .dwattr $C$DW$20, DW_AT_name("ect")
     220                    .dwattr $C$DW$20, DW_AT_TI_symbol_name("ect")
MSP430 Assembler PC v21.6.1 Tue Dec 20 13:59:30 2022

Copyright (c) 2003-2018 Texas Instruments Incorporated
Dallas.asm                                                           PAGE    5

     221                    .dwattr $C$DW$20, DW_AT_location[DW_OP_addr ect]
     222                    .dwattr $C$DW$20, DW_AT_type(*$C$DW$T$24)
     223                    .dwattr $C$DW$20, DW_AT_external
     224                    .dwattr $C$DW$20, DW_AT_decl_file("../src/Dallas.c")
     225                    .dwattr $C$DW$20, DW_AT_decl_line(0x36)
     226                    .dwattr $C$DW$20, DW_AT_decl_column(0x09)
     227            
     228                    .global IntermittentCart
     229 000000               .data
     230                    .align  2
     231                    .elfsym IntermittentCart,SYM_SIZE(2)
     232 000000       IntermittentCart:
     233 000000 0000          .bits           0,16
     234                                    ; IntermittentCart @ 0
     235            
     236            $C$DW$21        .dwtag  DW_TAG_variable
     237                    .dwattr $C$DW$21, DW_AT_name("IntermittentCart")
     238                    .dwattr $C$DW$21, DW_AT_TI_symbol_name("IntermittentCart")
     239                    .dwattr $C$DW$21, DW_AT_location[DW_OP_addr IntermittentCart]
     240                    .dwattr $C$DW$21, DW_AT_type(*$C$DW$T$10)
     241                    .dwattr $C$DW$21, DW_AT_external
     242                    .dwattr $C$DW$21, DW_AT_decl_file("../src/Dallas.c")
     243                    .dwattr $C$DW$21, DW_AT_decl_line(0x37)
     244                    .dwattr $C$DW$21, DW_AT_decl_column(0x05)
     245            
     246                    .global CartReadDelay
     247 000002               .data
     248                    .align  2
     249                    .elfsym CartReadDelay,SYM_SIZE(2)
     250 000002       CartReadDelay:
     251 000002 0000          .bits           0,16
     252                                    ; CartReadDelay @ 0
     253            
     254            $C$DW$22        .dwtag  DW_TAG_variable
     255                    .dwattr $C$DW$22, DW_AT_name("CartReadDelay")
     256                    .dwattr $C$DW$22, DW_AT_TI_symbol_name("CartReadDelay")
     257                    .dwattr $C$DW$22, DW_AT_location[DW_OP_addr CartReadDelay]
     258                    .dwattr $C$DW$22, DW_AT_type(*$C$DW$T$10)
     259                    .dwattr $C$DW$22, DW_AT_external
     260                    .dwattr $C$DW$22, DW_AT_decl_file("../src/Dallas.c")
     261                    .dwattr $C$DW$22, DW_AT_decl_line(0x38)
     262                    .dwattr $C$DW$22, DW_AT_decl_column(0x05)
     263            
     264            $C$DW$23        .dwtag  DW_TAG_variable
     265                    .dwattr $C$DW$23, DW_AT_name("Cartridge_Enable")
     266                    .dwattr $C$DW$23, DW_AT_TI_symbol_name("Cartridge_Enable")
     267                    .dwattr $C$DW$23, DW_AT_type(*$C$DW$T$24)
     268                    .dwattr $C$DW$23, DW_AT_declaration
     269                    .dwattr $C$DW$23, DW_AT_external
     270                    .dwattr $C$DW$23, DW_AT_decl_file("../src/Dallas.c")
     271                    .dwattr $C$DW$23, DW_AT_decl_line(0x39)
     272                    .dwattr $C$DW$23, DW_AT_decl_column(0x10)
     273            
     274            
     275            $C$DW$24        .dwtag  DW_TAG_subprogram
MSP430 Assembler PC v21.6.1 Tue Dec 20 13:59:30 2022

Copyright (c) 2003-2018 Texas Instruments Incorporated
Dallas.asm                                                           PAGE    6

     276                    .dwattr $C$DW$24, DW_AT_name("CartCheck")
     277                    .dwattr $C$DW$24, DW_AT_TI_symbol_name("CartCheck")
     278                    .dwattr $C$DW$24, DW_AT_declaration
     279                    .dwattr $C$DW$24, DW_AT_external
     280                    .dwattr $C$DW$24, DW_AT_decl_file("../src/Dallas.c")
     281                    .dwattr $C$DW$24, DW_AT_decl_line(0x3c)
     282                    .dwattr $C$DW$24, DW_AT_decl_column(0x0d)
     283                    .dwendtag $C$DW$24
     284            
     285            
     286            $C$DW$25        .dwtag  DW_TAG_subprogram
     287                    .dwattr $C$DW$25, DW_AT_name("WritCart")
     288                    .dwattr $C$DW$25, DW_AT_TI_symbol_name("WritCart")
     289                    .dwattr $C$DW$25, DW_AT_declaration
     290                    .dwattr $C$DW$25, DW_AT_external
     291                    .dwattr $C$DW$25, DW_AT_decl_file("../src/Dallas.c")
     292                    .dwattr $C$DW$25, DW_AT_decl_line(0x3d)
     293                    .dwattr $C$DW$25, DW_AT_decl_column(0x0d)
     294                    .dwendtag $C$DW$25
     295            
     296            ;       C:\ti\ccs1110\ccs\tools\compiler\ti-cgt-msp430_21.6.1.LTS\bin\opt430.exe C:\\Users\\MCourson\\
     297 000000               .sect   ".text:__signbitl"
     298                    .clink
     299                    .global __signbitl
     300            
     301            $C$DW$26        .dwtag  DW_TAG_subprogram
     302                    .dwattr $C$DW$26, DW_AT_name("__signbitl")
     303                    .dwattr $C$DW$26, DW_AT_low_pc(__signbitl)
     304                    .dwattr $C$DW$26, DW_AT_high_pc(0x00)
     305                    .dwattr $C$DW$26, DW_AT_TI_symbol_name("__signbitl")
     306                    .dwattr $C$DW$26, DW_AT_external
     307                    .dwattr $C$DW$26, DW_AT_type(*$C$DW$T$10)
     308                    .dwattr $C$DW$26, DW_AT_TI_begin_file("C:/ti/ccs1110/ccs/tools/compiler/ti-cgt-msp430_21.6.1.L
     309                    .dwattr $C$DW$26, DW_AT_TI_begin_line(0x16f)
     310                    .dwattr $C$DW$26, DW_AT_TI_begin_column(0x25)
     311                    .dwattr $C$DW$26, DW_AT_decl_file("C:/ti/ccs1110/ccs/tools/compiler/ti-cgt-msp430_21.6.1.LTS/i
     312                    .dwattr $C$DW$26, DW_AT_decl_line(0x16f)
     313                    .dwattr $C$DW$26, DW_AT_decl_column(0x25)
     314                    .dwattr $C$DW$26, DW_AT_TI_max_frame_size(0x04)
     315                    .dwpsn  file "C:/ti/ccs1110/ccs/tools/compiler/ti-cgt-msp430_21.6.1.LTS/include/_defs.h",line 
     316            
     317                    .dwfde $C$DW$CIE, __signbitl
     318            $C$DW$27        .dwtag  DW_TAG_formal_parameter
     319                    .dwattr $C$DW$27, DW_AT_name("e")
     320                    .dwattr $C$DW$27, DW_AT_TI_symbol_name("e")
     321                    .dwattr $C$DW$27, DW_AT_type(*$C$DW$T$18)
     322                    .dwattr $C$DW$27, DW_AT_location[DW_OP_reg12 DW_OP_piece 2 DW_OP_reg13 DW_OP_piece 2 DW_OP_reg
     323            
     324            
     325            ;*****************************************************************************
     326            ;* FUNCTION NAME: __signbitl                                                 *
     327            ;*                                                                           *
     328            ;*   Regs Modified     : SP,SR,r11,r12,r13,r14,r15                           *
     329            ;*   Regs Used         : SP,SR,r11,r12,r13,r14,r15                           *
     330            ;*   Local Frame Size  : 0 Args + 0 Auto + 0 Save = 0 byte                   *
MSP430 Assembler PC v21.6.1 Tue Dec 20 13:59:30 2022

Copyright (c) 2003-2018 Texas Instruments Incorporated
Dallas.asm                                                           PAGE    7

     331            ;*****************************************************************************
     332 000000       __signbitl:
     333            ;* --------------------------------------------------------------------------*
     334                    .dwcfi  cfa_offset, 4
     335                    .dwcfi  save_reg_to_mem, 16, -4
     336                    .dwpsn  file "C:/ti/ccs1110/ccs/tools/compiler/ti-cgt-msp430_21.6.1.LTS/include/_defs.h",line 
     337 000000 430B          MOV.W     #0,r11                ; [] |368| 
     338 000002 F30C          AND.W     #0,r12                ; [] |368| 
     339 000004 F30D          AND.W     #0,r13                ; [] |368| 
     340 000006 F30E          AND.W     #0,r14                ; [] |368| 
     341 000008 F03F          AND.W     #32768,r15            ; [] |368| 
         00000a 8000 
     342 00000c 930F          TST.W     r15                   ; [] |368| 
     343 00000e 2006          JNE       $C$L1                 ; [] |368| 
     344                                                      ; [] |368| 
     345            ;* --------------------------------------------------------------------------*
     346 000010 930E          TST.W     r14                   ; [] |368| 
     347 000012 2004          JNE       $C$L1                 ; [] |368| 
     348                                                      ; [] |368| 
     349            ;* --------------------------------------------------------------------------*
     350 000014 930D          TST.W     r13                   ; [] |368| 
     351 000016 2002          JNE       $C$L1                 ; [] |368| 
     352                                                      ; [] |368| 
     353            ;* --------------------------------------------------------------------------*
     354 000018 930C          TST.W     r12                   ; [] |368| 
     355 00001a 2401          JEQ       $C$L2                 ; [] |368| 
     356                                                      ; [] |368| 
     357            ;* --------------------------------------------------------------------------*
     358 00001c       $C$L1:    
     359 00001c 431B          MOV.W     #1,r11                ; [] |368| 
     360            ;* --------------------------------------------------------------------------*
     361 00001e       $C$L2:    
     362 00001e 0BCC          MOVA      r11,r12               ; [] |368| 
     363                    .dwpsn  file "C:/ti/ccs1110/ccs/tools/compiler/ti-cgt-msp430_21.6.1.LTS/include/_defs.h",line 
     364            $C$DW$28        .dwtag  DW_TAG_TI_branch
     365                    .dwattr $C$DW$28, DW_AT_low_pc(0x00)
     366                    .dwattr $C$DW$28, DW_AT_TI_return
     367            
     368 000020 0110          RETA      ; [] 
     369                    ; [] 
     370                    .dwattr $C$DW$26, DW_AT_TI_end_file("C:/ti/ccs1110/ccs/tools/compiler/ti-cgt-msp430_21.6.1.LTS
     371                    .dwattr $C$DW$26, DW_AT_TI_end_line(0x170)
     372                    .dwattr $C$DW$26, DW_AT_TI_end_column(0x2b)
     373                    .dwendentry
     374                    .dwendtag $C$DW$26
     375            
     376 000000               .sect   ".text:__signbitf"
     377                    .clink
     378                    .global __signbitf
     379            
     380            $C$DW$29        .dwtag  DW_TAG_subprogram
     381                    .dwattr $C$DW$29, DW_AT_name("__signbitf")
     382                    .dwattr $C$DW$29, DW_AT_low_pc(__signbitf)
     383                    .dwattr $C$DW$29, DW_AT_high_pc(0x00)
     384                    .dwattr $C$DW$29, DW_AT_TI_symbol_name("__signbitf")
MSP430 Assembler PC v21.6.1 Tue Dec 20 13:59:30 2022

Copyright (c) 2003-2018 Texas Instruments Incorporated
Dallas.asm                                                           PAGE    8

     385                    .dwattr $C$DW$29, DW_AT_external
     386                    .dwattr $C$DW$29, DW_AT_type(*$C$DW$T$10)
     387                    .dwattr $C$DW$29, DW_AT_TI_begin_file("C:/ti/ccs1110/ccs/tools/compiler/ti-cgt-msp430_21.6.1.L
     388                    .dwattr $C$DW$29, DW_AT_TI_begin_line(0x16d)
     389                    .dwattr $C$DW$29, DW_AT_TI_begin_column(0x25)
     390                    .dwattr $C$DW$29, DW_AT_decl_file("C:/ti/ccs1110/ccs/tools/compiler/ti-cgt-msp430_21.6.1.LTS/i
     391                    .dwattr $C$DW$29, DW_AT_decl_line(0x16d)
     392                    .dwattr $C$DW$29, DW_AT_decl_column(0x25)
     393                    .dwattr $C$DW$29, DW_AT_TI_max_frame_size(0x04)
     394                    .dwpsn  file "C:/ti/ccs1110/ccs/tools/compiler/ti-cgt-msp430_21.6.1.LTS/include/_defs.h",line 
     395            
     396                    .dwfde $C$DW$CIE, __signbitf
     397            $C$DW$30        .dwtag  DW_TAG_formal_parameter
     398                    .dwattr $C$DW$30, DW_AT_name("f")
     399                    .dwattr $C$DW$30, DW_AT_TI_symbol_name("f")
     400                    .dwattr $C$DW$30, DW_AT_type(*$C$DW$T$16)
     401                    .dwattr $C$DW$30, DW_AT_location[DW_OP_reg12 DW_OP_piece 2 DW_OP_reg13 DW_OP_piece 2]
     402            
     403            
     404            ;*****************************************************************************
     405            ;* FUNCTION NAME: __signbitf                                                 *
     406            ;*                                                                           *
     407            ;*   Regs Modified     : SP,SR,r12                                           *
     408            ;*   Regs Used         : SP,SR,r12,r13                                       *
     409            ;*   Local Frame Size  : 0 Args + 0 Auto + 0 Save = 0 byte                   *
     410            ;*****************************************************************************
     411 000000       __signbitf:
     412            ;* --------------------------------------------------------------------------*
     413                    .dwcfi  cfa_offset, 4
     414                    .dwcfi  save_reg_to_mem, 16, -4
     415                    .dwpsn  file "C:/ti/ccs1110/ccs/tools/compiler/ti-cgt-msp430_21.6.1.LTS/include/_defs.h",line 
     416 000000 430C          MOV.W     #0,r12                ; [] |366| 
     417 000002 930D          TST.W     r13                   ; [] |366| 
     418 000004 3401          JGE       $C$L3                 ; [] |366| 
     419                                                      ; [] |366| 
     420            ;* --------------------------------------------------------------------------*
     421 000006 431C          MOV.W     #1,r12                ; [] |366| 
     422            ;* --------------------------------------------------------------------------*
     423 000008       $C$L3:    
     424                    .dwpsn  file "C:/ti/ccs1110/ccs/tools/compiler/ti-cgt-msp430_21.6.1.LTS/include/_defs.h",line 
     425            $C$DW$31        .dwtag  DW_TAG_TI_branch
     426                    .dwattr $C$DW$31, DW_AT_low_pc(0x00)
     427                    .dwattr $C$DW$31, DW_AT_TI_return
     428            
     429 000008 0110          RETA      ; [] 
     430                    ; [] 
     431                    .dwattr $C$DW$29, DW_AT_TI_end_file("C:/ti/ccs1110/ccs/tools/compiler/ti-cgt-msp430_21.6.1.LTS
     432                    .dwattr $C$DW$29, DW_AT_TI_end_line(0x16e)
     433                    .dwattr $C$DW$29, DW_AT_TI_end_column(0x29)
     434                    .dwendentry
     435                    .dwendtag $C$DW$29
     436            
     437 000000               .sect   ".text:__signbit"
     438                    .clink
     439                    .global __signbit
MSP430 Assembler PC v21.6.1 Tue Dec 20 13:59:30 2022

Copyright (c) 2003-2018 Texas Instruments Incorporated
Dallas.asm                                                           PAGE    9

     440            
     441            $C$DW$32        .dwtag  DW_TAG_subprogram
     442                    .dwattr $C$DW$32, DW_AT_name("__signbit")
     443                    .dwattr $C$DW$32, DW_AT_low_pc(__signbit)
     444                    .dwattr $C$DW$32, DW_AT_high_pc(0x00)
     445                    .dwattr $C$DW$32, DW_AT_TI_symbol_name("__signbit")
     446                    .dwattr $C$DW$32, DW_AT_external
     447                    .dwattr $C$DW$32, DW_AT_type(*$C$DW$T$10)
     448                    .dwattr $C$DW$32, DW_AT_TI_begin_file("C:/ti/ccs1110/ccs/tools/compiler/ti-cgt-msp430_21.6.1.L
     449                    .dwattr $C$DW$32, DW_AT_TI_begin_line(0x16b)
     450                    .dwattr $C$DW$32, DW_AT_TI_begin_column(0x25)
     451                    .dwattr $C$DW$32, DW_AT_decl_file("C:/ti/ccs1110/ccs/tools/compiler/ti-cgt-msp430_21.6.1.LTS/i
     452                    .dwattr $C$DW$32, DW_AT_decl_line(0x16b)
     453                    .dwattr $C$DW$32, DW_AT_decl_column(0x25)
     454                    .dwattr $C$DW$32, DW_AT_TI_max_frame_size(0x04)
     455                    .dwpsn  file "C:/ti/ccs1110/ccs/tools/compiler/ti-cgt-msp430_21.6.1.LTS/include/_defs.h",line 
     456            
     457                    .dwfde $C$DW$CIE, __signbit
     458            $C$DW$33        .dwtag  DW_TAG_formal_parameter
     459                    .dwattr $C$DW$33, DW_AT_name("d")
     460                    .dwattr $C$DW$33, DW_AT_TI_symbol_name("d")
     461                    .dwattr $C$DW$33, DW_AT_type(*$C$DW$T$17)
     462                    .dwattr $C$DW$33, DW_AT_location[DW_OP_reg12 DW_OP_piece 2 DW_OP_reg13 DW_OP_piece 2 DW_OP_reg
     463            
     464            
     465            ;*****************************************************************************
     466            ;* FUNCTION NAME: __signbit                                                  *
     467            ;*                                                                           *
     468            ;*   Regs Modified     : SP,SR,r11,r12,r13,r14,r15                           *
     469            ;*   Regs Used         : SP,SR,r11,r12,r13,r14,r15                           *
     470            ;*   Local Frame Size  : 0 Args + 0 Auto + 0 Save = 0 byte                   *
     471            ;*****************************************************************************
     472 000000       __signbit:
     473            ;* --------------------------------------------------------------------------*
     474                    .dwcfi  cfa_offset, 4
     475                    .dwcfi  save_reg_to_mem, 16, -4
     476                    .dwpsn  file "C:/ti/ccs1110/ccs/tools/compiler/ti-cgt-msp430_21.6.1.LTS/include/_defs.h",line 
     477 000000 430B          MOV.W     #0,r11                ; [] |364| 
     478 000002 F30C          AND.W     #0,r12                ; [] |364| 
     479 000004 F30D          AND.W     #0,r13                ; [] |364| 
     480 000006 F30E          AND.W     #0,r14                ; [] |364| 
     481 000008 F03F          AND.W     #32768,r15            ; [] |364| 
         00000a 8000 
     482 00000c 930F          TST.W     r15                   ; [] |364| 
     483 00000e 2006          JNE       $C$L4                 ; [] |364| 
     484                                                      ; [] |364| 
     485            ;* --------------------------------------------------------------------------*
     486 000010 930E          TST.W     r14                   ; [] |364| 
     487 000012 2004          JNE       $C$L4                 ; [] |364| 
     488                                                      ; [] |364| 
     489            ;* --------------------------------------------------------------------------*
     490 000014 930D          TST.W     r13                   ; [] |364| 
     491 000016 2002          JNE       $C$L4                 ; [] |364| 
     492                                                      ; [] |364| 
     493            ;* --------------------------------------------------------------------------*
MSP430 Assembler PC v21.6.1 Tue Dec 20 13:59:30 2022

Copyright (c) 2003-2018 Texas Instruments Incorporated
Dallas.asm                                                           PAGE   10

     494 000018 930C          TST.W     r12                   ; [] |364| 
     495 00001a 2401          JEQ       $C$L5                 ; [] |364| 
     496                                                      ; [] |364| 
     497            ;* --------------------------------------------------------------------------*
     498 00001c       $C$L4:    
     499 00001c 431B          MOV.W     #1,r11                ; [] |364| 
     500            ;* --------------------------------------------------------------------------*
     501 00001e       $C$L5:    
     502 00001e 0BCC          MOVA      r11,r12               ; [] |364| 
     503                    .dwpsn  file "C:/ti/ccs1110/ccs/tools/compiler/ti-cgt-msp430_21.6.1.LTS/include/_defs.h",line 
     504            $C$DW$34        .dwtag  DW_TAG_TI_branch
     505                    .dwattr $C$DW$34, DW_AT_low_pc(0x00)
     506                    .dwattr $C$DW$34, DW_AT_TI_return
     507            
     508 000020 0110          RETA      ; [] 
     509                    ; [] 
     510                    .dwattr $C$DW$32, DW_AT_TI_end_file("C:/ti/ccs1110/ccs/tools/compiler/ti-cgt-msp430_21.6.1.LTS
     511                    .dwattr $C$DW$32, DW_AT_TI_end_line(0x16c)
     512                    .dwattr $C$DW$32, DW_AT_TI_end_column(0x2a)
     513                    .dwendentry
     514                    .dwendtag $C$DW$32
     515            
     516 000000               .sect   ".text:__isnormall"
     517                    .clink
     518                    .global __isnormall
     519            
     520            $C$DW$35        .dwtag  DW_TAG_subprogram
     521                    .dwattr $C$DW$35, DW_AT_name("__isnormall")
     522                    .dwattr $C$DW$35, DW_AT_low_pc(__isnormall)
     523                    .dwattr $C$DW$35, DW_AT_high_pc(0x00)
     524                    .dwattr $C$DW$35, DW_AT_TI_symbol_name("__isnormall")
     525                    .dwattr $C$DW$35, DW_AT_external
     526                    .dwattr $C$DW$35, DW_AT_type(*$C$DW$T$10)
     527                    .dwattr $C$DW$35, DW_AT_TI_begin_file("C:/ti/ccs1110/ccs/tools/compiler/ti-cgt-msp430_21.6.1.L
     528                    .dwattr $C$DW$35, DW_AT_TI_begin_line(0x167)
     529                    .dwattr $C$DW$35, DW_AT_TI_begin_column(0x25)
     530                    .dwattr $C$DW$35, DW_AT_decl_file("C:/ti/ccs1110/ccs/tools/compiler/ti-cgt-msp430_21.6.1.LTS/i
     531                    .dwattr $C$DW$35, DW_AT_decl_line(0x167)
     532                    .dwattr $C$DW$35, DW_AT_decl_column(0x25)
     533                    .dwattr $C$DW$35, DW_AT_TI_max_frame_size(0x18)
     534                    .dwpsn  file "C:/ti/ccs1110/ccs/tools/compiler/ti-cgt-msp430_21.6.1.LTS/include/_defs.h",line 
     535            
     536                    .dwfde $C$DW$CIE, __isnormall
     537            $C$DW$36        .dwtag  DW_TAG_formal_parameter
     538                    .dwattr $C$DW$36, DW_AT_name("e")
     539                    .dwattr $C$DW$36, DW_AT_TI_symbol_name("e")
     540                    .dwattr $C$DW$36, DW_AT_type(*$C$DW$T$18)
     541                    .dwattr $C$DW$36, DW_AT_location[DW_OP_reg12 DW_OP_piece 2 DW_OP_reg13 DW_OP_piece 2 DW_OP_reg
     542            
     543            
     544            ;*****************************************************************************
     545            ;* FUNCTION NAME: __isnormall                                                *
     546            ;*                                                                           *
     547            ;*   Regs Modified     : SP,SR,r6,r7,r8,r9,r10,r11,r12,r13,r14,r15           *
     548            ;*   Regs Used         : SP,SR,r6,r7,r8,r9,r10,r11,r12,r13,r14,r15           *
MSP430 Assembler PC v21.6.1 Tue Dec 20 13:59:30 2022

Copyright (c) 2003-2018 Texas Instruments Incorporated
Dallas.asm                                                           PAGE   11

     549            ;*   Local Frame Size  : 0 Args + 0 Auto + 20 Save = 20 byte                 *
     550            ;*****************************************************************************
     551 000000       __isnormall:
     552            ;* --------------------------------------------------------------------------*
     553                    .dwcfi  cfa_offset, 4
     554                    .dwcfi  save_reg_to_mem, 16, -4
     555 000000 144A          PUSHM.A   #5,r10                ; [] 
     556                    .dwcfi  save_reg_to_mem, 10, -8
     557                    .dwcfi  save_reg_to_mem, 9, -12
     558                    .dwcfi  save_reg_to_mem, 8, -16
     559                    .dwcfi  save_reg_to_mem, 7, -20
     560                    .dwcfi  save_reg_to_mem, 6, -24
     561                    .dwcfi  cfa_offset, 24
     562            ;* r6    assigned to $O$S1
     563            ;* r12   assigned to e
     564            $C$DW$37        .dwtag  DW_TAG_variable
     565                    .dwattr $C$DW$37, DW_AT_name("e")
     566                    .dwattr $C$DW$37, DW_AT_TI_symbol_name("e")
     567                    .dwattr $C$DW$37, DW_AT_type(*$C$DW$T$18)
     568                    .dwattr $C$DW$37, DW_AT_location[DW_OP_reg12 DW_OP_piece 2 DW_OP_reg13 DW_OP_piece 2 DW_OP_reg
     569            
     570 000002 0FC7          MOVA      r15,r7                ; [] |360| 
     571                    .dwpsn  file "C:/ti/ccs1110/ccs/tools/compiler/ti-cgt-msp430_21.6.1.LTS/include/_defs.h",line 
     572 000004 4306          MOV.W     #0,r6                 ; [] |360| 
     573 000006 0CC8          MOVA      r12,r8                ; [] |360| 
     574 000008 0DC9          MOVA      r13,r9                ; [] |360| 
     575 00000a 0ECA          MOVA      r14,r10               ; [] |360| 
     576 00000c 07CB          MOVA      r7,r11                ; [] |360| 
     577 00000e 403C          MOV.W     #52,r12               ; [] |360| 
         000010 0034 
     578            $C$DW$38        .dwtag  DW_TAG_TI_branch
     579                    .dwattr $C$DW$38, DW_AT_low_pc(0x00)
     580                    .dwattr $C$DW$38, DW_AT_name("__mspabi_srlll")
     581                    .dwattr $C$DW$38, DW_AT_TI_call
     582            
     583 000012 13B0!         CALLA     #__mspabi_srlll       ; [] |360| 
         000014 0000 
     584                                                      ; [] |360| 
     585 000016 F03C          AND.W     #2047,r12             ; [] |360| 
         000018 07FF 
     586 00001a F30D          AND.W     #0,r13                ; [] |360| 
     587 00001c F30E          AND.W     #0,r14                ; [] |360| 
     588 00001e F30F          AND.W     #0,r15                ; [] |360| 
     589 000020 930F          TST.W     r15                   ; [] |360| 
     590 000022 2006          JNE       $C$L6                 ; [] |360| 
     591                                                      ; [] |360| 
     592            ;* --------------------------------------------------------------------------*
     593 000024 930E          TST.W     r14                   ; [] |360| 
     594 000026 2004          JNE       $C$L6                 ; [] |360| 
     595                                                      ; [] |360| 
     596            ;* --------------------------------------------------------------------------*
     597 000028 930D          TST.W     r13                   ; [] |360| 
     598 00002a 2002          JNE       $C$L6                 ; [] |360| 
     599                                                      ; [] |360| 
     600            ;* --------------------------------------------------------------------------*
MSP430 Assembler PC v21.6.1 Tue Dec 20 13:59:30 2022

Copyright (c) 2003-2018 Texas Instruments Incorporated
Dallas.asm                                                           PAGE   12

     601 00002c 930C          TST.W     r12                   ; [] |360| 
     602 00002e 2406          JEQ       $C$L7                 ; [] |360| 
     603                                                      ; [] |360| 
     604            ;* --------------------------------------------------------------------------*
     605 000030       $C$L6:    
     606 000030 F037          AND.W     #32752,r7             ; [] |360| 
         000032 7FF0 
     607 000034 9037          CMP.W     #32752,r7             ; [] |360| 
         000036 7FF0 
     608 000038 2401          JEQ       $C$L7                 ; [] |360| 
     609                                                      ; [] |360| 
     610            ;* --------------------------------------------------------------------------*
     611 00003a 4316          MOV.W     #1,r6                 ; [] |360| 
     612            ;* --------------------------------------------------------------------------*
     613 00003c       $C$L7:    
     614 00003c 06CC          MOVA      r6,r12                ; [] |360| 
     615                    .dwpsn  file "C:/ti/ccs1110/ccs/tools/compiler/ti-cgt-msp430_21.6.1.LTS/include/_defs.h",line 
     616 00003e 1646          POPM.A    #5,r10                ; [] 
     617                    .dwcfi  restore_reg, 6
     618                    .dwcfi  restore_reg, 7
     619                    .dwcfi  restore_reg, 8
     620                    .dwcfi  restore_reg, 9
     621                    .dwcfi  restore_reg, 10
     622                    .dwcfi  cfa_offset, 4
     623            $C$DW$39        .dwtag  DW_TAG_TI_branch
     624                    .dwattr $C$DW$39, DW_AT_low_pc(0x00)
     625                    .dwattr $C$DW$39, DW_AT_TI_return
     626            
     627 000040 0110          RETA      ; [] 
     628                    ; [] 
     629                    .dwattr $C$DW$35, DW_AT_TI_end_file("C:/ti/ccs1110/ccs/tools/compiler/ti-cgt-msp430_21.6.1.LTS
     630                    .dwattr $C$DW$35, DW_AT_TI_end_line(0x169)
     631                    .dwattr $C$DW$35, DW_AT_TI_end_column(0x31)
     632                    .dwendentry
     633                    .dwendtag $C$DW$35
     634            
     635 000000               .sect   ".text:__isnormalf"
     636                    .clink
     637                    .global __isnormalf
     638            
     639            $C$DW$40        .dwtag  DW_TAG_subprogram
     640                    .dwattr $C$DW$40, DW_AT_name("__isnormalf")
     641                    .dwattr $C$DW$40, DW_AT_low_pc(__isnormalf)
     642                    .dwattr $C$DW$40, DW_AT_high_pc(0x00)
     643                    .dwattr $C$DW$40, DW_AT_TI_symbol_name("__isnormalf")
     644                    .dwattr $C$DW$40, DW_AT_external
     645                    .dwattr $C$DW$40, DW_AT_type(*$C$DW$T$10)
     646                    .dwattr $C$DW$40, DW_AT_TI_begin_file("C:/ti/ccs1110/ccs/tools/compiler/ti-cgt-msp430_21.6.1.L
     647                    .dwattr $C$DW$40, DW_AT_TI_begin_line(0x163)
     648                    .dwattr $C$DW$40, DW_AT_TI_begin_column(0x25)
     649                    .dwattr $C$DW$40, DW_AT_decl_file("C:/ti/ccs1110/ccs/tools/compiler/ti-cgt-msp430_21.6.1.LTS/i
     650                    .dwattr $C$DW$40, DW_AT_decl_line(0x163)
     651                    .dwattr $C$DW$40, DW_AT_decl_column(0x25)
     652                    .dwattr $C$DW$40, DW_AT_TI_max_frame_size(0x04)
     653                    .dwpsn  file "C:/ti/ccs1110/ccs/tools/compiler/ti-cgt-msp430_21.6.1.LTS/include/_defs.h",line 
MSP430 Assembler PC v21.6.1 Tue Dec 20 13:59:30 2022

Copyright (c) 2003-2018 Texas Instruments Incorporated
Dallas.asm                                                           PAGE   13

     654            
     655                    .dwfde $C$DW$CIE, __isnormalf
     656            $C$DW$41        .dwtag  DW_TAG_formal_parameter
     657                    .dwattr $C$DW$41, DW_AT_name("f")
     658                    .dwattr $C$DW$41, DW_AT_TI_symbol_name("f")
     659                    .dwattr $C$DW$41, DW_AT_type(*$C$DW$T$16)
     660                    .dwattr $C$DW$41, DW_AT_location[DW_OP_reg12 DW_OP_piece 2 DW_OP_reg13 DW_OP_piece 2]
     661            
     662            
     663            ;*****************************************************************************
     664            ;* FUNCTION NAME: __isnormalf                                                *
     665            ;*                                                                           *
     666            ;*   Regs Modified     : SP,SR,r12,r13,r15                                   *
     667            ;*   Regs Used         : SP,SR,r12,r13,r15                                   *
     668            ;*   Local Frame Size  : 0 Args + 0 Auto + 0 Save = 0 byte                   *
     669            ;*****************************************************************************
     670 000000       __isnormalf:
     671            ;* --------------------------------------------------------------------------*
     672                    .dwcfi  cfa_offset, 4
     673                    .dwcfi  save_reg_to_mem, 16, -4
     674            ;* r12   assigned to $O$S1
     675                    .dwpsn  file "C:/ti/ccs1110/ccs/tools/compiler/ti-cgt-msp430_21.6.1.LTS/include/_defs.h",line 
     676 000000 430C          MOV.W     #0,r12                ; [] |356| 
     677 000002 0DCF          MOVA      r13,r15               ; [] |356| 
     678 000004 1946          RPT #7 || RRUX.W r15 ; [] |356| 
         000006 100F 
     679 000008 B03F          BIT.W     #255,r15              ; [] |356| 
         00000a 00FF 
     680 00000c 2406          JEQ       $C$L8                 ; [] |356| 
     681                                                      ; [] |356| 
     682            ;* --------------------------------------------------------------------------*
     683 00000e F03D          AND.W     #32640,r13            ; [] |356| 
         000010 7F80 
     684 000012 903D          CMP.W     #32640,r13            ; [] |356| 
         000014 7F80 
     685 000016 2401          JEQ       $C$L8                 ; [] |356| 
     686                                                      ; [] |356| 
     687            ;* --------------------------------------------------------------------------*
     688 000018 431C          MOV.W     #1,r12                ; [] |356| 
     689            ;* --------------------------------------------------------------------------*
     690 00001a       $C$L8:    
     691                    .dwpsn  file "C:/ti/ccs1110/ccs/tools/compiler/ti-cgt-msp430_21.6.1.LTS/include/_defs.h",line 
     692            $C$DW$42        .dwtag  DW_TAG_TI_branch
     693                    .dwattr $C$DW$42, DW_AT_low_pc(0x00)
     694                    .dwattr $C$DW$42, DW_AT_TI_return
     695            
     696 00001a 0110          RETA      ; [] 
     697                    ; [] 
     698                    .dwattr $C$DW$40, DW_AT_TI_end_file("C:/ti/ccs1110/ccs/tools/compiler/ti-cgt-msp430_21.6.1.LTS
     699                    .dwattr $C$DW$40, DW_AT_TI_end_line(0x165)
     700                    .dwattr $C$DW$40, DW_AT_TI_end_column(0x2f)
     701                    .dwendentry
     702                    .dwendtag $C$DW$40
     703            
     704 000000               .sect   ".text:__isnormal"
MSP430 Assembler PC v21.6.1 Tue Dec 20 13:59:30 2022

Copyright (c) 2003-2018 Texas Instruments Incorporated
Dallas.asm                                                           PAGE   14

     705                    .clink
     706                    .global __isnormal
     707            
     708            $C$DW$43        .dwtag  DW_TAG_subprogram
     709                    .dwattr $C$DW$43, DW_AT_name("__isnormal")
     710                    .dwattr $C$DW$43, DW_AT_low_pc(__isnormal)
     711                    .dwattr $C$DW$43, DW_AT_high_pc(0x00)
     712                    .dwattr $C$DW$43, DW_AT_TI_symbol_name("__isnormal")
     713                    .dwattr $C$DW$43, DW_AT_external
     714                    .dwattr $C$DW$43, DW_AT_type(*$C$DW$T$10)
     715                    .dwattr $C$DW$43, DW_AT_TI_begin_file("C:/ti/ccs1110/ccs/tools/compiler/ti-cgt-msp430_21.6.1.L
     716                    .dwattr $C$DW$43, DW_AT_TI_begin_line(0x15f)
     717                    .dwattr $C$DW$43, DW_AT_TI_begin_column(0x25)
     718                    .dwattr $C$DW$43, DW_AT_decl_file("C:/ti/ccs1110/ccs/tools/compiler/ti-cgt-msp430_21.6.1.LTS/i
     719                    .dwattr $C$DW$43, DW_AT_decl_line(0x15f)
     720                    .dwattr $C$DW$43, DW_AT_decl_column(0x25)
     721                    .dwattr $C$DW$43, DW_AT_TI_max_frame_size(0x18)
     722                    .dwpsn  file "C:/ti/ccs1110/ccs/tools/compiler/ti-cgt-msp430_21.6.1.LTS/include/_defs.h",line 
     723            
     724                    .dwfde $C$DW$CIE, __isnormal
     725            $C$DW$44        .dwtag  DW_TAG_formal_parameter
     726                    .dwattr $C$DW$44, DW_AT_name("d")
     727                    .dwattr $C$DW$44, DW_AT_TI_symbol_name("d")
     728                    .dwattr $C$DW$44, DW_AT_type(*$C$DW$T$17)
     729                    .dwattr $C$DW$44, DW_AT_location[DW_OP_reg12 DW_OP_piece 2 DW_OP_reg13 DW_OP_piece 2 DW_OP_reg
     730            
     731            
     732            ;*****************************************************************************
     733            ;* FUNCTION NAME: __isnormal                                                 *
     734            ;*                                                                           *
     735            ;*   Regs Modified     : SP,SR,r6,r7,r8,r9,r10,r11,r12,r13,r14,r15           *
     736            ;*   Regs Used         : SP,SR,r6,r7,r8,r9,r10,r11,r12,r13,r14,r15           *
     737            ;*   Local Frame Size  : 0 Args + 0 Auto + 20 Save = 20 byte                 *
     738            ;*****************************************************************************
     739 000000       __isnormal:
     740            ;* --------------------------------------------------------------------------*
     741                    .dwcfi  cfa_offset, 4
     742                    .dwcfi  save_reg_to_mem, 16, -4
     743 000000 144A          PUSHM.A   #5,r10                ; [] 
     744                    .dwcfi  save_reg_to_mem, 10, -8
     745                    .dwcfi  save_reg_to_mem, 9, -12
     746                    .dwcfi  save_reg_to_mem, 8, -16
     747                    .dwcfi  save_reg_to_mem, 7, -20
     748                    .dwcfi  save_reg_to_mem, 6, -24
     749                    .dwcfi  cfa_offset, 24
     750            ;* r6    assigned to $O$S1
     751            ;* r12   assigned to d
     752            $C$DW$45        .dwtag  DW_TAG_variable
     753                    .dwattr $C$DW$45, DW_AT_name("d")
     754                    .dwattr $C$DW$45, DW_AT_TI_symbol_name("d")
     755                    .dwattr $C$DW$45, DW_AT_type(*$C$DW$T$17)
     756                    .dwattr $C$DW$45, DW_AT_location[DW_OP_reg12 DW_OP_piece 2 DW_OP_reg13 DW_OP_piece 2 DW_OP_reg
     757            
     758 000002 0FC7          MOVA      r15,r7                ; [] |352| 
     759                    .dwpsn  file "C:/ti/ccs1110/ccs/tools/compiler/ti-cgt-msp430_21.6.1.LTS/include/_defs.h",line 
MSP430 Assembler PC v21.6.1 Tue Dec 20 13:59:30 2022

Copyright (c) 2003-2018 Texas Instruments Incorporated
Dallas.asm                                                           PAGE   15

     760 000004 4306          MOV.W     #0,r6                 ; [] |352| 
     761 000006 0CC8          MOVA      r12,r8                ; [] |352| 
     762 000008 0DC9          MOVA      r13,r9                ; [] |352| 
     763 00000a 0ECA          MOVA      r14,r10               ; [] |352| 
     764 00000c 07CB          MOVA      r7,r11                ; [] |352| 
     765 00000e 403C          MOV.W     #52,r12               ; [] |352| 
         000010 0034 
     766            $C$DW$46        .dwtag  DW_TAG_TI_branch
     767                    .dwattr $C$DW$46, DW_AT_low_pc(0x00)
     768                    .dwattr $C$DW$46, DW_AT_name("__mspabi_srlll")
     769                    .dwattr $C$DW$46, DW_AT_TI_call
     770            
     771 000012 13B0!         CALLA     #__mspabi_srlll       ; [] |352| 
         000014 0000 
     772                                                      ; [] |352| 
     773 000016 F03C          AND.W     #2047,r12             ; [] |352| 
         000018 07FF 
     774 00001a F30D          AND.W     #0,r13                ; [] |352| 
     775 00001c F30E          AND.W     #0,r14                ; [] |352| 
     776 00001e F30F          AND.W     #0,r15                ; [] |352| 
     777 000020 930F          TST.W     r15                   ; [] |352| 
     778 000022 2006          JNE       $C$L9                 ; [] |352| 
     779                                                      ; [] |352| 
     780            ;* --------------------------------------------------------------------------*
     781 000024 930E          TST.W     r14                   ; [] |352| 
     782 000026 2004          JNE       $C$L9                 ; [] |352| 
     783                                                      ; [] |352| 
     784            ;* --------------------------------------------------------------------------*
     785 000028 930D          TST.W     r13                   ; [] |352| 
     786 00002a 2002          JNE       $C$L9                 ; [] |352| 
     787                                                      ; [] |352| 
     788            ;* --------------------------------------------------------------------------*
     789 00002c 930C          TST.W     r12                   ; [] |352| 
     790 00002e 2406          JEQ       $C$L10                ; [] |352| 
     791                                                      ; [] |352| 
     792            ;* --------------------------------------------------------------------------*
     793 000030       $C$L9:    
     794 000030 F037          AND.W     #32752,r7             ; [] |352| 
         000032 7FF0 
     795 000034 9037          CMP.W     #32752,r7             ; [] |352| 
         000036 7FF0 
     796 000038 2401          JEQ       $C$L10                ; [] |352| 
     797                                                      ; [] |352| 
     798            ;* --------------------------------------------------------------------------*
     799 00003a 4316          MOV.W     #1,r6                 ; [] |352| 
     800            ;* --------------------------------------------------------------------------*
     801 00003c       $C$L10:    
     802 00003c 06CC          MOVA      r6,r12                ; [] |352| 
     803                    .dwpsn  file "C:/ti/ccs1110/ccs/tools/compiler/ti-cgt-msp430_21.6.1.LTS/include/_defs.h",line 
     804 00003e 1646          POPM.A    #5,r10                ; [] 
     805                    .dwcfi  restore_reg, 6
     806                    .dwcfi  restore_reg, 7
     807                    .dwcfi  restore_reg, 8
     808                    .dwcfi  restore_reg, 9
     809                    .dwcfi  restore_reg, 10
MSP430 Assembler PC v21.6.1 Tue Dec 20 13:59:30 2022

Copyright (c) 2003-2018 Texas Instruments Incorporated
Dallas.asm                                                           PAGE   16

     810                    .dwcfi  cfa_offset, 4
     811            $C$DW$47        .dwtag  DW_TAG_TI_branch
     812                    .dwattr $C$DW$47, DW_AT_low_pc(0x00)
     813                    .dwattr $C$DW$47, DW_AT_TI_return
     814            
     815 000040 0110          RETA      ; [] 
     816                    ; [] 
     817                    .dwattr $C$DW$43, DW_AT_TI_end_file("C:/ti/ccs1110/ccs/tools/compiler/ti-cgt-msp430_21.6.1.LTS
     818                    .dwattr $C$DW$43, DW_AT_TI_end_line(0x161)
     819                    .dwattr $C$DW$43, DW_AT_TI_end_column(0x30)
     820                    .dwendentry
     821                    .dwendtag $C$DW$43
     822            
     823 000000               .sect   ".text:__isnanl"
     824                    .clink
     825                    .global __isnanl
     826            
     827            $C$DW$48        .dwtag  DW_TAG_subprogram
     828                    .dwattr $C$DW$48, DW_AT_name("__isnanl")
     829                    .dwattr $C$DW$48, DW_AT_low_pc(__isnanl)
     830                    .dwattr $C$DW$48, DW_AT_high_pc(0x00)
     831                    .dwattr $C$DW$48, DW_AT_TI_symbol_name("__isnanl")
     832                    .dwattr $C$DW$48, DW_AT_external
     833                    .dwattr $C$DW$48, DW_AT_type(*$C$DW$T$10)
     834                    .dwattr $C$DW$48, DW_AT_TI_begin_file("C:/ti/ccs1110/ccs/tools/compiler/ti-cgt-msp430_21.6.1.L
     835                    .dwattr $C$DW$48, DW_AT_TI_begin_line(0x15b)
     836                    .dwattr $C$DW$48, DW_AT_TI_begin_column(0x25)
     837                    .dwattr $C$DW$48, DW_AT_decl_file("C:/ti/ccs1110/ccs/tools/compiler/ti-cgt-msp430_21.6.1.LTS/i
     838                    .dwattr $C$DW$48, DW_AT_decl_line(0x15b)
     839                    .dwattr $C$DW$48, DW_AT_decl_column(0x25)
     840                    .dwattr $C$DW$48, DW_AT_TI_max_frame_size(0x08)
     841                    .dwpsn  file "C:/ti/ccs1110/ccs/tools/compiler/ti-cgt-msp430_21.6.1.LTS/include/_defs.h",line 
     842            
     843                    .dwfde $C$DW$CIE, __isnanl
     844            $C$DW$49        .dwtag  DW_TAG_formal_parameter
     845                    .dwattr $C$DW$49, DW_AT_name("e")
     846                    .dwattr $C$DW$49, DW_AT_TI_symbol_name("e")
     847                    .dwattr $C$DW$49, DW_AT_type(*$C$DW$T$18)
     848                    .dwattr $C$DW$49, DW_AT_location[DW_OP_reg12 DW_OP_piece 2 DW_OP_reg13 DW_OP_piece 2 DW_OP_reg
     849            
     850            
     851            ;*****************************************************************************
     852            ;* FUNCTION NAME: __isnanl                                                   *
     853            ;*                                                                           *
     854            ;*   Regs Modified     : SP,SR,r10,r11,r12,r13,r14,r15                       *
     855            ;*   Regs Used         : SP,SR,r10,r11,r12,r13,r14,r15                       *
     856            ;*   Local Frame Size  : 0 Args + 0 Auto + 4 Save = 4 byte                   *
     857            ;*****************************************************************************
     858 000000       __isnanl:
     859            ;* --------------------------------------------------------------------------*
     860                    .dwcfi  cfa_offset, 4
     861                    .dwcfi  save_reg_to_mem, 16, -4
     862 000000 140A          PUSHM.A   #1,r10                ; [] 
     863                    .dwcfi  save_reg_to_mem, 10, -8
     864                    .dwcfi  cfa_offset, 8
MSP430 Assembler PC v21.6.1 Tue Dec 20 13:59:30 2022

Copyright (c) 2003-2018 Texas Instruments Incorporated
Dallas.asm                                                           PAGE   17

     865            ;* r11   assigned to $O$S1
     866                    .dwpsn  file "C:/ti/ccs1110/ccs/tools/compiler/ti-cgt-msp430_21.6.1.LTS/include/_defs.h",line 
     867 000002 430B          MOV.W     #0,r11                ; [] |348| 
     868 000004 0FCA          MOVA      r15,r10               ; [] |348| 
     869 000006 F03A          AND.W     #32752,r10            ; [] |348| 
         000008 7FF0 
     870 00000a 903A          CMP.W     #32752,r10            ; [] |348| 
         00000c 7FF0 
     871 00000e 200E          JNE       $C$L12                ; [] |348| 
     872                                                      ; [] |348| 
     873            ;* --------------------------------------------------------------------------*
     874 000010 F33C          AND.W     #65535,r12            ; [] |348| 
     875 000012 F33D          AND.W     #65535,r13            ; [] |348| 
     876 000014 F33E          AND.W     #65535,r14            ; [] |348| 
     877 000016 F03F          AND.W     #15,r15               ; [] |348| 
         000018 000F 
     878 00001a 930F          TST.W     r15                   ; [] |348| 
     879 00001c 2006          JNE       $C$L11                ; [] |348| 
     880                                                      ; [] |348| 
     881            ;* --------------------------------------------------------------------------*
     882 00001e 930E          TST.W     r14                   ; [] |348| 
     883 000020 2004          JNE       $C$L11                ; [] |348| 
     884                                                      ; [] |348| 
     885            ;* --------------------------------------------------------------------------*
     886 000022 930D          TST.W     r13                   ; [] |348| 
     887 000024 2002          JNE       $C$L11                ; [] |348| 
     888                                                      ; [] |348| 
     889            ;* --------------------------------------------------------------------------*
     890 000026 930C          TST.W     r12                   ; [] |348| 
     891 000028 2401          JEQ       $C$L12                ; [] |348| 
     892                                                      ; [] |348| 
     893            ;* --------------------------------------------------------------------------*
     894 00002a       $C$L11:    
     895 00002a 431B          MOV.W     #1,r11                ; [] |348| 
     896            ;* --------------------------------------------------------------------------*
     897 00002c       $C$L12:    
     898 00002c 0BCC          MOVA      r11,r12               ; [] |348| 
     899                    .dwpsn  file "C:/ti/ccs1110/ccs/tools/compiler/ti-cgt-msp430_21.6.1.LTS/include/_defs.h",line 
     900 00002e 160A          POPM.A    #1,r10                ; [] 
     901                    .dwcfi  restore_reg, 10
     902                    .dwcfi  cfa_offset, 4
     903            $C$DW$50        .dwtag  DW_TAG_TI_branch
     904                    .dwattr $C$DW$50, DW_AT_low_pc(0x00)
     905                    .dwattr $C$DW$50, DW_AT_TI_return
     906            
     907 000030 0110          RETA      ; [] 
     908                    ; [] 
     909                    .dwattr $C$DW$48, DW_AT_TI_end_file("C:/ti/ccs1110/ccs/tools/compiler/ti-cgt-msp430_21.6.1.LTS
     910                    .dwattr $C$DW$48, DW_AT_TI_end_line(0x15d)
     911                    .dwattr $C$DW$48, DW_AT_TI_end_column(0x30)
     912                    .dwendentry
     913                    .dwendtag $C$DW$48
     914            
     915 000000               .sect   ".text:__isnanf"
     916                    .clink
MSP430 Assembler PC v21.6.1 Tue Dec 20 13:59:30 2022

Copyright (c) 2003-2018 Texas Instruments Incorporated
Dallas.asm                                                           PAGE   18

     917                    .global __isnanf
     918            
     919            $C$DW$51        .dwtag  DW_TAG_subprogram
     920                    .dwattr $C$DW$51, DW_AT_name("__isnanf")
     921                    .dwattr $C$DW$51, DW_AT_low_pc(__isnanf)
     922                    .dwattr $C$DW$51, DW_AT_high_pc(0x00)
     923                    .dwattr $C$DW$51, DW_AT_TI_symbol_name("__isnanf")
     924                    .dwattr $C$DW$51, DW_AT_external
     925                    .dwattr $C$DW$51, DW_AT_type(*$C$DW$T$10)
     926                    .dwattr $C$DW$51, DW_AT_TI_begin_file("C:/ti/ccs1110/ccs/tools/compiler/ti-cgt-msp430_21.6.1.L
     927                    .dwattr $C$DW$51, DW_AT_TI_begin_line(0x158)
     928                    .dwattr $C$DW$51, DW_AT_TI_begin_column(0x25)
     929                    .dwattr $C$DW$51, DW_AT_decl_file("C:/ti/ccs1110/ccs/tools/compiler/ti-cgt-msp430_21.6.1.LTS/i
     930                    .dwattr $C$DW$51, DW_AT_decl_line(0x158)
     931                    .dwattr $C$DW$51, DW_AT_decl_column(0x25)
     932                    .dwattr $C$DW$51, DW_AT_TI_max_frame_size(0x04)
     933                    .dwpsn  file "C:/ti/ccs1110/ccs/tools/compiler/ti-cgt-msp430_21.6.1.LTS/include/_defs.h",line 
     934            
     935                    .dwfde $C$DW$CIE, __isnanf
     936            $C$DW$52        .dwtag  DW_TAG_formal_parameter
     937                    .dwattr $C$DW$52, DW_AT_name("f")
     938                    .dwattr $C$DW$52, DW_AT_TI_symbol_name("f")
     939                    .dwattr $C$DW$52, DW_AT_type(*$C$DW$T$16)
     940                    .dwattr $C$DW$52, DW_AT_location[DW_OP_reg12 DW_OP_piece 2 DW_OP_reg13 DW_OP_piece 2]
     941            
     942            
     943            ;*****************************************************************************
     944            ;* FUNCTION NAME: __isnanf                                                   *
     945            ;*                                                                           *
     946            ;*   Regs Modified     : SP,SR,r12,r13,r14,r15                               *
     947            ;*   Regs Used         : SP,SR,r12,r13,r14,r15                               *
     948            ;*   Local Frame Size  : 0 Args + 0 Auto + 0 Save = 0 byte                   *
     949            ;*****************************************************************************
     950 000000       __isnanf:
     951            ;* --------------------------------------------------------------------------*
     952                    .dwcfi  cfa_offset, 4
     953                    .dwcfi  save_reg_to_mem, 16, -4
     954            ;* r15   assigned to $O$S1
     955                    .dwpsn  file "C:/ti/ccs1110/ccs/tools/compiler/ti-cgt-msp430_21.6.1.LTS/include/_defs.h",line 
     956 000000 430F          MOV.W     #0,r15                ; [] |345| 
     957 000002 0DCE          MOVA      r13,r14               ; [] |345| 
     958 000004 F03E          AND.W     #32640,r14            ; [] |345| 
         000006 7F80 
     959 000008 903E          CMP.W     #32640,r14            ; [] |345| 
         00000a 7F80 
     960 00000c 2008          JNE       $C$L14                ; [] |345| 
     961                                                      ; [] |345| 
     962            ;* --------------------------------------------------------------------------*
     963 00000e F33C          AND.W     #65535,r12            ; [] |345| 
     964 000010 F03D          AND.W     #127,r13              ; [] |345| 
         000012 007F 
     965 000014 930D          TST.W     r13                   ; [] |345| 
     966 000016 2002          JNE       $C$L13                ; [] |345| 
     967                                                      ; [] |345| 
     968            ;* --------------------------------------------------------------------------*
MSP430 Assembler PC v21.6.1 Tue Dec 20 13:59:30 2022

Copyright (c) 2003-2018 Texas Instruments Incorporated
Dallas.asm                                                           PAGE   19

     969 000018 930C          TST.W     r12                   ; [] |345| 
     970 00001a 2401          JEQ       $C$L14                ; [] |345| 
     971                                                      ; [] |345| 
     972            ;* --------------------------------------------------------------------------*
     973 00001c       $C$L13:    
     974 00001c 431F          MOV.W     #1,r15                ; [] |345| 
     975            ;* --------------------------------------------------------------------------*
     976 00001e       $C$L14:    
     977 00001e 0FCC          MOVA      r15,r12               ; [] |345| 
     978                    .dwpsn  file "C:/ti/ccs1110/ccs/tools/compiler/ti-cgt-msp430_21.6.1.LTS/include/_defs.h",line 
     979            $C$DW$53        .dwtag  DW_TAG_TI_branch
     980                    .dwattr $C$DW$53, DW_AT_low_pc(0x00)
     981                    .dwattr $C$DW$53, DW_AT_TI_return
     982            
     983 000020 0110          RETA      ; [] 
     984                    ; [] 
     985                    .dwattr $C$DW$51, DW_AT_TI_end_file("C:/ti/ccs1110/ccs/tools/compiler/ti-cgt-msp430_21.6.1.LTS
     986                    .dwattr $C$DW$51, DW_AT_TI_end_line(0x15a)
     987                    .dwattr $C$DW$51, DW_AT_TI_end_column(0x2e)
     988                    .dwendentry
     989                    .dwendtag $C$DW$51
     990            
     991 000000               .sect   ".text:__isnan"
     992                    .clink
     993                    .global __isnan
     994            
     995            $C$DW$54        .dwtag  DW_TAG_subprogram
     996                    .dwattr $C$DW$54, DW_AT_name("__isnan")
     997                    .dwattr $C$DW$54, DW_AT_low_pc(__isnan)
     998                    .dwattr $C$DW$54, DW_AT_high_pc(0x00)
     999                    .dwattr $C$DW$54, DW_AT_TI_symbol_name("__isnan")
    1000                    .dwattr $C$DW$54, DW_AT_external
    1001                    .dwattr $C$DW$54, DW_AT_type(*$C$DW$T$10)
    1002                    .dwattr $C$DW$54, DW_AT_TI_begin_file("C:/ti/ccs1110/ccs/tools/compiler/ti-cgt-msp430_21.6.1.L
    1003                    .dwattr $C$DW$54, DW_AT_TI_begin_line(0x155)
    1004                    .dwattr $C$DW$54, DW_AT_TI_begin_column(0x25)
    1005                    .dwattr $C$DW$54, DW_AT_decl_file("C:/ti/ccs1110/ccs/tools/compiler/ti-cgt-msp430_21.6.1.LTS/i
    1006                    .dwattr $C$DW$54, DW_AT_decl_line(0x155)
    1007                    .dwattr $C$DW$54, DW_AT_decl_column(0x25)
    1008                    .dwattr $C$DW$54, DW_AT_TI_max_frame_size(0x08)
    1009                    .dwpsn  file "C:/ti/ccs1110/ccs/tools/compiler/ti-cgt-msp430_21.6.1.LTS/include/_defs.h",line 
    1010            
    1011                    .dwfde $C$DW$CIE, __isnan
    1012            $C$DW$55        .dwtag  DW_TAG_formal_parameter
    1013                    .dwattr $C$DW$55, DW_AT_name("d")
    1014                    .dwattr $C$DW$55, DW_AT_TI_symbol_name("d")
    1015                    .dwattr $C$DW$55, DW_AT_type(*$C$DW$T$17)
    1016                    .dwattr $C$DW$55, DW_AT_location[DW_OP_reg12 DW_OP_piece 2 DW_OP_reg13 DW_OP_piece 2 DW_OP_reg
    1017            
    1018            
    1019            ;*****************************************************************************
    1020            ;* FUNCTION NAME: __isnan                                                    *
    1021            ;*                                                                           *
    1022            ;*   Regs Modified     : SP,SR,r10,r11,r12,r13,r14,r15                       *
    1023            ;*   Regs Used         : SP,SR,r10,r11,r12,r13,r14,r15                       *
MSP430 Assembler PC v21.6.1 Tue Dec 20 13:59:30 2022

Copyright (c) 2003-2018 Texas Instruments Incorporated
Dallas.asm                                                           PAGE   20

    1024            ;*   Local Frame Size  : 0 Args + 0 Auto + 4 Save = 4 byte                   *
    1025            ;*****************************************************************************
    1026 000000       __isnan:
    1027            ;* --------------------------------------------------------------------------*
    1028                    .dwcfi  cfa_offset, 4
    1029                    .dwcfi  save_reg_to_mem, 16, -4
    1030 000000 140A          PUSHM.A   #1,r10                ; [] 
    1031                    .dwcfi  save_reg_to_mem, 10, -8
    1032                    .dwcfi  cfa_offset, 8
    1033            ;* r11   assigned to $O$S1
    1034                    .dwpsn  file "C:/ti/ccs1110/ccs/tools/compiler/ti-cgt-msp430_21.6.1.LTS/include/_defs.h",line 
    1035 000002 430B          MOV.W     #0,r11                ; [] |342| 
    1036 000004 0FCA          MOVA      r15,r10               ; [] |342| 
    1037 000006 F03A          AND.W     #32752,r10            ; [] |342| 
         000008 7FF0 
    1038 00000a 903A          CMP.W     #32752,r10            ; [] |342| 
         00000c 7FF0 
    1039 00000e 200E          JNE       $C$L16                ; [] |342| 
    1040                                                      ; [] |342| 
    1041            ;* --------------------------------------------------------------------------*
    1042 000010 F33C          AND.W     #65535,r12            ; [] |342| 
    1043 000012 F33D          AND.W     #65535,r13            ; [] |342| 
    1044 000014 F33E          AND.W     #65535,r14            ; [] |342| 
    1045 000016 F03F          AND.W     #15,r15               ; [] |342| 
         000018 000F 
    1046 00001a 930F          TST.W     r15                   ; [] |342| 
    1047 00001c 2006          JNE       $C$L15                ; [] |342| 
    1048                                                      ; [] |342| 
    1049            ;* --------------------------------------------------------------------------*
    1050 00001e 930E          TST.W     r14                   ; [] |342| 
    1051 000020 2004          JNE       $C$L15                ; [] |342| 
    1052                                                      ; [] |342| 
    1053            ;* --------------------------------------------------------------------------*
    1054 000022 930D          TST.W     r13                   ; [] |342| 
    1055 000024 2002          JNE       $C$L15                ; [] |342| 
    1056                                                      ; [] |342| 
    1057            ;* --------------------------------------------------------------------------*
    1058 000026 930C          TST.W     r12                   ; [] |342| 
    1059 000028 2401          JEQ       $C$L16                ; [] |342| 
    1060                                                      ; [] |342| 
    1061            ;* --------------------------------------------------------------------------*
    1062 00002a       $C$L15:    
    1063 00002a 431B          MOV.W     #1,r11                ; [] |342| 
    1064            ;* --------------------------------------------------------------------------*
    1065 00002c       $C$L16:    
    1066 00002c 0BCC          MOVA      r11,r12               ; [] |342| 
    1067                    .dwpsn  file "C:/ti/ccs1110/ccs/tools/compiler/ti-cgt-msp430_21.6.1.LTS/include/_defs.h",line 
    1068 00002e 160A          POPM.A    #1,r10                ; [] 
    1069                    .dwcfi  restore_reg, 10
    1070                    .dwcfi  cfa_offset, 4
    1071            $C$DW$56        .dwtag  DW_TAG_TI_branch
    1072                    .dwattr $C$DW$56, DW_AT_low_pc(0x00)
    1073                    .dwattr $C$DW$56, DW_AT_TI_return
    1074            
    1075 000030 0110          RETA      ; [] 
MSP430 Assembler PC v21.6.1 Tue Dec 20 13:59:30 2022

Copyright (c) 2003-2018 Texas Instruments Incorporated
Dallas.asm                                                           PAGE   21

    1076                    ; [] 
    1077                    .dwattr $C$DW$54, DW_AT_TI_end_file("C:/ti/ccs1110/ccs/tools/compiler/ti-cgt-msp430_21.6.1.LTS
    1078                    .dwattr $C$DW$54, DW_AT_TI_end_line(0x157)
    1079                    .dwattr $C$DW$54, DW_AT_TI_end_column(0x2f)
    1080                    .dwendentry
    1081                    .dwendtag $C$DW$54
    1082            
    1083 000000               .sect   ".text:__isinfl"
    1084                    .clink
    1085                    .global __isinfl
    1086            
    1087            $C$DW$57        .dwtag  DW_TAG_subprogram
    1088                    .dwattr $C$DW$57, DW_AT_name("__isinfl")
    1089                    .dwattr $C$DW$57, DW_AT_low_pc(__isinfl)
    1090                    .dwattr $C$DW$57, DW_AT_high_pc(0x00)
    1091                    .dwattr $C$DW$57, DW_AT_TI_symbol_name("__isinfl")
    1092                    .dwattr $C$DW$57, DW_AT_external
    1093                    .dwattr $C$DW$57, DW_AT_type(*$C$DW$T$10)
    1094                    .dwattr $C$DW$57, DW_AT_TI_begin_file("C:/ti/ccs1110/ccs/tools/compiler/ti-cgt-msp430_21.6.1.L
    1095                    .dwattr $C$DW$57, DW_AT_TI_begin_line(0x17a)
    1096                    .dwattr $C$DW$57, DW_AT_TI_begin_column(0x25)
    1097                    .dwattr $C$DW$57, DW_AT_decl_file("C:/ti/ccs1110/ccs/tools/compiler/ti-cgt-msp430_21.6.1.LTS/i
    1098                    .dwattr $C$DW$57, DW_AT_decl_line(0x17a)
    1099                    .dwattr $C$DW$57, DW_AT_decl_column(0x25)
    1100                    .dwattr $C$DW$57, DW_AT_TI_max_frame_size(0x08)
    1101                    .dwpsn  file "C:/ti/ccs1110/ccs/tools/compiler/ti-cgt-msp430_21.6.1.LTS/include/_defs.h",line 
    1102            
    1103                    .dwfde $C$DW$CIE, __isinfl
    1104            $C$DW$58        .dwtag  DW_TAG_formal_parameter
    1105                    .dwattr $C$DW$58, DW_AT_name("e")
    1106                    .dwattr $C$DW$58, DW_AT_TI_symbol_name("e")
    1107                    .dwattr $C$DW$58, DW_AT_type(*$C$DW$T$18)
    1108                    .dwattr $C$DW$58, DW_AT_location[DW_OP_reg12 DW_OP_piece 2 DW_OP_reg13 DW_OP_piece 2 DW_OP_reg
    1109            
    1110            
    1111            ;*****************************************************************************
    1112            ;* FUNCTION NAME: __isinfl                                                   *
    1113            ;*                                                                           *
    1114            ;*   Regs Modified     : SP,SR,r10,r11,r12,r13,r14,r15                       *
    1115            ;*   Regs Used         : SP,SR,r10,r11,r12,r13,r14,r15                       *
    1116            ;*   Local Frame Size  : 0 Args + 0 Auto + 4 Save = 4 byte                   *
    1117            ;*****************************************************************************
    1118 000000       __isinfl:
    1119            ;* --------------------------------------------------------------------------*
    1120                    .dwcfi  cfa_offset, 4
    1121                    .dwcfi  save_reg_to_mem, 16, -4
    1122 000000 140A          PUSHM.A   #1,r10                ; [] 
    1123                    .dwcfi  save_reg_to_mem, 10, -8
    1124                    .dwcfi  cfa_offset, 8
    1125            ;* r11   assigned to $O$S1
    1126                    .dwpsn  file "C:/ti/ccs1110/ccs/tools/compiler/ti-cgt-msp430_21.6.1.LTS/include/_defs.h",line 
    1127 000002 430B          MOV.W     #0,r11                ; [] |379| 
    1128 000004 0FCA          MOVA      r15,r10               ; [] |379| 
    1129 000006 F03A          AND.W     #32752,r10            ; [] |379| 
         000008 7FF0 
MSP430 Assembler PC v21.6.1 Tue Dec 20 13:59:30 2022

Copyright (c) 2003-2018 Texas Instruments Incorporated
Dallas.asm                                                           PAGE   22

    1130 00000a 903A          CMP.W     #32752,r10            ; [] |379| 
         00000c 7FF0 
    1131 00000e 200E          JNE       $C$L17                ; [] |379| 
    1132                                                      ; [] |379| 
    1133            ;* --------------------------------------------------------------------------*
    1134 000010 F33C          AND.W     #65535,r12            ; [] |379| 
    1135 000012 F33D          AND.W     #65535,r13            ; [] |379| 
    1136 000014 F33E          AND.W     #65535,r14            ; [] |379| 
    1137 000016 F03F          AND.W     #15,r15               ; [] |379| 
         000018 000F 
    1138 00001a 930F          TST.W     r15                   ; [] |379| 
    1139 00001c 2007          JNE       $C$L17                ; [] |379| 
    1140                                                      ; [] |379| 
    1141            ;* --------------------------------------------------------------------------*
    1142 00001e 930E          TST.W     r14                   ; [] |379| 
    1143 000020 2005          JNE       $C$L17                ; [] |379| 
    1144                                                      ; [] |379| 
    1145            ;* --------------------------------------------------------------------------*
    1146 000022 930D          TST.W     r13                   ; [] |379| 
    1147 000024 2003          JNE       $C$L17                ; [] |379| 
    1148                                                      ; [] |379| 
    1149            ;* --------------------------------------------------------------------------*
    1150 000026 930C          TST.W     r12                   ; [] |379| 
    1151 000028 2001          JNE       $C$L17                ; [] |379| 
    1152                                                      ; [] |379| 
    1153            ;* --------------------------------------------------------------------------*
    1154 00002a 431B          MOV.W     #1,r11                ; [] |379| 
    1155            ;* --------------------------------------------------------------------------*
    1156 00002c       $C$L17:    
    1157 00002c 0BCC          MOVA      r11,r12               ; [] |379| 
    1158                    .dwpsn  file "C:/ti/ccs1110/ccs/tools/compiler/ti-cgt-msp430_21.6.1.LTS/include/_defs.h",line 
    1159 00002e 160A          POPM.A    #1,r10                ; [] 
    1160                    .dwcfi  restore_reg, 10
    1161                    .dwcfi  cfa_offset, 4
    1162            $C$DW$59        .dwtag  DW_TAG_TI_branch
    1163                    .dwattr $C$DW$59, DW_AT_low_pc(0x00)
    1164                    .dwattr $C$DW$59, DW_AT_TI_return
    1165            
    1166 000030 0110          RETA      ; [] 
    1167                    ; [] 
    1168                    .dwattr $C$DW$57, DW_AT_TI_end_file("C:/ti/ccs1110/ccs/tools/compiler/ti-cgt-msp430_21.6.1.LTS
    1169                    .dwattr $C$DW$57, DW_AT_TI_end_line(0x17b)
    1170                    .dwattr $C$DW$57, DW_AT_TI_end_column(0x4c)
    1171                    .dwendentry
    1172                    .dwendtag $C$DW$57
    1173            
    1174 000000               .sect   ".text:__isinff"
    1175                    .clink
    1176                    .global __isinff
    1177            
    1178            $C$DW$60        .dwtag  DW_TAG_subprogram
    1179                    .dwattr $C$DW$60, DW_AT_name("__isinff")
    1180                    .dwattr $C$DW$60, DW_AT_low_pc(__isinff)
    1181                    .dwattr $C$DW$60, DW_AT_high_pc(0x00)
    1182                    .dwattr $C$DW$60, DW_AT_TI_symbol_name("__isinff")
MSP430 Assembler PC v21.6.1 Tue Dec 20 13:59:30 2022

Copyright (c) 2003-2018 Texas Instruments Incorporated
Dallas.asm                                                           PAGE   23

    1183                    .dwattr $C$DW$60, DW_AT_external
    1184                    .dwattr $C$DW$60, DW_AT_type(*$C$DW$T$10)
    1185                    .dwattr $C$DW$60, DW_AT_TI_begin_file("C:/ti/ccs1110/ccs/tools/compiler/ti-cgt-msp430_21.6.1.L
    1186                    .dwattr $C$DW$60, DW_AT_TI_begin_line(0x176)
    1187                    .dwattr $C$DW$60, DW_AT_TI_begin_column(0x25)
    1188                    .dwattr $C$DW$60, DW_AT_decl_file("C:/ti/ccs1110/ccs/tools/compiler/ti-cgt-msp430_21.6.1.LTS/i
    1189                    .dwattr $C$DW$60, DW_AT_decl_line(0x176)
    1190                    .dwattr $C$DW$60, DW_AT_decl_column(0x25)
    1191                    .dwattr $C$DW$60, DW_AT_TI_max_frame_size(0x04)
    1192                    .dwpsn  file "C:/ti/ccs1110/ccs/tools/compiler/ti-cgt-msp430_21.6.1.LTS/include/_defs.h",line 
    1193            
    1194                    .dwfde $C$DW$CIE, __isinff
    1195            $C$DW$61        .dwtag  DW_TAG_formal_parameter
    1196                    .dwattr $C$DW$61, DW_AT_name("f")
    1197                    .dwattr $C$DW$61, DW_AT_TI_symbol_name("f")
    1198                    .dwattr $C$DW$61, DW_AT_type(*$C$DW$T$16)
    1199                    .dwattr $C$DW$61, DW_AT_location[DW_OP_reg12 DW_OP_piece 2 DW_OP_reg13 DW_OP_piece 2]
    1200            
    1201            
    1202            ;*****************************************************************************
    1203            ;* FUNCTION NAME: __isinff                                                   *
    1204            ;*                                                                           *
    1205            ;*   Regs Modified     : SP,SR,r12,r13,r14,r15                               *
    1206            ;*   Regs Used         : SP,SR,r12,r13,r14,r15                               *
    1207            ;*   Local Frame Size  : 0 Args + 0 Auto + 0 Save = 0 byte                   *
    1208            ;*****************************************************************************
    1209 000000       __isinff:
    1210            ;* --------------------------------------------------------------------------*
    1211                    .dwcfi  cfa_offset, 4
    1212                    .dwcfi  save_reg_to_mem, 16, -4
    1213            ;* r15   assigned to $O$S1
    1214                    .dwpsn  file "C:/ti/ccs1110/ccs/tools/compiler/ti-cgt-msp430_21.6.1.LTS/include/_defs.h",line 
    1215 000000 430F          MOV.W     #0,r15                ; [] |375| 
    1216 000002 0DCE          MOVA      r13,r14               ; [] |375| 
    1217 000004 F03E          AND.W     #32640,r14            ; [] |375| 
         000006 7F80 
    1218 000008 903E          CMP.W     #32640,r14            ; [] |375| 
         00000a 7F80 
    1219 00000c 2008          JNE       $C$L18                ; [] |375| 
    1220                                                      ; [] |375| 
    1221            ;* --------------------------------------------------------------------------*
    1222 00000e F33C          AND.W     #65535,r12            ; [] |375| 
    1223 000010 F03D          AND.W     #127,r13              ; [] |375| 
         000012 007F 
    1224 000014 930D          TST.W     r13                   ; [] |375| 
    1225 000016 2003          JNE       $C$L18                ; [] |375| 
    1226                                                      ; [] |375| 
    1227            ;* --------------------------------------------------------------------------*
    1228 000018 930C          TST.W     r12                   ; [] |375| 
    1229 00001a 2001          JNE       $C$L18                ; [] |375| 
    1230                                                      ; [] |375| 
    1231            ;* --------------------------------------------------------------------------*
    1232 00001c 431F          MOV.W     #1,r15                ; [] |375| 
    1233            ;* --------------------------------------------------------------------------*
    1234 00001e       $C$L18:    
MSP430 Assembler PC v21.6.1 Tue Dec 20 13:59:30 2022

Copyright (c) 2003-2018 Texas Instruments Incorporated
Dallas.asm                                                           PAGE   24

    1235 00001e 0FCC          MOVA      r15,r12               ; [] |375| 
    1236                    .dwpsn  file "C:/ti/ccs1110/ccs/tools/compiler/ti-cgt-msp430_21.6.1.LTS/include/_defs.h",line 
    1237            $C$DW$62        .dwtag  DW_TAG_TI_branch
    1238                    .dwattr $C$DW$62, DW_AT_low_pc(0x00)
    1239                    .dwattr $C$DW$62, DW_AT_TI_return
    1240            
    1241 000020 0110          RETA      ; [] 
    1242                    ; [] 
    1243                    .dwattr $C$DW$60, DW_AT_TI_end_file("C:/ti/ccs1110/ccs/tools/compiler/ti-cgt-msp430_21.6.1.LTS
    1244                    .dwattr $C$DW$60, DW_AT_TI_end_line(0x177)
    1245                    .dwattr $C$DW$60, DW_AT_TI_end_column(0x48)
    1246                    .dwendentry
    1247                    .dwendtag $C$DW$60
    1248            
    1249 000000               .sect   ".text:__isinf"
    1250                    .clink
    1251                    .global __isinf
    1252            
    1253            $C$DW$63        .dwtag  DW_TAG_subprogram
    1254                    .dwattr $C$DW$63, DW_AT_name("__isinf")
    1255                    .dwattr $C$DW$63, DW_AT_low_pc(__isinf)
    1256                    .dwattr $C$DW$63, DW_AT_high_pc(0x00)
    1257                    .dwattr $C$DW$63, DW_AT_TI_symbol_name("__isinf")
    1258                    .dwattr $C$DW$63, DW_AT_external
    1259                    .dwattr $C$DW$63, DW_AT_type(*$C$DW$T$10)
    1260                    .dwattr $C$DW$63, DW_AT_TI_begin_file("C:/ti/ccs1110/ccs/tools/compiler/ti-cgt-msp430_21.6.1.L
    1261                    .dwattr $C$DW$63, DW_AT_TI_begin_line(0x178)
    1262                    .dwattr $C$DW$63, DW_AT_TI_begin_column(0x25)
    1263                    .dwattr $C$DW$63, DW_AT_decl_file("C:/ti/ccs1110/ccs/tools/compiler/ti-cgt-msp430_21.6.1.LTS/i
    1264                    .dwattr $C$DW$63, DW_AT_decl_line(0x178)
    1265                    .dwattr $C$DW$63, DW_AT_decl_column(0x25)
    1266                    .dwattr $C$DW$63, DW_AT_TI_max_frame_size(0x08)
    1267                    .dwpsn  file "C:/ti/ccs1110/ccs/tools/compiler/ti-cgt-msp430_21.6.1.LTS/include/_defs.h",line 
    1268            
    1269                    .dwfde $C$DW$CIE, __isinf
    1270            $C$DW$64        .dwtag  DW_TAG_formal_parameter
    1271                    .dwattr $C$DW$64, DW_AT_name("d")
    1272                    .dwattr $C$DW$64, DW_AT_TI_symbol_name("d")
    1273                    .dwattr $C$DW$64, DW_AT_type(*$C$DW$T$17)
    1274                    .dwattr $C$DW$64, DW_AT_location[DW_OP_reg12 DW_OP_piece 2 DW_OP_reg13 DW_OP_piece 2 DW_OP_reg
    1275            
    1276            
    1277            ;*****************************************************************************
    1278            ;* FUNCTION NAME: __isinf                                                    *
    1279            ;*                                                                           *
    1280            ;*   Regs Modified     : SP,SR,r10,r11,r12,r13,r14,r15                       *
    1281            ;*   Regs Used         : SP,SR,r10,r11,r12,r13,r14,r15                       *
    1282            ;*   Local Frame Size  : 0 Args + 0 Auto + 4 Save = 4 byte                   *
    1283            ;*****************************************************************************
    1284 000000       __isinf:
    1285            ;* --------------------------------------------------------------------------*
    1286                    .dwcfi  cfa_offset, 4
    1287                    .dwcfi  save_reg_to_mem, 16, -4
    1288 000000 140A          PUSHM.A   #1,r10                ; [] 
    1289                    .dwcfi  save_reg_to_mem, 10, -8
MSP430 Assembler PC v21.6.1 Tue Dec 20 13:59:30 2022

Copyright (c) 2003-2018 Texas Instruments Incorporated
Dallas.asm                                                           PAGE   25

    1290                    .dwcfi  cfa_offset, 8
    1291            ;* r11   assigned to $O$S1
    1292                    .dwpsn  file "C:/ti/ccs1110/ccs/tools/compiler/ti-cgt-msp430_21.6.1.LTS/include/_defs.h",line 
    1293 000002 430B          MOV.W     #0,r11                ; [] |377| 
    1294 000004 0FCA          MOVA      r15,r10               ; [] |377| 
    1295 000006 F03A          AND.W     #32752,r10            ; [] |377| 
         000008 7FF0 
    1296 00000a 903A          CMP.W     #32752,r10            ; [] |377| 
         00000c 7FF0 
    1297 00000e 200E          JNE       $C$L19                ; [] |377| 
    1298                                                      ; [] |377| 
    1299            ;* --------------------------------------------------------------------------*
    1300 000010 F33C          AND.W     #65535,r12            ; [] |377| 
    1301 000012 F33D          AND.W     #65535,r13            ; [] |377| 
    1302 000014 F33E          AND.W     #65535,r14            ; [] |377| 
    1303 000016 F03F          AND.W     #15,r15               ; [] |377| 
         000018 000F 
    1304 00001a 930F          TST.W     r15                   ; [] |377| 
    1305 00001c 2007          JNE       $C$L19                ; [] |377| 
    1306                                                      ; [] |377| 
    1307            ;* --------------------------------------------------------------------------*
    1308 00001e 930E          TST.W     r14                   ; [] |377| 
    1309 000020 2005          JNE       $C$L19                ; [] |377| 
    1310                                                      ; [] |377| 
    1311            ;* --------------------------------------------------------------------------*
    1312 000022 930D          TST.W     r13                   ; [] |377| 
    1313 000024 2003          JNE       $C$L19                ; [] |377| 
    1314                                                      ; [] |377| 
    1315            ;* --------------------------------------------------------------------------*
    1316 000026 930C          TST.W     r12                   ; [] |377| 
    1317 000028 2001          JNE       $C$L19                ; [] |377| 
    1318                                                      ; [] |377| 
    1319            ;* --------------------------------------------------------------------------*
    1320 00002a 431B          MOV.W     #1,r11                ; [] |377| 
    1321            ;* --------------------------------------------------------------------------*
    1322 00002c       $C$L19:    
    1323 00002c 0BCC          MOVA      r11,r12               ; [] |377| 
    1324                    .dwpsn  file "C:/ti/ccs1110/ccs/tools/compiler/ti-cgt-msp430_21.6.1.LTS/include/_defs.h",line 
    1325 00002e 160A          POPM.A    #1,r10                ; [] 
    1326                    .dwcfi  restore_reg, 10
    1327                    .dwcfi  cfa_offset, 4
    1328            $C$DW$65        .dwtag  DW_TAG_TI_branch
    1329                    .dwattr $C$DW$65, DW_AT_low_pc(0x00)
    1330                    .dwattr $C$DW$65, DW_AT_TI_return
    1331            
    1332 000030 0110          RETA      ; [] 
    1333                    ; [] 
    1334                    .dwattr $C$DW$63, DW_AT_TI_end_file("C:/ti/ccs1110/ccs/tools/compiler/ti-cgt-msp430_21.6.1.LTS
    1335                    .dwattr $C$DW$63, DW_AT_TI_end_line(0x179)
    1336                    .dwattr $C$DW$63, DW_AT_TI_end_column(0x4a)
    1337                    .dwendentry
    1338                    .dwendtag $C$DW$63
    1339            
    1340 000000               .sect   ".text:__isfinitel"
    1341                    .clink
MSP430 Assembler PC v21.6.1 Tue Dec 20 13:59:30 2022

Copyright (c) 2003-2018 Texas Instruments Incorporated
Dallas.asm                                                           PAGE   26

    1342                    .global __isfinitel
    1343            
    1344            $C$DW$66        .dwtag  DW_TAG_subprogram
    1345                    .dwattr $C$DW$66, DW_AT_name("__isfinitel")
    1346                    .dwattr $C$DW$66, DW_AT_low_pc(__isfinitel)
    1347                    .dwattr $C$DW$66, DW_AT_high_pc(0x00)
    1348                    .dwattr $C$DW$66, DW_AT_TI_symbol_name("__isfinitel")
    1349                    .dwattr $C$DW$66, DW_AT_external
    1350                    .dwattr $C$DW$66, DW_AT_type(*$C$DW$T$10)
    1351                    .dwattr $C$DW$66, DW_AT_TI_begin_file("C:/ti/ccs1110/ccs/tools/compiler/ti-cgt-msp430_21.6.1.L
    1352                    .dwattr $C$DW$66, DW_AT_TI_begin_line(0x152)
    1353                    .dwattr $C$DW$66, DW_AT_TI_begin_column(0x25)
    1354                    .dwattr $C$DW$66, DW_AT_decl_file("C:/ti/ccs1110/ccs/tools/compiler/ti-cgt-msp430_21.6.1.LTS/i
    1355                    .dwattr $C$DW$66, DW_AT_decl_line(0x152)
    1356                    .dwattr $C$DW$66, DW_AT_decl_column(0x25)
    1357                    .dwattr $C$DW$66, DW_AT_TI_max_frame_size(0x04)
    1358                    .dwpsn  file "C:/ti/ccs1110/ccs/tools/compiler/ti-cgt-msp430_21.6.1.LTS/include/_defs.h",line 
    1359            
    1360                    .dwfde $C$DW$CIE, __isfinitel
    1361            $C$DW$67        .dwtag  DW_TAG_formal_parameter
    1362                    .dwattr $C$DW$67, DW_AT_name("e")
    1363                    .dwattr $C$DW$67, DW_AT_TI_symbol_name("e")
    1364                    .dwattr $C$DW$67, DW_AT_type(*$C$DW$T$18)
    1365                    .dwattr $C$DW$67, DW_AT_location[DW_OP_reg12 DW_OP_piece 2 DW_OP_reg13 DW_OP_piece 2 DW_OP_reg
    1366            
    1367            
    1368            ;*****************************************************************************
    1369            ;* FUNCTION NAME: __isfinitel                                                *
    1370            ;*                                                                           *
    1371            ;*   Regs Modified     : SP,SR,r12,r15                                       *
    1372            ;*   Regs Used         : SP,SR,r12,r15                                       *
    1373            ;*   Local Frame Size  : 0 Args + 0 Auto + 0 Save = 0 byte                   *
    1374            ;*****************************************************************************
    1375 000000       __isfinitel:
    1376            ;* --------------------------------------------------------------------------*
    1377                    .dwcfi  cfa_offset, 4
    1378                    .dwcfi  save_reg_to_mem, 16, -4
    1379                    .dwpsn  file "C:/ti/ccs1110/ccs/tools/compiler/ti-cgt-msp430_21.6.1.LTS/include/_defs.h",line 
    1380 000000 430C          MOV.W     #0,r12                ; [] |339| 
    1381 000002 F03F          AND.W     #32752,r15            ; [] |339| 
         000004 7FF0 
    1382 000006 903F          CMP.W     #32752,r15            ; [] |339| 
         000008 7FF0 
    1383 00000a 2401          JEQ       $C$L20                ; [] |339| 
    1384                                                      ; [] |339| 
    1385            ;* --------------------------------------------------------------------------*
    1386 00000c 431C          MOV.W     #1,r12                ; [] |339| 
    1387            ;* --------------------------------------------------------------------------*
    1388 00000e       $C$L20:    
    1389                    .dwpsn  file "C:/ti/ccs1110/ccs/tools/compiler/ti-cgt-msp430_21.6.1.LTS/include/_defs.h",line 
    1390            $C$DW$68        .dwtag  DW_TAG_TI_branch
    1391                    .dwattr $C$DW$68, DW_AT_low_pc(0x00)
    1392                    .dwattr $C$DW$68, DW_AT_TI_return
    1393            
    1394 00000e 0110          RETA      ; [] 
MSP430 Assembler PC v21.6.1 Tue Dec 20 13:59:30 2022

Copyright (c) 2003-2018 Texas Instruments Incorporated
Dallas.asm                                                           PAGE   27

    1395                    ; [] 
    1396                    .dwattr $C$DW$66, DW_AT_TI_end_file("C:/ti/ccs1110/ccs/tools/compiler/ti-cgt-msp430_21.6.1.LTS
    1397                    .dwattr $C$DW$66, DW_AT_TI_end_line(0x153)
    1398                    .dwattr $C$DW$66, DW_AT_TI_end_column(0x2f)
    1399                    .dwendentry
    1400                    .dwendtag $C$DW$66
    1401            
    1402 000000               .sect   ".text:__isfinitef"
    1403                    .clink
    1404                    .global __isfinitef
    1405            
    1406            $C$DW$69        .dwtag  DW_TAG_subprogram
    1407                    .dwattr $C$DW$69, DW_AT_name("__isfinitef")
    1408                    .dwattr $C$DW$69, DW_AT_low_pc(__isfinitef)
    1409                    .dwattr $C$DW$69, DW_AT_high_pc(0x00)
    1410                    .dwattr $C$DW$69, DW_AT_TI_symbol_name("__isfinitef")
    1411                    .dwattr $C$DW$69, DW_AT_external
    1412                    .dwattr $C$DW$69, DW_AT_type(*$C$DW$T$10)
    1413                    .dwattr $C$DW$69, DW_AT_TI_begin_file("C:/ti/ccs1110/ccs/tools/compiler/ti-cgt-msp430_21.6.1.L
    1414                    .dwattr $C$DW$69, DW_AT_TI_begin_line(0x150)
    1415                    .dwattr $C$DW$69, DW_AT_TI_begin_column(0x25)
    1416                    .dwattr $C$DW$69, DW_AT_decl_file("C:/ti/ccs1110/ccs/tools/compiler/ti-cgt-msp430_21.6.1.LTS/i
    1417                    .dwattr $C$DW$69, DW_AT_decl_line(0x150)
    1418                    .dwattr $C$DW$69, DW_AT_decl_column(0x25)
    1419                    .dwattr $C$DW$69, DW_AT_TI_max_frame_size(0x04)
    1420                    .dwpsn  file "C:/ti/ccs1110/ccs/tools/compiler/ti-cgt-msp430_21.6.1.LTS/include/_defs.h",line 
    1421            
    1422                    .dwfde $C$DW$CIE, __isfinitef
    1423            $C$DW$70        .dwtag  DW_TAG_formal_parameter
    1424                    .dwattr $C$DW$70, DW_AT_name("f")
    1425                    .dwattr $C$DW$70, DW_AT_TI_symbol_name("f")
    1426                    .dwattr $C$DW$70, DW_AT_type(*$C$DW$T$16)
    1427                    .dwattr $C$DW$70, DW_AT_location[DW_OP_reg12 DW_OP_piece 2 DW_OP_reg13 DW_OP_piece 2]
    1428            
    1429            
    1430            ;*****************************************************************************
    1431            ;* FUNCTION NAME: __isfinitef                                                *
    1432            ;*                                                                           *
    1433            ;*   Regs Modified     : SP,SR,r12,r13                                       *
    1434            ;*   Regs Used         : SP,SR,r12,r13                                       *
    1435            ;*   Local Frame Size  : 0 Args + 0 Auto + 0 Save = 0 byte                   *
    1436            ;*****************************************************************************
    1437 000000       __isfinitef:
    1438            ;* --------------------------------------------------------------------------*
    1439                    .dwcfi  cfa_offset, 4
    1440                    .dwcfi  save_reg_to_mem, 16, -4
    1441                    .dwpsn  file "C:/ti/ccs1110/ccs/tools/compiler/ti-cgt-msp430_21.6.1.LTS/include/_defs.h",line 
    1442 000000 430C          MOV.W     #0,r12                ; [] |337| 
    1443 000002 F03D          AND.W     #32640,r13            ; [] |337| 
         000004 7F80 
    1444 000006 903D          CMP.W     #32640,r13            ; [] |337| 
         000008 7F80 
    1445 00000a 2401          JEQ       $C$L21                ; [] |337| 
    1446                                                      ; [] |337| 
    1447            ;* --------------------------------------------------------------------------*
MSP430 Assembler PC v21.6.1 Tue Dec 20 13:59:30 2022

Copyright (c) 2003-2018 Texas Instruments Incorporated
Dallas.asm                                                           PAGE   28

    1448 00000c 431C          MOV.W     #1,r12                ; [] |337| 
    1449            ;* --------------------------------------------------------------------------*
    1450 00000e       $C$L21:    
    1451                    .dwpsn  file "C:/ti/ccs1110/ccs/tools/compiler/ti-cgt-msp430_21.6.1.LTS/include/_defs.h",line 
    1452            $C$DW$71        .dwtag  DW_TAG_TI_branch
    1453                    .dwattr $C$DW$71, DW_AT_low_pc(0x00)
    1454                    .dwattr $C$DW$71, DW_AT_TI_return
    1455            
    1456 00000e 0110          RETA      ; [] 
    1457                    ; [] 
    1458                    .dwattr $C$DW$69, DW_AT_TI_end_file("C:/ti/ccs1110/ccs/tools/compiler/ti-cgt-msp430_21.6.1.LTS
    1459                    .dwattr $C$DW$69, DW_AT_TI_end_line(0x151)
    1460                    .dwattr $C$DW$69, DW_AT_TI_end_column(0x2d)
    1461                    .dwendentry
    1462                    .dwendtag $C$DW$69
    1463            
    1464 000000               .sect   ".text:__isfinite"
    1465                    .clink
    1466                    .global __isfinite
    1467            
    1468            $C$DW$72        .dwtag  DW_TAG_subprogram
    1469                    .dwattr $C$DW$72, DW_AT_name("__isfinite")
    1470                    .dwattr $C$DW$72, DW_AT_low_pc(__isfinite)
    1471                    .dwattr $C$DW$72, DW_AT_high_pc(0x00)
    1472                    .dwattr $C$DW$72, DW_AT_TI_symbol_name("__isfinite")
    1473                    .dwattr $C$DW$72, DW_AT_external
    1474                    .dwattr $C$DW$72, DW_AT_type(*$C$DW$T$10)
    1475                    .dwattr $C$DW$72, DW_AT_TI_begin_file("C:/ti/ccs1110/ccs/tools/compiler/ti-cgt-msp430_21.6.1.L
    1476                    .dwattr $C$DW$72, DW_AT_TI_begin_line(0x14e)
    1477                    .dwattr $C$DW$72, DW_AT_TI_begin_column(0x25)
    1478                    .dwattr $C$DW$72, DW_AT_decl_file("C:/ti/ccs1110/ccs/tools/compiler/ti-cgt-msp430_21.6.1.LTS/i
    1479                    .dwattr $C$DW$72, DW_AT_decl_line(0x14e)
    1480                    .dwattr $C$DW$72, DW_AT_decl_column(0x25)
    1481                    .dwattr $C$DW$72, DW_AT_TI_max_frame_size(0x04)
    1482                    .dwpsn  file "C:/ti/ccs1110/ccs/tools/compiler/ti-cgt-msp430_21.6.1.LTS/include/_defs.h",line 
    1483            
    1484                    .dwfde $C$DW$CIE, __isfinite
    1485            $C$DW$73        .dwtag  DW_TAG_formal_parameter
    1486                    .dwattr $C$DW$73, DW_AT_name("d")
    1487                    .dwattr $C$DW$73, DW_AT_TI_symbol_name("d")
    1488                    .dwattr $C$DW$73, DW_AT_type(*$C$DW$T$17)
    1489                    .dwattr $C$DW$73, DW_AT_location[DW_OP_reg12 DW_OP_piece 2 DW_OP_reg13 DW_OP_piece 2 DW_OP_reg
    1490            
    1491            
    1492            ;*****************************************************************************
    1493            ;* FUNCTION NAME: __isfinite                                                 *
    1494            ;*                                                                           *
    1495            ;*   Regs Modified     : SP,SR,r12,r15                                       *
    1496            ;*   Regs Used         : SP,SR,r12,r15                                       *
    1497            ;*   Local Frame Size  : 0 Args + 0 Auto + 0 Save = 0 byte                   *
    1498            ;*****************************************************************************
    1499 000000       __isfinite:
    1500            ;* --------------------------------------------------------------------------*
    1501                    .dwcfi  cfa_offset, 4
    1502                    .dwcfi  save_reg_to_mem, 16, -4
MSP430 Assembler PC v21.6.1 Tue Dec 20 13:59:30 2022

Copyright (c) 2003-2018 Texas Instruments Incorporated
Dallas.asm                                                           PAGE   29

    1503                    .dwpsn  file "C:/ti/ccs1110/ccs/tools/compiler/ti-cgt-msp430_21.6.1.LTS/include/_defs.h",line 
    1504 000000 430C          MOV.W     #0,r12                ; [] |335| 
    1505 000002 F03F          AND.W     #32752,r15            ; [] |335| 
         000004 7FF0 
    1506 000006 903F          CMP.W     #32752,r15            ; [] |335| 
         000008 7FF0 
    1507 00000a 2401          JEQ       $C$L22                ; [] |335| 
    1508                                                      ; [] |335| 
    1509            ;* --------------------------------------------------------------------------*
    1510 00000c 431C          MOV.W     #1,r12                ; [] |335| 
    1511            ;* --------------------------------------------------------------------------*
    1512 00000e       $C$L22:    
    1513                    .dwpsn  file "C:/ti/ccs1110/ccs/tools/compiler/ti-cgt-msp430_21.6.1.LTS/include/_defs.h",line 
    1514            $C$DW$74        .dwtag  DW_TAG_TI_branch
    1515                    .dwattr $C$DW$74, DW_AT_low_pc(0x00)
    1516                    .dwattr $C$DW$74, DW_AT_TI_return
    1517            
    1518 00000e 0110          RETA      ; [] 
    1519                    ; [] 
    1520                    .dwattr $C$DW$72, DW_AT_TI_end_file("C:/ti/ccs1110/ccs/tools/compiler/ti-cgt-msp430_21.6.1.LTS
    1521                    .dwattr $C$DW$72, DW_AT_TI_end_line(0x14f)
    1522                    .dwattr $C$DW$72, DW_AT_TI_end_column(0x2e)
    1523                    .dwendentry
    1524                    .dwendtag $C$DW$72
    1525            
    1526 000000               .sect   ".text:__fpclassifyl"
    1527                    .clink
    1528                    .global __fpclassifyl
    1529            
    1530            $C$DW$75        .dwtag  DW_TAG_subprogram
    1531                    .dwattr $C$DW$75, DW_AT_name("__fpclassifyl")
    1532                    .dwattr $C$DW$75, DW_AT_low_pc(__fpclassifyl)
    1533                    .dwattr $C$DW$75, DW_AT_high_pc(0x00)
    1534                    .dwattr $C$DW$75, DW_AT_TI_symbol_name("__fpclassifyl")
    1535                    .dwattr $C$DW$75, DW_AT_external
    1536                    .dwattr $C$DW$75, DW_AT_type(*$C$DW$T$10)
    1537                    .dwattr $C$DW$75, DW_AT_TI_begin_file("C:/ti/ccs1110/ccs/tools/compiler/ti-cgt-msp430_21.6.1.L
    1538                    .dwattr $C$DW$75, DW_AT_TI_begin_line(0x1ae)
    1539                    .dwattr $C$DW$75, DW_AT_TI_begin_column(0x25)
    1540                    .dwattr $C$DW$75, DW_AT_decl_file("C:/ti/ccs1110/ccs/tools/compiler/ti-cgt-msp430_21.6.1.LTS/i
    1541                    .dwattr $C$DW$75, DW_AT_decl_line(0x1ae)
    1542                    .dwattr $C$DW$75, DW_AT_decl_column(0x25)
    1543                    .dwattr $C$DW$75, DW_AT_TI_max_frame_size(0x20)
    1544                    .dwpsn  file "C:/ti/ccs1110/ccs/tools/compiler/ti-cgt-msp430_21.6.1.LTS/include/_defs.h",line 
    1545            
    1546                    .dwfde $C$DW$CIE, __fpclassifyl
    1547            $C$DW$76        .dwtag  DW_TAG_formal_parameter
    1548                    .dwattr $C$DW$76, DW_AT_name("e")
    1549                    .dwattr $C$DW$76, DW_AT_TI_symbol_name("e")
    1550                    .dwattr $C$DW$76, DW_AT_type(*$C$DW$T$18)
    1551                    .dwattr $C$DW$76, DW_AT_location[DW_OP_reg12 DW_OP_piece 2 DW_OP_reg13 DW_OP_piece 2 DW_OP_reg
    1552            
    1553            
    1554            ;*****************************************************************************
    1555            ;* FUNCTION NAME: __fpclassifyl                                              *
MSP430 Assembler PC v21.6.1 Tue Dec 20 13:59:30 2022

Copyright (c) 2003-2018 Texas Instruments Incorporated
Dallas.asm                                                           PAGE   30

    1556            ;*                                                                           *
    1557            ;*   Regs Modified     : SP,SR,r4,r5,r6,r7,r8,r9,r10,r11,r12,r13,r14,r15     *
    1558            ;*   Regs Used         : SP,SR,r4,r5,r6,r7,r8,r9,r10,r11,r12,r13,r14,r15     *
    1559            ;*   Local Frame Size  : 0 Args + 0 Auto + 28 Save = 28 byte                 *
    1560            ;*****************************************************************************
    1561 000000       __fpclassifyl:
    1562            ;* --------------------------------------------------------------------------*
    1563                    .dwcfi  cfa_offset, 4
    1564                    .dwcfi  save_reg_to_mem, 16, -4
    1565 000000 146A          PUSHM.A   #7,r10                ; [] 
    1566                    .dwcfi  save_reg_to_mem, 10, -8
    1567                    .dwcfi  save_reg_to_mem, 9, -12
    1568                    .dwcfi  save_reg_to_mem, 8, -16
    1569                    .dwcfi  save_reg_to_mem, 7, -20
    1570                    .dwcfi  save_reg_to_mem, 6, -24
    1571                    .dwcfi  save_reg_to_mem, 5, -28
    1572                    .dwcfi  save_reg_to_mem, 4, -32
    1573                    .dwcfi  cfa_offset, 32
    1574            ;* r4    assigned to e
    1575            $C$DW$77        .dwtag  DW_TAG_variable
    1576                    .dwattr $C$DW$77, DW_AT_name("e")
    1577                    .dwattr $C$DW$77, DW_AT_TI_symbol_name("e")
    1578                    .dwattr $C$DW$77, DW_AT_type(*$C$DW$T$18)
    1579                    .dwattr $C$DW$77, DW_AT_location[DW_OP_reg4 DW_OP_piece 2 DW_OP_reg5 DW_OP_piece 2 DW_OP_reg6 
    1580            
    1581 000002 0CC4          MOVA      r12,r4                ; [] |431| 
    1582 000004 0DC5          MOVA      r13,r5                ; [] |431| 
    1583 000006 0EC6          MOVA      r14,r6                ; [] |431| 
    1584 000008 0FC7          MOVA      r15,r7                ; [] |431| 
    1585                    .dwpsn  file "C:/ti/ccs1110/ccs/tools/compiler/ti-cgt-msp430_21.6.1.LTS/include/_defs.h",line 
    1586 00000a F03F          AND.W     #32752,r15            ; [] |436| 
         00000c 7FF0 
    1587 00000e 903F          CMP.W     #32752,r15            ; [] |436| 
         000010 7FF0 
    1588 000012 2011          JNE       $C$L25                ; [] |436| 
    1589                                                      ; [] |436| 
    1590            ;* --------------------------------------------------------------------------*
    1591 000014 F334          AND.W     #65535,r4             ; [] |436| 
    1592 000016 F335          AND.W     #65535,r5             ; [] |436| 
    1593 000018 F336          AND.W     #65535,r6             ; [] |436| 
    1594 00001a F037          AND.W     #15,r7                ; [] |436| 
         00001c 000F 
    1595 00001e 9307          TST.W     r7                    ; [] |436| 
    1596 000020 2006          JNE       $C$L23                ; [] |436| 
    1597                                                      ; [] |436| 
    1598            ;* --------------------------------------------------------------------------*
    1599 000022 9306          TST.W     r6                    ; [] |436| 
    1600 000024 2004          JNE       $C$L23                ; [] |436| 
    1601                                                      ; [] |436| 
    1602            ;* --------------------------------------------------------------------------*
    1603 000026 9305          TST.W     r5                    ; [] |436| 
    1604 000028 2002          JNE       $C$L23                ; [] |436| 
    1605                                                      ; [] |436| 
    1606            ;* --------------------------------------------------------------------------*
    1607 00002a 9304          TST.W     r4                    ; [] |436| 
MSP430 Assembler PC v21.6.1 Tue Dec 20 13:59:30 2022

Copyright (c) 2003-2018 Texas Instruments Incorporated
Dallas.asm                                                           PAGE   31

    1608 00002c 2402          JEQ       $C$L24                ; [] |436| 
    1609                                                      ; [] |436| 
    1610            ;* --------------------------------------------------------------------------*
    1611 00002e       $C$L23:    
    1612 00002e 432C          MOV.W     #2,r12                ; [] |436| 
    1613 000030 3C2A          JMP       $C$L30                ; [] |436| 
    1614                                                      ; [] |436| 
    1615            ;* --------------------------------------------------------------------------*
    1616 000032       $C$L24:    
    1617 000032 431C          MOV.W     #1,r12                ; [] |436| 
    1618 000034 3C28          JMP       $C$L30                ; [] |436| 
    1619                                                      ; [] |436| 
    1620            ;* --------------------------------------------------------------------------*
    1621 000036       $C$L25:    
    1622 000036 04C8          MOVA      r4,r8                 ; [] |436| 
    1623 000038 05C9          MOVA      r5,r9                 ; [] |436| 
    1624 00003a 06CA          MOVA      r6,r10                ; [] |436| 
    1625 00003c 07CB          MOVA      r7,r11                ; [] |436| 
    1626 00003e 403C          MOV.W     #52,r12               ; [] |436| 
         000040 0034 
    1627            $C$DW$78        .dwtag  DW_TAG_TI_branch
    1628                    .dwattr $C$DW$78, DW_AT_low_pc(0x00)
    1629                    .dwattr $C$DW$78, DW_AT_name("__mspabi_srlll")
    1630                    .dwattr $C$DW$78, DW_AT_TI_call
    1631            
    1632 000042 13B0!         CALLA     #__mspabi_srlll       ; [] |436| 
         000044 0000 
    1633                                                      ; [] |436| 
    1634 000046 F03C          AND.W     #2047,r12             ; [] |436| 
         000048 07FF 
    1635 00004a F30D          AND.W     #0,r13                ; [] |436| 
    1636 00004c F30E          AND.W     #0,r14                ; [] |436| 
    1637 00004e F30F          AND.W     #0,r15                ; [] |436| 
    1638 000050 930F          TST.W     r15                   ; [] |436| 
    1639 000052 2006          JNE       $C$L26                ; [] |436| 
    1640                                                      ; [] |436| 
    1641            ;* --------------------------------------------------------------------------*
    1642 000054 930E          TST.W     r14                   ; [] |436| 
    1643 000056 2004          JNE       $C$L26                ; [] |436| 
    1644                                                      ; [] |436| 
    1645            ;* --------------------------------------------------------------------------*
    1646 000058 930D          TST.W     r13                   ; [] |436| 
    1647 00005a 2002          JNE       $C$L26                ; [] |436| 
    1648                                                      ; [] |436| 
    1649            ;* --------------------------------------------------------------------------*
    1650 00005c 930C          TST.W     r12                   ; [] |436| 
    1651 00005e 2402          JEQ       $C$L27                ; [] |436| 
    1652                                                      ; [] |436| 
    1653            ;* --------------------------------------------------------------------------*
    1654 000060       $C$L26:    
    1655 000060 433C          MOV.W     #-1,r12               ; [] |436| 
    1656 000062 3C11          JMP       $C$L30                ; [] |436| 
    1657                                                      ; [] |436| 
    1658            ;* --------------------------------------------------------------------------*
    1659 000064       $C$L27:    
MSP430 Assembler PC v21.6.1 Tue Dec 20 13:59:30 2022

Copyright (c) 2003-2018 Texas Instruments Incorporated
Dallas.asm                                                           PAGE   32

    1660 000064 F334          AND.W     #65535,r4             ; [] |436| 
    1661 000066 F335          AND.W     #65535,r5             ; [] |436| 
    1662 000068 F336          AND.W     #65535,r6             ; [] |436| 
    1663 00006a F037          AND.W     #15,r7                ; [] |436| 
         00006c 000F 
    1664 00006e 9307          TST.W     r7                    ; [] |436| 
    1665 000070 2006          JNE       $C$L28                ; [] |436| 
    1666                                                      ; [] |436| 
    1667            ;* --------------------------------------------------------------------------*
    1668 000072 9306          TST.W     r6                    ; [] |436| 
    1669 000074 2004          JNE       $C$L28                ; [] |436| 
    1670                                                      ; [] |436| 
    1671            ;* --------------------------------------------------------------------------*
    1672 000076 9305          TST.W     r5                    ; [] |436| 
    1673 000078 2002          JNE       $C$L28                ; [] |436| 
    1674                                                      ; [] |436| 
    1675            ;* --------------------------------------------------------------------------*
    1676 00007a 9304          TST.W     r4                    ; [] |436| 
    1677 00007c 2403          JEQ       $C$L29                ; [] |436| 
    1678                                                      ; [] |436| 
    1679            ;* --------------------------------------------------------------------------*
    1680 00007e       $C$L28:    
    1681 00007e 403C          MOV.W     #65534,r12            ; [] |436| 
         000080 FFFE 
    1682 000082 3C01          JMP       $C$L30                ; [] |436| 
    1683                                                      ; [] |436| 
    1684            ;* --------------------------------------------------------------------------*
    1685 000084       $C$L29:    
    1686 000084 430C          MOV.W     #0,r12                ; [] |436| 
    1687            ;* --------------------------------------------------------------------------*
    1688 000086       $C$L30:    
    1689                    .dwpsn  file "C:/ti/ccs1110/ccs/tools/compiler/ti-cgt-msp430_21.6.1.LTS/include/_defs.h",line 
    1690 000086 1664          POPM.A    #7,r10                ; [] 
    1691                    .dwcfi  restore_reg, 4
    1692                    .dwcfi  restore_reg, 5
    1693                    .dwcfi  restore_reg, 6
    1694                    .dwcfi  restore_reg, 7
    1695                    .dwcfi  restore_reg, 8
    1696                    .dwcfi  restore_reg, 9
    1697                    .dwcfi  restore_reg, 10
    1698                    .dwcfi  cfa_offset, 4
    1699            $C$DW$79        .dwtag  DW_TAG_TI_branch
    1700                    .dwattr $C$DW$79, DW_AT_low_pc(0x00)
    1701                    .dwattr $C$DW$79, DW_AT_TI_return
    1702            
    1703 000088 0110          RETA      ; [] 
    1704                    ; [] 
    1705                    .dwattr $C$DW$75, DW_AT_TI_end_file("C:/ti/ccs1110/ccs/tools/compiler/ti-cgt-msp430_21.6.1.LTS
    1706                    .dwattr $C$DW$75, DW_AT_TI_end_line(0x1bd)
    1707                    .dwattr $C$DW$75, DW_AT_TI_end_column(0x01)
    1708                    .dwendentry
    1709                    .dwendtag $C$DW$75
    1710            
    1711 000000               .sect   ".text:__fpclassifyf"
    1712                    .clink
MSP430 Assembler PC v21.6.1 Tue Dec 20 13:59:30 2022

Copyright (c) 2003-2018 Texas Instruments Incorporated
Dallas.asm                                                           PAGE   33

    1713                    .global __fpclassifyf
    1714            
    1715            $C$DW$80        .dwtag  DW_TAG_subprogram
    1716                    .dwattr $C$DW$80, DW_AT_name("__fpclassifyf")
    1717                    .dwattr $C$DW$80, DW_AT_low_pc(__fpclassifyf)
    1718                    .dwattr $C$DW$80, DW_AT_high_pc(0x00)
    1719                    .dwattr $C$DW$80, DW_AT_TI_symbol_name("__fpclassifyf")
    1720                    .dwattr $C$DW$80, DW_AT_external
    1721                    .dwattr $C$DW$80, DW_AT_type(*$C$DW$T$10)
    1722                    .dwattr $C$DW$80, DW_AT_TI_begin_file("C:/ti/ccs1110/ccs/tools/compiler/ti-cgt-msp430_21.6.1.L
    1723                    .dwattr $C$DW$80, DW_AT_TI_begin_line(0x18c)
    1724                    .dwattr $C$DW$80, DW_AT_TI_begin_column(0x25)
    1725                    .dwattr $C$DW$80, DW_AT_decl_file("C:/ti/ccs1110/ccs/tools/compiler/ti-cgt-msp430_21.6.1.LTS/i
    1726                    .dwattr $C$DW$80, DW_AT_decl_line(0x18c)
    1727                    .dwattr $C$DW$80, DW_AT_decl_column(0x25)
    1728                    .dwattr $C$DW$80, DW_AT_TI_max_frame_size(0x04)
    1729                    .dwpsn  file "C:/ti/ccs1110/ccs/tools/compiler/ti-cgt-msp430_21.6.1.LTS/include/_defs.h",line 
    1730            
    1731                    .dwfde $C$DW$CIE, __fpclassifyf
    1732            $C$DW$81        .dwtag  DW_TAG_formal_parameter
    1733                    .dwattr $C$DW$81, DW_AT_name("f")
    1734                    .dwattr $C$DW$81, DW_AT_TI_symbol_name("f")
    1735                    .dwattr $C$DW$81, DW_AT_type(*$C$DW$T$16)
    1736                    .dwattr $C$DW$81, DW_AT_location[DW_OP_reg12 DW_OP_piece 2 DW_OP_reg13 DW_OP_piece 2]
    1737            
    1738            
    1739            ;*****************************************************************************
    1740            ;* FUNCTION NAME: __fpclassifyf                                              *
    1741            ;*                                                                           *
    1742            ;*   Regs Modified     : SP,SR,r12,r13,r15                                   *
    1743            ;*   Regs Used         : SP,SR,r12,r13,r15                                   *
    1744            ;*   Local Frame Size  : 0 Args + 0 Auto + 0 Save = 0 byte                   *
    1745            ;*****************************************************************************
    1746 000000       __fpclassifyf:
    1747            ;* --------------------------------------------------------------------------*
    1748                    .dwcfi  cfa_offset, 4
    1749                    .dwcfi  save_reg_to_mem, 16, -4
    1750                    .dwpsn  file "C:/ti/ccs1110/ccs/tools/compiler/ti-cgt-msp430_21.6.1.LTS/include/_defs.h",line 
    1751 000000 0DCF          MOVA      r13,r15               ; [] |402| 
    1752 000002 F03F          AND.W     #32640,r15            ; [] |402| 
         000004 7F80 
    1753 000006 903F          CMP.W     #32640,r15            ; [] |402| 
         000008 7F80 
    1754 00000a 200B          JNE       $C$L33                ; [] |402| 
    1755                                                      ; [] |402| 
    1756            ;* --------------------------------------------------------------------------*
    1757 00000c F33C          AND.W     #65535,r12            ; [] |402| 
    1758 00000e F03D          AND.W     #127,r13              ; [] |402| 
         000010 007F 
    1759 000012 930D          TST.W     r13                   ; [] |402| 
    1760 000014 2002          JNE       $C$L31                ; [] |402| 
    1761                                                      ; [] |402| 
    1762            ;* --------------------------------------------------------------------------*
    1763 000016 930C          TST.W     r12                   ; [] |402| 
    1764 000018 2402          JEQ       $C$L32                ; [] |402| 
MSP430 Assembler PC v21.6.1 Tue Dec 20 13:59:30 2022

Copyright (c) 2003-2018 Texas Instruments Incorporated
Dallas.asm                                                           PAGE   34

    1765                                                      ; [] |402| 
    1766            ;* --------------------------------------------------------------------------*
    1767 00001a       $C$L31:    
    1768 00001a 432C          MOV.W     #2,r12                ; [] |402| 
    1769 00001c 3C15          JMP       $C$L37                ; [] |402| 
    1770                                                      ; [] |402| 
    1771            ;* --------------------------------------------------------------------------*
    1772 00001e       $C$L32:    
    1773 00001e 431C          MOV.W     #1,r12                ; [] |402| 
    1774 000020 3C13          JMP       $C$L37                ; [] |402| 
    1775                                                      ; [] |402| 
    1776            ;* --------------------------------------------------------------------------*
    1777 000022       $C$L33:    
    1778 000022 0DCF          MOVA      r13,r15               ; [] |402| 
    1779 000024 1946          RPT #7 || RRUX.W r15 ; [] |402| 
         000026 100F 
    1780 000028 B03F          BIT.W     #255,r15              ; [] |402| 
         00002a 00FF 
    1781 00002c 2402          JEQ       $C$L34                ; [] |402| 
    1782                                                      ; [] |402| 
    1783            ;* --------------------------------------------------------------------------*
    1784 00002e 433C          MOV.W     #-1,r12               ; [] |402| 
    1785 000030 3C0B          JMP       $C$L37                ; [] |402| 
    1786                                                      ; [] |402| 
    1787            ;* --------------------------------------------------------------------------*
    1788 000032       $C$L34:    
    1789 000032 F33C          AND.W     #65535,r12            ; [] |402| 
    1790 000034 F03D          AND.W     #127,r13              ; [] |402| 
         000036 007F 
    1791 000038 930D          TST.W     r13                   ; [] |402| 
    1792 00003a 2002          JNE       $C$L35                ; [] |402| 
    1793                                                      ; [] |402| 
    1794            ;* --------------------------------------------------------------------------*
    1795 00003c 930C          TST.W     r12                   ; [] |402| 
    1796 00003e 2403          JEQ       $C$L36                ; [] |402| 
    1797                                                      ; [] |402| 
    1798            ;* --------------------------------------------------------------------------*
    1799 000040       $C$L35:    
    1800 000040 403C          MOV.W     #65534,r12            ; [] |402| 
         000042 FFFE 
    1801 000044 3C01          JMP       $C$L37                ; [] |402| 
    1802                                                      ; [] |402| 
    1803            ;* --------------------------------------------------------------------------*
    1804 000046       $C$L36:    
    1805 000046 430C          MOV.W     #0,r12                ; [] |402| 
    1806            ;* --------------------------------------------------------------------------*
    1807 000048       $C$L37:    
    1808                    .dwpsn  file "C:/ti/ccs1110/ccs/tools/compiler/ti-cgt-msp430_21.6.1.LTS/include/_defs.h",line 
    1809            $C$DW$82        .dwtag  DW_TAG_TI_branch
    1810                    .dwattr $C$DW$82, DW_AT_low_pc(0x00)
    1811                    .dwattr $C$DW$82, DW_AT_TI_return
    1812            
    1813 000048 0110          RETA      ; [] 
    1814                    ; [] 
    1815                    .dwattr $C$DW$80, DW_AT_TI_end_file("C:/ti/ccs1110/ccs/tools/compiler/ti-cgt-msp430_21.6.1.LTS
MSP430 Assembler PC v21.6.1 Tue Dec 20 13:59:30 2022

Copyright (c) 2003-2018 Texas Instruments Incorporated
Dallas.asm                                                           PAGE   35

    1816                    .dwattr $C$DW$80, DW_AT_TI_end_line(0x19b)
    1817                    .dwattr $C$DW$80, DW_AT_TI_end_column(0x01)
    1818                    .dwendentry
    1819                    .dwendtag $C$DW$80
    1820            
    1821 000000               .sect   ".text:__fpclassify"
    1822                    .clink
    1823                    .global __fpclassify
    1824            
    1825            $C$DW$83        .dwtag  DW_TAG_subprogram
    1826                    .dwattr $C$DW$83, DW_AT_name("__fpclassify")
    1827                    .dwattr $C$DW$83, DW_AT_low_pc(__fpclassify)
    1828                    .dwattr $C$DW$83, DW_AT_high_pc(0x00)
    1829                    .dwattr $C$DW$83, DW_AT_TI_symbol_name("__fpclassify")
    1830                    .dwattr $C$DW$83, DW_AT_external
    1831                    .dwattr $C$DW$83, DW_AT_type(*$C$DW$T$10)
    1832                    .dwattr $C$DW$83, DW_AT_TI_begin_file("C:/ti/ccs1110/ccs/tools/compiler/ti-cgt-msp430_21.6.1.L
    1833                    .dwattr $C$DW$83, DW_AT_TI_begin_line(0x19d)
    1834                    .dwattr $C$DW$83, DW_AT_TI_begin_column(0x25)
    1835                    .dwattr $C$DW$83, DW_AT_decl_file("C:/ti/ccs1110/ccs/tools/compiler/ti-cgt-msp430_21.6.1.LTS/i
    1836                    .dwattr $C$DW$83, DW_AT_decl_line(0x19d)
    1837                    .dwattr $C$DW$83, DW_AT_decl_column(0x25)
    1838                    .dwattr $C$DW$83, DW_AT_TI_max_frame_size(0x20)
    1839                    .dwpsn  file "C:/ti/ccs1110/ccs/tools/compiler/ti-cgt-msp430_21.6.1.LTS/include/_defs.h",line 
    1840            
    1841                    .dwfde $C$DW$CIE, __fpclassify
    1842            $C$DW$84        .dwtag  DW_TAG_formal_parameter
    1843                    .dwattr $C$DW$84, DW_AT_name("d")
    1844                    .dwattr $C$DW$84, DW_AT_TI_symbol_name("d")
    1845                    .dwattr $C$DW$84, DW_AT_type(*$C$DW$T$17)
    1846                    .dwattr $C$DW$84, DW_AT_location[DW_OP_reg12 DW_OP_piece 2 DW_OP_reg13 DW_OP_piece 2 DW_OP_reg
    1847            
    1848            
    1849            ;*****************************************************************************
    1850            ;* FUNCTION NAME: __fpclassify                                               *
    1851            ;*                                                                           *
    1852            ;*   Regs Modified     : SP,SR,r4,r5,r6,r7,r8,r9,r10,r11,r12,r13,r14,r15     *
    1853            ;*   Regs Used         : SP,SR,r4,r5,r6,r7,r8,r9,r10,r11,r12,r13,r14,r15     *
    1854            ;*   Local Frame Size  : 0 Args + 0 Auto + 28 Save = 28 byte                 *
    1855            ;*****************************************************************************
    1856 000000       __fpclassify:
    1857            ;* --------------------------------------------------------------------------*
    1858                    .dwcfi  cfa_offset, 4
    1859                    .dwcfi  save_reg_to_mem, 16, -4
    1860 000000 146A          PUSHM.A   #7,r10                ; [] 
    1861                    .dwcfi  save_reg_to_mem, 10, -8
    1862                    .dwcfi  save_reg_to_mem, 9, -12
    1863                    .dwcfi  save_reg_to_mem, 8, -16
    1864                    .dwcfi  save_reg_to_mem, 7, -20
    1865                    .dwcfi  save_reg_to_mem, 6, -24
    1866                    .dwcfi  save_reg_to_mem, 5, -28
    1867                    .dwcfi  save_reg_to_mem, 4, -32
    1868                    .dwcfi  cfa_offset, 32
    1869            ;* r4    assigned to d
    1870            $C$DW$85        .dwtag  DW_TAG_variable
MSP430 Assembler PC v21.6.1 Tue Dec 20 13:59:30 2022

Copyright (c) 2003-2018 Texas Instruments Incorporated
Dallas.asm                                                           PAGE   36

    1871                    .dwattr $C$DW$85, DW_AT_name("d")
    1872                    .dwattr $C$DW$85, DW_AT_TI_symbol_name("d")
    1873                    .dwattr $C$DW$85, DW_AT_type(*$C$DW$T$17)
    1874                    .dwattr $C$DW$85, DW_AT_location[DW_OP_reg4 DW_OP_piece 2 DW_OP_reg5 DW_OP_piece 2 DW_OP_reg6 
    1875            
    1876 000002 0CC4          MOVA      r12,r4                ; [] |414| 
    1877 000004 0DC5          MOVA      r13,r5                ; [] |414| 
    1878 000006 0EC6          MOVA      r14,r6                ; [] |414| 
    1879 000008 0FC7          MOVA      r15,r7                ; [] |414| 
    1880                    .dwpsn  file "C:/ti/ccs1110/ccs/tools/compiler/ti-cgt-msp430_21.6.1.LTS/include/_defs.h",line 
    1881 00000a F03F          AND.W     #32752,r15            ; [] |419| 
         00000c 7FF0 
    1882 00000e 903F          CMP.W     #32752,r15            ; [] |419| 
         000010 7FF0 
    1883 000012 2011          JNE       $C$L40                ; [] |419| 
    1884                                                      ; [] |419| 
    1885            ;* --------------------------------------------------------------------------*
    1886 000014 F334          AND.W     #65535,r4             ; [] |419| 
    1887 000016 F335          AND.W     #65535,r5             ; [] |419| 
    1888 000018 F336          AND.W     #65535,r6             ; [] |419| 
    1889 00001a F037          AND.W     #15,r7                ; [] |419| 
         00001c 000F 
    1890 00001e 9307          TST.W     r7                    ; [] |419| 
    1891 000020 2006          JNE       $C$L38                ; [] |419| 
    1892                                                      ; [] |419| 
    1893            ;* --------------------------------------------------------------------------*
    1894 000022 9306          TST.W     r6                    ; [] |419| 
    1895 000024 2004          JNE       $C$L38                ; [] |419| 
    1896                                                      ; [] |419| 
    1897            ;* --------------------------------------------------------------------------*
    1898 000026 9305          TST.W     r5                    ; [] |419| 
    1899 000028 2002          JNE       $C$L38                ; [] |419| 
    1900                                                      ; [] |419| 
    1901            ;* --------------------------------------------------------------------------*
    1902 00002a 9304          TST.W     r4                    ; [] |419| 
    1903 00002c 2402          JEQ       $C$L39                ; [] |419| 
    1904                                                      ; [] |419| 
    1905            ;* --------------------------------------------------------------------------*
    1906 00002e       $C$L38:    
    1907 00002e 432C          MOV.W     #2,r12                ; [] |419| 
    1908 000030 3C2A          JMP       $C$L45                ; [] |419| 
    1909                                                      ; [] |419| 
    1910            ;* --------------------------------------------------------------------------*
    1911 000032       $C$L39:    
    1912 000032 431C          MOV.W     #1,r12                ; [] |419| 
    1913 000034 3C28          JMP       $C$L45                ; [] |419| 
    1914                                                      ; [] |419| 
    1915            ;* --------------------------------------------------------------------------*
    1916 000036       $C$L40:    
    1917 000036 04C8          MOVA      r4,r8                 ; [] |419| 
    1918 000038 05C9          MOVA      r5,r9                 ; [] |419| 
    1919 00003a 06CA          MOVA      r6,r10                ; [] |419| 
    1920 00003c 07CB          MOVA      r7,r11                ; [] |419| 
    1921 00003e 403C          MOV.W     #52,r12               ; [] |419| 
         000040 0034 
MSP430 Assembler PC v21.6.1 Tue Dec 20 13:59:30 2022

Copyright (c) 2003-2018 Texas Instruments Incorporated
Dallas.asm                                                           PAGE   37

    1922            $C$DW$86        .dwtag  DW_TAG_TI_branch
    1923                    .dwattr $C$DW$86, DW_AT_low_pc(0x00)
    1924                    .dwattr $C$DW$86, DW_AT_name("__mspabi_srlll")
    1925                    .dwattr $C$DW$86, DW_AT_TI_call
    1926            
    1927 000042 13B0!         CALLA     #__mspabi_srlll       ; [] |419| 
         000044 0000 
    1928                                                      ; [] |419| 
    1929 000046 F03C          AND.W     #2047,r12             ; [] |419| 
         000048 07FF 
    1930 00004a F30D          AND.W     #0,r13                ; [] |419| 
    1931 00004c F30E          AND.W     #0,r14                ; [] |419| 
    1932 00004e F30F          AND.W     #0,r15                ; [] |419| 
    1933 000050 930F          TST.W     r15                   ; [] |419| 
    1934 000052 2006          JNE       $C$L41                ; [] |419| 
    1935                                                      ; [] |419| 
    1936            ;* --------------------------------------------------------------------------*
    1937 000054 930E          TST.W     r14                   ; [] |419| 
    1938 000056 2004          JNE       $C$L41                ; [] |419| 
    1939                                                      ; [] |419| 
    1940            ;* --------------------------------------------------------------------------*
    1941 000058 930D          TST.W     r13                   ; [] |419| 
    1942 00005a 2002          JNE       $C$L41                ; [] |419| 
    1943                                                      ; [] |419| 
    1944            ;* --------------------------------------------------------------------------*
    1945 00005c 930C          TST.W     r12                   ; [] |419| 
    1946 00005e 2402          JEQ       $C$L42                ; [] |419| 
    1947                                                      ; [] |419| 
    1948            ;* --------------------------------------------------------------------------*
    1949 000060       $C$L41:    
    1950 000060 433C          MOV.W     #-1,r12               ; [] |419| 
    1951 000062 3C11          JMP       $C$L45                ; [] |419| 
    1952                                                      ; [] |419| 
    1953            ;* --------------------------------------------------------------------------*
    1954 000064       $C$L42:    
    1955 000064 F334          AND.W     #65535,r4             ; [] |419| 
    1956 000066 F335          AND.W     #65535,r5             ; [] |419| 
    1957 000068 F336          AND.W     #65535,r6             ; [] |419| 
    1958 00006a F037          AND.W     #15,r7                ; [] |419| 
         00006c 000F 
    1959 00006e 9307          TST.W     r7                    ; [] |419| 
    1960 000070 2006          JNE       $C$L43                ; [] |419| 
    1961                                                      ; [] |419| 
    1962            ;* --------------------------------------------------------------------------*
    1963 000072 9306          TST.W     r6                    ; [] |419| 
    1964 000074 2004          JNE       $C$L43                ; [] |419| 
    1965                                                      ; [] |419| 
    1966            ;* --------------------------------------------------------------------------*
    1967 000076 9305          TST.W     r5                    ; [] |419| 
    1968 000078 2002          JNE       $C$L43                ; [] |419| 
    1969                                                      ; [] |419| 
    1970            ;* --------------------------------------------------------------------------*
    1971 00007a 9304          TST.W     r4                    ; [] |419| 
    1972 00007c 2403          JEQ       $C$L44                ; [] |419| 
    1973                                                      ; [] |419| 
MSP430 Assembler PC v21.6.1 Tue Dec 20 13:59:30 2022

Copyright (c) 2003-2018 Texas Instruments Incorporated
Dallas.asm                                                           PAGE   38

    1974            ;* --------------------------------------------------------------------------*
    1975 00007e       $C$L43:    
    1976 00007e 403C          MOV.W     #65534,r12            ; [] |419| 
         000080 FFFE 
    1977 000082 3C01          JMP       $C$L45                ; [] |419| 
    1978                                                      ; [] |419| 
    1979            ;* --------------------------------------------------------------------------*
    1980 000084       $C$L44:    
    1981 000084 430C          MOV.W     #0,r12                ; [] |419| 
    1982            ;* --------------------------------------------------------------------------*
    1983 000086       $C$L45:    
    1984                    .dwpsn  file "C:/ti/ccs1110/ccs/tools/compiler/ti-cgt-msp430_21.6.1.LTS/include/_defs.h",line 
    1985 000086 1664          POPM.A    #7,r10                ; [] 
    1986                    .dwcfi  restore_reg, 4
    1987                    .dwcfi  restore_reg, 5
    1988                    .dwcfi  restore_reg, 6
    1989                    .dwcfi  restore_reg, 7
    1990                    .dwcfi  restore_reg, 8
    1991                    .dwcfi  restore_reg, 9
    1992                    .dwcfi  restore_reg, 10
    1993                    .dwcfi  cfa_offset, 4
    1994            $C$DW$87        .dwtag  DW_TAG_TI_branch
    1995                    .dwattr $C$DW$87, DW_AT_low_pc(0x00)
    1996                    .dwattr $C$DW$87, DW_AT_TI_return
    1997            
    1998 000088 0110          RETA      ; [] 
    1999                    ; [] 
    2000                    .dwattr $C$DW$83, DW_AT_TI_end_file("C:/ti/ccs1110/ccs/tools/compiler/ti-cgt-msp430_21.6.1.LTS
    2001                    .dwattr $C$DW$83, DW_AT_TI_end_line(0x1ac)
    2002                    .dwattr $C$DW$83, DW_AT_TI_end_column(0x01)
    2003                    .dwendentry
    2004                    .dwendtag $C$DW$83
    2005            
    2006 000000               .sect   ".text:Dallas"
    2007                    .clink
    2008                    .global Dallas
    2009            
    2010            $C$DW$88        .dwtag  DW_TAG_subprogram
    2011                    .dwattr $C$DW$88, DW_AT_name("Dallas")
    2012                    .dwattr $C$DW$88, DW_AT_low_pc(Dallas)
    2013                    .dwattr $C$DW$88, DW_AT_high_pc(0x00)
    2014                    .dwattr $C$DW$88, DW_AT_TI_symbol_name("Dallas")
    2015                    .dwattr $C$DW$88, DW_AT_external
    2016                    .dwattr $C$DW$88, DW_AT_TI_begin_file("../src/Dallas.c")
    2017                    .dwattr $C$DW$88, DW_AT_TI_begin_line(0x44)
    2018                    .dwattr $C$DW$88, DW_AT_TI_begin_column(0x06)
    2019                    .dwattr $C$DW$88, DW_AT_decl_file("../src/Dallas.c")
    2020                    .dwattr $C$DW$88, DW_AT_decl_line(0x44)
    2021                    .dwattr $C$DW$88, DW_AT_decl_column(0x06)
    2022                    .dwattr $C$DW$88, DW_AT_TI_max_frame_size(0x10)
    2023                    .dwpsn  file "../src/Dallas.c",line 69,column 1,is_stmt,address Dallas,isa 0
    2024            
    2025                    .dwfde $C$DW$CIE, Dallas
    2026            
    2027            ;*****************************************************************************
MSP430 Assembler PC v21.6.1 Tue Dec 20 13:59:30 2022

Copyright (c) 2003-2018 Texas Instruments Incorporated
Dallas.asm                                                           PAGE   39

    2028            ;* FUNCTION NAME: Dallas                                                     *
    2029            ;*                                                                           *
    2030            ;*   Regs Modified     : SP,SR,r8,r9,r10,r11,r12,r13,r14,r15                 *
    2031            ;*   Regs Used         : SP,SR,r8,r9,r10,r11,r12,r13,r14,r15                 *
    2032            ;*   Local Frame Size  : 0 Args + 0 Auto + 12 Save = 12 byte                 *
    2033            ;*****************************************************************************
    2034 000000       Dallas:
    2035            ;* --------------------------------------------------------------------------*
    2036                    .dwcfi  cfa_offset, 4
    2037                    .dwcfi  save_reg_to_mem, 16, -4
    2038 000000 142A          PUSHM.A   #3,r10                ; [] 
    2039                    .dwcfi  save_reg_to_mem, 10, -8
    2040                    .dwcfi  save_reg_to_mem, 9, -12
    2041                    .dwcfi  save_reg_to_mem, 8, -16
    2042                    .dwcfi  cfa_offset, 16
    2043            ;* r10   assigned to y
    2044            $C$DW$89        .dwtag  DW_TAG_variable
    2045                    .dwattr $C$DW$89, DW_AT_name("y")
    2046                    .dwattr $C$DW$89, DW_AT_TI_symbol_name("y")
    2047                    .dwattr $C$DW$89, DW_AT_type(*$C$DW$T$10)
    2048                    .dwattr $C$DW$89, DW_AT_location[DW_OP_reg10]
    2049            
    2050                    .dwpsn  file "../src/Dallas.c",line 73,column 3,is_stmt,isa 0
    2051 000002 B3E2          BIT.B     #2,&PAIN_L+0          ; [] |73| 
         000004 0000!
    2052 000006 2008          JNE       $C$L47                ; [] |73| 
    2053                                                      ; [] |73| 
    2054            ;* --------------------------------------------------------------------------*
    2055                    .dwpsn  file "../src/Dallas.c",line 75,column 5,is_stmt,isa 0
    2056 000008 9392          CMP.W     #1,&CartReadDelay+0   ; [] |75| 
         00000a 0000!
    2057 00000c 3802          JL        $C$L46                ; [] |75| 
    2058                                                      ; [] |75| 
    2059            ;* --------------------------------------------------------------------------*
    2060                    .dwpsn  file "../src/Dallas.c",line 75,column 27,is_stmt,isa 0
    2061 00000e 8392          SUB.W     #1,&CartReadDelay+0   ; [] |75| 
         000010 0000!
    2062            ;* --------------------------------------------------------------------------*
    2063 000012       $C$L46:    
    2064                    .dwpsn  file "../src/Dallas.c",line 76,column 5,is_stmt,isa 0
    2065 000012 4382          MOV.W     #0,&IntermittentCart+0 ; [] |76| 
         000014 0000!
    2066 000016 3C19          JMP       $C$L50                ; [] 
    2067                                                      ; [] 
    2068            ;* --------------------------------------------------------------------------*
    2069 000018       $C$L47:    
    2070                    .dwpsn  file "../src/Dallas.c",line 80,column 5,is_stmt,isa 0
    2071 000018 40B2          MOV.W     #100,&CartReadDelay+0 ; [] |80| 
         00001a 0064 
         00001c 0000!
    2072                    .dwpsn  file "../src/Dallas.c",line 81,column 5,is_stmt,isa 0
    2073 00001e 93C2          TST.B     &Cartridge_Enable+0   ; [] |81| 
         000020 0000!
    2074 000022 2413          JEQ       $C$L50                ; [] |81| 
    2075                                                      ; [] |81| 
MSP430 Assembler PC v21.6.1 Tue Dec 20 13:59:30 2022

Copyright (c) 2003-2018 Texas Instruments Incorporated
Dallas.asm                                                           PAGE   40

    2076            ;* --------------------------------------------------------------------------*
    2077 000024 93C2          TST.B     &SwapCount+0          ; [] |81| 
         000026 0000!
    2078 000028 2010          JNE       $C$L50                ; [] |81| 
    2079                                                      ; [] |81| 
    2080            ;* --------------------------------------------------------------------------*
    2081 00002a 9392          CMP.W     #1,&mode+0            ; [] |81| 
         00002c 0000!
    2082 00002e 2403          JEQ       $C$L48                ; [] |81| 
    2083                                                      ; [] |81| 
    2084            ;* --------------------------------------------------------------------------*
    2085 000030 93A2          CMP.W     #2,&mode+0            ; [] |81| 
         000032 0000!
    2086 000034 200A          JNE       $C$L50                ; [] |81| 
    2087                                                      ; [] |81| 
    2088            ;* --------------------------------------------------------------------------*
    2089 000036       $C$L48:    
    2090                    .dwpsn  file "../src/Dallas.c",line 83,column 7,is_stmt,isa 0
    2091 000036 90B2          CMP.W     #1000,&IntermittentCart+0 ; [] |83| 
         000038 03E8 
         00003a 0000!
    2092 00003c 3804          JL        $C$L49                ; [] |83| 
    2093                                                      ; [] |83| 
    2094            ;* --------------------------------------------------------------------------*
    2095                    .dwpsn  file "../src/Dallas.c",line 84,column 12,is_stmt,isa 0
    2096 00003e 40B2          MOV.W     #1000,&IntermittentCart+0 ; [] |84| 
         000040 03E8 
         000042 0000!
    2097 000044 3C02          JMP       $C$L50                ; [] |84| 
    2098                                                      ; [] |84| 
    2099            ;* --------------------------------------------------------------------------*
    2100 000046       $C$L49:    
    2101                    .dwpsn  file "../src/Dallas.c",line 83,column 35,is_stmt,isa 0
    2102 000046 5392          ADD.W     #1,&IntermittentCart+0 ; [] |83| 
         000048 0000!
    2103            ;* --------------------------------------------------------------------------*
    2104 00004a       $C$L50:    
    2105                    .dwpsn  file "../src/Dallas.c",line 88,column 3,is_stmt,isa 0
    2106 00004a B3E2          BIT.B     #2,&PAIN_L+0          ; [] |88| 
         00004c 0000!
    2107 00004e 20EF          JNE       $C$L61                ; [] |88| 
    2108                                                      ; [] |88| 
    2109            ;* --------------------------------------------------------------------------*
    2110                    .dwpsn  file "../src/Dallas.c",line 90,column 5,is_stmt,isa 0
    2111 000050 4382          MOV.W     #0,&error_message+20  ; [] |90| 
         000052 0014!
    2112                    .dwpsn  file "../src/Dallas.c",line 91,column 5,is_stmt,isa 0
    2113 000054 4382          MOV.W     #0,&error_message+44  ; [] |91| 
         000056 002C!
    2114                    .dwpsn  file "../src/Dallas.c",line 94,column 5,is_stmt,isa 0
    2115 000058 93D2          CMP.B     #1,&cartread+0        ; [] |94| 
         00005a 0000!
    2116 00005c 2402          JEQ       $C$L51                ; [] |94| 
    2117                                                      ; [] |94| 
    2118            ;* --------------------------------------------------------------------------*
MSP430 Assembler PC v21.6.1 Tue Dec 20 13:59:30 2022

Copyright (c) 2003-2018 Texas Instruments Incorporated
Dallas.asm                                                           PAGE   41

    2119                    .dwpsn  file "../src/Dallas.c",line 96,column 7,is_stmt,isa 0
    2120            $C$DW$90        .dwtag  DW_TAG_TI_branch
    2121                    .dwattr $C$DW$90, DW_AT_low_pc(0x00)
    2122                    .dwattr $C$DW$90, DW_AT_name("CartCheck")
    2123                    .dwattr $C$DW$90, DW_AT_TI_call
    2124            
    2125 00005e 13B0!         CALLA     #CartCheck            ; [] |96| 
         000060 0000 
    2126                                                      ; [] |96| 
    2127            ;* --------------------------------------------------------------------------*
    2128 000062       $C$L51:    
    2129                    .dwpsn  file "../src/Dallas.c",line 98,column 5,is_stmt,isa 0
    2130 000062 93C2          TST.B     &cartread+0           ; [] |98| 
         000064 0000!
    2131 000066 201E          JNE       $C$L52                ; [] |98| 
    2132                                                      ; [] |98| 
    2133            ;* --------------------------------------------------------------------------*
    2134 000068 93D2          CMP.B     #1,&Cartridge_Enable+0 ; [] |98| 
         00006a 0000!
    2135 00006c 201B          JNE       $C$L52                ; [] |98| 
    2136                                                      ; [] |98| 
    2137            ;* --------------------------------------------------------------------------*
    2138 00006e 9382          TST.W     &CartReadDelay+0      ; [] |98| 
         000070 0000!
    2139 000072 2018          JNE       $C$L52                ; [] |98| 
    2140                                                      ; [] |98| 
    2141            ;* --------------------------------------------------------------------------*
    2142                    .dwpsn  file "../src/Dallas.c",line 100,column 7,is_stmt,isa 0
    2143 000074 93C2          TST.B     &SwapCount+0          ; [] |100| 
         000076 0000!
    2144 000078 202C          JNE       $C$L53                ; [] |100| 
    2145                                                      ; [] |100| 
    2146            ;* --------------------------------------------------------------------------*
    2147 00007a 90B2          CMP.W     #6,&mode+0            ; [] |100| 
         00007c 0006 
         00007e 0000!
    2148 000080 2428          JEQ       $C$L53                ; [] |100| 
    2149                                                      ; [] |100| 
    2150            ;* --------------------------------------------------------------------------*
    2151 000082 92B2          CMP.W     #8,&mode+0            ; [] |100| 
         000084 0000!
    2152 000086 2425          JEQ       $C$L53                ; [] |100| 
    2153                                                      ; [] |100| 
    2154            ;* --------------------------------------------------------------------------*
    2155 000088 90B2          CMP.W     #5,&mode+0            ; [] |100| 
         00008a 0005 
         00008c 0000!
    2156 00008e 2421          JEQ       $C$L53                ; [] |100| 
    2157                                                      ; [] |100| 
    2158            ;* --------------------------------------------------------------------------*
    2159 000090 90B2          CMP.W     #9,&mode+0            ; [] |100| 
         000092 0009 
         000094 0000!
    2160 000096 241D          JEQ       $C$L53                ; [] |100| 
    2161                                                      ; [] |100| 
MSP430 Assembler PC v21.6.1 Tue Dec 20 13:59:30 2022

Copyright (c) 2003-2018 Texas Instruments Incorporated
Dallas.asm                                                           PAGE   42

    2162            ;* --------------------------------------------------------------------------*
    2163                    .dwpsn  file "../src/Dallas.c",line 102,column 9,is_stmt,isa 0
    2164 000098 4392          MOV.W     #1,&error_message+22  ; [] |102| 
         00009a 0016!
    2165                    .dwpsn  file "../src/Dallas.c",line 103,column 9,is_stmt,isa 0
    2166 00009c 40B2          MOV.W     #7,&mode+0            ; [] |103| 
         00009e 0007 
         0000a0 0000!
    2167 0000a2 3C17          JMP       $C$L53                ; [] |103| 
    2168                                                      ; [] |103| 
    2169            ;* --------------------------------------------------------------------------*
    2170 0000a4       $C$L52:    
    2171                    .dwpsn  file "../src/Dallas.c",line 108,column 7,is_stmt,isa 0
    2172 0000a4 4382          MOV.W     #0,&error_message+22  ; [] |108| 
         0000a6 0016!
    2173                    .dwpsn  file "../src/Dallas.c",line 111,column 7,is_stmt,isa 0
    2174 0000a8 43C2          MOV.B     #0,&SwapCount+0       ; [] |111| 
         0000aa 0000!
    2175                    .dwpsn  file "../src/Dallas.c",line 112,column 7,is_stmt,isa 0
    2176 0000ac 90B2          CMP.W     #7,&mode+0            ; [] |112| 
         0000ae 0007 
         0000b0 0000!
    2177 0000b2 240F          JEQ       $C$L53                ; [] |112| 
    2178                                                      ; [] |112| 
    2179            ;* --------------------------------------------------------------------------*
    2180 0000b4 90B2          CMP.W     #6,&mode+0            ; [] |112| 
         0000b6 0006 
         0000b8 0000!
    2181 0000ba 240B          JEQ       $C$L53                ; [] |112| 
    2182                                                      ; [] |112| 
    2183            ;* --------------------------------------------------------------------------*
    2184 0000bc 90B2          CMP.W     #9,&mode+0            ; [] |112| 
         0000be 0009 
         0000c0 0000!
    2185 0000c2 2407          JEQ       $C$L53                ; [] |112| 
    2186                                                      ; [] |112| 
    2187            ;* --------------------------------------------------------------------------*
    2188 0000c4 93C2          TST.B     &SwapCount+0          ; [] |112| 
         0000c6 0000!
    2189 0000c8 2404          JEQ       $C$L53                ; [] |112| 
    2190                                                      ; [] |112| 
    2191            ;* --------------------------------------------------------------------------*
    2192                    .dwpsn  file "../src/Dallas.c",line 115,column 9,is_stmt,isa 0
    2193 0000ca 43C2          MOV.B     #0,&burner_flag+0     ; [] |115| 
         0000cc 0000!
    2194                    .dwpsn  file "../src/Dallas.c",line 116,column 9,is_stmt,isa 0
    2195 0000ce 4392          MOV.W     #1,&mode+0            ; [] |116| 
         0000d0 0000!
    2196            ;* --------------------------------------------------------------------------*
    2197 0000d2       $C$L53:    
    2198                    .dwpsn  file "../src/Dallas.c",line 121,column 5,is_stmt,isa 0
    2199 0000d2 93D2          CMP.B     #1,&fuel_gauge_decrement+0 ; [] |121| 
         0000d4 0000!
    2200 0000d6 2403          JEQ       $C$L54                ; [] |121| 
    2201                                                      ; [] |121| 
MSP430 Assembler PC v21.6.1 Tue Dec 20 13:59:30 2022

Copyright (c) 2003-2018 Texas Instruments Incorporated
Dallas.asm                                                           PAGE   43

    2202            ;* --------------------------------------------------------------------------*
    2203 0000d8 93C2          TST.B     &Reprogram_Cartridge+0 ; [] |121| 
         0000da 0000!
    2204 0000dc 2483          JEQ       $C$L60                ; [] |121| 
    2205                                                      ; [] |121| 
    2206            ;* --------------------------------------------------------------------------*
    2207 0000de       $C$L54:    
    2208                    .dwpsn  file "../src/Dallas.c",line 124,column 9,is_stmt,isa 0
    2209 0000de 93D2          CMP.B     #1,&datarev+0         ; [] |124| 
         0000e0 0000!
    2210 0000e2 2477          JEQ       $C$L57                ; [] |124| 
    2211                                                      ; [] |124| 
    2212            ;* --------------------------------------------------------------------------*
    2213                    .dwpsn  file "../src/Dallas.c",line 125,column 14,is_stmt,isa 0
    2214 0000e4 93E2          CMP.B     #2,&datarev+0         ; [] |125| 
         0000e6 0000!
    2215 0000e8 2076          JNE       $C$L58                ; [] |125| 
    2216                                                      ; [] |125| 
    2217            ;* --------------------------------------------------------------------------*
    2218                    .dwpsn  file "../src/Dallas.c",line 127,column 11,is_stmt,isa 0
    2219 0000ea 421C          MOV.W     &fuel_remaining+0,r12 ; [] |127| 
         0000ec 0000!
    2220 0000ee 421D          MOV.W     &fuel_remaining+2,r13 ; [] |127| 
         0000f0 0002!
    2221 0000f2 430E          MOV.W     #0,r14                ; [] |127| 
    2222 0000f4 403F          MOV.W     #16256,r15            ; [] |127| 
         0000f6 3F80 
    2223            $C$DW$91        .dwtag  DW_TAG_TI_branch
    2224                    .dwattr $C$DW$91, DW_AT_low_pc(0x00)
    2225                    .dwattr $C$DW$91, DW_AT_name("__mspabi_subf")
    2226                    .dwattr $C$DW$91, DW_AT_TI_call
    2227            
    2228 0000f8 13B0!         CALLA     #__mspabi_subf        ; [] |127| 
         0000fa 0000 
    2229                                                      ; [] |127| 
    2230 0000fc 4C82          MOV.W     r12,&fuel_remaining+0 ; [] |127| 
         0000fe 0000!
    2231 000100 4D82          MOV.W     r13,&fuel_remaining+2 ; [] |127| 
         000102 0002!
    2232                    .dwpsn  file "../src/Dallas.c",line 128,column 11,is_stmt,isa 0
    2233 000104 421C          MOV.W     &fuel_remaining+0,r12 ; [] |128| 
         000106 0000!
    2234 000108 430E          MOV.W     #0,r14                ; [] |128| 
    2235 00010a 430F          MOV.W     #0,r15                ; [] |128| 
    2236            $C$DW$92        .dwtag  DW_TAG_TI_branch
    2237                    .dwattr $C$DW$92, DW_AT_low_pc(0x00)
    2238                    .dwattr $C$DW$92, DW_AT_name("__mspabi_cmpf")
    2239                    .dwattr $C$DW$92, DW_AT_TI_call
    2240            
    2241 00010c 13B0!         CALLA     #__mspabi_cmpf        ; [] |128| 
         00010e 0000 
    2242                                                      ; [] |128| 
    2243 000110 930C          TST.W     r12                   ; [] |128| 
    2244 000112 3404          JGE       $C$L55                ; [] |128| 
    2245                                                      ; [] |128| 
MSP430 Assembler PC v21.6.1 Tue Dec 20 13:59:30 2022

Copyright (c) 2003-2018 Texas Instruments Incorporated
Dallas.asm                                                           PAGE   44

    2246            ;* --------------------------------------------------------------------------*
    2247                    .dwpsn  file "../src/Dallas.c",line 128,column 32,is_stmt,isa 0
    2248 000114 4382          MOV.W     #0,&fuel_remaining+0  ; [] |128| 
         000116 0000!
    2249 000118 4382          MOV.W     #0,&fuel_remaining+2  ; [] |128| 
         00011a 0002!
    2250            ;* --------------------------------------------------------------------------*
    2251 00011c       $C$L55:    
    2252                    .dwpsn  file "../src/Dallas.c",line 130,column 11,is_stmt,isa 0
    2253 00011c 93C2          TST.B     &Reprogram_Cartridge+0 ; [] |130| 
         00011e 0000!
    2254 000120 202C          JNE       $C$L56                ; [] |130| 
    2255                                                      ; [] |130| 
    2256            ;* --------------------------------------------------------------------------*
    2257                    .dwpsn  file "../src/Dallas.c",line 138,column 13,is_stmt,isa 0
    2258 000122 421C          MOV.W     &fuel_remaining+0,r12 ; [] |138| 
         000124 0000!
    2259 000126 421D          MOV.W     &fuel_remaining+2,r13 ; [] |138| 
         000128 0002!
    2260 00012a 430E          MOV.W     #0,r14                ; [] |138| 
    2261 00012c 403F          MOV.W     #15232,r15            ; [] |138| 
         00012e 3B80 
    2262            $C$DW$93        .dwtag  DW_TAG_TI_branch
    2263                    .dwattr $C$DW$93, DW_AT_low_pc(0x00)
    2264                    .dwattr $C$DW$93, DW_AT_name("__mspabi_mpyf")
    2265                    .dwattr $C$DW$93, DW_AT_TI_call
    2266            
    2267 000130 13B0!         CALLA     #__mspabi_mpyf        ; [] |138| 
         000132 0000 
    2268                                                      ; [] |138| 
    2269            $C$DW$94        .dwtag  DW_TAG_TI_branch
    2270                    .dwattr $C$DW$94, DW_AT_low_pc(0x00)
    2271                    .dwattr $C$DW$94, DW_AT_name("__mspabi_fixfi")
    2272                    .dwattr $C$DW$94, DW_AT_TI_call
    2273            
    2274 000134 13B0!         CALLA     #__mspabi_fixfi       ; [] |138| 
         000136 0000 
    2275                                                      ; [] |138| 
    2276 000138 0CCA          MOVA      r12,r10               ; [] |138| 
    2277                    .dwpsn  file "../src/Dallas.c",line 139,column 13,is_stmt,isa 0
    2278 00013a 4AC2          MOV.B     r10,&CartData+2       ; [] |139| 
         00013c 0002!
    2279                    .dwpsn  file "../src/Dallas.c",line 140,column 13,is_stmt,isa 0
    2280 00013e 421C          MOV.W     &fuel_remaining+0,r12 ; [] |140| 
         000140 0000!
    2281 000142 421D          MOV.W     &fuel_remaining+2,r13 ; [] |140| 
         000144 0002!
    2282 000146 430E          MOV.W     #0,r14                ; [] |140| 
    2283 000148 403F          MOV.W     #15232,r15            ; [] |140| 
         00014a 3B80 
    2284            $C$DW$95        .dwtag  DW_TAG_TI_branch
    2285                    .dwattr $C$DW$95, DW_AT_low_pc(0x00)
    2286                    .dwattr $C$DW$95, DW_AT_name("__mspabi_mpyf")
    2287                    .dwattr $C$DW$95, DW_AT_TI_call
    2288            
MSP430 Assembler PC v21.6.1 Tue Dec 20 13:59:30 2022

Copyright (c) 2003-2018 Texas Instruments Incorporated
Dallas.asm                                                           PAGE   45

    2289 00014c 13B0!         CALLA     #__mspabi_mpyf        ; [] |140| 
         00014e 0000 
    2290                                                      ; [] |140| 
    2291 000150 0CC8          MOVA      r12,r8                ; [] |140| 
    2292 000152 0DC9          MOVA      r13,r9                ; [] |140| 
    2293 000154 0ACC          MOVA      r10,r12               ; [] |140| 
    2294            $C$DW$96        .dwtag  DW_TAG_TI_branch
    2295                    .dwattr $C$DW$96, DW_AT_low_pc(0x00)
    2296                    .dwattr $C$DW$96, DW_AT_name("__mspabi_fltif")
    2297                    .dwattr $C$DW$96, DW_AT_TI_call
    2298            
    2299 000156 13B0!         CALLA     #__mspabi_fltif       ; [] |140| 
         000158 0000 
    2300                                                      ; [] |140| 
    2301 00015a 0CCE          MOVA      r12,r14               ; [] |140| 
    2302 00015c 0DCF          MOVA      r13,r15               ; [] |140| 
    2303 00015e 08CC          MOVA      r8,r12                ; [] |140| 
    2304 000160 09CD          MOVA      r9,r13                ; [] |140| 
    2305            $C$DW$97        .dwtag  DW_TAG_TI_branch
    2306                    .dwattr $C$DW$97, DW_AT_low_pc(0x00)
    2307                    .dwattr $C$DW$97, DW_AT_name("__mspabi_subf")
    2308                    .dwattr $C$DW$97, DW_AT_TI_call
    2309            
    2310 000162 13B0!         CALLA     #__mspabi_subf        ; [] |140| 
         000164 0000 
    2311                                                      ; [] |140| 
    2312 000166 430E          MOV.W     #0,r14                ; [] |140| 
    2313 000168 403F          MOV.W     #17280,r15            ; [] |140| 
         00016a 4380 
    2314            $C$DW$98        .dwtag  DW_TAG_TI_branch
    2315                    .dwattr $C$DW$98, DW_AT_low_pc(0x00)
    2316                    .dwattr $C$DW$98, DW_AT_name("__mspabi_mpyf")
    2317                    .dwattr $C$DW$98, DW_AT_TI_call
    2318            
    2319 00016c 13B0!         CALLA     #__mspabi_mpyf        ; [] |140| 
         00016e 0000 
    2320                                                      ; [] |140| 
    2321            $C$DW$99        .dwtag  DW_TAG_TI_branch
    2322                    .dwattr $C$DW$99, DW_AT_low_pc(0x00)
    2323                    .dwattr $C$DW$99, DW_AT_name("__mspabi_fixfi")
    2324                    .dwattr $C$DW$99, DW_AT_TI_call
    2325            
    2326 000170 13B0!         CALLA     #__mspabi_fixfi       ; [] |140| 
         000172 0000 
    2327                                                      ; [] |140| 
    2328 000174 4CC2          MOV.B     r12,&CartData+1       ; [] |140| 
         000176 0001!
    2329 000178 3C2E          JMP       $C$L58                ; [] |140| 
    2330                                                      ; [] |140| 
    2331            ;* --------------------------------------------------------------------------*
    2332 00017a       $C$L56:    
    2333                    .dwpsn  file "../src/Dallas.c",line 132,column 13,is_stmt,isa 0
    2334 00017a 421C          MOV.W     &fuel_full+0,r12      ; [] |132| 
         00017c 0000!
    2335 00017e 421D          MOV.W     &fuel_full+2,r13      ; [] |132| 
MSP430 Assembler PC v21.6.1 Tue Dec 20 13:59:30 2022

Copyright (c) 2003-2018 Texas Instruments Incorporated
Dallas.asm                                                           PAGE   46

         000180 0002!
    2336 000182 430E          MOV.W     #0,r14                ; [] |132| 
    2337 000184 403F          MOV.W     #15232,r15            ; [] |132| 
         000186 3B80 
    2338            $C$DW$100       .dwtag  DW_TAG_TI_branch
    2339                    .dwattr $C$DW$100, DW_AT_low_pc(0x00)
    2340                    .dwattr $C$DW$100, DW_AT_name("__mspabi_mpyf")
    2341                    .dwattr $C$DW$100, DW_AT_TI_call
    2342            
    2343 000188 13B0!         CALLA     #__mspabi_mpyf        ; [] |132| 
         00018a 0000 
    2344                                                      ; [] |132| 
    2345            $C$DW$101       .dwtag  DW_TAG_TI_branch
    2346                    .dwattr $C$DW$101, DW_AT_low_pc(0x00)
    2347                    .dwattr $C$DW$101, DW_AT_name("__mspabi_fixfi")
    2348                    .dwattr $C$DW$101, DW_AT_TI_call
    2349            
    2350 00018c 13B0!         CALLA     #__mspabi_fixfi       ; [] |132| 
         00018e 0000 
    2351                                                      ; [] |132| 
    2352 000190 0CCA          MOVA      r12,r10               ; [] |132| 
    2353                    .dwpsn  file "../src/Dallas.c",line 133,column 13,is_stmt,isa 0
    2354 000192 4AC2          MOV.B     r10,&CartData+2       ; [] |133| 
         000194 0002!
    2355                    .dwpsn  file "../src/Dallas.c",line 134,column 13,is_stmt,isa 0
    2356 000196 421C          MOV.W     &fuel_full+0,r12      ; [] |134| 
         000198 0000!
    2357 00019a 421D          MOV.W     &fuel_full+2,r13      ; [] |134| 
         00019c 0002!
    2358 00019e 430E          MOV.W     #0,r14                ; [] |134| 
    2359 0001a0 403F          MOV.W     #15232,r15            ; [] |134| 
         0001a2 3B80 
    2360            $C$DW$102       .dwtag  DW_TAG_TI_branch
    2361                    .dwattr $C$DW$102, DW_AT_low_pc(0x00)
    2362                    .dwattr $C$DW$102, DW_AT_name("__mspabi_mpyf")
    2363                    .dwattr $C$DW$102, DW_AT_TI_call
    2364            
    2365 0001a4 13B0!         CALLA     #__mspabi_mpyf        ; [] |134| 
         0001a6 0000 
    2366                                                      ; [] |134| 
    2367 0001a8 0CC8          MOVA      r12,r8                ; [] |134| 
    2368 0001aa 0DC9          MOVA      r13,r9                ; [] |134| 
    2369 0001ac 0ACC          MOVA      r10,r12               ; [] |134| 
    2370            $C$DW$103       .dwtag  DW_TAG_TI_branch
    2371                    .dwattr $C$DW$103, DW_AT_low_pc(0x00)
    2372                    .dwattr $C$DW$103, DW_AT_name("__mspabi_fltif")
    2373                    .dwattr $C$DW$103, DW_AT_TI_call
    2374            
    2375 0001ae 13B0!         CALLA     #__mspabi_fltif       ; [] |134| 
         0001b0 0000 
    2376                                                      ; [] |134| 
    2377 0001b2 0CCE          MOVA      r12,r14               ; [] |134| 
    2378 0001b4 0DCF          MOVA      r13,r15               ; [] |134| 
    2379 0001b6 08CC          MOVA      r8,r12                ; [] |134| 
    2380 0001b8 09CD          MOVA      r9,r13                ; [] |134| 
MSP430 Assembler PC v21.6.1 Tue Dec 20 13:59:30 2022

Copyright (c) 2003-2018 Texas Instruments Incorporated
Dallas.asm                                                           PAGE   47

    2381            $C$DW$104       .dwtag  DW_TAG_TI_branch
    2382                    .dwattr $C$DW$104, DW_AT_low_pc(0x00)
    2383                    .dwattr $C$DW$104, DW_AT_name("__mspabi_subf")
    2384                    .dwattr $C$DW$104, DW_AT_TI_call
    2385            
    2386 0001ba 13B0!         CALLA     #__mspabi_subf        ; [] |134| 
         0001bc 0000 
    2387                                                      ; [] |134| 
    2388 0001be 430E          MOV.W     #0,r14                ; [] |134| 
    2389 0001c0 403F          MOV.W     #17280,r15            ; [] |134| 
         0001c2 4380 
    2390            $C$DW$105       .dwtag  DW_TAG_TI_branch
    2391                    .dwattr $C$DW$105, DW_AT_low_pc(0x00)
    2392                    .dwattr $C$DW$105, DW_AT_name("__mspabi_mpyf")
    2393                    .dwattr $C$DW$105, DW_AT_TI_call
    2394            
    2395 0001c4 13B0!         CALLA     #__mspabi_mpyf        ; [] |134| 
         0001c6 0000 
    2396                                                      ; [] |134| 
    2397            $C$DW$106       .dwtag  DW_TAG_TI_branch
    2398                    .dwattr $C$DW$106, DW_AT_low_pc(0x00)
    2399                    .dwattr $C$DW$106, DW_AT_name("__mspabi_fixfi")
    2400                    .dwattr $C$DW$106, DW_AT_TI_call
    2401            
    2402 0001c8 13B0!         CALLA     #__mspabi_fixfi       ; [] |134| 
         0001ca 0000 
    2403                                                      ; [] |134| 
    2404 0001cc 4CC2          MOV.B     r12,&CartData+1       ; [] |134| 
         0001ce 0001!
    2405 0001d0 3C02          JMP       $C$L58                ; [] 
    2406                                                      ; [] 
    2407            ;* --------------------------------------------------------------------------*
    2408 0001d2       $C$L57:    
    2409                    .dwpsn  file "../src/Dallas.c",line 124,column 25,is_stmt,isa 0
    2410 0001d2 83D2          SUB.B     #1,&CartFuel+0        ; [] |124| 
         0001d4 0000!
    2411            ;* --------------------------------------------------------------------------*
    2412 0001d6       $C$L58:    
    2413                    .dwpsn  file "../src/Dallas.c",line 143,column 9,is_stmt,isa 0
    2414 0001d6 9382          TST.W     &CartReadDelay+0      ; [] |143| 
         0001d8 0000!
    2415 0001da 2002          JNE       $C$L59                ; [] |143| 
    2416                                                      ; [] |143| 
    2417            ;* --------------------------------------------------------------------------*
    2418                    .dwpsn  file "../src/Dallas.c",line 143,column 29,is_stmt,isa 0
    2419            $C$DW$107       .dwtag  DW_TAG_TI_branch
    2420                    .dwattr $C$DW$107, DW_AT_low_pc(0x00)
    2421                    .dwattr $C$DW$107, DW_AT_name("WritCart")
    2422                    .dwattr $C$DW$107, DW_AT_TI_call
    2423            
    2424 0001dc 13B0!         CALLA     #WritCart             ; [] |143| 
         0001de 0000 
    2425                                                      ; [] |143| 
    2426            ;* --------------------------------------------------------------------------*
    2427 0001e0       $C$L59:    
MSP430 Assembler PC v21.6.1 Tue Dec 20 13:59:30 2022

Copyright (c) 2003-2018 Texas Instruments Incorporated
Dallas.asm                                                           PAGE   48

    2428                    .dwpsn  file "../src/Dallas.c",line 145,column 7,is_stmt,isa 0
    2429 0001e0 43C2          MOV.B     #0,&fuel_gauge_decrement+0 ; [] |145| 
         0001e2 0000!
    2430            ;* --------------------------------------------------------------------------*
    2431 0001e4       $C$L60:    
    2432                    .dwpsn  file "../src/Dallas.c",line 149,column 5,is_stmt,isa 0
    2433 0001e4 430C          MOV.W     #0,r12                ; [] |149| 
    2434 0001e6 430D          MOV.W     #0,r13                ; [] |149| 
    2435 0001e8 421E          MOV.W     &fuel_remaining+0,r14 ; [] |149| 
         0001ea 0000!
    2436 0001ec 421F          MOV.W     &fuel_remaining+2,r15 ; [] |149| 
         0001ee 0002!
    2437            $C$DW$108       .dwtag  DW_TAG_TI_branch
    2438                    .dwattr $C$DW$108, DW_AT_low_pc(0x00)
    2439                    .dwattr $C$DW$108, DW_AT_name("__mspabi_cmpf")
    2440                    .dwattr $C$DW$108, DW_AT_TI_call
    2441            
    2442 0001f0 13B0!         CALLA     #__mspabi_cmpf        ; [] |149| 
         0001f2 0000 
    2443                                                      ; [] |149| 
    2444 0001f4 930C          TST.W     r12                   ; [] |149| 
    2445 0001f6 386B          JL        $C$L66                ; [] |149| 
    2446                                                      ; [] |149| 
    2447            ;* --------------------------------------------------------------------------*
    2448 0001f8 93D2          CMP.B     #1,&Cartridge_Enable+0 ; [] |149| 
         0001fa 0000!
    2449 0001fc 2068          JNE       $C$L66                ; [] |149| 
    2450                                                      ; [] |149| 
    2451            ;* --------------------------------------------------------------------------*
    2452 0001fe 9382          TST.W     &CartReadDelay+0      ; [] |149| 
         000200 0000!
    2453 000202 2065          JNE       $C$L66                ; [] |149| 
    2454                                                      ; [] |149| 
    2455            ;* --------------------------------------------------------------------------*
    2456                    .dwpsn  file "../src/Dallas.c",line 153,column 9,is_stmt,isa 0
    2457 000204 4392          MOV.W     #1,&error_message+24  ; [] |153| 
         000206 0018!
    2458                    .dwpsn  file "../src/Dallas.c",line 154,column 9,is_stmt,isa 0
    2459 000208 90B2          CMP.W     #6,&mode+0            ; [] |154| 
         00020a 0006 
         00020c 0000!
    2460 00020e 245F          JEQ       $C$L66                ; [] |154| 
    2461                                                      ; [] |154| 
    2462            ;* --------------------------------------------------------------------------*
    2463 000210 92B2          CMP.W     #8,&mode+0            ; [] |154| 
         000212 0000!
    2464 000214 245C          JEQ       $C$L66                ; [] |154| 
    2465                                                      ; [] |154| 
    2466            ;* --------------------------------------------------------------------------*
    2467 000216 90B2          CMP.W     #5,&mode+0            ; [] |154| 
         000218 0005 
         00021a 0000!
    2468 00021c 2458          JEQ       $C$L66                ; [] |154| 
    2469                                                      ; [] |154| 
    2470            ;* --------------------------------------------------------------------------*
MSP430 Assembler PC v21.6.1 Tue Dec 20 13:59:30 2022

Copyright (c) 2003-2018 Texas Instruments Incorporated
Dallas.asm                                                           PAGE   49

    2471 00021e 90B2          CMP.W     #9,&mode+0            ; [] |154| 
         000220 0009 
         000222 0000!
    2472 000224 2454          JEQ       $C$L66                ; [] |154| 
    2473                                                      ; [] |154| 
    2474            ;* --------------------------------------------------------------------------*
    2475                    .dwpsn  file "../src/Dallas.c",line 154,column 76,is_stmt,isa 0
    2476 000226 40B2          MOV.W     #7,&mode+0            ; [] |154| 
         000228 0007 
         00022a 0000!
    2477 00022c 3C50          JMP       $C$L66                ; [] |154| 
    2478                                                      ; [] |154| 
    2479            ;* --------------------------------------------------------------------------*
    2480 00022e       $C$L61:    
    2481                    .dwpsn  file "../src/Dallas.c",line 162,column 7,is_stmt,isa 0
    2482 00022e 93D2          CMP.B     #1,&cartread+0        ; [] |162| 
         000230 0000!
    2483 000232 2423          JEQ       $C$L62                ; [] |162| 
    2484                                                      ; [] |162| 
    2485            ;* --------------------------------------------------------------------------*
    2486 000234 90B2          CMP.W     #999,&IntermittentCart+0 ; [] |162| 
         000236 03E7 
         000238 0000!
    2487 00023a 241F          JEQ       $C$L62                ; [] |162| 
    2488                                                      ; [] |162| 
    2489            ;* --------------------------------------------------------------------------*
    2490                    .dwpsn  file "../src/Dallas.c",line 171,column 12,is_stmt,isa 0
    2491 00023c 93D2          CMP.B     #1,&Cartridge_Enable+0 ; [] |171| 
         00023e 0000!
    2492 000240 2033          JNE       $C$L64                ; [] |171| 
    2493                                                      ; [] |171| 
    2494            ;* --------------------------------------------------------------------------*
    2495 000242 93C2          TST.B     &SwapCount+0          ; [] |171| 
         000244 0000!
    2496 000246 2030          JNE       $C$L64                ; [] |171| 
    2497                                                      ; [] |171| 
    2498            ;* --------------------------------------------------------------------------*
    2499 000248 90B2          CMP.W     #6,&mode+0            ; [] |171| 
         00024a 0006 
         00024c 0000!
    2500 00024e 242C          JEQ       $C$L64                ; [] |171| 
    2501                                                      ; [] |171| 
    2502            ;* --------------------------------------------------------------------------*
    2503 000250 92B2          CMP.W     #8,&mode+0            ; [] |171| 
         000252 0000!
    2504 000254 2429          JEQ       $C$L64                ; [] |171| 
    2505                                                      ; [] |171| 
    2506            ;* --------------------------------------------------------------------------*
    2507 000256 90B2          CMP.W     #5,&mode+0            ; [] |171| 
         000258 0005 
         00025a 0000!
    2508 00025c 2425          JEQ       $C$L64                ; [] |171| 
    2509                                                      ; [] |171| 
    2510            ;* --------------------------------------------------------------------------*
    2511 00025e 90B2          CMP.W     #9,&mode+0            ; [] |171| 
MSP430 Assembler PC v21.6.1 Tue Dec 20 13:59:30 2022

Copyright (c) 2003-2018 Texas Instruments Incorporated
Dallas.asm                                                           PAGE   50

         000260 0009 
         000262 0000!
    2512 000264 2421          JEQ       $C$L64                ; [] |171| 
    2513                                                      ; [] |171| 
    2514            ;* --------------------------------------------------------------------------*
    2515 000266 90B2          CMP.W     #1000,&IntermittentCart+0 ; [] |171| 
         000268 03E8 
         00026a 0000!
    2516 00026c 201D          JNE       $C$L64                ; [] |171| 
    2517                                                      ; [] |171| 
    2518            ;* --------------------------------------------------------------------------*
    2519                    .dwpsn  file "../src/Dallas.c",line 175,column 11,is_stmt,isa 0
    2520 00026e 4392          MOV.W     #1,&error_message+20  ; [] |175| 
         000270 0014!
    2521                    .dwpsn  file "../src/Dallas.c",line 176,column 11,is_stmt,isa 0
    2522 000272 40B2          MOV.W     #7,&mode+0            ; [] |176| 
         000274 0007 
         000276 0000!
    2523 000278 3C17          JMP       $C$L64                ; [] |176| 
    2524                                                      ; [] |176| 
    2525            ;* --------------------------------------------------------------------------*
    2526 00027a       $C$L62:    
    2527                    .dwpsn  file "../src/Dallas.c",line 165,column 9,is_stmt,isa 0
    2528 00027a 93C2          TST.B     &Cartridge_Enable+0   ; [] |165| 
         00027c 0000!
    2529 00027e 2412          JEQ       $C$L63                ; [] |165| 
    2530                                                      ; [] |165| 
    2531            ;* --------------------------------------------------------------------------*
    2532 000280 93C2          TST.B     &SwapCount+0          ; [] |165| 
         000282 0000!
    2533 000284 200F          JNE       $C$L63                ; [] |165| 
    2534                                                      ; [] |165| 
    2535            ;* --------------------------------------------------------------------------*
    2536 000286 90B2          CMP.W     #6,&mode+0            ; [] |165| 
         000288 0006 
         00028a 0000!
    2537 00028c 240B          JEQ       $C$L63                ; [] |165| 
    2538                                                      ; [] |165| 
    2539            ;* --------------------------------------------------------------------------*
    2540 00028e 90B2          CMP.W     #9,&mode+0            ; [] |165| 
         000290 0009 
         000292 0000!
    2541 000294 2407          JEQ       $C$L63                ; [] |165| 
    2542                                                      ; [] |165| 
    2543            ;* --------------------------------------------------------------------------*
    2544 000296 90B2          CMP.W     #999,&IntermittentCart+0 ; [] |165| 
         000298 03E7 
         00029a 0000!
    2545 00029c 2003          JNE       $C$L63                ; [] |165| 
    2546                                                      ; [] |165| 
    2547            ;* --------------------------------------------------------------------------*
    2548                    .dwpsn  file "../src/Dallas.c",line 167,column 11,is_stmt,isa 0
    2549 00029e 40F2          MOV.B     #240,&SwapCount+0     ; [] |167| 
         0002a0 00F0 
         0002a2 0000!
MSP430 Assembler PC v21.6.1 Tue Dec 20 13:59:30 2022

Copyright (c) 2003-2018 Texas Instruments Incorporated
Dallas.asm                                                           PAGE   51

    2550            ;* --------------------------------------------------------------------------*
    2551 0002a4       $C$L63:    
    2552                    .dwpsn  file "../src/Dallas.c",line 169,column 9,is_stmt,isa 0
    2553 0002a4 4382          MOV.W     #0,&error_message+26  ; [] |169| 
         0002a6 001A!
    2554            ;* --------------------------------------------------------------------------*
    2555 0002a8       $C$L64:    
    2556                    .dwpsn  file "../src/Dallas.c",line 180,column 7,is_stmt,isa 0
    2557 0002a8 43C2          MOV.B     #0,&cartread+0        ; [] |180| 
         0002aa 0000!
    2558                    .dwpsn  file "../src/Dallas.c",line 182,column 5,is_stmt,isa 0
    2559 0002ac 43C2          MOV.B     #0,&modelno+0         ; [] |182| 
         0002ae 0000!
    2560                    .dwpsn  file "../src/Dallas.c",line 184,column 5,is_stmt,isa 0
    2561 0002b0 93D2          CMP.B     #1,&datarev+0         ; [] |184| 
         0002b2 0000!
    2562 0002b4 2002          JNE       $C$L65                ; [] |184| 
    2563                                                      ; [] |184| 
    2564            ;* --------------------------------------------------------------------------*
    2565                    .dwpsn  file "../src/Dallas.c",line 184,column 21,is_stmt,isa 0
    2566 0002b6 43C2          MOV.B     #0,&CartFuel+0        ; [] |184| 
         0002b8 0000!
    2567            ;* --------------------------------------------------------------------------*
    2568 0002ba       $C$L65:    
    2569                    .dwpsn  file "../src/Dallas.c",line 185,column 6,is_stmt,isa 0
    2570 0002ba 43C2          MOV.B     #0,&CartData+1        ; [] |185| 
         0002bc 0001!
    2571                    .dwpsn  file "../src/Dallas.c",line 187,column 6,is_stmt,isa 0
    2572 0002be 43C2          MOV.B     #0,&CartData+2        ; [] |187| 
         0002c0 0002!
    2573                    .dwpsn  file "../src/Dallas.c",line 188,column 5,is_stmt,isa 0
    2574 0002c2 4382          MOV.W     #0,&fuel_remaining+0  ; [] |188| 
         0002c4 0000!
    2575 0002c6 4382          MOV.W     #0,&fuel_remaining+2  ; [] |188| 
         0002c8 0002!
    2576                    .dwpsn  file "../src/Dallas.c",line 189,column 5,is_stmt,isa 0
    2577 0002ca 43C2          MOV.B     #0,&cartOK+0          ; [] |189| 
         0002cc 0000!
    2578            ;* --------------------------------------------------------------------------*
    2579 0002ce       $C$L66:    
    2580                    .dwpsn  file "../src/Dallas.c",line 195,column 3,is_stmt,isa 0
    2581 0002ce 90B2          CMP.W     #6,&mode+0            ; [] |195| 
         0002d0 0006 
         0002d2 0000!
    2582 0002d4 2404          JEQ       $C$L67                ; [] |195| 
    2583                                                      ; [] |195| 
    2584            ;* --------------------------------------------------------------------------*
    2585 0002d6 90B2          CMP.W     #9,&mode+0            ; [] |195| 
         0002d8 0009 
         0002da 0000!
    2586 0002dc 2002          JNE       $C$L68                ; [] |195| 
    2587                                                      ; [] |195| 
    2588            ;* --------------------------------------------------------------------------*
    2589 0002de       $C$L67:    
    2590                    .dwpsn  file "../src/Dallas.c",line 195,column 43,is_stmt,isa 0
MSP430 Assembler PC v21.6.1 Tue Dec 20 13:59:30 2022

Copyright (c) 2003-2018 Texas Instruments Incorporated
Dallas.asm                                                           PAGE   52

    2591 0002de 43C2          MOV.B     #0,&SwapCount+0       ; [] |195| 
         0002e0 0000!
    2592            ;* --------------------------------------------------------------------------*
    2593 0002e2       $C$L68:    
    2594                    .dwpsn  file "../src/Dallas.c",line 197,column 1,is_stmt,isa 0
    2595 0002e2 1628          POPM.A    #3,r10                ; [] 
    2596                    .dwcfi  restore_reg, 8
    2597                    .dwcfi  restore_reg, 9
    2598                    .dwcfi  restore_reg, 10
    2599                    .dwcfi  cfa_offset, 4
    2600            $C$DW$109       .dwtag  DW_TAG_TI_branch
    2601                    .dwattr $C$DW$109, DW_AT_low_pc(0x00)
    2602                    .dwattr $C$DW$109, DW_AT_TI_return
    2603            
    2604 0002e4 0110          RETA      ; [] 
    2605                    ; [] 
    2606                    .dwattr $C$DW$88, DW_AT_TI_end_file("../src/Dallas.c")
    2607                    .dwattr $C$DW$88, DW_AT_TI_end_line(0xc5)
    2608                    .dwattr $C$DW$88, DW_AT_TI_end_column(0x01)
    2609                    .dwendentry
    2610                    .dwendtag $C$DW$88
    2611            
    2612            ;*****************************************************************************
    2613            ;* UNDEFINED EXTERNAL REFERENCES                                             *
    2614            ;*****************************************************************************
    2615                    .global PAIN_L
    2616                    .global fuel_gauge_decrement
    2617                    .global modelno
    2618                    .global datarev
    2619                    .global CartData
    2620                    .global fuel_remaining
    2621                    .global cartread
    2622                    .global CartFuel
    2623                    .global cartOK
    2624                    .global Reprogram_Cartridge
    2625                    .global fuel_full
    2626                    .global burner_flag
    2627                    .global Cartridge_Enable
    2628                    .global CartCheck
    2629                    .global WritCart
    2630                    .global __mspabi_srlll
    2631                    .global __mspabi_subf
    2632                    .global __mspabi_cmpf
    2633                    .global __mspabi_mpyf
    2634                    .global __mspabi_fixfi
    2635                    .global __mspabi_fltif
    2636            ;*****************************************************************************
    2637            ;* SECTION GROUPS                                                            *
    2638            ;*****************************************************************************
    2639                    .group    "__fpclassify", 1
    2640                    .gmember  ".text:__fpclassify"
    2641                    .endgroup
    2642                    .group    "__fpclassifyf", 1
    2643                    .gmember  ".text:__fpclassifyf"
    2644                    .endgroup
MSP430 Assembler PC v21.6.1 Tue Dec 20 13:59:30 2022

Copyright (c) 2003-2018 Texas Instruments Incorporated
Dallas.asm                                                           PAGE   53

    2645                    .group    "__fpclassifyl", 1
    2646                    .gmember  ".text:__fpclassifyl"
    2647                    .endgroup
    2648                    .group    "__isfinite", 1
    2649                    .gmember  ".text:__isfinite"
    2650                    .endgroup
    2651                    .group    "__isfinitef", 1
    2652                    .gmember  ".text:__isfinitef"
    2653                    .endgroup
    2654                    .group    "__isfinitel", 1
    2655                    .gmember  ".text:__isfinitel"
    2656                    .endgroup
    2657                    .group    "__isinf", 1
    2658                    .gmember  ".text:__isinf"
    2659                    .endgroup
    2660                    .group    "__isinff", 1
    2661                    .gmember  ".text:__isinff"
    2662                    .endgroup
    2663                    .group    "__isinfl", 1
    2664                    .gmember  ".text:__isinfl"
    2665                    .endgroup
    2666                    .group    "__isnan", 1
    2667                    .gmember  ".text:__isnan"
    2668                    .endgroup
    2669                    .group    "__isnanf", 1
    2670                    .gmember  ".text:__isnanf"
    2671                    .endgroup
    2672                    .group    "__isnanl", 1
    2673                    .gmember  ".text:__isnanl"
    2674                    .endgroup
    2675                    .group    "__isnormal", 1
    2676                    .gmember  ".text:__isnormal"
    2677                    .endgroup
    2678                    .group    "__isnormalf", 1
    2679                    .gmember  ".text:__isnormalf"
    2680                    .endgroup
    2681                    .group    "__isnormall", 1
    2682                    .gmember  ".text:__isnormall"
    2683                    .endgroup
    2684                    .group    "__signbit", 1
    2685                    .gmember  ".text:__signbit"
    2686                    .endgroup
    2687                    .group    "__signbitf", 1
    2688                    .gmember  ".text:__signbitf"
    2689                    .endgroup
    2690                    .group    "__signbitl", 1
    2691                    .gmember  ".text:__signbitl"
    2692                    .endgroup
    2693            
    2694            
    2695            ;******************************************************************************
    2696            ;* BUILD ATTRIBUTES                                                           *
    2697            ;******************************************************************************
    2698                    .battr "TI", Tag_File, 1, Tag_LPM_INFO(1)
    2699                    .battr "TI", Tag_File, 1, Tag_PORTS_INIT_INFO("012345678901ABCDEFGHIJ0000000000001111110000000
MSP430 Assembler PC v21.6.1 Tue Dec 20 13:59:30 2022

Copyright (c) 2003-2018 Texas Instruments Incorporated
Dallas.asm                                                           PAGE   54

    2700                    .battr "TI", Tag_File, 1, Tag_LEA_INFO(1)
    2701                    .battr "TI", Tag_File, 1, Tag_HW_MPY32_INFO(2)
    2702                    .battr "TI", Tag_File, 1, Tag_HW_MPY_ISR_INFO(1)
    2703                    .battr "TI", Tag_File, 1, Tag_HW_MPY_INLINE_INFO(1)
    2704                    .battr "mspabi", Tag_File, 1, Tag_enum_size(2)
    2705            
    2706            ;******************************************************************************
    2707            ;* TYPE INFORMATION                                                           *
    2708            ;******************************************************************************
    2709            
    2710            $C$DW$T$53      .dwtag  DW_TAG_enumeration_type
    2711                    .dwattr $C$DW$T$53, DW_AT_byte_size(0x02)
    2712            $C$DW$110       .dwtag  DW_TAG_enumerator
    2713                    .dwattr $C$DW$110, DW_AT_name("WarmUp")
    2714                    .dwattr $C$DW$110, DW_AT_const_value(0x00)
    2715                    .dwattr $C$DW$110, DW_AT_decl_file("C:/Users/MCourson/workspace_v11/MZERO_HB50Board/include/Ma
    2716                    .dwattr $C$DW$110, DW_AT_decl_line(0x59)
    2717                    .dwattr $C$DW$110, DW_AT_decl_column(0x05)
    2718            
    2719            $C$DW$111       .dwtag  DW_TAG_enumerator
    2720                    .dwattr $C$DW$111, DW_AT_name("Startup")
    2721                    .dwattr $C$DW$111, DW_AT_const_value(0x01)
    2722                    .dwattr $C$DW$111, DW_AT_decl_file("C:/Users/MCourson/workspace_v11/MZERO_HB50Board/include/Ma
    2723                    .dwattr $C$DW$111, DW_AT_decl_line(0x5a)
    2724                    .dwattr $C$DW$111, DW_AT_decl_column(0x05)
    2725            
    2726            $C$DW$112       .dwtag  DW_TAG_enumerator
    2727                    .dwattr $C$DW$112, DW_AT_name("Normal_Run")
    2728                    .dwattr $C$DW$112, DW_AT_const_value(0x02)
    2729                    .dwattr $C$DW$112, DW_AT_decl_file("C:/Users/MCourson/workspace_v11/MZERO_HB50Board/include/Ma
    2730                    .dwattr $C$DW$112, DW_AT_decl_line(0x5b)
    2731                    .dwattr $C$DW$112, DW_AT_decl_column(0x05)
    2732            
    2733            $C$DW$113       .dwtag  DW_TAG_enumerator
    2734                    .dwattr $C$DW$113, DW_AT_name("Standby")
    2735                    .dwattr $C$DW$113, DW_AT_const_value(0x03)
    2736                    .dwattr $C$DW$113, DW_AT_decl_file("C:/Users/MCourson/workspace_v11/MZERO_HB50Board/include/Ma
    2737                    .dwattr $C$DW$113, DW_AT_decl_line(0x5c)
    2738                    .dwattr $C$DW$113, DW_AT_decl_column(0x05)
    2739            
    2740            $C$DW$114       .dwtag  DW_TAG_enumerator
    2741                    .dwattr $C$DW$114, DW_AT_name("ShutDown")
    2742                    .dwattr $C$DW$114, DW_AT_const_value(0x04)
    2743                    .dwattr $C$DW$114, DW_AT_decl_file("C:/Users/MCourson/workspace_v11/MZERO_HB50Board/include/Ma
    2744                    .dwattr $C$DW$114, DW_AT_decl_line(0x5d)
    2745                    .dwattr $C$DW$114, DW_AT_decl_column(0x05)
    2746            
    2747            $C$DW$115       .dwtag  DW_TAG_enumerator
    2748                    .dwattr $C$DW$115, DW_AT_name("Self_Test")
    2749                    .dwattr $C$DW$115, DW_AT_const_value(0x05)
    2750                    .dwattr $C$DW$115, DW_AT_decl_file("C:/Users/MCourson/workspace_v11/MZERO_HB50Board/include/Ma
    2751                    .dwattr $C$DW$115, DW_AT_decl_line(0x5e)
    2752                    .dwattr $C$DW$115, DW_AT_decl_column(0x05)
    2753            
    2754            $C$DW$116       .dwtag  DW_TAG_enumerator
MSP430 Assembler PC v21.6.1 Tue Dec 20 13:59:30 2022

Copyright (c) 2003-2018 Texas Instruments Incorporated
Dallas.asm                                                           PAGE   55

    2755                    .dwattr $C$DW$116, DW_AT_name("Sleep")
    2756                    .dwattr $C$DW$116, DW_AT_const_value(0x06)
    2757                    .dwattr $C$DW$116, DW_AT_decl_file("C:/Users/MCourson/workspace_v11/MZERO_HB50Board/include/Ma
    2758                    .dwattr $C$DW$116, DW_AT_decl_line(0x5f)
    2759                    .dwattr $C$DW$116, DW_AT_decl_column(0x05)
    2760            
    2761            $C$DW$117       .dwtag  DW_TAG_enumerator
    2762                    .dwattr $C$DW$117, DW_AT_name("Fault")
    2763                    .dwattr $C$DW$117, DW_AT_const_value(0x07)
    2764                    .dwattr $C$DW$117, DW_AT_decl_file("C:/Users/MCourson/workspace_v11/MZERO_HB50Board/include/Ma
    2765                    .dwattr $C$DW$117, DW_AT_decl_line(0x60)
    2766                    .dwattr $C$DW$117, DW_AT_decl_column(0x05)
    2767            
    2768            $C$DW$118       .dwtag  DW_TAG_enumerator
    2769                    .dwattr $C$DW$118, DW_AT_name("Wait")
    2770                    .dwattr $C$DW$118, DW_AT_const_value(0x08)
    2771                    .dwattr $C$DW$118, DW_AT_decl_file("C:/Users/MCourson/workspace_v11/MZERO_HB50Board/include/Ma
    2772                    .dwattr $C$DW$118, DW_AT_decl_line(0x61)
    2773                    .dwattr $C$DW$118, DW_AT_decl_column(0x05)
    2774            
    2775            $C$DW$119       .dwtag  DW_TAG_enumerator
    2776                    .dwattr $C$DW$119, DW_AT_name("Cool_down")
    2777                    .dwattr $C$DW$119, DW_AT_const_value(0x09)
    2778                    .dwattr $C$DW$119, DW_AT_decl_file("C:/Users/MCourson/workspace_v11/MZERO_HB50Board/include/Ma
    2779                    .dwattr $C$DW$119, DW_AT_decl_line(0x62)
    2780                    .dwattr $C$DW$119, DW_AT_decl_column(0x05)
    2781            
    2782                    .dwattr $C$DW$T$53, DW_AT_decl_file("C:/Users/MCourson/workspace_v11/MZERO_HB50Board/include/M
    2783                    .dwattr $C$DW$T$53, DW_AT_decl_line(0x58)
    2784                    .dwattr $C$DW$T$53, DW_AT_decl_column(0x0e)
    2785                    .dwendtag $C$DW$T$53
    2786            
    2787            $C$DW$T$54      .dwtag  DW_TAG_typedef
    2788                    .dwattr $C$DW$T$54, DW_AT_name("State")
    2789                    .dwattr $C$DW$T$54, DW_AT_type(*$C$DW$T$53)
    2790                    .dwattr $C$DW$T$54, DW_AT_language(DW_LANG_C)
    2791                    .dwattr $C$DW$T$54, DW_AT_decl_file("C:/Users/MCourson/workspace_v11/MZERO_HB50Board/include/M
    2792                    .dwattr $C$DW$T$54, DW_AT_decl_line(0x63)
    2793                    .dwattr $C$DW$T$54, DW_AT_decl_column(0x03)
    2794            
    2795            
    2796            $C$DW$T$55      .dwtag  DW_TAG_enumeration_type
    2797                    .dwattr $C$DW$T$55, DW_AT_byte_size(0x02)
    2798            $C$DW$120       .dwtag  DW_TAG_enumerator
    2799                    .dwattr $C$DW$120, DW_AT_name("COLD")
    2800                    .dwattr $C$DW$120, DW_AT_const_value(0x00)
    2801                    .dwattr $C$DW$120, DW_AT_decl_file("C:/Users/MCourson/workspace_v11/MZERO_HB50Board/include/Ma
    2802                    .dwattr $C$DW$120, DW_AT_decl_line(0x68)
    2803                    .dwattr $C$DW$120, DW_AT_decl_column(0x05)
    2804            
    2805            $C$DW$121       .dwtag  DW_TAG_enumerator
    2806                    .dwattr $C$DW$121, DW_AT_name("WARM")
    2807                    .dwattr $C$DW$121, DW_AT_const_value(0x01)
    2808                    .dwattr $C$DW$121, DW_AT_decl_file("C:/Users/MCourson/workspace_v11/MZERO_HB50Board/include/Ma
    2809                    .dwattr $C$DW$121, DW_AT_decl_line(0x69)
MSP430 Assembler PC v21.6.1 Tue Dec 20 13:59:30 2022

Copyright (c) 2003-2018 Texas Instruments Incorporated
Dallas.asm                                                           PAGE   56

    2810                    .dwattr $C$DW$121, DW_AT_decl_column(0x05)
    2811            
    2812            $C$DW$122       .dwtag  DW_TAG_enumerator
    2813                    .dwattr $C$DW$122, DW_AT_name("OPERATIONAL")
    2814                    .dwattr $C$DW$122, DW_AT_const_value(0x02)
    2815                    .dwattr $C$DW$122, DW_AT_decl_file("C:/Users/MCourson/workspace_v11/MZERO_HB50Board/include/Ma
    2816                    .dwattr $C$DW$122, DW_AT_decl_line(0x6a)
    2817                    .dwattr $C$DW$122, DW_AT_decl_column(0x05)
    2818            
    2819                    .dwattr $C$DW$T$55, DW_AT_decl_file("C:/Users/MCourson/workspace_v11/MZERO_HB50Board/include/M
    2820                    .dwattr $C$DW$T$55, DW_AT_decl_line(0x67)
    2821                    .dwattr $C$DW$T$55, DW_AT_decl_column(0x0e)
    2822                    .dwendtag $C$DW$T$55
    2823            
    2824            $C$DW$T$56      .dwtag  DW_TAG_typedef
    2825                    .dwattr $C$DW$T$56, DW_AT_name("SetState")
    2826                    .dwattr $C$DW$T$56, DW_AT_type(*$C$DW$T$55)
    2827                    .dwattr $C$DW$T$56, DW_AT_language(DW_LANG_C)
    2828                    .dwattr $C$DW$T$56, DW_AT_decl_file("C:/Users/MCourson/workspace_v11/MZERO_HB50Board/include/M
    2829                    .dwattr $C$DW$T$56, DW_AT_decl_line(0x6b)
    2830                    .dwattr $C$DW$T$56, DW_AT_decl_column(0x03)
    2831            
    2832            
    2833            $C$DW$T$57      .dwtag  DW_TAG_enumeration_type
    2834                    .dwattr $C$DW$T$57, DW_AT_byte_size(0x02)
    2835            $C$DW$123       .dwtag  DW_TAG_enumerator
    2836                    .dwattr $C$DW$123, DW_AT_name("none")
    2837                    .dwattr $C$DW$123, DW_AT_const_value(0x00)
    2838                    .dwattr $C$DW$123, DW_AT_decl_file("C:/Users/MCourson/workspace_v11/MZERO_HB50Board/include/Ma
    2839                    .dwattr $C$DW$123, DW_AT_decl_line(0x70)
    2840                    .dwattr $C$DW$123, DW_AT_decl_column(0x05)
    2841            
    2842            $C$DW$124       .dwtag  DW_TAG_enumerator
    2843                    .dwattr $C$DW$124, DW_AT_name("size")
    2844                    .dwattr $C$DW$124, DW_AT_const_value(0x01)
    2845                    .dwattr $C$DW$124, DW_AT_decl_file("C:/Users/MCourson/workspace_v11/MZERO_HB50Board/include/Ma
    2846                    .dwattr $C$DW$124, DW_AT_decl_line(0x71)
    2847                    .dwattr $C$DW$124, DW_AT_decl_column(0x05)
    2848            
    2849            $C$DW$125       .dwtag  DW_TAG_enumerator
    2850                    .dwattr $C$DW$125, DW_AT_name("cmnd")
    2851                    .dwattr $C$DW$125, DW_AT_const_value(0x02)
    2852                    .dwattr $C$DW$125, DW_AT_decl_file("C:/Users/MCourson/workspace_v11/MZERO_HB50Board/include/Ma
    2853                    .dwattr $C$DW$125, DW_AT_decl_line(0x72)
    2854                    .dwattr $C$DW$125, DW_AT_decl_column(0x05)
    2855            
    2856            $C$DW$126       .dwtag  DW_TAG_enumerator
    2857                    .dwattr $C$DW$126, DW_AT_name("dataln")
    2858                    .dwattr $C$DW$126, DW_AT_const_value(0x03)
    2859                    .dwattr $C$DW$126, DW_AT_decl_file("C:/Users/MCourson/workspace_v11/MZERO_HB50Board/include/Ma
    2860                    .dwattr $C$DW$126, DW_AT_decl_line(0x73)
    2861                    .dwattr $C$DW$126, DW_AT_decl_column(0x05)
    2862            
    2863            $C$DW$127       .dwtag  DW_TAG_enumerator
    2864                    .dwattr $C$DW$127, DW_AT_name("chksum")
MSP430 Assembler PC v21.6.1 Tue Dec 20 13:59:30 2022

Copyright (c) 2003-2018 Texas Instruments Incorporated
Dallas.asm                                                           PAGE   57

    2865                    .dwattr $C$DW$127, DW_AT_const_value(0x04)
    2866                    .dwattr $C$DW$127, DW_AT_decl_file("C:/Users/MCourson/workspace_v11/MZERO_HB50Board/include/Ma
    2867                    .dwattr $C$DW$127, DW_AT_decl_line(0x74)
    2868                    .dwattr $C$DW$127, DW_AT_decl_column(0x05)
    2869            
    2870            $C$DW$128       .dwtag  DW_TAG_enumerator
    2871                    .dwattr $C$DW$128, DW_AT_name("crc1")
    2872                    .dwattr $C$DW$128, DW_AT_const_value(0x05)
    2873                    .dwattr $C$DW$128, DW_AT_decl_file("C:/Users/MCourson/workspace_v11/MZERO_HB50Board/include/Ma
    2874                    .dwattr $C$DW$128, DW_AT_decl_line(0x75)
    2875                    .dwattr $C$DW$128, DW_AT_decl_column(0x05)
    2876            
    2877            $C$DW$129       .dwtag  DW_TAG_enumerator
    2878                    .dwattr $C$DW$129, DW_AT_name("crc2")
    2879                    .dwattr $C$DW$129, DW_AT_const_value(0x06)
    2880                    .dwattr $C$DW$129, DW_AT_decl_file("C:/Users/MCourson/workspace_v11/MZERO_HB50Board/include/Ma
    2881                    .dwattr $C$DW$129, DW_AT_decl_line(0x76)
    2882                    .dwattr $C$DW$129, DW_AT_decl_column(0x05)
    2883            
    2884            $C$DW$130       .dwtag  DW_TAG_enumerator
    2885                    .dwattr $C$DW$130, DW_AT_name("ack")
    2886                    .dwattr $C$DW$130, DW_AT_const_value(0x07)
    2887                    .dwattr $C$DW$130, DW_AT_decl_file("C:/Users/MCourson/workspace_v11/MZERO_HB50Board/include/Ma
    2888                    .dwattr $C$DW$130, DW_AT_decl_line(0x77)
    2889                    .dwattr $C$DW$130, DW_AT_decl_column(0x05)
    2890            
    2891            $C$DW$131       .dwtag  DW_TAG_enumerator
    2892                    .dwattr $C$DW$131, DW_AT_name("var")
    2893                    .dwattr $C$DW$131, DW_AT_const_value(0x08)
    2894                    .dwattr $C$DW$131, DW_AT_decl_file("C:/Users/MCourson/workspace_v11/MZERO_HB50Board/include/Ma
    2895                    .dwattr $C$DW$131, DW_AT_decl_line(0x78)
    2896                    .dwattr $C$DW$131, DW_AT_decl_column(0x05)
    2897            
    2898            $C$DW$132       .dwtag  DW_TAG_enumerator
    2899                    .dwattr $C$DW$132, DW_AT_name("UGmsg")
    2900                    .dwattr $C$DW$132, DW_AT_const_value(0x09)
    2901                    .dwattr $C$DW$132, DW_AT_decl_file("C:/Users/MCourson/workspace_v11/MZERO_HB50Board/include/Ma
    2902                    .dwattr $C$DW$132, DW_AT_decl_line(0x79)
    2903                    .dwattr $C$DW$132, DW_AT_decl_column(0x05)
    2904            
    2905                    .dwattr $C$DW$T$57, DW_AT_decl_file("C:/Users/MCourson/workspace_v11/MZERO_HB50Board/include/M
    2906                    .dwattr $C$DW$T$57, DW_AT_decl_line(0x6f)
    2907                    .dwattr $C$DW$T$57, DW_AT_decl_column(0x0e)
    2908                    .dwendtag $C$DW$T$57
    2909            
    2910            $C$DW$T$58      .dwtag  DW_TAG_typedef
    2911                    .dwattr $C$DW$T$58, DW_AT_name("MessageFields")
    2912                    .dwattr $C$DW$T$58, DW_AT_type(*$C$DW$T$57)
    2913                    .dwattr $C$DW$T$58, DW_AT_language(DW_LANG_C)
    2914                    .dwattr $C$DW$T$58, DW_AT_decl_file("C:/Users/MCourson/workspace_v11/MZERO_HB50Board/include/M
    2915                    .dwattr $C$DW$T$58, DW_AT_decl_line(0x7a)
    2916                    .dwattr $C$DW$T$58, DW_AT_decl_column(0x03)
    2917            
    2918            
    2919            $C$DW$T$59      .dwtag  DW_TAG_enumeration_type
MSP430 Assembler PC v21.6.1 Tue Dec 20 13:59:30 2022

Copyright (c) 2003-2018 Texas Instruments Incorporated
Dallas.asm                                                           PAGE   58

    2920                    .dwattr $C$DW$T$59, DW_AT_byte_size(0x02)
    2921            $C$DW$133       .dwtag  DW_TAG_enumerator
    2922                    .dwattr $C$DW$133, DW_AT_name("init")
    2923                    .dwattr $C$DW$133, DW_AT_const_value(0x00)
    2924                    .dwattr $C$DW$133, DW_AT_decl_file("C:/Users/MCourson/workspace_v11/MZERO_HB50Board/include/Ma
    2925                    .dwattr $C$DW$133, DW_AT_decl_line(0x80)
    2926                    .dwattr $C$DW$133, DW_AT_decl_column(0x05)
    2927            
    2928            $C$DW$134       .dwtag  DW_TAG_enumerator
    2929                    .dwattr $C$DW$134, DW_AT_name("running")
    2930                    .dwattr $C$DW$134, DW_AT_const_value(0x01)
    2931                    .dwattr $C$DW$134, DW_AT_decl_file("C:/Users/MCourson/workspace_v11/MZERO_HB50Board/include/Ma
    2932                    .dwattr $C$DW$134, DW_AT_decl_line(0x80)
    2933                    .dwattr $C$DW$134, DW_AT_decl_column(0x0b)
    2934            
    2935            $C$DW$135       .dwtag  DW_TAG_enumerator
    2936                    .dwattr $C$DW$135, DW_AT_name("wait")
    2937                    .dwattr $C$DW$135, DW_AT_const_value(0x02)
    2938                    .dwattr $C$DW$135, DW_AT_decl_file("C:/Users/MCourson/workspace_v11/MZERO_HB50Board/include/Ma
    2939                    .dwattr $C$DW$135, DW_AT_decl_line(0x80)
    2940                    .dwattr $C$DW$135, DW_AT_decl_column(0x14)
    2941            
    2942                    .dwattr $C$DW$T$59, DW_AT_decl_file("C:/Users/MCourson/workspace_v11/MZERO_HB50Board/include/M
    2943                    .dwattr $C$DW$T$59, DW_AT_decl_line(0x7f)
    2944                    .dwattr $C$DW$T$59, DW_AT_decl_column(0x01)
    2945                    .dwendtag $C$DW$T$59
    2946            
    2947            $C$DW$T$60      .dwtag  DW_TAG_typedef
    2948                    .dwattr $C$DW$T$60, DW_AT_name("StatusFields")
    2949                    .dwattr $C$DW$T$60, DW_AT_type(*$C$DW$T$59)
    2950                    .dwattr $C$DW$T$60, DW_AT_language(DW_LANG_C)
    2951                    .dwattr $C$DW$T$60, DW_AT_decl_file("C:/Users/MCourson/workspace_v11/MZERO_HB50Board/include/M
    2952                    .dwattr $C$DW$T$60, DW_AT_decl_line(0x81)
    2953                    .dwattr $C$DW$T$60, DW_AT_decl_column(0x03)
    2954            
    2955            
    2956            $C$DW$T$22      .dwtag  DW_TAG_structure_type
    2957                    .dwattr $C$DW$T$22, DW_AT_byte_size(0x10)
    2958            $C$DW$136       .dwtag  DW_TAG_member
    2959                    .dwattr $C$DW$136, DW_AT_type(*$C$DW$T$14)
    2960                    .dwattr $C$DW$136, DW_AT_name("__max_align1")
    2961                    .dwattr $C$DW$136, DW_AT_TI_symbol_name("__max_align1")
    2962                    .dwattr $C$DW$136, DW_AT_data_member_location[DW_OP_plus_uconst 0x0]
    2963                    .dwattr $C$DW$136, DW_AT_accessibility(DW_ACCESS_public)
    2964                    .dwattr $C$DW$136, DW_AT_decl_file("C:/ti/ccs1110/ccs/tools/compiler/ti-cgt-msp430_21.6.1.LTS/
    2965                    .dwattr $C$DW$136, DW_AT_decl_line(0x7b)
    2966                    .dwattr $C$DW$136, DW_AT_decl_column(0x0c)
    2967            
    2968            $C$DW$137       .dwtag  DW_TAG_member
    2969                    .dwattr $C$DW$137, DW_AT_type(*$C$DW$T$18)
    2970                    .dwattr $C$DW$137, DW_AT_name("__max_align2")
    2971                    .dwattr $C$DW$137, DW_AT_TI_symbol_name("__max_align2")
    2972                    .dwattr $C$DW$137, DW_AT_data_member_location[DW_OP_plus_uconst 0x8]
    2973                    .dwattr $C$DW$137, DW_AT_accessibility(DW_ACCESS_public)
    2974                    .dwattr $C$DW$137, DW_AT_decl_file("C:/ti/ccs1110/ccs/tools/compiler/ti-cgt-msp430_21.6.1.LTS/
MSP430 Assembler PC v21.6.1 Tue Dec 20 13:59:30 2022

Copyright (c) 2003-2018 Texas Instruments Incorporated
Dallas.asm                                                           PAGE   59

    2975                    .dwattr $C$DW$137, DW_AT_decl_line(0x7c)
    2976                    .dwattr $C$DW$137, DW_AT_decl_column(0x0e)
    2977            
    2978                    .dwattr $C$DW$T$22, DW_AT_decl_file("C:/ti/ccs1110/ccs/tools/compiler/ti-cgt-msp430_21.6.1.LTS
    2979                    .dwattr $C$DW$T$22, DW_AT_decl_line(0x7a)
    2980                    .dwattr $C$DW$T$22, DW_AT_decl_column(0x10)
    2981                    .dwendtag $C$DW$T$22
    2982            
    2983            $C$DW$T$61      .dwtag  DW_TAG_typedef
    2984                    .dwattr $C$DW$T$61, DW_AT_name("__max_align_t")
    2985                    .dwattr $C$DW$T$61, DW_AT_type(*$C$DW$T$22)
    2986                    .dwattr $C$DW$T$61, DW_AT_language(DW_LANG_C)
    2987                    .dwattr $C$DW$T$61, DW_AT_decl_file("C:/ti/ccs1110/ccs/tools/compiler/ti-cgt-msp430_21.6.1.LTS
    2988                    .dwattr $C$DW$T$61, DW_AT_decl_line(0x7d)
    2989                    .dwattr $C$DW$T$61, DW_AT_decl_column(0x03)
    2990            
    2991            
    2992            $C$DW$T$25      .dwtag  DW_TAG_structure_type
    2993                    .dwattr $C$DW$T$25, DW_AT_name("ADC12_A_configureMemoryParam")
    2994                    .dwattr $C$DW$T$25, DW_AT_byte_size(0x05)
    2995            $C$DW$138       .dwtag  DW_TAG_member
    2996                    .dwattr $C$DW$138, DW_AT_type(*$C$DW$T$24)
    2997                    .dwattr $C$DW$138, DW_AT_name("memoryBufferControlIndex")
    2998                    .dwattr $C$DW$138, DW_AT_TI_symbol_name("memoryBufferControlIndex")
    2999                    .dwattr $C$DW$138, DW_AT_data_member_location[DW_OP_plus_uconst 0x0]
    3000                    .dwattr $C$DW$138, DW_AT_accessibility(DW_ACCESS_public)
    3001                    .dwattr $C$DW$138, DW_AT_decl_file("C:/Users/MCourson/workspace_v11/MZERO_HB50Board/include/ad
    3002                    .dwattr $C$DW$138, DW_AT_decl_line(0x27)
    3003                    .dwattr $C$DW$138, DW_AT_decl_column(0x0d)
    3004            
    3005            $C$DW$139       .dwtag  DW_TAG_member
    3006                    .dwattr $C$DW$139, DW_AT_type(*$C$DW$T$24)
    3007                    .dwattr $C$DW$139, DW_AT_name("inputSourceSelect")
    3008                    .dwattr $C$DW$139, DW_AT_TI_symbol_name("inputSourceSelect")
    3009                    .dwattr $C$DW$139, DW_AT_data_member_location[DW_OP_plus_uconst 0x1]
    3010                    .dwattr $C$DW$139, DW_AT_accessibility(DW_ACCESS_public)
    3011                    .dwattr $C$DW$139, DW_AT_decl_file("C:/Users/MCourson/workspace_v11/MZERO_HB50Board/include/ad
    3012                    .dwattr $C$DW$139, DW_AT_decl_line(0x3b)
    3013                    .dwattr $C$DW$139, DW_AT_decl_column(0x0d)
    3014            
    3015            $C$DW$140       .dwtag  DW_TAG_member
    3016                    .dwattr $C$DW$140, DW_AT_type(*$C$DW$T$24)
    3017                    .dwattr $C$DW$140, DW_AT_name("positiveRefVoltageSourceSelect")
    3018                    .dwattr $C$DW$140, DW_AT_TI_symbol_name("positiveRefVoltageSourceSelect")
    3019                    .dwattr $C$DW$140, DW_AT_data_member_location[DW_OP_plus_uconst 0x2]
    3020                    .dwattr $C$DW$140, DW_AT_accessibility(DW_ACCESS_public)
    3021                    .dwattr $C$DW$140, DW_AT_decl_file("C:/Users/MCourson/workspace_v11/MZERO_HB50Board/include/ad
    3022                    .dwattr $C$DW$140, DW_AT_decl_line(0x42)
    3023                    .dwattr $C$DW$140, DW_AT_decl_column(0x0d)
    3024            
    3025            $C$DW$141       .dwtag  DW_TAG_member
    3026                    .dwattr $C$DW$141, DW_AT_type(*$C$DW$T$24)
    3027                    .dwattr $C$DW$141, DW_AT_name("negativeRefVoltageSourceSelect")
    3028                    .dwattr $C$DW$141, DW_AT_TI_symbol_name("negativeRefVoltageSourceSelect")
    3029                    .dwattr $C$DW$141, DW_AT_data_member_location[DW_OP_plus_uconst 0x3]
MSP430 Assembler PC v21.6.1 Tue Dec 20 13:59:30 2022

Copyright (c) 2003-2018 Texas Instruments Incorporated
Dallas.asm                                                           PAGE   60

    3030                    .dwattr $C$DW$141, DW_AT_accessibility(DW_ACCESS_public)
    3031                    .dwattr $C$DW$141, DW_AT_decl_file("C:/Users/MCourson/workspace_v11/MZERO_HB50Board/include/ad
    3032                    .dwattr $C$DW$141, DW_AT_decl_line(0x48)
    3033                    .dwattr $C$DW$141, DW_AT_decl_column(0x0d)
    3034            
    3035            $C$DW$142       .dwtag  DW_TAG_member
    3036                    .dwattr $C$DW$142, DW_AT_type(*$C$DW$T$24)
    3037                    .dwattr $C$DW$142, DW_AT_name("endOfSequence")
    3038                    .dwattr $C$DW$142, DW_AT_TI_symbol_name("endOfSequence")
    3039                    .dwattr $C$DW$142, DW_AT_data_member_location[DW_OP_plus_uconst 0x4]
    3040                    .dwattr $C$DW$142, DW_AT_accessibility(DW_ACCESS_public)
    3041                    .dwattr $C$DW$142, DW_AT_decl_file("C:/Users/MCourson/workspace_v11/MZERO_HB50Board/include/ad
    3042                    .dwattr $C$DW$142, DW_AT_decl_line(0x51)
    3043                    .dwattr $C$DW$142, DW_AT_decl_column(0x0d)
    3044            
    3045                    .dwattr $C$DW$T$25, DW_AT_decl_file("C:/Users/MCourson/workspace_v11/MZERO_HB50Board/include/a
    3046                    .dwattr $C$DW$T$25, DW_AT_decl_line(0x14)
    3047                    .dwattr $C$DW$T$25, DW_AT_decl_column(0x10)
    3048                    .dwendtag $C$DW$T$25
    3049            
    3050            $C$DW$T$62      .dwtag  DW_TAG_typedef
    3051                    .dwattr $C$DW$T$62, DW_AT_name("ADC12_A_configureMemoryParam")
    3052                    .dwattr $C$DW$T$62, DW_AT_type(*$C$DW$T$25)
    3053                    .dwattr $C$DW$T$62, DW_AT_language(DW_LANG_C)
    3054                    .dwattr $C$DW$T$62, DW_AT_decl_file("C:/Users/MCourson/workspace_v11/MZERO_HB50Board/include/a
    3055                    .dwattr $C$DW$T$62, DW_AT_decl_line(0x52)
    3056                    .dwattr $C$DW$T$62, DW_AT_decl_column(0x03)
    3057            
    3058            
    3059            $C$DW$T$28      .dwtag  DW_TAG_structure_type
    3060                    .dwattr $C$DW$T$28, DW_AT_name("Timer_A_initCaptureModeParam")
    3061                    .dwattr $C$DW$T$28, DW_AT_byte_size(0x0c)
    3062            $C$DW$143       .dwtag  DW_TAG_member
    3063                    .dwattr $C$DW$143, DW_AT_type(*$C$DW$T$27)
    3064                    .dwattr $C$DW$143, DW_AT_name("captureRegister")
    3065                    .dwattr $C$DW$143, DW_AT_TI_symbol_name("captureRegister")
    3066                    .dwattr $C$DW$143, DW_AT_data_member_location[DW_OP_plus_uconst 0x0]
    3067                    .dwattr $C$DW$143, DW_AT_accessibility(DW_ACCESS_public)
    3068                    .dwattr $C$DW$143, DW_AT_decl_file("C:/Users/MCourson/workspace_v11/MZERO_HB50Board/include/ti
    3069                    .dwattr $C$DW$143, DW_AT_decl_line(0x58)
    3070                    .dwattr $C$DW$143, DW_AT_decl_column(0x0e)
    3071            
    3072            $C$DW$144       .dwtag  DW_TAG_member
    3073                    .dwattr $C$DW$144, DW_AT_type(*$C$DW$T$27)
    3074                    .dwattr $C$DW$144, DW_AT_name("captureMode")
    3075                    .dwattr $C$DW$144, DW_AT_TI_symbol_name("captureMode")
    3076                    .dwattr $C$DW$144, DW_AT_data_member_location[DW_OP_plus_uconst 0x2]
    3077                    .dwattr $C$DW$144, DW_AT_accessibility(DW_ACCESS_public)
    3078                    .dwattr $C$DW$144, DW_AT_decl_file("C:/Users/MCourson/workspace_v11/MZERO_HB50Board/include/ti
    3079                    .dwattr $C$DW$144, DW_AT_decl_line(0x5f)
    3080                    .dwattr $C$DW$144, DW_AT_decl_column(0x0e)
    3081            
    3082            $C$DW$145       .dwtag  DW_TAG_member
    3083                    .dwattr $C$DW$145, DW_AT_type(*$C$DW$T$27)
    3084                    .dwattr $C$DW$145, DW_AT_name("captureInputSelect")
MSP430 Assembler PC v21.6.1 Tue Dec 20 13:59:30 2022

Copyright (c) 2003-2018 Texas Instruments Incorporated
Dallas.asm                                                           PAGE   61

    3085                    .dwattr $C$DW$145, DW_AT_TI_symbol_name("captureInputSelect")
    3086                    .dwattr $C$DW$145, DW_AT_data_member_location[DW_OP_plus_uconst 0x4]
    3087                    .dwattr $C$DW$145, DW_AT_accessibility(DW_ACCESS_public)
    3088                    .dwattr $C$DW$145, DW_AT_decl_file("C:/Users/MCourson/workspace_v11/MZERO_HB50Board/include/ti
    3089                    .dwattr $C$DW$145, DW_AT_decl_line(0x66)
    3090                    .dwattr $C$DW$145, DW_AT_decl_column(0x0e)
    3091            
    3092            $C$DW$146       .dwtag  DW_TAG_member
    3093                    .dwattr $C$DW$146, DW_AT_type(*$C$DW$T$27)
    3094                    .dwattr $C$DW$146, DW_AT_name("synchronizeCaptureSource")
    3095                    .dwattr $C$DW$146, DW_AT_TI_symbol_name("synchronizeCaptureSource")
    3096                    .dwattr $C$DW$146, DW_AT_data_member_location[DW_OP_plus_uconst 0x6]
    3097                    .dwattr $C$DW$146, DW_AT_accessibility(DW_ACCESS_public)
    3098                    .dwattr $C$DW$146, DW_AT_decl_file("C:/Users/MCourson/workspace_v11/MZERO_HB50Board/include/ti
    3099                    .dwattr $C$DW$146, DW_AT_decl_line(0x6b)
    3100                    .dwattr $C$DW$146, DW_AT_decl_column(0x0e)
    3101            
    3102            $C$DW$147       .dwtag  DW_TAG_member
    3103                    .dwattr $C$DW$147, DW_AT_type(*$C$DW$T$27)
    3104                    .dwattr $C$DW$147, DW_AT_name("captureInterruptEnable")
    3105                    .dwattr $C$DW$147, DW_AT_TI_symbol_name("captureInterruptEnable")
    3106                    .dwattr $C$DW$147, DW_AT_data_member_location[DW_OP_plus_uconst 0x8]
    3107                    .dwattr $C$DW$147, DW_AT_accessibility(DW_ACCESS_public)
    3108                    .dwattr $C$DW$147, DW_AT_decl_file("C:/Users/MCourson/workspace_v11/MZERO_HB50Board/include/ti
    3109                    .dwattr $C$DW$147, DW_AT_decl_line(0x70)
    3110                    .dwattr $C$DW$147, DW_AT_decl_column(0x0e)
    3111            
    3112            $C$DW$148       .dwtag  DW_TAG_member
    3113                    .dwattr $C$DW$148, DW_AT_type(*$C$DW$T$27)
    3114                    .dwattr $C$DW$148, DW_AT_name("captureOutputMode")
    3115                    .dwattr $C$DW$148, DW_AT_TI_symbol_name("captureOutputMode")
    3116                    .dwattr $C$DW$148, DW_AT_data_member_location[DW_OP_plus_uconst 0xa]
    3117                    .dwattr $C$DW$148, DW_AT_accessibility(DW_ACCESS_public)
    3118                    .dwattr $C$DW$148, DW_AT_decl_file("C:/Users/MCourson/workspace_v11/MZERO_HB50Board/include/ti
    3119                    .dwattr $C$DW$148, DW_AT_decl_line(0x7b)
    3120                    .dwattr $C$DW$148, DW_AT_decl_column(0x0e)
    3121            
    3122                    .dwattr $C$DW$T$28, DW_AT_decl_file("C:/Users/MCourson/workspace_v11/MZERO_HB50Board/include/t
    3123                    .dwattr $C$DW$T$28, DW_AT_decl_line(0x4d)
    3124                    .dwattr $C$DW$T$28, DW_AT_decl_column(0x10)
    3125                    .dwendtag $C$DW$T$28
    3126            
    3127            $C$DW$T$63      .dwtag  DW_TAG_typedef
    3128                    .dwattr $C$DW$T$63, DW_AT_name("Timer_A_initCaptureModeParam")
    3129                    .dwattr $C$DW$T$63, DW_AT_type(*$C$DW$T$28)
    3130                    .dwattr $C$DW$T$63, DW_AT_language(DW_LANG_C)
    3131                    .dwattr $C$DW$T$63, DW_AT_decl_file("C:/Users/MCourson/workspace_v11/MZERO_HB50Board/include/t
    3132                    .dwattr $C$DW$T$63, DW_AT_decl_line(0x7c)
    3133                    .dwattr $C$DW$T$63, DW_AT_decl_column(0x03)
    3134            
    3135            
    3136            $C$DW$T$29      .dwtag  DW_TAG_structure_type
    3137                    .dwattr $C$DW$T$29, DW_AT_name("Timer_A_initCompareModeParam")
    3138                    .dwattr $C$DW$T$29, DW_AT_byte_size(0x08)
    3139            $C$DW$149       .dwtag  DW_TAG_member
MSP430 Assembler PC v21.6.1 Tue Dec 20 13:59:30 2022

Copyright (c) 2003-2018 Texas Instruments Incorporated
Dallas.asm                                                           PAGE   62

    3140                    .dwattr $C$DW$149, DW_AT_type(*$C$DW$T$27)
    3141                    .dwattr $C$DW$149, DW_AT_name("compareRegister")
    3142                    .dwattr $C$DW$149, DW_AT_TI_symbol_name("compareRegister")
    3143                    .dwattr $C$DW$149, DW_AT_data_member_location[DW_OP_plus_uconst 0x0]
    3144                    .dwattr $C$DW$149, DW_AT_accessibility(DW_ACCESS_public)
    3145                    .dwattr $C$DW$149, DW_AT_decl_file("C:/Users/MCourson/workspace_v11/MZERO_HB50Board/include/ti
    3146                    .dwattr $C$DW$149, DW_AT_decl_line(0x145)
    3147                    .dwattr $C$DW$149, DW_AT_decl_column(0x0e)
    3148            
    3149            $C$DW$150       .dwtag  DW_TAG_member
    3150                    .dwattr $C$DW$150, DW_AT_type(*$C$DW$T$27)
    3151                    .dwattr $C$DW$150, DW_AT_name("compareInterruptEnable")
    3152                    .dwattr $C$DW$150, DW_AT_TI_symbol_name("compareInterruptEnable")
    3153                    .dwattr $C$DW$150, DW_AT_data_member_location[DW_OP_plus_uconst 0x2]
    3154                    .dwattr $C$DW$150, DW_AT_accessibility(DW_ACCESS_public)
    3155                    .dwattr $C$DW$150, DW_AT_decl_file("C:/Users/MCourson/workspace_v11/MZERO_HB50Board/include/ti
    3156                    .dwattr $C$DW$150, DW_AT_decl_line(0x14a)
    3157                    .dwattr $C$DW$150, DW_AT_decl_column(0x0e)
    3158            
    3159            $C$DW$151       .dwtag  DW_TAG_member
    3160                    .dwattr $C$DW$151, DW_AT_type(*$C$DW$T$27)
    3161                    .dwattr $C$DW$151, DW_AT_name("compareOutputMode")
    3162                    .dwattr $C$DW$151, DW_AT_TI_symbol_name("compareOutputMode")
    3163                    .dwattr $C$DW$151, DW_AT_data_member_location[DW_OP_plus_uconst 0x4]
    3164                    .dwattr $C$DW$151, DW_AT_accessibility(DW_ACCESS_public)
    3165                    .dwattr $C$DW$151, DW_AT_decl_file("C:/Users/MCourson/workspace_v11/MZERO_HB50Board/include/ti
    3166                    .dwattr $C$DW$151, DW_AT_decl_line(0x155)
    3167                    .dwattr $C$DW$151, DW_AT_decl_column(0x0e)
    3168            
    3169            $C$DW$152       .dwtag  DW_TAG_member
    3170                    .dwattr $C$DW$152, DW_AT_type(*$C$DW$T$27)
    3171                    .dwattr $C$DW$152, DW_AT_name("compareValue")
    3172                    .dwattr $C$DW$152, DW_AT_TI_symbol_name("compareValue")
    3173                    .dwattr $C$DW$152, DW_AT_data_member_location[DW_OP_plus_uconst 0x6]
    3174                    .dwattr $C$DW$152, DW_AT_accessibility(DW_ACCESS_public)
    3175                    .dwattr $C$DW$152, DW_AT_decl_file("C:/Users/MCourson/workspace_v11/MZERO_HB50Board/include/ti
    3176                    .dwattr $C$DW$152, DW_AT_decl_line(0x157)
    3177                    .dwattr $C$DW$152, DW_AT_decl_column(0x0e)
    3178            
    3179                    .dwattr $C$DW$T$29, DW_AT_decl_file("C:/Users/MCourson/workspace_v11/MZERO_HB50Board/include/t
    3180                    .dwattr $C$DW$T$29, DW_AT_decl_line(0x13a)
    3181                    .dwattr $C$DW$T$29, DW_AT_decl_column(0x10)
    3182                    .dwendtag $C$DW$T$29
    3183            
    3184            $C$DW$T$64      .dwtag  DW_TAG_typedef
    3185                    .dwattr $C$DW$T$64, DW_AT_name("Timer_A_initCompareModeParam")
    3186                    .dwattr $C$DW$T$64, DW_AT_type(*$C$DW$T$29)
    3187                    .dwattr $C$DW$T$64, DW_AT_language(DW_LANG_C)
    3188                    .dwattr $C$DW$T$64, DW_AT_decl_file("C:/Users/MCourson/workspace_v11/MZERO_HB50Board/include/t
    3189                    .dwattr $C$DW$T$64, DW_AT_decl_line(0x158)
    3190                    .dwattr $C$DW$T$64, DW_AT_decl_column(0x03)
    3191            
    3192            
    3193            $C$DW$T$31      .dwtag  DW_TAG_structure_type
    3194                    .dwattr $C$DW$T$31, DW_AT_name("Timer_A_initContinuousModeParam")
MSP430 Assembler PC v21.6.1 Tue Dec 20 13:59:30 2022

Copyright (c) 2003-2018 Texas Instruments Incorporated
Dallas.asm                                                           PAGE   63

    3195                    .dwattr $C$DW$T$31, DW_AT_byte_size(0x0a)
    3196            $C$DW$153       .dwtag  DW_TAG_member
    3197                    .dwattr $C$DW$153, DW_AT_type(*$C$DW$T$27)
    3198                    .dwattr $C$DW$153, DW_AT_name("clockSource")
    3199                    .dwattr $C$DW$153, DW_AT_TI_symbol_name("clockSource")
    3200                    .dwattr $C$DW$153, DW_AT_data_member_location[DW_OP_plus_uconst 0x0]
    3201                    .dwattr $C$DW$153, DW_AT_accessibility(DW_ACCESS_public)
    3202                    .dwattr $C$DW$153, DW_AT_decl_file("C:/Users/MCourson/workspace_v11/MZERO_HB50Board/include/ti
    3203                    .dwattr $C$DW$153, DW_AT_decl_line(0x20)
    3204                    .dwattr $C$DW$153, DW_AT_decl_column(0x0e)
    3205            
    3206            $C$DW$154       .dwtag  DW_TAG_member
    3207                    .dwattr $C$DW$154, DW_AT_type(*$C$DW$T$27)
    3208                    .dwattr $C$DW$154, DW_AT_name("clockSourceDivider")
    3209                    .dwattr $C$DW$154, DW_AT_TI_symbol_name("clockSourceDivider")
    3210                    .dwattr $C$DW$154, DW_AT_data_member_location[DW_OP_plus_uconst 0x2]
    3211                    .dwattr $C$DW$154, DW_AT_accessibility(DW_ACCESS_public)
    3212                    .dwattr $C$DW$154, DW_AT_decl_file("C:/Users/MCourson/workspace_v11/MZERO_HB50Board/include/ti
    3213                    .dwattr $C$DW$154, DW_AT_decl_line(0x37)
    3214                    .dwattr $C$DW$154, DW_AT_decl_column(0x0e)
    3215            
    3216            $C$DW$155       .dwtag  DW_TAG_member
    3217                    .dwattr $C$DW$155, DW_AT_type(*$C$DW$T$27)
    3218                    .dwattr $C$DW$155, DW_AT_name("timerInterruptEnable_TAIE")
    3219                    .dwattr $C$DW$155, DW_AT_TI_symbol_name("timerInterruptEnable_TAIE")
    3220                    .dwattr $C$DW$155, DW_AT_data_member_location[DW_OP_plus_uconst 0x4]
    3221                    .dwattr $C$DW$155, DW_AT_accessibility(DW_ACCESS_public)
    3222                    .dwattr $C$DW$155, DW_AT_decl_file("C:/Users/MCourson/workspace_v11/MZERO_HB50Board/include/ti
    3223                    .dwattr $C$DW$155, DW_AT_decl_line(0x3c)
    3224                    .dwattr $C$DW$155, DW_AT_decl_column(0x0e)
    3225            
    3226            $C$DW$156       .dwtag  DW_TAG_member
    3227                    .dwattr $C$DW$156, DW_AT_type(*$C$DW$T$27)
    3228                    .dwattr $C$DW$156, DW_AT_name("timerClear")
    3229                    .dwattr $C$DW$156, DW_AT_TI_symbol_name("timerClear")
    3230                    .dwattr $C$DW$156, DW_AT_data_member_location[DW_OP_plus_uconst 0x6]
    3231                    .dwattr $C$DW$156, DW_AT_accessibility(DW_ACCESS_public)
    3232                    .dwattr $C$DW$156, DW_AT_decl_file("C:/Users/MCourson/workspace_v11/MZERO_HB50Board/include/ti
    3233                    .dwattr $C$DW$156, DW_AT_decl_line(0x42)
    3234                    .dwattr $C$DW$156, DW_AT_decl_column(0x0e)
    3235            
    3236            $C$DW$157       .dwtag  DW_TAG_member
    3237                    .dwattr $C$DW$157, DW_AT_type(*$C$DW$T$30)
    3238                    .dwattr $C$DW$157, DW_AT_name("startTimer")
    3239                    .dwattr $C$DW$157, DW_AT_TI_symbol_name("startTimer")
    3240                    .dwattr $C$DW$157, DW_AT_data_member_location[DW_OP_plus_uconst 0x8]
    3241                    .dwattr $C$DW$157, DW_AT_accessibility(DW_ACCESS_public)
    3242                    .dwattr $C$DW$157, DW_AT_decl_file("C:/Users/MCourson/workspace_v11/MZERO_HB50Board/include/ti
    3243                    .dwattr $C$DW$157, DW_AT_decl_line(0x44)
    3244                    .dwattr $C$DW$157, DW_AT_decl_column(0x0a)
    3245            
    3246                    .dwattr $C$DW$T$31, DW_AT_decl_file("C:/Users/MCourson/workspace_v11/MZERO_HB50Board/include/t
    3247                    .dwattr $C$DW$T$31, DW_AT_decl_line(0x19)
    3248                    .dwattr $C$DW$T$31, DW_AT_decl_column(0x10)
    3249                    .dwendtag $C$DW$T$31
MSP430 Assembler PC v21.6.1 Tue Dec 20 13:59:30 2022

Copyright (c) 2003-2018 Texas Instruments Incorporated
Dallas.asm                                                           PAGE   64

    3250            
    3251            $C$DW$T$65      .dwtag  DW_TAG_typedef
    3252                    .dwattr $C$DW$T$65, DW_AT_name("Timer_A_initContinuousModeParam")
    3253                    .dwattr $C$DW$T$65, DW_AT_type(*$C$DW$T$31)
    3254                    .dwattr $C$DW$T$65, DW_AT_language(DW_LANG_C)
    3255                    .dwattr $C$DW$T$65, DW_AT_decl_file("C:/Users/MCourson/workspace_v11/MZERO_HB50Board/include/t
    3256                    .dwattr $C$DW$T$65, DW_AT_decl_line(0x45)
    3257                    .dwattr $C$DW$T$65, DW_AT_decl_column(0x03)
    3258            
    3259            
    3260            $C$DW$T$32      .dwtag  DW_TAG_structure_type
    3261                    .dwattr $C$DW$T$32, DW_AT_name("Timer_A_initUpDownModeParam")
    3262                    .dwattr $C$DW$T$32, DW_AT_byte_size(0x0e)
    3263            $C$DW$158       .dwtag  DW_TAG_member
    3264                    .dwattr $C$DW$158, DW_AT_type(*$C$DW$T$27)
    3265                    .dwattr $C$DW$158, DW_AT_name("clockSource")
    3266                    .dwattr $C$DW$158, DW_AT_TI_symbol_name("clockSource")
    3267                    .dwattr $C$DW$158, DW_AT_data_member_location[DW_OP_plus_uconst 0x0]
    3268                    .dwattr $C$DW$158, DW_AT_accessibility(DW_ACCESS_public)
    3269                    .dwattr $C$DW$158, DW_AT_decl_file("C:/Users/MCourson/workspace_v11/MZERO_HB50Board/include/ti
    3270                    .dwattr $C$DW$158, DW_AT_decl_line(0x8b)
    3271                    .dwattr $C$DW$158, DW_AT_decl_column(0x0e)
    3272            
    3273            $C$DW$159       .dwtag  DW_TAG_member
    3274                    .dwattr $C$DW$159, DW_AT_type(*$C$DW$T$27)
    3275                    .dwattr $C$DW$159, DW_AT_name("clockSourceDivider")
    3276                    .dwattr $C$DW$159, DW_AT_TI_symbol_name("clockSourceDivider")
    3277                    .dwattr $C$DW$159, DW_AT_data_member_location[DW_OP_plus_uconst 0x2]
    3278                    .dwattr $C$DW$159, DW_AT_accessibility(DW_ACCESS_public)
    3279                    .dwattr $C$DW$159, DW_AT_decl_file("C:/Users/MCourson/workspace_v11/MZERO_HB50Board/include/ti
    3280                    .dwattr $C$DW$159, DW_AT_decl_line(0xa2)
    3281                    .dwattr $C$DW$159, DW_AT_decl_column(0x0e)
    3282            
    3283            $C$DW$160       .dwtag  DW_TAG_member
    3284                    .dwattr $C$DW$160, DW_AT_type(*$C$DW$T$27)
    3285                    .dwattr $C$DW$160, DW_AT_name("timerPeriod")
    3286                    .dwattr $C$DW$160, DW_AT_TI_symbol_name("timerPeriod")
    3287                    .dwattr $C$DW$160, DW_AT_data_member_location[DW_OP_plus_uconst 0x4]
    3288                    .dwattr $C$DW$160, DW_AT_accessibility(DW_ACCESS_public)
    3289                    .dwattr $C$DW$160, DW_AT_decl_file("C:/Users/MCourson/workspace_v11/MZERO_HB50Board/include/ti
    3290                    .dwattr $C$DW$160, DW_AT_decl_line(0xa4)
    3291                    .dwattr $C$DW$160, DW_AT_decl_column(0x0e)
    3292            
    3293            $C$DW$161       .dwtag  DW_TAG_member
    3294                    .dwattr $C$DW$161, DW_AT_type(*$C$DW$T$27)
    3295                    .dwattr $C$DW$161, DW_AT_name("timerInterruptEnable_TAIE")
    3296                    .dwattr $C$DW$161, DW_AT_TI_symbol_name("timerInterruptEnable_TAIE")
    3297                    .dwattr $C$DW$161, DW_AT_data_member_location[DW_OP_plus_uconst 0x6]
    3298                    .dwattr $C$DW$161, DW_AT_accessibility(DW_ACCESS_public)
    3299                    .dwattr $C$DW$161, DW_AT_decl_file("C:/Users/MCourson/workspace_v11/MZERO_HB50Board/include/ti
    3300                    .dwattr $C$DW$161, DW_AT_decl_line(0xa9)
