MSP430 Assembler PC v21.6.1 Tue Dec 20 13:45:58 2022

Copyright (c) 2003-2018 Texas Instruments Incorporated
Fans.asm                                                             PAGE    1

       1            ;******************************************************************************
       2            ;* MSP430 G3 C/C++ Codegen                                              PC v21.6.1.LTS *
       3            ;* Date/Time created: Tue Dec 20 13:45:57 2022                                *
       4            ;******************************************************************************
       5                    .compiler_opts --abi=eabi --diag_wrap=off --hll_source=on --mem_model:code=large --mem_model:d
       6            
       7            $C$DW$CU        .dwtag  DW_TAG_compile_unit
       8                    .dwattr $C$DW$CU, DW_AT_name("../src/Fans.c")
       9                    .dwattr $C$DW$CU, DW_AT_producer("TI MSP430 G3 C/C++ Codegen PC v21.6.1.LTS Copyright (c) 2003
      10                    .dwattr $C$DW$CU, DW_AT_TI_version(0x01)
      11                    .dwattr $C$DW$CU, DW_AT_comp_dir("C:\Users\MCourson\workspace_v11\MZERO_HB50Board\Debug")
      12            $C$DW$1 .dwtag  DW_TAG_variable
      13                    .dwattr $C$DW$1, DW_AT_name("PAIN_H")
      14                    .dwattr $C$DW$1, DW_AT_TI_symbol_name("PAIN_H")
      15                    .dwattr $C$DW$1, DW_AT_type(*$C$DW$T$88)
      16                    .dwattr $C$DW$1, DW_AT_declaration
      17                    .dwattr $C$DW$1, DW_AT_external
      18                    .dwattr $C$DW$1, DW_AT_decl_file("C:\ti\ccs1110\ccs\ccs_base\msp430\include\msp430f5438a.h")
      19                    .dwattr $C$DW$1, DW_AT_decl_line(0x45b)
      20                    .dwattr $C$DW$1, DW_AT_decl_column(0x01)
      21            
      22            $C$DW$2 .dwtag  DW_TAG_variable
      23                    .dwattr $C$DW$2, DW_AT_name("PBIN_H")
      24                    .dwattr $C$DW$2, DW_AT_TI_symbol_name("PBIN_H")
      25                    .dwattr $C$DW$2, DW_AT_type(*$C$DW$T$88)
      26                    .dwattr $C$DW$2, DW_AT_declaration
      27                    .dwattr $C$DW$2, DW_AT_external
      28                    .dwattr $C$DW$2, DW_AT_decl_file("C:\ti\ccs1110\ccs\ccs_base\msp430\include\msp430f5438a.h")
      29                    .dwattr $C$DW$2, DW_AT_decl_line(0x4b5)
      30                    .dwattr $C$DW$2, DW_AT_decl_column(0x01)
      31            
      32            $C$DW$3 .dwtag  DW_TAG_variable
      33                    .dwattr $C$DW$3, DW_AT_name("PBOUT_H")
      34                    .dwattr $C$DW$3, DW_AT_TI_symbol_name("PBOUT_H")
      35                    .dwattr $C$DW$3, DW_AT_type(*$C$DW$T$88)
      36                    .dwattr $C$DW$3, DW_AT_declaration
      37                    .dwattr $C$DW$3, DW_AT_external
      38                    .dwattr $C$DW$3, DW_AT_decl_file("C:\ti\ccs1110\ccs\ccs_base\msp430\include\msp430f5438a.h")
      39                    .dwattr $C$DW$3, DW_AT_decl_line(0x4b8)
      40                    .dwattr $C$DW$3, DW_AT_decl_column(0x01)
      41            
      42            $C$DW$4 .dwtag  DW_TAG_variable
      43                    .dwattr $C$DW$4, DW_AT_name("PEOUT_L")
      44                    .dwattr $C$DW$4, DW_AT_TI_symbol_name("PEOUT_L")
      45                    .dwattr $C$DW$4, DW_AT_type(*$C$DW$T$88)
      46                    .dwattr $C$DW$4, DW_AT_declaration
      47                    .dwattr $C$DW$4, DW_AT_external
      48                    .dwattr $C$DW$4, DW_AT_decl_file("C:\ti\ccs1110\ccs\ccs_base\msp430\include\msp430f5438a.h")
      49                    .dwattr $C$DW$4, DW_AT_decl_line(0x550)
      50                    .dwattr $C$DW$4, DW_AT_decl_column(0x01)
      51            
      52            $C$DW$5 .dwtag  DW_TAG_variable
      53                    .dwattr $C$DW$5, DW_AT_name("TA0CCR1")
      54                    .dwattr $C$DW$5, DW_AT_TI_symbol_name("TA0CCR1")
      55                    .dwattr $C$DW$5, DW_AT_type(*$C$DW$T$114)
MSP430 Assembler PC v21.6.1 Tue Dec 20 13:45:58 2022

Copyright (c) 2003-2018 Texas Instruments Incorporated
Fans.asm                                                             PAGE    2

      56                    .dwattr $C$DW$5, DW_AT_declaration
      57                    .dwattr $C$DW$5, DW_AT_external
      58                    .dwattr $C$DW$5, DW_AT_decl_file("C:\ti\ccs1110\ccs\ccs_base\msp430\include\msp430f5438a.h")
      59                    .dwattr $C$DW$5, DW_AT_decl_line(0x941)
      60                    .dwattr $C$DW$5, DW_AT_decl_column(0x01)
      61            
      62            $C$DW$6 .dwtag  DW_TAG_variable
      63                    .dwattr $C$DW$6, DW_AT_name("TA0CCR2")
      64                    .dwattr $C$DW$6, DW_AT_TI_symbol_name("TA0CCR2")
      65                    .dwattr $C$DW$6, DW_AT_type(*$C$DW$T$114)
      66                    .dwattr $C$DW$6, DW_AT_declaration
      67                    .dwattr $C$DW$6, DW_AT_external
      68                    .dwattr $C$DW$6, DW_AT_decl_file("C:\ti\ccs1110\ccs\ccs_base\msp430\include\msp430f5438a.h")
      69                    .dwattr $C$DW$6, DW_AT_decl_line(0x942)
      70                    .dwattr $C$DW$6, DW_AT_decl_column(0x01)
      71            
      72            $C$DW$7 .dwtag  DW_TAG_variable
      73                    .dwattr $C$DW$7, DW_AT_name("TB0CCR5")
      74                    .dwattr $C$DW$7, DW_AT_TI_symbol_name("TB0CCR5")
      75                    .dwattr $C$DW$7, DW_AT_type(*$C$DW$T$114)
      76                    .dwattr $C$DW$7, DW_AT_declaration
      77                    .dwattr $C$DW$7, DW_AT_external
      78                    .dwattr $C$DW$7, DW_AT_decl_file("C:\ti\ccs1110\ccs\ccs_base\msp430\include\msp430f5438a.h")
      79                    .dwattr $C$DW$7, DW_AT_decl_line(0x9e6)
      80                    .dwattr $C$DW$7, DW_AT_decl_column(0x01)
      81            
      82                    .global mode
      83                    .common mode,2,2
      84            $C$DW$8 .dwtag  DW_TAG_variable
      85                    .dwattr $C$DW$8, DW_AT_name("mode")
      86                    .dwattr $C$DW$8, DW_AT_TI_symbol_name("mode")
      87                    .dwattr $C$DW$8, DW_AT_location[DW_OP_addr mode]
      88                    .dwattr $C$DW$8, DW_AT_type(*$C$DW$T$54)
      89                    .dwattr $C$DW$8, DW_AT_external
      90                    .dwattr $C$DW$8, DW_AT_decl_file("C:/Users/MCourson/workspace_v11/MZERO_HB50Board/include/Main
      91                    .dwattr $C$DW$8, DW_AT_decl_line(0x65)
      92                    .dwattr $C$DW$8, DW_AT_decl_column(0x07)
      93            
      94                    .global FCState
      95                    .common FCState,2,2
      96            $C$DW$9 .dwtag  DW_TAG_variable
      97                    .dwattr $C$DW$9, DW_AT_name("FCState")
      98                    .dwattr $C$DW$9, DW_AT_TI_symbol_name("FCState")
      99                    .dwattr $C$DW$9, DW_AT_location[DW_OP_addr FCState]
     100                    .dwattr $C$DW$9, DW_AT_type(*$C$DW$T$56)
     101                    .dwattr $C$DW$9, DW_AT_external
     102                    .dwattr $C$DW$9, DW_AT_decl_file("C:/Users/MCourson/workspace_v11/MZERO_HB50Board/include/Main
     103                    .dwattr $C$DW$9, DW_AT_decl_line(0x6d)
     104                    .dwattr $C$DW$9, DW_AT_decl_column(0x0a)
     105            
     106                    .global msgstatus
     107                    .common msgstatus,2,2
     108            $C$DW$10        .dwtag  DW_TAG_variable
     109                    .dwattr $C$DW$10, DW_AT_name("msgstatus")
     110                    .dwattr $C$DW$10, DW_AT_TI_symbol_name("msgstatus")
MSP430 Assembler PC v21.6.1 Tue Dec 20 13:45:58 2022

Copyright (c) 2003-2018 Texas Instruments Incorporated
Fans.asm                                                             PAGE    3

     111                    .dwattr $C$DW$10, DW_AT_location[DW_OP_addr msgstatus]
     112                    .dwattr $C$DW$10, DW_AT_type(*$C$DW$T$58)
     113                    .dwattr $C$DW$10, DW_AT_external
     114                    .dwattr $C$DW$10, DW_AT_decl_file("C:/Users/MCourson/workspace_v11/MZERO_HB50Board/include/Mai
     115                    .dwattr $C$DW$10, DW_AT_decl_line(0x7c)
     116                    .dwattr $C$DW$10, DW_AT_decl_column(0x0f)
     117            
     118                    .global status
     119                    .common status,2,2
     120            $C$DW$11        .dwtag  DW_TAG_variable
     121                    .dwattr $C$DW$11, DW_AT_name("status")
     122                    .dwattr $C$DW$11, DW_AT_TI_symbol_name("status")
     123                    .dwattr $C$DW$11, DW_AT_location[DW_OP_addr status]
     124                    .dwattr $C$DW$11, DW_AT_type(*$C$DW$T$60)
     125                    .dwattr $C$DW$11, DW_AT_external
     126                    .dwattr $C$DW$11, DW_AT_decl_file("C:/Users/MCourson/workspace_v11/MZERO_HB50Board/include/Mai
     127                    .dwattr $C$DW$11, DW_AT_decl_line(0x83)
     128                    .dwattr $C$DW$11, DW_AT_decl_column(0x0e)
     129            
     130            $C$DW$12        .dwtag  DW_TAG_variable
     131                    .dwattr $C$DW$12, DW_AT_name("TC1_temp")
     132                    .dwattr $C$DW$12, DW_AT_TI_symbol_name("TC1_temp")
     133                    .dwattr $C$DW$12, DW_AT_type(*$C$DW$T$16)
     134                    .dwattr $C$DW$12, DW_AT_declaration
     135                    .dwattr $C$DW$12, DW_AT_external
     136                    .dwattr $C$DW$12, DW_AT_decl_file("../src/Fans.c")
     137                    .dwattr $C$DW$12, DW_AT_decl_line(0x12)
     138                    .dwattr $C$DW$12, DW_AT_decl_column(0x0e)
     139            
     140            $C$DW$13        .dwtag  DW_TAG_variable
     141                    .dwattr $C$DW$13, DW_AT_name("Water_Tank_temp")
     142                    .dwattr $C$DW$13, DW_AT_TI_symbol_name("Water_Tank_temp")
     143                    .dwattr $C$DW$13, DW_AT_type(*$C$DW$T$16)
     144                    .dwattr $C$DW$13, DW_AT_declaration
     145                    .dwattr $C$DW$13, DW_AT_external
     146                    .dwattr $C$DW$13, DW_AT_decl_file("../src/Fans.c")
     147                    .dwattr $C$DW$13, DW_AT_decl_line(0x13)
     148                    .dwattr $C$DW$13, DW_AT_decl_column(0x0e)
     149            
     150            $C$DW$14        .dwtag  DW_TAG_variable
     151                    .dwattr $C$DW$14, DW_AT_name("FC_power")
     152                    .dwattr $C$DW$14, DW_AT_TI_symbol_name("FC_power")
     153                    .dwattr $C$DW$14, DW_AT_type(*$C$DW$T$16)
     154                    .dwattr $C$DW$14, DW_AT_declaration
     155                    .dwattr $C$DW$14, DW_AT_external
     156                    .dwattr $C$DW$14, DW_AT_decl_file("../src/Fans.c")
     157                    .dwattr $C$DW$14, DW_AT_decl_line(0x1c)
     158                    .dwattr $C$DW$14, DW_AT_decl_column(0x0e)
     159            
     160            $C$DW$15        .dwtag  DW_TAG_variable
     161                    .dwattr $C$DW$15, DW_AT_name("fc_run_temp_max")
     162                    .dwattr $C$DW$15, DW_AT_TI_symbol_name("fc_run_temp_max")
     163                    .dwattr $C$DW$15, DW_AT_type(*$C$DW$T$10)
     164                    .dwattr $C$DW$15, DW_AT_declaration
     165                    .dwattr $C$DW$15, DW_AT_external
MSP430 Assembler PC v21.6.1 Tue Dec 20 13:45:58 2022

Copyright (c) 2003-2018 Texas Instruments Incorporated
Fans.asm                                                             PAGE    4

     166                    .dwattr $C$DW$15, DW_AT_decl_file("../src/Fans.c")
     167                    .dwattr $C$DW$15, DW_AT_decl_line(0x21)
     168                    .dwattr $C$DW$15, DW_AT_decl_column(0x0c)
     169            
     170            $C$DW$16        .dwtag  DW_TAG_variable
     171                    .dwattr $C$DW$16, DW_AT_name("bFC")
     172                    .dwattr $C$DW$16, DW_AT_TI_symbol_name("bFC")
     173                    .dwattr $C$DW$16, DW_AT_type(*$C$DW$T$16)
     174                    .dwattr $C$DW$16, DW_AT_declaration
     175                    .dwattr $C$DW$16, DW_AT_external
     176                    .dwattr $C$DW$16, DW_AT_decl_file("../src/Fans.c")
     177                    .dwattr $C$DW$16, DW_AT_decl_line(0x3c)
     178                    .dwattr $C$DW$16, DW_AT_decl_column(0x0e)
     179            
     180            $C$DW$17        .dwtag  DW_TAG_variable
     181                    .dwattr $C$DW$17, DW_AT_name("FC_FAN_PWM_speed_GUI")
     182                    .dwattr $C$DW$17, DW_AT_TI_symbol_name("FC_FAN_PWM_speed_GUI")
     183                    .dwattr $C$DW$17, DW_AT_type(*$C$DW$T$11)
     184                    .dwattr $C$DW$17, DW_AT_declaration
     185                    .dwattr $C$DW$17, DW_AT_external
     186                    .dwattr $C$DW$17, DW_AT_decl_file("../src/Fans.c")
     187                    .dwattr $C$DW$17, DW_AT_decl_line(0x3d)
     188                    .dwattr $C$DW$17, DW_AT_decl_column(0x15)
     189            
     190            $C$DW$18        .dwtag  DW_TAG_variable
     191                    .dwattr $C$DW$18, DW_AT_name("AUX_fan_speed_GUI")
     192                    .dwattr $C$DW$18, DW_AT_TI_symbol_name("AUX_fan_speed_GUI")
     193                    .dwattr $C$DW$18, DW_AT_type(*$C$DW$T$10)
     194                    .dwattr $C$DW$18, DW_AT_declaration
     195                    .dwattr $C$DW$18, DW_AT_external
     196                    .dwattr $C$DW$18, DW_AT_decl_file("../src/Fans.c")
     197                    .dwattr $C$DW$18, DW_AT_decl_line(0x3e)
     198                    .dwattr $C$DW$18, DW_AT_decl_column(0x0c)
     199            
     200                    .global FCTKp
     201                    .common FCTKp,4,2
     202            $C$DW$19        .dwtag  DW_TAG_variable
     203                    .dwattr $C$DW$19, DW_AT_name("FCTKp")
     204                    .dwattr $C$DW$19, DW_AT_TI_symbol_name("FCTKp")
     205                    .dwattr $C$DW$19, DW_AT_location[DW_OP_addr FCTKp]
     206                    .dwattr $C$DW$19, DW_AT_type(*$C$DW$T$16)
     207                    .dwattr $C$DW$19, DW_AT_external
     208                    .dwattr $C$DW$19, DW_AT_decl_file("../src/Fans.c")
     209                    .dwattr $C$DW$19, DW_AT_decl_line(0x4c)
     210                    .dwattr $C$DW$19, DW_AT_decl_column(0x07)
     211            
     212                    .global FCTKi
     213 000000               .data
     214                    .align  2
     215                    .elfsym FCTKi,SYM_SIZE(4)
     216 000000       FCTKi:
     217 000000 0000          .float          $strtod("0x0p+0")               ; FCTKi @ 0
         000002 0000 
     218            
     219            $C$DW$20        .dwtag  DW_TAG_variable
MSP430 Assembler PC v21.6.1 Tue Dec 20 13:45:58 2022

Copyright (c) 2003-2018 Texas Instruments Incorporated
Fans.asm                                                             PAGE    5

     220                    .dwattr $C$DW$20, DW_AT_name("FCTKi")
     221                    .dwattr $C$DW$20, DW_AT_TI_symbol_name("FCTKi")
     222                    .dwattr $C$DW$20, DW_AT_location[DW_OP_addr FCTKi]
     223                    .dwattr $C$DW$20, DW_AT_type(*$C$DW$T$16)
     224                    .dwattr $C$DW$20, DW_AT_external
     225                    .dwattr $C$DW$20, DW_AT_decl_file("../src/Fans.c")
     226                    .dwattr $C$DW$20, DW_AT_decl_line(0x4c)
     227                    .dwattr $C$DW$20, DW_AT_decl_column(0x0e)
     228            
     229                    .global FCTKd
     230 000004               .data
     231                    .align  2
     232                    .elfsym FCTKd,SYM_SIZE(4)
     233 000004       FCTKd:
     234 000004 0000          .float          $strtod("0x0p+0")               ; FCTKd @ 0
         000006 0000 
     235            
     236            $C$DW$21        .dwtag  DW_TAG_variable
     237                    .dwattr $C$DW$21, DW_AT_name("FCTKd")
     238                    .dwattr $C$DW$21, DW_AT_TI_symbol_name("FCTKd")
     239                    .dwattr $C$DW$21, DW_AT_location[DW_OP_addr FCTKd]
     240                    .dwattr $C$DW$21, DW_AT_type(*$C$DW$T$16)
     241                    .dwattr $C$DW$21, DW_AT_external
     242                    .dwattr $C$DW$21, DW_AT_decl_file("../src/Fans.c")
     243                    .dwattr $C$DW$21, DW_AT_decl_line(0x4c)
     244                    .dwattr $C$DW$21, DW_AT_decl_column(0x17)
     245            
     246                    .global FCTerror
     247                    .common FCTerror,2,2
     248            $C$DW$22        .dwtag  DW_TAG_variable
     249                    .dwattr $C$DW$22, DW_AT_name("FCTerror")
     250                    .dwattr $C$DW$22, DW_AT_TI_symbol_name("FCTerror")
     251                    .dwattr $C$DW$22, DW_AT_location[DW_OP_addr FCTerror]
     252                    .dwattr $C$DW$22, DW_AT_type(*$C$DW$T$10)
     253                    .dwattr $C$DW$22, DW_AT_external
     254                    .dwattr $C$DW$22, DW_AT_decl_file("../src/Fans.c")
     255                    .dwattr $C$DW$22, DW_AT_decl_line(0x4d)
     256                    .dwattr $C$DW$22, DW_AT_decl_column(0x05)
     257            
     258                    .global FCTintegral
     259                    .common FCTintegral,2,2
     260            $C$DW$23        .dwtag  DW_TAG_variable
     261                    .dwattr $C$DW$23, DW_AT_name("FCTintegral")
     262                    .dwattr $C$DW$23, DW_AT_TI_symbol_name("FCTintegral")
     263                    .dwattr $C$DW$23, DW_AT_location[DW_OP_addr FCTintegral]
     264                    .dwattr $C$DW$23, DW_AT_type(*$C$DW$T$10)
     265                    .dwattr $C$DW$23, DW_AT_external
     266                    .dwattr $C$DW$23, DW_AT_decl_file("../src/Fans.c")
     267                    .dwattr $C$DW$23, DW_AT_decl_line(0x4d)
     268                    .dwattr $C$DW$23, DW_AT_decl_column(0x0f)
     269            
     270                    .global FCTderivative
     271                    .common FCTderivative,2,2
     272            $C$DW$24        .dwtag  DW_TAG_variable
     273                    .dwattr $C$DW$24, DW_AT_name("FCTderivative")
MSP430 Assembler PC v21.6.1 Tue Dec 20 13:45:58 2022

Copyright (c) 2003-2018 Texas Instruments Incorporated
Fans.asm                                                             PAGE    6

     274                    .dwattr $C$DW$24, DW_AT_TI_symbol_name("FCTderivative")
     275                    .dwattr $C$DW$24, DW_AT_location[DW_OP_addr FCTderivative]
     276                    .dwattr $C$DW$24, DW_AT_type(*$C$DW$T$10)
     277                    .dwattr $C$DW$24, DW_AT_external
     278                    .dwattr $C$DW$24, DW_AT_decl_file("../src/Fans.c")
     279                    .dwattr $C$DW$24, DW_AT_decl_line(0x4d)
     280                    .dwattr $C$DW$24, DW_AT_decl_column(0x1c)
     281            
     282                    .global FCTprevious_error
     283                    .common FCTprevious_error,2,2
     284            $C$DW$25        .dwtag  DW_TAG_variable
     285                    .dwattr $C$DW$25, DW_AT_name("FCTprevious_error")
     286                    .dwattr $C$DW$25, DW_AT_TI_symbol_name("FCTprevious_error")
     287                    .dwattr $C$DW$25, DW_AT_location[DW_OP_addr FCTprevious_error]
     288                    .dwattr $C$DW$25, DW_AT_type(*$C$DW$T$10)
     289                    .dwattr $C$DW$25, DW_AT_external
     290                    .dwattr $C$DW$25, DW_AT_decl_file("../src/Fans.c")
     291                    .dwattr $C$DW$25, DW_AT_decl_line(0x4d)
     292                    .dwattr $C$DW$25, DW_AT_decl_column(0x2b)
     293            
     294                    .global isFCSFanON
     295 000008               .data
     296                    .align  1
     297                    .elfsym isFCSFanON,SYM_SIZE(1)
     298 000008       isFCSFanON:
     299 000008 0000          .bits           0,8
     300                                    ; isFCSFanON @ 0
     301            
     302            $C$DW$26        .dwtag  DW_TAG_variable
     303                    .dwattr $C$DW$26, DW_AT_name("isFCSFanON")
     304                    .dwattr $C$DW$26, DW_AT_TI_symbol_name("isFCSFanON")
     305                    .dwattr $C$DW$26, DW_AT_location[DW_OP_addr isFCSFanON]
     306                    .dwattr $C$DW$26, DW_AT_type(*$C$DW$T$24)
     307                    .dwattr $C$DW$26, DW_AT_external
     308                    .dwattr $C$DW$26, DW_AT_decl_file("../src/Fans.c")
     309                    .dwattr $C$DW$26, DW_AT_decl_line(0x58)
     310                    .dwattr $C$DW$26, DW_AT_decl_column(0x09)
     311            
     312                    .global Engage_FCSFAN_PID
     313 000009               .data
     314                    .align  1
     315                    .elfsym Engage_FCSFAN_PID,SYM_SIZE(1)
     316 000009       Engage_FCSFAN_PID:
     317 000008 0000          .bits           0,8
     318                                    ; Engage_FCSFAN_PID @ 0
     319            
     320            $C$DW$27        .dwtag  DW_TAG_variable
     321                    .dwattr $C$DW$27, DW_AT_name("Engage_FCSFAN_PID")
     322                    .dwattr $C$DW$27, DW_AT_TI_symbol_name("Engage_FCSFAN_PID")
     323                    .dwattr $C$DW$27, DW_AT_location[DW_OP_addr Engage_FCSFAN_PID]
     324                    .dwattr $C$DW$27, DW_AT_type(*$C$DW$T$24)
     325                    .dwattr $C$DW$27, DW_AT_external
     326                    .dwattr $C$DW$27, DW_AT_decl_file("../src/Fans.c")
     327                    .dwattr $C$DW$27, DW_AT_decl_line(0x59)
     328                    .dwattr $C$DW$27, DW_AT_decl_column(0x09)
MSP430 Assembler PC v21.6.1 Tue Dec 20 13:45:58 2022

Copyright (c) 2003-2018 Texas Instruments Incorporated
Fans.asm                                                             PAGE    7

     329            
     330                    .global ff
     331 00000a               .data
     332                    .align  2
     333                    .elfsym ff,SYM_SIZE(2)
     334 00000a       ff:
     335 00000a 0000          .bits           0,16
     336                                    ; ff @ 0
     337            
     338            $C$DW$28        .dwtag  DW_TAG_variable
     339                    .dwattr $C$DW$28, DW_AT_name("ff")
     340                    .dwattr $C$DW$28, DW_AT_TI_symbol_name("ff")
     341                    .dwattr $C$DW$28, DW_AT_location[DW_OP_addr ff]
     342                    .dwattr $C$DW$28, DW_AT_type(*$C$DW$T$10)
     343                    .dwattr $C$DW$28, DW_AT_external
     344                    .dwattr $C$DW$28, DW_AT_decl_file("../src/Fans.c")
     345                    .dwattr $C$DW$28, DW_AT_decl_line(0x5a)
     346                    .dwattr $C$DW$28, DW_AT_decl_column(0x05)
     347            
     348                    .global exhaust_blower_pulse
     349 00000c               .data
     350                    .align  2
     351                    .elfsym exhaust_blower_pulse,SYM_SIZE(2)
     352 00000c       exhaust_blower_pulse:
     353 00000c 0000          .bits           0,16
     354                                    ; exhaust_blower_pulse @ 0
     355            
     356            $C$DW$29        .dwtag  DW_TAG_variable
     357                    .dwattr $C$DW$29, DW_AT_name("exhaust_blower_pulse")
     358                    .dwattr $C$DW$29, DW_AT_TI_symbol_name("exhaust_blower_pulse")
     359                    .dwattr $C$DW$29, DW_AT_location[DW_OP_addr exhaust_blower_pulse]
     360                    .dwattr $C$DW$29, DW_AT_type(*$C$DW$T$10)
     361                    .dwattr $C$DW$29, DW_AT_external
     362                    .dwattr $C$DW$29, DW_AT_decl_file("../src/Fans.c")
     363                    .dwattr $C$DW$29, DW_AT_decl_line(0x5c)
     364                    .dwattr $C$DW$29, DW_AT_decl_column(0x05)
     365            
     366                    .global exhaust_fan_pulse
     367 00000e               .data
     368                    .align  2
     369                    .elfsym exhaust_fan_pulse,SYM_SIZE(2)
     370 00000e       exhaust_fan_pulse:
     371 00000e 0000          .bits           0,16
     372                                    ; exhaust_fan_pulse @ 0
     373            
     374            $C$DW$30        .dwtag  DW_TAG_variable
     375                    .dwattr $C$DW$30, DW_AT_name("exhaust_fan_pulse")
     376                    .dwattr $C$DW$30, DW_AT_TI_symbol_name("exhaust_fan_pulse")
     377                    .dwattr $C$DW$30, DW_AT_location[DW_OP_addr exhaust_fan_pulse]
     378                    .dwattr $C$DW$30, DW_AT_type(*$C$DW$T$10)
     379                    .dwattr $C$DW$30, DW_AT_external
     380                    .dwattr $C$DW$30, DW_AT_decl_file("../src/Fans.c")
     381                    .dwattr $C$DW$30, DW_AT_decl_line(0x5d)
     382                    .dwattr $C$DW$30, DW_AT_decl_column(0x05)
     383            
MSP430 Assembler PC v21.6.1 Tue Dec 20 13:45:58 2022

Copyright (c) 2003-2018 Texas Instruments Incorporated
Fans.asm                                                             PAGE    8

     384                    .global FCSFan_pulse
     385 000010               .data
     386                    .align  2
     387                    .elfsym FCSFan_pulse,SYM_SIZE(2)
     388 000010       FCSFan_pulse:
     389 000010 0000          .bits           0,16
     390                                    ; FCSFan_pulse @ 0
     391            
     392            $C$DW$31        .dwtag  DW_TAG_variable
     393                    .dwattr $C$DW$31, DW_AT_name("FCSFan_pulse")
     394                    .dwattr $C$DW$31, DW_AT_TI_symbol_name("FCSFan_pulse")
     395                    .dwattr $C$DW$31, DW_AT_location[DW_OP_addr FCSFan_pulse]
     396                    .dwattr $C$DW$31, DW_AT_type(*$C$DW$T$10)
     397                    .dwattr $C$DW$31, DW_AT_external
     398                    .dwattr $C$DW$31, DW_AT_decl_file("../src/Fans.c")
     399                    .dwattr $C$DW$31, DW_AT_decl_line(0x5e)
     400                    .dwattr $C$DW$31, DW_AT_decl_column(0x05)
     401            
     402                    .global TurnFansOff
     403 000012               .data
     404                    .align  1
     405                    .elfsym TurnFansOff,SYM_SIZE(1)
     406 000012       TurnFansOff:
     407 000012 0000          .bits           0,8
     408                                    ; TurnFansOff @ 0
     409            
     410            $C$DW$32        .dwtag  DW_TAG_variable
     411                    .dwattr $C$DW$32, DW_AT_name("TurnFansOff")
     412                    .dwattr $C$DW$32, DW_AT_TI_symbol_name("TurnFansOff")
     413                    .dwattr $C$DW$32, DW_AT_location[DW_OP_addr TurnFansOff]
     414                    .dwattr $C$DW$32, DW_AT_type(*$C$DW$T$24)
     415                    .dwattr $C$DW$32, DW_AT_external
     416                    .dwattr $C$DW$32, DW_AT_decl_file("../src/Fans.c")
     417                    .dwattr $C$DW$32, DW_AT_decl_line(0x5f)
     418                    .dwattr $C$DW$32, DW_AT_decl_column(0x09)
     419            
     420                    .global Blower_Speed
     421                    .common Blower_Speed,2,2
     422            $C$DW$33        .dwtag  DW_TAG_variable
     423                    .dwattr $C$DW$33, DW_AT_name("Blower_Speed")
     424                    .dwattr $C$DW$33, DW_AT_TI_symbol_name("Blower_Speed")
     425                    .dwattr $C$DW$33, DW_AT_location[DW_OP_addr Blower_Speed]
     426                    .dwattr $C$DW$33, DW_AT_type(*$C$DW$T$10)
     427                    .dwattr $C$DW$33, DW_AT_external
     428                    .dwattr $C$DW$33, DW_AT_decl_file("../src/Fans.c")
     429                    .dwattr $C$DW$33, DW_AT_decl_line(0x60)
     430                    .dwattr $C$DW$33, DW_AT_decl_column(0x05)
     431            
     432                    .global Fan_Speed
     433                    .common Fan_Speed,2,2
     434            $C$DW$34        .dwtag  DW_TAG_variable
     435                    .dwattr $C$DW$34, DW_AT_name("Fan_Speed")
     436                    .dwattr $C$DW$34, DW_AT_TI_symbol_name("Fan_Speed")
     437                    .dwattr $C$DW$34, DW_AT_location[DW_OP_addr Fan_Speed]
     438                    .dwattr $C$DW$34, DW_AT_type(*$C$DW$T$10)
MSP430 Assembler PC v21.6.1 Tue Dec 20 13:45:58 2022

Copyright (c) 2003-2018 Texas Instruments Incorporated
Fans.asm                                                             PAGE    9

     439                    .dwattr $C$DW$34, DW_AT_external
     440                    .dwattr $C$DW$34, DW_AT_decl_file("../src/Fans.c")
     441                    .dwattr $C$DW$34, DW_AT_decl_line(0x61)
     442                    .dwattr $C$DW$34, DW_AT_decl_column(0x05)
     443            
     444                    .global Fan3_Counts
     445 000013               .data
     446                    .align  2
     447                    .elfsym Fan3_Counts,SYM_SIZE(2)
     448 000014       Fan3_Counts:
     449 000014 0000          .bits           0,16
     450                                    ; Fan3_Counts @ 0
     451            
     452            $C$DW$35        .dwtag  DW_TAG_variable
     453                    .dwattr $C$DW$35, DW_AT_name("Fan3_Counts")
     454                    .dwattr $C$DW$35, DW_AT_TI_symbol_name("Fan3_Counts")
     455                    .dwattr $C$DW$35, DW_AT_location[DW_OP_addr Fan3_Counts]
     456                    .dwattr $C$DW$35, DW_AT_type(*$C$DW$T$10)
     457                    .dwattr $C$DW$35, DW_AT_external
     458                    .dwattr $C$DW$35, DW_AT_decl_file("../src/Fans.c")
     459                    .dwattr $C$DW$35, DW_AT_decl_line(0x63)
     460                    .dwattr $C$DW$35, DW_AT_decl_column(0x05)
     461            
     462                    .global FC_FAN_PWM_temp
     463 000016               .data
     464                    .align  2
     465                    .elfsym FC_FAN_PWM_temp,SYM_SIZE(2)
     466 000016       FC_FAN_PWM_temp:
     467 000016 0000          .bits           0,16
     468                                    ; FC_FAN_PWM_temp @ 0
     469            
     470            $C$DW$36        .dwtag  DW_TAG_variable
     471                    .dwattr $C$DW$36, DW_AT_name("FC_FAN_PWM_temp")
     472                    .dwattr $C$DW$36, DW_AT_TI_symbol_name("FC_FAN_PWM_temp")
     473                    .dwattr $C$DW$36, DW_AT_location[DW_OP_addr FC_FAN_PWM_temp]
     474                    .dwattr $C$DW$36, DW_AT_type(*$C$DW$T$10)
     475                    .dwattr $C$DW$36, DW_AT_external
     476                    .dwattr $C$DW$36, DW_AT_decl_file("../src/Fans.c")
     477                    .dwattr $C$DW$36, DW_AT_decl_line(0x64)
     478                    .dwattr $C$DW$36, DW_AT_decl_column(0x05)
     479            
     480                    .global condenser_fan_speed
     481 000018               .data
     482                    .align  2
     483                    .elfsym condenser_fan_speed,SYM_SIZE(2)
     484 000018       condenser_fan_speed:
     485 000018 0000          .bits           0,16
     486                                    ; condenser_fan_speed @ 0
     487            
     488            $C$DW$37        .dwtag  DW_TAG_variable
     489                    .dwattr $C$DW$37, DW_AT_name("condenser_fan_speed")
     490                    .dwattr $C$DW$37, DW_AT_TI_symbol_name("condenser_fan_speed")
     491                    .dwattr $C$DW$37, DW_AT_location[DW_OP_addr condenser_fan_speed]
     492                    .dwattr $C$DW$37, DW_AT_type(*$C$DW$T$10)
     493                    .dwattr $C$DW$37, DW_AT_external
MSP430 Assembler PC v21.6.1 Tue Dec 20 13:45:58 2022

Copyright (c) 2003-2018 Texas Instruments Incorporated
Fans.asm                                                             PAGE   10

     494                    .dwattr $C$DW$37, DW_AT_decl_file("../src/Fans.c")
     495                    .dwattr $C$DW$37, DW_AT_decl_line(0x65)
     496                    .dwattr $C$DW$37, DW_AT_decl_column(0x05)
     497            
     498                    .global exhaust_fan_speed
     499 00001a               .data
     500                    .align  2
     501                    .elfsym exhaust_fan_speed,SYM_SIZE(2)
     502 00001a       exhaust_fan_speed:
     503 00001a 0000          .bits           0,16
     504                                    ; exhaust_fan_speed @ 0
     505            
     506            $C$DW$38        .dwtag  DW_TAG_variable
     507                    .dwattr $C$DW$38, DW_AT_name("exhaust_fan_speed")
     508                    .dwattr $C$DW$38, DW_AT_TI_symbol_name("exhaust_fan_speed")
     509                    .dwattr $C$DW$38, DW_AT_location[DW_OP_addr exhaust_fan_speed]
     510                    .dwattr $C$DW$38, DW_AT_type(*$C$DW$T$10)
     511                    .dwattr $C$DW$38, DW_AT_external
     512                    .dwattr $C$DW$38, DW_AT_decl_file("../src/Fans.c")
     513                    .dwattr $C$DW$38, DW_AT_decl_line(0x66)
     514                    .dwattr $C$DW$38, DW_AT_decl_column(0x05)
     515            
     516            $C$DW$39        .dwtag  DW_TAG_variable
     517                    .dwattr $C$DW$39, DW_AT_name("Water_lvl")
     518                    .dwattr $C$DW$39, DW_AT_TI_symbol_name("Water_lvl")
     519                    .dwattr $C$DW$39, DW_AT_type(*$C$DW$T$10)
     520                    .dwattr $C$DW$39, DW_AT_declaration
     521                    .dwattr $C$DW$39, DW_AT_external
     522                    .dwattr $C$DW$39, DW_AT_decl_file("../src/Fans.c")
     523                    .dwattr $C$DW$39, DW_AT_decl_line(0x67)
     524                    .dwattr $C$DW$39, DW_AT_decl_column(0x0c)
     525            
     526            $C$DW$40        .dwtag  DW_TAG_variable
     527                    .dwattr $C$DW$40, DW_AT_name("Warming")
     528                    .dwattr $C$DW$40, DW_AT_TI_symbol_name("Warming")
     529                    .dwattr $C$DW$40, DW_AT_type(*$C$DW$T$24)
     530                    .dwattr $C$DW$40, DW_AT_declaration
     531                    .dwattr $C$DW$40, DW_AT_external
     532                    .dwattr $C$DW$40, DW_AT_decl_file("../src/Fans.c")
     533                    .dwattr $C$DW$40, DW_AT_decl_line(0x69)
     534                    .dwattr $C$DW$40, DW_AT_decl_column(0x10)
     535            
     536                    .global FC_atWarmingTemp
     537 00001c               .data
     538                    .align  1
     539                    .elfsym FC_atWarmingTemp,SYM_SIZE(1)
     540 00001c       FC_atWarmingTemp:
     541 00001c 0000          .bits           0,8
     542                                    ; FC_atWarmingTemp @ 0
     543            
     544            $C$DW$41        .dwtag  DW_TAG_variable
     545                    .dwattr $C$DW$41, DW_AT_name("FC_atWarmingTemp")
     546                    .dwattr $C$DW$41, DW_AT_TI_symbol_name("FC_atWarmingTemp")
     547                    .dwattr $C$DW$41, DW_AT_location[DW_OP_addr FC_atWarmingTemp]
     548                    .dwattr $C$DW$41, DW_AT_type(*$C$DW$T$24)
MSP430 Assembler PC v21.6.1 Tue Dec 20 13:45:58 2022

Copyright (c) 2003-2018 Texas Instruments Incorporated
Fans.asm                                                             PAGE   11

     549                    .dwattr $C$DW$41, DW_AT_external
     550                    .dwattr $C$DW$41, DW_AT_decl_file("../src/Fans.c")
     551                    .dwattr $C$DW$41, DW_AT_decl_line(0x6a)
     552                    .dwattr $C$DW$41, DW_AT_decl_column(0x09)
     553            
     554            ;       C:\ti\ccs1110\ccs\tools\compiler\ti-cgt-msp430_21.6.1.LTS\bin\opt430.exe C:\\Users\\MCourson\\
     555 000000               .sect   ".text:__signbitl"
     556                    .clink
     557                    .global __signbitl
     558            
     559            $C$DW$42        .dwtag  DW_TAG_subprogram
     560                    .dwattr $C$DW$42, DW_AT_name("__signbitl")
     561                    .dwattr $C$DW$42, DW_AT_low_pc(__signbitl)
     562                    .dwattr $C$DW$42, DW_AT_high_pc(0x00)
     563                    .dwattr $C$DW$42, DW_AT_TI_symbol_name("__signbitl")
     564                    .dwattr $C$DW$42, DW_AT_external
     565                    .dwattr $C$DW$42, DW_AT_type(*$C$DW$T$10)
     566                    .dwattr $C$DW$42, DW_AT_TI_begin_file("C:/ti/ccs1110/ccs/tools/compiler/ti-cgt-msp430_21.6.1.L
     567                    .dwattr $C$DW$42, DW_AT_TI_begin_line(0x16f)
     568                    .dwattr $C$DW$42, DW_AT_TI_begin_column(0x25)
     569                    .dwattr $C$DW$42, DW_AT_decl_file("C:/ti/ccs1110/ccs/tools/compiler/ti-cgt-msp430_21.6.1.LTS/i
     570                    .dwattr $C$DW$42, DW_AT_decl_line(0x16f)
     571                    .dwattr $C$DW$42, DW_AT_decl_column(0x25)
     572                    .dwattr $C$DW$42, DW_AT_TI_max_frame_size(0x04)
     573                    .dwpsn  file "C:/ti/ccs1110/ccs/tools/compiler/ti-cgt-msp430_21.6.1.LTS/include/_defs.h",line 
     574            
     575                    .dwfde $C$DW$CIE, __signbitl
     576            $C$DW$43        .dwtag  DW_TAG_formal_parameter
     577                    .dwattr $C$DW$43, DW_AT_name("e")
     578                    .dwattr $C$DW$43, DW_AT_TI_symbol_name("e")
     579                    .dwattr $C$DW$43, DW_AT_type(*$C$DW$T$18)
     580                    .dwattr $C$DW$43, DW_AT_location[DW_OP_reg12 DW_OP_piece 2 DW_OP_reg13 DW_OP_piece 2 DW_OP_reg
     581            
     582            
     583            ;*****************************************************************************
     584            ;* FUNCTION NAME: __signbitl                                                 *
     585            ;*                                                                           *
     586            ;*   Regs Modified     : SP,SR,r11,r12,r13,r14,r15                           *
     587            ;*   Regs Used         : SP,SR,r11,r12,r13,r14,r15                           *
     588            ;*   Local Frame Size  : 0 Args + 0 Auto + 0 Save = 0 byte                   *
     589            ;*****************************************************************************
     590 000000       __signbitl:
     591            ;* --------------------------------------------------------------------------*
     592                    .dwcfi  cfa_offset, 4
     593                    .dwcfi  save_reg_to_mem, 16, -4
     594                    .dwpsn  file "C:/ti/ccs1110/ccs/tools/compiler/ti-cgt-msp430_21.6.1.LTS/include/_defs.h",line 
     595 000000 430B          MOV.W     #0,r11                ; [] |368| 
     596 000002 F30C          AND.W     #0,r12                ; [] |368| 
     597 000004 F30D          AND.W     #0,r13                ; [] |368| 
     598 000006 F30E          AND.W     #0,r14                ; [] |368| 
     599 000008 F03F          AND.W     #32768,r15            ; [] |368| 
         00000a 8000 
     600 00000c 930F          TST.W     r15                   ; [] |368| 
     601 00000e 2006          JNE       $C$L1                 ; [] |368| 
     602                                                      ; [] |368| 
MSP430 Assembler PC v21.6.1 Tue Dec 20 13:45:58 2022

Copyright (c) 2003-2018 Texas Instruments Incorporated
Fans.asm                                                             PAGE   12

     603            ;* --------------------------------------------------------------------------*
     604 000010 930E          TST.W     r14                   ; [] |368| 
     605 000012 2004          JNE       $C$L1                 ; [] |368| 
     606                                                      ; [] |368| 
     607            ;* --------------------------------------------------------------------------*
     608 000014 930D          TST.W     r13                   ; [] |368| 
     609 000016 2002          JNE       $C$L1                 ; [] |368| 
     610                                                      ; [] |368| 
     611            ;* --------------------------------------------------------------------------*
     612 000018 930C          TST.W     r12                   ; [] |368| 
     613 00001a 2401          JEQ       $C$L2                 ; [] |368| 
     614                                                      ; [] |368| 
     615            ;* --------------------------------------------------------------------------*
     616 00001c       $C$L1:    
     617 00001c 431B          MOV.W     #1,r11                ; [] |368| 
     618            ;* --------------------------------------------------------------------------*
     619 00001e       $C$L2:    
     620 00001e 0BCC          MOVA      r11,r12               ; [] |368| 
     621                    .dwpsn  file "C:/ti/ccs1110/ccs/tools/compiler/ti-cgt-msp430_21.6.1.LTS/include/_defs.h",line 
     622            $C$DW$44        .dwtag  DW_TAG_TI_branch
     623                    .dwattr $C$DW$44, DW_AT_low_pc(0x00)
     624                    .dwattr $C$DW$44, DW_AT_TI_return
     625            
     626 000020 0110          RETA      ; [] 
     627                    ; [] 
     628                    .dwattr $C$DW$42, DW_AT_TI_end_file("C:/ti/ccs1110/ccs/tools/compiler/ti-cgt-msp430_21.6.1.LTS
     629                    .dwattr $C$DW$42, DW_AT_TI_end_line(0x170)
     630                    .dwattr $C$DW$42, DW_AT_TI_end_column(0x2b)
     631                    .dwendentry
     632                    .dwendtag $C$DW$42
     633            
     634 000000               .sect   ".text:__signbitf"
     635                    .clink
     636                    .global __signbitf
     637            
     638            $C$DW$45        .dwtag  DW_TAG_subprogram
     639                    .dwattr $C$DW$45, DW_AT_name("__signbitf")
     640                    .dwattr $C$DW$45, DW_AT_low_pc(__signbitf)
     641                    .dwattr $C$DW$45, DW_AT_high_pc(0x00)
     642                    .dwattr $C$DW$45, DW_AT_TI_symbol_name("__signbitf")
     643                    .dwattr $C$DW$45, DW_AT_external
     644                    .dwattr $C$DW$45, DW_AT_type(*$C$DW$T$10)
     645                    .dwattr $C$DW$45, DW_AT_TI_begin_file("C:/ti/ccs1110/ccs/tools/compiler/ti-cgt-msp430_21.6.1.L
     646                    .dwattr $C$DW$45, DW_AT_TI_begin_line(0x16d)
     647                    .dwattr $C$DW$45, DW_AT_TI_begin_column(0x25)
     648                    .dwattr $C$DW$45, DW_AT_decl_file("C:/ti/ccs1110/ccs/tools/compiler/ti-cgt-msp430_21.6.1.LTS/i
     649                    .dwattr $C$DW$45, DW_AT_decl_line(0x16d)
     650                    .dwattr $C$DW$45, DW_AT_decl_column(0x25)
     651                    .dwattr $C$DW$45, DW_AT_TI_max_frame_size(0x04)
     652                    .dwpsn  file "C:/ti/ccs1110/ccs/tools/compiler/ti-cgt-msp430_21.6.1.LTS/include/_defs.h",line 
     653            
     654                    .dwfde $C$DW$CIE, __signbitf
     655            $C$DW$46        .dwtag  DW_TAG_formal_parameter
     656                    .dwattr $C$DW$46, DW_AT_name("f")
     657                    .dwattr $C$DW$46, DW_AT_TI_symbol_name("f")
MSP430 Assembler PC v21.6.1 Tue Dec 20 13:45:58 2022

Copyright (c) 2003-2018 Texas Instruments Incorporated
Fans.asm                                                             PAGE   13

     658                    .dwattr $C$DW$46, DW_AT_type(*$C$DW$T$16)
     659                    .dwattr $C$DW$46, DW_AT_location[DW_OP_reg12 DW_OP_piece 2 DW_OP_reg13 DW_OP_piece 2]
     660            
     661            
     662            ;*****************************************************************************
     663            ;* FUNCTION NAME: __signbitf                                                 *
     664            ;*                                                                           *
     665            ;*   Regs Modified     : SP,SR,r12                                           *
     666            ;*   Regs Used         : SP,SR,r12,r13                                       *
     667            ;*   Local Frame Size  : 0 Args + 0 Auto + 0 Save = 0 byte                   *
     668            ;*****************************************************************************
     669 000000       __signbitf:
     670            ;* --------------------------------------------------------------------------*
     671                    .dwcfi  cfa_offset, 4
     672                    .dwcfi  save_reg_to_mem, 16, -4
     673                    .dwpsn  file "C:/ti/ccs1110/ccs/tools/compiler/ti-cgt-msp430_21.6.1.LTS/include/_defs.h",line 
     674 000000 430C          MOV.W     #0,r12                ; [] |366| 
     675 000002 930D          TST.W     r13                   ; [] |366| 
     676 000004 3401          JGE       $C$L3                 ; [] |366| 
     677                                                      ; [] |366| 
     678            ;* --------------------------------------------------------------------------*
     679 000006 431C          MOV.W     #1,r12                ; [] |366| 
     680            ;* --------------------------------------------------------------------------*
     681 000008       $C$L3:    
     682                    .dwpsn  file "C:/ti/ccs1110/ccs/tools/compiler/ti-cgt-msp430_21.6.1.LTS/include/_defs.h",line 
     683            $C$DW$47        .dwtag  DW_TAG_TI_branch
     684                    .dwattr $C$DW$47, DW_AT_low_pc(0x00)
     685                    .dwattr $C$DW$47, DW_AT_TI_return
     686            
     687 000008 0110          RETA      ; [] 
     688                    ; [] 
     689                    .dwattr $C$DW$45, DW_AT_TI_end_file("C:/ti/ccs1110/ccs/tools/compiler/ti-cgt-msp430_21.6.1.LTS
     690                    .dwattr $C$DW$45, DW_AT_TI_end_line(0x16e)
     691                    .dwattr $C$DW$45, DW_AT_TI_end_column(0x29)
     692                    .dwendentry
     693                    .dwendtag $C$DW$45
     694            
     695 000000               .sect   ".text:__signbit"
     696                    .clink
     697                    .global __signbit
     698            
     699            $C$DW$48        .dwtag  DW_TAG_subprogram
     700                    .dwattr $C$DW$48, DW_AT_name("__signbit")
     701                    .dwattr $C$DW$48, DW_AT_low_pc(__signbit)
     702                    .dwattr $C$DW$48, DW_AT_high_pc(0x00)
     703                    .dwattr $C$DW$48, DW_AT_TI_symbol_name("__signbit")
     704                    .dwattr $C$DW$48, DW_AT_external
     705                    .dwattr $C$DW$48, DW_AT_type(*$C$DW$T$10)
     706                    .dwattr $C$DW$48, DW_AT_TI_begin_file("C:/ti/ccs1110/ccs/tools/compiler/ti-cgt-msp430_21.6.1.L
     707                    .dwattr $C$DW$48, DW_AT_TI_begin_line(0x16b)
     708                    .dwattr $C$DW$48, DW_AT_TI_begin_column(0x25)
     709                    .dwattr $C$DW$48, DW_AT_decl_file("C:/ti/ccs1110/ccs/tools/compiler/ti-cgt-msp430_21.6.1.LTS/i
     710                    .dwattr $C$DW$48, DW_AT_decl_line(0x16b)
     711                    .dwattr $C$DW$48, DW_AT_decl_column(0x25)
     712                    .dwattr $C$DW$48, DW_AT_TI_max_frame_size(0x04)
MSP430 Assembler PC v21.6.1 Tue Dec 20 13:45:58 2022

Copyright (c) 2003-2018 Texas Instruments Incorporated
Fans.asm                                                             PAGE   14

     713                    .dwpsn  file "C:/ti/ccs1110/ccs/tools/compiler/ti-cgt-msp430_21.6.1.LTS/include/_defs.h",line 
     714            
     715                    .dwfde $C$DW$CIE, __signbit
     716            $C$DW$49        .dwtag  DW_TAG_formal_parameter
     717                    .dwattr $C$DW$49, DW_AT_name("d")
     718                    .dwattr $C$DW$49, DW_AT_TI_symbol_name("d")
     719                    .dwattr $C$DW$49, DW_AT_type(*$C$DW$T$17)
     720                    .dwattr $C$DW$49, DW_AT_location[DW_OP_reg12 DW_OP_piece 2 DW_OP_reg13 DW_OP_piece 2 DW_OP_reg
     721            
     722            
     723            ;*****************************************************************************
     724            ;* FUNCTION NAME: __signbit                                                  *
     725            ;*                                                                           *
     726            ;*   Regs Modified     : SP,SR,r11,r12,r13,r14,r15                           *
     727            ;*   Regs Used         : SP,SR,r11,r12,r13,r14,r15                           *
     728            ;*   Local Frame Size  : 0 Args + 0 Auto + 0 Save = 0 byte                   *
     729            ;*****************************************************************************
     730 000000       __signbit:
     731            ;* --------------------------------------------------------------------------*
     732                    .dwcfi  cfa_offset, 4
     733                    .dwcfi  save_reg_to_mem, 16, -4
     734                    .dwpsn  file "C:/ti/ccs1110/ccs/tools/compiler/ti-cgt-msp430_21.6.1.LTS/include/_defs.h",line 
     735 000000 430B          MOV.W     #0,r11                ; [] |364| 
     736 000002 F30C          AND.W     #0,r12                ; [] |364| 
     737 000004 F30D          AND.W     #0,r13                ; [] |364| 
     738 000006 F30E          AND.W     #0,r14                ; [] |364| 
     739 000008 F03F          AND.W     #32768,r15            ; [] |364| 
         00000a 8000 
     740 00000c 930F          TST.W     r15                   ; [] |364| 
     741 00000e 2006          JNE       $C$L4                 ; [] |364| 
     742                                                      ; [] |364| 
     743            ;* --------------------------------------------------------------------------*
     744 000010 930E          TST.W     r14                   ; [] |364| 
     745 000012 2004          JNE       $C$L4                 ; [] |364| 
     746                                                      ; [] |364| 
     747            ;* --------------------------------------------------------------------------*
     748 000014 930D          TST.W     r13                   ; [] |364| 
     749 000016 2002          JNE       $C$L4                 ; [] |364| 
     750                                                      ; [] |364| 
     751            ;* --------------------------------------------------------------------------*
     752 000018 930C          TST.W     r12                   ; [] |364| 
     753 00001a 2401          JEQ       $C$L5                 ; [] |364| 
     754                                                      ; [] |364| 
     755            ;* --------------------------------------------------------------------------*
     756 00001c       $C$L4:    
     757 00001c 431B          MOV.W     #1,r11                ; [] |364| 
     758            ;* --------------------------------------------------------------------------*
     759 00001e       $C$L5:    
     760 00001e 0BCC          MOVA      r11,r12               ; [] |364| 
     761                    .dwpsn  file "C:/ti/ccs1110/ccs/tools/compiler/ti-cgt-msp430_21.6.1.LTS/include/_defs.h",line 
     762            $C$DW$50        .dwtag  DW_TAG_TI_branch
     763                    .dwattr $C$DW$50, DW_AT_low_pc(0x00)
     764                    .dwattr $C$DW$50, DW_AT_TI_return
     765            
     766 000020 0110          RETA      ; [] 
MSP430 Assembler PC v21.6.1 Tue Dec 20 13:45:58 2022

Copyright (c) 2003-2018 Texas Instruments Incorporated
Fans.asm                                                             PAGE   15

     767                    ; [] 
     768                    .dwattr $C$DW$48, DW_AT_TI_end_file("C:/ti/ccs1110/ccs/tools/compiler/ti-cgt-msp430_21.6.1.LTS
     769                    .dwattr $C$DW$48, DW_AT_TI_end_line(0x16c)
     770                    .dwattr $C$DW$48, DW_AT_TI_end_column(0x2a)
     771                    .dwendentry
     772                    .dwendtag $C$DW$48
     773            
     774 000000               .sect   ".text:__isnormall"
     775                    .clink
     776                    .global __isnormall
     777            
     778            $C$DW$51        .dwtag  DW_TAG_subprogram
     779                    .dwattr $C$DW$51, DW_AT_name("__isnormall")
     780                    .dwattr $C$DW$51, DW_AT_low_pc(__isnormall)
     781                    .dwattr $C$DW$51, DW_AT_high_pc(0x00)
     782                    .dwattr $C$DW$51, DW_AT_TI_symbol_name("__isnormall")
     783                    .dwattr $C$DW$51, DW_AT_external
     784                    .dwattr $C$DW$51, DW_AT_type(*$C$DW$T$10)
     785                    .dwattr $C$DW$51, DW_AT_TI_begin_file("C:/ti/ccs1110/ccs/tools/compiler/ti-cgt-msp430_21.6.1.L
     786                    .dwattr $C$DW$51, DW_AT_TI_begin_line(0x167)
     787                    .dwattr $C$DW$51, DW_AT_TI_begin_column(0x25)
     788                    .dwattr $C$DW$51, DW_AT_decl_file("C:/ti/ccs1110/ccs/tools/compiler/ti-cgt-msp430_21.6.1.LTS/i
     789                    .dwattr $C$DW$51, DW_AT_decl_line(0x167)
     790                    .dwattr $C$DW$51, DW_AT_decl_column(0x25)
     791                    .dwattr $C$DW$51, DW_AT_TI_max_frame_size(0x18)
     792                    .dwpsn  file "C:/ti/ccs1110/ccs/tools/compiler/ti-cgt-msp430_21.6.1.LTS/include/_defs.h",line 
     793            
     794                    .dwfde $C$DW$CIE, __isnormall
     795            $C$DW$52        .dwtag  DW_TAG_formal_parameter
     796                    .dwattr $C$DW$52, DW_AT_name("e")
     797                    .dwattr $C$DW$52, DW_AT_TI_symbol_name("e")
     798                    .dwattr $C$DW$52, DW_AT_type(*$C$DW$T$18)
     799                    .dwattr $C$DW$52, DW_AT_location[DW_OP_reg12 DW_OP_piece 2 DW_OP_reg13 DW_OP_piece 2 DW_OP_reg
     800            
     801            
     802            ;*****************************************************************************
     803            ;* FUNCTION NAME: __isnormall                                                *
     804            ;*                                                                           *
     805            ;*   Regs Modified     : SP,SR,r6,r7,r8,r9,r10,r11,r12,r13,r14,r15           *
     806            ;*   Regs Used         : SP,SR,r6,r7,r8,r9,r10,r11,r12,r13,r14,r15           *
     807            ;*   Local Frame Size  : 0 Args + 0 Auto + 20 Save = 20 byte                 *
     808            ;*****************************************************************************
     809 000000       __isnormall:
     810            ;* --------------------------------------------------------------------------*
     811                    .dwcfi  cfa_offset, 4
     812                    .dwcfi  save_reg_to_mem, 16, -4
     813 000000 144A          PUSHM.A   #5,r10                ; [] 
     814                    .dwcfi  save_reg_to_mem, 10, -8
     815                    .dwcfi  save_reg_to_mem, 9, -12
     816                    .dwcfi  save_reg_to_mem, 8, -16
     817                    .dwcfi  save_reg_to_mem, 7, -20
     818                    .dwcfi  save_reg_to_mem, 6, -24
     819                    .dwcfi  cfa_offset, 24
     820            ;* r6    assigned to $O$S1
     821            ;* r12   assigned to e
MSP430 Assembler PC v21.6.1 Tue Dec 20 13:45:58 2022

Copyright (c) 2003-2018 Texas Instruments Incorporated
Fans.asm                                                             PAGE   16

     822            $C$DW$53        .dwtag  DW_TAG_variable
     823                    .dwattr $C$DW$53, DW_AT_name("e")
     824                    .dwattr $C$DW$53, DW_AT_TI_symbol_name("e")
     825                    .dwattr $C$DW$53, DW_AT_type(*$C$DW$T$18)
     826                    .dwattr $C$DW$53, DW_AT_location[DW_OP_reg12 DW_OP_piece 2 DW_OP_reg13 DW_OP_piece 2 DW_OP_reg
     827            
     828 000002 0FC7          MOVA      r15,r7                ; [] |360| 
     829                    .dwpsn  file "C:/ti/ccs1110/ccs/tools/compiler/ti-cgt-msp430_21.6.1.LTS/include/_defs.h",line 
     830 000004 4306          MOV.W     #0,r6                 ; [] |360| 
     831 000006 0CC8          MOVA      r12,r8                ; [] |360| 
     832 000008 0DC9          MOVA      r13,r9                ; [] |360| 
     833 00000a 0ECA          MOVA      r14,r10               ; [] |360| 
     834 00000c 07CB          MOVA      r7,r11                ; [] |360| 
     835 00000e 403C          MOV.W     #52,r12               ; [] |360| 
         000010 0034 
     836            $C$DW$54        .dwtag  DW_TAG_TI_branch
     837                    .dwattr $C$DW$54, DW_AT_low_pc(0x00)
     838                    .dwattr $C$DW$54, DW_AT_name("__mspabi_srlll")
     839                    .dwattr $C$DW$54, DW_AT_TI_call
     840            
     841 000012 13B0!         CALLA     #__mspabi_srlll       ; [] |360| 
         000014 0000 
     842                                                      ; [] |360| 
     843 000016 F03C          AND.W     #2047,r12             ; [] |360| 
         000018 07FF 
     844 00001a F30D          AND.W     #0,r13                ; [] |360| 
     845 00001c F30E          AND.W     #0,r14                ; [] |360| 
     846 00001e F30F          AND.W     #0,r15                ; [] |360| 
     847 000020 930F          TST.W     r15                   ; [] |360| 
     848 000022 2006          JNE       $C$L6                 ; [] |360| 
     849                                                      ; [] |360| 
     850            ;* --------------------------------------------------------------------------*
     851 000024 930E          TST.W     r14                   ; [] |360| 
     852 000026 2004          JNE       $C$L6                 ; [] |360| 
     853                                                      ; [] |360| 
     854            ;* --------------------------------------------------------------------------*
     855 000028 930D          TST.W     r13                   ; [] |360| 
     856 00002a 2002          JNE       $C$L6                 ; [] |360| 
     857                                                      ; [] |360| 
     858            ;* --------------------------------------------------------------------------*
     859 00002c 930C          TST.W     r12                   ; [] |360| 
     860 00002e 2406          JEQ       $C$L7                 ; [] |360| 
     861                                                      ; [] |360| 
     862            ;* --------------------------------------------------------------------------*
     863 000030       $C$L6:    
     864 000030 F037          AND.W     #32752,r7             ; [] |360| 
         000032 7FF0 
     865 000034 9037          CMP.W     #32752,r7             ; [] |360| 
         000036 7FF0 
     866 000038 2401          JEQ       $C$L7                 ; [] |360| 
     867                                                      ; [] |360| 
     868            ;* --------------------------------------------------------------------------*
     869 00003a 4316          MOV.W     #1,r6                 ; [] |360| 
     870            ;* --------------------------------------------------------------------------*
     871 00003c       $C$L7:    
MSP430 Assembler PC v21.6.1 Tue Dec 20 13:45:58 2022

Copyright (c) 2003-2018 Texas Instruments Incorporated
Fans.asm                                                             PAGE   17

     872 00003c 06CC          MOVA      r6,r12                ; [] |360| 
     873                    .dwpsn  file "C:/ti/ccs1110/ccs/tools/compiler/ti-cgt-msp430_21.6.1.LTS/include/_defs.h",line 
     874 00003e 1646          POPM.A    #5,r10                ; [] 
     875                    .dwcfi  restore_reg, 6
     876                    .dwcfi  restore_reg, 7
     877                    .dwcfi  restore_reg, 8
     878                    .dwcfi  restore_reg, 9
     879                    .dwcfi  restore_reg, 10
     880                    .dwcfi  cfa_offset, 4
     881            $C$DW$55        .dwtag  DW_TAG_TI_branch
     882                    .dwattr $C$DW$55, DW_AT_low_pc(0x00)
     883                    .dwattr $C$DW$55, DW_AT_TI_return
     884            
     885 000040 0110          RETA      ; [] 
     886                    ; [] 
     887                    .dwattr $C$DW$51, DW_AT_TI_end_file("C:/ti/ccs1110/ccs/tools/compiler/ti-cgt-msp430_21.6.1.LTS
     888                    .dwattr $C$DW$51, DW_AT_TI_end_line(0x169)
     889                    .dwattr $C$DW$51, DW_AT_TI_end_column(0x31)
     890                    .dwendentry
     891                    .dwendtag $C$DW$51
     892            
     893 000000               .sect   ".text:__isnormalf"
     894                    .clink
     895                    .global __isnormalf
     896            
     897            $C$DW$56        .dwtag  DW_TAG_subprogram
     898                    .dwattr $C$DW$56, DW_AT_name("__isnormalf")
     899                    .dwattr $C$DW$56, DW_AT_low_pc(__isnormalf)
     900                    .dwattr $C$DW$56, DW_AT_high_pc(0x00)
     901                    .dwattr $C$DW$56, DW_AT_TI_symbol_name("__isnormalf")
     902                    .dwattr $C$DW$56, DW_AT_external
     903                    .dwattr $C$DW$56, DW_AT_type(*$C$DW$T$10)
     904                    .dwattr $C$DW$56, DW_AT_TI_begin_file("C:/ti/ccs1110/ccs/tools/compiler/ti-cgt-msp430_21.6.1.L
     905                    .dwattr $C$DW$56, DW_AT_TI_begin_line(0x163)
     906                    .dwattr $C$DW$56, DW_AT_TI_begin_column(0x25)
     907                    .dwattr $C$DW$56, DW_AT_decl_file("C:/ti/ccs1110/ccs/tools/compiler/ti-cgt-msp430_21.6.1.LTS/i
     908                    .dwattr $C$DW$56, DW_AT_decl_line(0x163)
     909                    .dwattr $C$DW$56, DW_AT_decl_column(0x25)
     910                    .dwattr $C$DW$56, DW_AT_TI_max_frame_size(0x04)
     911                    .dwpsn  file "C:/ti/ccs1110/ccs/tools/compiler/ti-cgt-msp430_21.6.1.LTS/include/_defs.h",line 
     912            
     913                    .dwfde $C$DW$CIE, __isnormalf
     914            $C$DW$57        .dwtag  DW_TAG_formal_parameter
     915                    .dwattr $C$DW$57, DW_AT_name("f")
     916                    .dwattr $C$DW$57, DW_AT_TI_symbol_name("f")
     917                    .dwattr $C$DW$57, DW_AT_type(*$C$DW$T$16)
     918                    .dwattr $C$DW$57, DW_AT_location[DW_OP_reg12 DW_OP_piece 2 DW_OP_reg13 DW_OP_piece 2]
     919            
     920            
     921            ;*****************************************************************************
     922            ;* FUNCTION NAME: __isnormalf                                                *
     923            ;*                                                                           *
     924            ;*   Regs Modified     : SP,SR,r12,r13,r15                                   *
     925            ;*   Regs Used         : SP,SR,r12,r13,r15                                   *
     926            ;*   Local Frame Size  : 0 Args + 0 Auto + 0 Save = 0 byte                   *
MSP430 Assembler PC v21.6.1 Tue Dec 20 13:45:58 2022

Copyright (c) 2003-2018 Texas Instruments Incorporated
Fans.asm                                                             PAGE   18

     927            ;*****************************************************************************
     928 000000       __isnormalf:
     929            ;* --------------------------------------------------------------------------*
     930                    .dwcfi  cfa_offset, 4
     931                    .dwcfi  save_reg_to_mem, 16, -4
     932            ;* r12   assigned to $O$S1
     933                    .dwpsn  file "C:/ti/ccs1110/ccs/tools/compiler/ti-cgt-msp430_21.6.1.LTS/include/_defs.h",line 
     934 000000 430C          MOV.W     #0,r12                ; [] |356| 
     935 000002 0DCF          MOVA      r13,r15               ; [] |356| 
     936 000004 1946          RPT #7 || RRUX.W r15 ; [] |356| 
         000006 100F 
     937 000008 B03F          BIT.W     #255,r15              ; [] |356| 
         00000a 00FF 
     938 00000c 2406          JEQ       $C$L8                 ; [] |356| 
     939                                                      ; [] |356| 
     940            ;* --------------------------------------------------------------------------*
     941 00000e F03D          AND.W     #32640,r13            ; [] |356| 
         000010 7F80 
     942 000012 903D          CMP.W     #32640,r13            ; [] |356| 
         000014 7F80 
     943 000016 2401          JEQ       $C$L8                 ; [] |356| 
     944                                                      ; [] |356| 
     945            ;* --------------------------------------------------------------------------*
     946 000018 431C          MOV.W     #1,r12                ; [] |356| 
     947            ;* --------------------------------------------------------------------------*
     948 00001a       $C$L8:    
     949                    .dwpsn  file "C:/ti/ccs1110/ccs/tools/compiler/ti-cgt-msp430_21.6.1.LTS/include/_defs.h",line 
     950            $C$DW$58        .dwtag  DW_TAG_TI_branch
     951                    .dwattr $C$DW$58, DW_AT_low_pc(0x00)
     952                    .dwattr $C$DW$58, DW_AT_TI_return
     953            
     954 00001a 0110          RETA      ; [] 
     955                    ; [] 
     956                    .dwattr $C$DW$56, DW_AT_TI_end_file("C:/ti/ccs1110/ccs/tools/compiler/ti-cgt-msp430_21.6.1.LTS
     957                    .dwattr $C$DW$56, DW_AT_TI_end_line(0x165)
     958                    .dwattr $C$DW$56, DW_AT_TI_end_column(0x2f)
     959                    .dwendentry
     960                    .dwendtag $C$DW$56
     961            
     962 000000               .sect   ".text:__isnormal"
     963                    .clink
     964                    .global __isnormal
     965            
     966            $C$DW$59        .dwtag  DW_TAG_subprogram
     967                    .dwattr $C$DW$59, DW_AT_name("__isnormal")
     968                    .dwattr $C$DW$59, DW_AT_low_pc(__isnormal)
     969                    .dwattr $C$DW$59, DW_AT_high_pc(0x00)
     970                    .dwattr $C$DW$59, DW_AT_TI_symbol_name("__isnormal")
     971                    .dwattr $C$DW$59, DW_AT_external
     972                    .dwattr $C$DW$59, DW_AT_type(*$C$DW$T$10)
     973                    .dwattr $C$DW$59, DW_AT_TI_begin_file("C:/ti/ccs1110/ccs/tools/compiler/ti-cgt-msp430_21.6.1.L
     974                    .dwattr $C$DW$59, DW_AT_TI_begin_line(0x15f)
     975                    .dwattr $C$DW$59, DW_AT_TI_begin_column(0x25)
     976                    .dwattr $C$DW$59, DW_AT_decl_file("C:/ti/ccs1110/ccs/tools/compiler/ti-cgt-msp430_21.6.1.LTS/i
     977                    .dwattr $C$DW$59, DW_AT_decl_line(0x15f)
MSP430 Assembler PC v21.6.1 Tue Dec 20 13:45:58 2022

Copyright (c) 2003-2018 Texas Instruments Incorporated
Fans.asm                                                             PAGE   19

     978                    .dwattr $C$DW$59, DW_AT_decl_column(0x25)
     979                    .dwattr $C$DW$59, DW_AT_TI_max_frame_size(0x18)
     980                    .dwpsn  file "C:/ti/ccs1110/ccs/tools/compiler/ti-cgt-msp430_21.6.1.LTS/include/_defs.h",line 
     981            
     982                    .dwfde $C$DW$CIE, __isnormal
     983            $C$DW$60        .dwtag  DW_TAG_formal_parameter
     984                    .dwattr $C$DW$60, DW_AT_name("d")
     985                    .dwattr $C$DW$60, DW_AT_TI_symbol_name("d")
     986                    .dwattr $C$DW$60, DW_AT_type(*$C$DW$T$17)
     987                    .dwattr $C$DW$60, DW_AT_location[DW_OP_reg12 DW_OP_piece 2 DW_OP_reg13 DW_OP_piece 2 DW_OP_reg
     988            
     989            
     990            ;*****************************************************************************
     991            ;* FUNCTION NAME: __isnormal                                                 *
     992            ;*                                                                           *
     993            ;*   Regs Modified     : SP,SR,r6,r7,r8,r9,r10,r11,r12,r13,r14,r15           *
     994            ;*   Regs Used         : SP,SR,r6,r7,r8,r9,r10,r11,r12,r13,r14,r15           *
     995            ;*   Local Frame Size  : 0 Args + 0 Auto + 20 Save = 20 byte                 *
     996            ;*****************************************************************************
     997 000000       __isnormal:
     998            ;* --------------------------------------------------------------------------*
     999                    .dwcfi  cfa_offset, 4
    1000                    .dwcfi  save_reg_to_mem, 16, -4
    1001 000000 144A          PUSHM.A   #5,r10                ; [] 
    1002                    .dwcfi  save_reg_to_mem, 10, -8
    1003                    .dwcfi  save_reg_to_mem, 9, -12
    1004                    .dwcfi  save_reg_to_mem, 8, -16
    1005                    .dwcfi  save_reg_to_mem, 7, -20
    1006                    .dwcfi  save_reg_to_mem, 6, -24
    1007                    .dwcfi  cfa_offset, 24
    1008            ;* r6    assigned to $O$S1
    1009            ;* r12   assigned to d
    1010            $C$DW$61        .dwtag  DW_TAG_variable
    1011                    .dwattr $C$DW$61, DW_AT_name("d")
    1012                    .dwattr $C$DW$61, DW_AT_TI_symbol_name("d")
    1013                    .dwattr $C$DW$61, DW_AT_type(*$C$DW$T$17)
    1014                    .dwattr $C$DW$61, DW_AT_location[DW_OP_reg12 DW_OP_piece 2 DW_OP_reg13 DW_OP_piece 2 DW_OP_reg
    1015            
    1016 000002 0FC7          MOVA      r15,r7                ; [] |352| 
    1017                    .dwpsn  file "C:/ti/ccs1110/ccs/tools/compiler/ti-cgt-msp430_21.6.1.LTS/include/_defs.h",line 
    1018 000004 4306          MOV.W     #0,r6                 ; [] |352| 
    1019 000006 0CC8          MOVA      r12,r8                ; [] |352| 
    1020 000008 0DC9          MOVA      r13,r9                ; [] |352| 
    1021 00000a 0ECA          MOVA      r14,r10               ; [] |352| 
    1022 00000c 07CB          MOVA      r7,r11                ; [] |352| 
    1023 00000e 403C          MOV.W     #52,r12               ; [] |352| 
         000010 0034 
    1024            $C$DW$62        .dwtag  DW_TAG_TI_branch
    1025                    .dwattr $C$DW$62, DW_AT_low_pc(0x00)
    1026                    .dwattr $C$DW$62, DW_AT_name("__mspabi_srlll")
    1027                    .dwattr $C$DW$62, DW_AT_TI_call
    1028            
    1029 000012 13B0!         CALLA     #__mspabi_srlll       ; [] |352| 
         000014 0000 
    1030                                                      ; [] |352| 
MSP430 Assembler PC v21.6.1 Tue Dec 20 13:45:58 2022

Copyright (c) 2003-2018 Texas Instruments Incorporated
Fans.asm                                                             PAGE   20

    1031 000016 F03C          AND.W     #2047,r12             ; [] |352| 
         000018 07FF 
    1032 00001a F30D          AND.W     #0,r13                ; [] |352| 
    1033 00001c F30E          AND.W     #0,r14                ; [] |352| 
    1034 00001e F30F          AND.W     #0,r15                ; [] |352| 
    1035 000020 930F          TST.W     r15                   ; [] |352| 
    1036 000022 2006          JNE       $C$L9                 ; [] |352| 
    1037                                                      ; [] |352| 
    1038            ;* --------------------------------------------------------------------------*
    1039 000024 930E          TST.W     r14                   ; [] |352| 
    1040 000026 2004          JNE       $C$L9                 ; [] |352| 
    1041                                                      ; [] |352| 
    1042            ;* --------------------------------------------------------------------------*
    1043 000028 930D          TST.W     r13                   ; [] |352| 
    1044 00002a 2002          JNE       $C$L9                 ; [] |352| 
    1045                                                      ; [] |352| 
    1046            ;* --------------------------------------------------------------------------*
    1047 00002c 930C          TST.W     r12                   ; [] |352| 
    1048 00002e 2406          JEQ       $C$L10                ; [] |352| 
    1049                                                      ; [] |352| 
    1050            ;* --------------------------------------------------------------------------*
    1051 000030       $C$L9:    
    1052 000030 F037          AND.W     #32752,r7             ; [] |352| 
         000032 7FF0 
    1053 000034 9037          CMP.W     #32752,r7             ; [] |352| 
         000036 7FF0 
    1054 000038 2401          JEQ       $C$L10                ; [] |352| 
    1055                                                      ; [] |352| 
    1056            ;* --------------------------------------------------------------------------*
    1057 00003a 4316          MOV.W     #1,r6                 ; [] |352| 
    1058            ;* --------------------------------------------------------------------------*
    1059 00003c       $C$L10:    
    1060 00003c 06CC          MOVA      r6,r12                ; [] |352| 
    1061                    .dwpsn  file "C:/ti/ccs1110/ccs/tools/compiler/ti-cgt-msp430_21.6.1.LTS/include/_defs.h",line 
    1062 00003e 1646          POPM.A    #5,r10                ; [] 
    1063                    .dwcfi  restore_reg, 6
    1064                    .dwcfi  restore_reg, 7
    1065                    .dwcfi  restore_reg, 8
    1066                    .dwcfi  restore_reg, 9
    1067                    .dwcfi  restore_reg, 10
    1068                    .dwcfi  cfa_offset, 4
    1069            $C$DW$63        .dwtag  DW_TAG_TI_branch
    1070                    .dwattr $C$DW$63, DW_AT_low_pc(0x00)
    1071                    .dwattr $C$DW$63, DW_AT_TI_return
    1072            
    1073 000040 0110          RETA      ; [] 
    1074                    ; [] 
    1075                    .dwattr $C$DW$59, DW_AT_TI_end_file("C:/ti/ccs1110/ccs/tools/compiler/ti-cgt-msp430_21.6.1.LTS
    1076                    .dwattr $C$DW$59, DW_AT_TI_end_line(0x161)
    1077                    .dwattr $C$DW$59, DW_AT_TI_end_column(0x30)
    1078                    .dwendentry
    1079                    .dwendtag $C$DW$59
    1080            
    1081 000000               .sect   ".text:__isnanl"
    1082                    .clink
MSP430 Assembler PC v21.6.1 Tue Dec 20 13:45:58 2022

Copyright (c) 2003-2018 Texas Instruments Incorporated
Fans.asm                                                             PAGE   21

    1083                    .global __isnanl
    1084            
    1085            $C$DW$64        .dwtag  DW_TAG_subprogram
    1086                    .dwattr $C$DW$64, DW_AT_name("__isnanl")
    1087                    .dwattr $C$DW$64, DW_AT_low_pc(__isnanl)
    1088                    .dwattr $C$DW$64, DW_AT_high_pc(0x00)
    1089                    .dwattr $C$DW$64, DW_AT_TI_symbol_name("__isnanl")
    1090                    .dwattr $C$DW$64, DW_AT_external
    1091                    .dwattr $C$DW$64, DW_AT_type(*$C$DW$T$10)
    1092                    .dwattr $C$DW$64, DW_AT_TI_begin_file("C:/ti/ccs1110/ccs/tools/compiler/ti-cgt-msp430_21.6.1.L
    1093                    .dwattr $C$DW$64, DW_AT_TI_begin_line(0x15b)
    1094                    .dwattr $C$DW$64, DW_AT_TI_begin_column(0x25)
    1095                    .dwattr $C$DW$64, DW_AT_decl_file("C:/ti/ccs1110/ccs/tools/compiler/ti-cgt-msp430_21.6.1.LTS/i
    1096                    .dwattr $C$DW$64, DW_AT_decl_line(0x15b)
    1097                    .dwattr $C$DW$64, DW_AT_decl_column(0x25)
    1098                    .dwattr $C$DW$64, DW_AT_TI_max_frame_size(0x08)
    1099                    .dwpsn  file "C:/ti/ccs1110/ccs/tools/compiler/ti-cgt-msp430_21.6.1.LTS/include/_defs.h",line 
    1100            
    1101                    .dwfde $C$DW$CIE, __isnanl
    1102            $C$DW$65        .dwtag  DW_TAG_formal_parameter
    1103                    .dwattr $C$DW$65, DW_AT_name("e")
    1104                    .dwattr $C$DW$65, DW_AT_TI_symbol_name("e")
    1105                    .dwattr $C$DW$65, DW_AT_type(*$C$DW$T$18)
    1106                    .dwattr $C$DW$65, DW_AT_location[DW_OP_reg12 DW_OP_piece 2 DW_OP_reg13 DW_OP_piece 2 DW_OP_reg
    1107            
    1108            
    1109            ;*****************************************************************************
    1110            ;* FUNCTION NAME: __isnanl                                                   *
    1111            ;*                                                                           *
    1112            ;*   Regs Modified     : SP,SR,r10,r11,r12,r13,r14,r15                       *
    1113            ;*   Regs Used         : SP,SR,r10,r11,r12,r13,r14,r15                       *
    1114            ;*   Local Frame Size  : 0 Args + 0 Auto + 4 Save = 4 byte                   *
    1115            ;*****************************************************************************
    1116 000000       __isnanl:
    1117            ;* --------------------------------------------------------------------------*
    1118                    .dwcfi  cfa_offset, 4
    1119                    .dwcfi  save_reg_to_mem, 16, -4
    1120 000000 140A          PUSHM.A   #1,r10                ; [] 
    1121                    .dwcfi  save_reg_to_mem, 10, -8
    1122                    .dwcfi  cfa_offset, 8
    1123            ;* r11   assigned to $O$S1
    1124                    .dwpsn  file "C:/ti/ccs1110/ccs/tools/compiler/ti-cgt-msp430_21.6.1.LTS/include/_defs.h",line 
    1125 000002 430B          MOV.W     #0,r11                ; [] |348| 
    1126 000004 0FCA          MOVA      r15,r10               ; [] |348| 
    1127 000006 F03A          AND.W     #32752,r10            ; [] |348| 
         000008 7FF0 
    1128 00000a 903A          CMP.W     #32752,r10            ; [] |348| 
         00000c 7FF0 
    1129 00000e 200E          JNE       $C$L12                ; [] |348| 
    1130                                                      ; [] |348| 
    1131            ;* --------------------------------------------------------------------------*
    1132 000010 F33C          AND.W     #65535,r12            ; [] |348| 
    1133 000012 F33D          AND.W     #65535,r13            ; [] |348| 
    1134 000014 F33E          AND.W     #65535,r14            ; [] |348| 
    1135 000016 F03F          AND.W     #15,r15               ; [] |348| 
MSP430 Assembler PC v21.6.1 Tue Dec 20 13:45:58 2022

Copyright (c) 2003-2018 Texas Instruments Incorporated
Fans.asm                                                             PAGE   22

         000018 000F 
    1136 00001a 930F          TST.W     r15                   ; [] |348| 
    1137 00001c 2006          JNE       $C$L11                ; [] |348| 
    1138                                                      ; [] |348| 
    1139            ;* --------------------------------------------------------------------------*
    1140 00001e 930E          TST.W     r14                   ; [] |348| 
    1141 000020 2004          JNE       $C$L11                ; [] |348| 
    1142                                                      ; [] |348| 
    1143            ;* --------------------------------------------------------------------------*
    1144 000022 930D          TST.W     r13                   ; [] |348| 
    1145 000024 2002          JNE       $C$L11                ; [] |348| 
    1146                                                      ; [] |348| 
    1147            ;* --------------------------------------------------------------------------*
    1148 000026 930C          TST.W     r12                   ; [] |348| 
    1149 000028 2401          JEQ       $C$L12                ; [] |348| 
    1150                                                      ; [] |348| 
    1151            ;* --------------------------------------------------------------------------*
    1152 00002a       $C$L11:    
    1153 00002a 431B          MOV.W     #1,r11                ; [] |348| 
    1154            ;* --------------------------------------------------------------------------*
    1155 00002c       $C$L12:    
    1156 00002c 0BCC          MOVA      r11,r12               ; [] |348| 
    1157                    .dwpsn  file "C:/ti/ccs1110/ccs/tools/compiler/ti-cgt-msp430_21.6.1.LTS/include/_defs.h",line 
    1158 00002e 160A          POPM.A    #1,r10                ; [] 
    1159                    .dwcfi  restore_reg, 10
    1160                    .dwcfi  cfa_offset, 4
    1161            $C$DW$66        .dwtag  DW_TAG_TI_branch
    1162                    .dwattr $C$DW$66, DW_AT_low_pc(0x00)
    1163                    .dwattr $C$DW$66, DW_AT_TI_return
    1164            
    1165 000030 0110          RETA      ; [] 
    1166                    ; [] 
    1167                    .dwattr $C$DW$64, DW_AT_TI_end_file("C:/ti/ccs1110/ccs/tools/compiler/ti-cgt-msp430_21.6.1.LTS
    1168                    .dwattr $C$DW$64, DW_AT_TI_end_line(0x15d)
    1169                    .dwattr $C$DW$64, DW_AT_TI_end_column(0x30)
    1170                    .dwendentry
    1171                    .dwendtag $C$DW$64
    1172            
    1173 000000               .sect   ".text:__isnanf"
    1174                    .clink
    1175                    .global __isnanf
    1176            
    1177            $C$DW$67        .dwtag  DW_TAG_subprogram
    1178                    .dwattr $C$DW$67, DW_AT_name("__isnanf")
    1179                    .dwattr $C$DW$67, DW_AT_low_pc(__isnanf)
    1180                    .dwattr $C$DW$67, DW_AT_high_pc(0x00)
    1181                    .dwattr $C$DW$67, DW_AT_TI_symbol_name("__isnanf")
    1182                    .dwattr $C$DW$67, DW_AT_external
    1183                    .dwattr $C$DW$67, DW_AT_type(*$C$DW$T$10)
    1184                    .dwattr $C$DW$67, DW_AT_TI_begin_file("C:/ti/ccs1110/ccs/tools/compiler/ti-cgt-msp430_21.6.1.L
    1185                    .dwattr $C$DW$67, DW_AT_TI_begin_line(0x158)
    1186                    .dwattr $C$DW$67, DW_AT_TI_begin_column(0x25)
    1187                    .dwattr $C$DW$67, DW_AT_decl_file("C:/ti/ccs1110/ccs/tools/compiler/ti-cgt-msp430_21.6.1.LTS/i
    1188                    .dwattr $C$DW$67, DW_AT_decl_line(0x158)
    1189                    .dwattr $C$DW$67, DW_AT_decl_column(0x25)
MSP430 Assembler PC v21.6.1 Tue Dec 20 13:45:58 2022

Copyright (c) 2003-2018 Texas Instruments Incorporated
Fans.asm                                                             PAGE   23

    1190                    .dwattr $C$DW$67, DW_AT_TI_max_frame_size(0x04)
    1191                    .dwpsn  file "C:/ti/ccs1110/ccs/tools/compiler/ti-cgt-msp430_21.6.1.LTS/include/_defs.h",line 
    1192            
    1193                    .dwfde $C$DW$CIE, __isnanf
    1194            $C$DW$68        .dwtag  DW_TAG_formal_parameter
    1195                    .dwattr $C$DW$68, DW_AT_name("f")
    1196                    .dwattr $C$DW$68, DW_AT_TI_symbol_name("f")
    1197                    .dwattr $C$DW$68, DW_AT_type(*$C$DW$T$16)
    1198                    .dwattr $C$DW$68, DW_AT_location[DW_OP_reg12 DW_OP_piece 2 DW_OP_reg13 DW_OP_piece 2]
    1199            
    1200            
    1201            ;*****************************************************************************
    1202            ;* FUNCTION NAME: __isnanf                                                   *
    1203            ;*                                                                           *
    1204            ;*   Regs Modified     : SP,SR,r12,r13,r14,r15                               *
    1205            ;*   Regs Used         : SP,SR,r12,r13,r14,r15                               *
    1206            ;*   Local Frame Size  : 0 Args + 0 Auto + 0 Save = 0 byte                   *
    1207            ;*****************************************************************************
    1208 000000       __isnanf:
    1209            ;* --------------------------------------------------------------------------*
    1210                    .dwcfi  cfa_offset, 4
    1211                    .dwcfi  save_reg_to_mem, 16, -4
    1212            ;* r15   assigned to $O$S1
    1213                    .dwpsn  file "C:/ti/ccs1110/ccs/tools/compiler/ti-cgt-msp430_21.6.1.LTS/include/_defs.h",line 
    1214 000000 430F          MOV.W     #0,r15                ; [] |345| 
    1215 000002 0DCE          MOVA      r13,r14               ; [] |345| 
    1216 000004 F03E          AND.W     #32640,r14            ; [] |345| 
         000006 7F80 
    1217 000008 903E          CMP.W     #32640,r14            ; [] |345| 
         00000a 7F80 
    1218 00000c 2008          JNE       $C$L14                ; [] |345| 
    1219                                                      ; [] |345| 
    1220            ;* --------------------------------------------------------------------------*
    1221 00000e F33C          AND.W     #65535,r12            ; [] |345| 
    1222 000010 F03D          AND.W     #127,r13              ; [] |345| 
         000012 007F 
    1223 000014 930D          TST.W     r13                   ; [] |345| 
    1224 000016 2002          JNE       $C$L13                ; [] |345| 
    1225                                                      ; [] |345| 
    1226            ;* --------------------------------------------------------------------------*
    1227 000018 930C          TST.W     r12                   ; [] |345| 
    1228 00001a 2401          JEQ       $C$L14                ; [] |345| 
    1229                                                      ; [] |345| 
    1230            ;* --------------------------------------------------------------------------*
    1231 00001c       $C$L13:    
    1232 00001c 431F          MOV.W     #1,r15                ; [] |345| 
    1233            ;* --------------------------------------------------------------------------*
    1234 00001e       $C$L14:    
    1235 00001e 0FCC          MOVA      r15,r12               ; [] |345| 
    1236                    .dwpsn  file "C:/ti/ccs1110/ccs/tools/compiler/ti-cgt-msp430_21.6.1.LTS/include/_defs.h",line 
    1237            $C$DW$69        .dwtag  DW_TAG_TI_branch
    1238                    .dwattr $C$DW$69, DW_AT_low_pc(0x00)
    1239                    .dwattr $C$DW$69, DW_AT_TI_return
    1240            
    1241 000020 0110          RETA      ; [] 
MSP430 Assembler PC v21.6.1 Tue Dec 20 13:45:58 2022

Copyright (c) 2003-2018 Texas Instruments Incorporated
Fans.asm                                                             PAGE   24

    1242                    ; [] 
    1243                    .dwattr $C$DW$67, DW_AT_TI_end_file("C:/ti/ccs1110/ccs/tools/compiler/ti-cgt-msp430_21.6.1.LTS
    1244                    .dwattr $C$DW$67, DW_AT_TI_end_line(0x15a)
    1245                    .dwattr $C$DW$67, DW_AT_TI_end_column(0x2e)
    1246                    .dwendentry
    1247                    .dwendtag $C$DW$67
    1248            
    1249 000000               .sect   ".text:__isnan"
    1250                    .clink
    1251                    .global __isnan
    1252            
    1253            $C$DW$70        .dwtag  DW_TAG_subprogram
    1254                    .dwattr $C$DW$70, DW_AT_name("__isnan")
    1255                    .dwattr $C$DW$70, DW_AT_low_pc(__isnan)
    1256                    .dwattr $C$DW$70, DW_AT_high_pc(0x00)
    1257                    .dwattr $C$DW$70, DW_AT_TI_symbol_name("__isnan")
    1258                    .dwattr $C$DW$70, DW_AT_external
    1259                    .dwattr $C$DW$70, DW_AT_type(*$C$DW$T$10)
    1260                    .dwattr $C$DW$70, DW_AT_TI_begin_file("C:/ti/ccs1110/ccs/tools/compiler/ti-cgt-msp430_21.6.1.L
    1261                    .dwattr $C$DW$70, DW_AT_TI_begin_line(0x155)
    1262                    .dwattr $C$DW$70, DW_AT_TI_begin_column(0x25)
    1263                    .dwattr $C$DW$70, DW_AT_decl_file("C:/ti/ccs1110/ccs/tools/compiler/ti-cgt-msp430_21.6.1.LTS/i
    1264                    .dwattr $C$DW$70, DW_AT_decl_line(0x155)
    1265                    .dwattr $C$DW$70, DW_AT_decl_column(0x25)
    1266                    .dwattr $C$DW$70, DW_AT_TI_max_frame_size(0x08)
    1267                    .dwpsn  file "C:/ti/ccs1110/ccs/tools/compiler/ti-cgt-msp430_21.6.1.LTS/include/_defs.h",line 
    1268            
    1269                    .dwfde $C$DW$CIE, __isnan
    1270            $C$DW$71        .dwtag  DW_TAG_formal_parameter
    1271                    .dwattr $C$DW$71, DW_AT_name("d")
    1272                    .dwattr $C$DW$71, DW_AT_TI_symbol_name("d")
    1273                    .dwattr $C$DW$71, DW_AT_type(*$C$DW$T$17)
    1274                    .dwattr $C$DW$71, DW_AT_location[DW_OP_reg12 DW_OP_piece 2 DW_OP_reg13 DW_OP_piece 2 DW_OP_reg
    1275            
    1276            
    1277            ;*****************************************************************************
    1278            ;* FUNCTION NAME: __isnan                                                    *
    1279            ;*                                                                           *
    1280            ;*   Regs Modified     : SP,SR,r10,r11,r12,r13,r14,r15                       *
    1281            ;*   Regs Used         : SP,SR,r10,r11,r12,r13,r14,r15                       *
    1282            ;*   Local Frame Size  : 0 Args + 0 Auto + 4 Save = 4 byte                   *
    1283            ;*****************************************************************************
    1284 000000       __isnan:
    1285            ;* --------------------------------------------------------------------------*
    1286                    .dwcfi  cfa_offset, 4
    1287                    .dwcfi  save_reg_to_mem, 16, -4
    1288 000000 140A          PUSHM.A   #1,r10                ; [] 
    1289                    .dwcfi  save_reg_to_mem, 10, -8
    1290                    .dwcfi  cfa_offset, 8
    1291            ;* r11   assigned to $O$S1
    1292                    .dwpsn  file "C:/ti/ccs1110/ccs/tools/compiler/ti-cgt-msp430_21.6.1.LTS/include/_defs.h",line 
    1293 000002 430B          MOV.W     #0,r11                ; [] |342| 
    1294 000004 0FCA          MOVA      r15,r10               ; [] |342| 
    1295 000006 F03A          AND.W     #32752,r10            ; [] |342| 
         000008 7FF0 
MSP430 Assembler PC v21.6.1 Tue Dec 20 13:45:58 2022

Copyright (c) 2003-2018 Texas Instruments Incorporated
Fans.asm                                                             PAGE   25

    1296 00000a 903A          CMP.W     #32752,r10            ; [] |342| 
         00000c 7FF0 
    1297 00000e 200E          JNE       $C$L16                ; [] |342| 
    1298                                                      ; [] |342| 
    1299            ;* --------------------------------------------------------------------------*
    1300 000010 F33C          AND.W     #65535,r12            ; [] |342| 
    1301 000012 F33D          AND.W     #65535,r13            ; [] |342| 
    1302 000014 F33E          AND.W     #65535,r14            ; [] |342| 
    1303 000016 F03F          AND.W     #15,r15               ; [] |342| 
         000018 000F 
    1304 00001a 930F          TST.W     r15                   ; [] |342| 
    1305 00001c 2006          JNE       $C$L15                ; [] |342| 
    1306                                                      ; [] |342| 
    1307            ;* --------------------------------------------------------------------------*
    1308 00001e 930E          TST.W     r14                   ; [] |342| 
    1309 000020 2004          JNE       $C$L15                ; [] |342| 
    1310                                                      ; [] |342| 
    1311            ;* --------------------------------------------------------------------------*
    1312 000022 930D          TST.W     r13                   ; [] |342| 
    1313 000024 2002          JNE       $C$L15                ; [] |342| 
    1314                                                      ; [] |342| 
    1315            ;* --------------------------------------------------------------------------*
    1316 000026 930C          TST.W     r12                   ; [] |342| 
    1317 000028 2401          JEQ       $C$L16                ; [] |342| 
    1318                                                      ; [] |342| 
    1319            ;* --------------------------------------------------------------------------*
    1320 00002a       $C$L15:    
    1321 00002a 431B          MOV.W     #1,r11                ; [] |342| 
    1322            ;* --------------------------------------------------------------------------*
    1323 00002c       $C$L16:    
    1324 00002c 0BCC          MOVA      r11,r12               ; [] |342| 
    1325                    .dwpsn  file "C:/ti/ccs1110/ccs/tools/compiler/ti-cgt-msp430_21.6.1.LTS/include/_defs.h",line 
    1326 00002e 160A          POPM.A    #1,r10                ; [] 
    1327                    .dwcfi  restore_reg, 10
    1328                    .dwcfi  cfa_offset, 4
    1329            $C$DW$72        .dwtag  DW_TAG_TI_branch
    1330                    .dwattr $C$DW$72, DW_AT_low_pc(0x00)
    1331                    .dwattr $C$DW$72, DW_AT_TI_return
    1332            
    1333 000030 0110          RETA      ; [] 
    1334                    ; [] 
    1335                    .dwattr $C$DW$70, DW_AT_TI_end_file("C:/ti/ccs1110/ccs/tools/compiler/ti-cgt-msp430_21.6.1.LTS
    1336                    .dwattr $C$DW$70, DW_AT_TI_end_line(0x157)
    1337                    .dwattr $C$DW$70, DW_AT_TI_end_column(0x2f)
    1338                    .dwendentry
    1339                    .dwendtag $C$DW$70
    1340            
    1341 000000               .sect   ".text:__isinfl"
    1342                    .clink
    1343                    .global __isinfl
    1344            
    1345            $C$DW$73        .dwtag  DW_TAG_subprogram
    1346                    .dwattr $C$DW$73, DW_AT_name("__isinfl")
    1347                    .dwattr $C$DW$73, DW_AT_low_pc(__isinfl)
    1348                    .dwattr $C$DW$73, DW_AT_high_pc(0x00)
MSP430 Assembler PC v21.6.1 Tue Dec 20 13:45:58 2022

Copyright (c) 2003-2018 Texas Instruments Incorporated
Fans.asm                                                             PAGE   26

    1349                    .dwattr $C$DW$73, DW_AT_TI_symbol_name("__isinfl")
    1350                    .dwattr $C$DW$73, DW_AT_external
    1351                    .dwattr $C$DW$73, DW_AT_type(*$C$DW$T$10)
    1352                    .dwattr $C$DW$73, DW_AT_TI_begin_file("C:/ti/ccs1110/ccs/tools/compiler/ti-cgt-msp430_21.6.1.L
    1353                    .dwattr $C$DW$73, DW_AT_TI_begin_line(0x17a)
    1354                    .dwattr $C$DW$73, DW_AT_TI_begin_column(0x25)
    1355                    .dwattr $C$DW$73, DW_AT_decl_file("C:/ti/ccs1110/ccs/tools/compiler/ti-cgt-msp430_21.6.1.LTS/i
    1356                    .dwattr $C$DW$73, DW_AT_decl_line(0x17a)
    1357                    .dwattr $C$DW$73, DW_AT_decl_column(0x25)
    1358                    .dwattr $C$DW$73, DW_AT_TI_max_frame_size(0x08)
    1359                    .dwpsn  file "C:/ti/ccs1110/ccs/tools/compiler/ti-cgt-msp430_21.6.1.LTS/include/_defs.h",line 
    1360            
    1361                    .dwfde $C$DW$CIE, __isinfl
    1362            $C$DW$74        .dwtag  DW_TAG_formal_parameter
    1363                    .dwattr $C$DW$74, DW_AT_name("e")
    1364                    .dwattr $C$DW$74, DW_AT_TI_symbol_name("e")
    1365                    .dwattr $C$DW$74, DW_AT_type(*$C$DW$T$18)
    1366                    .dwattr $C$DW$74, DW_AT_location[DW_OP_reg12 DW_OP_piece 2 DW_OP_reg13 DW_OP_piece 2 DW_OP_reg
    1367            
    1368            
    1369            ;*****************************************************************************
    1370            ;* FUNCTION NAME: __isinfl                                                   *
    1371            ;*                                                                           *
    1372            ;*   Regs Modified     : SP,SR,r10,r11,r12,r13,r14,r15                       *
    1373            ;*   Regs Used         : SP,SR,r10,r11,r12,r13,r14,r15                       *
    1374            ;*   Local Frame Size  : 0 Args + 0 Auto + 4 Save = 4 byte                   *
    1375            ;*****************************************************************************
    1376 000000       __isinfl:
    1377            ;* --------------------------------------------------------------------------*
    1378                    .dwcfi  cfa_offset, 4
    1379                    .dwcfi  save_reg_to_mem, 16, -4
    1380 000000 140A          PUSHM.A   #1,r10                ; [] 
    1381                    .dwcfi  save_reg_to_mem, 10, -8
    1382                    .dwcfi  cfa_offset, 8
    1383            ;* r11   assigned to $O$S1
    1384                    .dwpsn  file "C:/ti/ccs1110/ccs/tools/compiler/ti-cgt-msp430_21.6.1.LTS/include/_defs.h",line 
    1385 000002 430B          MOV.W     #0,r11                ; [] |379| 
    1386 000004 0FCA          MOVA      r15,r10               ; [] |379| 
    1387 000006 F03A          AND.W     #32752,r10            ; [] |379| 
         000008 7FF0 
    1388 00000a 903A          CMP.W     #32752,r10            ; [] |379| 
         00000c 7FF0 
    1389 00000e 200E          JNE       $C$L17                ; [] |379| 
    1390                                                      ; [] |379| 
    1391            ;* --------------------------------------------------------------------------*
    1392 000010 F33C          AND.W     #65535,r12            ; [] |379| 
    1393 000012 F33D          AND.W     #65535,r13            ; [] |379| 
    1394 000014 F33E          AND.W     #65535,r14            ; [] |379| 
    1395 000016 F03F          AND.W     #15,r15               ; [] |379| 
         000018 000F 
    1396 00001a 930F          TST.W     r15                   ; [] |379| 
    1397 00001c 2007          JNE       $C$L17                ; [] |379| 
    1398                                                      ; [] |379| 
    1399            ;* --------------------------------------------------------------------------*
    1400 00001e 930E          TST.W     r14                   ; [] |379| 
MSP430 Assembler PC v21.6.1 Tue Dec 20 13:45:58 2022

Copyright (c) 2003-2018 Texas Instruments Incorporated
Fans.asm                                                             PAGE   27

    1401 000020 2005          JNE       $C$L17                ; [] |379| 
    1402                                                      ; [] |379| 
    1403            ;* --------------------------------------------------------------------------*
    1404 000022 930D          TST.W     r13                   ; [] |379| 
    1405 000024 2003          JNE       $C$L17                ; [] |379| 
    1406                                                      ; [] |379| 
    1407            ;* --------------------------------------------------------------------------*
    1408 000026 930C          TST.W     r12                   ; [] |379| 
    1409 000028 2001          JNE       $C$L17                ; [] |379| 
    1410                                                      ; [] |379| 
    1411            ;* --------------------------------------------------------------------------*
    1412 00002a 431B          MOV.W     #1,r11                ; [] |379| 
    1413            ;* --------------------------------------------------------------------------*
    1414 00002c       $C$L17:    
    1415 00002c 0BCC          MOVA      r11,r12               ; [] |379| 
    1416                    .dwpsn  file "C:/ti/ccs1110/ccs/tools/compiler/ti-cgt-msp430_21.6.1.LTS/include/_defs.h",line 
    1417 00002e 160A          POPM.A    #1,r10                ; [] 
    1418                    .dwcfi  restore_reg, 10
    1419                    .dwcfi  cfa_offset, 4
    1420            $C$DW$75        .dwtag  DW_TAG_TI_branch
    1421                    .dwattr $C$DW$75, DW_AT_low_pc(0x00)
    1422                    .dwattr $C$DW$75, DW_AT_TI_return
    1423            
    1424 000030 0110          RETA      ; [] 
    1425                    ; [] 
    1426                    .dwattr $C$DW$73, DW_AT_TI_end_file("C:/ti/ccs1110/ccs/tools/compiler/ti-cgt-msp430_21.6.1.LTS
    1427                    .dwattr $C$DW$73, DW_AT_TI_end_line(0x17b)
    1428                    .dwattr $C$DW$73, DW_AT_TI_end_column(0x4c)
    1429                    .dwendentry
    1430                    .dwendtag $C$DW$73
    1431            
    1432 000000               .sect   ".text:__isinff"
    1433                    .clink
    1434                    .global __isinff
    1435            
    1436            $C$DW$76        .dwtag  DW_TAG_subprogram
    1437                    .dwattr $C$DW$76, DW_AT_name("__isinff")
    1438                    .dwattr $C$DW$76, DW_AT_low_pc(__isinff)
    1439                    .dwattr $C$DW$76, DW_AT_high_pc(0x00)
    1440                    .dwattr $C$DW$76, DW_AT_TI_symbol_name("__isinff")
    1441                    .dwattr $C$DW$76, DW_AT_external
    1442                    .dwattr $C$DW$76, DW_AT_type(*$C$DW$T$10)
    1443                    .dwattr $C$DW$76, DW_AT_TI_begin_file("C:/ti/ccs1110/ccs/tools/compiler/ti-cgt-msp430_21.6.1.L
    1444                    .dwattr $C$DW$76, DW_AT_TI_begin_line(0x176)
    1445                    .dwattr $C$DW$76, DW_AT_TI_begin_column(0x25)
    1446                    .dwattr $C$DW$76, DW_AT_decl_file("C:/ti/ccs1110/ccs/tools/compiler/ti-cgt-msp430_21.6.1.LTS/i
    1447                    .dwattr $C$DW$76, DW_AT_decl_line(0x176)
    1448                    .dwattr $C$DW$76, DW_AT_decl_column(0x25)
    1449                    .dwattr $C$DW$76, DW_AT_TI_max_frame_size(0x04)
    1450                    .dwpsn  file "C:/ti/ccs1110/ccs/tools/compiler/ti-cgt-msp430_21.6.1.LTS/include/_defs.h",line 
    1451            
    1452                    .dwfde $C$DW$CIE, __isinff
    1453            $C$DW$77        .dwtag  DW_TAG_formal_parameter
    1454                    .dwattr $C$DW$77, DW_AT_name("f")
    1455                    .dwattr $C$DW$77, DW_AT_TI_symbol_name("f")
MSP430 Assembler PC v21.6.1 Tue Dec 20 13:45:58 2022

Copyright (c) 2003-2018 Texas Instruments Incorporated
Fans.asm                                                             PAGE   28

    1456                    .dwattr $C$DW$77, DW_AT_type(*$C$DW$T$16)
    1457                    .dwattr $C$DW$77, DW_AT_location[DW_OP_reg12 DW_OP_piece 2 DW_OP_reg13 DW_OP_piece 2]
    1458            
    1459            
    1460            ;*****************************************************************************
    1461            ;* FUNCTION NAME: __isinff                                                   *
    1462            ;*                                                                           *
    1463            ;*   Regs Modified     : SP,SR,r12,r13,r14,r15                               *
    1464            ;*   Regs Used         : SP,SR,r12,r13,r14,r15                               *
    1465            ;*   Local Frame Size  : 0 Args + 0 Auto + 0 Save = 0 byte                   *
    1466            ;*****************************************************************************
    1467 000000       __isinff:
    1468            ;* --------------------------------------------------------------------------*
    1469                    .dwcfi  cfa_offset, 4
    1470                    .dwcfi  save_reg_to_mem, 16, -4
    1471            ;* r15   assigned to $O$S1
    1472                    .dwpsn  file "C:/ti/ccs1110/ccs/tools/compiler/ti-cgt-msp430_21.6.1.LTS/include/_defs.h",line 
    1473 000000 430F          MOV.W     #0,r15                ; [] |375| 
    1474 000002 0DCE          MOVA      r13,r14               ; [] |375| 
    1475 000004 F03E          AND.W     #32640,r14            ; [] |375| 
         000006 7F80 
    1476 000008 903E          CMP.W     #32640,r14            ; [] |375| 
         00000a 7F80 
    1477 00000c 2008          JNE       $C$L18                ; [] |375| 
    1478                                                      ; [] |375| 
    1479            ;* --------------------------------------------------------------------------*
    1480 00000e F33C          AND.W     #65535,r12            ; [] |375| 
    1481 000010 F03D          AND.W     #127,r13              ; [] |375| 
         000012 007F 
    1482 000014 930D          TST.W     r13                   ; [] |375| 
    1483 000016 2003          JNE       $C$L18                ; [] |375| 
    1484                                                      ; [] |375| 
    1485            ;* --------------------------------------------------------------------------*
    1486 000018 930C          TST.W     r12                   ; [] |375| 
    1487 00001a 2001          JNE       $C$L18                ; [] |375| 
    1488                                                      ; [] |375| 
    1489            ;* --------------------------------------------------------------------------*
    1490 00001c 431F          MOV.W     #1,r15                ; [] |375| 
    1491            ;* --------------------------------------------------------------------------*
    1492 00001e       $C$L18:    
    1493 00001e 0FCC          MOVA      r15,r12               ; [] |375| 
    1494                    .dwpsn  file "C:/ti/ccs1110/ccs/tools/compiler/ti-cgt-msp430_21.6.1.LTS/include/_defs.h",line 
    1495            $C$DW$78        .dwtag  DW_TAG_TI_branch
    1496                    .dwattr $C$DW$78, DW_AT_low_pc(0x00)
    1497                    .dwattr $C$DW$78, DW_AT_TI_return
    1498            
    1499 000020 0110          RETA      ; [] 
    1500                    ; [] 
    1501                    .dwattr $C$DW$76, DW_AT_TI_end_file("C:/ti/ccs1110/ccs/tools/compiler/ti-cgt-msp430_21.6.1.LTS
    1502                    .dwattr $C$DW$76, DW_AT_TI_end_line(0x177)
    1503                    .dwattr $C$DW$76, DW_AT_TI_end_column(0x48)
    1504                    .dwendentry
    1505                    .dwendtag $C$DW$76
    1506            
    1507 000000               .sect   ".text:__isinf"
MSP430 Assembler PC v21.6.1 Tue Dec 20 13:45:58 2022

Copyright (c) 2003-2018 Texas Instruments Incorporated
Fans.asm                                                             PAGE   29

    1508                    .clink
    1509                    .global __isinf
    1510            
    1511            $C$DW$79        .dwtag  DW_TAG_subprogram
    1512                    .dwattr $C$DW$79, DW_AT_name("__isinf")
    1513                    .dwattr $C$DW$79, DW_AT_low_pc(__isinf)
    1514                    .dwattr $C$DW$79, DW_AT_high_pc(0x00)
    1515                    .dwattr $C$DW$79, DW_AT_TI_symbol_name("__isinf")
    1516                    .dwattr $C$DW$79, DW_AT_external
    1517                    .dwattr $C$DW$79, DW_AT_type(*$C$DW$T$10)
    1518                    .dwattr $C$DW$79, DW_AT_TI_begin_file("C:/ti/ccs1110/ccs/tools/compiler/ti-cgt-msp430_21.6.1.L
    1519                    .dwattr $C$DW$79, DW_AT_TI_begin_line(0x178)
    1520                    .dwattr $C$DW$79, DW_AT_TI_begin_column(0x25)
    1521                    .dwattr $C$DW$79, DW_AT_decl_file("C:/ti/ccs1110/ccs/tools/compiler/ti-cgt-msp430_21.6.1.LTS/i
    1522                    .dwattr $C$DW$79, DW_AT_decl_line(0x178)
    1523                    .dwattr $C$DW$79, DW_AT_decl_column(0x25)
    1524                    .dwattr $C$DW$79, DW_AT_TI_max_frame_size(0x08)
    1525                    .dwpsn  file "C:/ti/ccs1110/ccs/tools/compiler/ti-cgt-msp430_21.6.1.LTS/include/_defs.h",line 
    1526            
    1527                    .dwfde $C$DW$CIE, __isinf
    1528            $C$DW$80        .dwtag  DW_TAG_formal_parameter
    1529                    .dwattr $C$DW$80, DW_AT_name("d")
    1530                    .dwattr $C$DW$80, DW_AT_TI_symbol_name("d")
    1531                    .dwattr $C$DW$80, DW_AT_type(*$C$DW$T$17)
    1532                    .dwattr $C$DW$80, DW_AT_location[DW_OP_reg12 DW_OP_piece 2 DW_OP_reg13 DW_OP_piece 2 DW_OP_reg
    1533            
    1534            
    1535            ;*****************************************************************************
    1536            ;* FUNCTION NAME: __isinf                                                    *
    1537            ;*                                                                           *
    1538            ;*   Regs Modified     : SP,SR,r10,r11,r12,r13,r14,r15                       *
    1539            ;*   Regs Used         : SP,SR,r10,r11,r12,r13,r14,r15                       *
    1540            ;*   Local Frame Size  : 0 Args + 0 Auto + 4 Save = 4 byte                   *
    1541            ;*****************************************************************************
    1542 000000       __isinf:
    1543            ;* --------------------------------------------------------------------------*
    1544                    .dwcfi  cfa_offset, 4
    1545                    .dwcfi  save_reg_to_mem, 16, -4
    1546 000000 140A          PUSHM.A   #1,r10                ; [] 
    1547                    .dwcfi  save_reg_to_mem, 10, -8
    1548                    .dwcfi  cfa_offset, 8
    1549            ;* r11   assigned to $O$S1
    1550                    .dwpsn  file "C:/ti/ccs1110/ccs/tools/compiler/ti-cgt-msp430_21.6.1.LTS/include/_defs.h",line 
    1551 000002 430B          MOV.W     #0,r11                ; [] |377| 
    1552 000004 0FCA          MOVA      r15,r10               ; [] |377| 
    1553 000006 F03A          AND.W     #32752,r10            ; [] |377| 
         000008 7FF0 
    1554 00000a 903A          CMP.W     #32752,r10            ; [] |377| 
         00000c 7FF0 
    1555 00000e 200E          JNE       $C$L19                ; [] |377| 
    1556                                                      ; [] |377| 
    1557            ;* --------------------------------------------------------------------------*
    1558 000010 F33C          AND.W     #65535,r12            ; [] |377| 
    1559 000012 F33D          AND.W     #65535,r13            ; [] |377| 
    1560 000014 F33E          AND.W     #65535,r14            ; [] |377| 
MSP430 Assembler PC v21.6.1 Tue Dec 20 13:45:58 2022

Copyright (c) 2003-2018 Texas Instruments Incorporated
Fans.asm                                                             PAGE   30

    1561 000016 F03F          AND.W     #15,r15               ; [] |377| 
         000018 000F 
    1562 00001a 930F          TST.W     r15                   ; [] |377| 
    1563 00001c 2007          JNE       $C$L19                ; [] |377| 
    1564                                                      ; [] |377| 
    1565            ;* --------------------------------------------------------------------------*
    1566 00001e 930E          TST.W     r14                   ; [] |377| 
    1567 000020 2005          JNE       $C$L19                ; [] |377| 
    1568                                                      ; [] |377| 
    1569            ;* --------------------------------------------------------------------------*
    1570 000022 930D          TST.W     r13                   ; [] |377| 
    1571 000024 2003          JNE       $C$L19                ; [] |377| 
    1572                                                      ; [] |377| 
    1573            ;* --------------------------------------------------------------------------*
    1574 000026 930C          TST.W     r12                   ; [] |377| 
    1575 000028 2001          JNE       $C$L19                ; [] |377| 
    1576                                                      ; [] |377| 
    1577            ;* --------------------------------------------------------------------------*
    1578 00002a 431B          MOV.W     #1,r11                ; [] |377| 
    1579            ;* --------------------------------------------------------------------------*
    1580 00002c       $C$L19:    
    1581 00002c 0BCC          MOVA      r11,r12               ; [] |377| 
    1582                    .dwpsn  file "C:/ti/ccs1110/ccs/tools/compiler/ti-cgt-msp430_21.6.1.LTS/include/_defs.h",line 
    1583 00002e 160A          POPM.A    #1,r10                ; [] 
    1584                    .dwcfi  restore_reg, 10
    1585                    .dwcfi  cfa_offset, 4
    1586            $C$DW$81        .dwtag  DW_TAG_TI_branch
    1587                    .dwattr $C$DW$81, DW_AT_low_pc(0x00)
    1588                    .dwattr $C$DW$81, DW_AT_TI_return
    1589            
    1590 000030 0110          RETA      ; [] 
    1591                    ; [] 
    1592                    .dwattr $C$DW$79, DW_AT_TI_end_file("C:/ti/ccs1110/ccs/tools/compiler/ti-cgt-msp430_21.6.1.LTS
    1593                    .dwattr $C$DW$79, DW_AT_TI_end_line(0x179)
    1594                    .dwattr $C$DW$79, DW_AT_TI_end_column(0x4a)
    1595                    .dwendentry
    1596                    .dwendtag $C$DW$79
    1597            
    1598 000000               .sect   ".text:__isfinitel"
    1599                    .clink
    1600                    .global __isfinitel
    1601            
    1602            $C$DW$82        .dwtag  DW_TAG_subprogram
    1603                    .dwattr $C$DW$82, DW_AT_name("__isfinitel")
    1604                    .dwattr $C$DW$82, DW_AT_low_pc(__isfinitel)
    1605                    .dwattr $C$DW$82, DW_AT_high_pc(0x00)
    1606                    .dwattr $C$DW$82, DW_AT_TI_symbol_name("__isfinitel")
    1607                    .dwattr $C$DW$82, DW_AT_external
    1608                    .dwattr $C$DW$82, DW_AT_type(*$C$DW$T$10)
    1609                    .dwattr $C$DW$82, DW_AT_TI_begin_file("C:/ti/ccs1110/ccs/tools/compiler/ti-cgt-msp430_21.6.1.L
    1610                    .dwattr $C$DW$82, DW_AT_TI_begin_line(0x152)
    1611                    .dwattr $C$DW$82, DW_AT_TI_begin_column(0x25)
    1612                    .dwattr $C$DW$82, DW_AT_decl_file("C:/ti/ccs1110/ccs/tools/compiler/ti-cgt-msp430_21.6.1.LTS/i
    1613                    .dwattr $C$DW$82, DW_AT_decl_line(0x152)
    1614                    .dwattr $C$DW$82, DW_AT_decl_column(0x25)
MSP430 Assembler PC v21.6.1 Tue Dec 20 13:45:58 2022

Copyright (c) 2003-2018 Texas Instruments Incorporated
Fans.asm                                                             PAGE   31

    1615                    .dwattr $C$DW$82, DW_AT_TI_max_frame_size(0x04)
    1616                    .dwpsn  file "C:/ti/ccs1110/ccs/tools/compiler/ti-cgt-msp430_21.6.1.LTS/include/_defs.h",line 
    1617            
    1618                    .dwfde $C$DW$CIE, __isfinitel
    1619            $C$DW$83        .dwtag  DW_TAG_formal_parameter
    1620                    .dwattr $C$DW$83, DW_AT_name("e")
    1621                    .dwattr $C$DW$83, DW_AT_TI_symbol_name("e")
    1622                    .dwattr $C$DW$83, DW_AT_type(*$C$DW$T$18)
    1623                    .dwattr $C$DW$83, DW_AT_location[DW_OP_reg12 DW_OP_piece 2 DW_OP_reg13 DW_OP_piece 2 DW_OP_reg
    1624            
    1625            
    1626            ;*****************************************************************************
    1627            ;* FUNCTION NAME: __isfinitel                                                *
    1628            ;*                                                                           *
    1629            ;*   Regs Modified     : SP,SR,r12,r15                                       *
    1630            ;*   Regs Used         : SP,SR,r12,r15                                       *
    1631            ;*   Local Frame Size  : 0 Args + 0 Auto + 0 Save = 0 byte                   *
    1632            ;*****************************************************************************
    1633 000000       __isfinitel:
    1634            ;* --------------------------------------------------------------------------*
    1635                    .dwcfi  cfa_offset, 4
    1636                    .dwcfi  save_reg_to_mem, 16, -4
    1637                    .dwpsn  file "C:/ti/ccs1110/ccs/tools/compiler/ti-cgt-msp430_21.6.1.LTS/include/_defs.h",line 
    1638 000000 430C          MOV.W     #0,r12                ; [] |339| 
    1639 000002 F03F          AND.W     #32752,r15            ; [] |339| 
         000004 7FF0 
    1640 000006 903F          CMP.W     #32752,r15            ; [] |339| 
         000008 7FF0 
    1641 00000a 2401          JEQ       $C$L20                ; [] |339| 
    1642                                                      ; [] |339| 
    1643            ;* --------------------------------------------------------------------------*
    1644 00000c 431C          MOV.W     #1,r12                ; [] |339| 
    1645            ;* --------------------------------------------------------------------------*
    1646 00000e       $C$L20:    
    1647                    .dwpsn  file "C:/ti/ccs1110/ccs/tools/compiler/ti-cgt-msp430_21.6.1.LTS/include/_defs.h",line 
    1648            $C$DW$84        .dwtag  DW_TAG_TI_branch
    1649                    .dwattr $C$DW$84, DW_AT_low_pc(0x00)
    1650                    .dwattr $C$DW$84, DW_AT_TI_return
    1651            
    1652 00000e 0110          RETA      ; [] 
    1653                    ; [] 
    1654                    .dwattr $C$DW$82, DW_AT_TI_end_file("C:/ti/ccs1110/ccs/tools/compiler/ti-cgt-msp430_21.6.1.LTS
    1655                    .dwattr $C$DW$82, DW_AT_TI_end_line(0x153)
    1656                    .dwattr $C$DW$82, DW_AT_TI_end_column(0x2f)
    1657                    .dwendentry
    1658                    .dwendtag $C$DW$82
    1659            
    1660 000000               .sect   ".text:__isfinitef"
    1661                    .clink
    1662                    .global __isfinitef
    1663            
    1664            $C$DW$85        .dwtag  DW_TAG_subprogram
    1665                    .dwattr $C$DW$85, DW_AT_name("__isfinitef")
    1666                    .dwattr $C$DW$85, DW_AT_low_pc(__isfinitef)
    1667                    .dwattr $C$DW$85, DW_AT_high_pc(0x00)
MSP430 Assembler PC v21.6.1 Tue Dec 20 13:45:58 2022

Copyright (c) 2003-2018 Texas Instruments Incorporated
Fans.asm                                                             PAGE   32

    1668                    .dwattr $C$DW$85, DW_AT_TI_symbol_name("__isfinitef")
    1669                    .dwattr $C$DW$85, DW_AT_external
    1670                    .dwattr $C$DW$85, DW_AT_type(*$C$DW$T$10)
    1671                    .dwattr $C$DW$85, DW_AT_TI_begin_file("C:/ti/ccs1110/ccs/tools/compiler/ti-cgt-msp430_21.6.1.L
    1672                    .dwattr $C$DW$85, DW_AT_TI_begin_line(0x150)
    1673                    .dwattr $C$DW$85, DW_AT_TI_begin_column(0x25)
    1674                    .dwattr $C$DW$85, DW_AT_decl_file("C:/ti/ccs1110/ccs/tools/compiler/ti-cgt-msp430_21.6.1.LTS/i
    1675                    .dwattr $C$DW$85, DW_AT_decl_line(0x150)
    1676                    .dwattr $C$DW$85, DW_AT_decl_column(0x25)
    1677                    .dwattr $C$DW$85, DW_AT_TI_max_frame_size(0x04)
    1678                    .dwpsn  file "C:/ti/ccs1110/ccs/tools/compiler/ti-cgt-msp430_21.6.1.LTS/include/_defs.h",line 
    1679            
    1680                    .dwfde $C$DW$CIE, __isfinitef
    1681            $C$DW$86        .dwtag  DW_TAG_formal_parameter
    1682                    .dwattr $C$DW$86, DW_AT_name("f")
    1683                    .dwattr $C$DW$86, DW_AT_TI_symbol_name("f")
    1684                    .dwattr $C$DW$86, DW_AT_type(*$C$DW$T$16)
    1685                    .dwattr $C$DW$86, DW_AT_location[DW_OP_reg12 DW_OP_piece 2 DW_OP_reg13 DW_OP_piece 2]
    1686            
    1687            
    1688            ;*****************************************************************************
    1689            ;* FUNCTION NAME: __isfinitef                                                *
    1690            ;*                                                                           *
    1691            ;*   Regs Modified     : SP,SR,r12,r13                                       *
    1692            ;*   Regs Used         : SP,SR,r12,r13                                       *
    1693            ;*   Local Frame Size  : 0 Args + 0 Auto + 0 Save = 0 byte                   *
    1694            ;*****************************************************************************
    1695 000000       __isfinitef:
    1696            ;* --------------------------------------------------------------------------*
    1697                    .dwcfi  cfa_offset, 4
    1698                    .dwcfi  save_reg_to_mem, 16, -4
    1699                    .dwpsn  file "C:/ti/ccs1110/ccs/tools/compiler/ti-cgt-msp430_21.6.1.LTS/include/_defs.h",line 
    1700 000000 430C          MOV.W     #0,r12                ; [] |337| 
    1701 000002 F03D          AND.W     #32640,r13            ; [] |337| 
         000004 7F80 
    1702 000006 903D          CMP.W     #32640,r13            ; [] |337| 
         000008 7F80 
    1703 00000a 2401          JEQ       $C$L21                ; [] |337| 
    1704                                                      ; [] |337| 
    1705            ;* --------------------------------------------------------------------------*
    1706 00000c 431C          MOV.W     #1,r12                ; [] |337| 
    1707            ;* --------------------------------------------------------------------------*
    1708 00000e       $C$L21:    
    1709                    .dwpsn  file "C:/ti/ccs1110/ccs/tools/compiler/ti-cgt-msp430_21.6.1.LTS/include/_defs.h",line 
    1710            $C$DW$87        .dwtag  DW_TAG_TI_branch
    1711                    .dwattr $C$DW$87, DW_AT_low_pc(0x00)
    1712                    .dwattr $C$DW$87, DW_AT_TI_return
    1713            
    1714 00000e 0110          RETA      ; [] 
    1715                    ; [] 
    1716                    .dwattr $C$DW$85, DW_AT_TI_end_file("C:/ti/ccs1110/ccs/tools/compiler/ti-cgt-msp430_21.6.1.LTS
    1717                    .dwattr $C$DW$85, DW_AT_TI_end_line(0x151)
    1718                    .dwattr $C$DW$85, DW_AT_TI_end_column(0x2d)
    1719                    .dwendentry
    1720                    .dwendtag $C$DW$85
MSP430 Assembler PC v21.6.1 Tue Dec 20 13:45:58 2022

Copyright (c) 2003-2018 Texas Instruments Incorporated
Fans.asm                                                             PAGE   33

    1721            
    1722 000000               .sect   ".text:__isfinite"
    1723                    .clink
    1724                    .global __isfinite
    1725            
    1726            $C$DW$88        .dwtag  DW_TAG_subprogram
    1727                    .dwattr $C$DW$88, DW_AT_name("__isfinite")
    1728                    .dwattr $C$DW$88, DW_AT_low_pc(__isfinite)
    1729                    .dwattr $C$DW$88, DW_AT_high_pc(0x00)
    1730                    .dwattr $C$DW$88, DW_AT_TI_symbol_name("__isfinite")
    1731                    .dwattr $C$DW$88, DW_AT_external
    1732                    .dwattr $C$DW$88, DW_AT_type(*$C$DW$T$10)
    1733                    .dwattr $C$DW$88, DW_AT_TI_begin_file("C:/ti/ccs1110/ccs/tools/compiler/ti-cgt-msp430_21.6.1.L
    1734                    .dwattr $C$DW$88, DW_AT_TI_begin_line(0x14e)
    1735                    .dwattr $C$DW$88, DW_AT_TI_begin_column(0x25)
    1736                    .dwattr $C$DW$88, DW_AT_decl_file("C:/ti/ccs1110/ccs/tools/compiler/ti-cgt-msp430_21.6.1.LTS/i
    1737                    .dwattr $C$DW$88, DW_AT_decl_line(0x14e)
    1738                    .dwattr $C$DW$88, DW_AT_decl_column(0x25)
    1739                    .dwattr $C$DW$88, DW_AT_TI_max_frame_size(0x04)
    1740                    .dwpsn  file "C:/ti/ccs1110/ccs/tools/compiler/ti-cgt-msp430_21.6.1.LTS/include/_defs.h",line 
    1741            
    1742                    .dwfde $C$DW$CIE, __isfinite
    1743            $C$DW$89        .dwtag  DW_TAG_formal_parameter
    1744                    .dwattr $C$DW$89, DW_AT_name("d")
    1745                    .dwattr $C$DW$89, DW_AT_TI_symbol_name("d")
    1746                    .dwattr $C$DW$89, DW_AT_type(*$C$DW$T$17)
    1747                    .dwattr $C$DW$89, DW_AT_location[DW_OP_reg12 DW_OP_piece 2 DW_OP_reg13 DW_OP_piece 2 DW_OP_reg
    1748            
    1749            
    1750            ;*****************************************************************************
    1751            ;* FUNCTION NAME: __isfinite                                                 *
    1752            ;*                                                                           *
    1753            ;*   Regs Modified     : SP,SR,r12,r15                                       *
    1754            ;*   Regs Used         : SP,SR,r12,r15                                       *
    1755            ;*   Local Frame Size  : 0 Args + 0 Auto + 0 Save = 0 byte                   *
    1756            ;*****************************************************************************
    1757 000000       __isfinite:
    1758            ;* --------------------------------------------------------------------------*
    1759                    .dwcfi  cfa_offset, 4
    1760                    .dwcfi  save_reg_to_mem, 16, -4
    1761                    .dwpsn  file "C:/ti/ccs1110/ccs/tools/compiler/ti-cgt-msp430_21.6.1.LTS/include/_defs.h",line 
    1762 000000 430C          MOV.W     #0,r12                ; [] |335| 
    1763 000002 F03F          AND.W     #32752,r15            ; [] |335| 
         000004 7FF0 
    1764 000006 903F          CMP.W     #32752,r15            ; [] |335| 
         000008 7FF0 
    1765 00000a 2401          JEQ       $C$L22                ; [] |335| 
    1766                                                      ; [] |335| 
    1767            ;* --------------------------------------------------------------------------*
    1768 00000c 431C          MOV.W     #1,r12                ; [] |335| 
    1769            ;* --------------------------------------------------------------------------*
    1770 00000e       $C$L22:    
    1771                    .dwpsn  file "C:/ti/ccs1110/ccs/tools/compiler/ti-cgt-msp430_21.6.1.LTS/include/_defs.h",line 
    1772            $C$DW$90        .dwtag  DW_TAG_TI_branch
    1773                    .dwattr $C$DW$90, DW_AT_low_pc(0x00)
MSP430 Assembler PC v21.6.1 Tue Dec 20 13:45:58 2022

Copyright (c) 2003-2018 Texas Instruments Incorporated
Fans.asm                                                             PAGE   34

    1774                    .dwattr $C$DW$90, DW_AT_TI_return
    1775            
    1776 00000e 0110          RETA      ; [] 
    1777                    ; [] 
    1778                    .dwattr $C$DW$88, DW_AT_TI_end_file("C:/ti/ccs1110/ccs/tools/compiler/ti-cgt-msp430_21.6.1.LTS
    1779                    .dwattr $C$DW$88, DW_AT_TI_end_line(0x14f)
    1780                    .dwattr $C$DW$88, DW_AT_TI_end_column(0x2e)
    1781                    .dwendentry
    1782                    .dwendtag $C$DW$88
    1783            
    1784 000000               .sect   ".text:__fpclassifyl"
    1785                    .clink
    1786                    .global __fpclassifyl
    1787            
    1788            $C$DW$91        .dwtag  DW_TAG_subprogram
    1789                    .dwattr $C$DW$91, DW_AT_name("__fpclassifyl")
    1790                    .dwattr $C$DW$91, DW_AT_low_pc(__fpclassifyl)
    1791                    .dwattr $C$DW$91, DW_AT_high_pc(0x00)
    1792                    .dwattr $C$DW$91, DW_AT_TI_symbol_name("__fpclassifyl")
    1793                    .dwattr $C$DW$91, DW_AT_external
    1794                    .dwattr $C$DW$91, DW_AT_type(*$C$DW$T$10)
    1795                    .dwattr $C$DW$91, DW_AT_TI_begin_file("C:/ti/ccs1110/ccs/tools/compiler/ti-cgt-msp430_21.6.1.L
    1796                    .dwattr $C$DW$91, DW_AT_TI_begin_line(0x1ae)
    1797                    .dwattr $C$DW$91, DW_AT_TI_begin_column(0x25)
    1798                    .dwattr $C$DW$91, DW_AT_decl_file("C:/ti/ccs1110/ccs/tools/compiler/ti-cgt-msp430_21.6.1.LTS/i
    1799                    .dwattr $C$DW$91, DW_AT_decl_line(0x1ae)
    1800                    .dwattr $C$DW$91, DW_AT_decl_column(0x25)
    1801                    .dwattr $C$DW$91, DW_AT_TI_max_frame_size(0x20)
    1802                    .dwpsn  file "C:/ti/ccs1110/ccs/tools/compiler/ti-cgt-msp430_21.6.1.LTS/include/_defs.h",line 
    1803            
    1804                    .dwfde $C$DW$CIE, __fpclassifyl
    1805            $C$DW$92        .dwtag  DW_TAG_formal_parameter
    1806                    .dwattr $C$DW$92, DW_AT_name("e")
    1807                    .dwattr $C$DW$92, DW_AT_TI_symbol_name("e")
    1808                    .dwattr $C$DW$92, DW_AT_type(*$C$DW$T$18)
    1809                    .dwattr $C$DW$92, DW_AT_location[DW_OP_reg12 DW_OP_piece 2 DW_OP_reg13 DW_OP_piece 2 DW_OP_reg
    1810            
    1811            
    1812            ;*****************************************************************************
    1813            ;* FUNCTION NAME: __fpclassifyl                                              *
    1814            ;*                                                                           *
    1815            ;*   Regs Modified     : SP,SR,r4,r5,r6,r7,r8,r9,r10,r11,r12,r13,r14,r15     *
    1816            ;*   Regs Used         : SP,SR,r4,r5,r6,r7,r8,r9,r10,r11,r12,r13,r14,r15     *
    1817            ;*   Local Frame Size  : 0 Args + 0 Auto + 28 Save = 28 byte                 *
    1818            ;*****************************************************************************
    1819 000000       __fpclassifyl:
    1820            ;* --------------------------------------------------------------------------*
    1821                    .dwcfi  cfa_offset, 4
    1822                    .dwcfi  save_reg_to_mem, 16, -4
    1823 000000 146A          PUSHM.A   #7,r10                ; [] 
    1824                    .dwcfi  save_reg_to_mem, 10, -8
    1825                    .dwcfi  save_reg_to_mem, 9, -12
    1826                    .dwcfi  save_reg_to_mem, 8, -16
    1827                    .dwcfi  save_reg_to_mem, 7, -20
    1828                    .dwcfi  save_reg_to_mem, 6, -24
MSP430 Assembler PC v21.6.1 Tue Dec 20 13:45:58 2022

Copyright (c) 2003-2018 Texas Instruments Incorporated
Fans.asm                                                             PAGE   35

    1829                    .dwcfi  save_reg_to_mem, 5, -28
    1830                    .dwcfi  save_reg_to_mem, 4, -32
    1831                    .dwcfi  cfa_offset, 32
    1832            ;* r4    assigned to e
    1833            $C$DW$93        .dwtag  DW_TAG_variable
    1834                    .dwattr $C$DW$93, DW_AT_name("e")
    1835                    .dwattr $C$DW$93, DW_AT_TI_symbol_name("e")
    1836                    .dwattr $C$DW$93, DW_AT_type(*$C$DW$T$18)
    1837                    .dwattr $C$DW$93, DW_AT_location[DW_OP_reg4 DW_OP_piece 2 DW_OP_reg5 DW_OP_piece 2 DW_OP_reg6 
    1838            
    1839 000002 0CC4          MOVA      r12,r4                ; [] |431| 
    1840 000004 0DC5          MOVA      r13,r5                ; [] |431| 
    1841 000006 0EC6          MOVA      r14,r6                ; [] |431| 
    1842 000008 0FC7          MOVA      r15,r7                ; [] |431| 
    1843                    .dwpsn  file "C:/ti/ccs1110/ccs/tools/compiler/ti-cgt-msp430_21.6.1.LTS/include/_defs.h",line 
    1844 00000a F03F          AND.W     #32752,r15            ; [] |436| 
         00000c 7FF0 
    1845 00000e 903F          CMP.W     #32752,r15            ; [] |436| 
         000010 7FF0 
    1846 000012 2011          JNE       $C$L25                ; [] |436| 
    1847                                                      ; [] |436| 
    1848            ;* --------------------------------------------------------------------------*
    1849 000014 F334          AND.W     #65535,r4             ; [] |436| 
    1850 000016 F335          AND.W     #65535,r5             ; [] |436| 
    1851 000018 F336          AND.W     #65535,r6             ; [] |436| 
    1852 00001a F037          AND.W     #15,r7                ; [] |436| 
         00001c 000F 
    1853 00001e 9307          TST.W     r7                    ; [] |436| 
    1854 000020 2006          JNE       $C$L23                ; [] |436| 
    1855                                                      ; [] |436| 
    1856            ;* --------------------------------------------------------------------------*
    1857 000022 9306          TST.W     r6                    ; [] |436| 
    1858 000024 2004          JNE       $C$L23                ; [] |436| 
    1859                                                      ; [] |436| 
    1860            ;* --------------------------------------------------------------------------*
    1861 000026 9305          TST.W     r5                    ; [] |436| 
    1862 000028 2002          JNE       $C$L23                ; [] |436| 
    1863                                                      ; [] |436| 
    1864            ;* --------------------------------------------------------------------------*
    1865 00002a 9304          TST.W     r4                    ; [] |436| 
    1866 00002c 2402          JEQ       $C$L24                ; [] |436| 
    1867                                                      ; [] |436| 
    1868            ;* --------------------------------------------------------------------------*
    1869 00002e       $C$L23:    
    1870 00002e 432C          MOV.W     #2,r12                ; [] |436| 
    1871 000030 3C2A          JMP       $C$L30                ; [] |436| 
    1872                                                      ; [] |436| 
    1873            ;* --------------------------------------------------------------------------*
    1874 000032       $C$L24:    
    1875 000032 431C          MOV.W     #1,r12                ; [] |436| 
    1876 000034 3C28          JMP       $C$L30                ; [] |436| 
    1877                                                      ; [] |436| 
    1878            ;* --------------------------------------------------------------------------*
    1879 000036       $C$L25:    
    1880 000036 04C8          MOVA      r4,r8                 ; [] |436| 
MSP430 Assembler PC v21.6.1 Tue Dec 20 13:45:58 2022

Copyright (c) 2003-2018 Texas Instruments Incorporated
Fans.asm                                                             PAGE   36

    1881 000038 05C9          MOVA      r5,r9                 ; [] |436| 
    1882 00003a 06CA          MOVA      r6,r10                ; [] |436| 
    1883 00003c 07CB          MOVA      r7,r11                ; [] |436| 
    1884 00003e 403C          MOV.W     #52,r12               ; [] |436| 
         000040 0034 
    1885            $C$DW$94        .dwtag  DW_TAG_TI_branch
    1886                    .dwattr $C$DW$94, DW_AT_low_pc(0x00)
    1887                    .dwattr $C$DW$94, DW_AT_name("__mspabi_srlll")
    1888                    .dwattr $C$DW$94, DW_AT_TI_call
    1889            
    1890 000042 13B0!         CALLA     #__mspabi_srlll       ; [] |436| 
         000044 0000 
    1891                                                      ; [] |436| 
    1892 000046 F03C          AND.W     #2047,r12             ; [] |436| 
         000048 07FF 
    1893 00004a F30D          AND.W     #0,r13                ; [] |436| 
    1894 00004c F30E          AND.W     #0,r14                ; [] |436| 
    1895 00004e F30F          AND.W     #0,r15                ; [] |436| 
    1896 000050 930F          TST.W     r15                   ; [] |436| 
    1897 000052 2006          JNE       $C$L26                ; [] |436| 
    1898                                                      ; [] |436| 
    1899            ;* --------------------------------------------------------------------------*
    1900 000054 930E          TST.W     r14                   ; [] |436| 
    1901 000056 2004          JNE       $C$L26                ; [] |436| 
    1902                                                      ; [] |436| 
    1903            ;* --------------------------------------------------------------------------*
    1904 000058 930D          TST.W     r13                   ; [] |436| 
    1905 00005a 2002          JNE       $C$L26                ; [] |436| 
    1906                                                      ; [] |436| 
    1907            ;* --------------------------------------------------------------------------*
    1908 00005c 930C          TST.W     r12                   ; [] |436| 
    1909 00005e 2402          JEQ       $C$L27                ; [] |436| 
    1910                                                      ; [] |436| 
    1911            ;* --------------------------------------------------------------------------*
    1912 000060       $C$L26:    
    1913 000060 433C          MOV.W     #-1,r12               ; [] |436| 
    1914 000062 3C11          JMP       $C$L30                ; [] |436| 
    1915                                                      ; [] |436| 
    1916            ;* --------------------------------------------------------------------------*
    1917 000064       $C$L27:    
    1918 000064 F334          AND.W     #65535,r4             ; [] |436| 
    1919 000066 F335          AND.W     #65535,r5             ; [] |436| 
    1920 000068 F336          AND.W     #65535,r6             ; [] |436| 
    1921 00006a F037          AND.W     #15,r7                ; [] |436| 
         00006c 000F 
    1922 00006e 9307          TST.W     r7                    ; [] |436| 
    1923 000070 2006          JNE       $C$L28                ; [] |436| 
    1924                                                      ; [] |436| 
    1925            ;* --------------------------------------------------------------------------*
    1926 000072 9306          TST.W     r6                    ; [] |436| 
    1927 000074 2004          JNE       $C$L28                ; [] |436| 
    1928                                                      ; [] |436| 
    1929            ;* --------------------------------------------------------------------------*
    1930 000076 9305          TST.W     r5                    ; [] |436| 
    1931 000078 2002          JNE       $C$L28                ; [] |436| 
MSP430 Assembler PC v21.6.1 Tue Dec 20 13:45:58 2022

Copyright (c) 2003-2018 Texas Instruments Incorporated
Fans.asm                                                             PAGE   37

    1932                                                      ; [] |436| 
    1933            ;* --------------------------------------------------------------------------*
    1934 00007a 9304          TST.W     r4                    ; [] |436| 
    1935 00007c 2403          JEQ       $C$L29                ; [] |436| 
    1936                                                      ; [] |436| 
    1937            ;* --------------------------------------------------------------------------*
    1938 00007e       $C$L28:    
    1939 00007e 403C          MOV.W     #65534,r12            ; [] |436| 
         000080 FFFE 
    1940 000082 3C01          JMP       $C$L30                ; [] |436| 
    1941                                                      ; [] |436| 
    1942            ;* --------------------------------------------------------------------------*
    1943 000084       $C$L29:    
    1944 000084 430C          MOV.W     #0,r12                ; [] |436| 
    1945            ;* --------------------------------------------------------------------------*
    1946 000086       $C$L30:    
    1947                    .dwpsn  file "C:/ti/ccs1110/ccs/tools/compiler/ti-cgt-msp430_21.6.1.LTS/include/_defs.h",line 
    1948 000086 1664          POPM.A    #7,r10                ; [] 
    1949                    .dwcfi  restore_reg, 4
    1950                    .dwcfi  restore_reg, 5
    1951                    .dwcfi  restore_reg, 6
    1952                    .dwcfi  restore_reg, 7
    1953                    .dwcfi  restore_reg, 8
    1954                    .dwcfi  restore_reg, 9
    1955                    .dwcfi  restore_reg, 10
    1956                    .dwcfi  cfa_offset, 4
    1957            $C$DW$95        .dwtag  DW_TAG_TI_branch
    1958                    .dwattr $C$DW$95, DW_AT_low_pc(0x00)
    1959                    .dwattr $C$DW$95, DW_AT_TI_return
    1960            
    1961 000088 0110          RETA      ; [] 
    1962                    ; [] 
    1963                    .dwattr $C$DW$91, DW_AT_TI_end_file("C:/ti/ccs1110/ccs/tools/compiler/ti-cgt-msp430_21.6.1.LTS
    1964                    .dwattr $C$DW$91, DW_AT_TI_end_line(0x1bd)
    1965                    .dwattr $C$DW$91, DW_AT_TI_end_column(0x01)
    1966                    .dwendentry
    1967                    .dwendtag $C$DW$91
    1968            
    1969 000000               .sect   ".text:__fpclassifyf"
    1970                    .clink
    1971                    .global __fpclassifyf
    1972            
    1973            $C$DW$96        .dwtag  DW_TAG_subprogram
    1974                    .dwattr $C$DW$96, DW_AT_name("__fpclassifyf")
    1975                    .dwattr $C$DW$96, DW_AT_low_pc(__fpclassifyf)
    1976                    .dwattr $C$DW$96, DW_AT_high_pc(0x00)
    1977                    .dwattr $C$DW$96, DW_AT_TI_symbol_name("__fpclassifyf")
    1978                    .dwattr $C$DW$96, DW_AT_external
    1979                    .dwattr $C$DW$96, DW_AT_type(*$C$DW$T$10)
    1980                    .dwattr $C$DW$96, DW_AT_TI_begin_file("C:/ti/ccs1110/ccs/tools/compiler/ti-cgt-msp430_21.6.1.L
    1981                    .dwattr $C$DW$96, DW_AT_TI_begin_line(0x18c)
    1982                    .dwattr $C$DW$96, DW_AT_TI_begin_column(0x25)
    1983                    .dwattr $C$DW$96, DW_AT_decl_file("C:/ti/ccs1110/ccs/tools/compiler/ti-cgt-msp430_21.6.1.LTS/i
    1984                    .dwattr $C$DW$96, DW_AT_decl_line(0x18c)
    1985                    .dwattr $C$DW$96, DW_AT_decl_column(0x25)
MSP430 Assembler PC v21.6.1 Tue Dec 20 13:45:58 2022

Copyright (c) 2003-2018 Texas Instruments Incorporated
Fans.asm                                                             PAGE   38

    1986                    .dwattr $C$DW$96, DW_AT_TI_max_frame_size(0x04)
    1987                    .dwpsn  file "C:/ti/ccs1110/ccs/tools/compiler/ti-cgt-msp430_21.6.1.LTS/include/_defs.h",line 
    1988            
    1989                    .dwfde $C$DW$CIE, __fpclassifyf
    1990            $C$DW$97        .dwtag  DW_TAG_formal_parameter
    1991                    .dwattr $C$DW$97, DW_AT_name("f")
    1992                    .dwattr $C$DW$97, DW_AT_TI_symbol_name("f")
    1993                    .dwattr $C$DW$97, DW_AT_type(*$C$DW$T$16)
    1994                    .dwattr $C$DW$97, DW_AT_location[DW_OP_reg12 DW_OP_piece 2 DW_OP_reg13 DW_OP_piece 2]
    1995            
    1996            
    1997            ;*****************************************************************************
    1998            ;* FUNCTION NAME: __fpclassifyf                                              *
    1999            ;*                                                                           *
    2000            ;*   Regs Modified     : SP,SR,r12,r13,r15                                   *
    2001            ;*   Regs Used         : SP,SR,r12,r13,r15                                   *
    2002            ;*   Local Frame Size  : 0 Args + 0 Auto + 0 Save = 0 byte                   *
    2003            ;*****************************************************************************
    2004 000000       __fpclassifyf:
    2005            ;* --------------------------------------------------------------------------*
    2006                    .dwcfi  cfa_offset, 4
    2007                    .dwcfi  save_reg_to_mem, 16, -4
    2008                    .dwpsn  file "C:/ti/ccs1110/ccs/tools/compiler/ti-cgt-msp430_21.6.1.LTS/include/_defs.h",line 
    2009 000000 0DCF          MOVA      r13,r15               ; [] |402| 
    2010 000002 F03F          AND.W     #32640,r15            ; [] |402| 
         000004 7F80 
    2011 000006 903F          CMP.W     #32640,r15            ; [] |402| 
         000008 7F80 
    2012 00000a 200B          JNE       $C$L33                ; [] |402| 
    2013                                                      ; [] |402| 
    2014            ;* --------------------------------------------------------------------------*
    2015 00000c F33C          AND.W     #65535,r12            ; [] |402| 
    2016 00000e F03D          AND.W     #127,r13              ; [] |402| 
         000010 007F 
    2017 000012 930D          TST.W     r13                   ; [] |402| 
    2018 000014 2002          JNE       $C$L31                ; [] |402| 
    2019                                                      ; [] |402| 
    2020            ;* --------------------------------------------------------------------------*
    2021 000016 930C          TST.W     r12                   ; [] |402| 
    2022 000018 2402          JEQ       $C$L32                ; [] |402| 
    2023                                                      ; [] |402| 
    2024            ;* --------------------------------------------------------------------------*
    2025 00001a       $C$L31:    
    2026 00001a 432C          MOV.W     #2,r12                ; [] |402| 
    2027 00001c 3C15          JMP       $C$L37                ; [] |402| 
    2028                                                      ; [] |402| 
    2029            ;* --------------------------------------------------------------------------*
    2030 00001e       $C$L32:    
    2031 00001e 431C          MOV.W     #1,r12                ; [] |402| 
    2032 000020 3C13          JMP       $C$L37                ; [] |402| 
    2033                                                      ; [] |402| 
    2034            ;* --------------------------------------------------------------------------*
    2035 000022       $C$L33:    
    2036 000022 0DCF          MOVA      r13,r15               ; [] |402| 
    2037 000024 1946          RPT #7 || RRUX.W r15 ; [] |402| 
MSP430 Assembler PC v21.6.1 Tue Dec 20 13:45:58 2022

Copyright (c) 2003-2018 Texas Instruments Incorporated
Fans.asm                                                             PAGE   39

         000026 100F 
    2038 000028 B03F          BIT.W     #255,r15              ; [] |402| 
         00002a 00FF 
    2039 00002c 2402          JEQ       $C$L34                ; [] |402| 
    2040                                                      ; [] |402| 
    2041            ;* --------------------------------------------------------------------------*
    2042 00002e 433C          MOV.W     #-1,r12               ; [] |402| 
    2043 000030 3C0B          JMP       $C$L37                ; [] |402| 
    2044                                                      ; [] |402| 
    2045            ;* --------------------------------------------------------------------------*
    2046 000032       $C$L34:    
    2047 000032 F33C          AND.W     #65535,r12            ; [] |402| 
    2048 000034 F03D          AND.W     #127,r13              ; [] |402| 
         000036 007F 
    2049 000038 930D          TST.W     r13                   ; [] |402| 
    2050 00003a 2002          JNE       $C$L35                ; [] |402| 
    2051                                                      ; [] |402| 
    2052            ;* --------------------------------------------------------------------------*
    2053 00003c 930C          TST.W     r12                   ; [] |402| 
    2054 00003e 2403          JEQ       $C$L36                ; [] |402| 
    2055                                                      ; [] |402| 
    2056            ;* --------------------------------------------------------------------------*
    2057 000040       $C$L35:    
    2058 000040 403C          MOV.W     #65534,r12            ; [] |402| 
         000042 FFFE 
    2059 000044 3C01          JMP       $C$L37                ; [] |402| 
    2060                                                      ; [] |402| 
    2061            ;* --------------------------------------------------------------------------*
    2062 000046       $C$L36:    
    2063 000046 430C          MOV.W     #0,r12                ; [] |402| 
    2064            ;* --------------------------------------------------------------------------*
    2065 000048       $C$L37:    
    2066                    .dwpsn  file "C:/ti/ccs1110/ccs/tools/compiler/ti-cgt-msp430_21.6.1.LTS/include/_defs.h",line 
    2067            $C$DW$98        .dwtag  DW_TAG_TI_branch
    2068                    .dwattr $C$DW$98, DW_AT_low_pc(0x00)
    2069                    .dwattr $C$DW$98, DW_AT_TI_return
    2070            
    2071 000048 0110          RETA      ; [] 
    2072                    ; [] 
    2073                    .dwattr $C$DW$96, DW_AT_TI_end_file("C:/ti/ccs1110/ccs/tools/compiler/ti-cgt-msp430_21.6.1.LTS
    2074                    .dwattr $C$DW$96, DW_AT_TI_end_line(0x19b)
    2075                    .dwattr $C$DW$96, DW_AT_TI_end_column(0x01)
    2076                    .dwendentry
    2077                    .dwendtag $C$DW$96
    2078            
    2079 000000               .sect   ".text:__fpclassify"
    2080                    .clink
    2081                    .global __fpclassify
    2082            
    2083            $C$DW$99        .dwtag  DW_TAG_subprogram
    2084                    .dwattr $C$DW$99, DW_AT_name("__fpclassify")
    2085                    .dwattr $C$DW$99, DW_AT_low_pc(__fpclassify)
    2086                    .dwattr $C$DW$99, DW_AT_high_pc(0x00)
    2087                    .dwattr $C$DW$99, DW_AT_TI_symbol_name("__fpclassify")
    2088                    .dwattr $C$DW$99, DW_AT_external
MSP430 Assembler PC v21.6.1 Tue Dec 20 13:45:58 2022

Copyright (c) 2003-2018 Texas Instruments Incorporated
Fans.asm                                                             PAGE   40

    2089                    .dwattr $C$DW$99, DW_AT_type(*$C$DW$T$10)
    2090                    .dwattr $C$DW$99, DW_AT_TI_begin_file("C:/ti/ccs1110/ccs/tools/compiler/ti-cgt-msp430_21.6.1.L
    2091                    .dwattr $C$DW$99, DW_AT_TI_begin_line(0x19d)
    2092                    .dwattr $C$DW$99, DW_AT_TI_begin_column(0x25)
    2093                    .dwattr $C$DW$99, DW_AT_decl_file("C:/ti/ccs1110/ccs/tools/compiler/ti-cgt-msp430_21.6.1.LTS/i
    2094                    .dwattr $C$DW$99, DW_AT_decl_line(0x19d)
    2095                    .dwattr $C$DW$99, DW_AT_decl_column(0x25)
    2096                    .dwattr $C$DW$99, DW_AT_TI_max_frame_size(0x20)
    2097                    .dwpsn  file "C:/ti/ccs1110/ccs/tools/compiler/ti-cgt-msp430_21.6.1.LTS/include/_defs.h",line 
    2098            
    2099                    .dwfde $C$DW$CIE, __fpclassify
    2100            $C$DW$100       .dwtag  DW_TAG_formal_parameter
    2101                    .dwattr $C$DW$100, DW_AT_name("d")
    2102                    .dwattr $C$DW$100, DW_AT_TI_symbol_name("d")
    2103                    .dwattr $C$DW$100, DW_AT_type(*$C$DW$T$17)
    2104                    .dwattr $C$DW$100, DW_AT_location[DW_OP_reg12 DW_OP_piece 2 DW_OP_reg13 DW_OP_piece 2 DW_OP_re
    2105            
    2106            
    2107            ;*****************************************************************************
    2108            ;* FUNCTION NAME: __fpclassify                                               *
    2109            ;*                                                                           *
    2110            ;*   Regs Modified     : SP,SR,r4,r5,r6,r7,r8,r9,r10,r11,r12,r13,r14,r15     *
    2111            ;*   Regs Used         : SP,SR,r4,r5,r6,r7,r8,r9,r10,r11,r12,r13,r14,r15     *
    2112            ;*   Local Frame Size  : 0 Args + 0 Auto + 28 Save = 28 byte                 *
    2113            ;*****************************************************************************
    2114 000000       __fpclassify:
    2115            ;* --------------------------------------------------------------------------*
    2116                    .dwcfi  cfa_offset, 4
    2117                    .dwcfi  save_reg_to_mem, 16, -4
    2118 000000 146A          PUSHM.A   #7,r10                ; [] 
    2119                    .dwcfi  save_reg_to_mem, 10, -8
    2120                    .dwcfi  save_reg_to_mem, 9, -12
    2121                    .dwcfi  save_reg_to_mem, 8, -16
    2122                    .dwcfi  save_reg_to_mem, 7, -20
    2123                    .dwcfi  save_reg_to_mem, 6, -24
    2124                    .dwcfi  save_reg_to_mem, 5, -28
    2125                    .dwcfi  save_reg_to_mem, 4, -32
    2126                    .dwcfi  cfa_offset, 32
    2127            ;* r4    assigned to d
    2128            $C$DW$101       .dwtag  DW_TAG_variable
    2129                    .dwattr $C$DW$101, DW_AT_name("d")
    2130                    .dwattr $C$DW$101, DW_AT_TI_symbol_name("d")
    2131                    .dwattr $C$DW$101, DW_AT_type(*$C$DW$T$17)
    2132                    .dwattr $C$DW$101, DW_AT_location[DW_OP_reg4 DW_OP_piece 2 DW_OP_reg5 DW_OP_piece 2 DW_OP_reg6
    2133            
    2134 000002 0CC4          MOVA      r12,r4                ; [] |414| 
    2135 000004 0DC5          MOVA      r13,r5                ; [] |414| 
    2136 000006 0EC6          MOVA      r14,r6                ; [] |414| 
    2137 000008 0FC7          MOVA      r15,r7                ; [] |414| 
    2138                    .dwpsn  file "C:/ti/ccs1110/ccs/tools/compiler/ti-cgt-msp430_21.6.1.LTS/include/_defs.h",line 
    2139 00000a F03F          AND.W     #32752,r15            ; [] |419| 
         00000c 7FF0 
    2140 00000e 903F          CMP.W     #32752,r15            ; [] |419| 
         000010 7FF0 
    2141 000012 2011          JNE       $C$L40                ; [] |419| 
MSP430 Assembler PC v21.6.1 Tue Dec 20 13:45:58 2022

Copyright (c) 2003-2018 Texas Instruments Incorporated
Fans.asm                                                             PAGE   41

    2142                                                      ; [] |419| 
    2143            ;* --------------------------------------------------------------------------*
    2144 000014 F334          AND.W     #65535,r4             ; [] |419| 
    2145 000016 F335          AND.W     #65535,r5             ; [] |419| 
    2146 000018 F336          AND.W     #65535,r6             ; [] |419| 
    2147 00001a F037          AND.W     #15,r7                ; [] |419| 
         00001c 000F 
    2148 00001e 9307          TST.W     r7                    ; [] |419| 
    2149 000020 2006          JNE       $C$L38                ; [] |419| 
    2150                                                      ; [] |419| 
    2151            ;* --------------------------------------------------------------------------*
    2152 000022 9306          TST.W     r6                    ; [] |419| 
    2153 000024 2004          JNE       $C$L38                ; [] |419| 
    2154                                                      ; [] |419| 
    2155            ;* --------------------------------------------------------------------------*
    2156 000026 9305          TST.W     r5                    ; [] |419| 
    2157 000028 2002          JNE       $C$L38                ; [] |419| 
    2158                                                      ; [] |419| 
    2159            ;* --------------------------------------------------------------------------*
    2160 00002a 9304          TST.W     r4                    ; [] |419| 
    2161 00002c 2402          JEQ       $C$L39                ; [] |419| 
    2162                                                      ; [] |419| 
    2163            ;* --------------------------------------------------------------------------*
    2164 00002e       $C$L38:    
    2165 00002e 432C          MOV.W     #2,r12                ; [] |419| 
    2166 000030 3C2A          JMP       $C$L45                ; [] |419| 
    2167                                                      ; [] |419| 
    2168            ;* --------------------------------------------------------------------------*
    2169 000032       $C$L39:    
    2170 000032 431C          MOV.W     #1,r12                ; [] |419| 
    2171 000034 3C28          JMP       $C$L45                ; [] |419| 
    2172                                                      ; [] |419| 
    2173            ;* --------------------------------------------------------------------------*
    2174 000036       $C$L40:    
    2175 000036 04C8          MOVA      r4,r8                 ; [] |419| 
    2176 000038 05C9          MOVA      r5,r9                 ; [] |419| 
    2177 00003a 06CA          MOVA      r6,r10                ; [] |419| 
    2178 00003c 07CB          MOVA      r7,r11                ; [] |419| 
    2179 00003e 403C          MOV.W     #52,r12               ; [] |419| 
         000040 0034 
    2180            $C$DW$102       .dwtag  DW_TAG_TI_branch
    2181                    .dwattr $C$DW$102, DW_AT_low_pc(0x00)
    2182                    .dwattr $C$DW$102, DW_AT_name("__mspabi_srlll")
    2183                    .dwattr $C$DW$102, DW_AT_TI_call
    2184            
    2185 000042 13B0!         CALLA     #__mspabi_srlll       ; [] |419| 
         000044 0000 
    2186                                                      ; [] |419| 
    2187 000046 F03C          AND.W     #2047,r12             ; [] |419| 
         000048 07FF 
    2188 00004a F30D          AND.W     #0,r13                ; [] |419| 
    2189 00004c F30E          AND.W     #0,r14                ; [] |419| 
    2190 00004e F30F          AND.W     #0,r15                ; [] |419| 
    2191 000050 930F          TST.W     r15                   ; [] |419| 
    2192 000052 2006          JNE       $C$L41                ; [] |419| 
MSP430 Assembler PC v21.6.1 Tue Dec 20 13:45:58 2022

Copyright (c) 2003-2018 Texas Instruments Incorporated
Fans.asm                                                             PAGE   42

    2193                                                      ; [] |419| 
    2194            ;* --------------------------------------------------------------------------*
    2195 000054 930E          TST.W     r14                   ; [] |419| 
    2196 000056 2004          JNE       $C$L41                ; [] |419| 
    2197                                                      ; [] |419| 
    2198            ;* --------------------------------------------------------------------------*
    2199 000058 930D          TST.W     r13                   ; [] |419| 
    2200 00005a 2002          JNE       $C$L41                ; [] |419| 
    2201                                                      ; [] |419| 
    2202            ;* --------------------------------------------------------------------------*
    2203 00005c 930C          TST.W     r12                   ; [] |419| 
    2204 00005e 2402          JEQ       $C$L42                ; [] |419| 
    2205                                                      ; [] |419| 
    2206            ;* --------------------------------------------------------------------------*
    2207 000060       $C$L41:    
    2208 000060 433C          MOV.W     #-1,r12               ; [] |419| 
    2209 000062 3C11          JMP       $C$L45                ; [] |419| 
    2210                                                      ; [] |419| 
    2211            ;* --------------------------------------------------------------------------*
    2212 000064       $C$L42:    
    2213 000064 F334          AND.W     #65535,r4             ; [] |419| 
    2214 000066 F335          AND.W     #65535,r5             ; [] |419| 
    2215 000068 F336          AND.W     #65535,r6             ; [] |419| 
    2216 00006a F037          AND.W     #15,r7                ; [] |419| 
         00006c 000F 
    2217 00006e 9307          TST.W     r7                    ; [] |419| 
    2218 000070 2006          JNE       $C$L43                ; [] |419| 
    2219                                                      ; [] |419| 
    2220            ;* --------------------------------------------------------------------------*
    2221 000072 9306          TST.W     r6                    ; [] |419| 
    2222 000074 2004          JNE       $C$L43                ; [] |419| 
    2223                                                      ; [] |419| 
    2224            ;* --------------------------------------------------------------------------*
    2225 000076 9305          TST.W     r5                    ; [] |419| 
    2226 000078 2002          JNE       $C$L43                ; [] |419| 
    2227                                                      ; [] |419| 
    2228            ;* --------------------------------------------------------------------------*
    2229 00007a 9304          TST.W     r4                    ; [] |419| 
    2230 00007c 2403          JEQ       $C$L44                ; [] |419| 
    2231                                                      ; [] |419| 
    2232            ;* --------------------------------------------------------------------------*
    2233 00007e       $C$L43:    
    2234 00007e 403C          MOV.W     #65534,r12            ; [] |419| 
         000080 FFFE 
    2235 000082 3C01          JMP       $C$L45                ; [] |419| 
    2236                                                      ; [] |419| 
    2237            ;* --------------------------------------------------------------------------*
    2238 000084       $C$L44:    
    2239 000084 430C          MOV.W     #0,r12                ; [] |419| 
    2240            ;* --------------------------------------------------------------------------*
    2241 000086       $C$L45:    
    2242                    .dwpsn  file "C:/ti/ccs1110/ccs/tools/compiler/ti-cgt-msp430_21.6.1.LTS/include/_defs.h",line 
    2243 000086 1664          POPM.A    #7,r10                ; [] 
    2244                    .dwcfi  restore_reg, 4
    2245                    .dwcfi  restore_reg, 5
MSP430 Assembler PC v21.6.1 Tue Dec 20 13:45:58 2022

Copyright (c) 2003-2018 Texas Instruments Incorporated
Fans.asm                                                             PAGE   43

    2246                    .dwcfi  restore_reg, 6
    2247                    .dwcfi  restore_reg, 7
    2248                    .dwcfi  restore_reg, 8
    2249                    .dwcfi  restore_reg, 9
    2250                    .dwcfi  restore_reg, 10
    2251                    .dwcfi  cfa_offset, 4
    2252            $C$DW$103       .dwtag  DW_TAG_TI_branch
    2253                    .dwattr $C$DW$103, DW_AT_low_pc(0x00)
    2254                    .dwattr $C$DW$103, DW_AT_TI_return
    2255            
    2256 000088 0110          RETA      ; [] 
    2257                    ; [] 
    2258                    .dwattr $C$DW$99, DW_AT_TI_end_file("C:/ti/ccs1110/ccs/tools/compiler/ti-cgt-msp430_21.6.1.LTS
    2259                    .dwattr $C$DW$99, DW_AT_TI_end_line(0x1ac)
    2260                    .dwattr $C$DW$99, DW_AT_TI_end_column(0x01)
    2261                    .dwendentry
    2262                    .dwendtag $C$DW$99
    2263            
    2264 000000               .sect   ".text:Set_FCSFan"
    2265                    .clink
    2266                    .global Set_FCSFan
    2267            
    2268            $C$DW$104       .dwtag  DW_TAG_subprogram
    2269                    .dwattr $C$DW$104, DW_AT_name("Set_FCSFan")
    2270                    .dwattr $C$DW$104, DW_AT_low_pc(Set_FCSFan)
    2271                    .dwattr $C$DW$104, DW_AT_high_pc(0x00)
    2272                    .dwattr $C$DW$104, DW_AT_TI_symbol_name("Set_FCSFan")
    2273                    .dwattr $C$DW$104, DW_AT_external
    2274                    .dwattr $C$DW$104, DW_AT_TI_begin_file("../src/Fans.c")
    2275                    .dwattr $C$DW$104, DW_AT_TI_begin_line(0x7e)
    2276                    .dwattr $C$DW$104, DW_AT_TI_begin_column(0x06)
    2277                    .dwattr $C$DW$104, DW_AT_decl_file("../src/Fans.c")
    2278                    .dwattr $C$DW$104, DW_AT_decl_line(0x7e)
    2279                    .dwattr $C$DW$104, DW_AT_decl_column(0x06)
    2280                    .dwattr $C$DW$104, DW_AT_TI_max_frame_size(0x04)
    2281                    .dwpsn  file "../src/Fans.c",line 127,column 1,is_stmt,address Set_FCSFan,isa 0
    2282            
    2283                    .dwfde $C$DW$CIE, Set_FCSFan
    2284            $C$DW$105       .dwtag  DW_TAG_formal_parameter
    2285                    .dwattr $C$DW$105, DW_AT_name("Fan3_Counts")
    2286                    .dwattr $C$DW$105, DW_AT_TI_symbol_name("Fan3_Counts")
    2287                    .dwattr $C$DW$105, DW_AT_type(*$C$DW$T$10)
    2288                    .dwattr $C$DW$105, DW_AT_location[DW_OP_reg12]
    2289            
    2290            
    2291            ;*****************************************************************************
    2292            ;* FUNCTION NAME: Set_FCSFan                                                 *
    2293            ;*                                                                           *
    2294            ;*   Regs Modified     : SP,SR,r12,r14,r15                                   *
    2295            ;*   Regs Used         : SP,SR,r12,r14,r15                                   *
    2296            ;*   Local Frame Size  : 0 Args + 0 Auto + 0 Save = 0 byte                   *
    2297            ;*****************************************************************************
    2298 000000       Set_FCSFan:
    2299            ;* --------------------------------------------------------------------------*
    2300                    .dwcfi  cfa_offset, 4
MSP430 Assembler PC v21.6.1 Tue Dec 20 13:45:58 2022

Copyright (c) 2003-2018 Texas Instruments Incorporated
Fans.asm                                                             PAGE   44

    2301                    .dwcfi  save_reg_to_mem, 16, -4
    2302            ;* r12   assigned to Fan3_Counts
    2303            $C$DW$106       .dwtag  DW_TAG_variable
    2304                    .dwattr $C$DW$106, DW_AT_name("Fan3_Counts")
    2305                    .dwattr $C$DW$106, DW_AT_TI_symbol_name("Fan3_Counts")
    2306                    .dwattr $C$DW$106, DW_AT_type(*$C$DW$T$10)
    2307                    .dwattr $C$DW$106, DW_AT_location[DW_OP_reg12]
    2308            
    2309                    .dwpsn  file "../src/Fans.c",line 133,column 3,is_stmt,isa 0
    2310 000000 9382          TST.W     &FC_FAN_PWM_speed_GUI+0 ; [] |133| 
         000002 0000!
    2311 000004 2405          JEQ       $C$L46                ; [] |133| 
    2312                                                      ; [] |133| 
    2313            ;* --------------------------------------------------------------------------*
    2314                    .dwpsn  file "../src/Fans.c",line 134,column 6,is_stmt,isa 0
    2315 000006 421C          MOV.W     &FC_FAN_PWM_speed_GUI+0,r12 ; [] |134| 
         000008 0000!
    2316 00000a 0CCF          MOVA      r12,r15               ; [] |134| 
    2317 00000c 065F          RLAM.W    #2,r15                ; [] |134| 
    2318 00000e 5F0C          ADD.W     r15,r12               ; [] |134| 
    2319            ;* --------------------------------------------------------------------------*
    2320 000010       $C$L46:    
    2321                    .dwpsn  file "../src/Fans.c",line 137,column 5,is_stmt,isa 0
    2322 000010 903C          CMP.W     #32,r12               ; [] |137| 
         000012 0020 
    2323 000014 3401          JGE       $C$L47                ; [] |137| 
    2324                                                      ; [] |137| 
    2325            ;* --------------------------------------------------------------------------*
    2326                    .dwpsn  file "../src/Fans.c",line 138,column 8,is_stmt,isa 0
    2327 000016 430C          MOV.W     #0,r12                ; [] |138| 
    2328            ;* --------------------------------------------------------------------------*
    2329 000018       $C$L47:    
    2330                    .dwpsn  file "../src/Fans.c",line 139,column 5,is_stmt,isa 0
    2331 000018 903C          CMP.W     #701,r12              ; [] |139| 
         00001a 02BD 
    2332 00001c 3802          JL        $C$L48                ; [] |139| 
    2333                                                      ; [] |139| 
    2334            ;* --------------------------------------------------------------------------*
    2335                    .dwpsn  file "../src/Fans.c",line 140,column 8,is_stmt,isa 0
    2336 00001e 403C          MOV.W     #700,r12              ; [] |140| 
         000020 02BC 
    2337            ;* --------------------------------------------------------------------------*
    2338 000022       $C$L48:    
    2339                    .dwpsn  file "../src/Fans.c",line 142,column 3,is_stmt,isa 0
    2340 000022 903C          CMP.W     #681,r12              ; [] |142| 
         000024 02A9 
    2341 000026 3403          JGE       $C$L49                ; [] |142| 
    2342                                                      ; [] |142| 
    2343            ;* --------------------------------------------------------------------------*
    2344                    .dwpsn  file "../src/Fans.c",line 143,column 8,is_stmt,isa 0
    2345 000028 D2F2          OR.B      #8,&PEOUT_L+0         ; [] |143| 
         00002a 0000!
    2346 00002c 3C02          JMP       $C$L50                ; [] |143| 
    2347                                                      ; [] |143| 
    2348            ;* --------------------------------------------------------------------------*
MSP430 Assembler PC v21.6.1 Tue Dec 20 13:45:58 2022

Copyright (c) 2003-2018 Texas Instruments Incorporated
Fans.asm                                                             PAGE   45

    2349 00002e       $C$L49:    
    2350                    .dwpsn  file "../src/Fans.c",line 142,column 26,is_stmt,isa 0
    2351 00002e C2F2          BIC.B     #8,&PEOUT_L+0         ; [] |142| 
         000030 0000!
    2352            ;* --------------------------------------------------------------------------*
    2353 000032       $C$L50:    
    2354                    .dwpsn  file "../src/Fans.c",line 149,column 3,is_stmt,isa 0
    2355 000032 93C2          TST.B     &isFCSFanON+0         ; [] |149| 
         000034 0000!
    2356 000036 2009          JNE       $C$L51                ; [] |149| 
    2357                                                      ; [] |149| 
    2358            ;* --------------------------------------------------------------------------*
    2359 000038 903C          CMP.W     #701,r12              ; [] |149| 
         00003a 02BD 
    2360 00003c 3406          JGE       $C$L51                ; [] |149| 
    2361                                                      ; [] |149| 
    2362            ;* --------------------------------------------------------------------------*
    2363                    .dwpsn  file "../src/Fans.c",line 152,column 5,is_stmt,isa 0
    2364 00003e 40B2          MOV.W     #558,&TB0CCR5+0       ; [] |152| 
         000040 022E 
         000042 0000!
    2365                    .dwpsn  file "../src/Fans.c",line 156,column 5,is_stmt,isa 0
    2366 000044 43D2          MOV.B     #1,&isFCSFanON+0      ; [] |156| 
         000046 0000!
    2367 000048 3C02          JMP       $C$L52                ; [] 
    2368                                                      ; [] 
    2369            ;* --------------------------------------------------------------------------*
    2370 00004a       $C$L51:    
    2371                    .dwpsn  file "../src/Fans.c",line 160,column 5,is_stmt,isa 0
    2372 00004a 4C82          MOV.W     r12,&TB0CCR5+0        ; [] |160| 
         00004c 0000!
    2373            ;* --------------------------------------------------------------------------*
    2374 00004e       $C$L52:    
    2375                    .dwpsn  file "../src/Fans.c",line 165,column 3,is_stmt,isa 0
    2376 00004e 90B2          CMP.W     #700,&TB0CCR5+0       ; [] |165| 
         000050 02BC 
         000052 0000!
    2377 000054 2002          JNE       $C$L53                ; [] |165| 
    2378                                                      ; [] |165| 
    2379            ;* --------------------------------------------------------------------------*
    2380                    .dwpsn  file "../src/Fans.c",line 166,column 5,is_stmt,isa 0
    2381 000056 43C2          MOV.B     #0,&isFCSFanON+0      ; [] |166| 
         000058 0000!
    2382            ;* --------------------------------------------------------------------------*
    2383 00005a       $C$L53:    
    2384                    .dwpsn  file "../src/Fans.c",line 168,column 3,is_stmt,isa 0
    2385 00005a 9382          TST.W     &FC_FAN_PWM_speed_GUI+0 ; [] |168| 
         00005c 0000!
    2386 00005e 2407          JEQ       $C$L54                ; [] |168| 
    2387                                                      ; [] |168| 
    2388            ;* --------------------------------------------------------------------------*
    2389                    .dwpsn  file "../src/Fans.c",line 169,column 6,is_stmt,isa 0
    2390 000060 421E          MOV.W     &FC_FAN_PWM_speed_GUI+0,r14 ; [] |169| 
         000062 0000!
    2391 000064 0ECF          MOVA      r14,r15               ; [] |169| 
MSP430 Assembler PC v21.6.1 Tue Dec 20 13:45:58 2022

Copyright (c) 2003-2018 Texas Instruments Incorporated
Fans.asm                                                             PAGE   46

    2392 000066 065F          RLAM.W    #2,r15                ; [] |169| 
    2393 000068 5F0E          ADD.W     r15,r14               ; [] |169| 
    2394 00006a 4E82          MOV.W     r14,&TB0CCR5+0        ; [] |169| 
         00006c 0000!
    2395            ;* --------------------------------------------------------------------------*
    2396 00006e       $C$L54:    
    2397                    .dwpsn  file "../src/Fans.c",line 171,column 1,is_stmt,isa 0
    2398            $C$DW$107       .dwtag  DW_TAG_TI_branch
    2399                    .dwattr $C$DW$107, DW_AT_low_pc(0x00)
    2400                    .dwattr $C$DW$107, DW_AT_TI_return
    2401            
    2402 00006e 0110          RETA      ; [] 
    2403                    ; [] 
    2404                    .dwattr $C$DW$104, DW_AT_TI_end_file("../src/Fans.c")
    2405                    .dwattr $C$DW$104, DW_AT_TI_end_line(0xab)
    2406                    .dwattr $C$DW$104, DW_AT_TI_end_column(0x01)
    2407                    .dwendentry
    2408                    .dwendtag $C$DW$104
    2409            
    2410 000000               .sect   ".text:Fans"
    2411                    .clink
    2412                    .global Fans
    2413            
    2414            $C$DW$108       .dwtag  DW_TAG_subprogram
    2415                    .dwattr $C$DW$108, DW_AT_name("Fans")
    2416                    .dwattr $C$DW$108, DW_AT_low_pc(Fans)
    2417                    .dwattr $C$DW$108, DW_AT_high_pc(0x00)
    2418                    .dwattr $C$DW$108, DW_AT_TI_symbol_name("Fans")
    2419                    .dwattr $C$DW$108, DW_AT_external
    2420                    .dwattr $C$DW$108, DW_AT_TI_begin_file("../src/Fans.c")
    2421                    .dwattr $C$DW$108, DW_AT_TI_begin_line(0xae)
    2422                    .dwattr $C$DW$108, DW_AT_TI_begin_column(0x06)
    2423                    .dwattr $C$DW$108, DW_AT_decl_file("../src/Fans.c")
    2424                    .dwattr $C$DW$108, DW_AT_decl_line(0xae)
    2425                    .dwattr $C$DW$108, DW_AT_decl_column(0x06)
    2426                    .dwattr $C$DW$108, DW_AT_TI_max_frame_size(0x22)
    2427                    .dwpsn  file "../src/Fans.c",line 175,column 1,is_stmt,address Fans,isa 0
    2428            
    2429                    .dwfde $C$DW$CIE, Fans
    2430            
    2431            ;*****************************************************************************
    2432            ;* FUNCTION NAME: Fans                                                       *
    2433            ;*                                                                           *
    2434            ;*   Regs Modified     : SP,SR,r4,r5,r6,r7,r8,r9,r10,r11,r12,r13,r14,r15     *
    2435            ;*   Regs Used         : SP,SR,r4,r5,r6,r7,r8,r9,r10,r11,r12,r13,r14,r15     *
    2436            ;*   Local Frame Size  : 0 Args + 2 Auto + 28 Save = 30 byte                 *
    2437            ;*****************************************************************************
    2438 000000       Fans:
    2439            ;* --------------------------------------------------------------------------*
    2440                    .dwcfi  cfa_offset, 4
    2441                    .dwcfi  save_reg_to_mem, 16, -4
    2442 000000 146A          PUSHM.A   #7,r10                ; [] 
    2443                    .dwcfi  save_reg_to_mem, 10, -8
    2444                    .dwcfi  save_reg_to_mem, 9, -12
    2445                    .dwcfi  save_reg_to_mem, 8, -16
MSP430 Assembler PC v21.6.1 Tue Dec 20 13:45:58 2022

Copyright (c) 2003-2018 Texas Instruments Incorporated
Fans.asm                                                             PAGE   47

    2446                    .dwcfi  save_reg_to_mem, 7, -20
    2447                    .dwcfi  save_reg_to_mem, 6, -24
    2448                    .dwcfi  save_reg_to_mem, 5, -28
    2449                    .dwcfi  save_reg_to_mem, 4, -32
    2450                    .dwcfi  cfa_offset, 32
    2451 000002 03F1          SUBA      #2,SP                 ; [] 
    2452                    .dwcfi  cfa_offset, 34
    2453            ;* r7    assigned to fc_cooling_temp
    2454            $C$DW$109       .dwtag  DW_TAG_variable
    2455                    .dwattr $C$DW$109, DW_AT_name("fc_cooling_temp")
    2456                    .dwattr $C$DW$109, DW_AT_TI_symbol_name("fc_cooling_temp")
    2457                    .dwattr $C$DW$109, DW_AT_type(*$C$DW$T$10)
    2458                    .dwattr $C$DW$109, DW_AT_location[DW_OP_reg7]
    2459            
    2460                    .dwpsn  file "../src/Fans.c",line 182,column 8,is_stmt,isa 0
    2461 000004 9392          CMP.W     #1,&mode+0            ; [] |182| 
         000006 0000!
    2462 000008 2003          JNE       $C$L55                ; [] |182| 
    2463                                                      ; [] |182| 
    2464            ;* --------------------------------------------------------------------------*
    2465 00000a 93C2          TST.B     &Warming+0            ; [] |182| 
         00000c 0000!
    2466 00000e 2003          JNE       $C$L56                ; [] |182| 
    2467                                                      ; [] |182| 
    2468            ;* --------------------------------------------------------------------------*
    2469 000010       $C$L55:    
    2470 000010 4217          MOV.W     &fc_run_temp_max+0,r7 ; [] |182| 
         000012 0000!
    2471 000014 3C02          JMP       $C$L57                ; [] |182| 
    2472                                                      ; [] |182| 
    2473            ;* --------------------------------------------------------------------------*
    2474 000016       $C$L56:    
    2475 000016 4037          MOV.W     #100,r7               ; [] |182| 
         000018 0064 
    2476            ;* --------------------------------------------------------------------------*
    2477 00001a       $C$L57:    
    2478                    .dwpsn  file "../src/Fans.c",line 185,column 3,is_stmt,isa 0
    2479 00001a 93C2          TST.B     &Warming+0            ; [] |185| 
         00001c 0000!
    2480 00001e 241E          JEQ       $C$L59                ; [] |185| 
    2481                                                      ; [] |185| 
    2482            ;* --------------------------------------------------------------------------*
    2483                    .dwpsn  file "../src/Fans.c",line 187,column 5,is_stmt,isa 0
    2484 000020 430C          MOV.W     #0,r12                ; [] |187| 
    2485 000022 403D          MOV.W     #16968,r13            ; [] |187| 
         000024 4248 
    2486 000026 421E          MOV.W     &TC1_temp+0,r14       ; [] |187| 
         000028 0000!
    2487 00002a 421F          MOV.W     &TC1_temp+2,r15       ; [] |187| 
         00002c 0002!
    2488            $C$DW$110       .dwtag  DW_TAG_TI_branch
    2489                    .dwattr $C$DW$110, DW_AT_low_pc(0x00)
    2490                    .dwattr $C$DW$110, DW_AT_name("__mspabi_cmpf")
    2491                    .dwattr $C$DW$110, DW_AT_TI_call
    2492            
MSP430 Assembler PC v21.6.1 Tue Dec 20 13:45:58 2022

Copyright (c) 2003-2018 Texas Instruments Incorporated
Fans.asm                                                             PAGE   48

    2493 00002e 13B0!         CALLA     #__mspabi_cmpf        ; [] |187| 
         000030 0000 
    2494                                                      ; [] |187| 
    2495 000032 930C          TST.W     r12                   ; [] |187| 
    2496 000034 3810          JL        $C$L58                ; [] |187| 
    2497                                                      ; [] |187| 
    2498            ;* --------------------------------------------------------------------------*
    2499                    .dwpsn  file "../src/Fans.c",line 188,column 10,is_stmt,isa 0
    2500 000036 421C          MOV.W     &TC1_temp+0,r12       ; [] |188| 
         000038 0000!
    2501 00003a 421D          MOV.W     &TC1_temp+2,r13       ; [] |188| 
         00003c 0002!
    2502 00003e 430E          MOV.W     #0,r14                ; [] |188| 
    2503 000040 403F          MOV.W     #16928,r15            ; [] |188| 
         000042 4220 
    2504            $C$DW$111       .dwtag  DW_TAG_TI_branch
    2505                    .dwattr $C$DW$111, DW_AT_low_pc(0x00)
    2506                    .dwattr $C$DW$111, DW_AT_name("__mspabi_cmpf")
    2507                    .dwattr $C$DW$111, DW_AT_TI_call
    2508            
    2509 000044 13B0!         CALLA     #__mspabi_cmpf        ; [] |188| 
         000046 0000 
    2510                                                      ; [] |188| 
    2511 000048 930C          TST.W     r12                   ; [] |188| 
    2512 00004a 3408          JGE       $C$L59                ; [] |188| 
    2513                                                      ; [] |188| 
    2514            ;* --------------------------------------------------------------------------*
    2515                    .dwpsn  file "../src/Fans.c",line 188,column 30,is_stmt,isa 0
    2516 00004c 403C          MOV.W     #700,r12              ; [] |188| 
         00004e 02BC 
    2517            $C$DW$112       .dwtag  DW_TAG_TI_branch
    2518                    .dwattr $C$DW$112, DW_AT_low_pc(0x00)
    2519                    .dwattr $C$DW$112, DW_AT_name("Set_FCSFan")
    2520                    .dwattr $C$DW$112, DW_AT_TI_call
    2521            
    2522 000050 13B0!         CALLA     #Set_FCSFan           ; [] |188| 
         000052 0000 
    2523                                                      ; [] |188| 
    2524 000054 3C03          JMP       $C$L59                ; [] |188| 
    2525                                                      ; [] |188| 
    2526            ;* --------------------------------------------------------------------------*
    2527 000056       $C$L58:    
    2528                    .dwpsn  file "../src/Fans.c",line 187,column 25,is_stmt,isa 0
    2529 000056 431C          MOV.W     #1,r12                ; [] |187| 
    2530            $C$DW$113       .dwtag  DW_TAG_TI_branch
    2531                    .dwattr $C$DW$113, DW_AT_low_pc(0x00)
    2532                    .dwattr $C$DW$113, DW_AT_name("Set_FCSFan")
    2533                    .dwattr $C$DW$113, DW_AT_TI_call
    2534            
    2535 000058 13B0!         CALLA     #Set_FCSFan           ; [] |187| 
         00005a 0000 
    2536                                                      ; [] |187| 
    2537            ;* --------------------------------------------------------------------------*
    2538 00005c       $C$L59:    
    2539                    .dwpsn  file "../src/Fans.c",line 192,column 3,is_stmt,isa 0
MSP430 Assembler PC v21.6.1 Tue Dec 20 13:45:58 2022

Copyright (c) 2003-2018 Texas Instruments Incorporated
Fans.asm                                                             PAGE   49

    2540 00005c 9392          CMP.W     #1,&mode+0            ; [] |192| 
         00005e 0000!
    2541 000060 204D          JNE       $C$L64                ; [] |192| 
    2542                                                      ; [] |192| 
    2543            ;* --------------------------------------------------------------------------*
    2544 000062 93C2          TST.B     &Engage_FCSFAN_PID+0  ; [] |192| 
         000064 0000!
    2545 000066 204A          JNE       $C$L64                ; [] |192| 
    2546                                                      ; [] |192| 
    2547            ;* --------------------------------------------------------------------------*
    2548                    .dwpsn  file "../src/Fans.c",line 195,column 9,is_stmt,isa 0
    2549 000068 07CC          MOVA      r7,r12                ; [] |195| 
    2550            $C$DW$114       .dwtag  DW_TAG_TI_branch
    2551                    .dwattr $C$DW$114, DW_AT_low_pc(0x00)
    2552                    .dwattr $C$DW$114, DW_AT_name("__mspabi_fltif")
    2553                    .dwattr $C$DW$114, DW_AT_TI_call
    2554            
    2555 00006a 13B0!         CALLA     #__mspabi_fltif       ; [] |195| 
         00006c 0000 
    2556                                                      ; [] |195| 
    2557 00006e 0CCE          MOVA      r12,r14               ; [] |195| 
    2558 000070 0DCF          MOVA      r13,r15               ; [] |195| 
    2559 000072 421C          MOV.W     &TC1_temp+0,r12       ; [] |195| 
         000074 0000!
    2560 000076 421D          MOV.W     &TC1_temp+2,r13       ; [] |195| 
         000078 0002!
    2561            $C$DW$115       .dwtag  DW_TAG_TI_branch
    2562                    .dwattr $C$DW$115, DW_AT_low_pc(0x00)
    2563                    .dwattr $C$DW$115, DW_AT_name("__mspabi_cmpf")
    2564                    .dwattr $C$DW$115, DW_AT_TI_call
    2565            
    2566 00007a 13B0!         CALLA     #__mspabi_cmpf        ; [] |195| 
         00007c 0000 
    2567                                                      ; [] |195| 
    2568 00007e 930C          TST.W     r12                   ; [] |195| 
    2569 000080 3838          JL        $C$L63                ; [] |195| 
    2570                                                      ; [] |195| 
    2571            ;* --------------------------------------------------------------------------*
    2572                    .dwpsn  file "../src/Fans.c",line 199,column 14,is_stmt,isa 0
    2573 000082 421C          MOV.W     &TC1_temp+0,r12       ; [] |199| 
         000084 0000!
    2574 000086 421D          MOV.W     &TC1_temp+2,r13       ; [] |199| 
         000088 0002!
    2575 00008a 430E          MOV.W     #0,r14                ; [] |199| 
    2576 00008c 403F          MOV.W     #17076,r15            ; [] |199| 
         00008e 42B4 
    2577            $C$DW$116       .dwtag  DW_TAG_TI_branch
    2578                    .dwattr $C$DW$116, DW_AT_low_pc(0x00)
    2579                    .dwattr $C$DW$116, DW_AT_name("__mspabi_cmpf")
    2580                    .dwattr $C$DW$116, DW_AT_TI_call
    2581            
    2582 000090 13B0!         CALLA     #__mspabi_cmpf        ; [] |199| 
         000092 0000 
    2583                                                      ; [] |199| 
    2584 000094 930C          TST.W     r12                   ; [] |199| 
MSP430 Assembler PC v21.6.1 Tue Dec 20 13:45:58 2022

Copyright (c) 2003-2018 Texas Instruments Incorporated
Fans.asm                                                             PAGE   50

    2585 000096 3403          JGE       $C$L60                ; [] |199| 
    2586                                                      ; [] |199| 
    2587            ;* --------------------------------------------------------------------------*
    2588 000098 93C2          TST.B     &Warming+0            ; [] |199| 
         00009a 0000!
    2589 00009c 2425          JEQ       $C$L62                ; [] |199| 
    2590                                                      ; [] |199| 
    2591            ;* --------------------------------------------------------------------------*
    2592 00009e       $C$L60:    
    2593                    .dwpsn  file "../src/Fans.c",line 207,column 14,is_stmt,isa 0
    2594 00009e 07CC          MOVA      r7,r12                ; [] |207| 
    2595            $C$DW$117       .dwtag  DW_TAG_TI_branch
    2596                    .dwattr $C$DW$117, DW_AT_low_pc(0x00)
    2597                    .dwattr $C$DW$117, DW_AT_name("__mspabi_fltif")
    2598                    .dwattr $C$DW$117, DW_AT_TI_call
    2599            
    2600 0000a0 13B0!         CALLA     #__mspabi_fltif       ; [] |207| 
         0000a2 0000 
    2601                                                      ; [] |207| 
    2602 0000a4 0CCE          MOVA      r12,r14               ; [] |207| 
    2603 0000a6 0DCF          MOVA      r13,r15               ; [] |207| 
    2604 0000a8 421C          MOV.W     &TC1_temp+0,r12       ; [] |207| 
         0000aa 0000!
    2605 0000ac 421D          MOV.W     &TC1_temp+2,r13       ; [] |207| 
         0000ae 0002!
    2606            $C$DW$118       .dwtag  DW_TAG_TI_branch
    2607                    .dwattr $C$DW$118, DW_AT_low_pc(0x00)
    2608                    .dwattr $C$DW$118, DW_AT_name("__mspabi_cmpf")
    2609                    .dwattr $C$DW$118, DW_AT_TI_call
    2610            
    2611 0000b0 13B0!         CALLA     #__mspabi_cmpf        ; [] |207| 
         0000b2 0000 
    2612                                                      ; [] |207| 
    2613 0000b4 930C          TST.W     r12                   ; [] |207| 
    2614 0000b6 3813          JL        $C$L61                ; [] |207| 
    2615                                                      ; [] |207| 
    2616            ;* --------------------------------------------------------------------------*
    2617                    .dwpsn  file "../src/Fans.c",line 212,column 14,is_stmt,isa 0
    2618 0000b8 431C          MOV.W     #1,r12                ; [] |212| 
    2619 0000ba 570C          ADD.W     r7,r12                ; [] |212| 
    2620            $C$DW$119       .dwtag  DW_TAG_TI_branch
    2621                    .dwattr $C$DW$119, DW_AT_low_pc(0x00)
    2622                    .dwattr $C$DW$119, DW_AT_name("__mspabi_fltif")
    2623                    .dwattr $C$DW$119, DW_AT_TI_call
    2624            
    2625 0000bc 13B0!         CALLA     #__mspabi_fltif       ; [] |212| 
         0000be 0000 
    2626                                                      ; [] |212| 
    2627 0000c0 421E          MOV.W     &TC1_temp+0,r14       ; [] |212| 
         0000c2 0000!
    2628 0000c4 421F          MOV.W     &TC1_temp+2,r15       ; [] |212| 
         0000c6 0002!
    2629            $C$DW$120       .dwtag  DW_TAG_TI_branch
    2630                    .dwattr $C$DW$120, DW_AT_low_pc(0x00)
    2631                    .dwattr $C$DW$120, DW_AT_name("__mspabi_cmpf")
MSP430 Assembler PC v21.6.1 Tue Dec 20 13:45:58 2022

Copyright (c) 2003-2018 Texas Instruments Incorporated
Fans.asm                                                             PAGE   51

    2632                    .dwattr $C$DW$120, DW_AT_TI_call
    2633            
    2634 0000c8 13B0!         CALLA     #__mspabi_cmpf        ; [] |212| 
         0000ca 0000 
    2635                                                      ; [] |212| 
    2636 0000cc 930C          TST.W     r12                   ; [] |212| 
    2637 0000ce 359C          JGE       $C$L79                ; [] |212| 
    2638                                                      ; [] |212| 
    2639            ;* --------------------------------------------------------------------------*
    2640                    .dwpsn  file "../src/Fans.c",line 215,column 13,is_stmt,isa 0
    2641 0000d0 403C          MOV.W     #350,r12              ; [] |215| 
         0000d2 015E 
    2642            $C$DW$121       .dwtag  DW_TAG_TI_branch
    2643                    .dwattr $C$DW$121, DW_AT_low_pc(0x00)
    2644                    .dwattr $C$DW$121, DW_AT_name("Set_FCSFan")
    2645                    .dwattr $C$DW$121, DW_AT_TI_call
    2646            
    2647 0000d4 13B0!         CALLA     #Set_FCSFan           ; [] |215| 
         0000d6 0000 
    2648                                                      ; [] |215| 
    2649                    .dwpsn  file "../src/Fans.c",line 216,column 13,is_stmt,isa 0
    2650 0000d8 43D2          MOV.B     #1,&Engage_FCSFAN_PID+0 ; [] |216| 
         0000da 0000!
    2651 0000dc 3D95          JMP       $C$L79                ; [] |216| 
    2652                                                      ; [] |216| 
    2653            ;* --------------------------------------------------------------------------*
    2654 0000de       $C$L61:    
    2655                    .dwpsn  file "../src/Fans.c",line 210,column 9,is_stmt,isa 0
    2656 0000de 403C          MOV.W     #700,r12              ; [] |210| 
         0000e0 02BC 
    2657            $C$DW$122       .dwtag  DW_TAG_TI_branch
    2658                    .dwattr $C$DW$122, DW_AT_low_pc(0x00)
    2659                    .dwattr $C$DW$122, DW_AT_name("Set_FCSFan")
    2660                    .dwattr $C$DW$122, DW_AT_TI_call
    2661            
    2662 0000e2 13B0!         CALLA     #Set_FCSFan           ; [] |210| 
         0000e4 0000 
    2663                                                      ; [] |210| 
    2664 0000e6 3D90          JMP       $C$L79                ; [] 
    2665                                                      ; [] 
    2666            ;* --------------------------------------------------------------------------*
    2667 0000e8       $C$L62:    
    2668                    .dwpsn  file "../src/Fans.c",line 202,column 13,is_stmt,isa 0
    2669 0000e8 403C          MOV.W     #573,r12              ; [] |202| 
         0000ea 023D 
    2670            $C$DW$123       .dwtag  DW_TAG_TI_branch
    2671                    .dwattr $C$DW$123, DW_AT_low_pc(0x00)
    2672                    .dwattr $C$DW$123, DW_AT_name("Set_FCSFan")
    2673                    .dwattr $C$DW$123, DW_AT_TI_call
    2674            
    2675 0000ec 13B0!         CALLA     #Set_FCSFan           ; [] |202| 
         0000ee 0000 
    2676                                                      ; [] |202| 
    2677 0000f0 3D8B          JMP       $C$L79                ; [] 
    2678                                                      ; [] 
MSP430 Assembler PC v21.6.1 Tue Dec 20 13:45:58 2022

Copyright (c) 2003-2018 Texas Instruments Incorporated
Fans.asm                                                             PAGE   52

    2679            ;* --------------------------------------------------------------------------*
    2680 0000f2       $C$L63:    
    2681                    .dwpsn  file "../src/Fans.c",line 197,column 13,is_stmt,isa 0
    2682 0000f2 403C          MOV.W     #700,r12              ; [] |197| 
         0000f4 02BC 
    2683            $C$DW$124       .dwtag  DW_TAG_TI_branch
    2684                    .dwattr $C$DW$124, DW_AT_low_pc(0x00)
    2685                    .dwattr $C$DW$124, DW_AT_name("Set_FCSFan")
    2686                    .dwattr $C$DW$124, DW_AT_TI_call
    2687            
    2688 0000f6 13B0!         CALLA     #Set_FCSFan           ; [] |197| 
         0000f8 0000 
    2689                                                      ; [] |197| 
    2690 0000fa 3D86          JMP       $C$L79                ; [] 
    2691                                                      ; [] 
    2692            ;* --------------------------------------------------------------------------*
    2693 0000fc       $C$L64:    
    2694                    .dwpsn  file "../src/Fans.c",line 224,column 10,is_stmt,isa 0
    2695 0000fc 93A2          CMP.W     #2,&mode+0            ; [] |224| 
         0000fe 0000!
    2696 000100 200F          JNE       $C$L65                ; [] |224| 
    2697                                                      ; [] |224| 
    2698            ;* --------------------------------------------------------------------------*
    2699 000102 90B2          CMP.W     #601,&ff+0            ; [] |224| 
         000104 0259 
         000106 0000!
    2700 000108 380B          JL        $C$L65                ; [] |224| 
    2701                                                      ; [] |224| 
    2702            ;* --------------------------------------------------------------------------*
    2703 00010a 421C          MOV.W     &TC1_temp+0,r12       ; [] |224| 
         00010c 0000!
    2704 00010e 421D          MOV.W     &TC1_temp+2,r13       ; [] |224| 
         000110 0002!
    2705 000112 430E          MOV.W     #0,r14                ; [] |224| 
    2706 000114 403F          MOV.W     #17187,r15            ; [] |224| 
         000116 4323 
    2707            $C$DW$125       .dwtag  DW_TAG_TI_branch
    2708                    .dwattr $C$DW$125, DW_AT_low_pc(0x00)
    2709                    .dwattr $C$DW$125, DW_AT_name("__mspabi_cmpf")
    2710                    .dwattr $C$DW$125, DW_AT_TI_call
    2711            
    2712 000118 13B0!         CALLA     #__mspabi_cmpf        ; [] |224| 
         00011a 0000 
    2713                                                      ; [] |224| 
    2714 00011c 930C          TST.W     r12                   ; [] |224| 
    2715 00011e 3970          JL        $C$L78                ; [] |224| 
    2716                                                      ; [] |224| 
    2717            ;* --------------------------------------------------------------------------*
    2718 000120       $C$L65:    
    2719                    .dwpsn  file "../src/Fans.c",line 228,column 10,is_stmt,isa 0
    2720 000120 92A2          CMP.W     #4,&mode+0            ; [] |228| 
         000122 0000!
    2721 000124 254C          JEQ       $C$L75                ; [] |228| 
    2722                                                      ; [] |228| 
    2723            ;* --------------------------------------------------------------------------*
MSP430 Assembler PC v21.6.1 Tue Dec 20 13:45:58 2022

Copyright (c) 2003-2018 Texas Instruments Incorporated
Fans.asm                                                             PAGE   53

    2724 000126 90B2          CMP.W     #7,&mode+0            ; [] |228| 
         000128 0007 
         00012a 0000!
    2725 00012c 2548          JEQ       $C$L75                ; [] |228| 
    2726                                                      ; [] |228| 
    2727            ;* --------------------------------------------------------------------------*
    2728 00012e 90B2          CMP.W     #9,&mode+0            ; [] |228| 
         000130 0009 
         000132 0000!
    2729 000134 2544          JEQ       $C$L75                ; [] |228| 
    2730                                                      ; [] |228| 
    2731            ;* --------------------------------------------------------------------------*
    2732                    .dwpsn  file "../src/Fans.c",line 233,column 9,is_stmt,isa 0
    2733 000136 9392          CMP.W     #1,&mode+0            ; [] |233| 
         000138 0000!
    2734 00013a 200F          JNE       $C$L66                ; [] |233| 
    2735                                                      ; [] |233| 
    2736            ;* --------------------------------------------------------------------------*
    2737 00013c 07CC          MOVA      r7,r12                ; [] |233| 
    2738            $C$DW$126       .dwtag  DW_TAG_TI_branch
    2739                    .dwattr $C$DW$126, DW_AT_low_pc(0x00)
    2740                    .dwattr $C$DW$126, DW_AT_name("__mspabi_fltif")
    2741                    .dwattr $C$DW$126, DW_AT_TI_call
    2742            
    2743 00013e 13B0!         CALLA     #__mspabi_fltif       ; [] |233| 
         000140 0000 
    2744                                                      ; [] |233| 
    2745 000142 0CCE          MOVA      r12,r14               ; [] |233| 
    2746 000144 0DCF          MOVA      r13,r15               ; [] |233| 
    2747 000146 421C          MOV.W     &TC1_temp+0,r12       ; [] |233| 
         000148 0000!
    2748 00014a 421D          MOV.W     &TC1_temp+2,r13       ; [] |233| 
         00014c 0002!
    2749            $C$DW$127       .dwtag  DW_TAG_TI_branch
    2750                    .dwattr $C$DW$127, DW_AT_low_pc(0x00)
    2751                    .dwattr $C$DW$127, DW_AT_name("__mspabi_cmpf")
    2752                    .dwattr $C$DW$127, DW_AT_TI_call
    2753            
    2754 00014e 13B0!         CALLA     #__mspabi_cmpf        ; [] |233| 
         000150 0000 
    2755                                                      ; [] |233| 
    2756 000152 930C          TST.W     r12                   ; [] |233| 
    2757 000154 3402          JGE       $C$L66                ; [] |233| 
    2758                                                      ; [] |233| 
    2759            ;* --------------------------------------------------------------------------*
    2760                    .dwpsn  file "../src/Fans.c",line 235,column 13,is_stmt,isa 0
    2761 000156 43C2          MOV.B     #0,&Engage_FCSFAN_PID+0 ; [] |235| 
         000158 0000!
    2762            ;* --------------------------------------------------------------------------*
    2763 00015a       $C$L66:    
    2764                    .dwpsn  file "../src/Fans.c",line 239,column 9,is_stmt,isa 0
    2765 00015a 421C          MOV.W     &FC_power+0,r12       ; [] |239| 
         00015c 0000!
    2766 00015e 421D          MOV.W     &FC_power+2,r13       ; [] |239| 
         000160 0002!
MSP430 Assembler PC v21.6.1 Tue Dec 20 13:45:58 2022

Copyright (c) 2003-2018 Texas Instruments Incorporated
Fans.asm                                                             PAGE   54

    2767            $C$DW$128       .dwtag  DW_TAG_TI_branch
    2768                    .dwattr $C$DW$128, DW_AT_low_pc(0x00)
    2769                    .dwattr $C$DW$128, DW_AT_name("__mspabi_cvtfd")
    2770                    .dwattr $C$DW$128, DW_AT_TI_call
    2771            
    2772 000162 13B0!         CALLA     #__mspabi_cvtfd       ; [] |239| 
         000164 0000 
    2773                                                      ; [] |239| 
    2774            $C$DW$129       .dwtag  DW_TAG_TI_branch
    2775                    .dwattr $C$DW$129, DW_AT_low_pc(0x00)
    2776                    .dwattr $C$DW$129, DW_AT_name("__mspabi_negd")
    2777                    .dwattr $C$DW$129, DW_AT_TI_call
    2778            
    2779 000166 13B0!         CALLA     #__mspabi_negd        ; [] |239| 
         000168 0000 
    2780                                                      ; [] |239| 
    2781 00016a 0CC8          MOVA      r12,r8                ; [] |239| 
    2782 00016c 0DC9          MOVA      r13,r9                ; [] |239| 
    2783 00016e 0ECA          MOVA      r14,r10               ; [] |239| 
    2784 000170 0FCB          MOVA      r15,r11               ; [] |239| 
    2785 000172 403C          MOV.W     #39322,r12            ; [] |239| 
         000174 999A 
    2786 000176 403D          MOV.W     #39321,r13            ; [] |239| 
         000178 9999 
    2787 00017a 403E          MOV.W     #39321,r14            ; [] |239| 
         00017c 9999 
    2788 00017e 403F          MOV.W     #16281,r15            ; [] |239| 
         000180 3F99 
    2789            $C$DW$130       .dwtag  DW_TAG_TI_branch
    2790                    .dwattr $C$DW$130, DW_AT_low_pc(0x00)
    2791                    .dwattr $C$DW$130, DW_AT_name("__mspabi_mpyd")
    2792                    .dwattr $C$DW$130, DW_AT_TI_call
    2793            
    2794 000182 13B0!         CALLA     #__mspabi_mpyd        ; [] |239| 
         000184 0000 
    2795                                                      ; [] |239| 
    2796            $C$DW$131       .dwtag  DW_TAG_TI_branch
    2797                    .dwattr $C$DW$131, DW_AT_low_pc(0x00)
    2798                    .dwattr $C$DW$131, DW_AT_name("__mspabi_cvtdf")
    2799                    .dwattr $C$DW$131, DW_AT_TI_call
    2800            
    2801 000186 13B0!         CALLA     #__mspabi_cvtdf       ; [] |239| 
         000188 0000 
    2802                                                      ; [] |239| 
    2803 00018a 4C82          MOV.W     r12,&FCTKp+0          ; [] |239| 
         00018c 0000!
    2804 00018e 4D82          MOV.W     r13,&FCTKp+2          ; [] |239| 
         000190 0002!
    2805                    .dwpsn  file "../src/Fans.c",line 245,column 9,is_stmt,isa 0
    2806 000192 93C2          TST.B     &Warming+0            ; [] |245| 
         000194 0000!
    2807 000196 2405          JEQ       $C$L67                ; [] |245| 
    2808                                                      ; [] |245| 
    2809            ;* --------------------------------------------------------------------------*
    2810                    .dwpsn  file "../src/Fans.c",line 246,column 13,is_stmt,isa 0
MSP430 Assembler PC v21.6.1 Tue Dec 20 13:45:58 2022

Copyright (c) 2003-2018 Texas Instruments Incorporated
Fans.asm                                                             PAGE   55

    2811 000198 4382          MOV.W     #0,&FCTKp+0           ; [] |246| 
         00019a 0000!
    2812 00019c 40B2          MOV.W     #49024,&FCTKp+2       ; [] |246| 
         00019e BF80 
         0001a0 0002!
    2813            ;* --------------------------------------------------------------------------*
    2814 0001a2       $C$L67:    
    2815                    .dwpsn  file "../src/Fans.c",line 248,column 9,is_stmt,isa 0
    2816 0001a2 421C          MOV.W     &FCTKp+0,r12          ; [] |248| 
         0001a4 0000!
    2817 0001a6 421D          MOV.W     &FCTKp+2,r13          ; [] |248| 
         0001a8 0002!
    2818            $C$DW$132       .dwtag  DW_TAG_TI_branch
    2819                    .dwattr $C$DW$132, DW_AT_low_pc(0x00)
    2820                    .dwattr $C$DW$132, DW_AT_name("__mspabi_cvtfd")
    2821                    .dwattr $C$DW$132, DW_AT_TI_call
    2822            
    2823 0001aa 13B0!         CALLA     #__mspabi_cvtfd       ; [] |248| 
         0001ac 0000 
    2824                                                      ; [] |248| 
    2825 0001ae 4038          MOV.W     #39322,r8             ; [] |248| 
         0001b0 999A 
    2826 0001b2 4039          MOV.W     #39321,r9             ; [] |248| 
         0001b4 9999 
    2827 0001b6 403A          MOV.W     #39321,r10            ; [] |248| 
         0001b8 9999 
    2828 0001ba 403B          MOV.W     #49081,r11            ; [] |248| 
         0001bc BFB9 
    2829            $C$DW$133       .dwtag  DW_TAG_TI_branch
    2830                    .dwattr $C$DW$133, DW_AT_low_pc(0x00)
    2831                    .dwattr $C$DW$133, DW_AT_name("__mspabi_cmpd")
    2832                    .dwattr $C$DW$133, DW_AT_TI_call
    2833            
    2834 0001be 13B0!         CALLA     #__mspabi_cmpd        ; [] |248| 
         0001c0 0000 
    2835                                                      ; [] |248| 
    2836 0001c2 930C          TST.W     r12                   ; [] |248| 
    2837 0001c4 3406          JGE       $C$L68                ; [] |248| 
    2838                                                      ; [] |248| 
    2839            ;* --------------------------------------------------------------------------*
    2840                    .dwpsn  file "../src/Fans.c",line 249,column 13,is_stmt,isa 0
    2841 0001c6 40B2          MOV.W     #52429,&FCTKp+0       ; [] |249| 
         0001c8 CCCD 
         0001ca 0000!
    2842 0001cc 40B2          MOV.W     #48588,&FCTKp+2       ; [] |249| 
         0001ce BDCC 
         0001d0 0002!
    2843            ;* --------------------------------------------------------------------------*
    2844 0001d2       $C$L68:    
    2845                    .dwpsn  file "../src/Fans.c",line 250,column 9,is_stmt,isa 0
    2846 0001d2 421C          MOV.W     &FCTKp+0,r12          ; [] |250| 
         0001d4 0000!
    2847 0001d6 421D          MOV.W     &FCTKp+2,r13          ; [] |250| 
         0001d8 0002!
    2848 0001da 430E          MOV.W     #0,r14                ; [] |250| 
MSP430 Assembler PC v21.6.1 Tue Dec 20 13:45:58 2022

Copyright (c) 2003-2018 Texas Instruments Incorporated
Fans.asm                                                             PAGE   56

    2849 0001dc 403F          MOV.W     #49024,r15            ; [] |250| 
         0001de BF80 
    2850            $C$DW$134       .dwtag  DW_TAG_TI_branch
    2851                    .dwattr $C$DW$134, DW_AT_low_pc(0x00)
    2852                    .dwattr $C$DW$134, DW_AT_name("__mspabi_cmpf")
    2853                    .dwattr $C$DW$134, DW_AT_TI_call
    2854            
    2855 0001e0 13B0!         CALLA     #__mspabi_cmpf        ; [] |250| 
         0001e2 0000 
    2856                                                      ; [] |250| 
    2857 0001e4 930C          TST.W     r12                   ; [] |250| 
    2858 0001e6 3405          JGE       $C$L69                ; [] |250| 
    2859                                                      ; [] |250| 
    2860            ;* --------------------------------------------------------------------------*
    2861                    .dwpsn  file "../src/Fans.c",line 251,column 13,is_stmt,isa 0
    2862 0001e8 4382          MOV.W     #0,&FCTKp+0           ; [] |251| 
         0001ea 0000!
    2863 0001ec 40B2          MOV.W     #49024,&FCTKp+2       ; [] |251| 
         0001ee BF80 
         0001f0 0002!
    2864            ;* --------------------------------------------------------------------------*
    2865 0001f2       $C$L69:    
    2866                    .dwpsn  file "../src/Fans.c",line 254,column 9,is_stmt,isa 0
    2867 0001f2 421C          MOV.W     &FCTKp+0,r12          ; [] |254| 
         0001f4 0000!
    2868 0001f6 421D          MOV.W     &FCTKp+2,r13          ; [] |254| 
         0001f8 0002!
    2869            $C$DW$135       .dwtag  DW_TAG_TI_branch
    2870                    .dwattr $C$DW$135, DW_AT_low_pc(0x00)
    2871                    .dwattr $C$DW$135, DW_AT_name("__mspabi_cvtfd")
    2872                    .dwattr $C$DW$135, DW_AT_TI_call
    2873            
    2874 0001fa 13B0!         CALLA     #__mspabi_cvtfd       ; [] |254| 
         0001fc 0000 
    2875                                                      ; [] |254| 
    2876 0001fe 0CC8          MOVA      r12,r8                ; [] |254| 
    2877 000200 0DC9          MOVA      r13,r9                ; [] |254| 
    2878 000202 0ECA          MOVA      r14,r10               ; [] |254| 
    2879 000204 0FCB          MOVA      r15,r11               ; [] |254| 
    2880 000206 403C          MOV.W     #32506,r12            ; [] |254| 
         000208 7EFA 
    2881 00020a 403D          MOV.W     #48234,r13            ; [] |254| 
         00020c BC6A 
    2882 00020e 403E          MOV.W     #37748,r14            ; [] |254| 
         000210 9374 
    2883 000212 403F          MOV.W     #16248,r15            ; [] |254| 
         000214 3F78 
    2884            $C$DW$136       .dwtag  DW_TAG_TI_branch
    2885                    .dwattr $C$DW$136, DW_AT_low_pc(0x00)
    2886                    .dwattr $C$DW$136, DW_AT_name("__mspabi_mpyd")
    2887                    .dwattr $C$DW$136, DW_AT_TI_call
    2888            
    2889 000216 13B0!         CALLA     #__mspabi_mpyd        ; [] |254| 
         000218 0000 
    2890                                                      ; [] |254| 
MSP430 Assembler PC v21.6.1 Tue Dec 20 13:45:58 2022

Copyright (c) 2003-2018 Texas Instruments Incorporated
Fans.asm                                                             PAGE   57

    2891            $C$DW$137       .dwtag  DW_TAG_TI_branch
    2892                    .dwattr $C$DW$137, DW_AT_low_pc(0x00)
    2893                    .dwattr $C$DW$137, DW_AT_name("__mspabi_cvtdf")
    2894                    .dwattr $C$DW$137, DW_AT_TI_call
    2895            
    2896 00021a 13B0!         CALLA     #__mspabi_cvtdf       ; [] |254| 
         00021c 0000 
    2897                                                      ; [] |254| 
    2898 00021e 4C82          MOV.W     r12,&FCTKi+0          ; [] |254| 
         000220 0000!
    2899 000222 4D82          MOV.W     r13,&FCTKi+2          ; [] |254| 
         000224 0002!
    2900                    .dwpsn  file "../src/Fans.c",line 259,column 9,is_stmt,isa 0
    2901 000226 07CC          MOVA      r7,r12                ; [] |259| 
    2902 000228 403D          MOV.W     #100,r13              ; [] |259| 
         00022a 0064 
    2903            $C$DW$138       .dwtag  DW_TAG_TI_branch
    2904                    .dwattr $C$DW$138, DW_AT_low_pc(0x00)
    2905                    .dwattr $C$DW$138, DW_AT_name("__mspabi_mpyi")
    2906                    .dwattr $C$DW$138, DW_AT_TI_call
    2907            
    2908 00022c 13B0!         CALLA     #__mspabi_mpyi        ; [] |259| 
         00022e 0000 
    2909                                                      ; [] |259| 
    2910            $C$DW$139       .dwtag  DW_TAG_TI_branch
    2911                    .dwattr $C$DW$139, DW_AT_low_pc(0x00)
    2912                    .dwattr $C$DW$139, DW_AT_name("__mspabi_fltif")
    2913                    .dwattr $C$DW$139, DW_AT_TI_call
    2914            
    2915 000230 13B0!         CALLA     #__mspabi_fltif       ; [] |259| 
         000232 0000 
    2916                                                      ; [] |259| 
    2917 000234 0CC9          MOVA      r12,r9                ; [] |259| 
    2918 000236 0DCA          MOVA      r13,r10               ; [] |259| 
    2919 000238 421C          MOV.W     &TC1_temp+0,r12       ; [] |259| 
         00023a 0000!
    2920 00023c 421D          MOV.W     &TC1_temp+2,r13       ; [] |259| 
         00023e 0002!
    2921 000240 430E          MOV.W     #0,r14                ; [] |259| 
    2922 000242 403F          MOV.W     #17096,r15            ; [] |259| 
         000244 42C8 
    2923            $C$DW$140       .dwtag  DW_TAG_TI_branch
    2924                    .dwattr $C$DW$140, DW_AT_low_pc(0x00)
    2925                    .dwattr $C$DW$140, DW_AT_name("__mspabi_mpyf")
    2926                    .dwattr $C$DW$140, DW_AT_TI_call
    2927            
    2928 000246 13B0!         CALLA     #__mspabi_mpyf        ; [] |259| 
         000248 0000 
    2929                                                      ; [] |259| 
    2930 00024a 0CCE          MOVA      r12,r14               ; [] |259| 
    2931 00024c 0DCF          MOVA      r13,r15               ; [] |259| 
    2932 00024e 09CC          MOVA      r9,r12                ; [] |259| 
    2933 000250 0ACD          MOVA      r10,r13               ; [] |259| 
    2934            $C$DW$141       .dwtag  DW_TAG_TI_branch
    2935                    .dwattr $C$DW$141, DW_AT_low_pc(0x00)
MSP430 Assembler PC v21.6.1 Tue Dec 20 13:45:58 2022

Copyright (c) 2003-2018 Texas Instruments Incorporated
Fans.asm                                                             PAGE   58

    2936                    .dwattr $C$DW$141, DW_AT_name("__mspabi_subf")
    2937                    .dwattr $C$DW$141, DW_AT_TI_call
    2938            
    2939 000252 13B0!         CALLA     #__mspabi_subf        ; [] |259| 
         000254 0000 
    2940                                                      ; [] |259| 
    2941            $C$DW$142       .dwtag  DW_TAG_TI_branch
    2942                    .dwattr $C$DW$142, DW_AT_low_pc(0x00)
    2943                    .dwattr $C$DW$142, DW_AT_name("__mspabi_fixfi")
    2944                    .dwattr $C$DW$142, DW_AT_TI_call
    2945            
    2946 000256 13B0!         CALLA     #__mspabi_fixfi       ; [] |259| 
         000258 0000 
    2947                                                      ; [] |259| 
    2948 00025a 4C82          MOV.W     r12,&FCTerror+0       ; [] |259| 
         00025c 0000!
    2949                    .dwpsn  file "../src/Fans.c",line 260,column 9,is_stmt,isa 0
    2950 00025e 432D          MOV.W     #2,r13                ; [] |260| 
    2951            $C$DW$143       .dwtag  DW_TAG_TI_branch
    2952                    .dwattr $C$DW$143, DW_AT_low_pc(0x00)
    2953                    .dwattr $C$DW$143, DW_AT_name("__mspabi_divi")
    2954                    .dwattr $C$DW$143, DW_AT_TI_call
    2955            
    2956 000260 13B0!         CALLA     #__mspabi_divi        ; [] |260| 
         000262 0000 
    2957                                                      ; [] |260| 
    2958 000264 5C82          ADD.W     r12,&FCTintegral+0    ; [] |260| 
         000266 0000!
    2959 000268 9392          CMP.W     #1,&FCTintegral+0     ; [] |260| 
         00026a 0000!
    2960 00026c 3802          JL        $C$L70                ; [] |260| 
    2961                                                      ; [] |260| 
    2962            ;* --------------------------------------------------------------------------*
    2963                    .dwpsn  file "../src/Fans.c",line 262,column 13,is_stmt,isa 0
    2964 00026e 4382          MOV.W     #0,&FCTintegral+0     ; [] |262| 
         000270 0000!
    2965            ;* --------------------------------------------------------------------------*
    2966 000272       $C$L70:    
    2967                    .dwpsn  file "../src/Fans.c",line 263,column 9,is_stmt,isa 0
    2968 000272 90B2          CMP.W     #33536,&FCTintegral+0 ; [] |263| 
         000274 8300 
         000276 0000!
    2969 000278 3403          JGE       $C$L71                ; [] |263| 
    2970                                                      ; [] |263| 
    2971            ;* --------------------------------------------------------------------------*
    2972                    .dwpsn  file "../src/Fans.c",line 264,column 13,is_stmt,isa 0
    2973 00027a 40B2          MOV.W     #33536,&FCTintegral+0 ; [] |264| 
         00027c 8300 
         00027e 0000!
    2974            ;* --------------------------------------------------------------------------*
    2975 000280       $C$L71:    
    2976                    .dwpsn  file "../src/Fans.c",line 265,column 9,is_stmt,isa 0
    2977 000280 421F          MOV.W     &FCTerror+0,r15       ; [] |265| 
         000282 0000!
    2978 000284 821F          SUB.W     &FCTprevious_error+0,r15 ; [] |265| 
MSP430 Assembler PC v21.6.1 Tue Dec 20 13:45:58 2022

Copyright (c) 2003-2018 Texas Instruments Incorporated
Fans.asm                                                             PAGE   59

         000286 0000!
    2979 000288 025F          RLAM.W    #1,r15                ; [] |265| 
    2980 00028a 4F82          MOV.W     r15,&FCTderivative+0  ; [] |265| 
         00028c 0000!
    2981                    .dwpsn  file "../src/Fans.c",line 266,column 9,is_stmt,isa 0
    2982 00028e 421C          MOV.W     &FCTerror+0,r12       ; [] |266| 
         000290 0000!
    2983            $C$DW$144       .dwtag  DW_TAG_TI_branch
    2984                    .dwattr $C$DW$144, DW_AT_low_pc(0x00)
    2985                    .dwattr $C$DW$144, DW_AT_name("__mspabi_fltif")
    2986                    .dwattr $C$DW$144, DW_AT_TI_call
    2987            
    2988 000292 13B0!         CALLA     #__mspabi_fltif       ; [] |266| 
         000294 0000 
    2989                                                      ; [] |266| 
    2990 000296 421E          MOV.W     &FCTKp+0,r14          ; [] |266| 
         000298 0000!
    2991 00029a 421F          MOV.W     &FCTKp+2,r15          ; [] |266| 
         00029c 0002!
    2992            $C$DW$145       .dwtag  DW_TAG_TI_branch
    2993                    .dwattr $C$DW$145, DW_AT_low_pc(0x00)
    2994                    .dwattr $C$DW$145, DW_AT_name("__mspabi_mpyf")
    2995                    .dwattr $C$DW$145, DW_AT_TI_call
    2996            
    2997 00029e 13B0!         CALLA     #__mspabi_mpyf        ; [] |266| 
         0002a0 0000 
    2998                                                      ; [] |266| 
    2999 0002a2 0CC9          MOVA      r12,r9                ; [] |266| 
    3000 0002a4 0DCA          MOVA      r13,r10               ; [] |266| 
    3001 0002a6 421C          MOV.W     &FCTintegral+0,r12    ; [] |266| 
         0002a8 0000!
    3002            $C$DW$146       .dwtag  DW_TAG_TI_branch
    3003                    .dwattr $C$DW$146, DW_AT_low_pc(0x00)
    3004                    .dwattr $C$DW$146, DW_AT_name("__mspabi_fltif")
    3005                    .dwattr $C$DW$146, DW_AT_TI_call
    3006            
    3007 0002aa 13B0!         CALLA     #__mspabi_fltif       ; [] |266| 
         0002ac 0000 
    3008                                                      ; [] |266| 
    3009 0002ae 421E          MOV.W     &FCTKi+0,r14          ; [] |266| 
         0002b0 0000!
    3010 0002b2 421F          MOV.W     &FCTKi+2,r15          ; [] |266| 
         0002b4 0002!
    3011            $C$DW$147       .dwtag  DW_TAG_TI_branch
    3012                    .dwattr $C$DW$147, DW_AT_low_pc(0x00)
    3013                    .dwattr $C$DW$147, DW_AT_name("__mspabi_mpyf")
    3014                    .dwattr $C$DW$147, DW_AT_TI_call
    3015            
    3016 0002b6 13B0!         CALLA     #__mspabi_mpyf        ; [] |266| 
         0002b8 0000 
    3017                                                      ; [] |266| 
    3018 0002ba 0CCE          MOVA      r12,r14               ; [] |266| 
    3019 0002bc 0DCF          MOVA      r13,r15               ; [] |266| 
    3020 0002be 09CC          MOVA      r9,r12                ; [] |266| 
    3021 0002c0 0ACD          MOVA      r10,r13               ; [] |266| 
MSP430 Assembler PC v21.6.1 Tue Dec 20 13:45:58 2022

Copyright (c) 2003-2018 Texas Instruments Incorporated
Fans.asm                                                             PAGE   60

    3022            $C$DW$148       .dwtag  DW_TAG_TI_branch
    3023                    .dwattr $C$DW$148, DW_AT_low_pc(0x00)
    3024                    .dwattr $C$DW$148, DW_AT_name("__mspabi_addf")
    3025                    .dwattr $C$DW$148, DW_AT_TI_call
    3026            
    3027 0002c2 13B0!         CALLA     #__mspabi_addf        ; [] |266| 
         0002c4 0000 
    3028                                                      ; [] |266| 
    3029 0002c6 0CC9          MOVA      r12,r9                ; [] |266| 
    3030 0002c8 0DCA          MOVA      r13,r10               ; [] |266| 
    3031 0002ca 421C          MOV.W     &FCTderivative+0,r12  ; [] |266| 
         0002cc 0000!
    3032            $C$DW$149       .dwtag  DW_TAG_TI_branch
    3033                    .dwattr $C$DW$149, DW_AT_low_pc(0x00)
    3034                    .dwattr $C$DW$149, DW_AT_name("__mspabi_fltif")
    3035                    .dwattr $C$DW$149, DW_AT_TI_call
    3036            
    3037 0002ce 13B0!         CALLA     #__mspabi_fltif       ; [] |266| 
         0002d0 0000 
    3038                                                      ; [] |266| 
    3039 0002d2 421E          MOV.W     &FCTKd+0,r14          ; [] |266| 
         0002d4 0000!
    3040 0002d6 421F          MOV.W     &FCTKd+2,r15          ; [] |266| 
         0002d8 0002!
    3041            $C$DW$150       .dwtag  DW_TAG_TI_branch
    3042                    .dwattr $C$DW$150, DW_AT_low_pc(0x00)
    3043                    .dwattr $C$DW$150, DW_AT_name("__mspabi_mpyf")
    3044                    .dwattr $C$DW$150, DW_AT_TI_call
    3045            
    3046 0002da 13B0!         CALLA     #__mspabi_mpyf        ; [] |266| 
         0002dc 0000 
    3047                                                      ; [] |266| 
    3048 0002de 0CCE          MOVA      r12,r14               ; [] |266| 
    3049 0002e0 0DCF          MOVA      r13,r15               ; [] |266| 
    3050 0002e2 09CC          MOVA      r9,r12                ; [] |266| 
    3051 0002e4 0ACD          MOVA      r10,r13               ; [] |266| 
    3052            $C$DW$151       .dwtag  DW_TAG_TI_branch
    3053                    .dwattr $C$DW$151, DW_AT_low_pc(0x00)
    3054                    .dwattr $C$DW$151, DW_AT_name("__mspabi_addf")
    3055                    .dwattr $C$DW$151, DW_AT_TI_call
    3056            
    3057 0002e6 13B0!         CALLA     #__mspabi_addf        ; [] |266| 
         0002e8 0000 
    3058                                                      ; [] |266| 
    3059            $C$DW$152       .dwtag  DW_TAG_TI_branch
    3060                    .dwattr $C$DW$152, DW_AT_low_pc(0x00)
    3061                    .dwattr $C$DW$152, DW_AT_name("__mspabi_fixfi")
    3062                    .dwattr $C$DW$152, DW_AT_TI_call
    3063            
    3064 0002ea 13B0!         CALLA     #__mspabi_fixfi       ; [] |266| 
         0002ec 0000 
    3065                                                      ; [] |266| 
    3066 0002ee 403F          MOV.W     #700,r15              ; [] |266| 
         0002f0 02BC 
    3067 0002f2 8C0F          SUB.W     r12,r15               ; [] |266| 
MSP430 Assembler PC v21.6.1 Tue Dec 20 13:45:58 2022

Copyright (c) 2003-2018 Texas Instruments Incorporated
Fans.asm                                                             PAGE   61

    3068 0002f4 4F82          MOV.W     r15,&ff+0             ; [] |266| 
         0002f6 0000!
    3069 0002f8 90B2          CMP.W     #701,&ff+0            ; [] |266| 
         0002fa 02BD 
         0002fc 0000!
    3070 0002fe 3803          JL        $C$L72                ; [] |266| 
    3071                                                      ; [] |266| 
    3072            ;* --------------------------------------------------------------------------*
    3073                    .dwpsn  file "../src/Fans.c",line 270,column 13,is_stmt,isa 0
    3074 000300 40B2          MOV.W     #700,&ff+0            ; [] |270| 
         000302 02BC 
         000304 0000!
    3075            ;* --------------------------------------------------------------------------*
    3076 000306       $C$L72:    
    3077                    .dwpsn  file "../src/Fans.c",line 271,column 9,is_stmt,isa 0
    3078 000306 9392          CMP.W     #1,&ff+0              ; [] |271| 
         000308 0000!
    3079 00030a 3402          JGE       $C$L73                ; [] |271| 
    3080                                                      ; [] |271| 
    3081            ;* --------------------------------------------------------------------------*
    3082                    .dwpsn  file "../src/Fans.c",line 272,column 13,is_stmt,isa 0
    3083 00030c 4392          MOV.W     #1,&ff+0              ; [] |272| 
         00030e 0000!
    3084            ;* --------------------------------------------------------------------------*
    3085 000310       $C$L73:    
    3086                    .dwpsn  file "../src/Fans.c",line 276,column 9,is_stmt,isa 0
    3087 000310 403C          MOV.W     #6,r12                ; [] |276| 
         000312 0006 
    3088 000314 570C          ADD.W     r7,r12                ; [] |276| 
    3089            $C$DW$153       .dwtag  DW_TAG_TI_branch
    3090                    .dwattr $C$DW$153, DW_AT_low_pc(0x00)
    3091                    .dwattr $C$DW$153, DW_AT_name("__mspabi_fltif")
    3092                    .dwattr $C$DW$153, DW_AT_TI_call
    3093            
    3094 000316 13B0!         CALLA     #__mspabi_fltif       ; [] |276| 
         000318 0000 
    3095                                                      ; [] |276| 
    3096 00031a 421E          MOV.W     &TC1_temp+0,r14       ; [] |276| 
         00031c 0000!
    3097 00031e 421F          MOV.W     &TC1_temp+2,r15       ; [] |276| 
         000320 0002!
    3098            $C$DW$154       .dwtag  DW_TAG_TI_branch
    3099                    .dwattr $C$DW$154, DW_AT_low_pc(0x00)
    3100                    .dwattr $C$DW$154, DW_AT_name("__mspabi_cmpf")
    3101                    .dwattr $C$DW$154, DW_AT_TI_call
    3102            
    3103 000322 13B0!         CALLA     #__mspabi_cmpf        ; [] |276| 
         000324 0000 
    3104                                                      ; [] |276| 
    3105 000326 930C          TST.W     r12                   ; [] |276| 
    3106 000328 3407          JGE       $C$L74                ; [] |276| 
    3107                                                      ; [] |276| 
    3108            ;* --------------------------------------------------------------------------*
    3109 00032a 90B2          CMP.W     #501,&ff+0            ; [] |276| 
         00032c 01F5 
MSP430 Assembler PC v21.6.1 Tue Dec 20 13:45:58 2022

Copyright (c) 2003-2018 Texas Instruments Incorporated
Fans.asm                                                             PAGE   62

         00032e 0000!
    3110 000330 3803          JL        $C$L74                ; [] |276| 
    3111                                                      ; [] |276| 
    3112            ;* --------------------------------------------------------------------------*
    3113                    .dwpsn  file "../src/Fans.c",line 282,column 13,is_stmt,isa 0
    3114 000332 80B2          SUB.W     #50,&ff+0             ; [] |282| 
         000334 0032 
         000336 0000!
    3115            ;* --------------------------------------------------------------------------*
    3116 000338       $C$L74:    
    3117                    .dwpsn  file "../src/Fans.c",line 288,column 9,is_stmt,isa 0
    3118 000338 421C          MOV.W     &ff+0,r12             ; [] |288| 
         00033a 0000!
    3119            $C$DW$155       .dwtag  DW_TAG_TI_branch
    3120                    .dwattr $C$DW$155, DW_AT_low_pc(0x00)
    3121                    .dwattr $C$DW$155, DW_AT_name("Set_FCSFan")
    3122                    .dwattr $C$DW$155, DW_AT_TI_call
    3123            
    3124 00033c 13B0!         CALLA     #Set_FCSFan           ; [] |288| 
         00033e 0000 
    3125                                                      ; [] |288| 
    3126                    .dwpsn  file "../src/Fans.c",line 290,column 9,is_stmt,isa 0
    3127 000340 4292          MOV.W     &FCTerror+0,&FCTprevious_error+0 ; [] |290| 
         000342 0000!
         000344 0000!
    3128                    .dwpsn  file "../src/Fans.c",line 293,column 5,is_stmt,isa 0
    3129 000346 421C          MOV.W     &bFC+0,r12            ; [] |293| 
         000348 0000!
    3130 00034a 421D          MOV.W     &bFC+2,r13            ; [] |293| 
         00034c 0002!
    3131            $C$DW$156       .dwtag  DW_TAG_TI_branch
    3132                    .dwattr $C$DW$156, DW_AT_low_pc(0x00)
    3133                    .dwattr $C$DW$156, DW_AT_name("__mspabi_cvtfd")
    3134                    .dwattr $C$DW$156, DW_AT_TI_call
    3135            
    3136 00034e 13B0!         CALLA     #__mspabi_cvtfd       ; [] |293| 
         000350 0000 
    3137                                                      ; [] |293| 
    3138 000352 0CC8          MOVA      r12,r8                ; [] |293| 
    3139 000354 0DC9          MOVA      r13,r9                ; [] |293| 
    3140 000356 0ECA          MOVA      r14,r10               ; [] |293| 
    3141 000358 0FCB          MOVA      r15,r11               ; [] |293| 
    3142 00035a 403C          MOV.W     #5243,r12             ; [] |293| 
         00035c 147B 
    3143 00035e 403D          MOV.W     #18350,r13            ; [] |293| 
         000360 47AE 
    3144 000362 403E          MOV.W     #31457,r14            ; [] |293| 
         000364 7AE1 
    3145 000366 403F          MOV.W     #16260,r15            ; [] |293| 
         000368 3F84 
    3146            $C$DW$157       .dwtag  DW_TAG_TI_branch
    3147                    .dwattr $C$DW$157, DW_AT_low_pc(0x00)
    3148                    .dwattr $C$DW$157, DW_AT_name("__mspabi_cmpd")
    3149                    .dwattr $C$DW$157, DW_AT_TI_call
    3150            
MSP430 Assembler PC v21.6.1 Tue Dec 20 13:45:58 2022

Copyright (c) 2003-2018 Texas Instruments Incorporated
Fans.asm                                                             PAGE   63

    3151 00036a 13B0!         CALLA     #__mspabi_cmpd        ; [] |293| 
         00036c 0000 
    3152                                                      ; [] |293| 
    3153 00036e 930C          TST.W     r12                   ; [] |293| 
    3154 000370 344B          JGE       $C$L79                ; [] |293| 
    3155                                                      ; [] |293| 
    3156            ;* --------------------------------------------------------------------------*
    3157 000372 421C          MOV.W     &TC1_temp+0,r12       ; [] |293| 
         000374 0000!
    3158 000376 421D          MOV.W     &TC1_temp+2,r13       ; [] |293| 
         000378 0002!
    3159            $C$DW$158       .dwtag  DW_TAG_TI_branch
    3160                    .dwattr $C$DW$158, DW_AT_low_pc(0x00)
    3161                    .dwattr $C$DW$158, DW_AT_name("__mspabi_cvtfd")
    3162                    .dwattr $C$DW$158, DW_AT_TI_call
    3163            
    3164 00037a 13B0!         CALLA     #__mspabi_cvtfd       ; [] |293| 
         00037c 0000 
    3165                                                      ; [] |293| 
    3166 00037e 4C81          MOV.W     r12,0(SP)             ; [] 
         000380 0000 
    3167 000382 0DC4          MOVA      r13,r4                ; [] |293| 
    3168 000384 0EC5          MOVA      r14,r5                ; [] |293| 
    3169 000386 0FC6          MOVA      r15,r6                ; [] |293| 
    3170 000388 07CC          MOVA      r7,r12                ; [] |293| 
    3171            $C$DW$159       .dwtag  DW_TAG_TI_branch
    3172                    .dwattr $C$DW$159, DW_AT_low_pc(0x00)
    3173                    .dwattr $C$DW$159, DW_AT_name("__mspabi_fltid")
    3174                    .dwattr $C$DW$159, DW_AT_TI_call
    3175            
    3176 00038a 13B0!         CALLA     #__mspabi_fltid       ; [] |293| 
         00038c 0000 
    3177                                                      ; [] |293| 
    3178 00038e 0CC8          MOVA      r12,r8                ; [] |293| 
    3179 000390 0DC9          MOVA      r13,r9                ; [] |293| 
    3180 000392 0ECA          MOVA      r14,r10               ; [] |293| 
    3181 000394 0FCB          MOVA      r15,r11               ; [] |293| 
    3182 000396 430C          MOV.W     #0,r12                ; [] |293| 
    3183 000398 430D          MOV.W     #0,r13                ; [] |293| 
    3184 00039a 430E          MOV.W     #0,r14                ; [] |293| 
    3185 00039c 403F          MOV.W     #16352,r15            ; [] |293| 
         00039e 3FE0 
    3186            $C$DW$160       .dwtag  DW_TAG_TI_branch
    3187                    .dwattr $C$DW$160, DW_AT_low_pc(0x00)
    3188                    .dwattr $C$DW$160, DW_AT_name("__mspabi_addd")
    3189                    .dwattr $C$DW$160, DW_AT_TI_call
    3190            
    3191 0003a0 13B0!         CALLA     #__mspabi_addd        ; [] |293| 
         0003a2 0000 
    3192                                                      ; [] |293| 
    3193 0003a4 4128          MOV.W     0(SP),r8              ; [] 
    3194 0003a6 04C9          MOVA      r4,r9                 ; [] |293| 
    3195 0003a8 05CA          MOVA      r5,r10                ; [] |293| 
    3196 0003aa 06CB          MOVA      r6,r11                ; [] |293| 
    3197            $C$DW$161       .dwtag  DW_TAG_TI_branch
MSP430 Assembler PC v21.6.1 Tue Dec 20 13:45:58 2022

Copyright (c) 2003-2018 Texas Instruments Incorporated
Fans.asm                                                             PAGE   64

    3198                    .dwattr $C$DW$161, DW_AT_low_pc(0x00)
    3199                    .dwattr $C$DW$161, DW_AT_name("__mspabi_cmpd")
    3200                    .dwattr $C$DW$161, DW_AT_TI_call
    3201            
    3202 0003ac 13B0!         CALLA     #__mspabi_cmpd        ; [] |293| 
         0003ae 0000 
    3203                                                      ; [] |293| 
    3204 0003b0 930C          TST.W     r12                   ; [] |293| 
    3205 0003b2 342A          JGE       $C$L79                ; [] |293| 
    3206                                                      ; [] |293| 
    3207            ;* --------------------------------------------------------------------------*
    3208                    .dwpsn  file "../src/Fans.c",line 302,column 17,is_stmt,isa 0
    3209 0003b4 403C          MOV.W     #700,r12              ; [] |302| 
         0003b6 02BC 
    3210            $C$DW$162       .dwtag  DW_TAG_TI_branch
    3211                    .dwattr $C$DW$162, DW_AT_low_pc(0x00)
    3212                    .dwattr $C$DW$162, DW_AT_name("Set_FCSFan")
    3213                    .dwattr $C$DW$162, DW_AT_TI_call
    3214            
    3215 0003b8 13B0!         CALLA     #Set_FCSFan           ; [] |302| 
         0003ba 0000 
    3216                                                      ; [] |302| 
    3217 0003bc 3C25          JMP       $C$L79                ; [] |302| 
    3218                                                      ; [] |302| 
    3219            ;* --------------------------------------------------------------------------*
    3220 0003be       $C$L75:    
    3221                    .dwpsn  file "../src/Fans.c",line 311,column 10,is_stmt,isa 0
    3222 0003be 92A2          CMP.W     #4,&mode+0            ; [] |311| 
         0003c0 0000!
    3223 0003c2 2409          JEQ       $C$L76                ; [] |311| 
    3224                                                      ; [] |311| 
    3225            ;* --------------------------------------------------------------------------*
    3226                    .dwpsn  file "../src/Fans.c",line 325,column 10,is_stmt,isa 0
    3227 0003c4 90B2          CMP.W     #6,&mode+0            ; [] |325| 
         0003c6 0006 
         0003c8 0000!
    3228 0003ca 201E          JNE       $C$L79                ; [] |325| 
    3229                                                      ; [] |325| 
    3230            ;* --------------------------------------------------------------------------*
    3231                    .dwpsn  file "../src/Fans.c",line 327,column 9,is_stmt,isa 0
    3232 0003cc 403C          MOV.W     #700,r12              ; [] |327| 
         0003ce 02BC 
    3233            $C$DW$163       .dwtag  DW_TAG_TI_branch
    3234                    .dwattr $C$DW$163, DW_AT_low_pc(0x00)
    3235                    .dwattr $C$DW$163, DW_AT_name("Set_FCSFan")
    3236                    .dwattr $C$DW$163, DW_AT_TI_call
    3237            
    3238 0003d0 13B0!         CALLA     #Set_FCSFan           ; [] |327| 
         0003d2 0000 
    3239                                                      ; [] |327| 
    3240 0003d4 3C19          JMP       $C$L79                ; [] |327| 
    3241                                                      ; [] |327| 
    3242            ;* --------------------------------------------------------------------------*
    3243 0003d6       $C$L76:    
    3244                    .dwpsn  file "../src/Fans.c",line 315,column 9,is_stmt,isa 0
MSP430 Assembler PC v21.6.1 Tue Dec 20 13:45:58 2022

Copyright (c) 2003-2018 Texas Instruments Incorporated
Fans.asm                                                             PAGE   65

    3245 0003d6 07CC          MOVA      r7,r12                ; [] |315| 
    3246            $C$DW$164       .dwtag  DW_TAG_TI_branch
    3247                    .dwattr $C$DW$164, DW_AT_low_pc(0x00)
    3248                    .dwattr $C$DW$164, DW_AT_name("__mspabi_fltif")
    3249                    .dwattr $C$DW$164, DW_AT_TI_call
    3250            
    3251 0003d8 13B0!         CALLA     #__mspabi_fltif       ; [] |315| 
         0003da 0000 
    3252                                                      ; [] |315| 
    3253 0003dc 421E          MOV.W     &TC1_temp+0,r14       ; [] |315| 
         0003de 0000!
    3254 0003e0 421F          MOV.W     &TC1_temp+2,r15       ; [] |315| 
         0003e2 0002!
    3255            $C$DW$165       .dwtag  DW_TAG_TI_branch
    3256                    .dwattr $C$DW$165, DW_AT_low_pc(0x00)
    3257                    .dwattr $C$DW$165, DW_AT_name("__mspabi_cmpf")
    3258                    .dwattr $C$DW$165, DW_AT_TI_call
    3259            
    3260 0003e4 13B0!         CALLA     #__mspabi_cmpf        ; [] |315| 
         0003e6 0000 
    3261                                                      ; [] |315| 
    3262 0003e8 930C          TST.W     r12                   ; [] |315| 
    3263 0003ea 3805          JL        $C$L77                ; [] |315| 
    3264                                                      ; [] |315| 
    3265            ;* --------------------------------------------------------------------------*
    3266                    .dwpsn  file "../src/Fans.c",line 322,column 13,is_stmt,isa 0
    3267 0003ec 403C          MOV.W     #700,r12              ; [] |322| 
         0003ee 02BC 
    3268            $C$DW$166       .dwtag  DW_TAG_TI_branch
    3269                    .dwattr $C$DW$166, DW_AT_low_pc(0x00)
    3270                    .dwattr $C$DW$166, DW_AT_name("Set_FCSFan")
    3271                    .dwattr $C$DW$166, DW_AT_TI_call
    3272            
    3273 0003f0 13B0!         CALLA     #Set_FCSFan           ; [] |322| 
         0003f2 0000 
    3274                                                      ; [] |322| 
    3275 0003f4 3C09          JMP       $C$L79                ; [] |322| 
    3276                                                      ; [] |322| 
    3277            ;* --------------------------------------------------------------------------*
    3278 0003f6       $C$L77:    
    3279                    .dwpsn  file "../src/Fans.c",line 318,column 13,is_stmt,isa 0
    3280 0003f6 403C          MOV.W     #350,r12              ; [] |318| 
         0003f8 015E 
    3281            $C$DW$167       .dwtag  DW_TAG_TI_branch
    3282                    .dwattr $C$DW$167, DW_AT_low_pc(0x00)
    3283                    .dwattr $C$DW$167, DW_AT_name("Set_FCSFan")
    3284                    .dwattr $C$DW$167, DW_AT_TI_call
    3285            
    3286 0003fa 13B0!         CALLA     #Set_FCSFan           ; [] |318| 
         0003fc 0000 
    3287                                                      ; [] |318| 
    3288 0003fe 3C04          JMP       $C$L79                ; [] 
    3289                                                      ; [] 
    3290            ;* --------------------------------------------------------------------------*
    3291 000400       $C$L78:    
MSP430 Assembler PC v21.6.1 Tue Dec 20 13:45:58 2022

Copyright (c) 2003-2018 Texas Instruments Incorporated
Fans.asm                                                             PAGE   66

    3292                    .dwpsn  file "../src/Fans.c",line 226,column 9,is_stmt,isa 0
    3293 000400 403C          MOV.W     #700,r12              ; [] |226| 
         000402 02BC 
    3294            $C$DW$168       .dwtag  DW_TAG_TI_branch
    3295                    .dwattr $C$DW$168, DW_AT_low_pc(0x00)
    3296                    .dwattr $C$DW$168, DW_AT_name("Set_FCSFan")
    3297                    .dwattr $C$DW$168, DW_AT_TI_call
    3298            
    3299 000404 13B0!         CALLA     #Set_FCSFan           ; [] |226| 
         000406 0000 
    3300                                                      ; [] |226| 
    3301            ;* --------------------------------------------------------------------------*
    3302 000408       $C$L79:    
    3303                    .dwpsn  file "../src/Fans.c",line 330,column 3,is_stmt,isa 0
    3304 000408 B3D2          BIT.B     #1,&PBIN_H+0          ; [] |330| 
         00040a 0000!
    3305 00040c 2008          JNE       $C$L80                ; [] |330| 
    3306                                                      ; [] |330| 
    3307            ;* --------------------------------------------------------------------------*
    3308 00040e B2F2          BIT.B     #8,&PAIN_H+0          ; [] |330| 
         000410 0000!
    3309 000412 2005          JNE       $C$L80                ; [] |330| 
    3310                                                      ; [] |330| 
    3311            ;* --------------------------------------------------------------------------*
    3312                    .dwpsn  file "../src/Fans.c",line 330,column 40,is_stmt,isa 0
    3313 000414 40B2          MOV.W     #700,&condenser_fan_speed+0 ; [] |330| 
         000416 02BC 
         000418 0000!
    3314                    .dwpsn  file "../src/Fans.c",line 330,column 67,is_stmt,isa 0
    3315 00041a 4382          MOV.W     #0,&Water_lvl+0       ; [] |330| 
         00041c 0000!
    3316            ;* --------------------------------------------------------------------------*
    3317 00041e       $C$L80:    
    3318                    .dwpsn  file "../src/Fans.c",line 331,column 3,is_stmt,isa 0
    3319 00041e B3D2          BIT.B     #1,&PBIN_H+0          ; [] |331| 
         000420 0000!
    3320 000422 2408          JEQ       $C$L81                ; [] |331| 
    3321                                                      ; [] |331| 
    3322            ;* --------------------------------------------------------------------------*
    3323 000424 B2F2          BIT.B     #8,&PAIN_H+0          ; [] |331| 
         000426 0000!
    3324 000428 2005          JNE       $C$L81                ; [] |331| 
    3325                                                      ; [] |331| 
    3326            ;* --------------------------------------------------------------------------*
    3327                    .dwpsn  file "../src/Fans.c",line 331,column 39,is_stmt,isa 0
    3328 00042a 40B2          MOV.W     #700,&condenser_fan_speed+0 ; [] |331| 
         00042c 02BC 
         00042e 0000!
    3329                    .dwpsn  file "../src/Fans.c",line 331,column 66,is_stmt,isa 0
    3330 000430 4392          MOV.W     #1,&Water_lvl+0       ; [] |331| 
         000432 0000!
    3331            ;* --------------------------------------------------------------------------*
    3332 000434       $C$L81:    
