MSP430 Assembler PC v21.6.1 Tue Dec 20 13:45:59 2022

Copyright (c) 2003-2018 Texas Instruments Incorporated
Fuel_Gauge.asm                                                       PAGE    1

       1            ;******************************************************************************
       2            ;* MSP430 G3 C/C++ Codegen                                              PC v21.6.1.LTS *
       3            ;* Date/Time created: Tue Dec 20 13:45:59 2022                                *
       4            ;******************************************************************************
       5                    .compiler_opts --abi=eabi --diag_wrap=off --hll_source=on --mem_model:code=large --mem_model:d
       6            
       7            $C$DW$CU        .dwtag  DW_TAG_compile_unit
       8                    .dwattr $C$DW$CU, DW_AT_name("../src/Fuel_Gauge.c")
       9                    .dwattr $C$DW$CU, DW_AT_producer("TI MSP430 G3 C/C++ Codegen PC v21.6.1.LTS Copyright (c) 2003
      10                    .dwattr $C$DW$CU, DW_AT_TI_version(0x01)
      11                    .dwattr $C$DW$CU, DW_AT_comp_dir("C:\Users\MCourson\workspace_v11\MZERO_HB50Board\Debug")
      12                    .global mode
      13                    .common mode,2,2
      14            $C$DW$1 .dwtag  DW_TAG_variable
      15                    .dwattr $C$DW$1, DW_AT_name("mode")
      16                    .dwattr $C$DW$1, DW_AT_TI_symbol_name("mode")
      17                    .dwattr $C$DW$1, DW_AT_location[DW_OP_addr mode]
      18                    .dwattr $C$DW$1, DW_AT_type(*$C$DW$T$54)
      19                    .dwattr $C$DW$1, DW_AT_external
      20                    .dwattr $C$DW$1, DW_AT_decl_file("C:/Users/MCourson/workspace_v11/MZERO_HB50Board/include/Main
      21                    .dwattr $C$DW$1, DW_AT_decl_line(0x65)
      22                    .dwattr $C$DW$1, DW_AT_decl_column(0x07)
      23            
      24                    .global FCState
      25                    .common FCState,2,2
      26            $C$DW$2 .dwtag  DW_TAG_variable
      27                    .dwattr $C$DW$2, DW_AT_name("FCState")
      28                    .dwattr $C$DW$2, DW_AT_TI_symbol_name("FCState")
      29                    .dwattr $C$DW$2, DW_AT_location[DW_OP_addr FCState]
      30                    .dwattr $C$DW$2, DW_AT_type(*$C$DW$T$56)
      31                    .dwattr $C$DW$2, DW_AT_external
      32                    .dwattr $C$DW$2, DW_AT_decl_file("C:/Users/MCourson/workspace_v11/MZERO_HB50Board/include/Main
      33                    .dwattr $C$DW$2, DW_AT_decl_line(0x6d)
      34                    .dwattr $C$DW$2, DW_AT_decl_column(0x0a)
      35            
      36                    .global msgstatus
      37                    .common msgstatus,2,2
      38            $C$DW$3 .dwtag  DW_TAG_variable
      39                    .dwattr $C$DW$3, DW_AT_name("msgstatus")
      40                    .dwattr $C$DW$3, DW_AT_TI_symbol_name("msgstatus")
      41                    .dwattr $C$DW$3, DW_AT_location[DW_OP_addr msgstatus]
      42                    .dwattr $C$DW$3, DW_AT_type(*$C$DW$T$58)
      43                    .dwattr $C$DW$3, DW_AT_external
      44                    .dwattr $C$DW$3, DW_AT_decl_file("C:/Users/MCourson/workspace_v11/MZERO_HB50Board/include/Main
      45                    .dwattr $C$DW$3, DW_AT_decl_line(0x7c)
      46                    .dwattr $C$DW$3, DW_AT_decl_column(0x0f)
      47            
      48                    .global status
      49                    .common status,2,2
      50            $C$DW$4 .dwtag  DW_TAG_variable
      51                    .dwattr $C$DW$4, DW_AT_name("status")
      52                    .dwattr $C$DW$4, DW_AT_TI_symbol_name("status")
      53                    .dwattr $C$DW$4, DW_AT_location[DW_OP_addr status]
      54                    .dwattr $C$DW$4, DW_AT_type(*$C$DW$T$60)
      55                    .dwattr $C$DW$4, DW_AT_external
MSP430 Assembler PC v21.6.1 Tue Dec 20 13:45:59 2022

Copyright (c) 2003-2018 Texas Instruments Incorporated
Fuel_Gauge.asm                                                       PAGE    2

      56                    .dwattr $C$DW$4, DW_AT_decl_file("C:/Users/MCourson/workspace_v11/MZERO_HB50Board/include/Main
      57                    .dwattr $C$DW$4, DW_AT_decl_line(0x83)
      58                    .dwattr $C$DW$4, DW_AT_decl_column(0x0e)
      59            
      60            $C$DW$5 .dwtag  DW_TAG_variable
      61                    .dwattr $C$DW$5, DW_AT_name("datarev")
      62                    .dwattr $C$DW$5, DW_AT_TI_symbol_name("datarev")
      63                    .dwattr $C$DW$5, DW_AT_type(*$C$DW$T$24)
      64                    .dwattr $C$DW$5, DW_AT_declaration
      65                    .dwattr $C$DW$5, DW_AT_external
      66                    .dwattr $C$DW$5, DW_AT_decl_file("../src/Fuel_Gauge.c")
      67                    .dwattr $C$DW$5, DW_AT_decl_line(0x19)
      68                    .dwattr $C$DW$5, DW_AT_decl_column(0x10)
      69            
      70            $C$DW$6 .dwtag  DW_TAG_variable
      71                    .dwattr $C$DW$6, DW_AT_name("CartData")
      72                    .dwattr $C$DW$6, DW_AT_TI_symbol_name("CartData")
      73                    .dwattr $C$DW$6, DW_AT_type(*$C$DW$T$91)
      74                    .dwattr $C$DW$6, DW_AT_declaration
      75                    .dwattr $C$DW$6, DW_AT_external
      76                    .dwattr $C$DW$6, DW_AT_decl_file("../src/Fuel_Gauge.c")
      77                    .dwattr $C$DW$6, DW_AT_decl_line(0x1a)
      78                    .dwattr $C$DW$6, DW_AT_decl_column(0x10)
      79            
      80            $C$DW$7 .dwtag  DW_TAG_variable
      81                    .dwattr $C$DW$7, DW_AT_name("main_fuel_flow")
      82                    .dwattr $C$DW$7, DW_AT_TI_symbol_name("main_fuel_flow")
      83                    .dwattr $C$DW$7, DW_AT_type(*$C$DW$T$16)
      84                    .dwattr $C$DW$7, DW_AT_declaration
      85                    .dwattr $C$DW$7, DW_AT_external
      86                    .dwattr $C$DW$7, DW_AT_decl_file("../src/Fuel_Gauge.c")
      87                    .dwattr $C$DW$7, DW_AT_decl_line(0x22)
      88                    .dwattr $C$DW$7, DW_AT_decl_column(0x0e)
      89            
      90            $C$DW$8 .dwtag  DW_TAG_variable
      91                    .dwattr $C$DW$8, DW_AT_name("modelno")
      92                    .dwattr $C$DW$8, DW_AT_TI_symbol_name("modelno")
      93                    .dwattr $C$DW$8, DW_AT_type(*$C$DW$T$24)
      94                    .dwattr $C$DW$8, DW_AT_declaration
      95                    .dwattr $C$DW$8, DW_AT_external
      96                    .dwattr $C$DW$8, DW_AT_decl_file("../src/Fuel_Gauge.c")
      97                    .dwattr $C$DW$8, DW_AT_decl_line(0x2e)
      98                    .dwattr $C$DW$8, DW_AT_decl_column(0x10)
      99            
     100            $C$DW$9 .dwtag  DW_TAG_variable
     101                    .dwattr $C$DW$9, DW_AT_name("Reprogram_Cartridge")
     102                    .dwattr $C$DW$9, DW_AT_TI_symbol_name("Reprogram_Cartridge")
     103                    .dwattr $C$DW$9, DW_AT_type(*$C$DW$T$24)
     104                    .dwattr $C$DW$9, DW_AT_declaration
     105                    .dwattr $C$DW$9, DW_AT_external
     106                    .dwattr $C$DW$9, DW_AT_decl_file("../src/Fuel_Gauge.c")
     107                    .dwattr $C$DW$9, DW_AT_decl_line(0x2f)
     108                    .dwattr $C$DW$9, DW_AT_decl_column(0x10)
     109            
     110            $C$DW$10        .dwtag  DW_TAG_variable
MSP430 Assembler PC v21.6.1 Tue Dec 20 13:45:59 2022

Copyright (c) 2003-2018 Texas Instruments Incorporated
Fuel_Gauge.asm                                                       PAGE    3

     111                    .dwattr $C$DW$10, DW_AT_name("Cartridge_Programmed")
     112                    .dwattr $C$DW$10, DW_AT_TI_symbol_name("Cartridge_Programmed")
     113                    .dwattr $C$DW$10, DW_AT_type(*$C$DW$T$24)
     114                    .dwattr $C$DW$10, DW_AT_declaration
     115                    .dwattr $C$DW$10, DW_AT_external
     116                    .dwattr $C$DW$10, DW_AT_decl_file("../src/Fuel_Gauge.c")
     117                    .dwattr $C$DW$10, DW_AT_decl_line(0x30)
     118                    .dwattr $C$DW$10, DW_AT_decl_column(0x10)
     119            
     120            $C$DW$11        .dwtag  DW_TAG_variable
     121                    .dwattr $C$DW$11, DW_AT_name("error_message")
     122                    .dwattr $C$DW$11, DW_AT_TI_symbol_name("error_message")
     123                    .dwattr $C$DW$11, DW_AT_type(*$C$DW$T$98)
     124                    .dwattr $C$DW$11, DW_AT_declaration
     125                    .dwattr $C$DW$11, DW_AT_external
     126                    .dwattr $C$DW$11, DW_AT_decl_file("../src/Fuel_Gauge.c")
     127                    .dwattr $C$DW$11, DW_AT_decl_line(0x33)
     128                    .dwattr $C$DW$11, DW_AT_decl_column(0x0c)
     129            
     130            $C$DW$12        .dwtag  DW_TAG_variable
     131                    .dwattr $C$DW$12, DW_AT_name("sum_dispensed")
     132                    .dwattr $C$DW$12, DW_AT_TI_symbol_name("sum_dispensed")
     133                    .dwattr $C$DW$12, DW_AT_type(*$C$DW$T$16)
     134                    .dwattr $C$DW$12, DW_AT_declaration
     135                    .dwattr $C$DW$12, DW_AT_external
     136                    .dwattr $C$DW$12, DW_AT_decl_file("../src/Fuel_Gauge.c")
     137                    .dwattr $C$DW$12, DW_AT_decl_line(0x38)
     138                    .dwattr $C$DW$12, DW_AT_decl_column(0x0e)
     139            
     140            $C$DW$13        .dwtag  DW_TAG_variable
     141                    .dwattr $C$DW$13, DW_AT_name("FC_Burner_Methanol_flow")
     142                    .dwattr $C$DW$13, DW_AT_TI_symbol_name("FC_Burner_Methanol_flow")
     143                    .dwattr $C$DW$13, DW_AT_type(*$C$DW$T$16)
     144                    .dwattr $C$DW$13, DW_AT_declaration
     145                    .dwattr $C$DW$13, DW_AT_external
     146                    .dwattr $C$DW$13, DW_AT_decl_file("../src/Fuel_Gauge.c")
     147                    .dwattr $C$DW$13, DW_AT_decl_line(0x3b)
     148                    .dwattr $C$DW$13, DW_AT_decl_column(0x0e)
     149            
     150            $C$DW$14        .dwtag  DW_TAG_variable
     151                    .dwattr $C$DW$14, DW_AT_name("Ghost_Cartridge_Level_Option")
     152                    .dwattr $C$DW$14, DW_AT_TI_symbol_name("Ghost_Cartridge_Level_Option")
     153                    .dwattr $C$DW$14, DW_AT_type(*$C$DW$T$24)
     154                    .dwattr $C$DW$14, DW_AT_declaration
     155                    .dwattr $C$DW$14, DW_AT_external
     156                    .dwattr $C$DW$14, DW_AT_decl_file("../src/Fuel_Gauge.c")
     157                    .dwattr $C$DW$14, DW_AT_decl_line(0x3d)
     158                    .dwattr $C$DW$14, DW_AT_decl_column(0x10)
     159            
     160                    .global v1
     161                    .common v1,4,2
     162            $C$DW$15        .dwtag  DW_TAG_variable
     163                    .dwattr $C$DW$15, DW_AT_name("v1")
     164                    .dwattr $C$DW$15, DW_AT_TI_symbol_name("v1")
     165                    .dwattr $C$DW$15, DW_AT_location[DW_OP_addr v1]
MSP430 Assembler PC v21.6.1 Tue Dec 20 13:45:59 2022

Copyright (c) 2003-2018 Texas Instruments Incorporated
Fuel_Gauge.asm                                                       PAGE    4

     166                    .dwattr $C$DW$15, DW_AT_type(*$C$DW$T$16)
     167                    .dwattr $C$DW$15, DW_AT_external
     168                    .dwattr $C$DW$15, DW_AT_decl_file("../src/Fuel_Gauge.c")
     169                    .dwattr $C$DW$15, DW_AT_decl_line(0x43)
     170                    .dwattr $C$DW$15, DW_AT_decl_column(0x07)
     171            
     172                    .global v2
     173                    .common v2,2,2
     174            $C$DW$16        .dwtag  DW_TAG_variable
     175                    .dwattr $C$DW$16, DW_AT_name("v2")
     176                    .dwattr $C$DW$16, DW_AT_TI_symbol_name("v2")
     177                    .dwattr $C$DW$16, DW_AT_location[DW_OP_addr v2]
     178                    .dwattr $C$DW$16, DW_AT_type(*$C$DW$T$11)
     179                    .dwattr $C$DW$16, DW_AT_external
     180                    .dwattr $C$DW$16, DW_AT_decl_file("../src/Fuel_Gauge.c")
     181                    .dwattr $C$DW$16, DW_AT_decl_line(0x44)
     182                    .dwattr $C$DW$16, DW_AT_decl_column(0x0e)
     183            
     184                    .global count_v2
     185                    .common count_v2,2,2
     186            $C$DW$17        .dwtag  DW_TAG_variable
     187                    .dwattr $C$DW$17, DW_AT_name("count_v2")
     188                    .dwattr $C$DW$17, DW_AT_TI_symbol_name("count_v2")
     189                    .dwattr $C$DW$17, DW_AT_location[DW_OP_addr count_v2]
     190                    .dwattr $C$DW$17, DW_AT_type(*$C$DW$T$11)
     191                    .dwattr $C$DW$17, DW_AT_external
     192                    .dwattr $C$DW$17, DW_AT_decl_file("../src/Fuel_Gauge.c")
     193                    .dwattr $C$DW$17, DW_AT_decl_line(0x45)
     194                    .dwattr $C$DW$17, DW_AT_decl_column(0x0e)
     195            
     196                    .global v3
     197                    .common v3,4,2
     198            $C$DW$18        .dwtag  DW_TAG_variable
     199                    .dwattr $C$DW$18, DW_AT_name("v3")
     200                    .dwattr $C$DW$18, DW_AT_TI_symbol_name("v3")
     201                    .dwattr $C$DW$18, DW_AT_location[DW_OP_addr v3]
     202                    .dwattr $C$DW$18, DW_AT_type(*$C$DW$T$16)
     203                    .dwattr $C$DW$18, DW_AT_external
     204                    .dwattr $C$DW$18, DW_AT_decl_file("../src/Fuel_Gauge.c")
     205                    .dwattr $C$DW$18, DW_AT_decl_line(0x46)
     206                    .dwattr $C$DW$18, DW_AT_decl_column(0x07)
     207            
     208                    .global v4
     209                    .common v4,2,2
     210            $C$DW$19        .dwtag  DW_TAG_variable
     211                    .dwattr $C$DW$19, DW_AT_name("v4")
     212                    .dwattr $C$DW$19, DW_AT_TI_symbol_name("v4")
     213                    .dwattr $C$DW$19, DW_AT_location[DW_OP_addr v4]
     214                    .dwattr $C$DW$19, DW_AT_type(*$C$DW$T$11)
     215                    .dwattr $C$DW$19, DW_AT_external
     216                    .dwattr $C$DW$19, DW_AT_decl_file("../src/Fuel_Gauge.c")
     217                    .dwattr $C$DW$19, DW_AT_decl_line(0x47)
     218                    .dwattr $C$DW$19, DW_AT_decl_column(0x0e)
     219            
     220                    .global count_v4
MSP430 Assembler PC v21.6.1 Tue Dec 20 13:45:59 2022

Copyright (c) 2003-2018 Texas Instruments Incorporated
Fuel_Gauge.asm                                                       PAGE    5

     221                    .common count_v4,2,2
     222            $C$DW$20        .dwtag  DW_TAG_variable
     223                    .dwattr $C$DW$20, DW_AT_name("count_v4")
     224                    .dwattr $C$DW$20, DW_AT_TI_symbol_name("count_v4")
     225                    .dwattr $C$DW$20, DW_AT_location[DW_OP_addr count_v4]
     226                    .dwattr $C$DW$20, DW_AT_type(*$C$DW$T$11)
     227                    .dwattr $C$DW$20, DW_AT_external
     228                    .dwattr $C$DW$20, DW_AT_decl_file("../src/Fuel_Gauge.c")
     229                    .dwattr $C$DW$20, DW_AT_decl_line(0x48)
     230                    .dwattr $C$DW$20, DW_AT_decl_column(0x0e)
     231            
     232                    .global fuel_gauge_decrement
     233                    .common fuel_gauge_decrement,1,1
     234            $C$DW$21        .dwtag  DW_TAG_variable
     235                    .dwattr $C$DW$21, DW_AT_name("fuel_gauge_decrement")
     236                    .dwattr $C$DW$21, DW_AT_TI_symbol_name("fuel_gauge_decrement")
     237                    .dwattr $C$DW$21, DW_AT_location[DW_OP_addr fuel_gauge_decrement]
     238                    .dwattr $C$DW$21, DW_AT_type(*$C$DW$T$24)
     239                    .dwattr $C$DW$21, DW_AT_external
     240                    .dwattr $C$DW$21, DW_AT_decl_file("../src/Fuel_Gauge.c")
     241                    .dwattr $C$DW$21, DW_AT_decl_line(0x49)
     242                    .dwattr $C$DW$21, DW_AT_decl_column(0x09)
     243            
     244                    .global fuel_remaining
     245                    .common fuel_remaining,4,2
     246            $C$DW$22        .dwtag  DW_TAG_variable
     247                    .dwattr $C$DW$22, DW_AT_name("fuel_remaining")
     248                    .dwattr $C$DW$22, DW_AT_TI_symbol_name("fuel_remaining")
     249                    .dwattr $C$DW$22, DW_AT_location[DW_OP_addr fuel_remaining]
     250                    .dwattr $C$DW$22, DW_AT_type(*$C$DW$T$16)
     251                    .dwattr $C$DW$22, DW_AT_external
     252                    .dwattr $C$DW$22, DW_AT_decl_file("../src/Fuel_Gauge.c")
     253                    .dwattr $C$DW$22, DW_AT_decl_line(0x4a)
     254                    .dwattr $C$DW$22, DW_AT_decl_column(0x07)
     255            
     256                    .global percent_remaining
     257                    .common percent_remaining,1,1
     258            $C$DW$23        .dwtag  DW_TAG_variable
     259                    .dwattr $C$DW$23, DW_AT_name("percent_remaining")
     260                    .dwattr $C$DW$23, DW_AT_TI_symbol_name("percent_remaining")
     261                    .dwattr $C$DW$23, DW_AT_location[DW_OP_addr percent_remaining]
     262                    .dwattr $C$DW$23, DW_AT_type(*$C$DW$T$24)
     263                    .dwattr $C$DW$23, DW_AT_external
     264                    .dwattr $C$DW$23, DW_AT_decl_file("../src/Fuel_Gauge.c")
     265                    .dwattr $C$DW$23, DW_AT_decl_line(0x4b)
     266                    .dwattr $C$DW$23, DW_AT_decl_column(0x09)
     267            
     268                    .global runtime_remaining
     269                    .common runtime_remaining,4,2
     270            $C$DW$24        .dwtag  DW_TAG_variable
     271                    .dwattr $C$DW$24, DW_AT_name("runtime_remaining")
     272                    .dwattr $C$DW$24, DW_AT_TI_symbol_name("runtime_remaining")
     273                    .dwattr $C$DW$24, DW_AT_location[DW_OP_addr runtime_remaining]
     274                    .dwattr $C$DW$24, DW_AT_type(*$C$DW$T$16)
     275                    .dwattr $C$DW$24, DW_AT_external
MSP430 Assembler PC v21.6.1 Tue Dec 20 13:45:59 2022

Copyright (c) 2003-2018 Texas Instruments Incorporated
Fuel_Gauge.asm                                                       PAGE    6

     276                    .dwattr $C$DW$24, DW_AT_decl_file("../src/Fuel_Gauge.c")
     277                    .dwattr $C$DW$24, DW_AT_decl_line(0x4c)
     278                    .dwattr $C$DW$24, DW_AT_decl_column(0x07)
     279            
     280                    .global fuel_full
     281                    .common fuel_full,4,2
     282            $C$DW$25        .dwtag  DW_TAG_variable
     283                    .dwattr $C$DW$25, DW_AT_name("fuel_full")
     284                    .dwattr $C$DW$25, DW_AT_TI_symbol_name("fuel_full")
     285                    .dwattr $C$DW$25, DW_AT_location[DW_OP_addr fuel_full]
     286                    .dwattr $C$DW$25, DW_AT_type(*$C$DW$T$16)
     287                    .dwattr $C$DW$25, DW_AT_external
     288                    .dwattr $C$DW$25, DW_AT_decl_file("../src/Fuel_Gauge.c")
     289                    .dwattr $C$DW$25, DW_AT_decl_line(0x4d)
     290                    .dwattr $C$DW$25, DW_AT_decl_column(0x07)
     291            
     292                    .global Snorkel_Cartridge
     293                    .common Snorkel_Cartridge,1,1
     294            $C$DW$26        .dwtag  DW_TAG_variable
     295                    .dwattr $C$DW$26, DW_AT_name("Snorkel_Cartridge")
     296                    .dwattr $C$DW$26, DW_AT_TI_symbol_name("Snorkel_Cartridge")
     297                    .dwattr $C$DW$26, DW_AT_location[DW_OP_addr Snorkel_Cartridge]
     298                    .dwattr $C$DW$26, DW_AT_type(*$C$DW$T$24)
     299                    .dwattr $C$DW$26, DW_AT_external
     300                    .dwattr $C$DW$26, DW_AT_decl_file("../src/Fuel_Gauge.c")
     301                    .dwattr $C$DW$26, DW_AT_decl_line(0x4e)
     302                    .dwattr $C$DW$26, DW_AT_decl_column(0x09)
     303            
     304                    .global cartridge_adapter
     305                    .common cartridge_adapter,1,1
     306            $C$DW$27        .dwtag  DW_TAG_variable
     307                    .dwattr $C$DW$27, DW_AT_name("cartridge_adapter")
     308                    .dwattr $C$DW$27, DW_AT_TI_symbol_name("cartridge_adapter")
     309                    .dwattr $C$DW$27, DW_AT_location[DW_OP_addr cartridge_adapter]
     310                    .dwattr $C$DW$27, DW_AT_type(*$C$DW$T$24)
     311                    .dwattr $C$DW$27, DW_AT_external
     312                    .dwattr $C$DW$27, DW_AT_decl_file("../src/Fuel_Gauge.c")
     313                    .dwattr $C$DW$27, DW_AT_decl_line(0x4f)
     314                    .dwattr $C$DW$27, DW_AT_decl_column(0x09)
     315            
     316                    .global XRT_Splitter
     317                    .common XRT_Splitter,1,1
     318            $C$DW$28        .dwtag  DW_TAG_variable
     319                    .dwattr $C$DW$28, DW_AT_name("XRT_Splitter")
     320                    .dwattr $C$DW$28, DW_AT_TI_symbol_name("XRT_Splitter")
     321                    .dwattr $C$DW$28, DW_AT_location[DW_OP_addr XRT_Splitter]
     322                    .dwattr $C$DW$28, DW_AT_type(*$C$DW$T$24)
     323                    .dwattr $C$DW$28, DW_AT_external
     324                    .dwattr $C$DW$28, DW_AT_decl_file("../src/Fuel_Gauge.c")
     325                    .dwattr $C$DW$28, DW_AT_decl_line(0x50)
     326                    .dwattr $C$DW$28, DW_AT_decl_column(0x09)
     327            
     328            ;       C:\ti\ccs1110\ccs\tools\compiler\ti-cgt-msp430_21.6.1.LTS\bin\opt430.exe C:\\Users\\MCourson\\
     329 000000               .sect   ".text:__signbitl"
     330                    .clink
MSP430 Assembler PC v21.6.1 Tue Dec 20 13:45:59 2022

Copyright (c) 2003-2018 Texas Instruments Incorporated
Fuel_Gauge.asm                                                       PAGE    7

     331                    .global __signbitl
     332            
     333            $C$DW$29        .dwtag  DW_TAG_subprogram
     334                    .dwattr $C$DW$29, DW_AT_name("__signbitl")
     335                    .dwattr $C$DW$29, DW_AT_low_pc(__signbitl)
     336                    .dwattr $C$DW$29, DW_AT_high_pc(0x00)
     337                    .dwattr $C$DW$29, DW_AT_TI_symbol_name("__signbitl")
     338                    .dwattr $C$DW$29, DW_AT_external
     339                    .dwattr $C$DW$29, DW_AT_type(*$C$DW$T$10)
     340                    .dwattr $C$DW$29, DW_AT_TI_begin_file("C:/ti/ccs1110/ccs/tools/compiler/ti-cgt-msp430_21.6.1.L
     341                    .dwattr $C$DW$29, DW_AT_TI_begin_line(0x16f)
     342                    .dwattr $C$DW$29, DW_AT_TI_begin_column(0x25)
     343                    .dwattr $C$DW$29, DW_AT_decl_file("C:/ti/ccs1110/ccs/tools/compiler/ti-cgt-msp430_21.6.1.LTS/i
     344                    .dwattr $C$DW$29, DW_AT_decl_line(0x16f)
     345                    .dwattr $C$DW$29, DW_AT_decl_column(0x25)
     346                    .dwattr $C$DW$29, DW_AT_TI_max_frame_size(0x04)
     347                    .dwpsn  file "C:/ti/ccs1110/ccs/tools/compiler/ti-cgt-msp430_21.6.1.LTS/include/_defs.h",line 
     348            
     349                    .dwfde $C$DW$CIE, __signbitl
     350            $C$DW$30        .dwtag  DW_TAG_formal_parameter
     351                    .dwattr $C$DW$30, DW_AT_name("e")
     352                    .dwattr $C$DW$30, DW_AT_TI_symbol_name("e")
     353                    .dwattr $C$DW$30, DW_AT_type(*$C$DW$T$18)
     354                    .dwattr $C$DW$30, DW_AT_location[DW_OP_reg12 DW_OP_piece 2 DW_OP_reg13 DW_OP_piece 2 DW_OP_reg
     355            
     356            
     357            ;*****************************************************************************
     358            ;* FUNCTION NAME: __signbitl                                                 *
     359            ;*                                                                           *
     360            ;*   Regs Modified     : SP,SR,r11,r12,r13,r14,r15                           *
     361            ;*   Regs Used         : SP,SR,r11,r12,r13,r14,r15                           *
     362            ;*   Local Frame Size  : 0 Args + 0 Auto + 0 Save = 0 byte                   *
     363            ;*****************************************************************************
     364 000000       __signbitl:
     365            ;* --------------------------------------------------------------------------*
     366                    .dwcfi  cfa_offset, 4
     367                    .dwcfi  save_reg_to_mem, 16, -4
     368                    .dwpsn  file "C:/ti/ccs1110/ccs/tools/compiler/ti-cgt-msp430_21.6.1.LTS/include/_defs.h",line 
     369 000000 430B          MOV.W     #0,r11                ; [] |368| 
     370 000002 F30C          AND.W     #0,r12                ; [] |368| 
     371 000004 F30D          AND.W     #0,r13                ; [] |368| 
     372 000006 F30E          AND.W     #0,r14                ; [] |368| 
     373 000008 F03F          AND.W     #32768,r15            ; [] |368| 
         00000a 8000 
     374 00000c 930F          TST.W     r15                   ; [] |368| 
     375 00000e 2006          JNE       $C$L1                 ; [] |368| 
     376                                                      ; [] |368| 
     377            ;* --------------------------------------------------------------------------*
     378 000010 930E          TST.W     r14                   ; [] |368| 
     379 000012 2004          JNE       $C$L1                 ; [] |368| 
     380                                                      ; [] |368| 
     381            ;* --------------------------------------------------------------------------*
     382 000014 930D          TST.W     r13                   ; [] |368| 
     383 000016 2002          JNE       $C$L1                 ; [] |368| 
     384                                                      ; [] |368| 
MSP430 Assembler PC v21.6.1 Tue Dec 20 13:45:59 2022

Copyright (c) 2003-2018 Texas Instruments Incorporated
Fuel_Gauge.asm                                                       PAGE    8

     385            ;* --------------------------------------------------------------------------*
     386 000018 930C          TST.W     r12                   ; [] |368| 
     387 00001a 2401          JEQ       $C$L2                 ; [] |368| 
     388                                                      ; [] |368| 
     389            ;* --------------------------------------------------------------------------*
     390 00001c       $C$L1:    
     391 00001c 431B          MOV.W     #1,r11                ; [] |368| 
     392            ;* --------------------------------------------------------------------------*
     393 00001e       $C$L2:    
     394 00001e 0BCC          MOVA      r11,r12               ; [] |368| 
     395                    .dwpsn  file "C:/ti/ccs1110/ccs/tools/compiler/ti-cgt-msp430_21.6.1.LTS/include/_defs.h",line 
     396            $C$DW$31        .dwtag  DW_TAG_TI_branch
     397                    .dwattr $C$DW$31, DW_AT_low_pc(0x00)
     398                    .dwattr $C$DW$31, DW_AT_TI_return
     399            
     400 000020 0110          RETA      ; [] 
     401                    ; [] 
     402                    .dwattr $C$DW$29, DW_AT_TI_end_file("C:/ti/ccs1110/ccs/tools/compiler/ti-cgt-msp430_21.6.1.LTS
     403                    .dwattr $C$DW$29, DW_AT_TI_end_line(0x170)
     404                    .dwattr $C$DW$29, DW_AT_TI_end_column(0x2b)
     405                    .dwendentry
     406                    .dwendtag $C$DW$29
     407            
     408 000000               .sect   ".text:__signbitf"
     409                    .clink
     410                    .global __signbitf
     411            
     412            $C$DW$32        .dwtag  DW_TAG_subprogram
     413                    .dwattr $C$DW$32, DW_AT_name("__signbitf")
     414                    .dwattr $C$DW$32, DW_AT_low_pc(__signbitf)
     415                    .dwattr $C$DW$32, DW_AT_high_pc(0x00)
     416                    .dwattr $C$DW$32, DW_AT_TI_symbol_name("__signbitf")
     417                    .dwattr $C$DW$32, DW_AT_external
     418                    .dwattr $C$DW$32, DW_AT_type(*$C$DW$T$10)
     419                    .dwattr $C$DW$32, DW_AT_TI_begin_file("C:/ti/ccs1110/ccs/tools/compiler/ti-cgt-msp430_21.6.1.L
     420                    .dwattr $C$DW$32, DW_AT_TI_begin_line(0x16d)
     421                    .dwattr $C$DW$32, DW_AT_TI_begin_column(0x25)
     422                    .dwattr $C$DW$32, DW_AT_decl_file("C:/ti/ccs1110/ccs/tools/compiler/ti-cgt-msp430_21.6.1.LTS/i
     423                    .dwattr $C$DW$32, DW_AT_decl_line(0x16d)
     424                    .dwattr $C$DW$32, DW_AT_decl_column(0x25)
     425                    .dwattr $C$DW$32, DW_AT_TI_max_frame_size(0x04)
     426                    .dwpsn  file "C:/ti/ccs1110/ccs/tools/compiler/ti-cgt-msp430_21.6.1.LTS/include/_defs.h",line 
     427            
     428                    .dwfde $C$DW$CIE, __signbitf
     429            $C$DW$33        .dwtag  DW_TAG_formal_parameter
     430                    .dwattr $C$DW$33, DW_AT_name("f")
     431                    .dwattr $C$DW$33, DW_AT_TI_symbol_name("f")
     432                    .dwattr $C$DW$33, DW_AT_type(*$C$DW$T$16)
     433                    .dwattr $C$DW$33, DW_AT_location[DW_OP_reg12 DW_OP_piece 2 DW_OP_reg13 DW_OP_piece 2]
     434            
     435            
     436            ;*****************************************************************************
     437            ;* FUNCTION NAME: __signbitf                                                 *
     438            ;*                                                                           *
     439            ;*   Regs Modified     : SP,SR,r12                                           *
MSP430 Assembler PC v21.6.1 Tue Dec 20 13:45:59 2022

Copyright (c) 2003-2018 Texas Instruments Incorporated
Fuel_Gauge.asm                                                       PAGE    9

     440            ;*   Regs Used         : SP,SR,r12,r13                                       *
     441            ;*   Local Frame Size  : 0 Args + 0 Auto + 0 Save = 0 byte                   *
     442            ;*****************************************************************************
     443 000000       __signbitf:
     444            ;* --------------------------------------------------------------------------*
     445                    .dwcfi  cfa_offset, 4
     446                    .dwcfi  save_reg_to_mem, 16, -4
     447                    .dwpsn  file "C:/ti/ccs1110/ccs/tools/compiler/ti-cgt-msp430_21.6.1.LTS/include/_defs.h",line 
     448 000000 430C          MOV.W     #0,r12                ; [] |366| 
     449 000002 930D          TST.W     r13                   ; [] |366| 
     450 000004 3401          JGE       $C$L3                 ; [] |366| 
     451                                                      ; [] |366| 
     452            ;* --------------------------------------------------------------------------*
     453 000006 431C          MOV.W     #1,r12                ; [] |366| 
     454            ;* --------------------------------------------------------------------------*
     455 000008       $C$L3:    
     456                    .dwpsn  file "C:/ti/ccs1110/ccs/tools/compiler/ti-cgt-msp430_21.6.1.LTS/include/_defs.h",line 
     457            $C$DW$34        .dwtag  DW_TAG_TI_branch
     458                    .dwattr $C$DW$34, DW_AT_low_pc(0x00)
     459                    .dwattr $C$DW$34, DW_AT_TI_return
     460            
     461 000008 0110          RETA      ; [] 
     462                    ; [] 
     463                    .dwattr $C$DW$32, DW_AT_TI_end_file("C:/ti/ccs1110/ccs/tools/compiler/ti-cgt-msp430_21.6.1.LTS
     464                    .dwattr $C$DW$32, DW_AT_TI_end_line(0x16e)
     465                    .dwattr $C$DW$32, DW_AT_TI_end_column(0x29)
     466                    .dwendentry
     467                    .dwendtag $C$DW$32
     468            
     469 000000               .sect   ".text:__signbit"
     470                    .clink
     471                    .global __signbit
     472            
     473            $C$DW$35        .dwtag  DW_TAG_subprogram
     474                    .dwattr $C$DW$35, DW_AT_name("__signbit")
     475                    .dwattr $C$DW$35, DW_AT_low_pc(__signbit)
     476                    .dwattr $C$DW$35, DW_AT_high_pc(0x00)
     477                    .dwattr $C$DW$35, DW_AT_TI_symbol_name("__signbit")
     478                    .dwattr $C$DW$35, DW_AT_external
     479                    .dwattr $C$DW$35, DW_AT_type(*$C$DW$T$10)
     480                    .dwattr $C$DW$35, DW_AT_TI_begin_file("C:/ti/ccs1110/ccs/tools/compiler/ti-cgt-msp430_21.6.1.L
     481                    .dwattr $C$DW$35, DW_AT_TI_begin_line(0x16b)
     482                    .dwattr $C$DW$35, DW_AT_TI_begin_column(0x25)
     483                    .dwattr $C$DW$35, DW_AT_decl_file("C:/ti/ccs1110/ccs/tools/compiler/ti-cgt-msp430_21.6.1.LTS/i
     484                    .dwattr $C$DW$35, DW_AT_decl_line(0x16b)
     485                    .dwattr $C$DW$35, DW_AT_decl_column(0x25)
     486                    .dwattr $C$DW$35, DW_AT_TI_max_frame_size(0x04)
     487                    .dwpsn  file "C:/ti/ccs1110/ccs/tools/compiler/ti-cgt-msp430_21.6.1.LTS/include/_defs.h",line 
     488            
     489                    .dwfde $C$DW$CIE, __signbit
     490            $C$DW$36        .dwtag  DW_TAG_formal_parameter
     491                    .dwattr $C$DW$36, DW_AT_name("d")
     492                    .dwattr $C$DW$36, DW_AT_TI_symbol_name("d")
     493                    .dwattr $C$DW$36, DW_AT_type(*$C$DW$T$17)
     494                    .dwattr $C$DW$36, DW_AT_location[DW_OP_reg12 DW_OP_piece 2 DW_OP_reg13 DW_OP_piece 2 DW_OP_reg
MSP430 Assembler PC v21.6.1 Tue Dec 20 13:45:59 2022

Copyright (c) 2003-2018 Texas Instruments Incorporated
Fuel_Gauge.asm                                                       PAGE   10

     495            
     496            
     497            ;*****************************************************************************
     498            ;* FUNCTION NAME: __signbit                                                  *
     499            ;*                                                                           *
     500            ;*   Regs Modified     : SP,SR,r11,r12,r13,r14,r15                           *
     501            ;*   Regs Used         : SP,SR,r11,r12,r13,r14,r15                           *
     502            ;*   Local Frame Size  : 0 Args + 0 Auto + 0 Save = 0 byte                   *
     503            ;*****************************************************************************
     504 000000       __signbit:
     505            ;* --------------------------------------------------------------------------*
     506                    .dwcfi  cfa_offset, 4
     507                    .dwcfi  save_reg_to_mem, 16, -4
     508                    .dwpsn  file "C:/ti/ccs1110/ccs/tools/compiler/ti-cgt-msp430_21.6.1.LTS/include/_defs.h",line 
     509 000000 430B          MOV.W     #0,r11                ; [] |364| 
     510 000002 F30C          AND.W     #0,r12                ; [] |364| 
     511 000004 F30D          AND.W     #0,r13                ; [] |364| 
     512 000006 F30E          AND.W     #0,r14                ; [] |364| 
     513 000008 F03F          AND.W     #32768,r15            ; [] |364| 
         00000a 8000 
     514 00000c 930F          TST.W     r15                   ; [] |364| 
     515 00000e 2006          JNE       $C$L4                 ; [] |364| 
     516                                                      ; [] |364| 
     517            ;* --------------------------------------------------------------------------*
     518 000010 930E          TST.W     r14                   ; [] |364| 
     519 000012 2004          JNE       $C$L4                 ; [] |364| 
     520                                                      ; [] |364| 
     521            ;* --------------------------------------------------------------------------*
     522 000014 930D          TST.W     r13                   ; [] |364| 
     523 000016 2002          JNE       $C$L4                 ; [] |364| 
     524                                                      ; [] |364| 
     525            ;* --------------------------------------------------------------------------*
     526 000018 930C          TST.W     r12                   ; [] |364| 
     527 00001a 2401          JEQ       $C$L5                 ; [] |364| 
     528                                                      ; [] |364| 
     529            ;* --------------------------------------------------------------------------*
     530 00001c       $C$L4:    
     531 00001c 431B          MOV.W     #1,r11                ; [] |364| 
     532            ;* --------------------------------------------------------------------------*
     533 00001e       $C$L5:    
     534 00001e 0BCC          MOVA      r11,r12               ; [] |364| 
     535                    .dwpsn  file "C:/ti/ccs1110/ccs/tools/compiler/ti-cgt-msp430_21.6.1.LTS/include/_defs.h",line 
     536            $C$DW$37        .dwtag  DW_TAG_TI_branch
     537                    .dwattr $C$DW$37, DW_AT_low_pc(0x00)
     538                    .dwattr $C$DW$37, DW_AT_TI_return
     539            
     540 000020 0110          RETA      ; [] 
     541                    ; [] 
     542                    .dwattr $C$DW$35, DW_AT_TI_end_file("C:/ti/ccs1110/ccs/tools/compiler/ti-cgt-msp430_21.6.1.LTS
     543                    .dwattr $C$DW$35, DW_AT_TI_end_line(0x16c)
     544                    .dwattr $C$DW$35, DW_AT_TI_end_column(0x2a)
     545                    .dwendentry
     546                    .dwendtag $C$DW$35
     547            
     548 000000               .sect   ".text:__isnormall"
MSP430 Assembler PC v21.6.1 Tue Dec 20 13:45:59 2022

Copyright (c) 2003-2018 Texas Instruments Incorporated
Fuel_Gauge.asm                                                       PAGE   11

     549                    .clink
     550                    .global __isnormall
     551            
     552            $C$DW$38        .dwtag  DW_TAG_subprogram
     553                    .dwattr $C$DW$38, DW_AT_name("__isnormall")
     554                    .dwattr $C$DW$38, DW_AT_low_pc(__isnormall)
     555                    .dwattr $C$DW$38, DW_AT_high_pc(0x00)
     556                    .dwattr $C$DW$38, DW_AT_TI_symbol_name("__isnormall")
     557                    .dwattr $C$DW$38, DW_AT_external
     558                    .dwattr $C$DW$38, DW_AT_type(*$C$DW$T$10)
     559                    .dwattr $C$DW$38, DW_AT_TI_begin_file("C:/ti/ccs1110/ccs/tools/compiler/ti-cgt-msp430_21.6.1.L
     560                    .dwattr $C$DW$38, DW_AT_TI_begin_line(0x167)
     561                    .dwattr $C$DW$38, DW_AT_TI_begin_column(0x25)
     562                    .dwattr $C$DW$38, DW_AT_decl_file("C:/ti/ccs1110/ccs/tools/compiler/ti-cgt-msp430_21.6.1.LTS/i
     563                    .dwattr $C$DW$38, DW_AT_decl_line(0x167)
     564                    .dwattr $C$DW$38, DW_AT_decl_column(0x25)
     565                    .dwattr $C$DW$38, DW_AT_TI_max_frame_size(0x18)
     566                    .dwpsn  file "C:/ti/ccs1110/ccs/tools/compiler/ti-cgt-msp430_21.6.1.LTS/include/_defs.h",line 
     567            
     568                    .dwfde $C$DW$CIE, __isnormall
     569            $C$DW$39        .dwtag  DW_TAG_formal_parameter
     570                    .dwattr $C$DW$39, DW_AT_name("e")
     571                    .dwattr $C$DW$39, DW_AT_TI_symbol_name("e")
     572                    .dwattr $C$DW$39, DW_AT_type(*$C$DW$T$18)
     573                    .dwattr $C$DW$39, DW_AT_location[DW_OP_reg12 DW_OP_piece 2 DW_OP_reg13 DW_OP_piece 2 DW_OP_reg
     574            
     575            
     576            ;*****************************************************************************
     577            ;* FUNCTION NAME: __isnormall                                                *
     578            ;*                                                                           *
     579            ;*   Regs Modified     : SP,SR,r6,r7,r8,r9,r10,r11,r12,r13,r14,r15           *
     580            ;*   Regs Used         : SP,SR,r6,r7,r8,r9,r10,r11,r12,r13,r14,r15           *
     581            ;*   Local Frame Size  : 0 Args + 0 Auto + 20 Save = 20 byte                 *
     582            ;*****************************************************************************
     583 000000       __isnormall:
     584            ;* --------------------------------------------------------------------------*
     585                    .dwcfi  cfa_offset, 4
     586                    .dwcfi  save_reg_to_mem, 16, -4
     587 000000 144A          PUSHM.A   #5,r10                ; [] 
     588                    .dwcfi  save_reg_to_mem, 10, -8
     589                    .dwcfi  save_reg_to_mem, 9, -12
     590                    .dwcfi  save_reg_to_mem, 8, -16
     591                    .dwcfi  save_reg_to_mem, 7, -20
     592                    .dwcfi  save_reg_to_mem, 6, -24
     593                    .dwcfi  cfa_offset, 24
     594            ;* r6    assigned to $O$S1
     595            ;* r12   assigned to e
     596            $C$DW$40        .dwtag  DW_TAG_variable
     597                    .dwattr $C$DW$40, DW_AT_name("e")
     598                    .dwattr $C$DW$40, DW_AT_TI_symbol_name("e")
     599                    .dwattr $C$DW$40, DW_AT_type(*$C$DW$T$18)
     600                    .dwattr $C$DW$40, DW_AT_location[DW_OP_reg12 DW_OP_piece 2 DW_OP_reg13 DW_OP_piece 2 DW_OP_reg
     601            
     602 000002 0FC7          MOVA      r15,r7                ; [] |360| 
     603                    .dwpsn  file "C:/ti/ccs1110/ccs/tools/compiler/ti-cgt-msp430_21.6.1.LTS/include/_defs.h",line 
MSP430 Assembler PC v21.6.1 Tue Dec 20 13:45:59 2022

Copyright (c) 2003-2018 Texas Instruments Incorporated
Fuel_Gauge.asm                                                       PAGE   12

     604 000004 4306          MOV.W     #0,r6                 ; [] |360| 
     605 000006 0CC8          MOVA      r12,r8                ; [] |360| 
     606 000008 0DC9          MOVA      r13,r9                ; [] |360| 
     607 00000a 0ECA          MOVA      r14,r10               ; [] |360| 
     608 00000c 07CB          MOVA      r7,r11                ; [] |360| 
     609 00000e 403C          MOV.W     #52,r12               ; [] |360| 
         000010 0034 
     610            $C$DW$41        .dwtag  DW_TAG_TI_branch
     611                    .dwattr $C$DW$41, DW_AT_low_pc(0x00)
     612                    .dwattr $C$DW$41, DW_AT_name("__mspabi_srlll")
     613                    .dwattr $C$DW$41, DW_AT_TI_call
     614            
     615 000012 13B0!         CALLA     #__mspabi_srlll       ; [] |360| 
         000014 0000 
     616                                                      ; [] |360| 
     617 000016 F03C          AND.W     #2047,r12             ; [] |360| 
         000018 07FF 
     618 00001a F30D          AND.W     #0,r13                ; [] |360| 
     619 00001c F30E          AND.W     #0,r14                ; [] |360| 
     620 00001e F30F          AND.W     #0,r15                ; [] |360| 
     621 000020 930F          TST.W     r15                   ; [] |360| 
     622 000022 2006          JNE       $C$L6                 ; [] |360| 
     623                                                      ; [] |360| 
     624            ;* --------------------------------------------------------------------------*
     625 000024 930E          TST.W     r14                   ; [] |360| 
     626 000026 2004          JNE       $C$L6                 ; [] |360| 
     627                                                      ; [] |360| 
     628            ;* --------------------------------------------------------------------------*
     629 000028 930D          TST.W     r13                   ; [] |360| 
     630 00002a 2002          JNE       $C$L6                 ; [] |360| 
     631                                                      ; [] |360| 
     632            ;* --------------------------------------------------------------------------*
     633 00002c 930C          TST.W     r12                   ; [] |360| 
     634 00002e 2406          JEQ       $C$L7                 ; [] |360| 
     635                                                      ; [] |360| 
     636            ;* --------------------------------------------------------------------------*
     637 000030       $C$L6:    
     638 000030 F037          AND.W     #32752,r7             ; [] |360| 
         000032 7FF0 
     639 000034 9037          CMP.W     #32752,r7             ; [] |360| 
         000036 7FF0 
     640 000038 2401          JEQ       $C$L7                 ; [] |360| 
     641                                                      ; [] |360| 
     642            ;* --------------------------------------------------------------------------*
     643 00003a 4316          MOV.W     #1,r6                 ; [] |360| 
     644            ;* --------------------------------------------------------------------------*
     645 00003c       $C$L7:    
     646 00003c 06CC          MOVA      r6,r12                ; [] |360| 
     647                    .dwpsn  file "C:/ti/ccs1110/ccs/tools/compiler/ti-cgt-msp430_21.6.1.LTS/include/_defs.h",line 
     648 00003e 1646          POPM.A    #5,r10                ; [] 
     649                    .dwcfi  restore_reg, 6
     650                    .dwcfi  restore_reg, 7
     651                    .dwcfi  restore_reg, 8
     652                    .dwcfi  restore_reg, 9
     653                    .dwcfi  restore_reg, 10
MSP430 Assembler PC v21.6.1 Tue Dec 20 13:45:59 2022

Copyright (c) 2003-2018 Texas Instruments Incorporated
Fuel_Gauge.asm                                                       PAGE   13

     654                    .dwcfi  cfa_offset, 4
     655            $C$DW$42        .dwtag  DW_TAG_TI_branch
     656                    .dwattr $C$DW$42, DW_AT_low_pc(0x00)
     657                    .dwattr $C$DW$42, DW_AT_TI_return
     658            
     659 000040 0110          RETA      ; [] 
     660                    ; [] 
     661                    .dwattr $C$DW$38, DW_AT_TI_end_file("C:/ti/ccs1110/ccs/tools/compiler/ti-cgt-msp430_21.6.1.LTS
     662                    .dwattr $C$DW$38, DW_AT_TI_end_line(0x169)
     663                    .dwattr $C$DW$38, DW_AT_TI_end_column(0x31)
     664                    .dwendentry
     665                    .dwendtag $C$DW$38
     666            
     667 000000               .sect   ".text:__isnormalf"
     668                    .clink
     669                    .global __isnormalf
     670            
     671            $C$DW$43        .dwtag  DW_TAG_subprogram
     672                    .dwattr $C$DW$43, DW_AT_name("__isnormalf")
     673                    .dwattr $C$DW$43, DW_AT_low_pc(__isnormalf)
     674                    .dwattr $C$DW$43, DW_AT_high_pc(0x00)
     675                    .dwattr $C$DW$43, DW_AT_TI_symbol_name("__isnormalf")
     676                    .dwattr $C$DW$43, DW_AT_external
     677                    .dwattr $C$DW$43, DW_AT_type(*$C$DW$T$10)
     678                    .dwattr $C$DW$43, DW_AT_TI_begin_file("C:/ti/ccs1110/ccs/tools/compiler/ti-cgt-msp430_21.6.1.L
     679                    .dwattr $C$DW$43, DW_AT_TI_begin_line(0x163)
     680                    .dwattr $C$DW$43, DW_AT_TI_begin_column(0x25)
     681                    .dwattr $C$DW$43, DW_AT_decl_file("C:/ti/ccs1110/ccs/tools/compiler/ti-cgt-msp430_21.6.1.LTS/i
     682                    .dwattr $C$DW$43, DW_AT_decl_line(0x163)
     683                    .dwattr $C$DW$43, DW_AT_decl_column(0x25)
     684                    .dwattr $C$DW$43, DW_AT_TI_max_frame_size(0x04)
     685                    .dwpsn  file "C:/ti/ccs1110/ccs/tools/compiler/ti-cgt-msp430_21.6.1.LTS/include/_defs.h",line 
     686            
     687                    .dwfde $C$DW$CIE, __isnormalf
     688            $C$DW$44        .dwtag  DW_TAG_formal_parameter
     689                    .dwattr $C$DW$44, DW_AT_name("f")
     690                    .dwattr $C$DW$44, DW_AT_TI_symbol_name("f")
     691                    .dwattr $C$DW$44, DW_AT_type(*$C$DW$T$16)
     692                    .dwattr $C$DW$44, DW_AT_location[DW_OP_reg12 DW_OP_piece 2 DW_OP_reg13 DW_OP_piece 2]
     693            
     694            
     695            ;*****************************************************************************
     696            ;* FUNCTION NAME: __isnormalf                                                *
     697            ;*                                                                           *
     698            ;*   Regs Modified     : SP,SR,r12,r13,r15                                   *
     699            ;*   Regs Used         : SP,SR,r12,r13,r15                                   *
     700            ;*   Local Frame Size  : 0 Args + 0 Auto + 0 Save = 0 byte                   *
     701            ;*****************************************************************************
     702 000000       __isnormalf:
     703            ;* --------------------------------------------------------------------------*
     704                    .dwcfi  cfa_offset, 4
     705                    .dwcfi  save_reg_to_mem, 16, -4
     706            ;* r12   assigned to $O$S1
     707                    .dwpsn  file "C:/ti/ccs1110/ccs/tools/compiler/ti-cgt-msp430_21.6.1.LTS/include/_defs.h",line 
     708 000000 430C          MOV.W     #0,r12                ; [] |356| 
MSP430 Assembler PC v21.6.1 Tue Dec 20 13:45:59 2022

Copyright (c) 2003-2018 Texas Instruments Incorporated
Fuel_Gauge.asm                                                       PAGE   14

     709 000002 0DCF          MOVA      r13,r15               ; [] |356| 
     710 000004 1946          RPT #7 || RRUX.W r15 ; [] |356| 
         000006 100F 
     711 000008 B03F          BIT.W     #255,r15              ; [] |356| 
         00000a 00FF 
     712 00000c 2406          JEQ       $C$L8                 ; [] |356| 
     713                                                      ; [] |356| 
     714            ;* --------------------------------------------------------------------------*
     715 00000e F03D          AND.W     #32640,r13            ; [] |356| 
         000010 7F80 
     716 000012 903D          CMP.W     #32640,r13            ; [] |356| 
         000014 7F80 
     717 000016 2401          JEQ       $C$L8                 ; [] |356| 
     718                                                      ; [] |356| 
     719            ;* --------------------------------------------------------------------------*
     720 000018 431C          MOV.W     #1,r12                ; [] |356| 
     721            ;* --------------------------------------------------------------------------*
     722 00001a       $C$L8:    
     723                    .dwpsn  file "C:/ti/ccs1110/ccs/tools/compiler/ti-cgt-msp430_21.6.1.LTS/include/_defs.h",line 
     724            $C$DW$45        .dwtag  DW_TAG_TI_branch
     725                    .dwattr $C$DW$45, DW_AT_low_pc(0x00)
     726                    .dwattr $C$DW$45, DW_AT_TI_return
     727            
     728 00001a 0110          RETA      ; [] 
     729                    ; [] 
     730                    .dwattr $C$DW$43, DW_AT_TI_end_file("C:/ti/ccs1110/ccs/tools/compiler/ti-cgt-msp430_21.6.1.LTS
     731                    .dwattr $C$DW$43, DW_AT_TI_end_line(0x165)
     732                    .dwattr $C$DW$43, DW_AT_TI_end_column(0x2f)
     733                    .dwendentry
     734                    .dwendtag $C$DW$43
     735            
     736 000000               .sect   ".text:__isnormal"
     737                    .clink
     738                    .global __isnormal
     739            
     740            $C$DW$46        .dwtag  DW_TAG_subprogram
     741                    .dwattr $C$DW$46, DW_AT_name("__isnormal")
     742                    .dwattr $C$DW$46, DW_AT_low_pc(__isnormal)
     743                    .dwattr $C$DW$46, DW_AT_high_pc(0x00)
     744                    .dwattr $C$DW$46, DW_AT_TI_symbol_name("__isnormal")
     745                    .dwattr $C$DW$46, DW_AT_external
     746                    .dwattr $C$DW$46, DW_AT_type(*$C$DW$T$10)
     747                    .dwattr $C$DW$46, DW_AT_TI_begin_file("C:/ti/ccs1110/ccs/tools/compiler/ti-cgt-msp430_21.6.1.L
     748                    .dwattr $C$DW$46, DW_AT_TI_begin_line(0x15f)
     749                    .dwattr $C$DW$46, DW_AT_TI_begin_column(0x25)
     750                    .dwattr $C$DW$46, DW_AT_decl_file("C:/ti/ccs1110/ccs/tools/compiler/ti-cgt-msp430_21.6.1.LTS/i
     751                    .dwattr $C$DW$46, DW_AT_decl_line(0x15f)
     752                    .dwattr $C$DW$46, DW_AT_decl_column(0x25)
     753                    .dwattr $C$DW$46, DW_AT_TI_max_frame_size(0x18)
     754                    .dwpsn  file "C:/ti/ccs1110/ccs/tools/compiler/ti-cgt-msp430_21.6.1.LTS/include/_defs.h",line 
     755            
     756                    .dwfde $C$DW$CIE, __isnormal
     757            $C$DW$47        .dwtag  DW_TAG_formal_parameter
     758                    .dwattr $C$DW$47, DW_AT_name("d")
     759                    .dwattr $C$DW$47, DW_AT_TI_symbol_name("d")
MSP430 Assembler PC v21.6.1 Tue Dec 20 13:45:59 2022

Copyright (c) 2003-2018 Texas Instruments Incorporated
Fuel_Gauge.asm                                                       PAGE   15

     760                    .dwattr $C$DW$47, DW_AT_type(*$C$DW$T$17)
     761                    .dwattr $C$DW$47, DW_AT_location[DW_OP_reg12 DW_OP_piece 2 DW_OP_reg13 DW_OP_piece 2 DW_OP_reg
     762            
     763            
     764            ;*****************************************************************************
     765            ;* FUNCTION NAME: __isnormal                                                 *
     766            ;*                                                                           *
     767            ;*   Regs Modified     : SP,SR,r6,r7,r8,r9,r10,r11,r12,r13,r14,r15           *
     768            ;*   Regs Used         : SP,SR,r6,r7,r8,r9,r10,r11,r12,r13,r14,r15           *
     769            ;*   Local Frame Size  : 0 Args + 0 Auto + 20 Save = 20 byte                 *
     770            ;*****************************************************************************
     771 000000       __isnormal:
     772            ;* --------------------------------------------------------------------------*
     773                    .dwcfi  cfa_offset, 4
     774                    .dwcfi  save_reg_to_mem, 16, -4
     775 000000 144A          PUSHM.A   #5,r10                ; [] 
     776                    .dwcfi  save_reg_to_mem, 10, -8
     777                    .dwcfi  save_reg_to_mem, 9, -12
     778                    .dwcfi  save_reg_to_mem, 8, -16
     779                    .dwcfi  save_reg_to_mem, 7, -20
     780                    .dwcfi  save_reg_to_mem, 6, -24
     781                    .dwcfi  cfa_offset, 24
     782            ;* r6    assigned to $O$S1
     783            ;* r12   assigned to d
     784            $C$DW$48        .dwtag  DW_TAG_variable
     785                    .dwattr $C$DW$48, DW_AT_name("d")
     786                    .dwattr $C$DW$48, DW_AT_TI_symbol_name("d")
     787                    .dwattr $C$DW$48, DW_AT_type(*$C$DW$T$17)
     788                    .dwattr $C$DW$48, DW_AT_location[DW_OP_reg12 DW_OP_piece 2 DW_OP_reg13 DW_OP_piece 2 DW_OP_reg
     789            
     790 000002 0FC7          MOVA      r15,r7                ; [] |352| 
     791                    .dwpsn  file "C:/ti/ccs1110/ccs/tools/compiler/ti-cgt-msp430_21.6.1.LTS/include/_defs.h",line 
     792 000004 4306          MOV.W     #0,r6                 ; [] |352| 
     793 000006 0CC8          MOVA      r12,r8                ; [] |352| 
     794 000008 0DC9          MOVA      r13,r9                ; [] |352| 
     795 00000a 0ECA          MOVA      r14,r10               ; [] |352| 
     796 00000c 07CB          MOVA      r7,r11                ; [] |352| 
     797 00000e 403C          MOV.W     #52,r12               ; [] |352| 
         000010 0034 
     798            $C$DW$49        .dwtag  DW_TAG_TI_branch
     799                    .dwattr $C$DW$49, DW_AT_low_pc(0x00)
     800                    .dwattr $C$DW$49, DW_AT_name("__mspabi_srlll")
     801                    .dwattr $C$DW$49, DW_AT_TI_call
     802            
     803 000012 13B0!         CALLA     #__mspabi_srlll       ; [] |352| 
         000014 0000 
     804                                                      ; [] |352| 
     805 000016 F03C          AND.W     #2047,r12             ; [] |352| 
         000018 07FF 
     806 00001a F30D          AND.W     #0,r13                ; [] |352| 
     807 00001c F30E          AND.W     #0,r14                ; [] |352| 
     808 00001e F30F          AND.W     #0,r15                ; [] |352| 
     809 000020 930F          TST.W     r15                   ; [] |352| 
     810 000022 2006          JNE       $C$L9                 ; [] |352| 
     811                                                      ; [] |352| 
MSP430 Assembler PC v21.6.1 Tue Dec 20 13:45:59 2022

Copyright (c) 2003-2018 Texas Instruments Incorporated
Fuel_Gauge.asm                                                       PAGE   16

     812            ;* --------------------------------------------------------------------------*
     813 000024 930E          TST.W     r14                   ; [] |352| 
     814 000026 2004          JNE       $C$L9                 ; [] |352| 
     815                                                      ; [] |352| 
     816            ;* --------------------------------------------------------------------------*
     817 000028 930D          TST.W     r13                   ; [] |352| 
     818 00002a 2002          JNE       $C$L9                 ; [] |352| 
     819                                                      ; [] |352| 
     820            ;* --------------------------------------------------------------------------*
     821 00002c 930C          TST.W     r12                   ; [] |352| 
     822 00002e 2406          JEQ       $C$L10                ; [] |352| 
     823                                                      ; [] |352| 
     824            ;* --------------------------------------------------------------------------*
     825 000030       $C$L9:    
     826 000030 F037          AND.W     #32752,r7             ; [] |352| 
         000032 7FF0 
     827 000034 9037          CMP.W     #32752,r7             ; [] |352| 
         000036 7FF0 
     828 000038 2401          JEQ       $C$L10                ; [] |352| 
     829                                                      ; [] |352| 
     830            ;* --------------------------------------------------------------------------*
     831 00003a 4316          MOV.W     #1,r6                 ; [] |352| 
     832            ;* --------------------------------------------------------------------------*
     833 00003c       $C$L10:    
     834 00003c 06CC          MOVA      r6,r12                ; [] |352| 
     835                    .dwpsn  file "C:/ti/ccs1110/ccs/tools/compiler/ti-cgt-msp430_21.6.1.LTS/include/_defs.h",line 
     836 00003e 1646          POPM.A    #5,r10                ; [] 
     837                    .dwcfi  restore_reg, 6
     838                    .dwcfi  restore_reg, 7
     839                    .dwcfi  restore_reg, 8
     840                    .dwcfi  restore_reg, 9
     841                    .dwcfi  restore_reg, 10
     842                    .dwcfi  cfa_offset, 4
     843            $C$DW$50        .dwtag  DW_TAG_TI_branch
     844                    .dwattr $C$DW$50, DW_AT_low_pc(0x00)
     845                    .dwattr $C$DW$50, DW_AT_TI_return
     846            
     847 000040 0110          RETA      ; [] 
     848                    ; [] 
     849                    .dwattr $C$DW$46, DW_AT_TI_end_file("C:/ti/ccs1110/ccs/tools/compiler/ti-cgt-msp430_21.6.1.LTS
     850                    .dwattr $C$DW$46, DW_AT_TI_end_line(0x161)
     851                    .dwattr $C$DW$46, DW_AT_TI_end_column(0x30)
     852                    .dwendentry
     853                    .dwendtag $C$DW$46
     854            
     855 000000               .sect   ".text:__isnanl"
     856                    .clink
     857                    .global __isnanl
     858            
     859            $C$DW$51        .dwtag  DW_TAG_subprogram
     860                    .dwattr $C$DW$51, DW_AT_name("__isnanl")
     861                    .dwattr $C$DW$51, DW_AT_low_pc(__isnanl)
     862                    .dwattr $C$DW$51, DW_AT_high_pc(0x00)
     863                    .dwattr $C$DW$51, DW_AT_TI_symbol_name("__isnanl")
     864                    .dwattr $C$DW$51, DW_AT_external
MSP430 Assembler PC v21.6.1 Tue Dec 20 13:45:59 2022

Copyright (c) 2003-2018 Texas Instruments Incorporated
Fuel_Gauge.asm                                                       PAGE   17

     865                    .dwattr $C$DW$51, DW_AT_type(*$C$DW$T$10)
     866                    .dwattr $C$DW$51, DW_AT_TI_begin_file("C:/ti/ccs1110/ccs/tools/compiler/ti-cgt-msp430_21.6.1.L
     867                    .dwattr $C$DW$51, DW_AT_TI_begin_line(0x15b)
     868                    .dwattr $C$DW$51, DW_AT_TI_begin_column(0x25)
     869                    .dwattr $C$DW$51, DW_AT_decl_file("C:/ti/ccs1110/ccs/tools/compiler/ti-cgt-msp430_21.6.1.LTS/i
     870                    .dwattr $C$DW$51, DW_AT_decl_line(0x15b)
     871                    .dwattr $C$DW$51, DW_AT_decl_column(0x25)
     872                    .dwattr $C$DW$51, DW_AT_TI_max_frame_size(0x08)
     873                    .dwpsn  file "C:/ti/ccs1110/ccs/tools/compiler/ti-cgt-msp430_21.6.1.LTS/include/_defs.h",line 
     874            
     875                    .dwfde $C$DW$CIE, __isnanl
     876            $C$DW$52        .dwtag  DW_TAG_formal_parameter
     877                    .dwattr $C$DW$52, DW_AT_name("e")
     878                    .dwattr $C$DW$52, DW_AT_TI_symbol_name("e")
     879                    .dwattr $C$DW$52, DW_AT_type(*$C$DW$T$18)
     880                    .dwattr $C$DW$52, DW_AT_location[DW_OP_reg12 DW_OP_piece 2 DW_OP_reg13 DW_OP_piece 2 DW_OP_reg
     881            
     882            
     883            ;*****************************************************************************
     884            ;* FUNCTION NAME: __isnanl                                                   *
     885            ;*                                                                           *
     886            ;*   Regs Modified     : SP,SR,r10,r11,r12,r13,r14,r15                       *
     887            ;*   Regs Used         : SP,SR,r10,r11,r12,r13,r14,r15                       *
     888            ;*   Local Frame Size  : 0 Args + 0 Auto + 4 Save = 4 byte                   *
     889            ;*****************************************************************************
     890 000000       __isnanl:
     891            ;* --------------------------------------------------------------------------*
     892                    .dwcfi  cfa_offset, 4
     893                    .dwcfi  save_reg_to_mem, 16, -4
     894 000000 140A          PUSHM.A   #1,r10                ; [] 
     895                    .dwcfi  save_reg_to_mem, 10, -8
     896                    .dwcfi  cfa_offset, 8
     897            ;* r11   assigned to $O$S1
     898                    .dwpsn  file "C:/ti/ccs1110/ccs/tools/compiler/ti-cgt-msp430_21.6.1.LTS/include/_defs.h",line 
     899 000002 430B          MOV.W     #0,r11                ; [] |348| 
     900 000004 0FCA          MOVA      r15,r10               ; [] |348| 
     901 000006 F03A          AND.W     #32752,r10            ; [] |348| 
         000008 7FF0 
     902 00000a 903A          CMP.W     #32752,r10            ; [] |348| 
         00000c 7FF0 
     903 00000e 200E          JNE       $C$L12                ; [] |348| 
     904                                                      ; [] |348| 
     905            ;* --------------------------------------------------------------------------*
     906 000010 F33C          AND.W     #65535,r12            ; [] |348| 
     907 000012 F33D          AND.W     #65535,r13            ; [] |348| 
     908 000014 F33E          AND.W     #65535,r14            ; [] |348| 
     909 000016 F03F          AND.W     #15,r15               ; [] |348| 
         000018 000F 
     910 00001a 930F          TST.W     r15                   ; [] |348| 
     911 00001c 2006          JNE       $C$L11                ; [] |348| 
     912                                                      ; [] |348| 
     913            ;* --------------------------------------------------------------------------*
     914 00001e 930E          TST.W     r14                   ; [] |348| 
     915 000020 2004          JNE       $C$L11                ; [] |348| 
     916                                                      ; [] |348| 
MSP430 Assembler PC v21.6.1 Tue Dec 20 13:45:59 2022

Copyright (c) 2003-2018 Texas Instruments Incorporated
Fuel_Gauge.asm                                                       PAGE   18

     917            ;* --------------------------------------------------------------------------*
     918 000022 930D          TST.W     r13                   ; [] |348| 
     919 000024 2002          JNE       $C$L11                ; [] |348| 
     920                                                      ; [] |348| 
     921            ;* --------------------------------------------------------------------------*
     922 000026 930C          TST.W     r12                   ; [] |348| 
     923 000028 2401          JEQ       $C$L12                ; [] |348| 
     924                                                      ; [] |348| 
     925            ;* --------------------------------------------------------------------------*
     926 00002a       $C$L11:    
     927 00002a 431B          MOV.W     #1,r11                ; [] |348| 
     928            ;* --------------------------------------------------------------------------*
     929 00002c       $C$L12:    
     930 00002c 0BCC          MOVA      r11,r12               ; [] |348| 
     931                    .dwpsn  file "C:/ti/ccs1110/ccs/tools/compiler/ti-cgt-msp430_21.6.1.LTS/include/_defs.h",line 
     932 00002e 160A          POPM.A    #1,r10                ; [] 
     933                    .dwcfi  restore_reg, 10
     934                    .dwcfi  cfa_offset, 4
     935            $C$DW$53        .dwtag  DW_TAG_TI_branch
     936                    .dwattr $C$DW$53, DW_AT_low_pc(0x00)
     937                    .dwattr $C$DW$53, DW_AT_TI_return
     938            
     939 000030 0110          RETA      ; [] 
     940                    ; [] 
     941                    .dwattr $C$DW$51, DW_AT_TI_end_file("C:/ti/ccs1110/ccs/tools/compiler/ti-cgt-msp430_21.6.1.LTS
     942                    .dwattr $C$DW$51, DW_AT_TI_end_line(0x15d)
     943                    .dwattr $C$DW$51, DW_AT_TI_end_column(0x30)
     944                    .dwendentry
     945                    .dwendtag $C$DW$51
     946            
     947 000000               .sect   ".text:__isnanf"
     948                    .clink
     949                    .global __isnanf
     950            
     951            $C$DW$54        .dwtag  DW_TAG_subprogram
     952                    .dwattr $C$DW$54, DW_AT_name("__isnanf")
     953                    .dwattr $C$DW$54, DW_AT_low_pc(__isnanf)
     954                    .dwattr $C$DW$54, DW_AT_high_pc(0x00)
     955                    .dwattr $C$DW$54, DW_AT_TI_symbol_name("__isnanf")
     956                    .dwattr $C$DW$54, DW_AT_external
     957                    .dwattr $C$DW$54, DW_AT_type(*$C$DW$T$10)
     958                    .dwattr $C$DW$54, DW_AT_TI_begin_file("C:/ti/ccs1110/ccs/tools/compiler/ti-cgt-msp430_21.6.1.L
     959                    .dwattr $C$DW$54, DW_AT_TI_begin_line(0x158)
     960                    .dwattr $C$DW$54, DW_AT_TI_begin_column(0x25)
     961                    .dwattr $C$DW$54, DW_AT_decl_file("C:/ti/ccs1110/ccs/tools/compiler/ti-cgt-msp430_21.6.1.LTS/i
     962                    .dwattr $C$DW$54, DW_AT_decl_line(0x158)
     963                    .dwattr $C$DW$54, DW_AT_decl_column(0x25)
     964                    .dwattr $C$DW$54, DW_AT_TI_max_frame_size(0x04)
     965                    .dwpsn  file "C:/ti/ccs1110/ccs/tools/compiler/ti-cgt-msp430_21.6.1.LTS/include/_defs.h",line 
     966            
     967                    .dwfde $C$DW$CIE, __isnanf
     968            $C$DW$55        .dwtag  DW_TAG_formal_parameter
     969                    .dwattr $C$DW$55, DW_AT_name("f")
     970                    .dwattr $C$DW$55, DW_AT_TI_symbol_name("f")
     971                    .dwattr $C$DW$55, DW_AT_type(*$C$DW$T$16)
MSP430 Assembler PC v21.6.1 Tue Dec 20 13:45:59 2022

Copyright (c) 2003-2018 Texas Instruments Incorporated
Fuel_Gauge.asm                                                       PAGE   19

     972                    .dwattr $C$DW$55, DW_AT_location[DW_OP_reg12 DW_OP_piece 2 DW_OP_reg13 DW_OP_piece 2]
     973            
     974            
     975            ;*****************************************************************************
     976            ;* FUNCTION NAME: __isnanf                                                   *
     977            ;*                                                                           *
     978            ;*   Regs Modified     : SP,SR,r12,r13,r14,r15                               *
     979            ;*   Regs Used         : SP,SR,r12,r13,r14,r15                               *
     980            ;*   Local Frame Size  : 0 Args + 0 Auto + 0 Save = 0 byte                   *
     981            ;*****************************************************************************
     982 000000       __isnanf:
     983            ;* --------------------------------------------------------------------------*
     984                    .dwcfi  cfa_offset, 4
     985                    .dwcfi  save_reg_to_mem, 16, -4
     986            ;* r15   assigned to $O$S1
     987                    .dwpsn  file "C:/ti/ccs1110/ccs/tools/compiler/ti-cgt-msp430_21.6.1.LTS/include/_defs.h",line 
     988 000000 430F          MOV.W     #0,r15                ; [] |345| 
     989 000002 0DCE          MOVA      r13,r14               ; [] |345| 
     990 000004 F03E          AND.W     #32640,r14            ; [] |345| 
         000006 7F80 
     991 000008 903E          CMP.W     #32640,r14            ; [] |345| 
         00000a 7F80 
     992 00000c 2008          JNE       $C$L14                ; [] |345| 
     993                                                      ; [] |345| 
     994            ;* --------------------------------------------------------------------------*
     995 00000e F33C          AND.W     #65535,r12            ; [] |345| 
     996 000010 F03D          AND.W     #127,r13              ; [] |345| 
         000012 007F 
     997 000014 930D          TST.W     r13                   ; [] |345| 
     998 000016 2002          JNE       $C$L13                ; [] |345| 
     999                                                      ; [] |345| 
    1000            ;* --------------------------------------------------------------------------*
    1001 000018 930C          TST.W     r12                   ; [] |345| 
    1002 00001a 2401          JEQ       $C$L14                ; [] |345| 
    1003                                                      ; [] |345| 
    1004            ;* --------------------------------------------------------------------------*
    1005 00001c       $C$L13:    
    1006 00001c 431F          MOV.W     #1,r15                ; [] |345| 
    1007            ;* --------------------------------------------------------------------------*
    1008 00001e       $C$L14:    
    1009 00001e 0FCC          MOVA      r15,r12               ; [] |345| 
    1010                    .dwpsn  file "C:/ti/ccs1110/ccs/tools/compiler/ti-cgt-msp430_21.6.1.LTS/include/_defs.h",line 
    1011            $C$DW$56        .dwtag  DW_TAG_TI_branch
    1012                    .dwattr $C$DW$56, DW_AT_low_pc(0x00)
    1013                    .dwattr $C$DW$56, DW_AT_TI_return
    1014            
    1015 000020 0110          RETA      ; [] 
    1016                    ; [] 
    1017                    .dwattr $C$DW$54, DW_AT_TI_end_file("C:/ti/ccs1110/ccs/tools/compiler/ti-cgt-msp430_21.6.1.LTS
    1018                    .dwattr $C$DW$54, DW_AT_TI_end_line(0x15a)
    1019                    .dwattr $C$DW$54, DW_AT_TI_end_column(0x2e)
    1020                    .dwendentry
    1021                    .dwendtag $C$DW$54
    1022            
    1023 000000               .sect   ".text:__isnan"
MSP430 Assembler PC v21.6.1 Tue Dec 20 13:45:59 2022

Copyright (c) 2003-2018 Texas Instruments Incorporated
Fuel_Gauge.asm                                                       PAGE   20

    1024                    .clink
    1025                    .global __isnan
    1026            
    1027            $C$DW$57        .dwtag  DW_TAG_subprogram
    1028                    .dwattr $C$DW$57, DW_AT_name("__isnan")
    1029                    .dwattr $C$DW$57, DW_AT_low_pc(__isnan)
    1030                    .dwattr $C$DW$57, DW_AT_high_pc(0x00)
    1031                    .dwattr $C$DW$57, DW_AT_TI_symbol_name("__isnan")
    1032                    .dwattr $C$DW$57, DW_AT_external
    1033                    .dwattr $C$DW$57, DW_AT_type(*$C$DW$T$10)
    1034                    .dwattr $C$DW$57, DW_AT_TI_begin_file("C:/ti/ccs1110/ccs/tools/compiler/ti-cgt-msp430_21.6.1.L
    1035                    .dwattr $C$DW$57, DW_AT_TI_begin_line(0x155)
    1036                    .dwattr $C$DW$57, DW_AT_TI_begin_column(0x25)
    1037                    .dwattr $C$DW$57, DW_AT_decl_file("C:/ti/ccs1110/ccs/tools/compiler/ti-cgt-msp430_21.6.1.LTS/i
    1038                    .dwattr $C$DW$57, DW_AT_decl_line(0x155)
    1039                    .dwattr $C$DW$57, DW_AT_decl_column(0x25)
    1040                    .dwattr $C$DW$57, DW_AT_TI_max_frame_size(0x08)
    1041                    .dwpsn  file "C:/ti/ccs1110/ccs/tools/compiler/ti-cgt-msp430_21.6.1.LTS/include/_defs.h",line 
    1042            
    1043                    .dwfde $C$DW$CIE, __isnan
    1044            $C$DW$58        .dwtag  DW_TAG_formal_parameter
    1045                    .dwattr $C$DW$58, DW_AT_name("d")
    1046                    .dwattr $C$DW$58, DW_AT_TI_symbol_name("d")
    1047                    .dwattr $C$DW$58, DW_AT_type(*$C$DW$T$17)
    1048                    .dwattr $C$DW$58, DW_AT_location[DW_OP_reg12 DW_OP_piece 2 DW_OP_reg13 DW_OP_piece 2 DW_OP_reg
    1049            
    1050            
    1051            ;*****************************************************************************
    1052            ;* FUNCTION NAME: __isnan                                                    *
    1053            ;*                                                                           *
    1054            ;*   Regs Modified     : SP,SR,r10,r11,r12,r13,r14,r15                       *
    1055            ;*   Regs Used         : SP,SR,r10,r11,r12,r13,r14,r15                       *
    1056            ;*   Local Frame Size  : 0 Args + 0 Auto + 4 Save = 4 byte                   *
    1057            ;*****************************************************************************
    1058 000000       __isnan:
    1059            ;* --------------------------------------------------------------------------*
    1060                    .dwcfi  cfa_offset, 4
    1061                    .dwcfi  save_reg_to_mem, 16, -4
    1062 000000 140A          PUSHM.A   #1,r10                ; [] 
    1063                    .dwcfi  save_reg_to_mem, 10, -8
    1064                    .dwcfi  cfa_offset, 8
    1065            ;* r11   assigned to $O$S1
    1066                    .dwpsn  file "C:/ti/ccs1110/ccs/tools/compiler/ti-cgt-msp430_21.6.1.LTS/include/_defs.h",line 
    1067 000002 430B          MOV.W     #0,r11                ; [] |342| 
    1068 000004 0FCA          MOVA      r15,r10               ; [] |342| 
    1069 000006 F03A          AND.W     #32752,r10            ; [] |342| 
         000008 7FF0 
    1070 00000a 903A          CMP.W     #32752,r10            ; [] |342| 
         00000c 7FF0 
    1071 00000e 200E          JNE       $C$L16                ; [] |342| 
    1072                                                      ; [] |342| 
    1073            ;* --------------------------------------------------------------------------*
    1074 000010 F33C          AND.W     #65535,r12            ; [] |342| 
    1075 000012 F33D          AND.W     #65535,r13            ; [] |342| 
    1076 000014 F33E          AND.W     #65535,r14            ; [] |342| 
MSP430 Assembler PC v21.6.1 Tue Dec 20 13:45:59 2022

Copyright (c) 2003-2018 Texas Instruments Incorporated
Fuel_Gauge.asm                                                       PAGE   21

    1077 000016 F03F          AND.W     #15,r15               ; [] |342| 
         000018 000F 
    1078 00001a 930F          TST.W     r15                   ; [] |342| 
    1079 00001c 2006          JNE       $C$L15                ; [] |342| 
    1080                                                      ; [] |342| 
    1081            ;* --------------------------------------------------------------------------*
    1082 00001e 930E          TST.W     r14                   ; [] |342| 
    1083 000020 2004          JNE       $C$L15                ; [] |342| 
    1084                                                      ; [] |342| 
    1085            ;* --------------------------------------------------------------------------*
    1086 000022 930D          TST.W     r13                   ; [] |342| 
    1087 000024 2002          JNE       $C$L15                ; [] |342| 
    1088                                                      ; [] |342| 
    1089            ;* --------------------------------------------------------------------------*
    1090 000026 930C          TST.W     r12                   ; [] |342| 
    1091 000028 2401          JEQ       $C$L16                ; [] |342| 
    1092                                                      ; [] |342| 
    1093            ;* --------------------------------------------------------------------------*
    1094 00002a       $C$L15:    
    1095 00002a 431B          MOV.W     #1,r11                ; [] |342| 
    1096            ;* --------------------------------------------------------------------------*
    1097 00002c       $C$L16:    
    1098 00002c 0BCC          MOVA      r11,r12               ; [] |342| 
    1099                    .dwpsn  file "C:/ti/ccs1110/ccs/tools/compiler/ti-cgt-msp430_21.6.1.LTS/include/_defs.h",line 
    1100 00002e 160A          POPM.A    #1,r10                ; [] 
    1101                    .dwcfi  restore_reg, 10
    1102                    .dwcfi  cfa_offset, 4
    1103            $C$DW$59        .dwtag  DW_TAG_TI_branch
    1104                    .dwattr $C$DW$59, DW_AT_low_pc(0x00)
    1105                    .dwattr $C$DW$59, DW_AT_TI_return
    1106            
    1107 000030 0110          RETA      ; [] 
    1108                    ; [] 
    1109                    .dwattr $C$DW$57, DW_AT_TI_end_file("C:/ti/ccs1110/ccs/tools/compiler/ti-cgt-msp430_21.6.1.LTS
    1110                    .dwattr $C$DW$57, DW_AT_TI_end_line(0x157)
    1111                    .dwattr $C$DW$57, DW_AT_TI_end_column(0x2f)
    1112                    .dwendentry
    1113                    .dwendtag $C$DW$57
    1114            
    1115 000000               .sect   ".text:__isinfl"
    1116                    .clink
    1117                    .global __isinfl
    1118            
    1119            $C$DW$60        .dwtag  DW_TAG_subprogram
    1120                    .dwattr $C$DW$60, DW_AT_name("__isinfl")
    1121                    .dwattr $C$DW$60, DW_AT_low_pc(__isinfl)
    1122                    .dwattr $C$DW$60, DW_AT_high_pc(0x00)
    1123                    .dwattr $C$DW$60, DW_AT_TI_symbol_name("__isinfl")
    1124                    .dwattr $C$DW$60, DW_AT_external
    1125                    .dwattr $C$DW$60, DW_AT_type(*$C$DW$T$10)
    1126                    .dwattr $C$DW$60, DW_AT_TI_begin_file("C:/ti/ccs1110/ccs/tools/compiler/ti-cgt-msp430_21.6.1.L
    1127                    .dwattr $C$DW$60, DW_AT_TI_begin_line(0x17a)
    1128                    .dwattr $C$DW$60, DW_AT_TI_begin_column(0x25)
    1129                    .dwattr $C$DW$60, DW_AT_decl_file("C:/ti/ccs1110/ccs/tools/compiler/ti-cgt-msp430_21.6.1.LTS/i
    1130                    .dwattr $C$DW$60, DW_AT_decl_line(0x17a)
MSP430 Assembler PC v21.6.1 Tue Dec 20 13:45:59 2022

Copyright (c) 2003-2018 Texas Instruments Incorporated
Fuel_Gauge.asm                                                       PAGE   22

    1131                    .dwattr $C$DW$60, DW_AT_decl_column(0x25)
    1132                    .dwattr $C$DW$60, DW_AT_TI_max_frame_size(0x08)
    1133                    .dwpsn  file "C:/ti/ccs1110/ccs/tools/compiler/ti-cgt-msp430_21.6.1.LTS/include/_defs.h",line 
    1134            
    1135                    .dwfde $C$DW$CIE, __isinfl
    1136            $C$DW$61        .dwtag  DW_TAG_formal_parameter
    1137                    .dwattr $C$DW$61, DW_AT_name("e")
    1138                    .dwattr $C$DW$61, DW_AT_TI_symbol_name("e")
    1139                    .dwattr $C$DW$61, DW_AT_type(*$C$DW$T$18)
    1140                    .dwattr $C$DW$61, DW_AT_location[DW_OP_reg12 DW_OP_piece 2 DW_OP_reg13 DW_OP_piece 2 DW_OP_reg
    1141            
    1142            
    1143            ;*****************************************************************************
    1144            ;* FUNCTION NAME: __isinfl                                                   *
    1145            ;*                                                                           *
    1146            ;*   Regs Modified     : SP,SR,r10,r11,r12,r13,r14,r15                       *
    1147            ;*   Regs Used         : SP,SR,r10,r11,r12,r13,r14,r15                       *
    1148            ;*   Local Frame Size  : 0 Args + 0 Auto + 4 Save = 4 byte                   *
    1149            ;*****************************************************************************
    1150 000000       __isinfl:
    1151            ;* --------------------------------------------------------------------------*
    1152                    .dwcfi  cfa_offset, 4
    1153                    .dwcfi  save_reg_to_mem, 16, -4
    1154 000000 140A          PUSHM.A   #1,r10                ; [] 
    1155                    .dwcfi  save_reg_to_mem, 10, -8
    1156                    .dwcfi  cfa_offset, 8
    1157            ;* r11   assigned to $O$S1
    1158                    .dwpsn  file "C:/ti/ccs1110/ccs/tools/compiler/ti-cgt-msp430_21.6.1.LTS/include/_defs.h",line 
    1159 000002 430B          MOV.W     #0,r11                ; [] |379| 
    1160 000004 0FCA          MOVA      r15,r10               ; [] |379| 
    1161 000006 F03A          AND.W     #32752,r10            ; [] |379| 
         000008 7FF0 
    1162 00000a 903A          CMP.W     #32752,r10            ; [] |379| 
         00000c 7FF0 
    1163 00000e 200E          JNE       $C$L17                ; [] |379| 
    1164                                                      ; [] |379| 
    1165            ;* --------------------------------------------------------------------------*
    1166 000010 F33C          AND.W     #65535,r12            ; [] |379| 
    1167 000012 F33D          AND.W     #65535,r13            ; [] |379| 
    1168 000014 F33E          AND.W     #65535,r14            ; [] |379| 
    1169 000016 F03F          AND.W     #15,r15               ; [] |379| 
         000018 000F 
    1170 00001a 930F          TST.W     r15                   ; [] |379| 
    1171 00001c 2007          JNE       $C$L17                ; [] |379| 
    1172                                                      ; [] |379| 
    1173            ;* --------------------------------------------------------------------------*
    1174 00001e 930E          TST.W     r14                   ; [] |379| 
    1175 000020 2005          JNE       $C$L17                ; [] |379| 
    1176                                                      ; [] |379| 
    1177            ;* --------------------------------------------------------------------------*
    1178 000022 930D          TST.W     r13                   ; [] |379| 
    1179 000024 2003          JNE       $C$L17                ; [] |379| 
    1180                                                      ; [] |379| 
    1181            ;* --------------------------------------------------------------------------*
    1182 000026 930C          TST.W     r12                   ; [] |379| 
MSP430 Assembler PC v21.6.1 Tue Dec 20 13:45:59 2022

Copyright (c) 2003-2018 Texas Instruments Incorporated
Fuel_Gauge.asm                                                       PAGE   23

    1183 000028 2001          JNE       $C$L17                ; [] |379| 
    1184                                                      ; [] |379| 
    1185            ;* --------------------------------------------------------------------------*
    1186 00002a 431B          MOV.W     #1,r11                ; [] |379| 
    1187            ;* --------------------------------------------------------------------------*
    1188 00002c       $C$L17:    
    1189 00002c 0BCC          MOVA      r11,r12               ; [] |379| 
    1190                    .dwpsn  file "C:/ti/ccs1110/ccs/tools/compiler/ti-cgt-msp430_21.6.1.LTS/include/_defs.h",line 
    1191 00002e 160A          POPM.A    #1,r10                ; [] 
    1192                    .dwcfi  restore_reg, 10
    1193                    .dwcfi  cfa_offset, 4
    1194            $C$DW$62        .dwtag  DW_TAG_TI_branch
    1195                    .dwattr $C$DW$62, DW_AT_low_pc(0x00)
    1196                    .dwattr $C$DW$62, DW_AT_TI_return
    1197            
    1198 000030 0110          RETA      ; [] 
    1199                    ; [] 
    1200                    .dwattr $C$DW$60, DW_AT_TI_end_file("C:/ti/ccs1110/ccs/tools/compiler/ti-cgt-msp430_21.6.1.LTS
    1201                    .dwattr $C$DW$60, DW_AT_TI_end_line(0x17b)
    1202                    .dwattr $C$DW$60, DW_AT_TI_end_column(0x4c)
    1203                    .dwendentry
    1204                    .dwendtag $C$DW$60
    1205            
    1206 000000               .sect   ".text:__isinff"
    1207                    .clink
    1208                    .global __isinff
    1209            
    1210            $C$DW$63        .dwtag  DW_TAG_subprogram
    1211                    .dwattr $C$DW$63, DW_AT_name("__isinff")
    1212                    .dwattr $C$DW$63, DW_AT_low_pc(__isinff)
    1213                    .dwattr $C$DW$63, DW_AT_high_pc(0x00)
    1214                    .dwattr $C$DW$63, DW_AT_TI_symbol_name("__isinff")
    1215                    .dwattr $C$DW$63, DW_AT_external
    1216                    .dwattr $C$DW$63, DW_AT_type(*$C$DW$T$10)
    1217                    .dwattr $C$DW$63, DW_AT_TI_begin_file("C:/ti/ccs1110/ccs/tools/compiler/ti-cgt-msp430_21.6.1.L
    1218                    .dwattr $C$DW$63, DW_AT_TI_begin_line(0x176)
    1219                    .dwattr $C$DW$63, DW_AT_TI_begin_column(0x25)
    1220                    .dwattr $C$DW$63, DW_AT_decl_file("C:/ti/ccs1110/ccs/tools/compiler/ti-cgt-msp430_21.6.1.LTS/i
    1221                    .dwattr $C$DW$63, DW_AT_decl_line(0x176)
    1222                    .dwattr $C$DW$63, DW_AT_decl_column(0x25)
    1223                    .dwattr $C$DW$63, DW_AT_TI_max_frame_size(0x04)
    1224                    .dwpsn  file "C:/ti/ccs1110/ccs/tools/compiler/ti-cgt-msp430_21.6.1.LTS/include/_defs.h",line 
    1225            
    1226                    .dwfde $C$DW$CIE, __isinff
    1227            $C$DW$64        .dwtag  DW_TAG_formal_parameter
    1228                    .dwattr $C$DW$64, DW_AT_name("f")
    1229                    .dwattr $C$DW$64, DW_AT_TI_symbol_name("f")
    1230                    .dwattr $C$DW$64, DW_AT_type(*$C$DW$T$16)
    1231                    .dwattr $C$DW$64, DW_AT_location[DW_OP_reg12 DW_OP_piece 2 DW_OP_reg13 DW_OP_piece 2]
    1232            
    1233            
    1234            ;*****************************************************************************
    1235            ;* FUNCTION NAME: __isinff                                                   *
    1236            ;*                                                                           *
    1237            ;*   Regs Modified     : SP,SR,r12,r13,r14,r15                               *
MSP430 Assembler PC v21.6.1 Tue Dec 20 13:45:59 2022

Copyright (c) 2003-2018 Texas Instruments Incorporated
Fuel_Gauge.asm                                                       PAGE   24

    1238            ;*   Regs Used         : SP,SR,r12,r13,r14,r15                               *
    1239            ;*   Local Frame Size  : 0 Args + 0 Auto + 0 Save = 0 byte                   *
    1240            ;*****************************************************************************
    1241 000000       __isinff:
    1242            ;* --------------------------------------------------------------------------*
    1243                    .dwcfi  cfa_offset, 4
    1244                    .dwcfi  save_reg_to_mem, 16, -4
    1245            ;* r15   assigned to $O$S1
    1246                    .dwpsn  file "C:/ti/ccs1110/ccs/tools/compiler/ti-cgt-msp430_21.6.1.LTS/include/_defs.h",line 
    1247 000000 430F          MOV.W     #0,r15                ; [] |375| 
    1248 000002 0DCE          MOVA      r13,r14               ; [] |375| 
    1249 000004 F03E          AND.W     #32640,r14            ; [] |375| 
         000006 7F80 
    1250 000008 903E          CMP.W     #32640,r14            ; [] |375| 
         00000a 7F80 
    1251 00000c 2008          JNE       $C$L18                ; [] |375| 
    1252                                                      ; [] |375| 
    1253            ;* --------------------------------------------------------------------------*
    1254 00000e F33C          AND.W     #65535,r12            ; [] |375| 
    1255 000010 F03D          AND.W     #127,r13              ; [] |375| 
         000012 007F 
    1256 000014 930D          TST.W     r13                   ; [] |375| 
    1257 000016 2003          JNE       $C$L18                ; [] |375| 
    1258                                                      ; [] |375| 
    1259            ;* --------------------------------------------------------------------------*
    1260 000018 930C          TST.W     r12                   ; [] |375| 
    1261 00001a 2001          JNE       $C$L18                ; [] |375| 
    1262                                                      ; [] |375| 
    1263            ;* --------------------------------------------------------------------------*
    1264 00001c 431F          MOV.W     #1,r15                ; [] |375| 
    1265            ;* --------------------------------------------------------------------------*
    1266 00001e       $C$L18:    
    1267 00001e 0FCC          MOVA      r15,r12               ; [] |375| 
    1268                    .dwpsn  file "C:/ti/ccs1110/ccs/tools/compiler/ti-cgt-msp430_21.6.1.LTS/include/_defs.h",line 
    1269            $C$DW$65        .dwtag  DW_TAG_TI_branch
    1270                    .dwattr $C$DW$65, DW_AT_low_pc(0x00)
    1271                    .dwattr $C$DW$65, DW_AT_TI_return
    1272            
    1273 000020 0110          RETA      ; [] 
    1274                    ; [] 
    1275                    .dwattr $C$DW$63, DW_AT_TI_end_file("C:/ti/ccs1110/ccs/tools/compiler/ti-cgt-msp430_21.6.1.LTS
    1276                    .dwattr $C$DW$63, DW_AT_TI_end_line(0x177)
    1277                    .dwattr $C$DW$63, DW_AT_TI_end_column(0x48)
    1278                    .dwendentry
    1279                    .dwendtag $C$DW$63
    1280            
    1281 000000               .sect   ".text:__isinf"
    1282                    .clink
    1283                    .global __isinf
    1284            
    1285            $C$DW$66        .dwtag  DW_TAG_subprogram
    1286                    .dwattr $C$DW$66, DW_AT_name("__isinf")
    1287                    .dwattr $C$DW$66, DW_AT_low_pc(__isinf)
    1288                    .dwattr $C$DW$66, DW_AT_high_pc(0x00)
    1289                    .dwattr $C$DW$66, DW_AT_TI_symbol_name("__isinf")
MSP430 Assembler PC v21.6.1 Tue Dec 20 13:45:59 2022

Copyright (c) 2003-2018 Texas Instruments Incorporated
Fuel_Gauge.asm                                                       PAGE   25

    1290                    .dwattr $C$DW$66, DW_AT_external
    1291                    .dwattr $C$DW$66, DW_AT_type(*$C$DW$T$10)
    1292                    .dwattr $C$DW$66, DW_AT_TI_begin_file("C:/ti/ccs1110/ccs/tools/compiler/ti-cgt-msp430_21.6.1.L
    1293                    .dwattr $C$DW$66, DW_AT_TI_begin_line(0x178)
    1294                    .dwattr $C$DW$66, DW_AT_TI_begin_column(0x25)
    1295                    .dwattr $C$DW$66, DW_AT_decl_file("C:/ti/ccs1110/ccs/tools/compiler/ti-cgt-msp430_21.6.1.LTS/i
    1296                    .dwattr $C$DW$66, DW_AT_decl_line(0x178)
    1297                    .dwattr $C$DW$66, DW_AT_decl_column(0x25)
    1298                    .dwattr $C$DW$66, DW_AT_TI_max_frame_size(0x08)
    1299                    .dwpsn  file "C:/ti/ccs1110/ccs/tools/compiler/ti-cgt-msp430_21.6.1.LTS/include/_defs.h",line 
    1300            
    1301                    .dwfde $C$DW$CIE, __isinf
    1302            $C$DW$67        .dwtag  DW_TAG_formal_parameter
    1303                    .dwattr $C$DW$67, DW_AT_name("d")
    1304                    .dwattr $C$DW$67, DW_AT_TI_symbol_name("d")
    1305                    .dwattr $C$DW$67, DW_AT_type(*$C$DW$T$17)
    1306                    .dwattr $C$DW$67, DW_AT_location[DW_OP_reg12 DW_OP_piece 2 DW_OP_reg13 DW_OP_piece 2 DW_OP_reg
    1307            
    1308            
    1309            ;*****************************************************************************
    1310            ;* FUNCTION NAME: __isinf                                                    *
    1311            ;*                                                                           *
    1312            ;*   Regs Modified     : SP,SR,r10,r11,r12,r13,r14,r15                       *
    1313            ;*   Regs Used         : SP,SR,r10,r11,r12,r13,r14,r15                       *
    1314            ;*   Local Frame Size  : 0 Args + 0 Auto + 4 Save = 4 byte                   *
    1315            ;*****************************************************************************
    1316 000000       __isinf:
    1317            ;* --------------------------------------------------------------------------*
    1318                    .dwcfi  cfa_offset, 4
    1319                    .dwcfi  save_reg_to_mem, 16, -4
    1320 000000 140A          PUSHM.A   #1,r10                ; [] 
    1321                    .dwcfi  save_reg_to_mem, 10, -8
    1322                    .dwcfi  cfa_offset, 8
    1323            ;* r11   assigned to $O$S1
    1324                    .dwpsn  file "C:/ti/ccs1110/ccs/tools/compiler/ti-cgt-msp430_21.6.1.LTS/include/_defs.h",line 
    1325 000002 430B          MOV.W     #0,r11                ; [] |377| 
    1326 000004 0FCA          MOVA      r15,r10               ; [] |377| 
    1327 000006 F03A          AND.W     #32752,r10            ; [] |377| 
         000008 7FF0 
    1328 00000a 903A          CMP.W     #32752,r10            ; [] |377| 
         00000c 7FF0 
    1329 00000e 200E          JNE       $C$L19                ; [] |377| 
    1330                                                      ; [] |377| 
    1331            ;* --------------------------------------------------------------------------*
    1332 000010 F33C          AND.W     #65535,r12            ; [] |377| 
    1333 000012 F33D          AND.W     #65535,r13            ; [] |377| 
    1334 000014 F33E          AND.W     #65535,r14            ; [] |377| 
    1335 000016 F03F          AND.W     #15,r15               ; [] |377| 
         000018 000F 
    1336 00001a 930F          TST.W     r15                   ; [] |377| 
    1337 00001c 2007          JNE       $C$L19                ; [] |377| 
    1338                                                      ; [] |377| 
    1339            ;* --------------------------------------------------------------------------*
    1340 00001e 930E          TST.W     r14                   ; [] |377| 
    1341 000020 2005          JNE       $C$L19                ; [] |377| 
MSP430 Assembler PC v21.6.1 Tue Dec 20 13:45:59 2022

Copyright (c) 2003-2018 Texas Instruments Incorporated
Fuel_Gauge.asm                                                       PAGE   26

    1342                                                      ; [] |377| 
    1343            ;* --------------------------------------------------------------------------*
    1344 000022 930D          TST.W     r13                   ; [] |377| 
    1345 000024 2003          JNE       $C$L19                ; [] |377| 
    1346                                                      ; [] |377| 
    1347            ;* --------------------------------------------------------------------------*
    1348 000026 930C          TST.W     r12                   ; [] |377| 
    1349 000028 2001          JNE       $C$L19                ; [] |377| 
    1350                                                      ; [] |377| 
    1351            ;* --------------------------------------------------------------------------*
    1352 00002a 431B          MOV.W     #1,r11                ; [] |377| 
    1353            ;* --------------------------------------------------------------------------*
    1354 00002c       $C$L19:    
    1355 00002c 0BCC          MOVA      r11,r12               ; [] |377| 
    1356                    .dwpsn  file "C:/ti/ccs1110/ccs/tools/compiler/ti-cgt-msp430_21.6.1.LTS/include/_defs.h",line 
    1357 00002e 160A          POPM.A    #1,r10                ; [] 
    1358                    .dwcfi  restore_reg, 10
    1359                    .dwcfi  cfa_offset, 4
    1360            $C$DW$68        .dwtag  DW_TAG_TI_branch
    1361                    .dwattr $C$DW$68, DW_AT_low_pc(0x00)
    1362                    .dwattr $C$DW$68, DW_AT_TI_return
    1363            
    1364 000030 0110          RETA      ; [] 
    1365                    ; [] 
    1366                    .dwattr $C$DW$66, DW_AT_TI_end_file("C:/ti/ccs1110/ccs/tools/compiler/ti-cgt-msp430_21.6.1.LTS
    1367                    .dwattr $C$DW$66, DW_AT_TI_end_line(0x179)
    1368                    .dwattr $C$DW$66, DW_AT_TI_end_column(0x4a)
    1369                    .dwendentry
    1370                    .dwendtag $C$DW$66
    1371            
    1372 000000               .sect   ".text:__isfinitel"
    1373                    .clink
    1374                    .global __isfinitel
    1375            
    1376            $C$DW$69        .dwtag  DW_TAG_subprogram
    1377                    .dwattr $C$DW$69, DW_AT_name("__isfinitel")
    1378                    .dwattr $C$DW$69, DW_AT_low_pc(__isfinitel)
    1379                    .dwattr $C$DW$69, DW_AT_high_pc(0x00)
    1380                    .dwattr $C$DW$69, DW_AT_TI_symbol_name("__isfinitel")
    1381                    .dwattr $C$DW$69, DW_AT_external
    1382                    .dwattr $C$DW$69, DW_AT_type(*$C$DW$T$10)
    1383                    .dwattr $C$DW$69, DW_AT_TI_begin_file("C:/ti/ccs1110/ccs/tools/compiler/ti-cgt-msp430_21.6.1.L
    1384                    .dwattr $C$DW$69, DW_AT_TI_begin_line(0x152)
    1385                    .dwattr $C$DW$69, DW_AT_TI_begin_column(0x25)
    1386                    .dwattr $C$DW$69, DW_AT_decl_file("C:/ti/ccs1110/ccs/tools/compiler/ti-cgt-msp430_21.6.1.LTS/i
    1387                    .dwattr $C$DW$69, DW_AT_decl_line(0x152)
    1388                    .dwattr $C$DW$69, DW_AT_decl_column(0x25)
    1389                    .dwattr $C$DW$69, DW_AT_TI_max_frame_size(0x04)
    1390                    .dwpsn  file "C:/ti/ccs1110/ccs/tools/compiler/ti-cgt-msp430_21.6.1.LTS/include/_defs.h",line 
    1391            
    1392                    .dwfde $C$DW$CIE, __isfinitel
    1393            $C$DW$70        .dwtag  DW_TAG_formal_parameter
    1394                    .dwattr $C$DW$70, DW_AT_name("e")
    1395                    .dwattr $C$DW$70, DW_AT_TI_symbol_name("e")
    1396                    .dwattr $C$DW$70, DW_AT_type(*$C$DW$T$18)
MSP430 Assembler PC v21.6.1 Tue Dec 20 13:45:59 2022

Copyright (c) 2003-2018 Texas Instruments Incorporated
Fuel_Gauge.asm                                                       PAGE   27

    1397                    .dwattr $C$DW$70, DW_AT_location[DW_OP_reg12 DW_OP_piece 2 DW_OP_reg13 DW_OP_piece 2 DW_OP_reg
    1398            
    1399            
    1400            ;*****************************************************************************
    1401            ;* FUNCTION NAME: __isfinitel                                                *
    1402            ;*                                                                           *
    1403            ;*   Regs Modified     : SP,SR,r12,r15                                       *
    1404            ;*   Regs Used         : SP,SR,r12,r15                                       *
    1405            ;*   Local Frame Size  : 0 Args + 0 Auto + 0 Save = 0 byte                   *
    1406            ;*****************************************************************************
    1407 000000       __isfinitel:
    1408            ;* --------------------------------------------------------------------------*
    1409                    .dwcfi  cfa_offset, 4
    1410                    .dwcfi  save_reg_to_mem, 16, -4
    1411                    .dwpsn  file "C:/ti/ccs1110/ccs/tools/compiler/ti-cgt-msp430_21.6.1.LTS/include/_defs.h",line 
    1412 000000 430C          MOV.W     #0,r12                ; [] |339| 
    1413 000002 F03F          AND.W     #32752,r15            ; [] |339| 
         000004 7FF0 
    1414 000006 903F          CMP.W     #32752,r15            ; [] |339| 
         000008 7FF0 
    1415 00000a 2401          JEQ       $C$L20                ; [] |339| 
    1416                                                      ; [] |339| 
    1417            ;* --------------------------------------------------------------------------*
    1418 00000c 431C          MOV.W     #1,r12                ; [] |339| 
    1419            ;* --------------------------------------------------------------------------*
    1420 00000e       $C$L20:    
    1421                    .dwpsn  file "C:/ti/ccs1110/ccs/tools/compiler/ti-cgt-msp430_21.6.1.LTS/include/_defs.h",line 
    1422            $C$DW$71        .dwtag  DW_TAG_TI_branch
    1423                    .dwattr $C$DW$71, DW_AT_low_pc(0x00)
    1424                    .dwattr $C$DW$71, DW_AT_TI_return
    1425            
    1426 00000e 0110          RETA      ; [] 
    1427                    ; [] 
    1428                    .dwattr $C$DW$69, DW_AT_TI_end_file("C:/ti/ccs1110/ccs/tools/compiler/ti-cgt-msp430_21.6.1.LTS
    1429                    .dwattr $C$DW$69, DW_AT_TI_end_line(0x153)
    1430                    .dwattr $C$DW$69, DW_AT_TI_end_column(0x2f)
    1431                    .dwendentry
    1432                    .dwendtag $C$DW$69
    1433            
    1434 000000               .sect   ".text:__isfinitef"
    1435                    .clink
    1436                    .global __isfinitef
    1437            
    1438            $C$DW$72        .dwtag  DW_TAG_subprogram
    1439                    .dwattr $C$DW$72, DW_AT_name("__isfinitef")
    1440                    .dwattr $C$DW$72, DW_AT_low_pc(__isfinitef)
    1441                    .dwattr $C$DW$72, DW_AT_high_pc(0x00)
    1442                    .dwattr $C$DW$72, DW_AT_TI_symbol_name("__isfinitef")
    1443                    .dwattr $C$DW$72, DW_AT_external
    1444                    .dwattr $C$DW$72, DW_AT_type(*$C$DW$T$10)
    1445                    .dwattr $C$DW$72, DW_AT_TI_begin_file("C:/ti/ccs1110/ccs/tools/compiler/ti-cgt-msp430_21.6.1.L
    1446                    .dwattr $C$DW$72, DW_AT_TI_begin_line(0x150)
    1447                    .dwattr $C$DW$72, DW_AT_TI_begin_column(0x25)
    1448                    .dwattr $C$DW$72, DW_AT_decl_file("C:/ti/ccs1110/ccs/tools/compiler/ti-cgt-msp430_21.6.1.LTS/i
    1449                    .dwattr $C$DW$72, DW_AT_decl_line(0x150)
MSP430 Assembler PC v21.6.1 Tue Dec 20 13:45:59 2022

Copyright (c) 2003-2018 Texas Instruments Incorporated
Fuel_Gauge.asm                                                       PAGE   28

    1450                    .dwattr $C$DW$72, DW_AT_decl_column(0x25)
    1451                    .dwattr $C$DW$72, DW_AT_TI_max_frame_size(0x04)
    1452                    .dwpsn  file "C:/ti/ccs1110/ccs/tools/compiler/ti-cgt-msp430_21.6.1.LTS/include/_defs.h",line 
    1453            
    1454                    .dwfde $C$DW$CIE, __isfinitef
    1455            $C$DW$73        .dwtag  DW_TAG_formal_parameter
    1456                    .dwattr $C$DW$73, DW_AT_name("f")
    1457                    .dwattr $C$DW$73, DW_AT_TI_symbol_name("f")
    1458                    .dwattr $C$DW$73, DW_AT_type(*$C$DW$T$16)
    1459                    .dwattr $C$DW$73, DW_AT_location[DW_OP_reg12 DW_OP_piece 2 DW_OP_reg13 DW_OP_piece 2]
    1460            
    1461            
    1462            ;*****************************************************************************
    1463            ;* FUNCTION NAME: __isfinitef                                                *
    1464            ;*                                                                           *
    1465            ;*   Regs Modified     : SP,SR,r12,r13                                       *
    1466            ;*   Regs Used         : SP,SR,r12,r13                                       *
    1467            ;*   Local Frame Size  : 0 Args + 0 Auto + 0 Save = 0 byte                   *
    1468            ;*****************************************************************************
    1469 000000       __isfinitef:
    1470            ;* --------------------------------------------------------------------------*
    1471                    .dwcfi  cfa_offset, 4
    1472                    .dwcfi  save_reg_to_mem, 16, -4
    1473                    .dwpsn  file "C:/ti/ccs1110/ccs/tools/compiler/ti-cgt-msp430_21.6.1.LTS/include/_defs.h",line 
    1474 000000 430C          MOV.W     #0,r12                ; [] |337| 
    1475 000002 F03D          AND.W     #32640,r13            ; [] |337| 
         000004 7F80 
    1476 000006 903D          CMP.W     #32640,r13            ; [] |337| 
         000008 7F80 
    1477 00000a 2401          JEQ       $C$L21                ; [] |337| 
    1478                                                      ; [] |337| 
    1479            ;* --------------------------------------------------------------------------*
    1480 00000c 431C          MOV.W     #1,r12                ; [] |337| 
    1481            ;* --------------------------------------------------------------------------*
    1482 00000e       $C$L21:    
    1483                    .dwpsn  file "C:/ti/ccs1110/ccs/tools/compiler/ti-cgt-msp430_21.6.1.LTS/include/_defs.h",line 
    1484            $C$DW$74        .dwtag  DW_TAG_TI_branch
    1485                    .dwattr $C$DW$74, DW_AT_low_pc(0x00)
    1486                    .dwattr $C$DW$74, DW_AT_TI_return
    1487            
    1488 00000e 0110          RETA      ; [] 
    1489                    ; [] 
    1490                    .dwattr $C$DW$72, DW_AT_TI_end_file("C:/ti/ccs1110/ccs/tools/compiler/ti-cgt-msp430_21.6.1.LTS
    1491                    .dwattr $C$DW$72, DW_AT_TI_end_line(0x151)
    1492                    .dwattr $C$DW$72, DW_AT_TI_end_column(0x2d)
    1493                    .dwendentry
    1494                    .dwendtag $C$DW$72
    1495            
    1496 000000               .sect   ".text:__isfinite"
    1497                    .clink
    1498                    .global __isfinite
    1499            
    1500            $C$DW$75        .dwtag  DW_TAG_subprogram
    1501                    .dwattr $C$DW$75, DW_AT_name("__isfinite")
    1502                    .dwattr $C$DW$75, DW_AT_low_pc(__isfinite)
MSP430 Assembler PC v21.6.1 Tue Dec 20 13:45:59 2022

Copyright (c) 2003-2018 Texas Instruments Incorporated
Fuel_Gauge.asm                                                       PAGE   29

    1503                    .dwattr $C$DW$75, DW_AT_high_pc(0x00)
    1504                    .dwattr $C$DW$75, DW_AT_TI_symbol_name("__isfinite")
    1505                    .dwattr $C$DW$75, DW_AT_external
    1506                    .dwattr $C$DW$75, DW_AT_type(*$C$DW$T$10)
    1507                    .dwattr $C$DW$75, DW_AT_TI_begin_file("C:/ti/ccs1110/ccs/tools/compiler/ti-cgt-msp430_21.6.1.L
    1508                    .dwattr $C$DW$75, DW_AT_TI_begin_line(0x14e)
    1509                    .dwattr $C$DW$75, DW_AT_TI_begin_column(0x25)
    1510                    .dwattr $C$DW$75, DW_AT_decl_file("C:/ti/ccs1110/ccs/tools/compiler/ti-cgt-msp430_21.6.1.LTS/i
    1511                    .dwattr $C$DW$75, DW_AT_decl_line(0x14e)
    1512                    .dwattr $C$DW$75, DW_AT_decl_column(0x25)
    1513                    .dwattr $C$DW$75, DW_AT_TI_max_frame_size(0x04)
    1514                    .dwpsn  file "C:/ti/ccs1110/ccs/tools/compiler/ti-cgt-msp430_21.6.1.LTS/include/_defs.h",line 
    1515            
    1516                    .dwfde $C$DW$CIE, __isfinite
    1517            $C$DW$76        .dwtag  DW_TAG_formal_parameter
    1518                    .dwattr $C$DW$76, DW_AT_name("d")
    1519                    .dwattr $C$DW$76, DW_AT_TI_symbol_name("d")
    1520                    .dwattr $C$DW$76, DW_AT_type(*$C$DW$T$17)
    1521                    .dwattr $C$DW$76, DW_AT_location[DW_OP_reg12 DW_OP_piece 2 DW_OP_reg13 DW_OP_piece 2 DW_OP_reg
    1522            
    1523            
    1524            ;*****************************************************************************
    1525            ;* FUNCTION NAME: __isfinite                                                 *
    1526            ;*                                                                           *
    1527            ;*   Regs Modified     : SP,SR,r12,r15                                       *
    1528            ;*   Regs Used         : SP,SR,r12,r15                                       *
    1529            ;*   Local Frame Size  : 0 Args + 0 Auto + 0 Save = 0 byte                   *
    1530            ;*****************************************************************************
    1531 000000       __isfinite:
    1532            ;* --------------------------------------------------------------------------*
    1533                    .dwcfi  cfa_offset, 4
    1534                    .dwcfi  save_reg_to_mem, 16, -4
    1535                    .dwpsn  file "C:/ti/ccs1110/ccs/tools/compiler/ti-cgt-msp430_21.6.1.LTS/include/_defs.h",line 
    1536 000000 430C          MOV.W     #0,r12                ; [] |335| 
    1537 000002 F03F          AND.W     #32752,r15            ; [] |335| 
         000004 7FF0 
    1538 000006 903F          CMP.W     #32752,r15            ; [] |335| 
         000008 7FF0 
    1539 00000a 2401          JEQ       $C$L22                ; [] |335| 
    1540                                                      ; [] |335| 
    1541            ;* --------------------------------------------------------------------------*
    1542 00000c 431C          MOV.W     #1,r12                ; [] |335| 
    1543            ;* --------------------------------------------------------------------------*
    1544 00000e       $C$L22:    
    1545                    .dwpsn  file "C:/ti/ccs1110/ccs/tools/compiler/ti-cgt-msp430_21.6.1.LTS/include/_defs.h",line 
    1546            $C$DW$77        .dwtag  DW_TAG_TI_branch
    1547                    .dwattr $C$DW$77, DW_AT_low_pc(0x00)
    1548                    .dwattr $C$DW$77, DW_AT_TI_return
    1549            
    1550 00000e 0110          RETA      ; [] 
    1551                    ; [] 
    1552                    .dwattr $C$DW$75, DW_AT_TI_end_file("C:/ti/ccs1110/ccs/tools/compiler/ti-cgt-msp430_21.6.1.LTS
    1553                    .dwattr $C$DW$75, DW_AT_TI_end_line(0x14f)
    1554                    .dwattr $C$DW$75, DW_AT_TI_end_column(0x2e)
    1555                    .dwendentry
MSP430 Assembler PC v21.6.1 Tue Dec 20 13:45:59 2022

Copyright (c) 2003-2018 Texas Instruments Incorporated
Fuel_Gauge.asm                                                       PAGE   30

    1556                    .dwendtag $C$DW$75
    1557            
    1558 000000               .sect   ".text:__fpclassifyl"
    1559                    .clink
    1560                    .global __fpclassifyl
    1561            
    1562            $C$DW$78        .dwtag  DW_TAG_subprogram
    1563                    .dwattr $C$DW$78, DW_AT_name("__fpclassifyl")
    1564                    .dwattr $C$DW$78, DW_AT_low_pc(__fpclassifyl)
    1565                    .dwattr $C$DW$78, DW_AT_high_pc(0x00)
    1566                    .dwattr $C$DW$78, DW_AT_TI_symbol_name("__fpclassifyl")
    1567                    .dwattr $C$DW$78, DW_AT_external
    1568                    .dwattr $C$DW$78, DW_AT_type(*$C$DW$T$10)
    1569                    .dwattr $C$DW$78, DW_AT_TI_begin_file("C:/ti/ccs1110/ccs/tools/compiler/ti-cgt-msp430_21.6.1.L
    1570                    .dwattr $C$DW$78, DW_AT_TI_begin_line(0x1ae)
    1571                    .dwattr $C$DW$78, DW_AT_TI_begin_column(0x25)
    1572                    .dwattr $C$DW$78, DW_AT_decl_file("C:/ti/ccs1110/ccs/tools/compiler/ti-cgt-msp430_21.6.1.LTS/i
    1573                    .dwattr $C$DW$78, DW_AT_decl_line(0x1ae)
    1574                    .dwattr $C$DW$78, DW_AT_decl_column(0x25)
    1575                    .dwattr $C$DW$78, DW_AT_TI_max_frame_size(0x20)
    1576                    .dwpsn  file "C:/ti/ccs1110/ccs/tools/compiler/ti-cgt-msp430_21.6.1.LTS/include/_defs.h",line 
    1577            
    1578                    .dwfde $C$DW$CIE, __fpclassifyl
    1579            $C$DW$79        .dwtag  DW_TAG_formal_parameter
    1580                    .dwattr $C$DW$79, DW_AT_name("e")
    1581                    .dwattr $C$DW$79, DW_AT_TI_symbol_name("e")
    1582                    .dwattr $C$DW$79, DW_AT_type(*$C$DW$T$18)
    1583                    .dwattr $C$DW$79, DW_AT_location[DW_OP_reg12 DW_OP_piece 2 DW_OP_reg13 DW_OP_piece 2 DW_OP_reg
    1584            
    1585            
    1586            ;*****************************************************************************
    1587            ;* FUNCTION NAME: __fpclassifyl                                              *
    1588            ;*                                                                           *
    1589            ;*   Regs Modified     : SP,SR,r4,r5,r6,r7,r8,r9,r10,r11,r12,r13,r14,r15     *
    1590            ;*   Regs Used         : SP,SR,r4,r5,r6,r7,r8,r9,r10,r11,r12,r13,r14,r15     *
    1591            ;*   Local Frame Size  : 0 Args + 0 Auto + 28 Save = 28 byte                 *
    1592            ;*****************************************************************************
    1593 000000       __fpclassifyl:
    1594            ;* --------------------------------------------------------------------------*
    1595                    .dwcfi  cfa_offset, 4
    1596                    .dwcfi  save_reg_to_mem, 16, -4
    1597 000000 146A          PUSHM.A   #7,r10                ; [] 
    1598                    .dwcfi  save_reg_to_mem, 10, -8
    1599                    .dwcfi  save_reg_to_mem, 9, -12
    1600                    .dwcfi  save_reg_to_mem, 8, -16
    1601                    .dwcfi  save_reg_to_mem, 7, -20
    1602                    .dwcfi  save_reg_to_mem, 6, -24
    1603                    .dwcfi  save_reg_to_mem, 5, -28
    1604                    .dwcfi  save_reg_to_mem, 4, -32
    1605                    .dwcfi  cfa_offset, 32
    1606            ;* r4    assigned to e
    1607            $C$DW$80        .dwtag  DW_TAG_variable
    1608                    .dwattr $C$DW$80, DW_AT_name("e")
    1609                    .dwattr $C$DW$80, DW_AT_TI_symbol_name("e")
    1610                    .dwattr $C$DW$80, DW_AT_type(*$C$DW$T$18)
MSP430 Assembler PC v21.6.1 Tue Dec 20 13:45:59 2022

Copyright (c) 2003-2018 Texas Instruments Incorporated
Fuel_Gauge.asm                                                       PAGE   31

    1611                    .dwattr $C$DW$80, DW_AT_location[DW_OP_reg4 DW_OP_piece 2 DW_OP_reg5 DW_OP_piece 2 DW_OP_reg6 
    1612            
    1613 000002 0CC4          MOVA      r12,r4                ; [] |431| 
    1614 000004 0DC5          MOVA      r13,r5                ; [] |431| 
    1615 000006 0EC6          MOVA      r14,r6                ; [] |431| 
    1616 000008 0FC7          MOVA      r15,r7                ; [] |431| 
    1617                    .dwpsn  file "C:/ti/ccs1110/ccs/tools/compiler/ti-cgt-msp430_21.6.1.LTS/include/_defs.h",line 
    1618 00000a F03F          AND.W     #32752,r15            ; [] |436| 
         00000c 7FF0 
    1619 00000e 903F          CMP.W     #32752,r15            ; [] |436| 
         000010 7FF0 
    1620 000012 2011          JNE       $C$L25                ; [] |436| 
    1621                                                      ; [] |436| 
    1622            ;* --------------------------------------------------------------------------*
    1623 000014 F334          AND.W     #65535,r4             ; [] |436| 
    1624 000016 F335          AND.W     #65535,r5             ; [] |436| 
    1625 000018 F336          AND.W     #65535,r6             ; [] |436| 
    1626 00001a F037          AND.W     #15,r7                ; [] |436| 
         00001c 000F 
    1627 00001e 9307          TST.W     r7                    ; [] |436| 
    1628 000020 2006          JNE       $C$L23                ; [] |436| 
    1629                                                      ; [] |436| 
    1630            ;* --------------------------------------------------------------------------*
    1631 000022 9306          TST.W     r6                    ; [] |436| 
    1632 000024 2004          JNE       $C$L23                ; [] |436| 
    1633                                                      ; [] |436| 
    1634            ;* --------------------------------------------------------------------------*
    1635 000026 9305          TST.W     r5                    ; [] |436| 
    1636 000028 2002          JNE       $C$L23                ; [] |436| 
    1637                                                      ; [] |436| 
    1638            ;* --------------------------------------------------------------------------*
    1639 00002a 9304          TST.W     r4                    ; [] |436| 
    1640 00002c 2402          JEQ       $C$L24                ; [] |436| 
    1641                                                      ; [] |436| 
    1642            ;* --------------------------------------------------------------------------*
    1643 00002e       $C$L23:    
    1644 00002e 432C          MOV.W     #2,r12                ; [] |436| 
    1645 000030 3C2A          JMP       $C$L30                ; [] |436| 
    1646                                                      ; [] |436| 
    1647            ;* --------------------------------------------------------------------------*
    1648 000032       $C$L24:    
    1649 000032 431C          MOV.W     #1,r12                ; [] |436| 
    1650 000034 3C28          JMP       $C$L30                ; [] |436| 
    1651                                                      ; [] |436| 
    1652            ;* --------------------------------------------------------------------------*
    1653 000036       $C$L25:    
    1654 000036 04C8          MOVA      r4,r8                 ; [] |436| 
    1655 000038 05C9          MOVA      r5,r9                 ; [] |436| 
    1656 00003a 06CA          MOVA      r6,r10                ; [] |436| 
    1657 00003c 07CB          MOVA      r7,r11                ; [] |436| 
    1658 00003e 403C          MOV.W     #52,r12               ; [] |436| 
         000040 0034 
    1659            $C$DW$81        .dwtag  DW_TAG_TI_branch
    1660                    .dwattr $C$DW$81, DW_AT_low_pc(0x00)
    1661                    .dwattr $C$DW$81, DW_AT_name("__mspabi_srlll")
MSP430 Assembler PC v21.6.1 Tue Dec 20 13:45:59 2022

Copyright (c) 2003-2018 Texas Instruments Incorporated
Fuel_Gauge.asm                                                       PAGE   32

    1662                    .dwattr $C$DW$81, DW_AT_TI_call
    1663            
    1664 000042 13B0!         CALLA     #__mspabi_srlll       ; [] |436| 
         000044 0000 
    1665                                                      ; [] |436| 
    1666 000046 F03C          AND.W     #2047,r12             ; [] |436| 
         000048 07FF 
    1667 00004a F30D          AND.W     #0,r13                ; [] |436| 
    1668 00004c F30E          AND.W     #0,r14                ; [] |436| 
    1669 00004e F30F          AND.W     #0,r15                ; [] |436| 
    1670 000050 930F          TST.W     r15                   ; [] |436| 
    1671 000052 2006          JNE       $C$L26                ; [] |436| 
    1672                                                      ; [] |436| 
    1673            ;* --------------------------------------------------------------------------*
    1674 000054 930E          TST.W     r14                   ; [] |436| 
    1675 000056 2004          JNE       $C$L26                ; [] |436| 
    1676                                                      ; [] |436| 
    1677            ;* --------------------------------------------------------------------------*
    1678 000058 930D          TST.W     r13                   ; [] |436| 
    1679 00005a 2002          JNE       $C$L26                ; [] |436| 
    1680                                                      ; [] |436| 
    1681            ;* --------------------------------------------------------------------------*
    1682 00005c 930C          TST.W     r12                   ; [] |436| 
    1683 00005e 2402          JEQ       $C$L27                ; [] |436| 
    1684                                                      ; [] |436| 
    1685            ;* --------------------------------------------------------------------------*
    1686 000060       $C$L26:    
    1687 000060 433C          MOV.W     #-1,r12               ; [] |436| 
    1688 000062 3C11          JMP       $C$L30                ; [] |436| 
    1689                                                      ; [] |436| 
    1690            ;* --------------------------------------------------------------------------*
    1691 000064       $C$L27:    
    1692 000064 F334          AND.W     #65535,r4             ; [] |436| 
    1693 000066 F335          AND.W     #65535,r5             ; [] |436| 
    1694 000068 F336          AND.W     #65535,r6             ; [] |436| 
    1695 00006a F037          AND.W     #15,r7                ; [] |436| 
         00006c 000F 
    1696 00006e 9307          TST.W     r7                    ; [] |436| 
    1697 000070 2006          JNE       $C$L28                ; [] |436| 
    1698                                                      ; [] |436| 
    1699            ;* --------------------------------------------------------------------------*
    1700 000072 9306          TST.W     r6                    ; [] |436| 
    1701 000074 2004          JNE       $C$L28                ; [] |436| 
    1702                                                      ; [] |436| 
    1703            ;* --------------------------------------------------------------------------*
    1704 000076 9305          TST.W     r5                    ; [] |436| 
    1705 000078 2002          JNE       $C$L28                ; [] |436| 
    1706                                                      ; [] |436| 
    1707            ;* --------------------------------------------------------------------------*
    1708 00007a 9304          TST.W     r4                    ; [] |436| 
    1709 00007c 2403          JEQ       $C$L29                ; [] |436| 
    1710                                                      ; [] |436| 
    1711            ;* --------------------------------------------------------------------------*
    1712 00007e       $C$L28:    
    1713 00007e 403C          MOV.W     #65534,r12            ; [] |436| 
MSP430 Assembler PC v21.6.1 Tue Dec 20 13:45:59 2022

Copyright (c) 2003-2018 Texas Instruments Incorporated
Fuel_Gauge.asm                                                       PAGE   33

         000080 FFFE 
    1714 000082 3C01          JMP       $C$L30                ; [] |436| 
    1715                                                      ; [] |436| 
    1716            ;* --------------------------------------------------------------------------*
    1717 000084       $C$L29:    
    1718 000084 430C          MOV.W     #0,r12                ; [] |436| 
    1719            ;* --------------------------------------------------------------------------*
    1720 000086       $C$L30:    
    1721                    .dwpsn  file "C:/ti/ccs1110/ccs/tools/compiler/ti-cgt-msp430_21.6.1.LTS/include/_defs.h",line 
    1722 000086 1664          POPM.A    #7,r10                ; [] 
    1723                    .dwcfi  restore_reg, 4
    1724                    .dwcfi  restore_reg, 5
    1725                    .dwcfi  restore_reg, 6
    1726                    .dwcfi  restore_reg, 7
    1727                    .dwcfi  restore_reg, 8
    1728                    .dwcfi  restore_reg, 9
    1729                    .dwcfi  restore_reg, 10
    1730                    .dwcfi  cfa_offset, 4
    1731            $C$DW$82        .dwtag  DW_TAG_TI_branch
    1732                    .dwattr $C$DW$82, DW_AT_low_pc(0x00)
    1733                    .dwattr $C$DW$82, DW_AT_TI_return
    1734            
    1735 000088 0110          RETA      ; [] 
    1736                    ; [] 
    1737                    .dwattr $C$DW$78, DW_AT_TI_end_file("C:/ti/ccs1110/ccs/tools/compiler/ti-cgt-msp430_21.6.1.LTS
    1738                    .dwattr $C$DW$78, DW_AT_TI_end_line(0x1bd)
    1739                    .dwattr $C$DW$78, DW_AT_TI_end_column(0x01)
    1740                    .dwendentry
    1741                    .dwendtag $C$DW$78
    1742            
    1743 000000               .sect   ".text:__fpclassifyf"
    1744                    .clink
    1745                    .global __fpclassifyf
    1746            
    1747            $C$DW$83        .dwtag  DW_TAG_subprogram
    1748                    .dwattr $C$DW$83, DW_AT_name("__fpclassifyf")
    1749                    .dwattr $C$DW$83, DW_AT_low_pc(__fpclassifyf)
    1750                    .dwattr $C$DW$83, DW_AT_high_pc(0x00)
    1751                    .dwattr $C$DW$83, DW_AT_TI_symbol_name("__fpclassifyf")
    1752                    .dwattr $C$DW$83, DW_AT_external
    1753                    .dwattr $C$DW$83, DW_AT_type(*$C$DW$T$10)
    1754                    .dwattr $C$DW$83, DW_AT_TI_begin_file("C:/ti/ccs1110/ccs/tools/compiler/ti-cgt-msp430_21.6.1.L
    1755                    .dwattr $C$DW$83, DW_AT_TI_begin_line(0x18c)
    1756                    .dwattr $C$DW$83, DW_AT_TI_begin_column(0x25)
    1757                    .dwattr $C$DW$83, DW_AT_decl_file("C:/ti/ccs1110/ccs/tools/compiler/ti-cgt-msp430_21.6.1.LTS/i
    1758                    .dwattr $C$DW$83, DW_AT_decl_line(0x18c)
    1759                    .dwattr $C$DW$83, DW_AT_decl_column(0x25)
    1760                    .dwattr $C$DW$83, DW_AT_TI_max_frame_size(0x04)
    1761                    .dwpsn  file "C:/ti/ccs1110/ccs/tools/compiler/ti-cgt-msp430_21.6.1.LTS/include/_defs.h",line 
    1762            
    1763                    .dwfde $C$DW$CIE, __fpclassifyf
    1764            $C$DW$84        .dwtag  DW_TAG_formal_parameter
    1765                    .dwattr $C$DW$84, DW_AT_name("f")
    1766                    .dwattr $C$DW$84, DW_AT_TI_symbol_name("f")
    1767                    .dwattr $C$DW$84, DW_AT_type(*$C$DW$T$16)
MSP430 Assembler PC v21.6.1 Tue Dec 20 13:45:59 2022

Copyright (c) 2003-2018 Texas Instruments Incorporated
Fuel_Gauge.asm                                                       PAGE   34

    1768                    .dwattr $C$DW$84, DW_AT_location[DW_OP_reg12 DW_OP_piece 2 DW_OP_reg13 DW_OP_piece 2]
    1769            
    1770            
    1771            ;*****************************************************************************
    1772            ;* FUNCTION NAME: __fpclassifyf                                              *
    1773            ;*                                                                           *
    1774            ;*   Regs Modified     : SP,SR,r12,r13,r15                                   *
    1775            ;*   Regs Used         : SP,SR,r12,r13,r15                                   *
    1776            ;*   Local Frame Size  : 0 Args + 0 Auto + 0 Save = 0 byte                   *
    1777            ;*****************************************************************************
    1778 000000       __fpclassifyf:
    1779            ;* --------------------------------------------------------------------------*
    1780                    .dwcfi  cfa_offset, 4
    1781                    .dwcfi  save_reg_to_mem, 16, -4
    1782                    .dwpsn  file "C:/ti/ccs1110/ccs/tools/compiler/ti-cgt-msp430_21.6.1.LTS/include/_defs.h",line 
    1783 000000 0DCF          MOVA      r13,r15               ; [] |402| 
    1784 000002 F03F          AND.W     #32640,r15            ; [] |402| 
         000004 7F80 
    1785 000006 903F          CMP.W     #32640,r15            ; [] |402| 
         000008 7F80 
    1786 00000a 200B          JNE       $C$L33                ; [] |402| 
    1787                                                      ; [] |402| 
    1788            ;* --------------------------------------------------------------------------*
    1789 00000c F33C          AND.W     #65535,r12            ; [] |402| 
    1790 00000e F03D          AND.W     #127,r13              ; [] |402| 
         000010 007F 
    1791 000012 930D          TST.W     r13                   ; [] |402| 
    1792 000014 2002          JNE       $C$L31                ; [] |402| 
    1793                                                      ; [] |402| 
    1794            ;* --------------------------------------------------------------------------*
    1795 000016 930C          TST.W     r12                   ; [] |402| 
    1796 000018 2402          JEQ       $C$L32                ; [] |402| 
    1797                                                      ; [] |402| 
    1798            ;* --------------------------------------------------------------------------*
    1799 00001a       $C$L31:    
    1800 00001a 432C          MOV.W     #2,r12                ; [] |402| 
    1801 00001c 3C15          JMP       $C$L37                ; [] |402| 
    1802                                                      ; [] |402| 
    1803            ;* --------------------------------------------------------------------------*
    1804 00001e       $C$L32:    
    1805 00001e 431C          MOV.W     #1,r12                ; [] |402| 
    1806 000020 3C13          JMP       $C$L37                ; [] |402| 
    1807                                                      ; [] |402| 
    1808            ;* --------------------------------------------------------------------------*
    1809 000022       $C$L33:    
    1810 000022 0DCF          MOVA      r13,r15               ; [] |402| 
    1811 000024 1946          RPT #7 || RRUX.W r15 ; [] |402| 
         000026 100F 
    1812 000028 B03F          BIT.W     #255,r15              ; [] |402| 
         00002a 00FF 
    1813 00002c 2402          JEQ       $C$L34                ; [] |402| 
    1814                                                      ; [] |402| 
    1815            ;* --------------------------------------------------------------------------*
    1816 00002e 433C          MOV.W     #-1,r12               ; [] |402| 
    1817 000030 3C0B          JMP       $C$L37                ; [] |402| 
MSP430 Assembler PC v21.6.1 Tue Dec 20 13:45:59 2022

Copyright (c) 2003-2018 Texas Instruments Incorporated
Fuel_Gauge.asm                                                       PAGE   35

    1818                                                      ; [] |402| 
    1819            ;* --------------------------------------------------------------------------*
    1820 000032       $C$L34:    
    1821 000032 F33C          AND.W     #65535,r12            ; [] |402| 
    1822 000034 F03D          AND.W     #127,r13              ; [] |402| 
         000036 007F 
    1823 000038 930D          TST.W     r13                   ; [] |402| 
    1824 00003a 2002          JNE       $C$L35                ; [] |402| 
    1825                                                      ; [] |402| 
    1826            ;* --------------------------------------------------------------------------*
    1827 00003c 930C          TST.W     r12                   ; [] |402| 
    1828 00003e 2403          JEQ       $C$L36                ; [] |402| 
    1829                                                      ; [] |402| 
    1830            ;* --------------------------------------------------------------------------*
    1831 000040       $C$L35:    
    1832 000040 403C          MOV.W     #65534,r12            ; [] |402| 
         000042 FFFE 
    1833 000044 3C01          JMP       $C$L37                ; [] |402| 
    1834                                                      ; [] |402| 
    1835            ;* --------------------------------------------------------------------------*
    1836 000046       $C$L36:    
    1837 000046 430C          MOV.W     #0,r12                ; [] |402| 
    1838            ;* --------------------------------------------------------------------------*
    1839 000048       $C$L37:    
    1840                    .dwpsn  file "C:/ti/ccs1110/ccs/tools/compiler/ti-cgt-msp430_21.6.1.LTS/include/_defs.h",line 
    1841            $C$DW$85        .dwtag  DW_TAG_TI_branch
    1842                    .dwattr $C$DW$85, DW_AT_low_pc(0x00)
    1843                    .dwattr $C$DW$85, DW_AT_TI_return
    1844            
    1845 000048 0110          RETA      ; [] 
    1846                    ; [] 
    1847                    .dwattr $C$DW$83, DW_AT_TI_end_file("C:/ti/ccs1110/ccs/tools/compiler/ti-cgt-msp430_21.6.1.LTS
    1848                    .dwattr $C$DW$83, DW_AT_TI_end_line(0x19b)
    1849                    .dwattr $C$DW$83, DW_AT_TI_end_column(0x01)
    1850                    .dwendentry
    1851                    .dwendtag $C$DW$83
    1852            
    1853 000000               .sect   ".text:__fpclassify"
    1854                    .clink
    1855                    .global __fpclassify
    1856            
    1857            $C$DW$86        .dwtag  DW_TAG_subprogram
    1858                    .dwattr $C$DW$86, DW_AT_name("__fpclassify")
    1859                    .dwattr $C$DW$86, DW_AT_low_pc(__fpclassify)
    1860                    .dwattr $C$DW$86, DW_AT_high_pc(0x00)
    1861                    .dwattr $C$DW$86, DW_AT_TI_symbol_name("__fpclassify")
    1862                    .dwattr $C$DW$86, DW_AT_external
    1863                    .dwattr $C$DW$86, DW_AT_type(*$C$DW$T$10)
    1864                    .dwattr $C$DW$86, DW_AT_TI_begin_file("C:/ti/ccs1110/ccs/tools/compiler/ti-cgt-msp430_21.6.1.L
    1865                    .dwattr $C$DW$86, DW_AT_TI_begin_line(0x19d)
    1866                    .dwattr $C$DW$86, DW_AT_TI_begin_column(0x25)
    1867                    .dwattr $C$DW$86, DW_AT_decl_file("C:/ti/ccs1110/ccs/tools/compiler/ti-cgt-msp430_21.6.1.LTS/i
    1868                    .dwattr $C$DW$86, DW_AT_decl_line(0x19d)
    1869                    .dwattr $C$DW$86, DW_AT_decl_column(0x25)
    1870                    .dwattr $C$DW$86, DW_AT_TI_max_frame_size(0x20)
MSP430 Assembler PC v21.6.1 Tue Dec 20 13:45:59 2022

Copyright (c) 2003-2018 Texas Instruments Incorporated
Fuel_Gauge.asm                                                       PAGE   36

    1871                    .dwpsn  file "C:/ti/ccs1110/ccs/tools/compiler/ti-cgt-msp430_21.6.1.LTS/include/_defs.h",line 
    1872            
    1873                    .dwfde $C$DW$CIE, __fpclassify
    1874            $C$DW$87        .dwtag  DW_TAG_formal_parameter
    1875                    .dwattr $C$DW$87, DW_AT_name("d")
    1876                    .dwattr $C$DW$87, DW_AT_TI_symbol_name("d")
    1877                    .dwattr $C$DW$87, DW_AT_type(*$C$DW$T$17)
    1878                    .dwattr $C$DW$87, DW_AT_location[DW_OP_reg12 DW_OP_piece 2 DW_OP_reg13 DW_OP_piece 2 DW_OP_reg
    1879            
    1880            
    1881            ;*****************************************************************************
    1882            ;* FUNCTION NAME: __fpclassify                                               *
    1883            ;*                                                                           *
    1884            ;*   Regs Modified     : SP,SR,r4,r5,r6,r7,r8,r9,r10,r11,r12,r13,r14,r15     *
    1885            ;*   Regs Used         : SP,SR,r4,r5,r6,r7,r8,r9,r10,r11,r12,r13,r14,r15     *
    1886            ;*   Local Frame Size  : 0 Args + 0 Auto + 28 Save = 28 byte                 *
    1887            ;*****************************************************************************
    1888 000000       __fpclassify:
    1889            ;* --------------------------------------------------------------------------*
    1890                    .dwcfi  cfa_offset, 4
    1891                    .dwcfi  save_reg_to_mem, 16, -4
    1892 000000 146A          PUSHM.A   #7,r10                ; [] 
    1893                    .dwcfi  save_reg_to_mem, 10, -8
    1894                    .dwcfi  save_reg_to_mem, 9, -12
    1895                    .dwcfi  save_reg_to_mem, 8, -16
    1896                    .dwcfi  save_reg_to_mem, 7, -20
    1897                    .dwcfi  save_reg_to_mem, 6, -24
    1898                    .dwcfi  save_reg_to_mem, 5, -28
    1899                    .dwcfi  save_reg_to_mem, 4, -32
    1900                    .dwcfi  cfa_offset, 32
    1901            ;* r4    assigned to d
    1902            $C$DW$88        .dwtag  DW_TAG_variable
    1903                    .dwattr $C$DW$88, DW_AT_name("d")
    1904                    .dwattr $C$DW$88, DW_AT_TI_symbol_name("d")
    1905                    .dwattr $C$DW$88, DW_AT_type(*$C$DW$T$17)
    1906                    .dwattr $C$DW$88, DW_AT_location[DW_OP_reg4 DW_OP_piece 2 DW_OP_reg5 DW_OP_piece 2 DW_OP_reg6 
    1907            
    1908 000002 0CC4          MOVA      r12,r4                ; [] |414| 
    1909 000004 0DC5          MOVA      r13,r5                ; [] |414| 
    1910 000006 0EC6          MOVA      r14,r6                ; [] |414| 
    1911 000008 0FC7          MOVA      r15,r7                ; [] |414| 
    1912                    .dwpsn  file "C:/ti/ccs1110/ccs/tools/compiler/ti-cgt-msp430_21.6.1.LTS/include/_defs.h",line 
    1913 00000a F03F          AND.W     #32752,r15            ; [] |419| 
         00000c 7FF0 
    1914 00000e 903F          CMP.W     #32752,r15            ; [] |419| 
         000010 7FF0 
    1915 000012 2011          JNE       $C$L40                ; [] |419| 
    1916                                                      ; [] |419| 
    1917            ;* --------------------------------------------------------------------------*
    1918 000014 F334          AND.W     #65535,r4             ; [] |419| 
    1919 000016 F335          AND.W     #65535,r5             ; [] |419| 
    1920 000018 F336          AND.W     #65535,r6             ; [] |419| 
    1921 00001a F037          AND.W     #15,r7                ; [] |419| 
         00001c 000F 
    1922 00001e 9307          TST.W     r7                    ; [] |419| 
MSP430 Assembler PC v21.6.1 Tue Dec 20 13:45:59 2022

Copyright (c) 2003-2018 Texas Instruments Incorporated
Fuel_Gauge.asm                                                       PAGE   37

    1923 000020 2006          JNE       $C$L38                ; [] |419| 
    1924                                                      ; [] |419| 
    1925            ;* --------------------------------------------------------------------------*
    1926 000022 9306          TST.W     r6                    ; [] |419| 
    1927 000024 2004          JNE       $C$L38                ; [] |419| 
    1928                                                      ; [] |419| 
    1929            ;* --------------------------------------------------------------------------*
    1930 000026 9305          TST.W     r5                    ; [] |419| 
    1931 000028 2002          JNE       $C$L38                ; [] |419| 
    1932                                                      ; [] |419| 
    1933            ;* --------------------------------------------------------------------------*
    1934 00002a 9304          TST.W     r4                    ; [] |419| 
    1935 00002c 2402          JEQ       $C$L39                ; [] |419| 
    1936                                                      ; [] |419| 
    1937            ;* --------------------------------------------------------------------------*
    1938 00002e       $C$L38:    
    1939 00002e 432C          MOV.W     #2,r12                ; [] |419| 
    1940 000030 3C2A          JMP       $C$L45                ; [] |419| 
    1941                                                      ; [] |419| 
    1942            ;* --------------------------------------------------------------------------*
    1943 000032       $C$L39:    
    1944 000032 431C          MOV.W     #1,r12                ; [] |419| 
    1945 000034 3C28          JMP       $C$L45                ; [] |419| 
    1946                                                      ; [] |419| 
    1947            ;* --------------------------------------------------------------------------*
    1948 000036       $C$L40:    
    1949 000036 04C8          MOVA      r4,r8                 ; [] |419| 
    1950 000038 05C9          MOVA      r5,r9                 ; [] |419| 
    1951 00003a 06CA          MOVA      r6,r10                ; [] |419| 
    1952 00003c 07CB          MOVA      r7,r11                ; [] |419| 
    1953 00003e 403C          MOV.W     #52,r12               ; [] |419| 
         000040 0034 
    1954            $C$DW$89        .dwtag  DW_TAG_TI_branch
    1955                    .dwattr $C$DW$89, DW_AT_low_pc(0x00)
    1956                    .dwattr $C$DW$89, DW_AT_name("__mspabi_srlll")
    1957                    .dwattr $C$DW$89, DW_AT_TI_call
    1958            
    1959 000042 13B0!         CALLA     #__mspabi_srlll       ; [] |419| 
         000044 0000 
    1960                                                      ; [] |419| 
    1961 000046 F03C          AND.W     #2047,r12             ; [] |419| 
         000048 07FF 
    1962 00004a F30D          AND.W     #0,r13                ; [] |419| 
    1963 00004c F30E          AND.W     #0,r14                ; [] |419| 
    1964 00004e F30F          AND.W     #0,r15                ; [] |419| 
    1965 000050 930F          TST.W     r15                   ; [] |419| 
    1966 000052 2006          JNE       $C$L41                ; [] |419| 
    1967                                                      ; [] |419| 
    1968            ;* --------------------------------------------------------------------------*
    1969 000054 930E          TST.W     r14                   ; [] |419| 
    1970 000056 2004          JNE       $C$L41                ; [] |419| 
    1971                                                      ; [] |419| 
    1972            ;* --------------------------------------------------------------------------*
    1973 000058 930D          TST.W     r13                   ; [] |419| 
    1974 00005a 2002          JNE       $C$L41                ; [] |419| 
MSP430 Assembler PC v21.6.1 Tue Dec 20 13:45:59 2022

Copyright (c) 2003-2018 Texas Instruments Incorporated
Fuel_Gauge.asm                                                       PAGE   38

    1975                                                      ; [] |419| 
    1976            ;* --------------------------------------------------------------------------*
    1977 00005c 930C          TST.W     r12                   ; [] |419| 
    1978 00005e 2402          JEQ       $C$L42                ; [] |419| 
    1979                                                      ; [] |419| 
    1980            ;* --------------------------------------------------------------------------*
    1981 000060       $C$L41:    
    1982 000060 433C          MOV.W     #-1,r12               ; [] |419| 
    1983 000062 3C11          JMP       $C$L45                ; [] |419| 
    1984                                                      ; [] |419| 
    1985            ;* --------------------------------------------------------------------------*
    1986 000064       $C$L42:    
    1987 000064 F334          AND.W     #65535,r4             ; [] |419| 
    1988 000066 F335          AND.W     #65535,r5             ; [] |419| 
    1989 000068 F336          AND.W     #65535,r6             ; [] |419| 
    1990 00006a F037          AND.W     #15,r7                ; [] |419| 
         00006c 000F 
    1991 00006e 9307          TST.W     r7                    ; [] |419| 
    1992 000070 2006          JNE       $C$L43                ; [] |419| 
    1993                                                      ; [] |419| 
    1994            ;* --------------------------------------------------------------------------*
    1995 000072 9306          TST.W     r6                    ; [] |419| 
    1996 000074 2004          JNE       $C$L43                ; [] |419| 
    1997                                                      ; [] |419| 
    1998            ;* --------------------------------------------------------------------------*
    1999 000076 9305          TST.W     r5                    ; [] |419| 
    2000 000078 2002          JNE       $C$L43                ; [] |419| 
    2001                                                      ; [] |419| 
    2002            ;* --------------------------------------------------------------------------*
    2003 00007a 9304          TST.W     r4                    ; [] |419| 
    2004 00007c 2403          JEQ       $C$L44                ; [] |419| 
    2005                                                      ; [] |419| 
    2006            ;* --------------------------------------------------------------------------*
    2007 00007e       $C$L43:    
    2008 00007e 403C          MOV.W     #65534,r12            ; [] |419| 
         000080 FFFE 
    2009 000082 3C01          JMP       $C$L45                ; [] |419| 
    2010                                                      ; [] |419| 
    2011            ;* --------------------------------------------------------------------------*
    2012 000084       $C$L44:    
    2013 000084 430C          MOV.W     #0,r12                ; [] |419| 
    2014            ;* --------------------------------------------------------------------------*
    2015 000086       $C$L45:    
    2016                    .dwpsn  file "C:/ti/ccs1110/ccs/tools/compiler/ti-cgt-msp430_21.6.1.LTS/include/_defs.h",line 
    2017 000086 1664          POPM.A    #7,r10                ; [] 
    2018                    .dwcfi  restore_reg, 4
    2019                    .dwcfi  restore_reg, 5
    2020                    .dwcfi  restore_reg, 6
    2021                    .dwcfi  restore_reg, 7
    2022                    .dwcfi  restore_reg, 8
    2023                    .dwcfi  restore_reg, 9
    2024                    .dwcfi  restore_reg, 10
    2025                    .dwcfi  cfa_offset, 4
    2026            $C$DW$90        .dwtag  DW_TAG_TI_branch
    2027                    .dwattr $C$DW$90, DW_AT_low_pc(0x00)
MSP430 Assembler PC v21.6.1 Tue Dec 20 13:45:59 2022

Copyright (c) 2003-2018 Texas Instruments Incorporated
Fuel_Gauge.asm                                                       PAGE   39

    2028                    .dwattr $C$DW$90, DW_AT_TI_return
    2029            
    2030 000088 0110          RETA      ; [] 
    2031                    ; [] 
    2032                    .dwattr $C$DW$86, DW_AT_TI_end_file("C:/ti/ccs1110/ccs/tools/compiler/ti-cgt-msp430_21.6.1.LTS
    2033                    .dwattr $C$DW$86, DW_AT_TI_end_line(0x1ac)
    2034                    .dwattr $C$DW$86, DW_AT_TI_end_column(0x01)
    2035                    .dwendentry
    2036                    .dwendtag $C$DW$86
    2037            
    2038 000000               .sect   ".text:Fuel_Gauge"
    2039                    .clink
    2040                    .global Fuel_Gauge
    2041            
    2042            $C$DW$91        .dwtag  DW_TAG_subprogram
    2043                    .dwattr $C$DW$91, DW_AT_name("Fuel_Gauge")
    2044                    .dwattr $C$DW$91, DW_AT_low_pc(Fuel_Gauge)
    2045                    .dwattr $C$DW$91, DW_AT_high_pc(0x00)
    2046                    .dwattr $C$DW$91, DW_AT_TI_symbol_name("Fuel_Gauge")
    2047                    .dwattr $C$DW$91, DW_AT_external
    2048                    .dwattr $C$DW$91, DW_AT_TI_begin_file("../src/Fuel_Gauge.c")
    2049                    .dwattr $C$DW$91, DW_AT_TI_begin_line(0x60)
    2050                    .dwattr $C$DW$91, DW_AT_TI_begin_column(0x06)
    2051                    .dwattr $C$DW$91, DW_AT_decl_file("../src/Fuel_Gauge.c")
    2052                    .dwattr $C$DW$91, DW_AT_decl_line(0x60)
    2053                    .dwattr $C$DW$91, DW_AT_decl_column(0x06)
    2054                    .dwattr $C$DW$91, DW_AT_TI_max_frame_size(0x10)
    2055                    .dwpsn  file "../src/Fuel_Gauge.c",line 97,column 1,is_stmt,address Fuel_Gauge,isa 0
    2056            
    2057                    .dwfde $C$DW$CIE, Fuel_Gauge
    2058            
    2059            ;*****************************************************************************
    2060            ;* FUNCTION NAME: Fuel_Gauge                                                 *
    2061            ;*                                                                           *
    2062            ;*   Regs Modified     : SP,SR,r8,r9,r10,r11,r12,r13,r14,r15                 *
    2063            ;*   Regs Used         : SP,SR,r8,r9,r10,r11,r12,r13,r14,r15                 *
    2064            ;*   Local Frame Size  : 0 Args + 0 Auto + 12 Save = 12 byte                 *
    2065            ;*****************************************************************************
    2066 000000       Fuel_Gauge:
    2067            ;* --------------------------------------------------------------------------*
    2068                    .dwcfi  cfa_offset, 4
    2069                    .dwcfi  save_reg_to_mem, 16, -4
    2070 000000 142A          PUSHM.A   #3,r10                ; [] 
    2071                    .dwcfi  save_reg_to_mem, 10, -8
    2072                    .dwcfi  save_reg_to_mem, 9, -12
    2073                    .dwcfi  save_reg_to_mem, 8, -16
    2074                    .dwcfi  cfa_offset, 16
    2075                    .dwpsn  file "../src/Fuel_Gauge.c",line 99,column 4,is_stmt,isa 0
    2076 000002 90B2          CMP.W     #5,&mode+0            ; [] |99| 
         000004 0005 
         000006 0000!
    2077 000008 2002          JEQ       $C$L80                ; [] |99| 
         00000a 0080!
         00000c 0000 
    2078                                                      ; [] |99| 
MSP430 Assembler PC v21.6.1 Tue Dec 20 13:45:59 2022

Copyright (c) 2003-2018 Texas Instruments Incorporated
Fuel_Gauge.asm                                                       PAGE   40

    2079            ;* --------------------------------------------------------------------------*
    2080                    .dwpsn  file "../src/Fuel_Gauge.c",line 101,column 8,is_stmt,isa 0
    2081 00000e 421C          MOV.W     &v1+0,r12             ; [] |101| 
         000010 0000!
    2082 000012 421D          MOV.W     &v1+2,r13             ; [] |101| 
         000014 0002!
    2083 000016 421E          MOV.W     &main_fuel_flow+0,r14 ; [] |101| 
         000018 0000!
    2084 00001a 421F          MOV.W     &main_fuel_flow+2,r15 ; [] |101| 
         00001c 0002!
    2085            $C$DW$92        .dwtag  DW_TAG_TI_branch
    2086                    .dwattr $C$DW$92, DW_AT_low_pc(0x00)
    2087                    .dwattr $C$DW$92, DW_AT_name("__mspabi_addf")
    2088                    .dwattr $C$DW$92, DW_AT_TI_call
    2089            
    2090 00001e 13B0!         CALLA     #__mspabi_addf        ; [] |101| 
         000020 0000 
    2091                                                      ; [] |101| 
    2092 000022 4C82          MOV.W     r12,&v1+0             ; [] |101| 
         000024 0000!
    2093 000026 4D82          MOV.W     r13,&v1+2             ; [] |101| 
         000028 0002!
    2094                    .dwpsn  file "../src/Fuel_Gauge.c",line 102,column 8,is_stmt,isa 0
    2095 00002a 430C          MOV.W     #0,r12                ; [] |102| 
    2096 00002c 403D          MOV.W     #16544,r13            ; [] |102| 
         00002e 40A0 
    2097 000030 421E          MOV.W     &FC_Burner_Methanol_flow+0,r14 ; [] |102| 
         000032 0000!
    2098 000034 421F          MOV.W     &FC_Burner_Methanol_flow+2,r15 ; [] |102| 
         000036 0002!
    2099            $C$DW$93        .dwtag  DW_TAG_TI_branch
    2100                    .dwattr $C$DW$93, DW_AT_low_pc(0x00)
    2101                    .dwattr $C$DW$93, DW_AT_name("__mspabi_cmpf")
    2102                    .dwattr $C$DW$93, DW_AT_TI_call
    2103            
    2104 000038 13B0!         CALLA     #__mspabi_cmpf        ; [] |102| 
         00003a 0000 
    2105                                                      ; [] |102| 
    2106 00003c 930C          TST.W     r12                   ; [] |102| 
    2107 00003e 340E          JGE       $C$L46                ; [] |102| 
    2108                                                      ; [] |102| 
    2109            ;* --------------------------------------------------------------------------*
    2110                    .dwpsn  file "../src/Fuel_Gauge.c",line 102,column 38,is_stmt,isa 0
    2111 000040 421C          MOV.W     &v1+0,r12             ; [] |102| 
         000042 0000!
    2112 000044 421D          MOV.W     &v1+2,r13             ; [] |102| 
         000046 0002!
    2113 000048 421E          MOV.W     &FC_Burner_Methanol_flow+0,r14 ; [] |102| 
         00004a 0000!
    2114 00004c 421F          MOV.W     &FC_Burner_Methanol_flow+2,r15 ; [] |102| 
         00004e 0002!
    2115            $C$DW$94        .dwtag  DW_TAG_TI_branch
    2116                    .dwattr $C$DW$94, DW_AT_low_pc(0x00)
    2117                    .dwattr $C$DW$94, DW_AT_name("__mspabi_addf")
    2118                    .dwattr $C$DW$94, DW_AT_TI_call
MSP430 Assembler PC v21.6.1 Tue Dec 20 13:45:59 2022

Copyright (c) 2003-2018 Texas Instruments Incorporated
Fuel_Gauge.asm                                                       PAGE   41

    2119            
    2120 000050 13B0!         CALLA     #__mspabi_addf        ; [] |102| 
         000052 0000 
    2121                                                      ; [] |102| 
    2122 000054 4C82          MOV.W     r12,&v1+0             ; [] |102| 
         000056 0000!
    2123 000058 4D82          MOV.W     r13,&v1+2             ; [] |102| 
         00005a 0002!
    2124            ;* --------------------------------------------------------------------------*
    2125 00005c       $C$L46:    
    2126                    .dwpsn  file "../src/Fuel_Gauge.c",line 103,column 8,is_stmt,isa 0
    2127 00005c 5392          ADD.W     #1,&count_v2+0        ; [] |103| 
         00005e 0000!
    2128 000060 90B2          CMP.W     #100,&count_v2+0      ; [] |103| 
         000062 0064 
         000064 0000!
    2129 000066 2026          JNE       $C$L47                ; [] |103| 
    2130                                                      ; [] |103| 
    2131            ;* --------------------------------------------------------------------------*
    2132                    .dwpsn  file "../src/Fuel_Gauge.c",line 104,column 28,is_stmt,isa 0
    2133 000068 421C          MOV.W     &v1+0,r12             ; [] |104| 
         00006a 0000!
    2134 00006c 421D          MOV.W     &v1+2,r13             ; [] |104| 
         00006e 0002!
    2135            $C$DW$95        .dwtag  DW_TAG_TI_branch
    2136                    .dwattr $C$DW$95, DW_AT_low_pc(0x00)
    2137                    .dwattr $C$DW$95, DW_AT_name("__mspabi_cvtfd")
    2138                    .dwattr $C$DW$95, DW_AT_TI_call
    2139            
    2140 000070 13B0!         CALLA     #__mspabi_cvtfd       ; [] |104| 
         000072 0000 
    2141                                                      ; [] |104| 
    2142 000074 0CC8          MOVA      r12,r8                ; [] |104| 
    2143 000076 0DC9          MOVA      r13,r9                ; [] |104| 
    2144 000078 0ECA          MOVA      r14,r10               ; [] |104| 
    2145 00007a 0FCB          MOVA      r15,r11               ; [] |104| 
    2146 00007c 430C          MOV.W     #0,r12                ; [] |104| 
    2147 00007e 430D          MOV.W     #0,r13                ; [] |104| 
    2148 000080 430E          MOV.W     #0,r14                ; [] |104| 
    2149 000082 403F          MOV.W     #16352,r15            ; [] |104| 
         000084 3FE0 
    2150            $C$DW$96        .dwtag  DW_TAG_TI_branch
    2151                    .dwattr $C$DW$96, DW_AT_low_pc(0x00)
    2152                    .dwattr $C$DW$96, DW_AT_name("__mspabi_addd")
    2153                    .dwattr $C$DW$96, DW_AT_TI_call
    2154            
    2155 000086 13B0!         CALLA     #__mspabi_addd        ; [] |104| 
         000088 0000 
    2156                                                      ; [] |104| 
    2157 00008a 0CC8          MOVA      r12,r8                ; [] |104| 
    2158 00008c 0DC9          MOVA      r13,r9                ; [] |104| 
    2159 00008e 0ECA          MOVA      r14,r10               ; [] |104| 
    2160 000090 0FCB          MOVA      r15,r11               ; [] |104| 
    2161 000092 430C          MOV.W     #0,r12                ; [] |104| 
    2162 000094 430D          MOV.W     #0,r13                ; [] |104| 
MSP430 Assembler PC v21.6.1 Tue Dec 20 13:45:59 2022

Copyright (c) 2003-2018 Texas Instruments Incorporated
Fuel_Gauge.asm                                                       PAGE   42

    2163 000096 430E          MOV.W     #0,r14                ; [] |104| 
    2164 000098 403F          MOV.W     #16450,r15            ; [] |104| 
         00009a 4042 
    2165            $C$DW$97        .dwtag  DW_TAG_TI_branch
    2166                    .dwattr $C$DW$97, DW_AT_low_pc(0x00)
    2167                    .dwattr $C$DW$97, DW_AT_name("__mspabi_divd")
    2168                    .dwattr $C$DW$97, DW_AT_TI_call
    2169            
    2170 00009c 13B0!         CALLA     #__mspabi_divd        ; [] |104| 
         00009e 0000 
    2171                                                      ; [] |104| 
    2172            $C$DW$98        .dwtag  DW_TAG_TI_branch
    2173                    .dwattr $C$DW$98, DW_AT_low_pc(0x00)
    2174                    .dwattr $C$DW$98, DW_AT_name("__mspabi_fixdu")
    2175                    .dwattr $C$DW$98, DW_AT_TI_call
    2176            
    2177 0000a0 13B0!         CALLA     #__mspabi_fixdu       ; [] |104| 
         0000a2 0000 
    2178                                                      ; [] |104| 
    2179 0000a4 5C82          ADD.W     r12,&v2+0             ; [] |104| 
         0000a6 0000!
    2180                    .dwpsn  file "../src/Fuel_Gauge.c",line 104,column 62,is_stmt,isa 0
    2181 0000a8 4382          MOV.W     #0,&v1+0              ; [] |104| 
         0000aa 0000!
    2182 0000ac 4382          MOV.W     #0,&v1+2              ; [] |104| 
         0000ae 0002!
    2183                    .dwpsn  file "../src/Fuel_Gauge.c",line 104,column 69,is_stmt,isa 0
    2184 0000b0 4382          MOV.W     #0,&count_v2+0        ; [] |104| 
         0000b2 0000!
    2185            ;* --------------------------------------------------------------------------*
    2186 0000b4       $C$L47:    
    2187                    .dwpsn  file "../src/Fuel_Gauge.c",line 106,column 9,is_stmt,isa 0
    2188 0000b4 93D2          CMP.B     #1,&datarev+0         ; [] |106| 
         0000b6 0000!
    2189 0000b8 2009          JNE       $C$L48                ; [] |106| 
    2190                                                      ; [] |106| 
    2191            ;* --------------------------------------------------------------------------*
    2192 0000ba 90B2          CMP.W     #50001,&v2+0          ; [] |106| 
         0000bc C351 
         0000be 0000!
    2193 0000c0 2805          JLO       $C$L48                ; [] |106| 
    2194                                                      ; [] |106| 
    2195            ;* --------------------------------------------------------------------------*
    2196                    .dwpsn  file "../src/Fuel_Gauge.c",line 110,column 11,is_stmt,isa 0
    2197 0000c2 50B2          ADD.W     #15536,&v2+0          ; [] |110| 
         0000c4 3CB0 
         0000c6 0000!
    2198                    .dwpsn  file "../src/Fuel_Gauge.c",line 111,column 11,is_stmt,isa 0
    2199 0000c8 43D2          MOV.B     #1,&fuel_gauge_decrement+0 ; [] |111| 
         0000ca 0000!
    2200            ;* --------------------------------------------------------------------------*
    2201 0000cc       $C$L48:    
    2202                    .dwpsn  file "../src/Fuel_Gauge.c",line 114,column 9,is_stmt,isa 0
    2203 0000cc 93E2          CMP.B     #2,&datarev+0         ; [] |114| 
         0000ce 0000!
MSP430 Assembler PC v21.6.1 Tue Dec 20 13:45:59 2022

Copyright (c) 2003-2018 Texas Instruments Incorporated
Fuel_Gauge.asm                                                       PAGE   43

    2204 0000d0 2009          JNE       $C$L49                ; [] |114| 
    2205                                                      ; [] |114| 
    2206            ;* --------------------------------------------------------------------------*
    2207 0000d2 90B2          CMP.W     #10001,&v2+0          ; [] |114| 
         0000d4 2711 
         0000d6 0000!
    2208 0000d8 2805          JLO       $C$L49                ; [] |114| 
    2209                                                      ; [] |114| 
    2210            ;* --------------------------------------------------------------------------*
    2211                    .dwpsn  file "../src/Fuel_Gauge.c",line 118,column 13,is_stmt,isa 0
    2212 0000da 80B2          SUB.W     #10000,&v2+0          ; [] |118| 
         0000dc 2710 
         0000de 0000!
    2213                    .dwpsn  file "../src/Fuel_Gauge.c",line 119,column 13,is_stmt,isa 0
    2214 0000e0 43D2          MOV.B     #1,&fuel_gauge_decrement+0 ; [] |119| 
         0000e2 0000!
    2215            ;* --------------------------------------------------------------------------*
    2216 0000e4       $C$L49:    
    2217                    .dwpsn  file "../src/Fuel_Gauge.c",line 124,column 7,is_stmt,isa 0
    2218 0000e4 421C          MOV.W     &v3+0,r12             ; [] |124| 
         0000e6 0000!
    2219 0000e8 421D          MOV.W     &v3+2,r13             ; [] |124| 
         0000ea 0002!
    2220 0000ec 421E          MOV.W     &main_fuel_flow+0,r14 ; [] |124| 
         0000ee 0000!
    2221 0000f0 421F          MOV.W     &main_fuel_flow+2,r15 ; [] |124| 
         0000f2 0002!
    2222            $C$DW$99        .dwtag  DW_TAG_TI_branch
    2223                    .dwattr $C$DW$99, DW_AT_low_pc(0x00)
    2224                    .dwattr $C$DW$99, DW_AT_name("__mspabi_addf")
    2225                    .dwattr $C$DW$99, DW_AT_TI_call
    2226            
    2227 0000f4 13B0!         CALLA     #__mspabi_addf        ; [] |124| 
         0000f6 0000 
    2228                                                      ; [] |124| 
    2229 0000f8 4C82          MOV.W     r12,&v3+0             ; [] |124| 
         0000fa 0000!
    2230 0000fc 4D82          MOV.W     r13,&v3+2             ; [] |124| 
         0000fe 0002!
    2231                    .dwpsn  file "../src/Fuel_Gauge.c",line 125,column 7,is_stmt,isa 0
    2232 000100 430C          MOV.W     #0,r12                ; [] |125| 
    2233 000102 403D          MOV.W     #16544,r13            ; [] |125| 
         000104 40A0 
    2234 000106 421E          MOV.W     &FC_Burner_Methanol_flow+0,r14 ; [] |125| 
         000108 0000!
    2235 00010a 421F          MOV.W     &FC_Burner_Methanol_flow+2,r15 ; [] |125| 
         00010c 0002!
    2236            $C$DW$100       .dwtag  DW_TAG_TI_branch
    2237                    .dwattr $C$DW$100, DW_AT_low_pc(0x00)
    2238                    .dwattr $C$DW$100, DW_AT_name("__mspabi_cmpf")
    2239                    .dwattr $C$DW$100, DW_AT_TI_call
    2240            
    2241 00010e 13B0!         CALLA     #__mspabi_cmpf        ; [] |125| 
         000110 0000 
    2242                                                      ; [] |125| 
MSP430 Assembler PC v21.6.1 Tue Dec 20 13:45:59 2022

Copyright (c) 2003-2018 Texas Instruments Incorporated
Fuel_Gauge.asm                                                       PAGE   44

    2243 000112 930C          TST.W     r12                   ; [] |125| 
    2244 000114 340E          JGE       $C$L50                ; [] |125| 
    2245                                                      ; [] |125| 
    2246            ;* --------------------------------------------------------------------------*
    2247                    .dwpsn  file "../src/Fuel_Gauge.c",line 125,column 37,is_stmt,isa 0
    2248 000116 421C          MOV.W     &v3+0,r12             ; [] |125| 
         000118 0000!
    2249 00011a 421D          MOV.W     &v3+2,r13             ; [] |125| 
         00011c 0002!
    2250 00011e 421E          MOV.W     &FC_Burner_Methanol_flow+0,r14 ; [] |125| 
         000120 0000!
    2251 000122 421F          MOV.W     &FC_Burner_Methanol_flow+2,r15 ; [] |125| 
         000124 0002!
    2252            $C$DW$101       .dwtag  DW_TAG_TI_branch
    2253                    .dwattr $C$DW$101, DW_AT_low_pc(0x00)
    2254                    .dwattr $C$DW$101, DW_AT_name("__mspabi_addf")
    2255                    .dwattr $C$DW$101, DW_AT_TI_call
    2256            
    2257 000126 13B0!         CALLA     #__mspabi_addf        ; [] |125| 
         000128 0000 
    2258                                                      ; [] |125| 
    2259 00012a 4C82          MOV.W     r12,&v3+0             ; [] |125| 
         00012c 0000!
    2260 00012e 4D82          MOV.W     r13,&v3+2             ; [] |125| 
         000130 0002!
    2261            ;* --------------------------------------------------------------------------*
    2262 000132       $C$L50:    
    2263                    .dwpsn  file "../src/Fuel_Gauge.c",line 126,column 7,is_stmt,isa 0
    2264 000132 5392          ADD.W     #1,&count_v4+0        ; [] |126| 
         000134 0000!
    2265 000136 90B2          CMP.W     #100,&count_v4+0      ; [] |126| 
         000138 0064 
         00013a 0000!
    2266 00013c 2026          JNE       $C$L51                ; [] |126| 
    2267                                                      ; [] |126| 
    2268            ;* --------------------------------------------------------------------------*
    2269                    .dwpsn  file "../src/Fuel_Gauge.c",line 127,column 27,is_stmt,isa 0
    2270 00013e 421C          MOV.W     &v3+0,r12             ; [] |127| 
         000140 0000!
    2271 000142 421D          MOV.W     &v3+2,r13             ; [] |127| 
         000144 0002!
    2272            $C$DW$102       .dwtag  DW_TAG_TI_branch
    2273                    .dwattr $C$DW$102, DW_AT_low_pc(0x00)
    2274                    .dwattr $C$DW$102, DW_AT_name("__mspabi_cvtfd")
    2275                    .dwattr $C$DW$102, DW_AT_TI_call
    2276            
    2277 000146 13B0!         CALLA     #__mspabi_cvtfd       ; [] |127| 
         000148 0000 
    2278                                                      ; [] |127| 
    2279 00014a 0CC8          MOVA      r12,r8                ; [] |127| 
    2280 00014c 0DC9          MOVA      r13,r9                ; [] |127| 
    2281 00014e 0ECA          MOVA      r14,r10               ; [] |127| 
    2282 000150 0FCB          MOVA      r15,r11               ; [] |127| 
    2283 000152 430C          MOV.W     #0,r12                ; [] |127| 
    2284 000154 430D          MOV.W     #0,r13                ; [] |127| 
MSP430 Assembler PC v21.6.1 Tue Dec 20 13:45:59 2022

Copyright (c) 2003-2018 Texas Instruments Incorporated
Fuel_Gauge.asm                                                       PAGE   45

    2285 000156 430E          MOV.W     #0,r14                ; [] |127| 
    2286 000158 403F          MOV.W     #16352,r15            ; [] |127| 
         00015a 3FE0 
    2287            $C$DW$103       .dwtag  DW_TAG_TI_branch
    2288                    .dwattr $C$DW$103, DW_AT_low_pc(0x00)
    2289                    .dwattr $C$DW$103, DW_AT_name("__mspabi_addd")
    2290                    .dwattr $C$DW$103, DW_AT_TI_call
    2291            
    2292 00015c 13B0!         CALLA     #__mspabi_addd        ; [] |127| 
         00015e 0000 
    2293                                                      ; [] |127| 
    2294 000160 0CC8          MOVA      r12,r8                ; [] |127| 
    2295 000162 0DC9          MOVA      r13,r9                ; [] |127| 
    2296 000164 0ECA          MOVA      r14,r10               ; [] |127| 
    2297 000166 0FCB          MOVA      r15,r11               ; [] |127| 
    2298 000168 430C          MOV.W     #0,r12                ; [] |127| 
    2299 00016a 430D          MOV.W     #0,r13                ; [] |127| 
    2300 00016c 430E          MOV.W     #0,r14                ; [] |127| 
    2301 00016e 403F          MOV.W     #16450,r15            ; [] |127| 
         000170 4042 
    2302            $C$DW$104       .dwtag  DW_TAG_TI_branch
    2303                    .dwattr $C$DW$104, DW_AT_low_pc(0x00)
    2304                    .dwattr $C$DW$104, DW_AT_name("__mspabi_divd")
    2305                    .dwattr $C$DW$104, DW_AT_TI_call
    2306            
    2307 000172 13B0!         CALLA     #__mspabi_divd        ; [] |127| 
         000174 0000 
    2308                                                      ; [] |127| 
    2309            $C$DW$105       .dwtag  DW_TAG_TI_branch
    2310                    .dwattr $C$DW$105, DW_AT_low_pc(0x00)
    2311                    .dwattr $C$DW$105, DW_AT_name("__mspabi_fixdu")
    2312                    .dwattr $C$DW$105, DW_AT_TI_call
    2313            
    2314 000176 13B0!         CALLA     #__mspabi_fixdu       ; [] |127| 
         000178 0000 
    2315                                                      ; [] |127| 
    2316 00017a 5C82          ADD.W     r12,&v4+0             ; [] |127| 
         00017c 0000!
    2317                    .dwpsn  file "../src/Fuel_Gauge.c",line 127,column 61,is_stmt,isa 0
    2318 00017e 4382          MOV.W     #0,&v3+0              ; [] |127| 
         000180 0000!
    2319 000182 4382          MOV.W     #0,&v3+2              ; [] |127| 
         000184 0002!
    2320                    .dwpsn  file "../src/Fuel_Gauge.c",line 127,column 68,is_stmt,isa 0
    2321 000186 4382          MOV.W     #0,&count_v4+0        ; [] |127| 
         000188 0000!
    2322            ;* --------------------------------------------------------------------------*
    2323 00018a       $C$L51:    
    2324                    .dwpsn  file "../src/Fuel_Gauge.c",line 128,column 7,is_stmt,isa 0
    2325 00018a 90B2          CMP.W     #201,&v4+0            ; [] |128| 
         00018c 00C9 
         00018e 0000!
    2326 000190 281D          JLO       $C$L52                ; [] |128| 
    2327                                                      ; [] |128| 
    2328            ;* --------------------------------------------------------------------------*
MSP430 Assembler PC v21.6.1 Tue Dec 20 13:45:59 2022

Copyright (c) 2003-2018 Texas Instruments Incorporated
Fuel_Gauge.asm                                                       PAGE   46

    2329                    .dwpsn  file "../src/Fuel_Gauge.c",line 130,column 9,is_stmt,isa 0
    2330 000192 80B2          SUB.W     #200,&v4+0            ; [] |130| 
         000194 00C8 
         000196 0000!
    2331                    .dwpsn  file "../src/Fuel_Gauge.c",line 131,column 9,is_stmt,isa 0
    2332 000198 421C          MOV.W     &sum_dispensed+0,r12  ; [] |131| 
         00019a 0000!
    2333 00019c 421D          MOV.W     &sum_dispensed+2,r13  ; [] |131| 
         00019e 0002!
    2334            $C$DW$106       .dwtag  DW_TAG_TI_branch
    2335                    .dwattr $C$DW$106, DW_AT_low_pc(0x00)
    2336                    .dwattr $C$DW$106, DW_AT_name("__mspabi_cvtfd")
    2337                    .dwattr $C$DW$106, DW_AT_TI_call
    2338            
    2339 0001a0 13B0!         CALLA     #__mspabi_cvtfd       ; [] |131| 
         0001a2 0000 
    2340                                                      ; [] |131| 
    2341 0001a4 0CC8          MOVA      r12,r8                ; [] |131| 
    2342 0001a6 0DC9          MOVA      r13,r9                ; [] |131| 
    2343 0001a8 0ECA          MOVA      r14,r10               ; [] |131| 
    2344 0001aa 0FCB          MOVA      r15,r11               ; [] |131| 
    2345 0001ac 403C          MOV.W     #5243,r12             ; [] |131| 
         0001ae 147B 
    2346 0001b0 403D          MOV.W     #18350,r13            ; [] |131| 
         0001b2 47AE 
    2347 0001b4 403E          MOV.W     #31457,r14            ; [] |131| 
         0001b6 7AE1 
    2348 0001b8 403F          MOV.W     #16276,r15            ; [] |131| 
         0001ba 3F94 
    2349            $C$DW$107       .dwtag  DW_TAG_TI_branch
    2350                    .dwattr $C$DW$107, DW_AT_low_pc(0x00)
    2351                    .dwattr $C$DW$107, DW_AT_name("__mspabi_addd")
    2352                    .dwattr $C$DW$107, DW_AT_TI_call
    2353            
    2354 0001bc 13B0!         CALLA     #__mspabi_addd        ; [] |131| 
         0001be 0000 
    2355                                                      ; [] |131| 
    2356            $C$DW$108       .dwtag  DW_TAG_TI_branch
    2357                    .dwattr $C$DW$108, DW_AT_low_pc(0x00)
    2358                    .dwattr $C$DW$108, DW_AT_name("__mspabi_cvtdf")
    2359                    .dwattr $C$DW$108, DW_AT_TI_call
    2360            
    2361 0001c0 13B0!         CALLA     #__mspabi_cvtdf       ; [] |131| 
         0001c2 0000 
    2362                                                      ; [] |131| 
    2363 0001c4 4C82          MOV.W     r12,&sum_dispensed+0  ; [] |131| 
         0001c6 0000!
    2364 0001c8 4D82          MOV.W     r13,&sum_dispensed+2  ; [] |131| 
         0001ca 0002!
    2365            ;* --------------------------------------------------------------------------*
    2366 0001cc       $C$L52:    
    2367                    .dwpsn  file "../src/Fuel_Gauge.c",line 136,column 7,is_stmt,isa 0
    2368 0001cc 93D2          CMP.B     #1,&modelno+0         ; [] |136| 
         0001ce 0000!
    2369 0001d0 2003          JNE       $C$L53                ; [] |136| 
MSP430 Assembler PC v21.6.1 Tue Dec 20 13:45:59 2022

Copyright (c) 2003-2018 Texas Instruments Incorporated
Fuel_Gauge.asm                                                       PAGE   47

    2370                                                      ; [] |136| 
    2371            ;* --------------------------------------------------------------------------*
    2372 0001d2 93D2          CMP.B     #1,&datarev+0         ; [] |136| 
         0001d4 0000!
    2373 0001d6 25DF          JEQ       $C$L70                ; [] |136| 
    2374                                                      ; [] |136| 
    2375            ;* --------------------------------------------------------------------------*
    2376 0001d8       $C$L53:    
    2377                    .dwpsn  file "../src/Fuel_Gauge.c",line 142,column 12,is_stmt,isa 0
    2378 0001d8 93D2          CMP.B     #1,&modelno+0         ; [] |142| 
         0001da 0000!
    2379 0001dc 2003          JNE       $C$L54                ; [] |142| 
    2380                                                      ; [] |142| 
    2381            ;* --------------------------------------------------------------------------*
    2382 0001de 93E2          CMP.B     #2,&datarev+0         ; [] |142| 
         0001e0 0000!
    2383 0001e2 25B4          JEQ       $C$L69                ; [] |142| 
    2384                                                      ; [] |142| 
    2385            ;* --------------------------------------------------------------------------*
    2386 0001e4       $C$L54:    
    2387                    .dwpsn  file "../src/Fuel_Gauge.c",line 149,column 12,is_stmt,isa 0
    2388 0001e4 93E2          CMP.B     #2,&modelno+0         ; [] |149| 
         0001e6 0000!
    2389 0001e8 258A          JEQ       $C$L68                ; [] |149| 
    2390                                                      ; [] |149| 
    2391            ;* --------------------------------------------------------------------------*
    2392                    .dwpsn  file "../src/Fuel_Gauge.c",line 156,column 12,is_stmt,isa 0
    2393 0001ea 90F2          CMP.B     #3,&modelno+0         ; [] |156| 
         0001ec 0003 
         0001ee 0000!
    2394 0001f0 255F          JEQ       $C$L67                ; [] |156| 
    2395                                                      ; [] |156| 
    2396            ;* --------------------------------------------------------------------------*
    2397                    .dwpsn  file "../src/Fuel_Gauge.c",line 163,column 12,is_stmt,isa 0
    2398 0001f2 90F2          CMP.B     #5,&modelno+0         ; [] |163| 
         0001f4 0005 
         0001f6 0000!
    2399 0001f8 2536          JEQ       $C$L66                ; [] |163| 
    2400                                                      ; [] |163| 
    2401            ;* --------------------------------------------------------------------------*
    2402                    .dwpsn  file "../src/Fuel_Gauge.c",line 170,column 12,is_stmt,isa 0
    2403 0001fa 90F2          CMP.B     #6,&modelno+0         ; [] |170| 
         0001fc 0006 
         0001fe 0000!
    2404 000200 250B          JEQ       $C$L65                ; [] |170| 
    2405                                                      ; [] |170| 
    2406            ;* --------------------------------------------------------------------------*
    2407                    .dwpsn  file "../src/Fuel_Gauge.c",line 177,column 12,is_stmt,isa 0
    2408 000202 90F2          CMP.B     #7,&modelno+0         ; [] |177| 
         000204 0007 
         000206 0000!
    2409 000208 24E0          JEQ       $C$L64                ; [] |177| 
    2410                                                      ; [] |177| 
    2411            ;* --------------------------------------------------------------------------*
    2412                    .dwpsn  file "../src/Fuel_Gauge.c",line 184,column 12,is_stmt,isa 0
MSP430 Assembler PC v21.6.1 Tue Dec 20 13:45:59 2022

Copyright (c) 2003-2018 Texas Instruments Incorporated
Fuel_Gauge.asm                                                       PAGE   48

    2413 00020a 92F2          CMP.B     #8,&modelno+0         ; [] |184| 
         00020c 0000!
    2414 00020e 24B6          JEQ       $C$L63                ; [] |184| 
    2415                                                      ; [] |184| 
    2416            ;* --------------------------------------------------------------------------*
    2417                    .dwpsn  file "../src/Fuel_Gauge.c",line 191,column 12,is_stmt,isa 0
    2418 000210 90F2          CMP.B     #9,&modelno+0         ; [] |191| 
         000212 0009 
         000214 0000!
    2419 000216 2463          JEQ       $C$L57                ; [] |191| 
    2420                                                      ; [] |191| 
    2421            ;* --------------------------------------------------------------------------*
    2422                    .dwpsn  file "../src/Fuel_Gauge.c",line 208,column 12,is_stmt,isa 0
    2423 000218 90F2          CMP.B     #10,&modelno+0        ; [] |208| 
         00021a 000A 
         00021c 0000!
    2424 00021e 2438          JEQ       $C$L56                ; [] |208| 
    2425                                                      ; [] |208| 
    2426            ;* --------------------------------------------------------------------------*
    2427                    .dwpsn  file "../src/Fuel_Gauge.c",line 215,column 12,is_stmt,isa 0
    2428 000220 90F2          CMP.B     #11,&modelno+0        ; [] |215| 
         000222 000B 
         000224 0000!
    2429 000226 240D          JEQ       $C$L55                ; [] |215| 
    2430                                                      ; [] |215| 
    2431            ;* --------------------------------------------------------------------------*
    2432                    .dwpsn  file "../src/Fuel_Gauge.c",line 224,column 9,is_stmt,isa 0
    2433 000228 4382          MOV.W     #0,&fuel_remaining+0  ; [] |224| 
         00022a 0000!
    2434 00022c 4382          MOV.W     #0,&fuel_remaining+2  ; [] |224| 
         00022e 0002!
    2435                    .dwpsn  file "../src/Fuel_Gauge.c",line 225,column 13,is_stmt,isa 0
    2436 000230 43C2          MOV.B     #0,&percent_remaining+0 ; [] |225| 
         000232 0000!
    2437                    .dwpsn  file "../src/Fuel_Gauge.c",line 226,column 9,is_stmt,isa 0
    2438 000234 4382          MOV.W     #0,&fuel_full+0       ; [] |226| 
         000236 0000!
    2439 000238 4382          MOV.W     #0,&fuel_full+2       ; [] |226| 
         00023a 0002!
    2440                    .dwpsn  file "../src/Fuel_Gauge.c",line 227,column 9,is_stmt,isa 0
    2441 00023c 43D2          MOV.B     #1,&cartridge_adapter+0 ; [] |227| 
         00023e 0000!
    2442 000240 3DC9          JMP       $C$L71                ; [] |227| 
    2443                                                      ; [] |227| 
    2444            ;* --------------------------------------------------------------------------*
    2445 000242       $C$L55:    
    2446                    .dwpsn  file "../src/Fuel_Gauge.c",line 217,column 9,is_stmt,isa 0
    2447 000242 425C          MOV.B     &CartData+1,r12       ; [] |217| 
         000244 0001!
    2448 000246 425F          MOV.B     &CartData+2,r15       ; [] |217| 
         000248 0002!
    2449 00024a 1847          RPT #8 || RLAX.W r15 ; [] |217| 
         00024c 5F0F 
    2450 00024e 5F0C          ADD.W     r15,r12               ; [] |217| 
    2451            $C$DW$109       .dwtag  DW_TAG_TI_branch
MSP430 Assembler PC v21.6.1 Tue Dec 20 13:45:59 2022

Copyright (c) 2003-2018 Texas Instruments Incorporated
Fuel_Gauge.asm                                                       PAGE   49

    2452                    .dwattr $C$DW$109, DW_AT_low_pc(0x00)
    2453                    .dwattr $C$DW$109, DW_AT_name("__mspabi_fltif")
    2454                    .dwattr $C$DW$109, DW_AT_TI_call
    2455            
    2456 000250 13B0!         CALLA     #__mspabi_fltif       ; [] |217| 
         000252 0000 
    2457                                                      ; [] |217| 
    2458 000254 4C82          MOV.W     r12,&fuel_remaining+0 ; [] |217| 
         000256 0000!
    2459 000258 4D82          MOV.W     r13,&fuel_remaining+2 ; [] |217| 
         00025a 0002!
    2460                    .dwpsn  file "../src/Fuel_Gauge.c",line 218,column 13,is_stmt,isa 0
    2461 00025c 421C          MOV.W     &fuel_remaining+0,r12 ; [] |218| 
         00025e 0000!
    2462 000260 403E          MOV.W     #16384,r14            ; [] |218| 
         000262 4000 
    2463 000264 403F          MOV.W     #18076,r15            ; [] |218| 
         000266 469C 
    2464            $C$DW$110       .dwtag  DW_TAG_TI_branch
    2465                    .dwattr $C$DW$110, DW_AT_low_pc(0x00)
    2466                    .dwattr $C$DW$110, DW_AT_name("__mspabi_divf")
    2467                    .dwattr $C$DW$110, DW_AT_TI_call
    2468            
    2469 000268 13B0!         CALLA     #__mspabi_divf        ; [] |218| 
         00026a 0000 
    2470                                                      ; [] |218| 
    2471 00026c 430E          MOV.W     #0,r14                ; [] |218| 
    2472 00026e 403F          MOV.W     #17096,r15            ; [] |218| 
         000270 42C8 
    2473            $C$DW$111       .dwtag  DW_TAG_TI_branch
    2474                    .dwattr $C$DW$111, DW_AT_low_pc(0x00)
    2475                    .dwattr $C$DW$111, DW_AT_name("__mspabi_mpyf")
    2476                    .dwattr $C$DW$111, DW_AT_TI_call
    2477            
    2478 000272 13B0!         CALLA     #__mspabi_mpyf        ; [] |218| 
         000274 0000 
    2479                                                      ; [] |218| 
    2480            $C$DW$112       .dwtag  DW_TAG_TI_branch
    2481                    .dwattr $C$DW$112, DW_AT_low_pc(0x00)
    2482                    .dwattr $C$DW$112, DW_AT_name("__mspabi_fixfi")
    2483                    .dwattr $C$DW$112, DW_AT_TI_call
    2484            
    2485 000276 13B0!         CALLA     #__mspabi_fixfi       ; [] |218| 
         000278 0000 
    2486                                                      ; [] |218| 
    2487 00027a 4CC2          MOV.B     r12,&percent_remaining+0 ; [] |218| 
         00027c 0000!
    2488                    .dwpsn  file "../src/Fuel_Gauge.c",line 219,column 9,is_stmt,isa 0
    2489 00027e 40B2          MOV.W     #16384,&fuel_full+0   ; [] |219| 
         000280 4000 
         000282 0000!
    2490 000284 40B2          MOV.W     #18076,&fuel_full+2   ; [] |219| 
         000286 469C 
         000288 0002!
    2491                    .dwpsn  file "../src/Fuel_Gauge.c",line 220,column 9,is_stmt,isa 0
MSP430 Assembler PC v21.6.1 Tue Dec 20 13:45:59 2022

Copyright (c) 2003-2018 Texas Instruments Incorporated
Fuel_Gauge.asm                                                       PAGE   50

    2492 00028a 43D2          MOV.B     #1,&cartridge_adapter+0 ; [] |220| 
         00028c 0000!
    2493 00028e 3DA2          JMP       $C$L71                ; [] 
    2494                                                      ; [] 
    2495            ;* --------------------------------------------------------------------------*
    2496 000290       $C$L56:    
    2497                    .dwpsn  file "../src/Fuel_Gauge.c",line 210,column 9,is_stmt,isa 0
    2498 000290 425C          MOV.B     &CartData+1,r12       ; [] |210| 
         000292 0001!
    2499 000294 425F          MOV.B     &CartData+2,r15       ; [] |210| 
         000296 0002!
    2500 000298 1847          RPT #8 || RLAX.W r15 ; [] |210| 
         00029a 5F0F 
    2501 00029c 5F0C          ADD.W     r15,r12               ; [] |210| 
    2502            $C$DW$113       .dwtag  DW_TAG_TI_branch
    2503                    .dwattr $C$DW$113, DW_AT_low_pc(0x00)
    2504                    .dwattr $C$DW$113, DW_AT_name("__mspabi_fltif")
    2505                    .dwattr $C$DW$113, DW_AT_TI_call
    2506            
    2507 00029e 13B0!         CALLA     #__mspabi_fltif       ; [] |210| 
         0002a0 0000 
    2508                                                      ; [] |210| 
    2509 0002a2 4C82          MOV.W     r12,&fuel_remaining+0 ; [] |210| 
         0002a4 0000!
    2510 0002a6 4D82          MOV.W     r13,&fuel_remaining+2 ; [] |210| 
         0002a8 0002!
    2511                    .dwpsn  file "../src/Fuel_Gauge.c",line 211,column 13,is_stmt,isa 0
    2512 0002aa 421C          MOV.W     &fuel_remaining+0,r12 ; [] |211| 
         0002ac 0000!
    2513 0002ae 403E          MOV.W     #32768,r14            ; [] |211| 
         0002b0 8000 
    2514 0002b2 403F          MOV.W     #17851,r15            ; [] |211| 
         0002b4 45BB 
    2515            $C$DW$114       .dwtag  DW_TAG_TI_branch
    2516                    .dwattr $C$DW$114, DW_AT_low_pc(0x00)
    2517                    .dwattr $C$DW$114, DW_AT_name("__mspabi_divf")
    2518                    .dwattr $C$DW$114, DW_AT_TI_call
    2519            
    2520 0002b6 13B0!         CALLA     #__mspabi_divf        ; [] |211| 
         0002b8 0000 
    2521                                                      ; [] |211| 
    2522 0002ba 430E          MOV.W     #0,r14                ; [] |211| 
    2523 0002bc 403F          MOV.W     #17096,r15            ; [] |211| 
         0002be 42C8 
    2524            $C$DW$115       .dwtag  DW_TAG_TI_branch
    2525                    .dwattr $C$DW$115, DW_AT_low_pc(0x00)
    2526                    .dwattr $C$DW$115, DW_AT_name("__mspabi_mpyf")
    2527                    .dwattr $C$DW$115, DW_AT_TI_call
    2528            
    2529 0002c0 13B0!         CALLA     #__mspabi_mpyf        ; [] |211| 
         0002c2 0000 
    2530                                                      ; [] |211| 
    2531            $C$DW$116       .dwtag  DW_TAG_TI_branch
    2532                    .dwattr $C$DW$116, DW_AT_low_pc(0x00)
    2533                    .dwattr $C$DW$116, DW_AT_name("__mspabi_fixfi")
MSP430 Assembler PC v21.6.1 Tue Dec 20 13:45:59 2022

Copyright (c) 2003-2018 Texas Instruments Incorporated
Fuel_Gauge.asm                                                       PAGE   51

    2534                    .dwattr $C$DW$116, DW_AT_TI_call
    2535            
    2536 0002c4 13B0!         CALLA     #__mspabi_fixfi       ; [] |211| 
         0002c6 0000 
    2537                                                      ; [] |211| 
    2538 0002c8 4CC2          MOV.B     r12,&percent_remaining+0 ; [] |211| 
         0002ca 0000!
    2539                    .dwpsn  file "../src/Fuel_Gauge.c",line 212,column 9,is_stmt,isa 0
    2540 0002cc 40B2          MOV.W     #32768,&fuel_full+0   ; [] |212| 
         0002ce 8000 
         0002d0 0000!
    2541 0002d2 40B2          MOV.W     #17851,&fuel_full+2   ; [] |212| 
         0002d4 45BB 
         0002d6 0002!
    2542                    .dwpsn  file "../src/Fuel_Gauge.c",line 213,column 9,is_stmt,isa 0
    2543 0002d8 43D2          MOV.B     #1,&cartridge_adapter+0 ; [] |213| 
         0002da 0000!
    2544 0002dc 3D7B          JMP       $C$L71                ; [] 
    2545                                                      ; [] 
    2546            ;* --------------------------------------------------------------------------*
    2547 0002de       $C$L57:    
    2548                    .dwpsn  file "../src/Fuel_Gauge.c",line 193,column 9,is_stmt,isa 0
    2549 0002de 425C          MOV.B     &CartData+1,r12       ; [] |193| 
         0002e0 0001!
    2550 0002e2 425F          MOV.B     &CartData+2,r15       ; [] |193| 
         0002e4 0002!
    2551 0002e6 1847          RPT #8 || RLAX.W r15 ; [] |193| 
         0002e8 5F0F 
    2552 0002ea 5F0C          ADD.W     r15,r12               ; [] |193| 
    2553            $C$DW$117       .dwtag  DW_TAG_TI_branch
    2554                    .dwattr $C$DW$117, DW_AT_low_pc(0x00)
    2555                    .dwattr $C$DW$117, DW_AT_name("__mspabi_fltif")
    2556                    .dwattr $C$DW$117, DW_AT_TI_call
    2557            
    2558 0002ec 13B0!         CALLA     #__mspabi_fltif       ; [] |193| 
         0002ee 0000 
    2559                                                      ; [] |193| 
    2560 0002f0 4C82          MOV.W     r12,&fuel_remaining+0 ; [] |193| 
         0002f2 0000!
    2561 0002f4 4D82          MOV.W     r13,&fuel_remaining+2 ; [] |193| 
         0002f6 0002!
    2562                    .dwpsn  file "../src/Fuel_Gauge.c",line 194,column 13,is_stmt,isa 0
    2563 0002f8 421C          MOV.W     &fuel_remaining+0,r12 ; [] |194| 
         0002fa 0000!
    2564 0002fc 403E          MOV.W     #4096,r14             ; [] |194| 
         0002fe 1000 
    2565 000300 403F          MOV.W     #17956,r15            ; [] |194| 
         000302 4624 
    2566            $C$DW$118       .dwtag  DW_TAG_TI_branch
    2567                    .dwattr $C$DW$118, DW_AT_low_pc(0x00)
    2568                    .dwattr $C$DW$118, DW_AT_name("__mspabi_divf")
    2569                    .dwattr $C$DW$118, DW_AT_TI_call
    2570            
    2571 000304 13B0!         CALLA     #__mspabi_divf        ; [] |194| 
         000306 0000 
MSP430 Assembler PC v21.6.1 Tue Dec 20 13:45:59 2022

Copyright (c) 2003-2018 Texas Instruments Incorporated
Fuel_Gauge.asm                                                       PAGE   52

    2572                                                      ; [] |194| 
    2573 000308 430E          MOV.W     #0,r14                ; [] |194| 
    2574 00030a 403F          MOV.W     #17096,r15            ; [] |194| 
         00030c 42C8 
    2575            $C$DW$119       .dwtag  DW_TAG_TI_branch
    2576                    .dwattr $C$DW$119, DW_AT_low_pc(0x00)
    2577                    .dwattr $C$DW$119, DW_AT_name("__mspabi_mpyf")
    2578                    .dwattr $C$DW$119, DW_AT_TI_call
    2579            
    2580 00030e 13B0!         CALLA     #__mspabi_mpyf        ; [] |194| 
         000310 0000 
    2581                                                      ; [] |194| 
    2582            $C$DW$120       .dwtag  DW_TAG_TI_branch
    2583                    .dwattr $C$DW$120, DW_AT_low_pc(0x00)
    2584                    .dwattr $C$DW$120, DW_AT_name("__mspabi_fixfi")
    2585                    .dwattr $C$DW$120, DW_AT_TI_call
    2586            
    2587 000312 13B0!         CALLA     #__mspabi_fixfi       ; [] |194| 
         000314 0000 
    2588                                                      ; [] |194| 
    2589 000316 4CC2          MOV.B     r12,&percent_remaining+0 ; [] |194| 
         000318 0000!
    2590                    .dwpsn  file "../src/Fuel_Gauge.c",line 198,column 55,is_stmt,isa 0
    2591 00031a 93C2          TST.B     &XRT_Splitter+0       ; [] |198| 
         00031c 0000!
    2592 00031e 241B          JEQ       $C$L60                ; [] |198| 
    2593                                                      ; [] |198| 
    2594            ;* --------------------------------------------------------------------------*
    2595 000320 93C2          TST.B     &Ghost_Cartridge_Level_Option+0 ; [] |198| 
         000322 0000!
    2596 000324 2413          JEQ       $C$L59                ; [] |198| 
    2597                                                      ; [] |198| 
    2598            ;* --------------------------------------------------------------------------*
    2599 000326 93D2          CMP.B     #1,&Ghost_Cartridge_Level_Option+0 ; [] |198| 
         000328 0000!
    2600 00032a 200B          JNE       $C$L58                ; [] |198| 
    2601                                                      ; [] |198| 
    2602            ;* --------------------------------------------------------------------------*
    2603 00032c 421C          MOV.W     &fuel_remaining+0,r12 ; [] |198| 
         00032e 0000!
    2604 000330 421D          MOV.W     &fuel_remaining+2,r13 ; [] |198| 
         000332 0002!
    2605 000334 403E          MOV.W     #4096,r14             ; [] |198| 
         000336 1000 
    2606 000338 403F          MOV.W     #17956,r15            ; [] |198| 
         00033a 4624 
    2607            $C$DW$121       .dwtag  DW_TAG_TI_branch
    2608                    .dwattr $C$DW$121, DW_AT_low_pc(0x00)
    2609                    .dwattr $C$DW$121, DW_AT_name("__mspabi_addf")
    2610                    .dwattr $C$DW$121, DW_AT_TI_call
    2611            
    2612 00033c 13B0!         CALLA     #__mspabi_addf        ; [] |198| 
         00033e 0000 
    2613                                                      ; [] |198| 
    2614 000340 3C16          JMP       $C$L62                ; [] |198| 
MSP430 Assembler PC v21.6.1 Tue Dec 20 13:45:59 2022

Copyright (c) 2003-2018 Texas Instruments Incorporated
Fuel_Gauge.asm                                                       PAGE   53

    2615                                                      ; [] |198| 
    2616            ;* --------------------------------------------------------------------------*
    2617 000342       $C$L58:    
    2618 000342 403C          MOV.W     #4096,r12             ; [] |198| 
         000344 1000 
    2619 000346 403D          MOV.W     #18084,r13            ; [] |198| 
         000348 46A4 
    2620 00034a 3C11          JMP       $C$L62                ; [] |198| 
    2621                                                      ; [] |198| 
    2622            ;* --------------------------------------------------------------------------*
    2623 00034c       $C$L59:    
    2624 00034c 403C          MOV.W     #4096,r12             ; [] |198| 
         00034e 1000 
    2625 000350 403D          MOV.W     #17956,r13            ; [] |198| 
         000352 4624 
    2626 000354 3C0C          JMP       $C$L62                ; [] |198| 
    2627                                                      ; [] |198| 
    2628            ;* --------------------------------------------------------------------------*
    2629 000356       $C$L60:    
    2630 000356 93C2          TST.B     &Ghost_Cartridge_Level_Option+0 ; [] |198| 
         000358 0000!
    2631 00035a 2405          JEQ       $C$L61                ; [] |198| 
    2632                                                      ; [] |198| 
    2633            ;* --------------------------------------------------------------------------*
    2634 00035c 403C          MOV.W     #49152,r12            ; [] |198| 
         00035e C000 
    2635 000360 403D          MOV.W     #17754,r13            ; [] |198| 
         000362 455A 
    2636 000364 3C04          JMP       $C$L62                ; [] |198| 
    2637                                                      ; [] |198| 
    2638            ;* --------------------------------------------------------------------------*
    2639 000366       $C$L61:    
    2640 000366 403C          MOV.W     #4096,r12             ; [] |198| 
         000368 1000 
    2641 00036a 403D          MOV.W     #17956,r13            ; [] |198| 
         00036c 4624 
    2642            ;* --------------------------------------------------------------------------*
    2643 00036e       $C$L62:    
    2644 00036e 4C82          MOV.W     r12,&fuel_full+0      ; [] |198| 
         000370 0000!
    2645 000372 4D82          MOV.W     r13,&fuel_full+2      ; [] |198| 
         000374 0002!
    2646                    .dwpsn  file "../src/Fuel_Gauge.c",line 206,column 9,is_stmt,isa 0
    2647 000376 43D2          MOV.B     #1,&cartridge_adapter+0 ; [] |206| 
         000378 0000!
    2648 00037a 3D2C          JMP       $C$L71                ; [] 
    2649                                                      ; [] 
    2650            ;* --------------------------------------------------------------------------*
    2651 00037c       $C$L63:    
    2652                    .dwpsn  file "../src/Fuel_Gauge.c",line 186,column 9,is_stmt,isa 0
    2653 00037c 425C          MOV.B     &CartData+1,r12       ; [] |186| 
         00037e 0001!
    2654 000380 425F          MOV.B     &CartData+2,r15       ; [] |186| 
         000382 0002!
    2655 000384 1847          RPT #8 || RLAX.W r15 ; [] |186| 
MSP430 Assembler PC v21.6.1 Tue Dec 20 13:45:59 2022

Copyright (c) 2003-2018 Texas Instruments Incorporated
Fuel_Gauge.asm                                                       PAGE   54

         000386 5F0F 
    2656 000388 5F0C          ADD.W     r15,r12               ; [] |186| 
    2657            $C$DW$122       .dwtag  DW_TAG_TI_branch
    2658                    .dwattr $C$DW$122, DW_AT_low_pc(0x00)
    2659                    .dwattr $C$DW$122, DW_AT_name("__mspabi_fltif")
    2660                    .dwattr $C$DW$122, DW_AT_TI_call
    2661            
    2662 00038a 13B0!         CALLA     #__mspabi_fltif       ; [] |186| 
         00038c 0000 
    2663                                                      ; [] |186| 
    2664 00038e 4C82          MOV.W     r12,&fuel_remaining+0 ; [] |186| 
         000390 0000!
    2665 000392 4D82          MOV.W     r13,&fuel_remaining+2 ; [] |186| 
         000394 0002!
    2666                    .dwpsn  file "../src/Fuel_Gauge.c",line 187,column 13,is_stmt,isa 0
    2667 000396 421C          MOV.W     &fuel_remaining+0,r12 ; [] |187| 
         000398 0000!
    2668 00039a 403E          MOV.W     #49152,r14            ; [] |187| 
         00039c C000 
    2669 00039e 403F          MOV.W     #17754,r15            ; [] |187| 
         0003a0 455A 
    2670            $C$DW$123       .dwtag  DW_TAG_TI_branch
    2671                    .dwattr $C$DW$123, DW_AT_low_pc(0x00)
    2672                    .dwattr $C$DW$123, DW_AT_name("__mspabi_divf")
    2673                    .dwattr $C$DW$123, DW_AT_TI_call
    2674            
    2675 0003a2 13B0!         CALLA     #__mspabi_divf        ; [] |187| 
         0003a4 0000 
    2676                                                      ; [] |187| 
    2677 0003a6 430E          MOV.W     #0,r14                ; [] |187| 
    2678 0003a8 403F          MOV.W     #17096,r15            ; [] |187| 
         0003aa 42C8 
    2679            $C$DW$124       .dwtag  DW_TAG_TI_branch
    2680                    .dwattr $C$DW$124, DW_AT_low_pc(0x00)
    2681                    .dwattr $C$DW$124, DW_AT_name("__mspabi_mpyf")
    2682                    .dwattr $C$DW$124, DW_AT_TI_call
    2683            
    2684 0003ac 13B0!         CALLA     #__mspabi_mpyf        ; [] |187| 
         0003ae 0000 
    2685                                                      ; [] |187| 
    2686            $C$DW$125       .dwtag  DW_TAG_TI_branch
    2687                    .dwattr $C$DW$125, DW_AT_low_pc(0x00)
    2688                    .dwattr $C$DW$125, DW_AT_name("__mspabi_fixfi")
    2689                    .dwattr $C$DW$125, DW_AT_TI_call
    2690            
    2691 0003b0 13B0!         CALLA     #__mspabi_fixfi       ; [] |187| 
         0003b2 0000 
    2692                                                      ; [] |187| 
    2693 0003b4 4CC2          MOV.B     r12,&percent_remaining+0 ; [] |187| 
         0003b6 0000!
    2694                    .dwpsn  file "../src/Fuel_Gauge.c",line 188,column 9,is_stmt,isa 0
    2695 0003b8 40B2          MOV.W     #49152,&fuel_full+0   ; [] |188| 
         0003ba C000 
         0003bc 0000!
    2696 0003be 40B2          MOV.W     #17754,&fuel_full+2   ; [] |188| 
MSP430 Assembler PC v21.6.1 Tue Dec 20 13:45:59 2022

Copyright (c) 2003-2018 Texas Instruments Incorporated
Fuel_Gauge.asm                                                       PAGE   55

         0003c0 455A 
         0003c2 0002!
    2697                    .dwpsn  file "../src/Fuel_Gauge.c",line 189,column 9,is_stmt,isa 0
    2698 0003c4 43D2          MOV.B     #1,&cartridge_adapter+0 ; [] |189| 
         0003c6 0000!
    2699 0003c8 3D05          JMP       $C$L71                ; [] 
    2700                                                      ; [] 
    2701            ;* --------------------------------------------------------------------------*
    2702 0003ca       $C$L64:    
    2703                    .dwpsn  file "../src/Fuel_Gauge.c",line 179,column 9,is_stmt,isa 0
    2704 0003ca 425C          MOV.B     &CartData+1,r12       ; [] |179| 
         0003cc 0001!
    2705 0003ce 425F          MOV.B     &CartData+2,r15       ; [] |179| 
         0003d0 0002!
    2706 0003d2 1847          RPT #8 || RLAX.W r15 ; [] |179| 
         0003d4 5F0F 
    2707 0003d6 5F0C          ADD.W     r15,r12               ; [] |179| 
    2708            $C$DW$126       .dwtag  DW_TAG_TI_branch
    2709                    .dwattr $C$DW$126, DW_AT_low_pc(0x00)
    2710                    .dwattr $C$DW$126, DW_AT_name("__mspabi_fltif")
    2711                    .dwattr $C$DW$126, DW_AT_TI_call
    2712            
    2713 0003d8 13B0!         CALLA     #__mspabi_fltif       ; [] |179| 
         0003da 0000 
    2714                                                      ; [] |179| 
    2715 0003dc 4C82          MOV.W     r12,&fuel_remaining+0 ; [] |179| 
         0003de 0000!
    2716 0003e0 4D82          MOV.W     r13,&fuel_remaining+2 ; [] |179| 
         0003e2 0002!
    2717                    .dwpsn  file "../src/Fuel_Gauge.c",line 180,column 13,is_stmt,isa 0
    2718 0003e4 421C          MOV.W     &fuel_remaining+0,r12 ; [] |180| 
         0003e6 0000!
    2719 0003e8 403E          MOV.W     #49152,r14            ; [] |180| 
         0003ea C000 
    2720 0003ec 403F          MOV.W     #17882,r15            ; [] |180| 
         0003ee 45DA 
    2721            $C$DW$127       .dwtag  DW_TAG_TI_branch
    2722                    .dwattr $C$DW$127, DW_AT_low_pc(0x00)
    2723                    .dwattr $C$DW$127, DW_AT_name("__mspabi_divf")
    2724                    .dwattr $C$DW$127, DW_AT_TI_call
    2725            
    2726 0003f0 13B0!         CALLA     #__mspabi_divf        ; [] |180| 
         0003f2 0000 
    2727                                                      ; [] |180| 
    2728 0003f4 430E          MOV.W     #0,r14                ; [] |180| 
    2729 0003f6 403F          MOV.W     #17096,r15            ; [] |180| 
         0003f8 42C8 
    2730            $C$DW$128       .dwtag  DW_TAG_TI_branch
    2731                    .dwattr $C$DW$128, DW_AT_low_pc(0x00)
    2732                    .dwattr $C$DW$128, DW_AT_name("__mspabi_mpyf")
    2733                    .dwattr $C$DW$128, DW_AT_TI_call
    2734            
    2735 0003fa 13B0!         CALLA     #__mspabi_mpyf        ; [] |180| 
         0003fc 0000 
    2736                                                      ; [] |180| 
MSP430 Assembler PC v21.6.1 Tue Dec 20 13:45:59 2022

Copyright (c) 2003-2018 Texas Instruments Incorporated
Fuel_Gauge.asm                                                       PAGE   56

    2737            $C$DW$129       .dwtag  DW_TAG_TI_branch
    2738                    .dwattr $C$DW$129, DW_AT_low_pc(0x00)
    2739                    .dwattr $C$DW$129, DW_AT_name("__mspabi_fixfi")
    2740                    .dwattr $C$DW$129, DW_AT_TI_call
    2741            
    2742 0003fe 13B0!         CALLA     #__mspabi_fixfi       ; [] |180| 
         000400 0000 
    2743                                                      ; [] |180| 
    2744 000402 4CC2          MOV.B     r12,&percent_remaining+0 ; [] |180| 
         000404 0000!
    2745                    .dwpsn  file "../src/Fuel_Gauge.c",line 181,column 9,is_stmt,isa 0
    2746 000406 40B2          MOV.W     #49152,&fuel_full+0   ; [] |181| 
         000408 C000 
         00040a 0000!
    2747 00040c 40B2          MOV.W     #17882,&fuel_full+2   ; [] |181| 
         00040e 45DA 
         000410 0002!
    2748                    .dwpsn  file "../src/Fuel_Gauge.c",line 182,column 9,is_stmt,isa 0
    2749 000412 43D2          MOV.B     #1,&cartridge_adapter+0 ; [] |182| 
         000414 0000!
    2750 000416 3CDE          JMP       $C$L71                ; [] 
    2751                                                      ; [] 
    2752            ;* --------------------------------------------------------------------------*
    2753 000418       $C$L65:    
    2754                    .dwpsn  file "../src/Fuel_Gauge.c",line 172,column 9,is_stmt,isa 0
    2755 000418 425C          MOV.B     &CartData+1,r12       ; [] |172| 
         00041a 0001!
    2756 00041c 425F          MOV.B     &CartData+2,r15       ; [] |172| 
         00041e 0002!
    2757 000420 1847          RPT #8 || RLAX.W r15 ; [] |172| 
         000422 5F0F 
    2758 000424 5F0C          ADD.W     r15,r12               ; [] |172| 
    2759            $C$DW$130       .dwtag  DW_TAG_TI_branch
    2760                    .dwattr $C$DW$130, DW_AT_low_pc(0x00)
    2761                    .dwattr $C$DW$130, DW_AT_name("__mspabi_fltif")
    2762                    .dwattr $C$DW$130, DW_AT_TI_call
    2763            
    2764 000426 13B0!         CALLA     #__mspabi_fltif       ; [] |172| 
         000428 0000 
    2765                                                      ; [] |172| 
    2766 00042a 4C82          MOV.W     r12,&fuel_remaining+0 ; [] |172| 
         00042c 0000!
    2767 00042e 4D82          MOV.W     r13,&fuel_remaining+2 ; [] |172| 
         000430 0002!
    2768                    .dwpsn  file "../src/Fuel_Gauge.c",line 173,column 13,is_stmt,isa 0
    2769 000432 421C          MOV.W     &fuel_remaining+0,r12 ; [] |173| 
         000434 0000!
    2770 000436 403E          MOV.W     #32768,r14            ; [] |173| 
         000438 8000 
    2771 00043a 403F          MOV.W     #17417,r15            ; [] |173| 
         00043c 4409 
    2772            $C$DW$131       .dwtag  DW_TAG_TI_branch
    2773                    .dwattr $C$DW$131, DW_AT_low_pc(0x00)
    2774                    .dwattr $C$DW$131, DW_AT_name("__mspabi_divf")
    2775                    .dwattr $C$DW$131, DW_AT_TI_call
MSP430 Assembler PC v21.6.1 Tue Dec 20 13:45:59 2022

Copyright (c) 2003-2018 Texas Instruments Incorporated
Fuel_Gauge.asm                                                       PAGE   57

    2776            
    2777 00043e 13B0!         CALLA     #__mspabi_divf        ; [] |173| 
         000440 0000 
    2778                                                      ; [] |173| 
    2779 000442 430E          MOV.W     #0,r14                ; [] |173| 
    2780 000444 403F          MOV.W     #17096,r15            ; [] |173| 
         000446 42C8 
    2781            $C$DW$132       .dwtag  DW_TAG_TI_branch
    2782                    .dwattr $C$DW$132, DW_AT_low_pc(0x00)
    2783                    .dwattr $C$DW$132, DW_AT_name("__mspabi_mpyf")
    2784                    .dwattr $C$DW$132, DW_AT_TI_call
    2785            
    2786 000448 13B0!         CALLA     #__mspabi_mpyf        ; [] |173| 
         00044a 0000 
    2787                                                      ; [] |173| 
    2788            $C$DW$133       .dwtag  DW_TAG_TI_branch
    2789                    .dwattr $C$DW$133, DW_AT_low_pc(0x00)
    2790                    .dwattr $C$DW$133, DW_AT_name("__mspabi_fixfi")
    2791                    .dwattr $C$DW$133, DW_AT_TI_call
    2792            
    2793 00044c 13B0!         CALLA     #__mspabi_fixfi       ; [] |173| 
         00044e 0000 
    2794                                                      ; [] |173| 
    2795 000450 4CC2          MOV.B     r12,&percent_remaining+0 ; [] |173| 
         000452 0000!
    2796                    .dwpsn  file "../src/Fuel_Gauge.c",line 174,column 9,is_stmt,isa 0
    2797 000454 40B2          MOV.W     #32768,&fuel_full+0   ; [] |174| 
         000456 8000 
         000458 0000!
    2798 00045a 40B2          MOV.W     #17417,&fuel_full+2   ; [] |174| 
         00045c 4409 
         00045e 0002!
    2799                    .dwpsn  file "../src/Fuel_Gauge.c",line 175,column 9,is_stmt,isa 0
    2800 000460 43C2          MOV.B     #0,&cartridge_adapter+0 ; [] |175| 
         000462 0000!
    2801 000464 3CB7          JMP       $C$L71                ; [] 
    2802                                                      ; [] 
    2803            ;* --------------------------------------------------------------------------*
    2804 000466       $C$L66:    
    2805                    .dwpsn  file "../src/Fuel_Gauge.c",line 165,column 9,is_stmt,isa 0
    2806 000466 425C          MOV.B     &CartData+1,r12       ; [] |165| 
         000468 0001!
    2807 00046a 425F          MOV.B     &CartData+2,r15       ; [] |165| 
         00046c 0002!
    2808 00046e 1847          RPT #8 || RLAX.W r15 ; [] |165| 
         000470 5F0F 
    2809 000472 5F0C          ADD.W     r15,r12               ; [] |165| 
    2810            $C$DW$134       .dwtag  DW_TAG_TI_branch
    2811                    .dwattr $C$DW$134, DW_AT_low_pc(0x00)
    2812                    .dwattr $C$DW$134, DW_AT_name("__mspabi_fltif")
    2813                    .dwattr $C$DW$134, DW_AT_TI_call
    2814            
    2815 000474 13B0!         CALLA     #__mspabi_fltif       ; [] |165| 
         000476 0000 
    2816                                                      ; [] |165| 
MSP430 Assembler PC v21.6.1 Tue Dec 20 13:45:59 2022

Copyright (c) 2003-2018 Texas Instruments Incorporated
Fuel_Gauge.asm                                                       PAGE   58

    2817 000478 4C82          MOV.W     r12,&fuel_remaining+0 ; [] |165| 
         00047a 0000!
    2818 00047c 4D82          MOV.W     r13,&fuel_remaining+2 ; [] |165| 
         00047e 0002!
    2819                    .dwpsn  file "../src/Fuel_Gauge.c",line 166,column 13,is_stmt,isa 0
    2820 000480 421C          MOV.W     &fuel_remaining+0,r12 ; [] |166| 
         000482 0000!
    2821 000484 430E          MOV.W     #0,r14                ; [] |166| 
    2822 000486 403F          MOV.W     #17558,r15            ; [] |166| 
         000488 4496 
    2823            $C$DW$135       .dwtag  DW_TAG_TI_branch
    2824                    .dwattr $C$DW$135, DW_AT_low_pc(0x00)
    2825                    .dwattr $C$DW$135, DW_AT_name("__mspabi_divf")
    2826                    .dwattr $C$DW$135, DW_AT_TI_call
    2827            
    2828 00048a 13B0!         CALLA     #__mspabi_divf        ; [] |166| 
         00048c 0000 
    2829                                                      ; [] |166| 
    2830 00048e 430E          MOV.W     #0,r14                ; [] |166| 
    2831 000490 403F          MOV.W     #17096,r15            ; [] |166| 
         000492 42C8 
    2832            $C$DW$136       .dwtag  DW_TAG_TI_branch
    2833                    .dwattr $C$DW$136, DW_AT_low_pc(0x00)
    2834                    .dwattr $C$DW$136, DW_AT_name("__mspabi_mpyf")
    2835                    .dwattr $C$DW$136, DW_AT_TI_call
    2836            
    2837 000494 13B0!         CALLA     #__mspabi_mpyf        ; [] |166| 
         000496 0000 
    2838                                                      ; [] |166| 
    2839            $C$DW$137       .dwtag  DW_TAG_TI_branch
    2840                    .dwattr $C$DW$137, DW_AT_low_pc(0x00)
    2841                    .dwattr $C$DW$137, DW_AT_name("__mspabi_fixfi")
    2842                    .dwattr $C$DW$137, DW_AT_TI_call
    2843            
    2844 000498 13B0!         CALLA     #__mspabi_fixfi       ; [] |166| 
         00049a 0000 
    2845                                                      ; [] |166| 
    2846 00049c 4CC2          MOV.B     r12,&percent_remaining+0 ; [] |166| 
         00049e 0000!
    2847                    .dwpsn  file "../src/Fuel_Gauge.c",line 167,column 9,is_stmt,isa 0
    2848 0004a0 4382          MOV.W     #0,&fuel_full+0       ; [] |167| 
         0004a2 0000!
    2849 0004a4 40B2          MOV.W     #17558,&fuel_full+2   ; [] |167| 
         0004a6 4496 
         0004a8 0002!
    2850                    .dwpsn  file "../src/Fuel_Gauge.c",line 168,column 9,is_stmt,isa 0
    2851 0004aa 43C2          MOV.B     #0,&cartridge_adapter+0 ; [] |168| 
         0004ac 0000!
    2852 0004ae 3C92          JMP       $C$L71                ; [] 
    2853                                                      ; [] 
    2854            ;* --------------------------------------------------------------------------*
    2855 0004b0       $C$L67:    
    2856                    .dwpsn  file "../src/Fuel_Gauge.c",line 158,column 9,is_stmt,isa 0
    2857 0004b0 425C          MOV.B     &CartData+1,r12       ; [] |158| 
         0004b2 0001!
MSP430 Assembler PC v21.6.1 Tue Dec 20 13:45:59 2022

Copyright (c) 2003-2018 Texas Instruments Incorporated
Fuel_Gauge.asm                                                       PAGE   59

    2858 0004b4 425F          MOV.B     &CartData+2,r15       ; [] |158| 
         0004b6 0002!
    2859 0004b8 1847          RPT #8 || RLAX.W r15 ; [] |158| 
         0004ba 5F0F 
    2860 0004bc 5F0C          ADD.W     r15,r12               ; [] |158| 
    2861            $C$DW$138       .dwtag  DW_TAG_TI_branch
    2862                    .dwattr $C$DW$138, DW_AT_low_pc(0x00)
    2863                    .dwattr $C$DW$138, DW_AT_name("__mspabi_fltif")
    2864                    .dwattr $C$DW$138, DW_AT_TI_call
    2865            
    2866 0004be 13B0!         CALLA     #__mspabi_fltif       ; [] |158| 
         0004c0 0000 
    2867                                                      ; [] |158| 
    2868 0004c2 4C82          MOV.W     r12,&fuel_remaining+0 ; [] |158| 
         0004c4 0000!
    2869 0004c6 4D82          MOV.W     r13,&fuel_remaining+2 ; [] |158| 
         0004c8 0002!
    2870                    .dwpsn  file "../src/Fuel_Gauge.c",line 159,column 13,is_stmt,isa 0
    2871 0004ca 421C          MOV.W     &fuel_remaining+0,r12 ; [] |159| 
         0004cc 0000!
    2872 0004ce 403E          MOV.W     #47104,r14            ; [] |159| 
         0004d0 B800 
    2873 0004d2 403F          MOV.W     #18056,r15            ; [] |159| 
         0004d4 4688 
    2874            $C$DW$139       .dwtag  DW_TAG_TI_branch
    2875                    .dwattr $C$DW$139, DW_AT_low_pc(0x00)
    2876                    .dwattr $C$DW$139, DW_AT_name("__mspabi_divf")
    2877                    .dwattr $C$DW$139, DW_AT_TI_call
    2878            
    2879 0004d6 13B0!         CALLA     #__mspabi_divf        ; [] |159| 
         0004d8 0000 
    2880                                                      ; [] |159| 
    2881 0004da 430E          MOV.W     #0,r14                ; [] |159| 
    2882 0004dc 403F          MOV.W     #17096,r15            ; [] |159| 
         0004de 42C8 
    2883            $C$DW$140       .dwtag  DW_TAG_TI_branch
    2884                    .dwattr $C$DW$140, DW_AT_low_pc(0x00)
    2885                    .dwattr $C$DW$140, DW_AT_name("__mspabi_mpyf")
    2886                    .dwattr $C$DW$140, DW_AT_TI_call
    2887            
    2888 0004e0 13B0!         CALLA     #__mspabi_mpyf        ; [] |159| 
         0004e2 0000 
    2889                                                      ; [] |159| 
    2890            $C$DW$141       .dwtag  DW_TAG_TI_branch
    2891                    .dwattr $C$DW$141, DW_AT_low_pc(0x00)
    2892                    .dwattr $C$DW$141, DW_AT_name("__mspabi_fixfi")
    2893                    .dwattr $C$DW$141, DW_AT_TI_call
    2894            
    2895 0004e4 13B0!         CALLA     #__mspabi_fixfi       ; [] |159| 
         0004e6 0000 
    2896                                                      ; [] |159| 
    2897 0004e8 4CC2          MOV.B     r12,&percent_remaining+0 ; [] |159| 
         0004ea 0000!
    2898                    .dwpsn  file "../src/Fuel_Gauge.c",line 160,column 9,is_stmt,isa 0
    2899 0004ec 40B2          MOV.W     #47104,&fuel_full+0   ; [] |160| 
MSP430 Assembler PC v21.6.1 Tue Dec 20 13:45:59 2022

Copyright (c) 2003-2018 Texas Instruments Incorporated
Fuel_Gauge.asm                                                       PAGE   60

         0004ee B800 
         0004f0 0000!
    2900 0004f2 40B2          MOV.W     #18056,&fuel_full+2   ; [] |160| 
         0004f4 4688 
         0004f6 0002!
    2901                    .dwpsn  file "../src/Fuel_Gauge.c",line 161,column 9,is_stmt,isa 0
    2902 0004f8 43D2          MOV.B     #1,&cartridge_adapter+0 ; [] |161| 
         0004fa 0000!
    2903 0004fc 3C6B          JMP       $C$L71                ; [] 
    2904                                                      ; [] 
    2905            ;* --------------------------------------------------------------------------*
    2906 0004fe       $C$L68:    
    2907                    .dwpsn  file "../src/Fuel_Gauge.c",line 151,column 9,is_stmt,isa 0
    2908 0004fe 425C          MOV.B     &CartData+1,r12       ; [] |151| 
         000500 0001!
    2909 000502 425F          MOV.B     &CartData+2,r15       ; [] |151| 
         000504 0002!
    2910 000506 1847          RPT #8 || RLAX.W r15 ; [] |151| 
         000508 5F0F 
    2911 00050a 5F0C          ADD.W     r15,r12               ; [] |151| 
    2912            $C$DW$142       .dwtag  DW_TAG_TI_branch
    2913                    .dwattr $C$DW$142, DW_AT_low_pc(0x00)
    2914                    .dwattr $C$DW$142, DW_AT_name("__mspabi_fltif")
    2915                    .dwattr $C$DW$142, DW_AT_TI_call
    2916            
    2917 00050c 13B0!         CALLA     #__mspabi_fltif       ; [] |151| 
         00050e 0000 
    2918                                                      ; [] |151| 
    2919 000510 4C82          MOV.W     r12,&fuel_remaining+0 ; [] |151| 
         000512 0000!
    2920 000514 4D82          MOV.W     r13,&fuel_remaining+2 ; [] |151| 
         000516 0002!
    2921                    .dwpsn  file "../src/Fuel_Gauge.c",line 152,column 13,is_stmt,isa 0
    2922 000518 421C          MOV.W     &fuel_remaining+0,r12 ; [] |152| 
         00051a 0000!
    2923 00051c 403E          MOV.W     #49152,r14            ; [] |152| 
         00051e C000 
    2924 000520 403F          MOV.W     #17754,r15            ; [] |152| 
         000522 455A 
    2925            $C$DW$143       .dwtag  DW_TAG_TI_branch
    2926                    .dwattr $C$DW$143, DW_AT_low_pc(0x00)
    2927                    .dwattr $C$DW$143, DW_AT_name("__mspabi_divf")
    2928                    .dwattr $C$DW$143, DW_AT_TI_call
    2929            
    2930 000524 13B0!         CALLA     #__mspabi_divf        ; [] |152| 
         000526 0000 
    2931                                                      ; [] |152| 
    2932 000528 430E          MOV.W     #0,r14                ; [] |152| 
    2933 00052a 403F          MOV.W     #17096,r15            ; [] |152| 
         00052c 42C8 
    2934            $C$DW$144       .dwtag  DW_TAG_TI_branch
    2935                    .dwattr $C$DW$144, DW_AT_low_pc(0x00)
    2936                    .dwattr $C$DW$144, DW_AT_name("__mspabi_mpyf")
    2937                    .dwattr $C$DW$144, DW_AT_TI_call
    2938            
MSP430 Assembler PC v21.6.1 Tue Dec 20 13:45:59 2022

Copyright (c) 2003-2018 Texas Instruments Incorporated
Fuel_Gauge.asm                                                       PAGE   61

    2939 00052e 13B0!         CALLA     #__mspabi_mpyf        ; [] |152| 
         000530 0000 
    2940                                                      ; [] |152| 
    2941            $C$DW$145       .dwtag  DW_TAG_TI_branch
    2942                    .dwattr $C$DW$145, DW_AT_low_pc(0x00)
    2943                    .dwattr $C$DW$145, DW_AT_name("__mspabi_fixfi")
    2944                    .dwattr $C$DW$145, DW_AT_TI_call
    2945            
    2946 000532 13B0!         CALLA     #__mspabi_fixfi       ; [] |152| 
         000534 0000 
    2947                                                      ; [] |152| 
    2948 000536 4CC2          MOV.B     r12,&percent_remaining+0 ; [] |152| 
         000538 0000!
    2949                    .dwpsn  file "../src/Fuel_Gauge.c",line 153,column 9,is_stmt,isa 0
    2950 00053a 40B2          MOV.W     #49152,&fuel_full+0   ; [] |153| 
         00053c C000 
         00053e 0000!
    2951 000540 40B2          MOV.W     #17754,&fuel_full+2   ; [] |153| 
         000542 455A 
         000544 0002!
    2952                    .dwpsn  file "../src/Fuel_Gauge.c",line 154,column 9,is_stmt,isa 0
    2953 000546 43D2          MOV.B     #1,&cartridge_adapter+0 ; [] |154| 
         000548 0000!
    2954 00054a 3C44          JMP       $C$L71                ; [] 
    2955                                                      ; [] 
    2956            ;* --------------------------------------------------------------------------*
    2957 00054c       $C$L69:    
    2958                    .dwpsn  file "../src/Fuel_Gauge.c",line 144,column 9,is_stmt,isa 0
    2959 00054c 425C          MOV.B     &CartData+1,r12       ; [] |144| 
         00054e 0001!
    2960 000550 425F          MOV.B     &CartData+2,r15       ; [] |144| 
         000552 0002!
    2961 000554 1847          RPT #8 || RLAX.W r15 ; [] |144| 
         000556 5F0F 
    2962 000558 5F0C          ADD.W     r15,r12               ; [] |144| 
    2963            $C$DW$146       .dwtag  DW_TAG_TI_branch
    2964                    .dwattr $C$DW$146, DW_AT_low_pc(0x00)
    2965                    .dwattr $C$DW$146, DW_AT_name("__mspabi_fltif")
    2966                    .dwattr $C$DW$146, DW_AT_TI_call
    2967            
    2968 00055a 13B0!         CALLA     #__mspabi_fltif       ; [] |144| 
         00055c 0000 
    2969                                                      ; [] |144| 
    2970 00055e 4C82          MOV.W     r12,&fuel_remaining+0 ; [] |144| 
         000560 0000!
    2971 000562 4D82          MOV.W     r13,&fuel_remaining+2 ; [] |144| 
         000564 0002!
    2972                    .dwpsn  file "../src/Fuel_Gauge.c",line 145,column 13,is_stmt,isa 0
    2973 000566 421C          MOV.W     &fuel_remaining+0,r12 ; [] |145| 
         000568 0000!
    2974 00056a 430E          MOV.W     #0,r14                ; [] |145| 
    2975 00056c 403F          MOV.W     #17254,r15            ; [] |145| 
         00056e 4366 
    2976            $C$DW$147       .dwtag  DW_TAG_TI_branch
    2977                    .dwattr $C$DW$147, DW_AT_low_pc(0x00)
MSP430 Assembler PC v21.6.1 Tue Dec 20 13:45:59 2022

Copyright (c) 2003-2018 Texas Instruments Incorporated
Fuel_Gauge.asm                                                       PAGE   62

    2978                    .dwattr $C$DW$147, DW_AT_name("__mspabi_divf")
    2979                    .dwattr $C$DW$147, DW_AT_TI_call
    2980            
    2981 000570 13B0!         CALLA     #__mspabi_divf        ; [] |145| 
         000572 0000 
    2982                                                      ; [] |145| 
    2983 000574 430E          MOV.W     #0,r14                ; [] |145| 
    2984 000576 403F          MOV.W     #17096,r15            ; [] |145| 
         000578 42C8 
    2985            $C$DW$148       .dwtag  DW_TAG_TI_branch
    2986                    .dwattr $C$DW$148, DW_AT_low_pc(0x00)
    2987                    .dwattr $C$DW$148, DW_AT_name("__mspabi_mpyf")
    2988                    .dwattr $C$DW$148, DW_AT_TI_call
    2989            
    2990 00057a 13B0!         CALLA     #__mspabi_mpyf        ; [] |145| 
         00057c 0000 
    2991                                                      ; [] |145| 
    2992            $C$DW$149       .dwtag  DW_TAG_TI_branch
    2993                    .dwattr $C$DW$149, DW_AT_low_pc(0x00)
    2994                    .dwattr $C$DW$149, DW_AT_name("__mspabi_fixfi")
    2995                    .dwattr $C$DW$149, DW_AT_TI_call
    2996            
    2997 00057e 13B0!         CALLA     #__mspabi_fixfi       ; [] |145| 
         000580 0000 
    2998                                                      ; [] |145| 
    2999 000582 4CC2          MOV.B     r12,&percent_remaining+0 ; [] |145| 
         000584 0000!
    3000                    .dwpsn  file "../src/Fuel_Gauge.c",line 146,column 9,is_stmt,isa 0
    3001 000586 4382          MOV.W     #0,&fuel_full+0       ; [] |146| 
         000588 0000!
    3002 00058a 40B2          MOV.W     #17254,&fuel_full+2   ; [] |146| 
         00058c 4366 
         00058e 0002!
    3003                    .dwpsn  file "../src/Fuel_Gauge.c",line 147,column 9,is_stmt,isa 0
    3004 000590 43C2          MOV.B     #0,&cartridge_adapter+0 ; [] |147| 
         000592 0000!
    3005 000594 3C1F          JMP       $C$L71                ; [] 
    3006                                                      ; [] 
    3007            ;* --------------------------------------------------------------------------*
    3008 000596       $C$L70:    
    3009                    .dwpsn  file "../src/Fuel_Gauge.c",line 138,column 9,is_stmt,isa 0
    3010 000596 425C          MOV.B     &CartData+0,r12       ; [] |138| 
         000598 0000!
    3011            $C$DW$150       .dwtag  DW_TAG_TI_branch
    3012                    .dwattr $C$DW$150, DW_AT_low_pc(0x00)
    3013                    .dwattr $C$DW$150, DW_AT_name("__mspabi_fltuf")
    3014                    .dwattr $C$DW$150, DW_AT_TI_call
    3015            
    3016 00059a 13B0!         CALLA     #__mspabi_fltuf       ; [] |138| 
         00059c 0000 
    3017                                                      ; [] |138| 
    3018 00059e 430E          MOV.W     #0,r14                ; [] |138| 
    3019 0005a0 403F          MOV.W     #16544,r15            ; [] |138| 
         0005a2 40A0 
    3020            $C$DW$151       .dwtag  DW_TAG_TI_branch
MSP430 Assembler PC v21.6.1 Tue Dec 20 13:45:59 2022

Copyright (c) 2003-2018 Texas Instruments Incorporated
Fuel_Gauge.asm                                                       PAGE   63

    3021                    .dwattr $C$DW$151, DW_AT_low_pc(0x00)
    3022                    .dwattr $C$DW$151, DW_AT_name("__mspabi_mpyf")
    3023                    .dwattr $C$DW$151, DW_AT_TI_call
    3024            
    3025 0005a4 13B0!         CALLA     #__mspabi_mpyf        ; [] |138| 
         0005a6 0000 
    3026                                                      ; [] |138| 
    3027 0005a8 4C82          MOV.W     r12,&fuel_remaining+0 ; [] |138| 
         0005aa 0000!
    3028 0005ac 4D82          MOV.W     r13,&fuel_remaining+2 ; [] |138| 
         0005ae 0002!
    3029                    .dwpsn  file "../src/Fuel_Gauge.c",line 139,column 13,is_stmt,isa 0
    3030 0005b0 421C          MOV.W     &fuel_remaining+0,r12 ; [] |139| 
         0005b2 0000!
    3031 0005b4 430E          MOV.W     #0,r14                ; [] |139| 
    3032 0005b6 403F          MOV.W     #17254,r15            ; [] |139| 
         0005b8 4366 
    3033            $C$DW$152       .dwtag  DW_TAG_TI_branch
    3034                    .dwattr $C$DW$152, DW_AT_low_pc(0x00)
    3035                    .dwattr $C$DW$152, DW_AT_name("__mspabi_divf")
    3036                    .dwattr $C$DW$152, DW_AT_TI_call
    3037            
    3038 0005ba 13B0!         CALLA     #__mspabi_divf        ; [] |139| 
         0005bc 0000 
    3039                                                      ; [] |139| 
    3040 0005be 430E          MOV.W     #0,r14                ; [] |139| 
    3041 0005c0 403F          MOV.W     #17096,r15            ; [] |139| 
         0005c2 42C8 
    3042            $C$DW$153       .dwtag  DW_TAG_TI_branch
    3043                    .dwattr $C$DW$153, DW_AT_low_pc(0x00)
    3044                    .dwattr $C$DW$153, DW_AT_name("__mspabi_mpyf")
    3045                    .dwattr $C$DW$153, DW_AT_TI_call
    3046            
    3047 0005c4 13B0!         CALLA     #__mspabi_mpyf        ; [] |139| 
         0005c6 0000 
    3048                                                      ; [] |139| 
    3049            $C$DW$154       .dwtag  DW_TAG_TI_branch
    3050                    .dwattr $C$DW$154, DW_AT_low_pc(0x00)
    3051                    .dwattr $C$DW$154, DW_AT_name("__mspabi_fixfi")
    3052                    .dwattr $C$DW$154, DW_AT_TI_call
    3053            
    3054 0005c8 13B0!         CALLA     #__mspabi_fixfi       ; [] |139| 
         0005ca 0000 
    3055                                                      ; [] |139| 
    3056 0005cc 4CC2          MOV.B     r12,&percent_remaining+0 ; [] |139| 
         0005ce 0000!
    3057                    .dwpsn  file "../src/Fuel_Gauge.c",line 140,column 9,is_stmt,isa 0
    3058 0005d0 43C2          MOV.B     #0,&cartridge_adapter+0 ; [] |140| 
         0005d2 0000!
    3059            ;* --------------------------------------------------------------------------*
    3060 0005d4       $C$L71:    
    3061                    .dwpsn  file "../src/Fuel_Gauge.c",line 232,column 9,is_stmt,isa 0
    3062 0005d4 434F          MOV.B     #0,r15                ; [] |232| 
    3063 0005d6 92F2          CMP.B     #8,&modelno+0         ; [] |232| 
         0005d8 0000!
MSP430 Assembler PC v21.6.1 Tue Dec 20 13:45:59 2022

Copyright (c) 2003-2018 Texas Instruments Incorporated
Fuel_Gauge.asm                                                       PAGE   64

    3064 0005da 2801          JLO       $C$L72                ; [] |232| 
    3065                                                      ; [] |232| 
    3066            ;* --------------------------------------------------------------------------*
    3067 0005dc 435F          MOV.B     #1,r15                ; [] |232| 
    3068            ;* --------------------------------------------------------------------------*
    3069 0005de       $C$L72:    
    3070 0005de 4FC2          MOV.B     r15,&Snorkel_Cartridge+0 ; [] |232| 
         0005e0 0000!
    3071                    .dwpsn  file "../src/Fuel_Gauge.c",line 236,column 7,is_stmt,isa 0
    3072 0005e2 93C2          TST.B     &Reprogram_Cartridge+0 ; [] |236| 
         0005e4 0000!
    3073 0005e6 2414          JEQ       $C$L75                ; [] |236| 
    3074                                                      ; [] |236| 
    3075            ;* --------------------------------------------------------------------------*
    3076 0005e8 90F2          CMP.B     #9,&modelno+0         ; [] |236| 
         0005ea 0009 
         0005ec 0000!
    3077 0005ee 2404          JEQ       $C$L73                ; [] |236| 
    3078                                                      ; [] |236| 
    3079            ;* --------------------------------------------------------------------------*
    3080 0005f0 90F2          CMP.B     #100,&percent_remaining+0 ; [] |236| 
         0005f2 0064 
         0005f4 0000!
    3081 0005f6 2C08          JHS       $C$L74                ; [] |236| 
    3082                                                      ; [] |236| 
    3083            ;* --------------------------------------------------------------------------*
    3084 0005f8       $C$L73:    
    3085 0005f8 90F2          CMP.B     #9,&modelno+0         ; [] |236| 
         0005fa 0009 
         0005fc 0000!
    3086 0005fe 2008          JNE       $C$L75                ; [] |236| 
    3087                                                      ; [] |236| 
    3088            ;* --------------------------------------------------------------------------*
    3089 000600 90F2          CMP.B     #33,&percent_remaining+0 ; [] |236| 
         000602 0021 
         000604 0000!
    3090 000606 2804          JLO       $C$L75                ; [] |236| 
    3091                                                      ; [] |236| 
    3092            ;* --------------------------------------------------------------------------*
    3093 000608       $C$L74:    
    3094                    .dwpsn  file "../src/Fuel_Gauge.c",line 238,column 9,is_stmt,isa 0
    3095 000608 43D2          MOV.B     #1,&Cartridge_Programmed+0 ; [] |238| 
         00060a 0000!
    3096                    .dwpsn  file "../src/Fuel_Gauge.c",line 239,column 9,is_stmt,isa 0
    3097 00060c 43C2          MOV.B     #0,&Reprogram_Cartridge+0 ; [] |239| 
         00060e 0000!
    3098            ;* --------------------------------------------------------------------------*
    3099 000610       $C$L75:    
    3100                    .dwpsn  file "../src/Fuel_Gauge.c",line 243,column 7,is_stmt,isa 0
    3101 000610 9392          CMP.W     #1,&error_message+24  ; [] |243| 
         000612 0018!
    3102 000614 2006          JNE       $C$L76                ; [] |243| 
    3103                                                      ; [] |243| 
    3104            ;* --------------------------------------------------------------------------*
    3105 000616 90F2          CMP.B     #20,&percent_remaining+0 ; [] |243| 
MSP430 Assembler PC v21.6.1 Tue Dec 20 13:45:59 2022

Copyright (c) 2003-2018 Texas Instruments Incorporated
Fuel_Gauge.asm                                                       PAGE   65

         000618 0014 
         00061a 0000!
    3106 00061c 2802          JLO       $C$L76                ; [] |243| 
    3107                                                      ; [] |243| 
    3108            ;* --------------------------------------------------------------------------*
    3109                    .dwpsn  file "../src/Fuel_Gauge.c",line 245,column 9,is_stmt,isa 0
    3110 00061e 4382          MOV.W     #0,&error_message+24  ; [] |245| 
         000620 0018!
    3111            ;* --------------------------------------------------------------------------*
    3112 000622       $C$L76:    
    3113                    .dwpsn  file "../src/Fuel_Gauge.c",line 249,column 29,is_stmt,isa 0
    3114 000622 430C          MOV.W     #0,r12                ; [] |249| 
    3115 000624 430D          MOV.W     #0,r13                ; [] |249| 
    3116 000626 421E          MOV.W     &main_fuel_flow+0,r14 ; [] |249| 
         000628 0000!
    3117 00062a 421F          MOV.W     &main_fuel_flow+2,r15 ; [] |249| 
         00062c 0002!
    3118            $C$DW$155       .dwtag  DW_TAG_TI_branch
    3119                    .dwattr $C$DW$155, DW_AT_low_pc(0x00)
    3120                    .dwattr $C$DW$155, DW_AT_name("__mspabi_cmpf")
    3121                    .dwattr $C$DW$155, DW_AT_TI_call
    3122            
    3123 00062e 13B0!         CALLA     #__mspabi_cmpf        ; [] |249| 
         000630 0000 
    3124                                                      ; [] |249| 
    3125 000632 930C          TST.W     r12                   ; [] |249| 
    3126 000634 3427          JGE       $C$L77                ; [] |249| 
    3127                                                      ; [] |249| 
    3128            ;* --------------------------------------------------------------------------*
    3129 000636 421C          MOV.W     &fuel_remaining+0,r12 ; [] |249| 
         000638 0000!
    3130 00063a 421D          MOV.W     &fuel_remaining+2,r13 ; [] |249| 
         00063c 0002!
    3131 00063e 421E          MOV.W     &main_fuel_flow+0,r14 ; [] |249| 
         000640 0000!
    3132 000642 421F          MOV.W     &main_fuel_flow+2,r15 ; [] |249| 
         000644 0002!
    3133            $C$DW$156       .dwtag  DW_TAG_TI_branch
    3134                    .dwattr $C$DW$156, DW_AT_low_pc(0x00)
    3135                    .dwattr $C$DW$156, DW_AT_name("__mspabi_divf")
    3136                    .dwattr $C$DW$156, DW_AT_TI_call
    3137            
    3138 000646 13B0!         CALLA     #__mspabi_divf        ; [] |249| 
         000648 0000 
    3139                                                      ; [] |249| 
    3140 00064a 430E          MOV.W     #0,r14                ; [] |249| 
    3141 00064c 403F          MOV.W     #17658,r15            ; [] |249| 
         00064e 44FA 
    3142            $C$DW$157       .dwtag  DW_TAG_TI_branch
    3143                    .dwattr $C$DW$157, DW_AT_low_pc(0x00)
    3144                    .dwattr $C$DW$157, DW_AT_name("__mspabi_divf")
    3145                    .dwattr $C$DW$157, DW_AT_TI_call
    3146            
    3147 000650 13B0!         CALLA     #__mspabi_divf        ; [] |249| 
         000652 0000 
MSP430 Assembler PC v21.6.1 Tue Dec 20 13:45:59 2022

Copyright (c) 2003-2018 Texas Instruments Incorporated
Fuel_Gauge.asm                                                       PAGE   66

    3148                                                      ; [] |249| 
    3149 000654 0CC9          MOVA      r12,r9                ; [] |249| 
    3150 000656 0DCA          MOVA      r13,r10               ; [] |249| 
    3151 000658 421C          MOV.W     &runtime_remaining+0,r12 ; [] |249| 
         00065a 0000!
    3152 00065c 421D          MOV.W     &runtime_remaining+2,r13 ; [] |249| 
         00065e 0002!
    3153 000660 403E          MOV.W     #57344,r14            ; [] |249| 
         000662 E000 
    3154 000664 403F          MOV.W     #17657,r15            ; [] |249| 
         000666 44F9 
    3155            $C$DW$158       .dwtag  DW_TAG_TI_branch
    3156                    .dwattr $C$DW$158, DW_AT_low_pc(0x00)
    3157                    .dwattr $C$DW$158, DW_AT_name("__mspabi_mpyf")
    3158                    .dwattr $C$DW$158, DW_AT_TI_call
    3159            
    3160 000668 13B0!         CALLA     #__mspabi_mpyf        ; [] |249| 
         00066a 0000 
    3161                                                      ; [] |249| 
    3162 00066c 430E          MOV.W     #0,r14                ; [] |249| 
    3163 00066e 403F          MOV.W     #17658,r15            ; [] |249| 
         000670 44FA 
    3164            $C$DW$159       .dwtag  DW_TAG_TI_branch
    3165                    .dwattr $C$DW$159, DW_AT_low_pc(0x00)
    3166                    .dwattr $C$DW$159, DW_AT_name("__mspabi_divf")
    3167                    .dwattr $C$DW$159, DW_AT_TI_call
    3168            
    3169 000672 13B0!         CALLA     #__mspabi_divf        ; [] |249| 
         000674 0000 
    3170                                                      ; [] |249| 
    3171 000676 0CCE          MOVA      r12,r14               ; [] |249| 
    3172 000678 0DCF          MOVA      r13,r15               ; [] |249| 
    3173 00067a 09CC          MOVA      r9,r12                ; [] |249| 
    3174 00067c 0ACD          MOVA      r10,r13               ; [] |249| 
    3175            $C$DW$160       .dwtag  DW_TAG_TI_branch
    3176                    .dwattr $C$DW$160, DW_AT_low_pc(0x00)
    3177                    .dwattr $C$DW$160, DW_AT_name("__mspabi_addf")
    3178                    .dwattr $C$DW$160, DW_AT_TI_call
    3179            
    3180 00067e 13B0!         CALLA     #__mspabi_addf        ; [] |249| 
         000680 0000 
    3181                                                      ; [] |249| 
    3182 000682 3C02          JMP       $C$L78                ; [] |249| 
    3183                                                      ; [] |249| 
    3184            ;* --------------------------------------------------------------------------*
    3185 000684       $C$L77:    
    3186 000684 430C          MOV.W     #0,r12                ; [] |249| 
    3187 000686 430D          MOV.W     #0,r13                ; [] |249| 
    3188            ;* --------------------------------------------------------------------------*
    3189 000688       $C$L78:    
    3190 000688 4C82          MOV.W     r12,&runtime_remaining+0 ; [] |249| 
         00068a 0000!
    3191 00068c 4D82          MOV.W     r13,&runtime_remaining+2 ; [] |249| 
         00068e 0002!
    3192                    .dwpsn  file "../src/Fuel_Gauge.c",line 251,column 7,is_stmt,isa 0
MSP430 Assembler PC v21.6.1 Tue Dec 20 13:45:59 2022

Copyright (c) 2003-2018 Texas Instruments Incorporated
Fuel_Gauge.asm                                                       PAGE   67

    3193 000690 421C          MOV.W     &runtime_remaining+0,r12 ; [] |251| 
         000692 0000!
    3194 000694 430E          MOV.W     #0,r14                ; [] |251| 
    3195 000696 430F          MOV.W     #0,r15                ; [] |251| 
    3196            $C$DW$161       .dwtag  DW_TAG_TI_branch
    3197                    .dwattr $C$DW$161, DW_AT_low_pc(0x00)
    3198                    .dwattr $C$DW$161, DW_AT_name("__mspabi_cmpf")
    3199                    .dwattr $C$DW$161, DW_AT_TI_call
    3200            
    3201 000698 13B0!         CALLA     #__mspabi_cmpf        ; [] |251| 
         00069a 0000 
    3202                                                      ; [] |251| 
    3203 00069c 930C          TST.W     r12                   ; [] |251| 
    3204 00069e 3404          JGE       $C$L79                ; [] |251| 
    3205                                                      ; [] |251| 
    3206            ;* --------------------------------------------------------------------------*
    3207                    .dwpsn  file "../src/Fuel_Gauge.c",line 251,column 36,is_stmt,isa 0
    3208 0006a0 4382          MOV.W     #0,&runtime_remaining+0 ; [] |251| 
         0006a2 0000!
    3209 0006a4 4382          MOV.W     #0,&runtime_remaining+2 ; [] |251| 
         0006a6 0002!
    3210            ;* --------------------------------------------------------------------------*
    3211 0006a8       $C$L79:    
    3212                    .dwpsn  file "../src/Fuel_Gauge.c",line 252,column 7,is_stmt,isa 0
    3213 0006a8 403C          MOV.W     #16384,r12            ; [] |252| 
         0006aa 4000 
    3214 0006ac 403D          MOV.W     #17820,r13            ; [] |252| 
         0006ae 459C 
    3215 0006b0 421E          MOV.W     &runtime_remaining+0,r14 ; [] |252| 
         0006b2 0000!
    3216 0006b4 421F          MOV.W     &runtime_remaining+2,r15 ; [] |252| 
         0006b6 0002!
    3217            $C$DW$162       .dwtag  DW_TAG_TI_branch
    3218                    .dwattr $C$DW$162, DW_AT_low_pc(0x00)
    3219                    .dwattr $C$DW$162, DW_AT_name("__mspabi_cmpf")
    3220                    .dwattr $C$DW$162, DW_AT_TI_call
    3221            
    3222 0006b8 13B0!         CALLA     #__mspabi_cmpf        ; [] |252| 
         0006ba 0000 
    3223                                                      ; [] |252| 
    3224 0006bc 930C          TST.W     r12                   ; [] |252| 
    3225 0006be 3406          JGE       $C$L80                ; [] |252| 
    3226                                                      ; [] |252| 
    3227            ;* --------------------------------------------------------------------------*
    3228                    .dwpsn  file "../src/Fuel_Gauge.c",line 252,column 39,is_stmt,isa 0
    3229 0006c0 40B2          MOV.W     #16384,&runtime_remaining+0 ; [] |252| 
         0006c2 4000 
