MSP430 Assembler PC v21.6.1 Tue Dec 20 14:10:54 2022

Copyright (c) 2003-2018 Texas Instruments Incorporated
ISR.asm                                                              PAGE    1

       1            ;******************************************************************************
       2            ;* MSP430 G3 C/C++ Codegen                                              PC v21.6.1.LTS *
       3            ;* Date/Time created: Tue Dec 20 14:10:54 2022                                *
       4            ;******************************************************************************
       5                    .compiler_opts --abi=eabi --diag_wrap=off --hll_source=on --mem_model:code=large --mem_model:d
       6            
       7            $C$DW$CU        .dwtag  DW_TAG_compile_unit
       8                    .dwattr $C$DW$CU, DW_AT_name("../src/ISR.c")
       9                    .dwattr $C$DW$CU, DW_AT_producer("TI MSP430 G3 C/C++ Codegen PC v21.6.1.LTS Copyright (c) 2003
      10                    .dwattr $C$DW$CU, DW_AT_TI_version(0x01)
      11                    .dwattr $C$DW$CU, DW_AT_comp_dir("C:\Users\MCourson\workspace_v11\MZERO_HB50Board\Debug")
      12            ;       Interrupt vector table mappings
      13 000000               .intvec ".int47",       P1_ISR
         000000       
      14 000000               .intvec ".int53",       Timer_A
         000000       
      15 000000               .intvec ".int54",       TA0_ISR
         000000       
      16 000000               .intvec ".int46",       U1TX_ISR
         000000       
      17 000000               .intvec ".int48",       Timer1_A1
         000000       
      18 000000               .intvec ".int49",       TA1_ISR
         000000       
      19 000000               .intvec ".int56",       USCI_B0_ISR
         000000       
      20 000000               .intvec ".int45",       USCI_B1_ISR
         000000       
      21 000000               .intvec ".int51",       USCI_B2_ISR
         000000       
      22 000000               .intvec ".int57",       USCI_A0_ISR
         000000       
      23            $C$DW$1 .dwtag  DW_TAG_variable
      24                    .dwattr $C$DW$1, DW_AT_name("ADC12CTL0")
      25                    .dwattr $C$DW$1, DW_AT_TI_symbol_name("ADC12CTL0")
      26                    .dwattr $C$DW$1, DW_AT_type(*$C$DW$T$122)
      27                    .dwattr $C$DW$1, DW_AT_declaration
      28                    .dwattr $C$DW$1, DW_AT_external
      29                    .dwattr $C$DW$1, DW_AT_decl_file("C:\ti\ccs1110\ccs\ccs_base\msp430\include\msp430f5438a.h")
      30                    .dwattr $C$DW$1, DW_AT_decl_line(0x9e)
      31                    .dwattr $C$DW$1, DW_AT_decl_column(0x01)
      32            
      33            $C$DW$2 .dwtag  DW_TAG_variable
      34                    .dwattr $C$DW$2, DW_AT_name("PAIFG_L")
      35                    .dwattr $C$DW$2, DW_AT_TI_symbol_name("PAIFG_L")
      36                    .dwattr $C$DW$2, DW_AT_type(*$C$DW$T$88)
      37                    .dwattr $C$DW$2, DW_AT_declaration
      38                    .dwattr $C$DW$2, DW_AT_external
      39                    .dwattr $C$DW$2, DW_AT_decl_file("C:\ti\ccs1110\ccs\ccs_base\msp430\include\msp430f5438a.h")
      40                    .dwattr $C$DW$2, DW_AT_decl_line(0x472)
      41                    .dwattr $C$DW$2, DW_AT_decl_column(0x01)
      42            
      43            $C$DW$3 .dwtag  DW_TAG_variable
      44                    .dwattr $C$DW$3, DW_AT_name("TA1IV")
      45                    .dwattr $C$DW$3, DW_AT_TI_symbol_name("TA1IV")
MSP430 Assembler PC v21.6.1 Tue Dec 20 14:10:54 2022

Copyright (c) 2003-2018 Texas Instruments Incorporated
ISR.asm                                                              PAGE    2

      46                    .dwattr $C$DW$3, DW_AT_type(*$C$DW$T$122)
      47                    .dwattr $C$DW$3, DW_AT_declaration
      48                    .dwattr $C$DW$3, DW_AT_external
      49                    .dwattr $C$DW$3, DW_AT_decl_file("C:\ti\ccs1110\ccs\ccs_base\msp430\include\msp430f5438a.h")
      50                    .dwattr $C$DW$3, DW_AT_decl_line(0x9bd)
      51                    .dwattr $C$DW$3, DW_AT_decl_column(0x01)
      52            
      53            $C$DW$4 .dwtag  DW_TAG_variable
      54                    .dwattr $C$DW$4, DW_AT_name("UCA0RXBUF")
      55                    .dwattr $C$DW$4, DW_AT_TI_symbol_name("UCA0RXBUF")
      56                    .dwattr $C$DW$4, DW_AT_type(*$C$DW$T$88)
      57                    .dwattr $C$DW$4, DW_AT_declaration
      58                    .dwattr $C$DW$4, DW_AT_external
      59                    .dwattr $C$DW$4, DW_AT_decl_file("C:\ti\ccs1110\ccs\ccs_base\msp430\include\msp430f5438a.h")
      60                    .dwattr $C$DW$4, DW_AT_decl_line(0xca9)
      61                    .dwattr $C$DW$4, DW_AT_decl_column(0x01)
      62            
      63            $C$DW$5 .dwtag  DW_TAG_variable
      64                    .dwattr $C$DW$5, DW_AT_name("UCA0TXBUF")
      65                    .dwattr $C$DW$5, DW_AT_TI_symbol_name("UCA0TXBUF")
      66                    .dwattr $C$DW$5, DW_AT_type(*$C$DW$T$88)
      67                    .dwattr $C$DW$5, DW_AT_declaration
      68                    .dwattr $C$DW$5, DW_AT_external
      69                    .dwattr $C$DW$5, DW_AT_decl_file("C:\ti\ccs1110\ccs\ccs_base\msp430\include\msp430f5438a.h")
      70                    .dwattr $C$DW$5, DW_AT_decl_line(0xcaa)
      71                    .dwattr $C$DW$5, DW_AT_decl_column(0x01)
      72            
      73            $C$DW$6 .dwtag  DW_TAG_variable
      74                    .dwattr $C$DW$6, DW_AT_name("UCA0ICTL_L")
      75                    .dwattr $C$DW$6, DW_AT_TI_symbol_name("UCA0ICTL_L")
      76                    .dwattr $C$DW$6, DW_AT_type(*$C$DW$T$88)
      77                    .dwattr $C$DW$6, DW_AT_declaration
      78                    .dwattr $C$DW$6, DW_AT_external
      79                    .dwattr $C$DW$6, DW_AT_decl_file("C:\ti\ccs1110\ccs\ccs_base\msp430\include\msp430f5438a.h")
      80                    .dwattr $C$DW$6, DW_AT_decl_line(0xcb2)
      81                    .dwattr $C$DW$6, DW_AT_decl_column(0x01)
      82            
      83            $C$DW$7 .dwtag  DW_TAG_variable
      84                    .dwattr $C$DW$7, DW_AT_name("UCA0IV")
      85                    .dwattr $C$DW$7, DW_AT_TI_symbol_name("UCA0IV")
      86                    .dwattr $C$DW$7, DW_AT_type(*$C$DW$T$122)
      87                    .dwattr $C$DW$7, DW_AT_declaration
      88                    .dwattr $C$DW$7, DW_AT_external
      89                    .dwattr $C$DW$7, DW_AT_decl_file("C:\ti\ccs1110\ccs\ccs_base\msp430\include\msp430f5438a.h")
      90                    .dwattr $C$DW$7, DW_AT_decl_line(0xcb6)
      91                    .dwattr $C$DW$7, DW_AT_decl_column(0x01)
      92            
      93            $C$DW$8 .dwtag  DW_TAG_variable
      94                    .dwattr $C$DW$8, DW_AT_name("UCB0CTLW0_L")
      95                    .dwattr $C$DW$8, DW_AT_TI_symbol_name("UCB0CTLW0_L")
      96                    .dwattr $C$DW$8, DW_AT_type(*$C$DW$T$88)
      97                    .dwattr $C$DW$8, DW_AT_declaration
      98                    .dwattr $C$DW$8, DW_AT_external
      99                    .dwattr $C$DW$8, DW_AT_decl_file("C:\ti\ccs1110\ccs\ccs_base\msp430\include\msp430f5438a.h")
     100                    .dwattr $C$DW$8, DW_AT_decl_line(0xcc2)
MSP430 Assembler PC v21.6.1 Tue Dec 20 14:10:54 2022

Copyright (c) 2003-2018 Texas Instruments Incorporated
ISR.asm                                                              PAGE    3

     101                    .dwattr $C$DW$8, DW_AT_decl_column(0x01)
     102            
     103            $C$DW$9 .dwtag  DW_TAG_variable
     104                    .dwattr $C$DW$9, DW_AT_name("UCB0RXBUF")
     105                    .dwattr $C$DW$9, DW_AT_TI_symbol_name("UCB0RXBUF")
     106                    .dwattr $C$DW$9, DW_AT_type(*$C$DW$T$88)
     107                    .dwattr $C$DW$9, DW_AT_declaration
     108                    .dwattr $C$DW$9, DW_AT_external
     109                    .dwattr $C$DW$9, DW_AT_decl_file("C:\ti\ccs1110\ccs\ccs_base\msp430\include\msp430f5438a.h")
     110                    .dwattr $C$DW$9, DW_AT_decl_line(0xccc)
     111                    .dwattr $C$DW$9, DW_AT_decl_column(0x01)
     112            
     113            $C$DW$10        .dwtag  DW_TAG_variable
     114                    .dwattr $C$DW$10, DW_AT_name("UCB0TXBUF")
     115                    .dwattr $C$DW$10, DW_AT_TI_symbol_name("UCB0TXBUF")
     116                    .dwattr $C$DW$10, DW_AT_type(*$C$DW$T$88)
     117                    .dwattr $C$DW$10, DW_AT_declaration
     118                    .dwattr $C$DW$10, DW_AT_external
     119                    .dwattr $C$DW$10, DW_AT_decl_file("C:\ti\ccs1110\ccs\ccs_base\msp430\include\msp430f5438a.h")
     120                    .dwattr $C$DW$10, DW_AT_decl_line(0xccd)
     121                    .dwattr $C$DW$10, DW_AT_decl_column(0x01)
     122            
     123            $C$DW$11        .dwtag  DW_TAG_variable
     124                    .dwattr $C$DW$11, DW_AT_name("UCB0ICTL_H")
     125                    .dwattr $C$DW$11, DW_AT_TI_symbol_name("UCB0ICTL_H")
     126                    .dwattr $C$DW$11, DW_AT_type(*$C$DW$T$88)
     127                    .dwattr $C$DW$11, DW_AT_declaration
     128                    .dwattr $C$DW$11, DW_AT_external
     129                    .dwattr $C$DW$11, DW_AT_decl_file("C:\ti\ccs1110\ccs\ccs_base\msp430\include\msp430f5438a.h")
     130                    .dwattr $C$DW$11, DW_AT_decl_line(0xcd6)
     131                    .dwattr $C$DW$11, DW_AT_decl_column(0x01)
     132            
     133            $C$DW$12        .dwtag  DW_TAG_variable
     134                    .dwattr $C$DW$12, DW_AT_name("UCB0IV")
     135                    .dwattr $C$DW$12, DW_AT_TI_symbol_name("UCB0IV")
     136                    .dwattr $C$DW$12, DW_AT_type(*$C$DW$T$122)
     137                    .dwattr $C$DW$12, DW_AT_declaration
     138                    .dwattr $C$DW$12, DW_AT_external
     139                    .dwattr $C$DW$12, DW_AT_decl_file("C:\ti\ccs1110\ccs\ccs_base\msp430\include\msp430f5438a.h")
     140                    .dwattr $C$DW$12, DW_AT_decl_line(0xcd9)
     141                    .dwattr $C$DW$12, DW_AT_decl_column(0x01)
     142            
     143            $C$DW$13        .dwtag  DW_TAG_variable
     144                    .dwattr $C$DW$13, DW_AT_name("UCA1RXBUF")
     145                    .dwattr $C$DW$13, DW_AT_TI_symbol_name("UCA1RXBUF")
     146                    .dwattr $C$DW$13, DW_AT_type(*$C$DW$T$88)
     147                    .dwattr $C$DW$13, DW_AT_declaration
     148                    .dwattr $C$DW$13, DW_AT_external
     149                    .dwattr $C$DW$13, DW_AT_decl_file("C:\ti\ccs1110\ccs\ccs_base\msp430\include\msp430f5438a.h")
     150                    .dwattr $C$DW$13, DW_AT_decl_line(0xdd1)
     151                    .dwattr $C$DW$13, DW_AT_decl_column(0x01)
     152            
     153            $C$DW$14        .dwtag  DW_TAG_variable
     154                    .dwattr $C$DW$14, DW_AT_name("UCA1TXBUF")
     155                    .dwattr $C$DW$14, DW_AT_TI_symbol_name("UCA1TXBUF")
MSP430 Assembler PC v21.6.1 Tue Dec 20 14:10:54 2022

Copyright (c) 2003-2018 Texas Instruments Incorporated
ISR.asm                                                              PAGE    4

     156                    .dwattr $C$DW$14, DW_AT_type(*$C$DW$T$88)
     157                    .dwattr $C$DW$14, DW_AT_declaration
     158                    .dwattr $C$DW$14, DW_AT_external
     159                    .dwattr $C$DW$14, DW_AT_decl_file("C:\ti\ccs1110\ccs\ccs_base\msp430\include\msp430f5438a.h")
     160                    .dwattr $C$DW$14, DW_AT_decl_line(0xdd2)
     161                    .dwattr $C$DW$14, DW_AT_decl_column(0x01)
     162            
     163            $C$DW$15        .dwtag  DW_TAG_variable
     164                    .dwattr $C$DW$15, DW_AT_name("UCA1ICTL_L")
     165                    .dwattr $C$DW$15, DW_AT_TI_symbol_name("UCA1ICTL_L")
     166                    .dwattr $C$DW$15, DW_AT_type(*$C$DW$T$88)
     167                    .dwattr $C$DW$15, DW_AT_declaration
     168                    .dwattr $C$DW$15, DW_AT_external
     169                    .dwattr $C$DW$15, DW_AT_decl_file("C:\ti\ccs1110\ccs\ccs_base\msp430\include\msp430f5438a.h")
     170                    .dwattr $C$DW$15, DW_AT_decl_line(0xdda)
     171                    .dwattr $C$DW$15, DW_AT_decl_column(0x01)
     172            
     173            $C$DW$16        .dwtag  DW_TAG_variable
     174                    .dwattr $C$DW$16, DW_AT_name("UCB1CTLW0_L")
     175                    .dwattr $C$DW$16, DW_AT_TI_symbol_name("UCB1CTLW0_L")
     176                    .dwattr $C$DW$16, DW_AT_type(*$C$DW$T$88)
     177                    .dwattr $C$DW$16, DW_AT_declaration
     178                    .dwattr $C$DW$16, DW_AT_external
     179                    .dwattr $C$DW$16, DW_AT_decl_file("C:\ti\ccs1110\ccs\ccs_base\msp430\include\msp430f5438a.h")
     180                    .dwattr $C$DW$16, DW_AT_decl_line(0xdea)
     181                    .dwattr $C$DW$16, DW_AT_decl_column(0x01)
     182            
     183            $C$DW$17        .dwtag  DW_TAG_variable
     184                    .dwattr $C$DW$17, DW_AT_name("UCB1RXBUF")
     185                    .dwattr $C$DW$17, DW_AT_TI_symbol_name("UCB1RXBUF")
     186                    .dwattr $C$DW$17, DW_AT_type(*$C$DW$T$88)
     187                    .dwattr $C$DW$17, DW_AT_declaration
     188                    .dwattr $C$DW$17, DW_AT_external
     189                    .dwattr $C$DW$17, DW_AT_decl_file("C:\ti\ccs1110\ccs\ccs_base\msp430\include\msp430f5438a.h")
     190                    .dwattr $C$DW$17, DW_AT_decl_line(0xdf4)
     191                    .dwattr $C$DW$17, DW_AT_decl_column(0x01)
     192            
     193            $C$DW$18        .dwtag  DW_TAG_variable
     194                    .dwattr $C$DW$18, DW_AT_name("UCB1TXBUF")
     195                    .dwattr $C$DW$18, DW_AT_TI_symbol_name("UCB1TXBUF")
     196                    .dwattr $C$DW$18, DW_AT_type(*$C$DW$T$88)
     197                    .dwattr $C$DW$18, DW_AT_declaration
     198                    .dwattr $C$DW$18, DW_AT_external
     199                    .dwattr $C$DW$18, DW_AT_decl_file("C:\ti\ccs1110\ccs\ccs_base\msp430\include\msp430f5438a.h")
     200                    .dwattr $C$DW$18, DW_AT_decl_line(0xdf5)
     201                    .dwattr $C$DW$18, DW_AT_decl_column(0x01)
     202            
     203            $C$DW$19        .dwtag  DW_TAG_variable
     204                    .dwattr $C$DW$19, DW_AT_name("UCB1ICTL_H")
     205                    .dwattr $C$DW$19, DW_AT_TI_symbol_name("UCB1ICTL_H")
     206                    .dwattr $C$DW$19, DW_AT_type(*$C$DW$T$88)
     207                    .dwattr $C$DW$19, DW_AT_declaration
     208                    .dwattr $C$DW$19, DW_AT_external
     209                    .dwattr $C$DW$19, DW_AT_decl_file("C:\ti\ccs1110\ccs\ccs_base\msp430\include\msp430f5438a.h")
     210                    .dwattr $C$DW$19, DW_AT_decl_line(0xdfe)
MSP430 Assembler PC v21.6.1 Tue Dec 20 14:10:54 2022

Copyright (c) 2003-2018 Texas Instruments Incorporated
ISR.asm                                                              PAGE    5

     211                    .dwattr $C$DW$19, DW_AT_decl_column(0x01)
     212            
     213            $C$DW$20        .dwtag  DW_TAG_variable
     214                    .dwattr $C$DW$20, DW_AT_name("UCB1IV")
     215                    .dwattr $C$DW$20, DW_AT_TI_symbol_name("UCB1IV")
     216                    .dwattr $C$DW$20, DW_AT_type(*$C$DW$T$122)
     217                    .dwattr $C$DW$20, DW_AT_declaration
     218                    .dwattr $C$DW$20, DW_AT_external
     219                    .dwattr $C$DW$20, DW_AT_decl_file("C:\ti\ccs1110\ccs\ccs_base\msp430\include\msp430f5438a.h")
     220                    .dwattr $C$DW$20, DW_AT_decl_line(0xe01)
     221                    .dwattr $C$DW$20, DW_AT_decl_column(0x01)
     222            
     223            $C$DW$21        .dwtag  DW_TAG_variable
     224                    .dwattr $C$DW$21, DW_AT_name("UCB2CTLW0_L")
     225                    .dwattr $C$DW$21, DW_AT_TI_symbol_name("UCB2CTLW0_L")
     226                    .dwattr $C$DW$21, DW_AT_type(*$C$DW$T$88)
     227                    .dwattr $C$DW$21, DW_AT_declaration
     228                    .dwattr $C$DW$21, DW_AT_external
     229                    .dwattr $C$DW$21, DW_AT_decl_file("C:\ti\ccs1110\ccs\ccs_base\msp430\include\msp430f5438a.h")
     230                    .dwattr $C$DW$21, DW_AT_decl_line(0xe2f)
     231                    .dwattr $C$DW$21, DW_AT_decl_column(0x01)
     232            
     233            $C$DW$22        .dwtag  DW_TAG_variable
     234                    .dwattr $C$DW$22, DW_AT_name("UCB2RXBUF")
     235                    .dwattr $C$DW$22, DW_AT_TI_symbol_name("UCB2RXBUF")
     236                    .dwattr $C$DW$22, DW_AT_type(*$C$DW$T$88)
     237                    .dwattr $C$DW$22, DW_AT_declaration
     238                    .dwattr $C$DW$22, DW_AT_external
     239                    .dwattr $C$DW$22, DW_AT_decl_file("C:\ti\ccs1110\ccs\ccs_base\msp430\include\msp430f5438a.h")
     240                    .dwattr $C$DW$22, DW_AT_decl_line(0xe39)
     241                    .dwattr $C$DW$22, DW_AT_decl_column(0x01)
     242            
     243            $C$DW$23        .dwtag  DW_TAG_variable
     244                    .dwattr $C$DW$23, DW_AT_name("UCB2TXBUF")
     245                    .dwattr $C$DW$23, DW_AT_TI_symbol_name("UCB2TXBUF")
     246                    .dwattr $C$DW$23, DW_AT_type(*$C$DW$T$88)
     247                    .dwattr $C$DW$23, DW_AT_declaration
     248                    .dwattr $C$DW$23, DW_AT_external
     249                    .dwattr $C$DW$23, DW_AT_decl_file("C:\ti\ccs1110\ccs\ccs_base\msp430\include\msp430f5438a.h")
     250                    .dwattr $C$DW$23, DW_AT_decl_line(0xe3a)
     251                    .dwattr $C$DW$23, DW_AT_decl_column(0x01)
     252            
     253            $C$DW$24        .dwtag  DW_TAG_variable
     254                    .dwattr $C$DW$24, DW_AT_name("UCB2ICTL_H")
     255                    .dwattr $C$DW$24, DW_AT_TI_symbol_name("UCB2ICTL_H")
     256                    .dwattr $C$DW$24, DW_AT_type(*$C$DW$T$88)
     257                    .dwattr $C$DW$24, DW_AT_declaration
     258                    .dwattr $C$DW$24, DW_AT_external
     259                    .dwattr $C$DW$24, DW_AT_decl_file("C:\ti\ccs1110\ccs\ccs_base\msp430\include\msp430f5438a.h")
     260                    .dwattr $C$DW$24, DW_AT_decl_line(0xe43)
     261                    .dwattr $C$DW$24, DW_AT_decl_column(0x01)
     262            
     263            $C$DW$25        .dwtag  DW_TAG_variable
     264                    .dwattr $C$DW$25, DW_AT_name("UCB2IV")
     265                    .dwattr $C$DW$25, DW_AT_TI_symbol_name("UCB2IV")
MSP430 Assembler PC v21.6.1 Tue Dec 20 14:10:54 2022

Copyright (c) 2003-2018 Texas Instruments Incorporated
ISR.asm                                                              PAGE    6

     266                    .dwattr $C$DW$25, DW_AT_type(*$C$DW$T$122)
     267                    .dwattr $C$DW$25, DW_AT_declaration
     268                    .dwattr $C$DW$25, DW_AT_external
     269                    .dwattr $C$DW$25, DW_AT_decl_file("C:\ti\ccs1110\ccs\ccs_base\msp430\include\msp430f5438a.h")
     270                    .dwattr $C$DW$25, DW_AT_decl_line(0xe46)
     271                    .dwattr $C$DW$25, DW_AT_decl_column(0x01)
     272            
     273                    .global mode
     274                    .common mode,2,2
     275            $C$DW$26        .dwtag  DW_TAG_variable
     276                    .dwattr $C$DW$26, DW_AT_name("mode")
     277                    .dwattr $C$DW$26, DW_AT_TI_symbol_name("mode")
     278                    .dwattr $C$DW$26, DW_AT_location[DW_OP_addr mode]
     279                    .dwattr $C$DW$26, DW_AT_type(*$C$DW$T$54)
     280                    .dwattr $C$DW$26, DW_AT_external
     281                    .dwattr $C$DW$26, DW_AT_decl_file("C:/Users/MCourson/workspace_v11/MZERO_HB50Board/include/Mai
     282                    .dwattr $C$DW$26, DW_AT_decl_line(0x65)
     283                    .dwattr $C$DW$26, DW_AT_decl_column(0x07)
     284            
     285                    .global FCState
     286                    .common FCState,2,2
     287            $C$DW$27        .dwtag  DW_TAG_variable
     288                    .dwattr $C$DW$27, DW_AT_name("FCState")
     289                    .dwattr $C$DW$27, DW_AT_TI_symbol_name("FCState")
     290                    .dwattr $C$DW$27, DW_AT_location[DW_OP_addr FCState]
     291                    .dwattr $C$DW$27, DW_AT_type(*$C$DW$T$56)
     292                    .dwattr $C$DW$27, DW_AT_external
     293                    .dwattr $C$DW$27, DW_AT_decl_file("C:/Users/MCourson/workspace_v11/MZERO_HB50Board/include/Mai
     294                    .dwattr $C$DW$27, DW_AT_decl_line(0x6d)
     295                    .dwattr $C$DW$27, DW_AT_decl_column(0x0a)
     296            
     297                    .global msgstatus
     298                    .common msgstatus,2,2
     299            $C$DW$28        .dwtag  DW_TAG_variable
     300                    .dwattr $C$DW$28, DW_AT_name("msgstatus")
     301                    .dwattr $C$DW$28, DW_AT_TI_symbol_name("msgstatus")
     302                    .dwattr $C$DW$28, DW_AT_location[DW_OP_addr msgstatus]
     303                    .dwattr $C$DW$28, DW_AT_type(*$C$DW$T$58)
     304                    .dwattr $C$DW$28, DW_AT_external
     305                    .dwattr $C$DW$28, DW_AT_decl_file("C:/Users/MCourson/workspace_v11/MZERO_HB50Board/include/Mai
     306                    .dwattr $C$DW$28, DW_AT_decl_line(0x7c)
     307                    .dwattr $C$DW$28, DW_AT_decl_column(0x0f)
     308            
     309                    .global status
     310                    .common status,2,2
     311            $C$DW$29        .dwtag  DW_TAG_variable
     312                    .dwattr $C$DW$29, DW_AT_name("status")
     313                    .dwattr $C$DW$29, DW_AT_TI_symbol_name("status")
     314                    .dwattr $C$DW$29, DW_AT_location[DW_OP_addr status]
     315                    .dwattr $C$DW$29, DW_AT_type(*$C$DW$T$60)
     316                    .dwattr $C$DW$29, DW_AT_external
     317                    .dwattr $C$DW$29, DW_AT_decl_file("C:/Users/MCourson/workspace_v11/MZERO_HB50Board/include/Mai
     318                    .dwattr $C$DW$29, DW_AT_decl_line(0x83)
     319                    .dwattr $C$DW$29, DW_AT_decl_column(0x0e)
     320            
MSP430 Assembler PC v21.6.1 Tue Dec 20 14:10:54 2022

Copyright (c) 2003-2018 Texas Instruments Incorporated
ISR.asm                                                              PAGE    7

     321            $C$DW$30        .dwtag  DW_TAG_variable
     322                    .dwattr $C$DW$30, DW_AT_name("ADCdone")
     323                    .dwattr $C$DW$30, DW_AT_TI_symbol_name("ADCdone")
     324                    .dwattr $C$DW$30, DW_AT_type(*$C$DW$T$6)
     325                    .dwattr $C$DW$30, DW_AT_declaration
     326                    .dwattr $C$DW$30, DW_AT_external
     327                    .dwattr $C$DW$30, DW_AT_decl_file("../src/ISR.c")
     328                    .dwattr $C$DW$30, DW_AT_decl_line(0x13)
     329                    .dwattr $C$DW$30, DW_AT_decl_column(0x0d)
     330            
     331            $C$DW$31        .dwtag  DW_TAG_variable
     332                    .dwattr $C$DW$31, DW_AT_name("Atime")
     333                    .dwattr $C$DW$31, DW_AT_TI_symbol_name("Atime")
     334                    .dwattr $C$DW$31, DW_AT_type(*$C$DW$T$6)
     335                    .dwattr $C$DW$31, DW_AT_declaration
     336                    .dwattr $C$DW$31, DW_AT_external
     337                    .dwattr $C$DW$31, DW_AT_decl_file("../src/ISR.c")
     338                    .dwattr $C$DW$31, DW_AT_decl_line(0x16)
     339                    .dwattr $C$DW$31, DW_AT_decl_column(0x0d)
     340            
     341            $C$DW$32        .dwtag  DW_TAG_variable
     342                    .dwattr $C$DW$32, DW_AT_name("aa")
     343                    .dwattr $C$DW$32, DW_AT_TI_symbol_name("aa")
     344                    .dwattr $C$DW$32, DW_AT_type(*$C$DW$T$6)
     345                    .dwattr $C$DW$32, DW_AT_declaration
     346                    .dwattr $C$DW$32, DW_AT_external
     347                    .dwattr $C$DW$32, DW_AT_decl_file("../src/ISR.c")
     348                    .dwattr $C$DW$32, DW_AT_decl_line(0x18)
     349                    .dwattr $C$DW$32, DW_AT_decl_column(0x0d)
     350            
     351            $C$DW$33        .dwtag  DW_TAG_variable
     352                    .dwattr $C$DW$33, DW_AT_name("Stime")
     353                    .dwattr $C$DW$33, DW_AT_TI_symbol_name("Stime")
     354                    .dwattr $C$DW$33, DW_AT_type(*$C$DW$T$6)
     355                    .dwattr $C$DW$33, DW_AT_declaration
     356                    .dwattr $C$DW$33, DW_AT_external
     357                    .dwattr $C$DW$33, DW_AT_decl_file("../src/ISR.c")
     358                    .dwattr $C$DW$33, DW_AT_decl_line(0x1a)
     359                    .dwattr $C$DW$33, DW_AT_decl_column(0x0d)
     360            
     361            $C$DW$34        .dwtag  DW_TAG_variable
     362                    .dwattr $C$DW$34, DW_AT_name("wait3sec")
     363                    .dwattr $C$DW$34, DW_AT_TI_symbol_name("wait3sec")
     364                    .dwattr $C$DW$34, DW_AT_type(*$C$DW$T$6)
     365                    .dwattr $C$DW$34, DW_AT_declaration
     366                    .dwattr $C$DW$34, DW_AT_external
     367                    .dwattr $C$DW$34, DW_AT_decl_file("../src/ISR.c")
     368                    .dwattr $C$DW$34, DW_AT_decl_line(0x1b)
     369                    .dwattr $C$DW$34, DW_AT_decl_column(0x0d)
     370            
     371            $C$DW$35        .dwtag  DW_TAG_variable
     372                    .dwattr $C$DW$35, DW_AT_name("spiTXdone")
     373                    .dwattr $C$DW$35, DW_AT_TI_symbol_name("spiTXdone")
     374                    .dwattr $C$DW$35, DW_AT_type(*$C$DW$T$6)
     375                    .dwattr $C$DW$35, DW_AT_declaration
MSP430 Assembler PC v21.6.1 Tue Dec 20 14:10:54 2022

Copyright (c) 2003-2018 Texas Instruments Incorporated
ISR.asm                                                              PAGE    8

     376                    .dwattr $C$DW$35, DW_AT_external
     377                    .dwattr $C$DW$35, DW_AT_decl_file("../src/ISR.c")
     378                    .dwattr $C$DW$35, DW_AT_decl_line(0x1f)
     379                    .dwattr $C$DW$35, DW_AT_decl_column(0x0d)
     380            
     381            $C$DW$36        .dwtag  DW_TAG_variable
     382                    .dwattr $C$DW$36, DW_AT_name("Pmsg")
     383                    .dwattr $C$DW$36, DW_AT_TI_symbol_name("Pmsg")
     384                    .dwattr $C$DW$36, DW_AT_type(*$C$DW$T$10)
     385                    .dwattr $C$DW$36, DW_AT_declaration
     386                    .dwattr $C$DW$36, DW_AT_external
     387                    .dwattr $C$DW$36, DW_AT_decl_file("../src/ISR.c")
     388                    .dwattr $C$DW$36, DW_AT_decl_line(0x20)
     389                    .dwattr $C$DW$36, DW_AT_decl_column(0x0c)
     390            
     391            $C$DW$37        .dwtag  DW_TAG_variable
     392                    .dwattr $C$DW$37, DW_AT_name("Tmsg")
     393                    .dwattr $C$DW$37, DW_AT_TI_symbol_name("Tmsg")
     394                    .dwattr $C$DW$37, DW_AT_type(*$C$DW$T$10)
     395                    .dwattr $C$DW$37, DW_AT_declaration
     396                    .dwattr $C$DW$37, DW_AT_external
     397                    .dwattr $C$DW$37, DW_AT_decl_file("../src/ISR.c")
     398                    .dwattr $C$DW$37, DW_AT_decl_line(0x20)
     399                    .dwattr $C$DW$37, DW_AT_decl_column(0x11)
     400            
     401            $C$DW$38        .dwtag  DW_TAG_variable
     402                    .dwattr $C$DW$38, DW_AT_name("Nmsg")
     403                    .dwattr $C$DW$38, DW_AT_TI_symbol_name("Nmsg")
     404                    .dwattr $C$DW$38, DW_AT_type(*$C$DW$T$10)
     405                    .dwattr $C$DW$38, DW_AT_declaration
     406                    .dwattr $C$DW$38, DW_AT_external
     407                    .dwattr $C$DW$38, DW_AT_decl_file("../src/ISR.c")
     408                    .dwattr $C$DW$38, DW_AT_decl_line(0x20)
     409                    .dwattr $C$DW$38, DW_AT_decl_column(0x16)
     410            
     411            $C$DW$39        .dwtag  DW_TAG_variable
     412                    .dwattr $C$DW$39, DW_AT_name("spiTXmsg")
     413                    .dwattr $C$DW$39, DW_AT_TI_symbol_name("spiTXmsg")
     414                    .dwattr $C$DW$39, DW_AT_type(*$C$DW$T$90)
     415                    .dwattr $C$DW$39, DW_AT_declaration
     416                    .dwattr $C$DW$39, DW_AT_external
     417                    .dwattr $C$DW$39, DW_AT_decl_file("../src/ISR.c")
     418                    .dwattr $C$DW$39, DW_AT_decl_line(0x21)
     419                    .dwattr $C$DW$39, DW_AT_decl_column(0x16)
     420            
     421            $C$DW$40        .dwtag  DW_TAG_variable
     422                    .dwattr $C$DW$40, DW_AT_name("spiRXmsg")
     423                    .dwattr $C$DW$40, DW_AT_TI_symbol_name("spiRXmsg")
     424                    .dwattr $C$DW$40, DW_AT_type(*$C$DW$T$90)
     425                    .dwattr $C$DW$40, DW_AT_declaration
     426                    .dwattr $C$DW$40, DW_AT_external
     427                    .dwattr $C$DW$40, DW_AT_decl_file("../src/ISR.c")
     428                    .dwattr $C$DW$40, DW_AT_decl_line(0x22)
     429                    .dwattr $C$DW$40, DW_AT_decl_column(0x16)
     430            
MSP430 Assembler PC v21.6.1 Tue Dec 20 14:10:54 2022

Copyright (c) 2003-2018 Texas Instruments Incorporated
ISR.asm                                                              PAGE    9

     431            $C$DW$41        .dwtag  DW_TAG_variable
     432                    .dwattr $C$DW$41, DW_AT_name("RXcnt")
     433                    .dwattr $C$DW$41, DW_AT_TI_symbol_name("RXcnt")
     434                    .dwattr $C$DW$41, DW_AT_type(*$C$DW$T$6)
     435                    .dwattr $C$DW$41, DW_AT_declaration
     436                    .dwattr $C$DW$41, DW_AT_external
     437                    .dwattr $C$DW$41, DW_AT_decl_file("../src/ISR.c")
     438                    .dwattr $C$DW$41, DW_AT_decl_line(0x23)
     439                    .dwattr $C$DW$41, DW_AT_decl_column(0x16)
     440            
     441                    .global TxB0Data
     442                    .common TxB0Data,70,2
     443            $C$DW$42        .dwtag  DW_TAG_variable
     444                    .dwattr $C$DW$42, DW_AT_name("TxB0Data")
     445                    .dwattr $C$DW$42, DW_AT_TI_symbol_name("TxB0Data")
     446                    .dwattr $C$DW$42, DW_AT_location[DW_OP_addr TxB0Data]
     447                    .dwattr $C$DW$42, DW_AT_type(*$C$DW$T$91)
     448                    .dwattr $C$DW$42, DW_AT_external
     449                    .dwattr $C$DW$42, DW_AT_decl_file("../src/ISR.c")
     450                    .dwattr $C$DW$42, DW_AT_decl_line(0x25)
     451                    .dwattr $C$DW$42, DW_AT_decl_column(0x0f)
     452            
     453                    .global PTxB0Data
     454 000000               .data
     455                    .align  2
     456                    .elfsym PTxB0Data,SYM_SIZE(4)
     457 000000       PTxB0Data:
     458 000000 0000!         .bits   TxB0Data,32             ; PTxB0Data @ 0
         000002 0000 
     459            
     460            $C$DW$43        .dwtag  DW_TAG_variable
     461                    .dwattr $C$DW$43, DW_AT_name("PTxB0Data")
     462                    .dwattr $C$DW$43, DW_AT_TI_symbol_name("PTxB0Data")
     463                    .dwattr $C$DW$43, DW_AT_location[DW_OP_addr PTxB0Data]
     464                    .dwattr $C$DW$43, DW_AT_type(*$C$DW$T$92)
     465                    .dwattr $C$DW$43, DW_AT_external
     466                    .dwattr $C$DW$43, DW_AT_decl_file("../src/ISR.c")
     467                    .dwattr $C$DW$43, DW_AT_decl_line(0x26)
     468                    .dwattr $C$DW$43, DW_AT_decl_column(0x10)
     469            
     470                    .global TxB1Data
     471                    .common TxB1Data,28,2
     472            $C$DW$44        .dwtag  DW_TAG_variable
     473                    .dwattr $C$DW$44, DW_AT_name("TxB1Data")
     474                    .dwattr $C$DW$44, DW_AT_TI_symbol_name("TxB1Data")
     475                    .dwattr $C$DW$44, DW_AT_location[DW_OP_addr TxB1Data]
     476                    .dwattr $C$DW$44, DW_AT_type(*$C$DW$T$93)
     477                    .dwattr $C$DW$44, DW_AT_external
     478                    .dwattr $C$DW$44, DW_AT_decl_file("../src/ISR.c")
     479                    .dwattr $C$DW$44, DW_AT_decl_line(0x28)
     480                    .dwattr $C$DW$44, DW_AT_decl_column(0x0f)
     481            
     482                    .global PTxB1Data
     483 000004               .data
     484                    .align  2
MSP430 Assembler PC v21.6.1 Tue Dec 20 14:10:54 2022

Copyright (c) 2003-2018 Texas Instruments Incorporated
ISR.asm                                                              PAGE   10

     485                    .elfsym PTxB1Data,SYM_SIZE(4)
     486 000004       PTxB1Data:
     487 000004 0000!         .bits   TxB1Data,32             ; PTxB1Data @ 0
         000006 0000 
     488            
     489            $C$DW$45        .dwtag  DW_TAG_variable
     490                    .dwattr $C$DW$45, DW_AT_name("PTxB1Data")
     491                    .dwattr $C$DW$45, DW_AT_TI_symbol_name("PTxB1Data")
     492                    .dwattr $C$DW$45, DW_AT_location[DW_OP_addr PTxB1Data]
     493                    .dwattr $C$DW$45, DW_AT_type(*$C$DW$T$92)
     494                    .dwattr $C$DW$45, DW_AT_external
     495                    .dwattr $C$DW$45, DW_AT_decl_file("../src/ISR.c")
     496                    .dwattr $C$DW$45, DW_AT_decl_line(0x29)
     497                    .dwattr $C$DW$45, DW_AT_decl_column(0x10)
     498            
     499                    .global TxB2Data
     500                    .common TxB2Data,2,2
     501            $C$DW$46        .dwtag  DW_TAG_variable
     502                    .dwattr $C$DW$46, DW_AT_name("TxB2Data")
     503                    .dwattr $C$DW$46, DW_AT_TI_symbol_name("TxB2Data")
     504                    .dwattr $C$DW$46, DW_AT_location[DW_OP_addr TxB2Data]
     505                    .dwattr $C$DW$46, DW_AT_type(*$C$DW$T$94)
     506                    .dwattr $C$DW$46, DW_AT_external
     507                    .dwattr $C$DW$46, DW_AT_decl_file("../src/ISR.c")
     508                    .dwattr $C$DW$46, DW_AT_decl_line(0x2b)
     509                    .dwattr $C$DW$46, DW_AT_decl_column(0x0f)
     510            
     511                    .global PTxB2Data
     512 000008               .data
     513                    .align  2
     514                    .elfsym PTxB2Data,SYM_SIZE(4)
     515 000008       PTxB2Data:
     516 000008 0000!         .bits   TxB2Data,32             ; PTxB2Data @ 0
         00000a 0000 
     517            
     518            $C$DW$47        .dwtag  DW_TAG_variable
     519                    .dwattr $C$DW$47, DW_AT_name("PTxB2Data")
     520                    .dwattr $C$DW$47, DW_AT_TI_symbol_name("PTxB2Data")
     521                    .dwattr $C$DW$47, DW_AT_location[DW_OP_addr PTxB2Data]
     522                    .dwattr $C$DW$47, DW_AT_type(*$C$DW$T$92)
     523                    .dwattr $C$DW$47, DW_AT_external
     524                    .dwattr $C$DW$47, DW_AT_decl_file("../src/ISR.c")
     525                    .dwattr $C$DW$47, DW_AT_decl_line(0x2c)
     526                    .dwattr $C$DW$47, DW_AT_decl_column(0x10)
     527            
     528                    .global TXByteCtrB0
     529                    .common TXByteCtrB0,1,1
     530            $C$DW$48        .dwtag  DW_TAG_variable
     531                    .dwattr $C$DW$48, DW_AT_name("TXByteCtrB0")
     532                    .dwattr $C$DW$48, DW_AT_TI_symbol_name("TXByteCtrB0")
     533                    .dwattr $C$DW$48, DW_AT_location[DW_OP_addr TXByteCtrB0]
     534                    .dwattr $C$DW$48, DW_AT_type(*$C$DW$T$6)
     535                    .dwattr $C$DW$48, DW_AT_external
     536                    .dwattr $C$DW$48, DW_AT_decl_file("../src/ISR.c")
     537                    .dwattr $C$DW$48, DW_AT_decl_line(0x2e)
MSP430 Assembler PC v21.6.1 Tue Dec 20 14:10:54 2022

Copyright (c) 2003-2018 Texas Instruments Incorporated
ISR.asm                                                              PAGE   11

     538                    .dwattr $C$DW$48, DW_AT_decl_column(0x10)
     539            
     540                    .global TXByteCtrB1
     541                    .common TXByteCtrB1,1,1
     542            $C$DW$49        .dwtag  DW_TAG_variable
     543                    .dwattr $C$DW$49, DW_AT_name("TXByteCtrB1")
     544                    .dwattr $C$DW$49, DW_AT_TI_symbol_name("TXByteCtrB1")
     545                    .dwattr $C$DW$49, DW_AT_location[DW_OP_addr TXByteCtrB1]
     546                    .dwattr $C$DW$49, DW_AT_type(*$C$DW$T$6)
     547                    .dwattr $C$DW$49, DW_AT_external
     548                    .dwattr $C$DW$49, DW_AT_decl_file("../src/ISR.c")
     549                    .dwattr $C$DW$49, DW_AT_decl_line(0x2f)
     550                    .dwattr $C$DW$49, DW_AT_decl_column(0x10)
     551            
     552                    .global TXByteCtrB2
     553                    .common TXByteCtrB2,1,1
     554            $C$DW$50        .dwtag  DW_TAG_variable
     555                    .dwattr $C$DW$50, DW_AT_name("TXByteCtrB2")
     556                    .dwattr $C$DW$50, DW_AT_TI_symbol_name("TXByteCtrB2")
     557                    .dwattr $C$DW$50, DW_AT_location[DW_OP_addr TXByteCtrB2]
     558                    .dwattr $C$DW$50, DW_AT_type(*$C$DW$T$6)
     559                    .dwattr $C$DW$50, DW_AT_external
     560                    .dwattr $C$DW$50, DW_AT_decl_file("../src/ISR.c")
     561                    .dwattr $C$DW$50, DW_AT_decl_line(0x30)
     562                    .dwattr $C$DW$50, DW_AT_decl_column(0x10)
     563            
     564                    .global RXData
     565                    .common RXData,1,1
     566            $C$DW$51        .dwtag  DW_TAG_variable
     567                    .dwattr $C$DW$51, DW_AT_name("RXData")
     568                    .dwattr $C$DW$51, DW_AT_TI_symbol_name("RXData")
     569                    .dwattr $C$DW$51, DW_AT_location[DW_OP_addr RXData]
     570                    .dwattr $C$DW$51, DW_AT_type(*$C$DW$T$88)
     571                    .dwattr $C$DW$51, DW_AT_external
     572                    .dwattr $C$DW$51, DW_AT_decl_file("../src/ISR.c")
     573                    .dwattr $C$DW$51, DW_AT_decl_line(0x31)
     574                    .dwattr $C$DW$51, DW_AT_decl_column(0x18)
     575            
     576                    .global PRxB0Data
     577                    .common PRxB0Data,4,2
     578            $C$DW$52        .dwtag  DW_TAG_variable
     579                    .dwattr $C$DW$52, DW_AT_name("PRxB0Data")
     580                    .dwattr $C$DW$52, DW_AT_TI_symbol_name("PRxB0Data")
     581                    .dwattr $C$DW$52, DW_AT_location[DW_OP_addr PRxB0Data]
     582                    .dwattr $C$DW$52, DW_AT_type(*$C$DW$T$92)
     583                    .dwattr $C$DW$52, DW_AT_external
     584                    .dwattr $C$DW$52, DW_AT_decl_file("../src/ISR.c")
     585                    .dwattr $C$DW$52, DW_AT_decl_line(0x33)
     586                    .dwattr $C$DW$52, DW_AT_decl_column(0x10)
     587            
     588                    .global PRxB1Data
     589                    .common PRxB1Data,4,2
     590            $C$DW$53        .dwtag  DW_TAG_variable
     591                    .dwattr $C$DW$53, DW_AT_name("PRxB1Data")
     592                    .dwattr $C$DW$53, DW_AT_TI_symbol_name("PRxB1Data")
MSP430 Assembler PC v21.6.1 Tue Dec 20 14:10:54 2022

Copyright (c) 2003-2018 Texas Instruments Incorporated
ISR.asm                                                              PAGE   12

     593                    .dwattr $C$DW$53, DW_AT_location[DW_OP_addr PRxB1Data]
     594                    .dwattr $C$DW$53, DW_AT_type(*$C$DW$T$92)
     595                    .dwattr $C$DW$53, DW_AT_external
     596                    .dwattr $C$DW$53, DW_AT_decl_file("../src/ISR.c")
     597                    .dwattr $C$DW$53, DW_AT_decl_line(0x34)
     598                    .dwattr $C$DW$53, DW_AT_decl_column(0x10)
     599            
     600                    .global PRxB2Data
     601                    .common PRxB2Data,4,2
     602            $C$DW$54        .dwtag  DW_TAG_variable
     603                    .dwattr $C$DW$54, DW_AT_name("PRxB2Data")
     604                    .dwattr $C$DW$54, DW_AT_TI_symbol_name("PRxB2Data")
     605                    .dwattr $C$DW$54, DW_AT_location[DW_OP_addr PRxB2Data]
     606                    .dwattr $C$DW$54, DW_AT_type(*$C$DW$T$92)
     607                    .dwattr $C$DW$54, DW_AT_external
     608                    .dwattr $C$DW$54, DW_AT_decl_file("../src/ISR.c")
     609                    .dwattr $C$DW$54, DW_AT_decl_line(0x35)
     610                    .dwattr $C$DW$54, DW_AT_decl_column(0x10)
     611            
     612                    .global RXByte
     613                    .common RXByte,1,1
     614            $C$DW$55        .dwtag  DW_TAG_variable
     615                    .dwattr $C$DW$55, DW_AT_name("RXByte")
     616                    .dwattr $C$DW$55, DW_AT_TI_symbol_name("RXByte")
     617                    .dwattr $C$DW$55, DW_AT_location[DW_OP_addr RXByte]
     618                    .dwattr $C$DW$55, DW_AT_type(*$C$DW$T$6)
     619                    .dwattr $C$DW$55, DW_AT_external
     620                    .dwattr $C$DW$55, DW_AT_decl_file("../src/ISR.c")
     621                    .dwattr $C$DW$55, DW_AT_decl_line(0x37)
     622                    .dwattr $C$DW$55, DW_AT_decl_column(0x0f)
     623            
     624                    .global RXByteCtrB0
     625                    .common RXByteCtrB0,1,1
     626            $C$DW$56        .dwtag  DW_TAG_variable
     627                    .dwattr $C$DW$56, DW_AT_name("RXByteCtrB0")
     628                    .dwattr $C$DW$56, DW_AT_TI_symbol_name("RXByteCtrB0")
     629                    .dwattr $C$DW$56, DW_AT_location[DW_OP_addr RXByteCtrB0]
     630                    .dwattr $C$DW$56, DW_AT_type(*$C$DW$T$6)
     631                    .dwattr $C$DW$56, DW_AT_external
     632                    .dwattr $C$DW$56, DW_AT_decl_file("../src/ISR.c")
     633                    .dwattr $C$DW$56, DW_AT_decl_line(0x38)
     634                    .dwattr $C$DW$56, DW_AT_decl_column(0x0f)
     635            
     636                    .global RXByteCtrB1
     637                    .common RXByteCtrB1,1,1
     638            $C$DW$57        .dwtag  DW_TAG_variable
     639                    .dwattr $C$DW$57, DW_AT_name("RXByteCtrB1")
     640                    .dwattr $C$DW$57, DW_AT_TI_symbol_name("RXByteCtrB1")
     641                    .dwattr $C$DW$57, DW_AT_location[DW_OP_addr RXByteCtrB1]
     642                    .dwattr $C$DW$57, DW_AT_type(*$C$DW$T$6)
     643                    .dwattr $C$DW$57, DW_AT_external
     644                    .dwattr $C$DW$57, DW_AT_decl_file("../src/ISR.c")
     645                    .dwattr $C$DW$57, DW_AT_decl_line(0x39)
     646                    .dwattr $C$DW$57, DW_AT_decl_column(0x0f)
     647            
MSP430 Assembler PC v21.6.1 Tue Dec 20 14:10:54 2022

Copyright (c) 2003-2018 Texas Instruments Incorporated
ISR.asm                                                              PAGE   13

     648                    .global RXByteCtrB2
     649                    .common RXByteCtrB2,1,1
     650            $C$DW$58        .dwtag  DW_TAG_variable
     651                    .dwattr $C$DW$58, DW_AT_name("RXByteCtrB2")
     652                    .dwattr $C$DW$58, DW_AT_TI_symbol_name("RXByteCtrB2")
     653                    .dwattr $C$DW$58, DW_AT_location[DW_OP_addr RXByteCtrB2]
     654                    .dwattr $C$DW$58, DW_AT_type(*$C$DW$T$6)
     655                    .dwattr $C$DW$58, DW_AT_external
     656                    .dwattr $C$DW$58, DW_AT_decl_file("../src/ISR.c")
     657                    .dwattr $C$DW$58, DW_AT_decl_line(0x3a)
     658                    .dwattr $C$DW$58, DW_AT_decl_column(0x0f)
     659            
     660                    .global RxBufferB0
     661                    .common RxBufferB0,128,2
     662            $C$DW$59        .dwtag  DW_TAG_variable
     663                    .dwattr $C$DW$59, DW_AT_name("RxBufferB0")
     664                    .dwattr $C$DW$59, DW_AT_TI_symbol_name("RxBufferB0")
     665                    .dwattr $C$DW$59, DW_AT_location[DW_OP_addr RxBufferB0]
     666                    .dwattr $C$DW$59, DW_AT_type(*$C$DW$T$89)
     667                    .dwattr $C$DW$59, DW_AT_external
     668                    .dwattr $C$DW$59, DW_AT_decl_file("../src/ISR.c")
     669                    .dwattr $C$DW$59, DW_AT_decl_line(0x3c)
     670                    .dwattr $C$DW$59, DW_AT_decl_column(0x18)
     671            
     672                    .global RxBufferB1
     673                    .common RxBufferB1,128,2
     674            $C$DW$60        .dwtag  DW_TAG_variable
     675                    .dwattr $C$DW$60, DW_AT_name("RxBufferB1")
     676                    .dwattr $C$DW$60, DW_AT_TI_symbol_name("RxBufferB1")
     677                    .dwattr $C$DW$60, DW_AT_location[DW_OP_addr RxBufferB1]
     678                    .dwattr $C$DW$60, DW_AT_type(*$C$DW$T$89)
     679                    .dwattr $C$DW$60, DW_AT_external
     680                    .dwattr $C$DW$60, DW_AT_decl_file("../src/ISR.c")
     681                    .dwattr $C$DW$60, DW_AT_decl_line(0x3d)
     682                    .dwattr $C$DW$60, DW_AT_decl_column(0x18)
     683            
     684                    .global one_byte
     685 00000c               .data
     686                    .align  1
     687                    .elfsym one_byte,SYM_SIZE(1)
     688 00000c       one_byte:
     689 00000c 0000          .bits           0,8
     690                                    ; one_byte @ 0
     691            
     692            $C$DW$61        .dwtag  DW_TAG_variable
     693                    .dwattr $C$DW$61, DW_AT_name("one_byte")
     694                    .dwattr $C$DW$61, DW_AT_TI_symbol_name("one_byte")
     695                    .dwattr $C$DW$61, DW_AT_location[DW_OP_addr one_byte]
     696                    .dwattr $C$DW$61, DW_AT_type(*$C$DW$T$88)
     697                    .dwattr $C$DW$61, DW_AT_external
     698                    .dwattr $C$DW$61, DW_AT_decl_file("../src/ISR.c")
     699                    .dwattr $C$DW$61, DW_AT_decl_line(0x3e)
     700                    .dwattr $C$DW$61, DW_AT_decl_column(0x18)
     701            
     702                    .global dummy
MSP430 Assembler PC v21.6.1 Tue Dec 20 14:10:54 2022

Copyright (c) 2003-2018 Texas Instruments Incorporated
ISR.asm                                                              PAGE   14

     703 00000d               .data
     704                    .align  1
     705                    .elfsym dummy,SYM_SIZE(1)
     706 00000d       dummy:
     707 00000c 0000          .bits           0,8
     708                                    ; dummy @ 0
     709            
     710            $C$DW$62        .dwtag  DW_TAG_variable
     711                    .dwattr $C$DW$62, DW_AT_name("dummy")
     712                    .dwattr $C$DW$62, DW_AT_TI_symbol_name("dummy")
     713                    .dwattr $C$DW$62, DW_AT_location[DW_OP_addr dummy]
     714                    .dwattr $C$DW$62, DW_AT_type(*$C$DW$T$88)
     715                    .dwattr $C$DW$62, DW_AT_external
     716                    .dwattr $C$DW$62, DW_AT_decl_file("../src/ISR.c")
     717                    .dwattr $C$DW$62, DW_AT_decl_line(0x3f)
     718                    .dwattr $C$DW$62, DW_AT_decl_column(0x18)
     719            
     720            $C$DW$63        .dwtag  DW_TAG_variable
     721                    .dwattr $C$DW$63, DW_AT_name("RXmsg")
     722                    .dwattr $C$DW$63, DW_AT_TI_symbol_name("RXmsg")
     723                    .dwattr $C$DW$63, DW_AT_type(*$C$DW$T$95)
     724                    .dwattr $C$DW$63, DW_AT_declaration
     725                    .dwattr $C$DW$63, DW_AT_external
     726                    .dwattr $C$DW$63, DW_AT_decl_file("../src/ISR.c")
     727                    .dwattr $C$DW$63, DW_AT_decl_line(0x41)
     728                    .dwattr $C$DW$63, DW_AT_decl_column(0x16)
     729            
     730            $C$DW$64        .dwtag  DW_TAG_variable
     731                    .dwattr $C$DW$64, DW_AT_name("TXmsg")
     732                    .dwattr $C$DW$64, DW_AT_TI_symbol_name("TXmsg")
     733                    .dwattr $C$DW$64, DW_AT_type(*$C$DW$T$91)
     734                    .dwattr $C$DW$64, DW_AT_declaration
     735                    .dwattr $C$DW$64, DW_AT_external
     736                    .dwattr $C$DW$64, DW_AT_decl_file("../src/ISR.c")
     737                    .dwattr $C$DW$64, DW_AT_decl_line(0x42)
     738                    .dwattr $C$DW$64, DW_AT_decl_column(0x16)
     739            
     740                    .global CommandByte
     741                    .common CommandByte,1,1
     742            $C$DW$65        .dwtag  DW_TAG_variable
     743                    .dwattr $C$DW$65, DW_AT_name("CommandByte")
     744                    .dwattr $C$DW$65, DW_AT_TI_symbol_name("CommandByte")
     745                    .dwattr $C$DW$65, DW_AT_location[DW_OP_addr CommandByte]
     746                    .dwattr $C$DW$65, DW_AT_type(*$C$DW$T$6)
     747                    .dwattr $C$DW$65, DW_AT_external
     748                    .dwattr $C$DW$65, DW_AT_decl_file("../src/ISR.c")
     749                    .dwattr $C$DW$65, DW_AT_decl_line(0x46)
     750                    .dwattr $C$DW$65, DW_AT_decl_column(0x0f)
     751            
     752                    .global ttttt
     753                    .common ttttt,2,2
     754            $C$DW$66        .dwtag  DW_TAG_variable
     755                    .dwattr $C$DW$66, DW_AT_name("ttttt")
     756                    .dwattr $C$DW$66, DW_AT_TI_symbol_name("ttttt")
     757                    .dwattr $C$DW$66, DW_AT_location[DW_OP_addr ttttt]
MSP430 Assembler PC v21.6.1 Tue Dec 20 14:10:54 2022

Copyright (c) 2003-2018 Texas Instruments Incorporated
ISR.asm                                                              PAGE   15

     758                    .dwattr $C$DW$66, DW_AT_type(*$C$DW$T$10)
     759                    .dwattr $C$DW$66, DW_AT_external
     760                    .dwattr $C$DW$66, DW_AT_decl_file("../src/ISR.c")
     761                    .dwattr $C$DW$66, DW_AT_decl_line(0x48)
     762                    .dwattr $C$DW$66, DW_AT_decl_column(0x06)
     763            
     764            $C$DW$67        .dwtag  DW_TAG_variable
     765                    .dwattr $C$DW$67, DW_AT_name("cnt")
     766                    .dwattr $C$DW$67, DW_AT_TI_symbol_name("cnt")
     767                    .dwattr $C$DW$67, DW_AT_type(*$C$DW$T$11)
     768                    .dwattr $C$DW$67, DW_AT_declaration
     769                    .dwattr $C$DW$67, DW_AT_external
     770                    .dwattr $C$DW$67, DW_AT_decl_file("../src/ISR.c")
     771                    .dwattr $C$DW$67, DW_AT_decl_line(0x4c)
     772                    .dwattr $C$DW$67, DW_AT_decl_column(0x1a)
     773            
     774            $C$DW$68        .dwtag  DW_TAG_variable
     775                    .dwattr $C$DW$68, DW_AT_name("lngth")
     776                    .dwattr $C$DW$68, DW_AT_TI_symbol_name("lngth")
     777                    .dwattr $C$DW$68, DW_AT_type(*$C$DW$T$11)
     778                    .dwattr $C$DW$68, DW_AT_declaration
     779                    .dwattr $C$DW$68, DW_AT_external
     780                    .dwattr $C$DW$68, DW_AT_decl_file("../src/ISR.c")
     781                    .dwattr $C$DW$68, DW_AT_decl_line(0x4c)
     782                    .dwattr $C$DW$68, DW_AT_decl_column(0x1e)
     783            
     784            $C$DW$69        .dwtag  DW_TAG_variable
     785                    .dwattr $C$DW$69, DW_AT_name("upgrade")
     786                    .dwattr $C$DW$69, DW_AT_TI_symbol_name("upgrade")
     787                    .dwattr $C$DW$69, DW_AT_type(*$C$DW$T$6)
     788                    .dwattr $C$DW$69, DW_AT_declaration
     789                    .dwattr $C$DW$69, DW_AT_external
     790                    .dwattr $C$DW$69, DW_AT_decl_file("../src/ISR.c")
     791                    .dwattr $C$DW$69, DW_AT_decl_line(0x4d)
     792                    .dwattr $C$DW$69, DW_AT_decl_column(0x0e)
     793            
     794            $C$DW$70        .dwtag  DW_TAG_variable
     795                    .dwattr $C$DW$70, DW_AT_name("UGptr")
     796                    .dwattr $C$DW$70, DW_AT_TI_symbol_name("UGptr")
     797                    .dwattr $C$DW$70, DW_AT_type(*$C$DW$T$92)
     798                    .dwattr $C$DW$70, DW_AT_declaration
     799                    .dwattr $C$DW$70, DW_AT_external
     800                    .dwattr $C$DW$70, DW_AT_decl_file("../src/ISR.c")
     801                    .dwattr $C$DW$70, DW_AT_decl_line(0x4e)
     802                    .dwattr $C$DW$70, DW_AT_decl_column(0x18)
     803            
     804            $C$DW$71        .dwtag  DW_TAG_variable
     805                    .dwattr $C$DW$71, DW_AT_name("UGcnt")
     806                    .dwattr $C$DW$71, DW_AT_TI_symbol_name("UGcnt")
     807                    .dwattr $C$DW$71, DW_AT_type(*$C$DW$T$11)
     808                    .dwattr $C$DW$71, DW_AT_declaration
     809                    .dwattr $C$DW$71, DW_AT_external
     810                    .dwattr $C$DW$71, DW_AT_decl_file("../src/ISR.c")
     811                    .dwattr $C$DW$71, DW_AT_decl_line(0x50)
     812                    .dwattr $C$DW$71, DW_AT_decl_column(0x15)
MSP430 Assembler PC v21.6.1 Tue Dec 20 14:10:54 2022

Copyright (c) 2003-2018 Texas Instruments Incorporated
ISR.asm                                                              PAGE   16

     813            
     814            $C$DW$72        .dwtag  DW_TAG_variable
     815                    .dwattr $C$DW$72, DW_AT_name("pmsg")
     816                    .dwattr $C$DW$72, DW_AT_TI_symbol_name("pmsg")
     817                    .dwattr $C$DW$72, DW_AT_type(*$C$DW$T$11)
     818                    .dwattr $C$DW$72, DW_AT_declaration
     819                    .dwattr $C$DW$72, DW_AT_external
     820                    .dwattr $C$DW$72, DW_AT_decl_file("../src/ISR.c")
     821                    .dwattr $C$DW$72, DW_AT_decl_line(0x51)
     822                    .dwattr $C$DW$72, DW_AT_decl_column(0x15)
     823            
     824            $C$DW$73        .dwtag  DW_TAG_variable
     825                    .dwattr $C$DW$73, DW_AT_name("nmsg")
     826                    .dwattr $C$DW$73, DW_AT_TI_symbol_name("nmsg")
     827                    .dwattr $C$DW$73, DW_AT_type(*$C$DW$T$11)
     828                    .dwattr $C$DW$73, DW_AT_declaration
     829                    .dwattr $C$DW$73, DW_AT_external
     830                    .dwattr $C$DW$73, DW_AT_decl_file("../src/ISR.c")
     831                    .dwattr $C$DW$73, DW_AT_decl_line(0x51)
     832                    .dwattr $C$DW$73, DW_AT_decl_column(0x1a)
     833            
     834            $C$DW$74        .dwtag  DW_TAG_variable
     835                    .dwattr $C$DW$74, DW_AT_name("AmbTemp")
     836                    .dwattr $C$DW$74, DW_AT_TI_symbol_name("AmbTemp")
     837                    .dwattr $C$DW$74, DW_AT_type(*$C$DW$T$10)
     838                    .dwattr $C$DW$74, DW_AT_declaration
     839                    .dwattr $C$DW$74, DW_AT_external
     840                    .dwattr $C$DW$74, DW_AT_decl_file("../src/ISR.c")
     841                    .dwattr $C$DW$74, DW_AT_decl_line(0x56)
     842                    .dwattr $C$DW$74, DW_AT_decl_column(0x0c)
     843            
     844            $C$DW$75        .dwtag  DW_TAG_variable
     845                    .dwattr $C$DW$75, DW_AT_name("Out_A")
     846                    .dwattr $C$DW$75, DW_AT_TI_symbol_name("Out_A")
     847                    .dwattr $C$DW$75, DW_AT_type(*$C$DW$T$10)
     848                    .dwattr $C$DW$75, DW_AT_declaration
     849                    .dwattr $C$DW$75, DW_AT_external
     850                    .dwattr $C$DW$75, DW_AT_decl_file("../src/ISR.c")
     851                    .dwattr $C$DW$75, DW_AT_decl_line(0x56)
     852                    .dwattr $C$DW$75, DW_AT_decl_column(0x14)
     853            
     854                    .global command
     855 00000e               .data
     856                    .align  1
     857                    .elfsym command,SYM_SIZE(1)
     858 00000e       command:
     859 00000e 0000          .bits           0,8
     860                                    ; command @ 0
     861            
     862            $C$DW$76        .dwtag  DW_TAG_variable
     863                    .dwattr $C$DW$76, DW_AT_name("command")
     864                    .dwattr $C$DW$76, DW_AT_TI_symbol_name("command")
     865                    .dwattr $C$DW$76, DW_AT_location[DW_OP_addr command]
     866                    .dwattr $C$DW$76, DW_AT_type(*$C$DW$T$6)
     867                    .dwattr $C$DW$76, DW_AT_external
MSP430 Assembler PC v21.6.1 Tue Dec 20 14:10:54 2022

Copyright (c) 2003-2018 Texas Instruments Incorporated
ISR.asm                                                              PAGE   17

     868                    .dwattr $C$DW$76, DW_AT_decl_file("../src/ISR.c")
     869                    .dwattr $C$DW$76, DW_AT_decl_line(0x117)
     870                    .dwattr $C$DW$76, DW_AT_decl_column(0x06)
     871            
     872                    .global write
     873 00000f               .data
     874                    .align  1
     875                    .elfsym write,SYM_SIZE(1)
     876 00000f       write:
     877 00000e 0000          .bits           0,8
     878                                    ; write @ 0
     879            
     880            $C$DW$77        .dwtag  DW_TAG_variable
     881                    .dwattr $C$DW$77, DW_AT_name("write")
     882                    .dwattr $C$DW$77, DW_AT_TI_symbol_name("write")
     883                    .dwattr $C$DW$77, DW_AT_location[DW_OP_addr write]
     884                    .dwattr $C$DW$77, DW_AT_type(*$C$DW$T$6)
     885                    .dwattr $C$DW$77, DW_AT_external
     886                    .dwattr $C$DW$77, DW_AT_decl_file("../src/ISR.c")
     887                    .dwattr $C$DW$77, DW_AT_decl_line(0x118)
     888                    .dwattr $C$DW$77, DW_AT_decl_column(0x06)
     889            
     890                    .global read
     891 000010               .data
     892                    .align  1
     893                    .elfsym read,SYM_SIZE(1)
     894 000010       read:
     895 000010 0000          .bits           0,8
     896                                    ; read @ 0
     897            
     898            $C$DW$78        .dwtag  DW_TAG_variable
     899                    .dwattr $C$DW$78, DW_AT_name("read")
     900                    .dwattr $C$DW$78, DW_AT_TI_symbol_name("read")
     901                    .dwattr $C$DW$78, DW_AT_location[DW_OP_addr read]
     902                    .dwattr $C$DW$78, DW_AT_type(*$C$DW$T$6)
     903                    .dwattr $C$DW$78, DW_AT_external
     904                    .dwattr $C$DW$78, DW_AT_decl_file("../src/ISR.c")
     905                    .dwattr $C$DW$78, DW_AT_decl_line(0x119)
     906                    .dwattr $C$DW$78, DW_AT_decl_column(0x06)
     907            
     908                    .global byteCount
     909 000011               .data
     910                    .align  2
     911                    .elfsym byteCount,SYM_SIZE(2)
     912 000012       byteCount:
     913 000012 0000          .bits           0,16
     914                                    ; byteCount @ 0
     915            
     916            $C$DW$79        .dwtag  DW_TAG_variable
     917                    .dwattr $C$DW$79, DW_AT_name("byteCount")
     918                    .dwattr $C$DW$79, DW_AT_TI_symbol_name("byteCount")
     919                    .dwattr $C$DW$79, DW_AT_location[DW_OP_addr byteCount]
     920                    .dwattr $C$DW$79, DW_AT_type(*$C$DW$T$10)
     921                    .dwattr $C$DW$79, DW_AT_external
     922                    .dwattr $C$DW$79, DW_AT_decl_file("../src/ISR.c")
MSP430 Assembler PC v21.6.1 Tue Dec 20 14:10:54 2022

Copyright (c) 2003-2018 Texas Instruments Incorporated
ISR.asm                                                              PAGE   18

     923                    .dwattr $C$DW$79, DW_AT_decl_line(0x11a)
     924                    .dwattr $C$DW$79, DW_AT_decl_column(0x05)
     925            
     926            
     927            $C$DW$80        .dwtag  DW_TAG_subprogram
     928                    .dwattr $C$DW$80, DW_AT_name("SMBUSjump")
     929                    .dwattr $C$DW$80, DW_AT_TI_symbol_name("SMBUSjump")
     930                    .dwattr $C$DW$80, DW_AT_declaration
     931                    .dwattr $C$DW$80, DW_AT_external
     932                    .dwattr $C$DW$80, DW_AT_decl_file("../src/ISR.c")
     933                    .dwattr $C$DW$80, DW_AT_decl_line(0x68)
     934                    .dwattr $C$DW$80, DW_AT_decl_column(0x0d)
     935                    .dwendtag $C$DW$80
     936            
     937            
     938            $C$DW$81        .dwtag  DW_TAG_subprogram
     939                    .dwattr $C$DW$81, DW_AT_name("verify")
     940                    .dwattr $C$DW$81, DW_AT_TI_symbol_name("verify")
     941                    .dwattr $C$DW$81, DW_AT_declaration
     942                    .dwattr $C$DW$81, DW_AT_external
     943                    .dwattr $C$DW$81, DW_AT_decl_file("../src/ISR.c")
     944                    .dwattr $C$DW$81, DW_AT_decl_line(0x69)
     945                    .dwattr $C$DW$81, DW_AT_decl_column(0x0d)
     946                    .dwendtag $C$DW$81
     947            
     948            
     949            $C$DW$82        .dwtag  DW_TAG_subprogram
     950                    .dwattr $C$DW$82, DW_AT_name("verifyUG")
     951                    .dwattr $C$DW$82, DW_AT_TI_symbol_name("verifyUG")
     952                    .dwattr $C$DW$82, DW_AT_declaration
     953                    .dwattr $C$DW$82, DW_AT_external
     954                    .dwattr $C$DW$82, DW_AT_decl_file("../src/ISR.c")
     955                    .dwattr $C$DW$82, DW_AT_decl_line(0x6b)
     956                    .dwattr $C$DW$82, DW_AT_decl_column(0x0d)
     957                    .dwendtag $C$DW$82
     958            
     959            
     960            $C$DW$83        .dwtag  DW_TAG_subprogram
     961                    .dwattr $C$DW$83, DW_AT_name("__bic_SR_register_on_exit")
     962                    .dwattr $C$DW$83, DW_AT_TI_symbol_name("__bic_SR_register_on_exit")
     963                    .dwattr $C$DW$83, DW_AT_type(*$C$DW$T$11)
     964                    .dwattr $C$DW$83, DW_AT_declaration
     965                    .dwattr $C$DW$83, DW_AT_external
     966            $C$DW$84        .dwtag  DW_TAG_formal_parameter
     967                    .dwattr $C$DW$84, DW_AT_type(*$C$DW$T$9)
     968            
     969                    .dwendtag $C$DW$83
     970            
     971            ;       C:\ti\ccs1110\ccs\tools\compiler\ti-cgt-msp430_21.6.1.LTS\bin\opt430.exe C:\\Users\\MCourson\\
     972 000000               .sect   ".text:__signbitl"
     973                    .clink
     974                    .global __signbitl
     975            
     976            $C$DW$85        .dwtag  DW_TAG_subprogram
     977                    .dwattr $C$DW$85, DW_AT_name("__signbitl")
MSP430 Assembler PC v21.6.1 Tue Dec 20 14:10:54 2022

Copyright (c) 2003-2018 Texas Instruments Incorporated
ISR.asm                                                              PAGE   19

     978                    .dwattr $C$DW$85, DW_AT_low_pc(__signbitl)
     979                    .dwattr $C$DW$85, DW_AT_high_pc(0x00)
     980                    .dwattr $C$DW$85, DW_AT_TI_symbol_name("__signbitl")
     981                    .dwattr $C$DW$85, DW_AT_external
     982                    .dwattr $C$DW$85, DW_AT_type(*$C$DW$T$10)
     983                    .dwattr $C$DW$85, DW_AT_TI_begin_file("C:/ti/ccs1110/ccs/tools/compiler/ti-cgt-msp430_21.6.1.L
     984                    .dwattr $C$DW$85, DW_AT_TI_begin_line(0x16f)
     985                    .dwattr $C$DW$85, DW_AT_TI_begin_column(0x25)
     986                    .dwattr $C$DW$85, DW_AT_decl_file("C:/ti/ccs1110/ccs/tools/compiler/ti-cgt-msp430_21.6.1.LTS/i
     987                    .dwattr $C$DW$85, DW_AT_decl_line(0x16f)
     988                    .dwattr $C$DW$85, DW_AT_decl_column(0x25)
     989                    .dwattr $C$DW$85, DW_AT_TI_max_frame_size(0x04)
     990                    .dwpsn  file "C:/ti/ccs1110/ccs/tools/compiler/ti-cgt-msp430_21.6.1.LTS/include/_defs.h",line 
     991            
     992                    .dwfde $C$DW$CIE, __signbitl
     993            $C$DW$86        .dwtag  DW_TAG_formal_parameter
     994                    .dwattr $C$DW$86, DW_AT_name("e")
     995                    .dwattr $C$DW$86, DW_AT_TI_symbol_name("e")
     996                    .dwattr $C$DW$86, DW_AT_type(*$C$DW$T$18)
     997                    .dwattr $C$DW$86, DW_AT_location[DW_OP_reg12 DW_OP_piece 2 DW_OP_reg13 DW_OP_piece 2 DW_OP_reg
     998            
     999            
    1000            ;*****************************************************************************
    1001            ;* FUNCTION NAME: __signbitl                                                 *
    1002            ;*                                                                           *
    1003            ;*   Regs Modified     : SP,SR,r11,r12,r13,r14,r15                           *
    1004            ;*   Regs Used         : SP,SR,r11,r12,r13,r14,r15                           *
    1005            ;*   Local Frame Size  : 0 Args + 0 Auto + 0 Save = 0 byte                   *
    1006            ;*****************************************************************************
    1007 000000       __signbitl:
    1008            ;* --------------------------------------------------------------------------*
    1009                    .dwcfi  cfa_offset, 4
    1010                    .dwcfi  save_reg_to_mem, 16, -4
    1011                    .dwpsn  file "C:/ti/ccs1110/ccs/tools/compiler/ti-cgt-msp430_21.6.1.LTS/include/_defs.h",line 
    1012 000000 430B          MOV.W     #0,r11                ; [] |368| 
    1013 000002 F30C          AND.W     #0,r12                ; [] |368| 
    1014 000004 F30D          AND.W     #0,r13                ; [] |368| 
    1015 000006 F30E          AND.W     #0,r14                ; [] |368| 
    1016 000008 F03F          AND.W     #32768,r15            ; [] |368| 
         00000a 8000 
    1017 00000c 930F          TST.W     r15                   ; [] |368| 
    1018 00000e 2006          JNE       $C$L1                 ; [] |368| 
    1019                                                      ; [] |368| 
    1020            ;* --------------------------------------------------------------------------*
    1021 000010 930E          TST.W     r14                   ; [] |368| 
    1022 000012 2004          JNE       $C$L1                 ; [] |368| 
    1023                                                      ; [] |368| 
    1024            ;* --------------------------------------------------------------------------*
    1025 000014 930D          TST.W     r13                   ; [] |368| 
    1026 000016 2002          JNE       $C$L1                 ; [] |368| 
    1027                                                      ; [] |368| 
    1028            ;* --------------------------------------------------------------------------*
    1029 000018 930C          TST.W     r12                   ; [] |368| 
    1030 00001a 2401          JEQ       $C$L2                 ; [] |368| 
    1031                                                      ; [] |368| 
MSP430 Assembler PC v21.6.1 Tue Dec 20 14:10:54 2022

Copyright (c) 2003-2018 Texas Instruments Incorporated
ISR.asm                                                              PAGE   20

    1032            ;* --------------------------------------------------------------------------*
    1033 00001c       $C$L1:    
    1034 00001c 431B          MOV.W     #1,r11                ; [] |368| 
    1035            ;* --------------------------------------------------------------------------*
    1036 00001e       $C$L2:    
    1037 00001e 0BCC          MOVA      r11,r12               ; [] |368| 
    1038                    .dwpsn  file "C:/ti/ccs1110/ccs/tools/compiler/ti-cgt-msp430_21.6.1.LTS/include/_defs.h",line 
    1039            $C$DW$87        .dwtag  DW_TAG_TI_branch
    1040                    .dwattr $C$DW$87, DW_AT_low_pc(0x00)
    1041                    .dwattr $C$DW$87, DW_AT_TI_return
    1042            
    1043 000020 0110          RETA      ; [] 
    1044                    ; [] 
    1045                    .dwattr $C$DW$85, DW_AT_TI_end_file("C:/ti/ccs1110/ccs/tools/compiler/ti-cgt-msp430_21.6.1.LTS
    1046                    .dwattr $C$DW$85, DW_AT_TI_end_line(0x170)
    1047                    .dwattr $C$DW$85, DW_AT_TI_end_column(0x2b)
    1048                    .dwendentry
    1049                    .dwendtag $C$DW$85
    1050            
    1051 000000               .sect   ".text:__signbitf"
    1052                    .clink
    1053                    .global __signbitf
    1054            
    1055            $C$DW$88        .dwtag  DW_TAG_subprogram
    1056                    .dwattr $C$DW$88, DW_AT_name("__signbitf")
    1057                    .dwattr $C$DW$88, DW_AT_low_pc(__signbitf)
    1058                    .dwattr $C$DW$88, DW_AT_high_pc(0x00)
    1059                    .dwattr $C$DW$88, DW_AT_TI_symbol_name("__signbitf")
    1060                    .dwattr $C$DW$88, DW_AT_external
    1061                    .dwattr $C$DW$88, DW_AT_type(*$C$DW$T$10)
    1062                    .dwattr $C$DW$88, DW_AT_TI_begin_file("C:/ti/ccs1110/ccs/tools/compiler/ti-cgt-msp430_21.6.1.L
    1063                    .dwattr $C$DW$88, DW_AT_TI_begin_line(0x16d)
    1064                    .dwattr $C$DW$88, DW_AT_TI_begin_column(0x25)
    1065                    .dwattr $C$DW$88, DW_AT_decl_file("C:/ti/ccs1110/ccs/tools/compiler/ti-cgt-msp430_21.6.1.LTS/i
    1066                    .dwattr $C$DW$88, DW_AT_decl_line(0x16d)
    1067                    .dwattr $C$DW$88, DW_AT_decl_column(0x25)
    1068                    .dwattr $C$DW$88, DW_AT_TI_max_frame_size(0x04)
    1069                    .dwpsn  file "C:/ti/ccs1110/ccs/tools/compiler/ti-cgt-msp430_21.6.1.LTS/include/_defs.h",line 
    1070            
    1071                    .dwfde $C$DW$CIE, __signbitf
    1072            $C$DW$89        .dwtag  DW_TAG_formal_parameter
    1073                    .dwattr $C$DW$89, DW_AT_name("f")
    1074                    .dwattr $C$DW$89, DW_AT_TI_symbol_name("f")
    1075                    .dwattr $C$DW$89, DW_AT_type(*$C$DW$T$16)
    1076                    .dwattr $C$DW$89, DW_AT_location[DW_OP_reg12 DW_OP_piece 2 DW_OP_reg13 DW_OP_piece 2]
    1077            
    1078            
    1079            ;*****************************************************************************
    1080            ;* FUNCTION NAME: __signbitf                                                 *
    1081            ;*                                                                           *
    1082            ;*   Regs Modified     : SP,SR,r12                                           *
    1083            ;*   Regs Used         : SP,SR,r12,r13                                       *
    1084            ;*   Local Frame Size  : 0 Args + 0 Auto + 0 Save = 0 byte                   *
    1085            ;*****************************************************************************
    1086 000000       __signbitf:
MSP430 Assembler PC v21.6.1 Tue Dec 20 14:10:54 2022

Copyright (c) 2003-2018 Texas Instruments Incorporated
ISR.asm                                                              PAGE   21

    1087            ;* --------------------------------------------------------------------------*
    1088                    .dwcfi  cfa_offset, 4
    1089                    .dwcfi  save_reg_to_mem, 16, -4
    1090                    .dwpsn  file "C:/ti/ccs1110/ccs/tools/compiler/ti-cgt-msp430_21.6.1.LTS/include/_defs.h",line 
    1091 000000 430C          MOV.W     #0,r12                ; [] |366| 
    1092 000002 930D          TST.W     r13                   ; [] |366| 
    1093 000004 3401          JGE       $C$L3                 ; [] |366| 
    1094                                                      ; [] |366| 
    1095            ;* --------------------------------------------------------------------------*
    1096 000006 431C          MOV.W     #1,r12                ; [] |366| 
    1097            ;* --------------------------------------------------------------------------*
    1098 000008       $C$L3:    
    1099                    .dwpsn  file "C:/ti/ccs1110/ccs/tools/compiler/ti-cgt-msp430_21.6.1.LTS/include/_defs.h",line 
    1100            $C$DW$90        .dwtag  DW_TAG_TI_branch
    1101                    .dwattr $C$DW$90, DW_AT_low_pc(0x00)
    1102                    .dwattr $C$DW$90, DW_AT_TI_return
    1103            
    1104 000008 0110          RETA      ; [] 
    1105                    ; [] 
    1106                    .dwattr $C$DW$88, DW_AT_TI_end_file("C:/ti/ccs1110/ccs/tools/compiler/ti-cgt-msp430_21.6.1.LTS
    1107                    .dwattr $C$DW$88, DW_AT_TI_end_line(0x16e)
    1108                    .dwattr $C$DW$88, DW_AT_TI_end_column(0x29)
    1109                    .dwendentry
    1110                    .dwendtag $C$DW$88
    1111            
    1112 000000               .sect   ".text:__signbit"
    1113                    .clink
    1114                    .global __signbit
    1115            
    1116            $C$DW$91        .dwtag  DW_TAG_subprogram
    1117                    .dwattr $C$DW$91, DW_AT_name("__signbit")
    1118                    .dwattr $C$DW$91, DW_AT_low_pc(__signbit)
    1119                    .dwattr $C$DW$91, DW_AT_high_pc(0x00)
    1120                    .dwattr $C$DW$91, DW_AT_TI_symbol_name("__signbit")
    1121                    .dwattr $C$DW$91, DW_AT_external
    1122                    .dwattr $C$DW$91, DW_AT_type(*$C$DW$T$10)
    1123                    .dwattr $C$DW$91, DW_AT_TI_begin_file("C:/ti/ccs1110/ccs/tools/compiler/ti-cgt-msp430_21.6.1.L
    1124                    .dwattr $C$DW$91, DW_AT_TI_begin_line(0x16b)
    1125                    .dwattr $C$DW$91, DW_AT_TI_begin_column(0x25)
    1126                    .dwattr $C$DW$91, DW_AT_decl_file("C:/ti/ccs1110/ccs/tools/compiler/ti-cgt-msp430_21.6.1.LTS/i
    1127                    .dwattr $C$DW$91, DW_AT_decl_line(0x16b)
    1128                    .dwattr $C$DW$91, DW_AT_decl_column(0x25)
    1129                    .dwattr $C$DW$91, DW_AT_TI_max_frame_size(0x04)
    1130                    .dwpsn  file "C:/ti/ccs1110/ccs/tools/compiler/ti-cgt-msp430_21.6.1.LTS/include/_defs.h",line 
    1131            
    1132                    .dwfde $C$DW$CIE, __signbit
    1133            $C$DW$92        .dwtag  DW_TAG_formal_parameter
    1134                    .dwattr $C$DW$92, DW_AT_name("d")
    1135                    .dwattr $C$DW$92, DW_AT_TI_symbol_name("d")
    1136                    .dwattr $C$DW$92, DW_AT_type(*$C$DW$T$17)
    1137                    .dwattr $C$DW$92, DW_AT_location[DW_OP_reg12 DW_OP_piece 2 DW_OP_reg13 DW_OP_piece 2 DW_OP_reg
    1138            
    1139            
    1140            ;*****************************************************************************
    1141            ;* FUNCTION NAME: __signbit                                                  *
MSP430 Assembler PC v21.6.1 Tue Dec 20 14:10:54 2022

Copyright (c) 2003-2018 Texas Instruments Incorporated
ISR.asm                                                              PAGE   22

    1142            ;*                                                                           *
    1143            ;*   Regs Modified     : SP,SR,r11,r12,r13,r14,r15                           *
    1144            ;*   Regs Used         : SP,SR,r11,r12,r13,r14,r15                           *
    1145            ;*   Local Frame Size  : 0 Args + 0 Auto + 0 Save = 0 byte                   *
    1146            ;*****************************************************************************
    1147 000000       __signbit:
    1148            ;* --------------------------------------------------------------------------*
    1149                    .dwcfi  cfa_offset, 4
    1150                    .dwcfi  save_reg_to_mem, 16, -4
    1151                    .dwpsn  file "C:/ti/ccs1110/ccs/tools/compiler/ti-cgt-msp430_21.6.1.LTS/include/_defs.h",line 
    1152 000000 430B          MOV.W     #0,r11                ; [] |364| 
    1153 000002 F30C          AND.W     #0,r12                ; [] |364| 
    1154 000004 F30D          AND.W     #0,r13                ; [] |364| 
    1155 000006 F30E          AND.W     #0,r14                ; [] |364| 
    1156 000008 F03F          AND.W     #32768,r15            ; [] |364| 
         00000a 8000 
    1157 00000c 930F          TST.W     r15                   ; [] |364| 
    1158 00000e 2006          JNE       $C$L4                 ; [] |364| 
    1159                                                      ; [] |364| 
    1160            ;* --------------------------------------------------------------------------*
    1161 000010 930E          TST.W     r14                   ; [] |364| 
    1162 000012 2004          JNE       $C$L4                 ; [] |364| 
    1163                                                      ; [] |364| 
    1164            ;* --------------------------------------------------------------------------*
    1165 000014 930D          TST.W     r13                   ; [] |364| 
    1166 000016 2002          JNE       $C$L4                 ; [] |364| 
    1167                                                      ; [] |364| 
    1168            ;* --------------------------------------------------------------------------*
    1169 000018 930C          TST.W     r12                   ; [] |364| 
    1170 00001a 2401          JEQ       $C$L5                 ; [] |364| 
    1171                                                      ; [] |364| 
    1172            ;* --------------------------------------------------------------------------*
    1173 00001c       $C$L4:    
    1174 00001c 431B          MOV.W     #1,r11                ; [] |364| 
    1175            ;* --------------------------------------------------------------------------*
    1176 00001e       $C$L5:    
    1177 00001e 0BCC          MOVA      r11,r12               ; [] |364| 
    1178                    .dwpsn  file "C:/ti/ccs1110/ccs/tools/compiler/ti-cgt-msp430_21.6.1.LTS/include/_defs.h",line 
    1179            $C$DW$93        .dwtag  DW_TAG_TI_branch
    1180                    .dwattr $C$DW$93, DW_AT_low_pc(0x00)
    1181                    .dwattr $C$DW$93, DW_AT_TI_return
    1182            
    1183 000020 0110          RETA      ; [] 
    1184                    ; [] 
    1185                    .dwattr $C$DW$91, DW_AT_TI_end_file("C:/ti/ccs1110/ccs/tools/compiler/ti-cgt-msp430_21.6.1.LTS
    1186                    .dwattr $C$DW$91, DW_AT_TI_end_line(0x16c)
    1187                    .dwattr $C$DW$91, DW_AT_TI_end_column(0x2a)
    1188                    .dwendentry
    1189                    .dwendtag $C$DW$91
    1190            
    1191 000000               .sect   ".text:__isnormall"
    1192                    .clink
    1193                    .global __isnormall
    1194            
    1195            $C$DW$94        .dwtag  DW_TAG_subprogram
MSP430 Assembler PC v21.6.1 Tue Dec 20 14:10:54 2022

Copyright (c) 2003-2018 Texas Instruments Incorporated
ISR.asm                                                              PAGE   23

    1196                    .dwattr $C$DW$94, DW_AT_name("__isnormall")
    1197                    .dwattr $C$DW$94, DW_AT_low_pc(__isnormall)
    1198                    .dwattr $C$DW$94, DW_AT_high_pc(0x00)
    1199                    .dwattr $C$DW$94, DW_AT_TI_symbol_name("__isnormall")
    1200                    .dwattr $C$DW$94, DW_AT_external
    1201                    .dwattr $C$DW$94, DW_AT_type(*$C$DW$T$10)
    1202                    .dwattr $C$DW$94, DW_AT_TI_begin_file("C:/ti/ccs1110/ccs/tools/compiler/ti-cgt-msp430_21.6.1.L
    1203                    .dwattr $C$DW$94, DW_AT_TI_begin_line(0x167)
    1204                    .dwattr $C$DW$94, DW_AT_TI_begin_column(0x25)
    1205                    .dwattr $C$DW$94, DW_AT_decl_file("C:/ti/ccs1110/ccs/tools/compiler/ti-cgt-msp430_21.6.1.LTS/i
    1206                    .dwattr $C$DW$94, DW_AT_decl_line(0x167)
    1207                    .dwattr $C$DW$94, DW_AT_decl_column(0x25)
    1208                    .dwattr $C$DW$94, DW_AT_TI_max_frame_size(0x18)
    1209                    .dwpsn  file "C:/ti/ccs1110/ccs/tools/compiler/ti-cgt-msp430_21.6.1.LTS/include/_defs.h",line 
    1210            
    1211                    .dwfde $C$DW$CIE, __isnormall
    1212            $C$DW$95        .dwtag  DW_TAG_formal_parameter
    1213                    .dwattr $C$DW$95, DW_AT_name("e")
    1214                    .dwattr $C$DW$95, DW_AT_TI_symbol_name("e")
    1215                    .dwattr $C$DW$95, DW_AT_type(*$C$DW$T$18)
    1216                    .dwattr $C$DW$95, DW_AT_location[DW_OP_reg12 DW_OP_piece 2 DW_OP_reg13 DW_OP_piece 2 DW_OP_reg
    1217            
    1218            
    1219            ;*****************************************************************************
    1220            ;* FUNCTION NAME: __isnormall                                                *
    1221            ;*                                                                           *
    1222            ;*   Regs Modified     : SP,SR,r6,r7,r8,r9,r10,r11,r12,r13,r14,r15           *
    1223            ;*   Regs Used         : SP,SR,r6,r7,r8,r9,r10,r11,r12,r13,r14,r15           *
    1224            ;*   Local Frame Size  : 0 Args + 0 Auto + 20 Save = 20 byte                 *
    1225            ;*****************************************************************************
    1226 000000       __isnormall:
    1227            ;* --------------------------------------------------------------------------*
    1228                    .dwcfi  cfa_offset, 4
    1229                    .dwcfi  save_reg_to_mem, 16, -4
    1230 000000 144A          PUSHM.A   #5,r10                ; [] 
    1231                    .dwcfi  save_reg_to_mem, 10, -8
    1232                    .dwcfi  save_reg_to_mem, 9, -12
    1233                    .dwcfi  save_reg_to_mem, 8, -16
    1234                    .dwcfi  save_reg_to_mem, 7, -20
    1235                    .dwcfi  save_reg_to_mem, 6, -24
    1236                    .dwcfi  cfa_offset, 24
    1237            ;* r6    assigned to $O$S1
    1238            ;* r12   assigned to e
    1239            $C$DW$96        .dwtag  DW_TAG_variable
    1240                    .dwattr $C$DW$96, DW_AT_name("e")
    1241                    .dwattr $C$DW$96, DW_AT_TI_symbol_name("e")
    1242                    .dwattr $C$DW$96, DW_AT_type(*$C$DW$T$18)
    1243                    .dwattr $C$DW$96, DW_AT_location[DW_OP_reg12 DW_OP_piece 2 DW_OP_reg13 DW_OP_piece 2 DW_OP_reg
    1244            
    1245 000002 0FC7          MOVA      r15,r7                ; [] |360| 
    1246                    .dwpsn  file "C:/ti/ccs1110/ccs/tools/compiler/ti-cgt-msp430_21.6.1.LTS/include/_defs.h",line 
    1247 000004 4306          MOV.W     #0,r6                 ; [] |360| 
    1248 000006 0CC8          MOVA      r12,r8                ; [] |360| 
    1249 000008 0DC9          MOVA      r13,r9                ; [] |360| 
    1250 00000a 0ECA          MOVA      r14,r10               ; [] |360| 
MSP430 Assembler PC v21.6.1 Tue Dec 20 14:10:54 2022

Copyright (c) 2003-2018 Texas Instruments Incorporated
ISR.asm                                                              PAGE   24

    1251 00000c 07CB          MOVA      r7,r11                ; [] |360| 
    1252 00000e 403C          MOV.W     #52,r12               ; [] |360| 
         000010 0034 
    1253            $C$DW$97        .dwtag  DW_TAG_TI_branch
    1254                    .dwattr $C$DW$97, DW_AT_low_pc(0x00)
    1255                    .dwattr $C$DW$97, DW_AT_name("__mspabi_srlll")
    1256                    .dwattr $C$DW$97, DW_AT_TI_call
    1257            
    1258 000012 13B0!         CALLA     #__mspabi_srlll       ; [] |360| 
         000014 0000 
    1259                                                      ; [] |360| 
    1260 000016 F03C          AND.W     #2047,r12             ; [] |360| 
         000018 07FF 
    1261 00001a F30D          AND.W     #0,r13                ; [] |360| 
    1262 00001c F30E          AND.W     #0,r14                ; [] |360| 
    1263 00001e F30F          AND.W     #0,r15                ; [] |360| 
    1264 000020 930F          TST.W     r15                   ; [] |360| 
    1265 000022 2006          JNE       $C$L6                 ; [] |360| 
    1266                                                      ; [] |360| 
    1267            ;* --------------------------------------------------------------------------*
    1268 000024 930E          TST.W     r14                   ; [] |360| 
    1269 000026 2004          JNE       $C$L6                 ; [] |360| 
    1270                                                      ; [] |360| 
    1271            ;* --------------------------------------------------------------------------*
    1272 000028 930D          TST.W     r13                   ; [] |360| 
    1273 00002a 2002          JNE       $C$L6                 ; [] |360| 
    1274                                                      ; [] |360| 
    1275            ;* --------------------------------------------------------------------------*
    1276 00002c 930C          TST.W     r12                   ; [] |360| 
    1277 00002e 2406          JEQ       $C$L7                 ; [] |360| 
    1278                                                      ; [] |360| 
    1279            ;* --------------------------------------------------------------------------*
    1280 000030       $C$L6:    
    1281 000030 F037          AND.W     #32752,r7             ; [] |360| 
         000032 7FF0 
    1282 000034 9037          CMP.W     #32752,r7             ; [] |360| 
         000036 7FF0 
    1283 000038 2401          JEQ       $C$L7                 ; [] |360| 
    1284                                                      ; [] |360| 
    1285            ;* --------------------------------------------------------------------------*
    1286 00003a 4316          MOV.W     #1,r6                 ; [] |360| 
    1287            ;* --------------------------------------------------------------------------*
    1288 00003c       $C$L7:    
    1289 00003c 06CC          MOVA      r6,r12                ; [] |360| 
    1290                    .dwpsn  file "C:/ti/ccs1110/ccs/tools/compiler/ti-cgt-msp430_21.6.1.LTS/include/_defs.h",line 
    1291 00003e 1646          POPM.A    #5,r10                ; [] 
    1292                    .dwcfi  restore_reg, 6
    1293                    .dwcfi  restore_reg, 7
    1294                    .dwcfi  restore_reg, 8
    1295                    .dwcfi  restore_reg, 9
    1296                    .dwcfi  restore_reg, 10
    1297                    .dwcfi  cfa_offset, 4
    1298            $C$DW$98        .dwtag  DW_TAG_TI_branch
    1299                    .dwattr $C$DW$98, DW_AT_low_pc(0x00)
    1300                    .dwattr $C$DW$98, DW_AT_TI_return
MSP430 Assembler PC v21.6.1 Tue Dec 20 14:10:54 2022

Copyright (c) 2003-2018 Texas Instruments Incorporated
ISR.asm                                                              PAGE   25

    1301            
    1302 000040 0110          RETA      ; [] 
    1303                    ; [] 
    1304                    .dwattr $C$DW$94, DW_AT_TI_end_file("C:/ti/ccs1110/ccs/tools/compiler/ti-cgt-msp430_21.6.1.LTS
    1305                    .dwattr $C$DW$94, DW_AT_TI_end_line(0x169)
    1306                    .dwattr $C$DW$94, DW_AT_TI_end_column(0x31)
    1307                    .dwendentry
    1308                    .dwendtag $C$DW$94
    1309            
    1310 000000               .sect   ".text:__isnormalf"
    1311                    .clink
    1312                    .global __isnormalf
    1313            
    1314            $C$DW$99        .dwtag  DW_TAG_subprogram
    1315                    .dwattr $C$DW$99, DW_AT_name("__isnormalf")
    1316                    .dwattr $C$DW$99, DW_AT_low_pc(__isnormalf)
    1317                    .dwattr $C$DW$99, DW_AT_high_pc(0x00)
    1318                    .dwattr $C$DW$99, DW_AT_TI_symbol_name("__isnormalf")
    1319                    .dwattr $C$DW$99, DW_AT_external
    1320                    .dwattr $C$DW$99, DW_AT_type(*$C$DW$T$10)
    1321                    .dwattr $C$DW$99, DW_AT_TI_begin_file("C:/ti/ccs1110/ccs/tools/compiler/ti-cgt-msp430_21.6.1.L
    1322                    .dwattr $C$DW$99, DW_AT_TI_begin_line(0x163)
    1323                    .dwattr $C$DW$99, DW_AT_TI_begin_column(0x25)
    1324                    .dwattr $C$DW$99, DW_AT_decl_file("C:/ti/ccs1110/ccs/tools/compiler/ti-cgt-msp430_21.6.1.LTS/i
    1325                    .dwattr $C$DW$99, DW_AT_decl_line(0x163)
    1326                    .dwattr $C$DW$99, DW_AT_decl_column(0x25)
    1327                    .dwattr $C$DW$99, DW_AT_TI_max_frame_size(0x04)
    1328                    .dwpsn  file "C:/ti/ccs1110/ccs/tools/compiler/ti-cgt-msp430_21.6.1.LTS/include/_defs.h",line 
    1329            
    1330                    .dwfde $C$DW$CIE, __isnormalf
    1331            $C$DW$100       .dwtag  DW_TAG_formal_parameter
    1332                    .dwattr $C$DW$100, DW_AT_name("f")
    1333                    .dwattr $C$DW$100, DW_AT_TI_symbol_name("f")
    1334                    .dwattr $C$DW$100, DW_AT_type(*$C$DW$T$16)
    1335                    .dwattr $C$DW$100, DW_AT_location[DW_OP_reg12 DW_OP_piece 2 DW_OP_reg13 DW_OP_piece 2]
    1336            
    1337            
    1338            ;*****************************************************************************
    1339            ;* FUNCTION NAME: __isnormalf                                                *
    1340            ;*                                                                           *
    1341            ;*   Regs Modified     : SP,SR,r12,r13,r15                                   *
    1342            ;*   Regs Used         : SP,SR,r12,r13,r15                                   *
    1343            ;*   Local Frame Size  : 0 Args + 0 Auto + 0 Save = 0 byte                   *
    1344            ;*****************************************************************************
    1345 000000       __isnormalf:
    1346            ;* --------------------------------------------------------------------------*
    1347                    .dwcfi  cfa_offset, 4
    1348                    .dwcfi  save_reg_to_mem, 16, -4
    1349            ;* r12   assigned to $O$S1
    1350                    .dwpsn  file "C:/ti/ccs1110/ccs/tools/compiler/ti-cgt-msp430_21.6.1.LTS/include/_defs.h",line 
    1351 000000 430C          MOV.W     #0,r12                ; [] |356| 
    1352 000002 0DCF          MOVA      r13,r15               ; [] |356| 
    1353 000004 1946          RPT #7 || RRUX.W r15 ; [] |356| 
         000006 100F 
    1354 000008 B03F          BIT.W     #255,r15              ; [] |356| 
MSP430 Assembler PC v21.6.1 Tue Dec 20 14:10:54 2022

Copyright (c) 2003-2018 Texas Instruments Incorporated
ISR.asm                                                              PAGE   26

         00000a 00FF 
    1355 00000c 2406          JEQ       $C$L8                 ; [] |356| 
    1356                                                      ; [] |356| 
    1357            ;* --------------------------------------------------------------------------*
    1358 00000e F03D          AND.W     #32640,r13            ; [] |356| 
         000010 7F80 
    1359 000012 903D          CMP.W     #32640,r13            ; [] |356| 
         000014 7F80 
    1360 000016 2401          JEQ       $C$L8                 ; [] |356| 
    1361                                                      ; [] |356| 
    1362            ;* --------------------------------------------------------------------------*
    1363 000018 431C          MOV.W     #1,r12                ; [] |356| 
    1364            ;* --------------------------------------------------------------------------*
    1365 00001a       $C$L8:    
    1366                    .dwpsn  file "C:/ti/ccs1110/ccs/tools/compiler/ti-cgt-msp430_21.6.1.LTS/include/_defs.h",line 
    1367            $C$DW$101       .dwtag  DW_TAG_TI_branch
    1368                    .dwattr $C$DW$101, DW_AT_low_pc(0x00)
    1369                    .dwattr $C$DW$101, DW_AT_TI_return
    1370            
    1371 00001a 0110          RETA      ; [] 
    1372                    ; [] 
    1373                    .dwattr $C$DW$99, DW_AT_TI_end_file("C:/ti/ccs1110/ccs/tools/compiler/ti-cgt-msp430_21.6.1.LTS
    1374                    .dwattr $C$DW$99, DW_AT_TI_end_line(0x165)
    1375                    .dwattr $C$DW$99, DW_AT_TI_end_column(0x2f)
    1376                    .dwendentry
    1377                    .dwendtag $C$DW$99
    1378            
    1379 000000               .sect   ".text:__isnormal"
    1380                    .clink
    1381                    .global __isnormal
    1382            
    1383            $C$DW$102       .dwtag  DW_TAG_subprogram
    1384                    .dwattr $C$DW$102, DW_AT_name("__isnormal")
    1385                    .dwattr $C$DW$102, DW_AT_low_pc(__isnormal)
    1386                    .dwattr $C$DW$102, DW_AT_high_pc(0x00)
    1387                    .dwattr $C$DW$102, DW_AT_TI_symbol_name("__isnormal")
    1388                    .dwattr $C$DW$102, DW_AT_external
    1389                    .dwattr $C$DW$102, DW_AT_type(*$C$DW$T$10)
    1390                    .dwattr $C$DW$102, DW_AT_TI_begin_file("C:/ti/ccs1110/ccs/tools/compiler/ti-cgt-msp430_21.6.1.
    1391                    .dwattr $C$DW$102, DW_AT_TI_begin_line(0x15f)
    1392                    .dwattr $C$DW$102, DW_AT_TI_begin_column(0x25)
    1393                    .dwattr $C$DW$102, DW_AT_decl_file("C:/ti/ccs1110/ccs/tools/compiler/ti-cgt-msp430_21.6.1.LTS/
    1394                    .dwattr $C$DW$102, DW_AT_decl_line(0x15f)
    1395                    .dwattr $C$DW$102, DW_AT_decl_column(0x25)
    1396                    .dwattr $C$DW$102, DW_AT_TI_max_frame_size(0x18)
    1397                    .dwpsn  file "C:/ti/ccs1110/ccs/tools/compiler/ti-cgt-msp430_21.6.1.LTS/include/_defs.h",line 
    1398            
    1399                    .dwfde $C$DW$CIE, __isnormal
    1400            $C$DW$103       .dwtag  DW_TAG_formal_parameter
    1401                    .dwattr $C$DW$103, DW_AT_name("d")
    1402                    .dwattr $C$DW$103, DW_AT_TI_symbol_name("d")
    1403                    .dwattr $C$DW$103, DW_AT_type(*$C$DW$T$17)
    1404                    .dwattr $C$DW$103, DW_AT_location[DW_OP_reg12 DW_OP_piece 2 DW_OP_reg13 DW_OP_piece 2 DW_OP_re
    1405            
    1406            
MSP430 Assembler PC v21.6.1 Tue Dec 20 14:10:54 2022

Copyright (c) 2003-2018 Texas Instruments Incorporated
ISR.asm                                                              PAGE   27

    1407            ;*****************************************************************************
    1408            ;* FUNCTION NAME: __isnormal                                                 *
    1409            ;*                                                                           *
    1410            ;*   Regs Modified     : SP,SR,r6,r7,r8,r9,r10,r11,r12,r13,r14,r15           *
    1411            ;*   Regs Used         : SP,SR,r6,r7,r8,r9,r10,r11,r12,r13,r14,r15           *
    1412            ;*   Local Frame Size  : 0 Args + 0 Auto + 20 Save = 20 byte                 *
    1413            ;*****************************************************************************
    1414 000000       __isnormal:
    1415            ;* --------------------------------------------------------------------------*
    1416                    .dwcfi  cfa_offset, 4
    1417                    .dwcfi  save_reg_to_mem, 16, -4
    1418 000000 144A          PUSHM.A   #5,r10                ; [] 
    1419                    .dwcfi  save_reg_to_mem, 10, -8
    1420                    .dwcfi  save_reg_to_mem, 9, -12
    1421                    .dwcfi  save_reg_to_mem, 8, -16
    1422                    .dwcfi  save_reg_to_mem, 7, -20
    1423                    .dwcfi  save_reg_to_mem, 6, -24
    1424                    .dwcfi  cfa_offset, 24
    1425            ;* r6    assigned to $O$S1
    1426            ;* r12   assigned to d
    1427            $C$DW$104       .dwtag  DW_TAG_variable
    1428                    .dwattr $C$DW$104, DW_AT_name("d")
    1429                    .dwattr $C$DW$104, DW_AT_TI_symbol_name("d")
    1430                    .dwattr $C$DW$104, DW_AT_type(*$C$DW$T$17)
    1431                    .dwattr $C$DW$104, DW_AT_location[DW_OP_reg12 DW_OP_piece 2 DW_OP_reg13 DW_OP_piece 2 DW_OP_re
    1432            
    1433 000002 0FC7          MOVA      r15,r7                ; [] |352| 
    1434                    .dwpsn  file "C:/ti/ccs1110/ccs/tools/compiler/ti-cgt-msp430_21.6.1.LTS/include/_defs.h",line 
    1435 000004 4306          MOV.W     #0,r6                 ; [] |352| 
    1436 000006 0CC8          MOVA      r12,r8                ; [] |352| 
    1437 000008 0DC9          MOVA      r13,r9                ; [] |352| 
    1438 00000a 0ECA          MOVA      r14,r10               ; [] |352| 
    1439 00000c 07CB          MOVA      r7,r11                ; [] |352| 
    1440 00000e 403C          MOV.W     #52,r12               ; [] |352| 
         000010 0034 
    1441            $C$DW$105       .dwtag  DW_TAG_TI_branch
    1442                    .dwattr $C$DW$105, DW_AT_low_pc(0x00)
    1443                    .dwattr $C$DW$105, DW_AT_name("__mspabi_srlll")
    1444                    .dwattr $C$DW$105, DW_AT_TI_call
    1445            
    1446 000012 13B0!         CALLA     #__mspabi_srlll       ; [] |352| 
         000014 0000 
    1447                                                      ; [] |352| 
    1448 000016 F03C          AND.W     #2047,r12             ; [] |352| 
         000018 07FF 
    1449 00001a F30D          AND.W     #0,r13                ; [] |352| 
    1450 00001c F30E          AND.W     #0,r14                ; [] |352| 
    1451 00001e F30F          AND.W     #0,r15                ; [] |352| 
    1452 000020 930F          TST.W     r15                   ; [] |352| 
    1453 000022 2006          JNE       $C$L9                 ; [] |352| 
    1454                                                      ; [] |352| 
    1455            ;* --------------------------------------------------------------------------*
    1456 000024 930E          TST.W     r14                   ; [] |352| 
    1457 000026 2004          JNE       $C$L9                 ; [] |352| 
    1458                                                      ; [] |352| 
MSP430 Assembler PC v21.6.1 Tue Dec 20 14:10:54 2022

Copyright (c) 2003-2018 Texas Instruments Incorporated
ISR.asm                                                              PAGE   28

    1459            ;* --------------------------------------------------------------------------*
    1460 000028 930D          TST.W     r13                   ; [] |352| 
    1461 00002a 2002          JNE       $C$L9                 ; [] |352| 
    1462                                                      ; [] |352| 
    1463            ;* --------------------------------------------------------------------------*
    1464 00002c 930C          TST.W     r12                   ; [] |352| 
    1465 00002e 2406          JEQ       $C$L10                ; [] |352| 
    1466                                                      ; [] |352| 
    1467            ;* --------------------------------------------------------------------------*
    1468 000030       $C$L9:    
    1469 000030 F037          AND.W     #32752,r7             ; [] |352| 
         000032 7FF0 
    1470 000034 9037          CMP.W     #32752,r7             ; [] |352| 
         000036 7FF0 
    1471 000038 2401          JEQ       $C$L10                ; [] |352| 
    1472                                                      ; [] |352| 
    1473            ;* --------------------------------------------------------------------------*
    1474 00003a 4316          MOV.W     #1,r6                 ; [] |352| 
    1475            ;* --------------------------------------------------------------------------*
    1476 00003c       $C$L10:    
    1477 00003c 06CC          MOVA      r6,r12                ; [] |352| 
    1478                    .dwpsn  file "C:/ti/ccs1110/ccs/tools/compiler/ti-cgt-msp430_21.6.1.LTS/include/_defs.h",line 
    1479 00003e 1646          POPM.A    #5,r10                ; [] 
    1480                    .dwcfi  restore_reg, 6
    1481                    .dwcfi  restore_reg, 7
    1482                    .dwcfi  restore_reg, 8
    1483                    .dwcfi  restore_reg, 9
    1484                    .dwcfi  restore_reg, 10
    1485                    .dwcfi  cfa_offset, 4
    1486            $C$DW$106       .dwtag  DW_TAG_TI_branch
    1487                    .dwattr $C$DW$106, DW_AT_low_pc(0x00)
    1488                    .dwattr $C$DW$106, DW_AT_TI_return
    1489            
    1490 000040 0110          RETA      ; [] 
    1491                    ; [] 
    1492                    .dwattr $C$DW$102, DW_AT_TI_end_file("C:/ti/ccs1110/ccs/tools/compiler/ti-cgt-msp430_21.6.1.LT
    1493                    .dwattr $C$DW$102, DW_AT_TI_end_line(0x161)
    1494                    .dwattr $C$DW$102, DW_AT_TI_end_column(0x30)
    1495                    .dwendentry
    1496                    .dwendtag $C$DW$102
    1497            
    1498 000000               .sect   ".text:__isnanl"
    1499                    .clink
    1500                    .global __isnanl
    1501            
    1502            $C$DW$107       .dwtag  DW_TAG_subprogram
    1503                    .dwattr $C$DW$107, DW_AT_name("__isnanl")
    1504                    .dwattr $C$DW$107, DW_AT_low_pc(__isnanl)
    1505                    .dwattr $C$DW$107, DW_AT_high_pc(0x00)
    1506                    .dwattr $C$DW$107, DW_AT_TI_symbol_name("__isnanl")
    1507                    .dwattr $C$DW$107, DW_AT_external
    1508                    .dwattr $C$DW$107, DW_AT_type(*$C$DW$T$10)
    1509                    .dwattr $C$DW$107, DW_AT_TI_begin_file("C:/ti/ccs1110/ccs/tools/compiler/ti-cgt-msp430_21.6.1.
    1510                    .dwattr $C$DW$107, DW_AT_TI_begin_line(0x15b)
    1511                    .dwattr $C$DW$107, DW_AT_TI_begin_column(0x25)
MSP430 Assembler PC v21.6.1 Tue Dec 20 14:10:54 2022

Copyright (c) 2003-2018 Texas Instruments Incorporated
ISR.asm                                                              PAGE   29

    1512                    .dwattr $C$DW$107, DW_AT_decl_file("C:/ti/ccs1110/ccs/tools/compiler/ti-cgt-msp430_21.6.1.LTS/
    1513                    .dwattr $C$DW$107, DW_AT_decl_line(0x15b)
    1514                    .dwattr $C$DW$107, DW_AT_decl_column(0x25)
    1515                    .dwattr $C$DW$107, DW_AT_TI_max_frame_size(0x08)
    1516                    .dwpsn  file "C:/ti/ccs1110/ccs/tools/compiler/ti-cgt-msp430_21.6.1.LTS/include/_defs.h",line 
    1517            
    1518                    .dwfde $C$DW$CIE, __isnanl
    1519            $C$DW$108       .dwtag  DW_TAG_formal_parameter
    1520                    .dwattr $C$DW$108, DW_AT_name("e")
    1521                    .dwattr $C$DW$108, DW_AT_TI_symbol_name("e")
    1522                    .dwattr $C$DW$108, DW_AT_type(*$C$DW$T$18)
    1523                    .dwattr $C$DW$108, DW_AT_location[DW_OP_reg12 DW_OP_piece 2 DW_OP_reg13 DW_OP_piece 2 DW_OP_re
    1524            
    1525            
    1526            ;*****************************************************************************
    1527            ;* FUNCTION NAME: __isnanl                                                   *
    1528            ;*                                                                           *
    1529            ;*   Regs Modified     : SP,SR,r10,r11,r12,r13,r14,r15                       *
    1530            ;*   Regs Used         : SP,SR,r10,r11,r12,r13,r14,r15                       *
    1531            ;*   Local Frame Size  : 0 Args + 0 Auto + 4 Save = 4 byte                   *
    1532            ;*****************************************************************************
    1533 000000       __isnanl:
    1534            ;* --------------------------------------------------------------------------*
    1535                    .dwcfi  cfa_offset, 4
    1536                    .dwcfi  save_reg_to_mem, 16, -4
    1537 000000 140A          PUSHM.A   #1,r10                ; [] 
    1538                    .dwcfi  save_reg_to_mem, 10, -8
    1539                    .dwcfi  cfa_offset, 8
    1540            ;* r11   assigned to $O$S1
    1541                    .dwpsn  file "C:/ti/ccs1110/ccs/tools/compiler/ti-cgt-msp430_21.6.1.LTS/include/_defs.h",line 
    1542 000002 430B          MOV.W     #0,r11                ; [] |348| 
    1543 000004 0FCA          MOVA      r15,r10               ; [] |348| 
    1544 000006 F03A          AND.W     #32752,r10            ; [] |348| 
         000008 7FF0 
    1545 00000a 903A          CMP.W     #32752,r10            ; [] |348| 
         00000c 7FF0 
    1546 00000e 200E          JNE       $C$L12                ; [] |348| 
    1547                                                      ; [] |348| 
    1548            ;* --------------------------------------------------------------------------*
    1549 000010 F33C          AND.W     #65535,r12            ; [] |348| 
    1550 000012 F33D          AND.W     #65535,r13            ; [] |348| 
    1551 000014 F33E          AND.W     #65535,r14            ; [] |348| 
    1552 000016 F03F          AND.W     #15,r15               ; [] |348| 
         000018 000F 
    1553 00001a 930F          TST.W     r15                   ; [] |348| 
    1554 00001c 2006          JNE       $C$L11                ; [] |348| 
    1555                                                      ; [] |348| 
    1556            ;* --------------------------------------------------------------------------*
    1557 00001e 930E          TST.W     r14                   ; [] |348| 
    1558 000020 2004          JNE       $C$L11                ; [] |348| 
    1559                                                      ; [] |348| 
    1560            ;* --------------------------------------------------------------------------*
    1561 000022 930D          TST.W     r13                   ; [] |348| 
    1562 000024 2002          JNE       $C$L11                ; [] |348| 
    1563                                                      ; [] |348| 
MSP430 Assembler PC v21.6.1 Tue Dec 20 14:10:54 2022

Copyright (c) 2003-2018 Texas Instruments Incorporated
ISR.asm                                                              PAGE   30

    1564            ;* --------------------------------------------------------------------------*
    1565 000026 930C          TST.W     r12                   ; [] |348| 
    1566 000028 2401          JEQ       $C$L12                ; [] |348| 
    1567                                                      ; [] |348| 
    1568            ;* --------------------------------------------------------------------------*
    1569 00002a       $C$L11:    
    1570 00002a 431B          MOV.W     #1,r11                ; [] |348| 
    1571            ;* --------------------------------------------------------------------------*
    1572 00002c       $C$L12:    
    1573 00002c 0BCC          MOVA      r11,r12               ; [] |348| 
    1574                    .dwpsn  file "C:/ti/ccs1110/ccs/tools/compiler/ti-cgt-msp430_21.6.1.LTS/include/_defs.h",line 
    1575 00002e 160A          POPM.A    #1,r10                ; [] 
    1576                    .dwcfi  restore_reg, 10
    1577                    .dwcfi  cfa_offset, 4
    1578            $C$DW$109       .dwtag  DW_TAG_TI_branch
    1579                    .dwattr $C$DW$109, DW_AT_low_pc(0x00)
    1580                    .dwattr $C$DW$109, DW_AT_TI_return
    1581            
    1582 000030 0110          RETA      ; [] 
    1583                    ; [] 
    1584                    .dwattr $C$DW$107, DW_AT_TI_end_file("C:/ti/ccs1110/ccs/tools/compiler/ti-cgt-msp430_21.6.1.LT
    1585                    .dwattr $C$DW$107, DW_AT_TI_end_line(0x15d)
    1586                    .dwattr $C$DW$107, DW_AT_TI_end_column(0x30)
    1587                    .dwendentry
    1588                    .dwendtag $C$DW$107
    1589            
    1590 000000               .sect   ".text:__isnanf"
    1591                    .clink
    1592                    .global __isnanf
    1593            
    1594            $C$DW$110       .dwtag  DW_TAG_subprogram
    1595                    .dwattr $C$DW$110, DW_AT_name("__isnanf")
    1596                    .dwattr $C$DW$110, DW_AT_low_pc(__isnanf)
    1597                    .dwattr $C$DW$110, DW_AT_high_pc(0x00)
    1598                    .dwattr $C$DW$110, DW_AT_TI_symbol_name("__isnanf")
    1599                    .dwattr $C$DW$110, DW_AT_external
    1600                    .dwattr $C$DW$110, DW_AT_type(*$C$DW$T$10)
    1601                    .dwattr $C$DW$110, DW_AT_TI_begin_file("C:/ti/ccs1110/ccs/tools/compiler/ti-cgt-msp430_21.6.1.
    1602                    .dwattr $C$DW$110, DW_AT_TI_begin_line(0x158)
    1603                    .dwattr $C$DW$110, DW_AT_TI_begin_column(0x25)
    1604                    .dwattr $C$DW$110, DW_AT_decl_file("C:/ti/ccs1110/ccs/tools/compiler/ti-cgt-msp430_21.6.1.LTS/
    1605                    .dwattr $C$DW$110, DW_AT_decl_line(0x158)
    1606                    .dwattr $C$DW$110, DW_AT_decl_column(0x25)
    1607                    .dwattr $C$DW$110, DW_AT_TI_max_frame_size(0x04)
    1608                    .dwpsn  file "C:/ti/ccs1110/ccs/tools/compiler/ti-cgt-msp430_21.6.1.LTS/include/_defs.h",line 
    1609            
    1610                    .dwfde $C$DW$CIE, __isnanf
    1611            $C$DW$111       .dwtag  DW_TAG_formal_parameter
    1612                    .dwattr $C$DW$111, DW_AT_name("f")
    1613                    .dwattr $C$DW$111, DW_AT_TI_symbol_name("f")
    1614                    .dwattr $C$DW$111, DW_AT_type(*$C$DW$T$16)
    1615                    .dwattr $C$DW$111, DW_AT_location[DW_OP_reg12 DW_OP_piece 2 DW_OP_reg13 DW_OP_piece 2]
    1616            
    1617            
    1618            ;*****************************************************************************
MSP430 Assembler PC v21.6.1 Tue Dec 20 14:10:54 2022

Copyright (c) 2003-2018 Texas Instruments Incorporated
ISR.asm                                                              PAGE   31

    1619            ;* FUNCTION NAME: __isnanf                                                   *
    1620            ;*                                                                           *
    1621            ;*   Regs Modified     : SP,SR,r12,r13,r14,r15                               *
    1622            ;*   Regs Used         : SP,SR,r12,r13,r14,r15                               *
    1623            ;*   Local Frame Size  : 0 Args + 0 Auto + 0 Save = 0 byte                   *
    1624            ;*****************************************************************************
    1625 000000       __isnanf:
    1626            ;* --------------------------------------------------------------------------*
    1627                    .dwcfi  cfa_offset, 4
    1628                    .dwcfi  save_reg_to_mem, 16, -4
    1629            ;* r15   assigned to $O$S1
    1630                    .dwpsn  file "C:/ti/ccs1110/ccs/tools/compiler/ti-cgt-msp430_21.6.1.LTS/include/_defs.h",line 
    1631 000000 430F          MOV.W     #0,r15                ; [] |345| 
    1632 000002 0DCE          MOVA      r13,r14               ; [] |345| 
    1633 000004 F03E          AND.W     #32640,r14            ; [] |345| 
         000006 7F80 
    1634 000008 903E          CMP.W     #32640,r14            ; [] |345| 
         00000a 7F80 
    1635 00000c 2008          JNE       $C$L14                ; [] |345| 
    1636                                                      ; [] |345| 
    1637            ;* --------------------------------------------------------------------------*
    1638 00000e F33C          AND.W     #65535,r12            ; [] |345| 
    1639 000010 F03D          AND.W     #127,r13              ; [] |345| 
         000012 007F 
    1640 000014 930D          TST.W     r13                   ; [] |345| 
    1641 000016 2002          JNE       $C$L13                ; [] |345| 
    1642                                                      ; [] |345| 
    1643            ;* --------------------------------------------------------------------------*
    1644 000018 930C          TST.W     r12                   ; [] |345| 
    1645 00001a 2401          JEQ       $C$L14                ; [] |345| 
    1646                                                      ; [] |345| 
    1647            ;* --------------------------------------------------------------------------*
    1648 00001c       $C$L13:    
    1649 00001c 431F          MOV.W     #1,r15                ; [] |345| 
    1650            ;* --------------------------------------------------------------------------*
    1651 00001e       $C$L14:    
    1652 00001e 0FCC          MOVA      r15,r12               ; [] |345| 
    1653                    .dwpsn  file "C:/ti/ccs1110/ccs/tools/compiler/ti-cgt-msp430_21.6.1.LTS/include/_defs.h",line 
    1654            $C$DW$112       .dwtag  DW_TAG_TI_branch
    1655                    .dwattr $C$DW$112, DW_AT_low_pc(0x00)
    1656                    .dwattr $C$DW$112, DW_AT_TI_return
    1657            
    1658 000020 0110          RETA      ; [] 
    1659                    ; [] 
    1660                    .dwattr $C$DW$110, DW_AT_TI_end_file("C:/ti/ccs1110/ccs/tools/compiler/ti-cgt-msp430_21.6.1.LT
    1661                    .dwattr $C$DW$110, DW_AT_TI_end_line(0x15a)
    1662                    .dwattr $C$DW$110, DW_AT_TI_end_column(0x2e)
    1663                    .dwendentry
    1664                    .dwendtag $C$DW$110
    1665            
    1666 000000               .sect   ".text:__isnan"
    1667                    .clink
    1668                    .global __isnan
    1669            
    1670            $C$DW$113       .dwtag  DW_TAG_subprogram
MSP430 Assembler PC v21.6.1 Tue Dec 20 14:10:54 2022

Copyright (c) 2003-2018 Texas Instruments Incorporated
ISR.asm                                                              PAGE   32

    1671                    .dwattr $C$DW$113, DW_AT_name("__isnan")
    1672                    .dwattr $C$DW$113, DW_AT_low_pc(__isnan)
    1673                    .dwattr $C$DW$113, DW_AT_high_pc(0x00)
    1674                    .dwattr $C$DW$113, DW_AT_TI_symbol_name("__isnan")
    1675                    .dwattr $C$DW$113, DW_AT_external
    1676                    .dwattr $C$DW$113, DW_AT_type(*$C$DW$T$10)
    1677                    .dwattr $C$DW$113, DW_AT_TI_begin_file("C:/ti/ccs1110/ccs/tools/compiler/ti-cgt-msp430_21.6.1.
    1678                    .dwattr $C$DW$113, DW_AT_TI_begin_line(0x155)
    1679                    .dwattr $C$DW$113, DW_AT_TI_begin_column(0x25)
    1680                    .dwattr $C$DW$113, DW_AT_decl_file("C:/ti/ccs1110/ccs/tools/compiler/ti-cgt-msp430_21.6.1.LTS/
    1681                    .dwattr $C$DW$113, DW_AT_decl_line(0x155)
    1682                    .dwattr $C$DW$113, DW_AT_decl_column(0x25)
    1683                    .dwattr $C$DW$113, DW_AT_TI_max_frame_size(0x08)
    1684                    .dwpsn  file "C:/ti/ccs1110/ccs/tools/compiler/ti-cgt-msp430_21.6.1.LTS/include/_defs.h",line 
    1685            
    1686                    .dwfde $C$DW$CIE, __isnan
    1687            $C$DW$114       .dwtag  DW_TAG_formal_parameter
    1688                    .dwattr $C$DW$114, DW_AT_name("d")
    1689                    .dwattr $C$DW$114, DW_AT_TI_symbol_name("d")
    1690                    .dwattr $C$DW$114, DW_AT_type(*$C$DW$T$17)
    1691                    .dwattr $C$DW$114, DW_AT_location[DW_OP_reg12 DW_OP_piece 2 DW_OP_reg13 DW_OP_piece 2 DW_OP_re
    1692            
    1693            
    1694            ;*****************************************************************************
    1695            ;* FUNCTION NAME: __isnan                                                    *
    1696            ;*                                                                           *
    1697            ;*   Regs Modified     : SP,SR,r10,r11,r12,r13,r14,r15                       *
    1698            ;*   Regs Used         : SP,SR,r10,r11,r12,r13,r14,r15                       *
    1699            ;*   Local Frame Size  : 0 Args + 0 Auto + 4 Save = 4 byte                   *
    1700            ;*****************************************************************************
    1701 000000       __isnan:
    1702            ;* --------------------------------------------------------------------------*
    1703                    .dwcfi  cfa_offset, 4
    1704                    .dwcfi  save_reg_to_mem, 16, -4
    1705 000000 140A          PUSHM.A   #1,r10                ; [] 
    1706                    .dwcfi  save_reg_to_mem, 10, -8
    1707                    .dwcfi  cfa_offset, 8
    1708            ;* r11   assigned to $O$S1
    1709                    .dwpsn  file "C:/ti/ccs1110/ccs/tools/compiler/ti-cgt-msp430_21.6.1.LTS/include/_defs.h",line 
    1710 000002 430B          MOV.W     #0,r11                ; [] |342| 
    1711 000004 0FCA          MOVA      r15,r10               ; [] |342| 
    1712 000006 F03A          AND.W     #32752,r10            ; [] |342| 
         000008 7FF0 
    1713 00000a 903A          CMP.W     #32752,r10            ; [] |342| 
         00000c 7FF0 
    1714 00000e 200E          JNE       $C$L16                ; [] |342| 
    1715                                                      ; [] |342| 
    1716            ;* --------------------------------------------------------------------------*
    1717 000010 F33C          AND.W     #65535,r12            ; [] |342| 
    1718 000012 F33D          AND.W     #65535,r13            ; [] |342| 
    1719 000014 F33E          AND.W     #65535,r14            ; [] |342| 
    1720 000016 F03F          AND.W     #15,r15               ; [] |342| 
         000018 000F 
    1721 00001a 930F          TST.W     r15                   ; [] |342| 
    1722 00001c 2006          JNE       $C$L15                ; [] |342| 
MSP430 Assembler PC v21.6.1 Tue Dec 20 14:10:54 2022

Copyright (c) 2003-2018 Texas Instruments Incorporated
ISR.asm                                                              PAGE   33

    1723                                                      ; [] |342| 
    1724            ;* --------------------------------------------------------------------------*
    1725 00001e 930E          TST.W     r14                   ; [] |342| 
    1726 000020 2004          JNE       $C$L15                ; [] |342| 
    1727                                                      ; [] |342| 
    1728            ;* --------------------------------------------------------------------------*
    1729 000022 930D          TST.W     r13                   ; [] |342| 
    1730 000024 2002          JNE       $C$L15                ; [] |342| 
    1731                                                      ; [] |342| 
    1732            ;* --------------------------------------------------------------------------*
    1733 000026 930C          TST.W     r12                   ; [] |342| 
    1734 000028 2401          JEQ       $C$L16                ; [] |342| 
    1735                                                      ; [] |342| 
    1736            ;* --------------------------------------------------------------------------*
    1737 00002a       $C$L15:    
    1738 00002a 431B          MOV.W     #1,r11                ; [] |342| 
    1739            ;* --------------------------------------------------------------------------*
    1740 00002c       $C$L16:    
    1741 00002c 0BCC          MOVA      r11,r12               ; [] |342| 
    1742                    .dwpsn  file "C:/ti/ccs1110/ccs/tools/compiler/ti-cgt-msp430_21.6.1.LTS/include/_defs.h",line 
    1743 00002e 160A          POPM.A    #1,r10                ; [] 
    1744                    .dwcfi  restore_reg, 10
    1745                    .dwcfi  cfa_offset, 4
    1746            $C$DW$115       .dwtag  DW_TAG_TI_branch
    1747                    .dwattr $C$DW$115, DW_AT_low_pc(0x00)
    1748                    .dwattr $C$DW$115, DW_AT_TI_return
    1749            
    1750 000030 0110          RETA      ; [] 
    1751                    ; [] 
    1752                    .dwattr $C$DW$113, DW_AT_TI_end_file("C:/ti/ccs1110/ccs/tools/compiler/ti-cgt-msp430_21.6.1.LT
    1753                    .dwattr $C$DW$113, DW_AT_TI_end_line(0x157)
    1754                    .dwattr $C$DW$113, DW_AT_TI_end_column(0x2f)
    1755                    .dwendentry
    1756                    .dwendtag $C$DW$113
    1757            
    1758 000000               .sect   ".text:__isinfl"
    1759                    .clink
    1760                    .global __isinfl
    1761            
    1762            $C$DW$116       .dwtag  DW_TAG_subprogram
    1763                    .dwattr $C$DW$116, DW_AT_name("__isinfl")
    1764                    .dwattr $C$DW$116, DW_AT_low_pc(__isinfl)
    1765                    .dwattr $C$DW$116, DW_AT_high_pc(0x00)
    1766                    .dwattr $C$DW$116, DW_AT_TI_symbol_name("__isinfl")
    1767                    .dwattr $C$DW$116, DW_AT_external
    1768                    .dwattr $C$DW$116, DW_AT_type(*$C$DW$T$10)
    1769                    .dwattr $C$DW$116, DW_AT_TI_begin_file("C:/ti/ccs1110/ccs/tools/compiler/ti-cgt-msp430_21.6.1.
    1770                    .dwattr $C$DW$116, DW_AT_TI_begin_line(0x17a)
    1771                    .dwattr $C$DW$116, DW_AT_TI_begin_column(0x25)
    1772                    .dwattr $C$DW$116, DW_AT_decl_file("C:/ti/ccs1110/ccs/tools/compiler/ti-cgt-msp430_21.6.1.LTS/
    1773                    .dwattr $C$DW$116, DW_AT_decl_line(0x17a)
    1774                    .dwattr $C$DW$116, DW_AT_decl_column(0x25)
    1775                    .dwattr $C$DW$116, DW_AT_TI_max_frame_size(0x08)
    1776                    .dwpsn  file "C:/ti/ccs1110/ccs/tools/compiler/ti-cgt-msp430_21.6.1.LTS/include/_defs.h",line 
    1777            
MSP430 Assembler PC v21.6.1 Tue Dec 20 14:10:54 2022

Copyright (c) 2003-2018 Texas Instruments Incorporated
ISR.asm                                                              PAGE   34

    1778                    .dwfde $C$DW$CIE, __isinfl
    1779            $C$DW$117       .dwtag  DW_TAG_formal_parameter
    1780                    .dwattr $C$DW$117, DW_AT_name("e")
    1781                    .dwattr $C$DW$117, DW_AT_TI_symbol_name("e")
    1782                    .dwattr $C$DW$117, DW_AT_type(*$C$DW$T$18)
    1783                    .dwattr $C$DW$117, DW_AT_location[DW_OP_reg12 DW_OP_piece 2 DW_OP_reg13 DW_OP_piece 2 DW_OP_re
    1784            
    1785            
    1786            ;*****************************************************************************
    1787            ;* FUNCTION NAME: __isinfl                                                   *
    1788            ;*                                                                           *
    1789            ;*   Regs Modified     : SP,SR,r10,r11,r12,r13,r14,r15                       *
    1790            ;*   Regs Used         : SP,SR,r10,r11,r12,r13,r14,r15                       *
    1791            ;*   Local Frame Size  : 0 Args + 0 Auto + 4 Save = 4 byte                   *
    1792            ;*****************************************************************************
    1793 000000       __isinfl:
    1794            ;* --------------------------------------------------------------------------*
    1795                    .dwcfi  cfa_offset, 4
    1796                    .dwcfi  save_reg_to_mem, 16, -4
    1797 000000 140A          PUSHM.A   #1,r10                ; [] 
    1798                    .dwcfi  save_reg_to_mem, 10, -8
    1799                    .dwcfi  cfa_offset, 8
    1800            ;* r11   assigned to $O$S1
    1801                    .dwpsn  file "C:/ti/ccs1110/ccs/tools/compiler/ti-cgt-msp430_21.6.1.LTS/include/_defs.h",line 
    1802 000002 430B          MOV.W     #0,r11                ; [] |379| 
    1803 000004 0FCA          MOVA      r15,r10               ; [] |379| 
    1804 000006 F03A          AND.W     #32752,r10            ; [] |379| 
         000008 7FF0 
    1805 00000a 903A          CMP.W     #32752,r10            ; [] |379| 
         00000c 7FF0 
    1806 00000e 200E          JNE       $C$L17                ; [] |379| 
    1807                                                      ; [] |379| 
    1808            ;* --------------------------------------------------------------------------*
    1809 000010 F33C          AND.W     #65535,r12            ; [] |379| 
    1810 000012 F33D          AND.W     #65535,r13            ; [] |379| 
    1811 000014 F33E          AND.W     #65535,r14            ; [] |379| 
    1812 000016 F03F          AND.W     #15,r15               ; [] |379| 
         000018 000F 
    1813 00001a 930F          TST.W     r15                   ; [] |379| 
    1814 00001c 2007          JNE       $C$L17                ; [] |379| 
    1815                                                      ; [] |379| 
    1816            ;* --------------------------------------------------------------------------*
    1817 00001e 930E          TST.W     r14                   ; [] |379| 
    1818 000020 2005          JNE       $C$L17                ; [] |379| 
    1819                                                      ; [] |379| 
    1820            ;* --------------------------------------------------------------------------*
    1821 000022 930D          TST.W     r13                   ; [] |379| 
    1822 000024 2003          JNE       $C$L17                ; [] |379| 
    1823                                                      ; [] |379| 
    1824            ;* --------------------------------------------------------------------------*
    1825 000026 930C          TST.W     r12                   ; [] |379| 
    1826 000028 2001          JNE       $C$L17                ; [] |379| 
    1827                                                      ; [] |379| 
    1828            ;* --------------------------------------------------------------------------*
    1829 00002a 431B          MOV.W     #1,r11                ; [] |379| 
MSP430 Assembler PC v21.6.1 Tue Dec 20 14:10:54 2022

Copyright (c) 2003-2018 Texas Instruments Incorporated
ISR.asm                                                              PAGE   35

    1830            ;* --------------------------------------------------------------------------*
    1831 00002c       $C$L17:    
    1832 00002c 0BCC          MOVA      r11,r12               ; [] |379| 
    1833                    .dwpsn  file "C:/ti/ccs1110/ccs/tools/compiler/ti-cgt-msp430_21.6.1.LTS/include/_defs.h",line 
    1834 00002e 160A          POPM.A    #1,r10                ; [] 
    1835                    .dwcfi  restore_reg, 10
    1836                    .dwcfi  cfa_offset, 4
    1837            $C$DW$118       .dwtag  DW_TAG_TI_branch
    1838                    .dwattr $C$DW$118, DW_AT_low_pc(0x00)
    1839                    .dwattr $C$DW$118, DW_AT_TI_return
    1840            
    1841 000030 0110          RETA      ; [] 
    1842                    ; [] 
    1843                    .dwattr $C$DW$116, DW_AT_TI_end_file("C:/ti/ccs1110/ccs/tools/compiler/ti-cgt-msp430_21.6.1.LT
    1844                    .dwattr $C$DW$116, DW_AT_TI_end_line(0x17b)
    1845                    .dwattr $C$DW$116, DW_AT_TI_end_column(0x4c)
    1846                    .dwendentry
    1847                    .dwendtag $C$DW$116
    1848            
    1849 000000               .sect   ".text:__isinff"
    1850                    .clink
    1851                    .global __isinff
    1852            
    1853            $C$DW$119       .dwtag  DW_TAG_subprogram
    1854                    .dwattr $C$DW$119, DW_AT_name("__isinff")
    1855                    .dwattr $C$DW$119, DW_AT_low_pc(__isinff)
    1856                    .dwattr $C$DW$119, DW_AT_high_pc(0x00)
    1857                    .dwattr $C$DW$119, DW_AT_TI_symbol_name("__isinff")
    1858                    .dwattr $C$DW$119, DW_AT_external
    1859                    .dwattr $C$DW$119, DW_AT_type(*$C$DW$T$10)
    1860                    .dwattr $C$DW$119, DW_AT_TI_begin_file("C:/ti/ccs1110/ccs/tools/compiler/ti-cgt-msp430_21.6.1.
    1861                    .dwattr $C$DW$119, DW_AT_TI_begin_line(0x176)
    1862                    .dwattr $C$DW$119, DW_AT_TI_begin_column(0x25)
    1863                    .dwattr $C$DW$119, DW_AT_decl_file("C:/ti/ccs1110/ccs/tools/compiler/ti-cgt-msp430_21.6.1.LTS/
    1864                    .dwattr $C$DW$119, DW_AT_decl_line(0x176)
    1865                    .dwattr $C$DW$119, DW_AT_decl_column(0x25)
    1866                    .dwattr $C$DW$119, DW_AT_TI_max_frame_size(0x04)
    1867                    .dwpsn  file "C:/ti/ccs1110/ccs/tools/compiler/ti-cgt-msp430_21.6.1.LTS/include/_defs.h",line 
    1868            
    1869                    .dwfde $C$DW$CIE, __isinff
    1870            $C$DW$120       .dwtag  DW_TAG_formal_parameter
    1871                    .dwattr $C$DW$120, DW_AT_name("f")
    1872                    .dwattr $C$DW$120, DW_AT_TI_symbol_name("f")
    1873                    .dwattr $C$DW$120, DW_AT_type(*$C$DW$T$16)
    1874                    .dwattr $C$DW$120, DW_AT_location[DW_OP_reg12 DW_OP_piece 2 DW_OP_reg13 DW_OP_piece 2]
    1875            
    1876            
    1877            ;*****************************************************************************
    1878            ;* FUNCTION NAME: __isinff                                                   *
    1879            ;*                                                                           *
    1880            ;*   Regs Modified     : SP,SR,r12,r13,r14,r15                               *
    1881            ;*   Regs Used         : SP,SR,r12,r13,r14,r15                               *
    1882            ;*   Local Frame Size  : 0 Args + 0 Auto + 0 Save = 0 byte                   *
    1883            ;*****************************************************************************
    1884 000000       __isinff:
MSP430 Assembler PC v21.6.1 Tue Dec 20 14:10:54 2022

Copyright (c) 2003-2018 Texas Instruments Incorporated
ISR.asm                                                              PAGE   36

    1885            ;* --------------------------------------------------------------------------*
    1886                    .dwcfi  cfa_offset, 4
    1887                    .dwcfi  save_reg_to_mem, 16, -4
    1888            ;* r15   assigned to $O$S1
    1889                    .dwpsn  file "C:/ti/ccs1110/ccs/tools/compiler/ti-cgt-msp430_21.6.1.LTS/include/_defs.h",line 
    1890 000000 430F          MOV.W     #0,r15                ; [] |375| 
    1891 000002 0DCE          MOVA      r13,r14               ; [] |375| 
    1892 000004 F03E          AND.W     #32640,r14            ; [] |375| 
         000006 7F80 
    1893 000008 903E          CMP.W     #32640,r14            ; [] |375| 
         00000a 7F80 
    1894 00000c 2008          JNE       $C$L18                ; [] |375| 
    1895                                                      ; [] |375| 
    1896            ;* --------------------------------------------------------------------------*
    1897 00000e F33C          AND.W     #65535,r12            ; [] |375| 
    1898 000010 F03D          AND.W     #127,r13              ; [] |375| 
         000012 007F 
    1899 000014 930D          TST.W     r13                   ; [] |375| 
    1900 000016 2003          JNE       $C$L18                ; [] |375| 
    1901                                                      ; [] |375| 
    1902            ;* --------------------------------------------------------------------------*
    1903 000018 930C          TST.W     r12                   ; [] |375| 
    1904 00001a 2001          JNE       $C$L18                ; [] |375| 
    1905                                                      ; [] |375| 
    1906            ;* --------------------------------------------------------------------------*
    1907 00001c 431F          MOV.W     #1,r15                ; [] |375| 
    1908            ;* --------------------------------------------------------------------------*
    1909 00001e       $C$L18:    
    1910 00001e 0FCC          MOVA      r15,r12               ; [] |375| 
    1911                    .dwpsn  file "C:/ti/ccs1110/ccs/tools/compiler/ti-cgt-msp430_21.6.1.LTS/include/_defs.h",line 
    1912            $C$DW$121       .dwtag  DW_TAG_TI_branch
    1913                    .dwattr $C$DW$121, DW_AT_low_pc(0x00)
    1914                    .dwattr $C$DW$121, DW_AT_TI_return
    1915            
    1916 000020 0110          RETA      ; [] 
    1917                    ; [] 
    1918                    .dwattr $C$DW$119, DW_AT_TI_end_file("C:/ti/ccs1110/ccs/tools/compiler/ti-cgt-msp430_21.6.1.LT
    1919                    .dwattr $C$DW$119, DW_AT_TI_end_line(0x177)
    1920                    .dwattr $C$DW$119, DW_AT_TI_end_column(0x48)
    1921                    .dwendentry
    1922                    .dwendtag $C$DW$119
    1923            
    1924 000000               .sect   ".text:__isinf"
    1925                    .clink
    1926                    .global __isinf
    1927            
    1928            $C$DW$122       .dwtag  DW_TAG_subprogram
    1929                    .dwattr $C$DW$122, DW_AT_name("__isinf")
    1930                    .dwattr $C$DW$122, DW_AT_low_pc(__isinf)
    1931                    .dwattr $C$DW$122, DW_AT_high_pc(0x00)
    1932                    .dwattr $C$DW$122, DW_AT_TI_symbol_name("__isinf")
    1933                    .dwattr $C$DW$122, DW_AT_external
    1934                    .dwattr $C$DW$122, DW_AT_type(*$C$DW$T$10)
    1935                    .dwattr $C$DW$122, DW_AT_TI_begin_file("C:/ti/ccs1110/ccs/tools/compiler/ti-cgt-msp430_21.6.1.
    1936                    .dwattr $C$DW$122, DW_AT_TI_begin_line(0x178)
MSP430 Assembler PC v21.6.1 Tue Dec 20 14:10:54 2022

Copyright (c) 2003-2018 Texas Instruments Incorporated
ISR.asm                                                              PAGE   37

    1937                    .dwattr $C$DW$122, DW_AT_TI_begin_column(0x25)
    1938                    .dwattr $C$DW$122, DW_AT_decl_file("C:/ti/ccs1110/ccs/tools/compiler/ti-cgt-msp430_21.6.1.LTS/
    1939                    .dwattr $C$DW$122, DW_AT_decl_line(0x178)
    1940                    .dwattr $C$DW$122, DW_AT_decl_column(0x25)
    1941                    .dwattr $C$DW$122, DW_AT_TI_max_frame_size(0x08)
    1942                    .dwpsn  file "C:/ti/ccs1110/ccs/tools/compiler/ti-cgt-msp430_21.6.1.LTS/include/_defs.h",line 
    1943            
    1944                    .dwfde $C$DW$CIE, __isinf
    1945            $C$DW$123       .dwtag  DW_TAG_formal_parameter
    1946                    .dwattr $C$DW$123, DW_AT_name("d")
    1947                    .dwattr $C$DW$123, DW_AT_TI_symbol_name("d")
    1948                    .dwattr $C$DW$123, DW_AT_type(*$C$DW$T$17)
    1949                    .dwattr $C$DW$123, DW_AT_location[DW_OP_reg12 DW_OP_piece 2 DW_OP_reg13 DW_OP_piece 2 DW_OP_re
    1950            
    1951            
    1952            ;*****************************************************************************
    1953            ;* FUNCTION NAME: __isinf                                                    *
    1954            ;*                                                                           *
    1955            ;*   Regs Modified     : SP,SR,r10,r11,r12,r13,r14,r15                       *
    1956            ;*   Regs Used         : SP,SR,r10,r11,r12,r13,r14,r15                       *
    1957            ;*   Local Frame Size  : 0 Args + 0 Auto + 4 Save = 4 byte                   *
    1958            ;*****************************************************************************
    1959 000000       __isinf:
    1960            ;* --------------------------------------------------------------------------*
    1961                    .dwcfi  cfa_offset, 4
    1962                    .dwcfi  save_reg_to_mem, 16, -4
    1963 000000 140A          PUSHM.A   #1,r10                ; [] 
    1964                    .dwcfi  save_reg_to_mem, 10, -8
    1965                    .dwcfi  cfa_offset, 8
    1966            ;* r11   assigned to $O$S1
    1967                    .dwpsn  file "C:/ti/ccs1110/ccs/tools/compiler/ti-cgt-msp430_21.6.1.LTS/include/_defs.h",line 
    1968 000002 430B          MOV.W     #0,r11                ; [] |377| 
    1969 000004 0FCA          MOVA      r15,r10               ; [] |377| 
    1970 000006 F03A          AND.W     #32752,r10            ; [] |377| 
         000008 7FF0 
    1971 00000a 903A          CMP.W     #32752,r10            ; [] |377| 
         00000c 7FF0 
    1972 00000e 200E          JNE       $C$L19                ; [] |377| 
    1973                                                      ; [] |377| 
    1974            ;* --------------------------------------------------------------------------*
    1975 000010 F33C          AND.W     #65535,r12            ; [] |377| 
    1976 000012 F33D          AND.W     #65535,r13            ; [] |377| 
    1977 000014 F33E          AND.W     #65535,r14            ; [] |377| 
    1978 000016 F03F          AND.W     #15,r15               ; [] |377| 
         000018 000F 
    1979 00001a 930F          TST.W     r15                   ; [] |377| 
    1980 00001c 2007          JNE       $C$L19                ; [] |377| 
    1981                                                      ; [] |377| 
    1982            ;* --------------------------------------------------------------------------*
    1983 00001e 930E          TST.W     r14                   ; [] |377| 
    1984 000020 2005          JNE       $C$L19                ; [] |377| 
    1985                                                      ; [] |377| 
    1986            ;* --------------------------------------------------------------------------*
    1987 000022 930D          TST.W     r13                   ; [] |377| 
    1988 000024 2003          JNE       $C$L19                ; [] |377| 
MSP430 Assembler PC v21.6.1 Tue Dec 20 14:10:54 2022

Copyright (c) 2003-2018 Texas Instruments Incorporated
ISR.asm                                                              PAGE   38

    1989                                                      ; [] |377| 
    1990            ;* --------------------------------------------------------------------------*
    1991 000026 930C          TST.W     r12                   ; [] |377| 
    1992 000028 2001          JNE       $C$L19                ; [] |377| 
    1993                                                      ; [] |377| 
    1994            ;* --------------------------------------------------------------------------*
    1995 00002a 431B          MOV.W     #1,r11                ; [] |377| 
    1996            ;* --------------------------------------------------------------------------*
    1997 00002c       $C$L19:    
    1998 00002c 0BCC          MOVA      r11,r12               ; [] |377| 
    1999                    .dwpsn  file "C:/ti/ccs1110/ccs/tools/compiler/ti-cgt-msp430_21.6.1.LTS/include/_defs.h",line 
    2000 00002e 160A          POPM.A    #1,r10                ; [] 
    2001                    .dwcfi  restore_reg, 10
    2002                    .dwcfi  cfa_offset, 4
    2003            $C$DW$124       .dwtag  DW_TAG_TI_branch
    2004                    .dwattr $C$DW$124, DW_AT_low_pc(0x00)
    2005                    .dwattr $C$DW$124, DW_AT_TI_return
    2006            
    2007 000030 0110          RETA      ; [] 
    2008                    ; [] 
    2009                    .dwattr $C$DW$122, DW_AT_TI_end_file("C:/ti/ccs1110/ccs/tools/compiler/ti-cgt-msp430_21.6.1.LT
    2010                    .dwattr $C$DW$122, DW_AT_TI_end_line(0x179)
    2011                    .dwattr $C$DW$122, DW_AT_TI_end_column(0x4a)
    2012                    .dwendentry
    2013                    .dwendtag $C$DW$122
    2014            
    2015 000000               .sect   ".text:__isfinitel"
    2016                    .clink
    2017                    .global __isfinitel
    2018            
    2019            $C$DW$125       .dwtag  DW_TAG_subprogram
    2020                    .dwattr $C$DW$125, DW_AT_name("__isfinitel")
    2021                    .dwattr $C$DW$125, DW_AT_low_pc(__isfinitel)
    2022                    .dwattr $C$DW$125, DW_AT_high_pc(0x00)
    2023                    .dwattr $C$DW$125, DW_AT_TI_symbol_name("__isfinitel")
    2024                    .dwattr $C$DW$125, DW_AT_external
    2025                    .dwattr $C$DW$125, DW_AT_type(*$C$DW$T$10)
    2026                    .dwattr $C$DW$125, DW_AT_TI_begin_file("C:/ti/ccs1110/ccs/tools/compiler/ti-cgt-msp430_21.6.1.
    2027                    .dwattr $C$DW$125, DW_AT_TI_begin_line(0x152)
    2028                    .dwattr $C$DW$125, DW_AT_TI_begin_column(0x25)
    2029                    .dwattr $C$DW$125, DW_AT_decl_file("C:/ti/ccs1110/ccs/tools/compiler/ti-cgt-msp430_21.6.1.LTS/
    2030                    .dwattr $C$DW$125, DW_AT_decl_line(0x152)
    2031                    .dwattr $C$DW$125, DW_AT_decl_column(0x25)
    2032                    .dwattr $C$DW$125, DW_AT_TI_max_frame_size(0x04)
    2033                    .dwpsn  file "C:/ti/ccs1110/ccs/tools/compiler/ti-cgt-msp430_21.6.1.LTS/include/_defs.h",line 
    2034            
    2035                    .dwfde $C$DW$CIE, __isfinitel
    2036            $C$DW$126       .dwtag  DW_TAG_formal_parameter
    2037                    .dwattr $C$DW$126, DW_AT_name("e")
    2038                    .dwattr $C$DW$126, DW_AT_TI_symbol_name("e")
    2039                    .dwattr $C$DW$126, DW_AT_type(*$C$DW$T$18)
    2040                    .dwattr $C$DW$126, DW_AT_location[DW_OP_reg12 DW_OP_piece 2 DW_OP_reg13 DW_OP_piece 2 DW_OP_re
    2041            
    2042            
    2043            ;*****************************************************************************
MSP430 Assembler PC v21.6.1 Tue Dec 20 14:10:54 2022

Copyright (c) 2003-2018 Texas Instruments Incorporated
ISR.asm                                                              PAGE   39

    2044            ;* FUNCTION NAME: __isfinitel                                                *
    2045            ;*                                                                           *
    2046            ;*   Regs Modified     : SP,SR,r12,r15                                       *
    2047            ;*   Regs Used         : SP,SR,r12,r15                                       *
    2048            ;*   Local Frame Size  : 0 Args + 0 Auto + 0 Save = 0 byte                   *
    2049            ;*****************************************************************************
    2050 000000       __isfinitel:
    2051            ;* --------------------------------------------------------------------------*
    2052                    .dwcfi  cfa_offset, 4
    2053                    .dwcfi  save_reg_to_mem, 16, -4
    2054                    .dwpsn  file "C:/ti/ccs1110/ccs/tools/compiler/ti-cgt-msp430_21.6.1.LTS/include/_defs.h",line 
    2055 000000 430C          MOV.W     #0,r12                ; [] |339| 
    2056 000002 F03F          AND.W     #32752,r15            ; [] |339| 
         000004 7FF0 
    2057 000006 903F          CMP.W     #32752,r15            ; [] |339| 
         000008 7FF0 
    2058 00000a 2401          JEQ       $C$L20                ; [] |339| 
    2059                                                      ; [] |339| 
    2060            ;* --------------------------------------------------------------------------*
    2061 00000c 431C          MOV.W     #1,r12                ; [] |339| 
    2062            ;* --------------------------------------------------------------------------*
    2063 00000e       $C$L20:    
    2064                    .dwpsn  file "C:/ti/ccs1110/ccs/tools/compiler/ti-cgt-msp430_21.6.1.LTS/include/_defs.h",line 
    2065            $C$DW$127       .dwtag  DW_TAG_TI_branch
    2066                    .dwattr $C$DW$127, DW_AT_low_pc(0x00)
    2067                    .dwattr $C$DW$127, DW_AT_TI_return
    2068            
    2069 00000e 0110          RETA      ; [] 
    2070                    ; [] 
    2071                    .dwattr $C$DW$125, DW_AT_TI_end_file("C:/ti/ccs1110/ccs/tools/compiler/ti-cgt-msp430_21.6.1.LT
    2072                    .dwattr $C$DW$125, DW_AT_TI_end_line(0x153)
    2073                    .dwattr $C$DW$125, DW_AT_TI_end_column(0x2f)
    2074                    .dwendentry
    2075                    .dwendtag $C$DW$125
    2076            
    2077 000000               .sect   ".text:__isfinitef"
    2078                    .clink
    2079                    .global __isfinitef
    2080            
    2081            $C$DW$128       .dwtag  DW_TAG_subprogram
    2082                    .dwattr $C$DW$128, DW_AT_name("__isfinitef")
    2083                    .dwattr $C$DW$128, DW_AT_low_pc(__isfinitef)
    2084                    .dwattr $C$DW$128, DW_AT_high_pc(0x00)
    2085                    .dwattr $C$DW$128, DW_AT_TI_symbol_name("__isfinitef")
    2086                    .dwattr $C$DW$128, DW_AT_external
    2087                    .dwattr $C$DW$128, DW_AT_type(*$C$DW$T$10)
    2088                    .dwattr $C$DW$128, DW_AT_TI_begin_file("C:/ti/ccs1110/ccs/tools/compiler/ti-cgt-msp430_21.6.1.
    2089                    .dwattr $C$DW$128, DW_AT_TI_begin_line(0x150)
    2090                    .dwattr $C$DW$128, DW_AT_TI_begin_column(0x25)
    2091                    .dwattr $C$DW$128, DW_AT_decl_file("C:/ti/ccs1110/ccs/tools/compiler/ti-cgt-msp430_21.6.1.LTS/
    2092                    .dwattr $C$DW$128, DW_AT_decl_line(0x150)
    2093                    .dwattr $C$DW$128, DW_AT_decl_column(0x25)
    2094                    .dwattr $C$DW$128, DW_AT_TI_max_frame_size(0x04)
    2095                    .dwpsn  file "C:/ti/ccs1110/ccs/tools/compiler/ti-cgt-msp430_21.6.1.LTS/include/_defs.h",line 
    2096            
MSP430 Assembler PC v21.6.1 Tue Dec 20 14:10:54 2022

Copyright (c) 2003-2018 Texas Instruments Incorporated
ISR.asm                                                              PAGE   40

    2097                    .dwfde $C$DW$CIE, __isfinitef
    2098            $C$DW$129       .dwtag  DW_TAG_formal_parameter
    2099                    .dwattr $C$DW$129, DW_AT_name("f")
    2100                    .dwattr $C$DW$129, DW_AT_TI_symbol_name("f")
    2101                    .dwattr $C$DW$129, DW_AT_type(*$C$DW$T$16)
    2102                    .dwattr $C$DW$129, DW_AT_location[DW_OP_reg12 DW_OP_piece 2 DW_OP_reg13 DW_OP_piece 2]
    2103            
    2104            
    2105            ;*****************************************************************************
    2106            ;* FUNCTION NAME: __isfinitef                                                *
    2107            ;*                                                                           *
    2108            ;*   Regs Modified     : SP,SR,r12,r13                                       *
    2109            ;*   Regs Used         : SP,SR,r12,r13                                       *
    2110            ;*   Local Frame Size  : 0 Args + 0 Auto + 0 Save = 0 byte                   *
    2111            ;*****************************************************************************
    2112 000000       __isfinitef:
    2113            ;* --------------------------------------------------------------------------*
    2114                    .dwcfi  cfa_offset, 4
    2115                    .dwcfi  save_reg_to_mem, 16, -4
    2116                    .dwpsn  file "C:/ti/ccs1110/ccs/tools/compiler/ti-cgt-msp430_21.6.1.LTS/include/_defs.h",line 
    2117 000000 430C          MOV.W     #0,r12                ; [] |337| 
    2118 000002 F03D          AND.W     #32640,r13            ; [] |337| 
         000004 7F80 
    2119 000006 903D          CMP.W     #32640,r13            ; [] |337| 
         000008 7F80 
    2120 00000a 2401          JEQ       $C$L21                ; [] |337| 
    2121                                                      ; [] |337| 
    2122            ;* --------------------------------------------------------------------------*
    2123 00000c 431C          MOV.W     #1,r12                ; [] |337| 
    2124            ;* --------------------------------------------------------------------------*
    2125 00000e       $C$L21:    
    2126                    .dwpsn  file "C:/ti/ccs1110/ccs/tools/compiler/ti-cgt-msp430_21.6.1.LTS/include/_defs.h",line 
    2127            $C$DW$130       .dwtag  DW_TAG_TI_branch
    2128                    .dwattr $C$DW$130, DW_AT_low_pc(0x00)
    2129                    .dwattr $C$DW$130, DW_AT_TI_return
    2130            
    2131 00000e 0110          RETA      ; [] 
    2132                    ; [] 
    2133                    .dwattr $C$DW$128, DW_AT_TI_end_file("C:/ti/ccs1110/ccs/tools/compiler/ti-cgt-msp430_21.6.1.LT
    2134                    .dwattr $C$DW$128, DW_AT_TI_end_line(0x151)
    2135                    .dwattr $C$DW$128, DW_AT_TI_end_column(0x2d)
    2136                    .dwendentry
    2137                    .dwendtag $C$DW$128
    2138            
    2139 000000               .sect   ".text:__isfinite"
    2140                    .clink
    2141                    .global __isfinite
    2142            
    2143            $C$DW$131       .dwtag  DW_TAG_subprogram
    2144                    .dwattr $C$DW$131, DW_AT_name("__isfinite")
    2145                    .dwattr $C$DW$131, DW_AT_low_pc(__isfinite)
    2146                    .dwattr $C$DW$131, DW_AT_high_pc(0x00)
    2147                    .dwattr $C$DW$131, DW_AT_TI_symbol_name("__isfinite")
    2148                    .dwattr $C$DW$131, DW_AT_external
    2149                    .dwattr $C$DW$131, DW_AT_type(*$C$DW$T$10)
MSP430 Assembler PC v21.6.1 Tue Dec 20 14:10:54 2022

Copyright (c) 2003-2018 Texas Instruments Incorporated
ISR.asm                                                              PAGE   41

    2150                    .dwattr $C$DW$131, DW_AT_TI_begin_file("C:/ti/ccs1110/ccs/tools/compiler/ti-cgt-msp430_21.6.1.
    2151                    .dwattr $C$DW$131, DW_AT_TI_begin_line(0x14e)
    2152                    .dwattr $C$DW$131, DW_AT_TI_begin_column(0x25)
    2153                    .dwattr $C$DW$131, DW_AT_decl_file("C:/ti/ccs1110/ccs/tools/compiler/ti-cgt-msp430_21.6.1.LTS/
    2154                    .dwattr $C$DW$131, DW_AT_decl_line(0x14e)
    2155                    .dwattr $C$DW$131, DW_AT_decl_column(0x25)
    2156                    .dwattr $C$DW$131, DW_AT_TI_max_frame_size(0x04)
    2157                    .dwpsn  file "C:/ti/ccs1110/ccs/tools/compiler/ti-cgt-msp430_21.6.1.LTS/include/_defs.h",line 
    2158            
    2159                    .dwfde $C$DW$CIE, __isfinite
    2160            $C$DW$132       .dwtag  DW_TAG_formal_parameter
    2161                    .dwattr $C$DW$132, DW_AT_name("d")
    2162                    .dwattr $C$DW$132, DW_AT_TI_symbol_name("d")
    2163                    .dwattr $C$DW$132, DW_AT_type(*$C$DW$T$17)
    2164                    .dwattr $C$DW$132, DW_AT_location[DW_OP_reg12 DW_OP_piece 2 DW_OP_reg13 DW_OP_piece 2 DW_OP_re
    2165            
    2166            
    2167            ;*****************************************************************************
    2168            ;* FUNCTION NAME: __isfinite                                                 *
    2169            ;*                                                                           *
    2170            ;*   Regs Modified     : SP,SR,r12,r15                                       *
    2171            ;*   Regs Used         : SP,SR,r12,r15                                       *
    2172            ;*   Local Frame Size  : 0 Args + 0 Auto + 0 Save = 0 byte                   *
    2173            ;*****************************************************************************
    2174 000000       __isfinite:
    2175            ;* --------------------------------------------------------------------------*
    2176                    .dwcfi  cfa_offset, 4
    2177                    .dwcfi  save_reg_to_mem, 16, -4
    2178                    .dwpsn  file "C:/ti/ccs1110/ccs/tools/compiler/ti-cgt-msp430_21.6.1.LTS/include/_defs.h",line 
    2179 000000 430C          MOV.W     #0,r12                ; [] |335| 
    2180 000002 F03F          AND.W     #32752,r15            ; [] |335| 
         000004 7FF0 
    2181 000006 903F          CMP.W     #32752,r15            ; [] |335| 
         000008 7FF0 
    2182 00000a 2401          JEQ       $C$L22                ; [] |335| 
    2183                                                      ; [] |335| 
    2184            ;* --------------------------------------------------------------------------*
    2185 00000c 431C          MOV.W     #1,r12                ; [] |335| 
    2186            ;* --------------------------------------------------------------------------*
    2187 00000e       $C$L22:    
    2188                    .dwpsn  file "C:/ti/ccs1110/ccs/tools/compiler/ti-cgt-msp430_21.6.1.LTS/include/_defs.h",line 
    2189            $C$DW$133       .dwtag  DW_TAG_TI_branch
    2190                    .dwattr $C$DW$133, DW_AT_low_pc(0x00)
    2191                    .dwattr $C$DW$133, DW_AT_TI_return
    2192            
    2193 00000e 0110          RETA      ; [] 
    2194                    ; [] 
    2195                    .dwattr $C$DW$131, DW_AT_TI_end_file("C:/ti/ccs1110/ccs/tools/compiler/ti-cgt-msp430_21.6.1.LT
    2196                    .dwattr $C$DW$131, DW_AT_TI_end_line(0x14f)
    2197                    .dwattr $C$DW$131, DW_AT_TI_end_column(0x2e)
    2198                    .dwendentry
    2199                    .dwendtag $C$DW$131
    2200            
    2201 000000               .sect   ".text:__fpclassifyl"
    2202                    .clink
MSP430 Assembler PC v21.6.1 Tue Dec 20 14:10:54 2022

Copyright (c) 2003-2018 Texas Instruments Incorporated
ISR.asm                                                              PAGE   42

    2203                    .global __fpclassifyl
    2204            
    2205            $C$DW$134       .dwtag  DW_TAG_subprogram
    2206                    .dwattr $C$DW$134, DW_AT_name("__fpclassifyl")
    2207                    .dwattr $C$DW$134, DW_AT_low_pc(__fpclassifyl)
    2208                    .dwattr $C$DW$134, DW_AT_high_pc(0x00)
    2209                    .dwattr $C$DW$134, DW_AT_TI_symbol_name("__fpclassifyl")
    2210                    .dwattr $C$DW$134, DW_AT_external
    2211                    .dwattr $C$DW$134, DW_AT_type(*$C$DW$T$10)
    2212                    .dwattr $C$DW$134, DW_AT_TI_begin_file("C:/ti/ccs1110/ccs/tools/compiler/ti-cgt-msp430_21.6.1.
    2213                    .dwattr $C$DW$134, DW_AT_TI_begin_line(0x1ae)
    2214                    .dwattr $C$DW$134, DW_AT_TI_begin_column(0x25)
    2215                    .dwattr $C$DW$134, DW_AT_decl_file("C:/ti/ccs1110/ccs/tools/compiler/ti-cgt-msp430_21.6.1.LTS/
    2216                    .dwattr $C$DW$134, DW_AT_decl_line(0x1ae)
    2217                    .dwattr $C$DW$134, DW_AT_decl_column(0x25)
    2218                    .dwattr $C$DW$134, DW_AT_TI_max_frame_size(0x20)
    2219                    .dwpsn  file "C:/ti/ccs1110/ccs/tools/compiler/ti-cgt-msp430_21.6.1.LTS/include/_defs.h",line 
    2220            
    2221                    .dwfde $C$DW$CIE, __fpclassifyl
    2222            $C$DW$135       .dwtag  DW_TAG_formal_parameter
    2223                    .dwattr $C$DW$135, DW_AT_name("e")
    2224                    .dwattr $C$DW$135, DW_AT_TI_symbol_name("e")
    2225                    .dwattr $C$DW$135, DW_AT_type(*$C$DW$T$18)
    2226                    .dwattr $C$DW$135, DW_AT_location[DW_OP_reg12 DW_OP_piece 2 DW_OP_reg13 DW_OP_piece 2 DW_OP_re
    2227            
    2228            
    2229            ;*****************************************************************************
    2230            ;* FUNCTION NAME: __fpclassifyl                                              *
    2231            ;*                                                                           *
    2232            ;*   Regs Modified     : SP,SR,r4,r5,r6,r7,r8,r9,r10,r11,r12,r13,r14,r15     *
    2233            ;*   Regs Used         : SP,SR,r4,r5,r6,r7,r8,r9,r10,r11,r12,r13,r14,r15     *
    2234            ;*   Local Frame Size  : 0 Args + 0 Auto + 28 Save = 28 byte                 *
    2235            ;*****************************************************************************
    2236 000000       __fpclassifyl:
    2237            ;* --------------------------------------------------------------------------*
    2238                    .dwcfi  cfa_offset, 4
    2239                    .dwcfi  save_reg_to_mem, 16, -4
    2240 000000 146A          PUSHM.A   #7,r10                ; [] 
    2241                    .dwcfi  save_reg_to_mem, 10, -8
    2242                    .dwcfi  save_reg_to_mem, 9, -12
    2243                    .dwcfi  save_reg_to_mem, 8, -16
    2244                    .dwcfi  save_reg_to_mem, 7, -20
    2245                    .dwcfi  save_reg_to_mem, 6, -24
    2246                    .dwcfi  save_reg_to_mem, 5, -28
    2247                    .dwcfi  save_reg_to_mem, 4, -32
    2248                    .dwcfi  cfa_offset, 32
    2249            ;* r4    assigned to e
    2250            $C$DW$136       .dwtag  DW_TAG_variable
    2251                    .dwattr $C$DW$136, DW_AT_name("e")
    2252                    .dwattr $C$DW$136, DW_AT_TI_symbol_name("e")
    2253                    .dwattr $C$DW$136, DW_AT_type(*$C$DW$T$18)
    2254                    .dwattr $C$DW$136, DW_AT_location[DW_OP_reg4 DW_OP_piece 2 DW_OP_reg5 DW_OP_piece 2 DW_OP_reg6
    2255            
    2256 000002 0CC4          MOVA      r12,r4                ; [] |431| 
    2257 000004 0DC5          MOVA      r13,r5                ; [] |431| 
MSP430 Assembler PC v21.6.1 Tue Dec 20 14:10:54 2022

Copyright (c) 2003-2018 Texas Instruments Incorporated
ISR.asm                                                              PAGE   43

    2258 000006 0EC6          MOVA      r14,r6                ; [] |431| 
    2259 000008 0FC7          MOVA      r15,r7                ; [] |431| 
    2260                    .dwpsn  file "C:/ti/ccs1110/ccs/tools/compiler/ti-cgt-msp430_21.6.1.LTS/include/_defs.h",line 
    2261 00000a F03F          AND.W     #32752,r15            ; [] |436| 
         00000c 7FF0 
    2262 00000e 903F          CMP.W     #32752,r15            ; [] |436| 
         000010 7FF0 
    2263 000012 2011          JNE       $C$L25                ; [] |436| 
    2264                                                      ; [] |436| 
    2265            ;* --------------------------------------------------------------------------*
    2266 000014 F334          AND.W     #65535,r4             ; [] |436| 
    2267 000016 F335          AND.W     #65535,r5             ; [] |436| 
    2268 000018 F336          AND.W     #65535,r6             ; [] |436| 
    2269 00001a F037          AND.W     #15,r7                ; [] |436| 
         00001c 000F 
    2270 00001e 9307          TST.W     r7                    ; [] |436| 
    2271 000020 2006          JNE       $C$L23                ; [] |436| 
    2272                                                      ; [] |436| 
    2273            ;* --------------------------------------------------------------------------*
    2274 000022 9306          TST.W     r6                    ; [] |436| 
    2275 000024 2004          JNE       $C$L23                ; [] |436| 
    2276                                                      ; [] |436| 
    2277            ;* --------------------------------------------------------------------------*
    2278 000026 9305          TST.W     r5                    ; [] |436| 
    2279 000028 2002          JNE       $C$L23                ; [] |436| 
    2280                                                      ; [] |436| 
    2281            ;* --------------------------------------------------------------------------*
    2282 00002a 9304          TST.W     r4                    ; [] |436| 
    2283 00002c 2402          JEQ       $C$L24                ; [] |436| 
    2284                                                      ; [] |436| 
    2285            ;* --------------------------------------------------------------------------*
    2286 00002e       $C$L23:    
    2287 00002e 432C          MOV.W     #2,r12                ; [] |436| 
    2288 000030 3C2A          JMP       $C$L30                ; [] |436| 
    2289                                                      ; [] |436| 
    2290            ;* --------------------------------------------------------------------------*
    2291 000032       $C$L24:    
    2292 000032 431C          MOV.W     #1,r12                ; [] |436| 
    2293 000034 3C28          JMP       $C$L30                ; [] |436| 
    2294                                                      ; [] |436| 
    2295            ;* --------------------------------------------------------------------------*
    2296 000036       $C$L25:    
    2297 000036 04C8          MOVA      r4,r8                 ; [] |436| 
    2298 000038 05C9          MOVA      r5,r9                 ; [] |436| 
    2299 00003a 06CA          MOVA      r6,r10                ; [] |436| 
    2300 00003c 07CB          MOVA      r7,r11                ; [] |436| 
    2301 00003e 403C          MOV.W     #52,r12               ; [] |436| 
         000040 0034 
    2302            $C$DW$137       .dwtag  DW_TAG_TI_branch
    2303                    .dwattr $C$DW$137, DW_AT_low_pc(0x00)
    2304                    .dwattr $C$DW$137, DW_AT_name("__mspabi_srlll")
    2305                    .dwattr $C$DW$137, DW_AT_TI_call
    2306            
    2307 000042 13B0!         CALLA     #__mspabi_srlll       ; [] |436| 
         000044 0000 
MSP430 Assembler PC v21.6.1 Tue Dec 20 14:10:54 2022

Copyright (c) 2003-2018 Texas Instruments Incorporated
ISR.asm                                                              PAGE   44

    2308                                                      ; [] |436| 
    2309 000046 F03C          AND.W     #2047,r12             ; [] |436| 
         000048 07FF 
    2310 00004a F30D          AND.W     #0,r13                ; [] |436| 
    2311 00004c F30E          AND.W     #0,r14                ; [] |436| 
    2312 00004e F30F          AND.W     #0,r15                ; [] |436| 
    2313 000050 930F          TST.W     r15                   ; [] |436| 
    2314 000052 2006          JNE       $C$L26                ; [] |436| 
    2315                                                      ; [] |436| 
    2316            ;* --------------------------------------------------------------------------*
    2317 000054 930E          TST.W     r14                   ; [] |436| 
    2318 000056 2004          JNE       $C$L26                ; [] |436| 
    2319                                                      ; [] |436| 
    2320            ;* --------------------------------------------------------------------------*
    2321 000058 930D          TST.W     r13                   ; [] |436| 
    2322 00005a 2002          JNE       $C$L26                ; [] |436| 
    2323                                                      ; [] |436| 
    2324            ;* --------------------------------------------------------------------------*
    2325 00005c 930C          TST.W     r12                   ; [] |436| 
    2326 00005e 2402          JEQ       $C$L27                ; [] |436| 
    2327                                                      ; [] |436| 
    2328            ;* --------------------------------------------------------------------------*
    2329 000060       $C$L26:    
    2330 000060 433C          MOV.W     #-1,r12               ; [] |436| 
    2331 000062 3C11          JMP       $C$L30                ; [] |436| 
    2332                                                      ; [] |436| 
    2333            ;* --------------------------------------------------------------------------*
    2334 000064       $C$L27:    
    2335 000064 F334          AND.W     #65535,r4             ; [] |436| 
    2336 000066 F335          AND.W     #65535,r5             ; [] |436| 
    2337 000068 F336          AND.W     #65535,r6             ; [] |436| 
    2338 00006a F037          AND.W     #15,r7                ; [] |436| 
         00006c 000F 
    2339 00006e 9307          TST.W     r7                    ; [] |436| 
    2340 000070 2006          JNE       $C$L28                ; [] |436| 
    2341                                                      ; [] |436| 
    2342            ;* --------------------------------------------------------------------------*
    2343 000072 9306          TST.W     r6                    ; [] |436| 
    2344 000074 2004          JNE       $C$L28                ; [] |436| 
    2345                                                      ; [] |436| 
    2346            ;* --------------------------------------------------------------------------*
    2347 000076 9305          TST.W     r5                    ; [] |436| 
    2348 000078 2002          JNE       $C$L28                ; [] |436| 
    2349                                                      ; [] |436| 
    2350            ;* --------------------------------------------------------------------------*
    2351 00007a 9304          TST.W     r4                    ; [] |436| 
    2352 00007c 2403          JEQ       $C$L29                ; [] |436| 
    2353                                                      ; [] |436| 
    2354            ;* --------------------------------------------------------------------------*
    2355 00007e       $C$L28:    
    2356 00007e 403C          MOV.W     #65534,r12            ; [] |436| 
         000080 FFFE 
    2357 000082 3C01          JMP       $C$L30                ; [] |436| 
    2358                                                      ; [] |436| 
    2359            ;* --------------------------------------------------------------------------*
MSP430 Assembler PC v21.6.1 Tue Dec 20 14:10:54 2022

Copyright (c) 2003-2018 Texas Instruments Incorporated
ISR.asm                                                              PAGE   45

    2360 000084       $C$L29:    
    2361 000084 430C          MOV.W     #0,r12                ; [] |436| 
    2362            ;* --------------------------------------------------------------------------*
    2363 000086       $C$L30:    
    2364                    .dwpsn  file "C:/ti/ccs1110/ccs/tools/compiler/ti-cgt-msp430_21.6.1.LTS/include/_defs.h",line 
    2365 000086 1664          POPM.A    #7,r10                ; [] 
    2366                    .dwcfi  restore_reg, 4
    2367                    .dwcfi  restore_reg, 5
    2368                    .dwcfi  restore_reg, 6
    2369                    .dwcfi  restore_reg, 7
    2370                    .dwcfi  restore_reg, 8
    2371                    .dwcfi  restore_reg, 9
    2372                    .dwcfi  restore_reg, 10
    2373                    .dwcfi  cfa_offset, 4
    2374            $C$DW$138       .dwtag  DW_TAG_TI_branch
    2375                    .dwattr $C$DW$138, DW_AT_low_pc(0x00)
    2376                    .dwattr $C$DW$138, DW_AT_TI_return
    2377            
    2378 000088 0110          RETA      ; [] 
    2379                    ; [] 
    2380                    .dwattr $C$DW$134, DW_AT_TI_end_file("C:/ti/ccs1110/ccs/tools/compiler/ti-cgt-msp430_21.6.1.LT
    2381                    .dwattr $C$DW$134, DW_AT_TI_end_line(0x1bd)
    2382                    .dwattr $C$DW$134, DW_AT_TI_end_column(0x01)
    2383                    .dwendentry
    2384                    .dwendtag $C$DW$134
    2385            
    2386 000000               .sect   ".text:__fpclassifyf"
    2387                    .clink
    2388                    .global __fpclassifyf
    2389            
    2390            $C$DW$139       .dwtag  DW_TAG_subprogram
    2391                    .dwattr $C$DW$139, DW_AT_name("__fpclassifyf")
    2392                    .dwattr $C$DW$139, DW_AT_low_pc(__fpclassifyf)
    2393                    .dwattr $C$DW$139, DW_AT_high_pc(0x00)
    2394                    .dwattr $C$DW$139, DW_AT_TI_symbol_name("__fpclassifyf")
    2395                    .dwattr $C$DW$139, DW_AT_external
    2396                    .dwattr $C$DW$139, DW_AT_type(*$C$DW$T$10)
    2397                    .dwattr $C$DW$139, DW_AT_TI_begin_file("C:/ti/ccs1110/ccs/tools/compiler/ti-cgt-msp430_21.6.1.
    2398                    .dwattr $C$DW$139, DW_AT_TI_begin_line(0x18c)
    2399                    .dwattr $C$DW$139, DW_AT_TI_begin_column(0x25)
    2400                    .dwattr $C$DW$139, DW_AT_decl_file("C:/ti/ccs1110/ccs/tools/compiler/ti-cgt-msp430_21.6.1.LTS/
    2401                    .dwattr $C$DW$139, DW_AT_decl_line(0x18c)
    2402                    .dwattr $C$DW$139, DW_AT_decl_column(0x25)
    2403                    .dwattr $C$DW$139, DW_AT_TI_max_frame_size(0x04)
    2404                    .dwpsn  file "C:/ti/ccs1110/ccs/tools/compiler/ti-cgt-msp430_21.6.1.LTS/include/_defs.h",line 
    2405            
    2406                    .dwfde $C$DW$CIE, __fpclassifyf
    2407            $C$DW$140       .dwtag  DW_TAG_formal_parameter
    2408                    .dwattr $C$DW$140, DW_AT_name("f")
    2409                    .dwattr $C$DW$140, DW_AT_TI_symbol_name("f")
    2410                    .dwattr $C$DW$140, DW_AT_type(*$C$DW$T$16)
    2411                    .dwattr $C$DW$140, DW_AT_location[DW_OP_reg12 DW_OP_piece 2 DW_OP_reg13 DW_OP_piece 2]
    2412            
    2413            
    2414            ;*****************************************************************************
MSP430 Assembler PC v21.6.1 Tue Dec 20 14:10:54 2022

Copyright (c) 2003-2018 Texas Instruments Incorporated
ISR.asm                                                              PAGE   46

    2415            ;* FUNCTION NAME: __fpclassifyf                                              *
    2416            ;*                                                                           *
    2417            ;*   Regs Modified     : SP,SR,r12,r13,r15                                   *
    2418            ;*   Regs Used         : SP,SR,r12,r13,r15                                   *
    2419            ;*   Local Frame Size  : 0 Args + 0 Auto + 0 Save = 0 byte                   *
    2420            ;*****************************************************************************
    2421 000000       __fpclassifyf:
    2422            ;* --------------------------------------------------------------------------*
    2423                    .dwcfi  cfa_offset, 4
    2424                    .dwcfi  save_reg_to_mem, 16, -4
    2425                    .dwpsn  file "C:/ti/ccs1110/ccs/tools/compiler/ti-cgt-msp430_21.6.1.LTS/include/_defs.h",line 
    2426 000000 0DCF          MOVA      r13,r15               ; [] |402| 
    2427 000002 F03F          AND.W     #32640,r15            ; [] |402| 
         000004 7F80 
    2428 000006 903F          CMP.W     #32640,r15            ; [] |402| 
         000008 7F80 
    2429 00000a 200B          JNE       $C$L33                ; [] |402| 
    2430                                                      ; [] |402| 
    2431            ;* --------------------------------------------------------------------------*
    2432 00000c F33C          AND.W     #65535,r12            ; [] |402| 
    2433 00000e F03D          AND.W     #127,r13              ; [] |402| 
         000010 007F 
    2434 000012 930D          TST.W     r13                   ; [] |402| 
    2435 000014 2002          JNE       $C$L31                ; [] |402| 
    2436                                                      ; [] |402| 
    2437            ;* --------------------------------------------------------------------------*
    2438 000016 930C          TST.W     r12                   ; [] |402| 
    2439 000018 2402          JEQ       $C$L32                ; [] |402| 
    2440                                                      ; [] |402| 
    2441            ;* --------------------------------------------------------------------------*
    2442 00001a       $C$L31:    
    2443 00001a 432C          MOV.W     #2,r12                ; [] |402| 
    2444 00001c 3C15          JMP       $C$L37                ; [] |402| 
    2445                                                      ; [] |402| 
    2446            ;* --------------------------------------------------------------------------*
    2447 00001e       $C$L32:    
    2448 00001e 431C          MOV.W     #1,r12                ; [] |402| 
    2449 000020 3C13          JMP       $C$L37                ; [] |402| 
    2450                                                      ; [] |402| 
    2451            ;* --------------------------------------------------------------------------*
    2452 000022       $C$L33:    
    2453 000022 0DCF          MOVA      r13,r15               ; [] |402| 
    2454 000024 1946          RPT #7 || RRUX.W r15 ; [] |402| 
         000026 100F 
    2455 000028 B03F          BIT.W     #255,r15              ; [] |402| 
         00002a 00FF 
    2456 00002c 2402          JEQ       $C$L34                ; [] |402| 
    2457                                                      ; [] |402| 
    2458            ;* --------------------------------------------------------------------------*
    2459 00002e 433C          MOV.W     #-1,r12               ; [] |402| 
    2460 000030 3C0B          JMP       $C$L37                ; [] |402| 
    2461                                                      ; [] |402| 
    2462            ;* --------------------------------------------------------------------------*
    2463 000032       $C$L34:    
    2464 000032 F33C          AND.W     #65535,r12            ; [] |402| 
MSP430 Assembler PC v21.6.1 Tue Dec 20 14:10:54 2022

Copyright (c) 2003-2018 Texas Instruments Incorporated
ISR.asm                                                              PAGE   47

    2465 000034 F03D          AND.W     #127,r13              ; [] |402| 
         000036 007F 
    2466 000038 930D          TST.W     r13                   ; [] |402| 
    2467 00003a 2002          JNE       $C$L35                ; [] |402| 
    2468                                                      ; [] |402| 
    2469            ;* --------------------------------------------------------------------------*
    2470 00003c 930C          TST.W     r12                   ; [] |402| 
    2471 00003e 2403          JEQ       $C$L36                ; [] |402| 
    2472                                                      ; [] |402| 
    2473            ;* --------------------------------------------------------------------------*
    2474 000040       $C$L35:    
    2475 000040 403C          MOV.W     #65534,r12            ; [] |402| 
         000042 FFFE 
    2476 000044 3C01          JMP       $C$L37                ; [] |402| 
    2477                                                      ; [] |402| 
    2478            ;* --------------------------------------------------------------------------*
    2479 000046       $C$L36:    
    2480 000046 430C          MOV.W     #0,r12                ; [] |402| 
    2481            ;* --------------------------------------------------------------------------*
    2482 000048       $C$L37:    
    2483                    .dwpsn  file "C:/ti/ccs1110/ccs/tools/compiler/ti-cgt-msp430_21.6.1.LTS/include/_defs.h",line 
    2484            $C$DW$141       .dwtag  DW_TAG_TI_branch
    2485                    .dwattr $C$DW$141, DW_AT_low_pc(0x00)
    2486                    .dwattr $C$DW$141, DW_AT_TI_return
    2487            
    2488 000048 0110          RETA      ; [] 
    2489                    ; [] 
    2490                    .dwattr $C$DW$139, DW_AT_TI_end_file("C:/ti/ccs1110/ccs/tools/compiler/ti-cgt-msp430_21.6.1.LT
    2491                    .dwattr $C$DW$139, DW_AT_TI_end_line(0x19b)
    2492                    .dwattr $C$DW$139, DW_AT_TI_end_column(0x01)
    2493                    .dwendentry
    2494                    .dwendtag $C$DW$139
    2495            
    2496 000000               .sect   ".text:__fpclassify"
    2497                    .clink
    2498                    .global __fpclassify
    2499            
    2500            $C$DW$142       .dwtag  DW_TAG_subprogram
    2501                    .dwattr $C$DW$142, DW_AT_name("__fpclassify")
    2502                    .dwattr $C$DW$142, DW_AT_low_pc(__fpclassify)
    2503                    .dwattr $C$DW$142, DW_AT_high_pc(0x00)
    2504                    .dwattr $C$DW$142, DW_AT_TI_symbol_name("__fpclassify")
    2505                    .dwattr $C$DW$142, DW_AT_external
    2506                    .dwattr $C$DW$142, DW_AT_type(*$C$DW$T$10)
    2507                    .dwattr $C$DW$142, DW_AT_TI_begin_file("C:/ti/ccs1110/ccs/tools/compiler/ti-cgt-msp430_21.6.1.
    2508                    .dwattr $C$DW$142, DW_AT_TI_begin_line(0x19d)
    2509                    .dwattr $C$DW$142, DW_AT_TI_begin_column(0x25)
    2510                    .dwattr $C$DW$142, DW_AT_decl_file("C:/ti/ccs1110/ccs/tools/compiler/ti-cgt-msp430_21.6.1.LTS/
    2511                    .dwattr $C$DW$142, DW_AT_decl_line(0x19d)
    2512                    .dwattr $C$DW$142, DW_AT_decl_column(0x25)
    2513                    .dwattr $C$DW$142, DW_AT_TI_max_frame_size(0x20)
    2514                    .dwpsn  file "C:/ti/ccs1110/ccs/tools/compiler/ti-cgt-msp430_21.6.1.LTS/include/_defs.h",line 
    2515            
    2516                    .dwfde $C$DW$CIE, __fpclassify
    2517            $C$DW$143       .dwtag  DW_TAG_formal_parameter
MSP430 Assembler PC v21.6.1 Tue Dec 20 14:10:54 2022

Copyright (c) 2003-2018 Texas Instruments Incorporated
ISR.asm                                                              PAGE   48

    2518                    .dwattr $C$DW$143, DW_AT_name("d")
    2519                    .dwattr $C$DW$143, DW_AT_TI_symbol_name("d")
    2520                    .dwattr $C$DW$143, DW_AT_type(*$C$DW$T$17)
    2521                    .dwattr $C$DW$143, DW_AT_location[DW_OP_reg12 DW_OP_piece 2 DW_OP_reg13 DW_OP_piece 2 DW_OP_re
    2522            
    2523            
    2524            ;*****************************************************************************
    2525            ;* FUNCTION NAME: __fpclassify                                               *
    2526            ;*                                                                           *
    2527            ;*   Regs Modified     : SP,SR,r4,r5,r6,r7,r8,r9,r10,r11,r12,r13,r14,r15     *
    2528            ;*   Regs Used         : SP,SR,r4,r5,r6,r7,r8,r9,r10,r11,r12,r13,r14,r15     *
    2529            ;*   Local Frame Size  : 0 Args + 0 Auto + 28 Save = 28 byte                 *
    2530            ;*****************************************************************************
    2531 000000       __fpclassify:
    2532            ;* --------------------------------------------------------------------------*
    2533                    .dwcfi  cfa_offset, 4
    2534                    .dwcfi  save_reg_to_mem, 16, -4
    2535 000000 146A          PUSHM.A   #7,r10                ; [] 
    2536                    .dwcfi  save_reg_to_mem, 10, -8
    2537                    .dwcfi  save_reg_to_mem, 9, -12
    2538                    .dwcfi  save_reg_to_mem, 8, -16
    2539                    .dwcfi  save_reg_to_mem, 7, -20
    2540                    .dwcfi  save_reg_to_mem, 6, -24
    2541                    .dwcfi  save_reg_to_mem, 5, -28
    2542                    .dwcfi  save_reg_to_mem, 4, -32
    2543                    .dwcfi  cfa_offset, 32
    2544            ;* r4    assigned to d
    2545            $C$DW$144       .dwtag  DW_TAG_variable
    2546                    .dwattr $C$DW$144, DW_AT_name("d")
    2547                    .dwattr $C$DW$144, DW_AT_TI_symbol_name("d")
    2548                    .dwattr $C$DW$144, DW_AT_type(*$C$DW$T$17)
    2549                    .dwattr $C$DW$144, DW_AT_location[DW_OP_reg4 DW_OP_piece 2 DW_OP_reg5 DW_OP_piece 2 DW_OP_reg6
    2550            
    2551 000002 0CC4          MOVA      r12,r4                ; [] |414| 
    2552 000004 0DC5          MOVA      r13,r5                ; [] |414| 
    2553 000006 0EC6          MOVA      r14,r6                ; [] |414| 
    2554 000008 0FC7          MOVA      r15,r7                ; [] |414| 
    2555                    .dwpsn  file "C:/ti/ccs1110/ccs/tools/compiler/ti-cgt-msp430_21.6.1.LTS/include/_defs.h",line 
    2556 00000a F03F          AND.W     #32752,r15            ; [] |419| 
         00000c 7FF0 
    2557 00000e 903F          CMP.W     #32752,r15            ; [] |419| 
         000010 7FF0 
    2558 000012 2011          JNE       $C$L40                ; [] |419| 
    2559                                                      ; [] |419| 
    2560            ;* --------------------------------------------------------------------------*
    2561 000014 F334          AND.W     #65535,r4             ; [] |419| 
    2562 000016 F335          AND.W     #65535,r5             ; [] |419| 
    2563 000018 F336          AND.W     #65535,r6             ; [] |419| 
    2564 00001a F037          AND.W     #15,r7                ; [] |419| 
         00001c 000F 
    2565 00001e 9307          TST.W     r7                    ; [] |419| 
    2566 000020 2006          JNE       $C$L38                ; [] |419| 
    2567                                                      ; [] |419| 
    2568            ;* --------------------------------------------------------------------------*
    2569 000022 9306          TST.W     r6                    ; [] |419| 
MSP430 Assembler PC v21.6.1 Tue Dec 20 14:10:54 2022

Copyright (c) 2003-2018 Texas Instruments Incorporated
ISR.asm                                                              PAGE   49

    2570 000024 2004          JNE       $C$L38                ; [] |419| 
    2571                                                      ; [] |419| 
    2572            ;* --------------------------------------------------------------------------*
    2573 000026 9305          TST.W     r5                    ; [] |419| 
    2574 000028 2002          JNE       $C$L38                ; [] |419| 
    2575                                                      ; [] |419| 
    2576            ;* --------------------------------------------------------------------------*
    2577 00002a 9304          TST.W     r4                    ; [] |419| 
    2578 00002c 2402          JEQ       $C$L39                ; [] |419| 
    2579                                                      ; [] |419| 
    2580            ;* --------------------------------------------------------------------------*
    2581 00002e       $C$L38:    
    2582 00002e 432C          MOV.W     #2,r12                ; [] |419| 
    2583 000030 3C2A          JMP       $C$L45                ; [] |419| 
    2584                                                      ; [] |419| 
    2585            ;* --------------------------------------------------------------------------*
    2586 000032       $C$L39:    
    2587 000032 431C          MOV.W     #1,r12                ; [] |419| 
    2588 000034 3C28          JMP       $C$L45                ; [] |419| 
    2589                                                      ; [] |419| 
    2590            ;* --------------------------------------------------------------------------*
    2591 000036       $C$L40:    
    2592 000036 04C8          MOVA      r4,r8                 ; [] |419| 
    2593 000038 05C9          MOVA      r5,r9                 ; [] |419| 
    2594 00003a 06CA          MOVA      r6,r10                ; [] |419| 
    2595 00003c 07CB          MOVA      r7,r11                ; [] |419| 
    2596 00003e 403C          MOV.W     #52,r12               ; [] |419| 
         000040 0034 
    2597            $C$DW$145       .dwtag  DW_TAG_TI_branch
    2598                    .dwattr $C$DW$145, DW_AT_low_pc(0x00)
    2599                    .dwattr $C$DW$145, DW_AT_name("__mspabi_srlll")
    2600                    .dwattr $C$DW$145, DW_AT_TI_call
    2601            
    2602 000042 13B0!         CALLA     #__mspabi_srlll       ; [] |419| 
         000044 0000 
    2603                                                      ; [] |419| 
    2604 000046 F03C          AND.W     #2047,r12             ; [] |419| 
         000048 07FF 
    2605 00004a F30D          AND.W     #0,r13                ; [] |419| 
    2606 00004c F30E          AND.W     #0,r14                ; [] |419| 
    2607 00004e F30F          AND.W     #0,r15                ; [] |419| 
    2608 000050 930F          TST.W     r15                   ; [] |419| 
    2609 000052 2006          JNE       $C$L41                ; [] |419| 
    2610                                                      ; [] |419| 
    2611            ;* --------------------------------------------------------------------------*
    2612 000054 930E          TST.W     r14                   ; [] |419| 
    2613 000056 2004          JNE       $C$L41                ; [] |419| 
    2614                                                      ; [] |419| 
    2615            ;* --------------------------------------------------------------------------*
    2616 000058 930D          TST.W     r13                   ; [] |419| 
    2617 00005a 2002          JNE       $C$L41                ; [] |419| 
    2618                                                      ; [] |419| 
    2619            ;* --------------------------------------------------------------------------*
    2620 00005c 930C          TST.W     r12                   ; [] |419| 
    2621 00005e 2402          JEQ       $C$L42                ; [] |419| 
MSP430 Assembler PC v21.6.1 Tue Dec 20 14:10:54 2022

Copyright (c) 2003-2018 Texas Instruments Incorporated
ISR.asm                                                              PAGE   50

    2622                                                      ; [] |419| 
    2623            ;* --------------------------------------------------------------------------*
    2624 000060       $C$L41:    
    2625 000060 433C          MOV.W     #-1,r12               ; [] |419| 
    2626 000062 3C11          JMP       $C$L45                ; [] |419| 
    2627                                                      ; [] |419| 
    2628            ;* --------------------------------------------------------------------------*
    2629 000064       $C$L42:    
    2630 000064 F334          AND.W     #65535,r4             ; [] |419| 
    2631 000066 F335          AND.W     #65535,r5             ; [] |419| 
    2632 000068 F336          AND.W     #65535,r6             ; [] |419| 
    2633 00006a F037          AND.W     #15,r7                ; [] |419| 
         00006c 000F 
    2634 00006e 9307          TST.W     r7                    ; [] |419| 
    2635 000070 2006          JNE       $C$L43                ; [] |419| 
    2636                                                      ; [] |419| 
    2637            ;* --------------------------------------------------------------------------*
    2638 000072 9306          TST.W     r6                    ; [] |419| 
    2639 000074 2004          JNE       $C$L43                ; [] |419| 
    2640                                                      ; [] |419| 
    2641            ;* --------------------------------------------------------------------------*
    2642 000076 9305          TST.W     r5                    ; [] |419| 
    2643 000078 2002          JNE       $C$L43                ; [] |419| 
    2644                                                      ; [] |419| 
    2645            ;* --------------------------------------------------------------------------*
    2646 00007a 9304          TST.W     r4                    ; [] |419| 
    2647 00007c 2403          JEQ       $C$L44                ; [] |419| 
    2648                                                      ; [] |419| 
    2649            ;* --------------------------------------------------------------------------*
    2650 00007e       $C$L43:    
    2651 00007e 403C          MOV.W     #65534,r12            ; [] |419| 
         000080 FFFE 
    2652 000082 3C01          JMP       $C$L45                ; [] |419| 
    2653                                                      ; [] |419| 
    2654            ;* --------------------------------------------------------------------------*
    2655 000084       $C$L44:    
    2656 000084 430C          MOV.W     #0,r12                ; [] |419| 
    2657            ;* --------------------------------------------------------------------------*
    2658 000086       $C$L45:    
    2659                    .dwpsn  file "C:/ti/ccs1110/ccs/tools/compiler/ti-cgt-msp430_21.6.1.LTS/include/_defs.h",line 
    2660 000086 1664          POPM.A    #7,r10                ; [] 
    2661                    .dwcfi  restore_reg, 4
    2662                    .dwcfi  restore_reg, 5
    2663                    .dwcfi  restore_reg, 6
    2664                    .dwcfi  restore_reg, 7
    2665                    .dwcfi  restore_reg, 8
    2666                    .dwcfi  restore_reg, 9
    2667                    .dwcfi  restore_reg, 10
    2668                    .dwcfi  cfa_offset, 4
    2669            $C$DW$146       .dwtag  DW_TAG_TI_branch
    2670                    .dwattr $C$DW$146, DW_AT_low_pc(0x00)
    2671                    .dwattr $C$DW$146, DW_AT_TI_return
    2672            
    2673 000088 0110          RETA      ; [] 
    2674                    ; [] 
MSP430 Assembler PC v21.6.1 Tue Dec 20 14:10:54 2022

Copyright (c) 2003-2018 Texas Instruments Incorporated
ISR.asm                                                              PAGE   51

    2675                    .dwattr $C$DW$142, DW_AT_TI_end_file("C:/ti/ccs1110/ccs/tools/compiler/ti-cgt-msp430_21.6.1.LT
    2676                    .dwattr $C$DW$142, DW_AT_TI_end_line(0x1ac)
    2677                    .dwattr $C$DW$142, DW_AT_TI_end_column(0x01)
    2678                    .dwendentry
    2679                    .dwendtag $C$DW$142
    2680            
    2681 000000               .sect   ".text:_isr:USCI_B2_ISR"
    2682                    .clink
    2683                    .global USCI_B2_ISR
    2684            
    2685            $C$DW$147       .dwtag  DW_TAG_subprogram
    2686                    .dwattr $C$DW$147, DW_AT_name("USCI_B2_ISR")
    2687                    .dwattr $C$DW$147, DW_AT_low_pc(USCI_B2_ISR)
    2688                    .dwattr $C$DW$147, DW_AT_high_pc(0x00)
    2689                    .dwattr $C$DW$147, DW_AT_TI_symbol_name("USCI_B2_ISR")
    2690                    .dwattr $C$DW$147, DW_AT_external
    2691                    .dwattr $C$DW$147, DW_AT_TI_begin_file("../src/ISR.c")
    2692                    .dwattr $C$DW$147, DW_AT_TI_begin_line(0x201)
    2693                    .dwattr $C$DW$147, DW_AT_TI_begin_column(0x12)
    2694                    .dwattr $C$DW$147, DW_AT_decl_file("../src/ISR.c")
    2695                    .dwattr $C$DW$147, DW_AT_decl_line(0x201)
    2696                    .dwattr $C$DW$147, DW_AT_decl_column(0x12)
    2697                    .dwattr $C$DW$147, DW_AT_TI_interrupt
    2698                    .dwattr $C$DW$147, DW_AT_TI_max_frame_size(0x0c)
    2699                    .dwpsn  file "../src/ISR.c",line 514,column 1,is_stmt,address USCI_B2_ISR,isa 0
    2700            
    2701                    .dwfde $C$DW$CIE, USCI_B2_ISR
    2702            
    2703            ;*****************************************************************************
    2704            ;* FUNCTION NAME: USCI_B2_ISR                                                *
    2705            ;*                                                                           *
    2706            ;*   Regs Modified     : SP,SR,r14,r15                                       *
    2707            ;*   Regs Used         : SP,SR,r14,r15                                       *
    2708            ;*   Local Frame Size  : 0 Args + 0 Auto + 8 Save = 8 byte                   *
    2709            ;*****************************************************************************
    2710 000000       USCI_B2_ISR:
    2711            ;* --------------------------------------------------------------------------*
    2712                    .dwcfi  cfa_offset, 4
    2713                    .dwcfi  save_reg_to_mem, 16, -4
    2714 000000 141F          PUSHM.A   #2,r15                ; [] 
    2715                    .dwcfi  save_reg_to_mem, 15, -8
    2716                    .dwcfi  save_reg_to_mem, 14, -12
    2717                    .dwcfi  cfa_offset, 12
    2718                    .dwpsn  file "../src/ISR.c",line 515,column 3,is_stmt,isa 0
    2719 000002 421F          MOV.W     &UCB2IV+0,r15         ; [] |515| 
         000004 0000!
    2720 000006 832F          SUB.W     #2,r15                ; [] |515| 
    2721 000008 2455          JEQ       $C$L52                ; [] |515| 
    2722                                                      ; [] |515| 
    2723            ;* --------------------------------------------------------------------------*
    2724 00000a 832F          SUB.W     #2,r15                ; [] |515| 
    2725 00000c 2451          JEQ       $C$L51                ; [] |515| 
    2726                                                      ; [] |515| 
    2727            ;* --------------------------------------------------------------------------*
    2728 00000e 832F          SUB.W     #2,r15                ; [] |515| 
MSP430 Assembler PC v21.6.1 Tue Dec 20 14:10:54 2022

Copyright (c) 2003-2018 Texas Instruments Incorporated
ISR.asm                                                              PAGE   52

    2729 000010 2446          JEQ       $C$L50                ; [] |515| 
    2730                                                      ; [] |515| 
    2731            ;* --------------------------------------------------------------------------*
    2732 000012 832F          SUB.W     #2,r15                ; [] |515| 
    2733 000014 2440          JEQ       $C$L49                ; [] |515| 
    2734                                                      ; [] |515| 
    2735            ;* --------------------------------------------------------------------------*
    2736 000016 832F          SUB.W     #2,r15                ; [] |515| 
    2737 000018 2425          JEQ       $C$L47                ; [] |515| 
    2738                                                      ; [] |515| 
    2739            ;* --------------------------------------------------------------------------*
    2740 00001a 832F          SUB.W     #2,r15                ; [] |515| 
    2741 00001c 204C          JNE       $C$L53                ; [] |515| 
    2742                                                      ; [] |515| 
    2743            ;* --------------------------------------------------------------------------*
    2744                    .dwpsn  file "../src/ISR.c",line 554,column 5,is_stmt,isa 0
    2745 00001e 93C2          TST.B     &TXByteCtrB2+0        ; [] |554| 
         000020 0000!
    2746 000022 200F          JNE       $C$L46                ; [] |554| 
    2747                                                      ; [] |554| 
    2748            ;* --------------------------------------------------------------------------*
    2749                    .dwpsn  file "../src/ISR.c",line 562,column 7,is_stmt,isa 0
    2750                    ; Begin 50 cycle delay
    2751                    .newblock
    2752 000024 140D          PUSHM.A  #1, r13
    2753 000026 403D          MOV.W    #13, r13
         000028 000D 
    2754 00002a 831D  $1:     SUB.W    #1, r13
    2755 00002c 23FE          JNE      $1
    2756 00002e 160D          POPM.A   #1, r13
    2757 000030 4303          NOP
    2758                    ; End 50 cycle delay ; [] |562| 
    2759                    .dwpsn  file "../src/ISR.c",line 563,column 7,is_stmt,isa 0
    2760 000032 D2E2          OR.B      #4,&UCB2CTLW0_L+0     ; [] |563| 
         000034 0000!
    2761                    .dwpsn  file "../src/ISR.c",line 564,column 7,is_stmt,isa 0
    2762 000036 C3E2          BIC.B     #2,&UCB2ICTL_H+0      ; [] |564| 
         000038 0000!
    2763                    .dwpsn  file "../src/ISR.c",line 566,column 7,is_stmt,isa 0
    2764 00003a C0B1          BIC.W     #16,8(SP)             ; [] |566| 
         00003c 0010 
         00003e 0008 
    2765 000040 3C3A          JMP       $C$L53                ; [] |566| 
    2766                                                      ; [] |566| 
    2767            ;* --------------------------------------------------------------------------*
    2768 000042       $C$L46:    
    2769                    .dwpsn  file "../src/ISR.c",line 556,column 7,is_stmt,isa 0
    2770                    ; Begin 50 cycle delay
    2771                    .newblock
    2772 000042 140D          PUSHM.A  #1, r13
    2773 000044 403D          MOV.W    #13, r13
         000046 000D 
    2774 000048 831D  $1:     SUB.W    #1, r13
    2775 00004a 23FE          JNE      $1
    2776 00004c 160D          POPM.A   #1, r13
MSP430 Assembler PC v21.6.1 Tue Dec 20 14:10:54 2022

Copyright (c) 2003-2018 Texas Instruments Incorporated
ISR.asm                                                              PAGE   53

    2777 00004e 4303          NOP
    2778                    ; End 50 cycle delay ; [] |556| 
    2779                    .dwpsn  file "../src/ISR.c",line 557,column 7,is_stmt,isa 0
    2780 000050 002F!         MOVX.A    &PTxB2Data+0,r15      ; [] |557| 
         000052 0000 
    2781 000054 4F7E          MOV.B     @r15+,r14             ; [] |557| 
    2782 000056 0F60!         MOVX.A    r15,&PTxB2Data+0      ; [] |557| 
         000058 0000 
    2783 00005a 4EC2          MOV.B     r14,&UCB2TXBUF+0      ; [] |557| 
         00005c 0000!
    2784                    .dwpsn  file "../src/ISR.c",line 558,column 7,is_stmt,isa 0
    2785 00005e 83D2          SUB.B     #1,&TXByteCtrB2+0     ; [] |558| 
         000060 0000!
    2786 000062 3C29          JMP       $C$L53                ; [] 
    2787                                                      ; [] 
    2788            ;* --------------------------------------------------------------------------*
    2789 000064       $C$L47:    
    2790                    .dwpsn  file "../src/ISR.c",line 537,column 4,is_stmt,isa 0
    2791 000064 002E!         MOVX.A    &PRxB2Data+0,r14      ; [] |537| 
         000066 0000 
    2792 000068 0ECF          MOVA      r14,r15               ; [] |537| 
    2793 00006a 00AF          ADDA      #1,r15                ; [] |537| 
         00006c 0001 
    2794 00006e 0F60!         MOVX.A    r15,&PRxB2Data+0      ; [] |537| 
         000070 0000 
    2795 000072 42DE          MOV.B     &UCB2RXBUF+0,0(r14)   ; [] |537| 
         000074 0000!
         000076 0000 
    2796                    .dwpsn  file "../src/ISR.c",line 540,column 5,is_stmt,isa 0
    2797 000078 93C2          TST.B     &RXByteCtrB2+0        ; [] |540| 
         00007a 0000!
    2798 00007c 2406          JEQ       $C$L48                ; [] |540| 
    2799                                                      ; [] |540| 
    2800            ;* --------------------------------------------------------------------------*
    2801                    .dwpsn  file "../src/ISR.c",line 544,column 7,is_stmt,isa 0
    2802 00007e 93D2          CMP.B     #1,&RXByteCtrB2+0     ; [] |544| 
         000080 0000!
    2803 000082 2019          JNE       $C$L53                ; [] |544| 
    2804                                                      ; [] |544| 
    2805            ;* --------------------------------------------------------------------------*
    2806                    .dwpsn  file "../src/ISR.c",line 545,column 9,is_stmt,isa 0
    2807 000084 D2E2          OR.B      #4,&UCB2CTLW0_L+0     ; [] |545| 
         000086 0000!
    2808 000088 3C16          JMP       $C$L53                ; [] |545| 
    2809                                                      ; [] |545| 
    2810            ;* --------------------------------------------------------------------------*
    2811 00008a       $C$L48:    
    2812                    .dwpsn  file "../src/ISR.c",line 549,column 7,is_stmt,isa 0
    2813 00008a 002F!         MOVX.A    &PRxB2Data+0,r15      ; [] |549| 
         00008c 0000 
    2814 00008e 42DF          MOV.B     &UCB2RXBUF+0,0(r15)   ; [] |549| 
         000090 0000!
         000092 0000 
    2815 000094 3C10          JMP       $C$L53                ; [] |549| 
    2816                                                      ; [] |549| 
MSP430 Assembler PC v21.6.1 Tue Dec 20 14:10:54 2022

Copyright (c) 2003-2018 Texas Instruments Incorporated
ISR.asm                                                              PAGE   54

    2817            ;* --------------------------------------------------------------------------*
    2818 000096       $C$L49:    
    2819                    .dwpsn  file "../src/ISR.c",line 531,column 5,is_stmt,isa 0
    2820 000096 C2F2          BIC.B     #8,&UCB2ICTL_H+0      ; [] |531| 
         000098 0000!
    2821                    .dwpsn  file "../src/ISR.c",line 533,column 7,is_stmt,isa 0
    2822 00009a 4303          NOP       ; [] |533| 
    2823                    .dwpsn  file "../src/ISR.c",line 535,column 5,is_stmt,isa 0
    2824 00009c 3C0C          JMP       $C$L53                ; [] |535| 
    2825                                                      ; [] |535| 
    2826            ;* --------------------------------------------------------------------------*
    2827 00009e       $C$L50:    
    2828                    .dwpsn  file "../src/ISR.c",line 526,column 5,is_stmt,isa 0
    2829 00009e C2E2          BIC.B     #4,&UCB2ICTL_H+0      ; [] |526| 
         0000a0 0000!
    2830                    .dwpsn  file "../src/ISR.c",line 527,column 5,is_stmt,isa 0
    2831 0000a2 1800!         MOVX.A    #RXmsg+0,&PRxB2Data+0 ; [] |527| 
         0000a4 40F2 
         0000a6 0000 
         0000a8 0000 
    2832                    .dwpsn  file "../src/ISR.c",line 528,column 5,is_stmt,isa 0
    2833 0000aa 43C2          MOV.B     #0,&RXByteCtrB2+0     ; [] |528| 
         0000ac 0000!
    2834                    .dwpsn  file "../src/ISR.c",line 529,column 5,is_stmt,isa 0
    2835 0000ae 3C03          JMP       $C$L53                ; [] |529| 
    2836                                                      ; [] |529| 
    2837            ;* --------------------------------------------------------------------------*
    2838 0000b0       $C$L51:    
    2839                    .dwpsn  file "../src/ISR.c",line 523,column 5,is_stmt,isa 0
    2840 0000b0 4303          NOP       ; [] |523| 
    2841                    .dwpsn  file "../src/ISR.c",line 524,column 5,is_stmt,isa 0
    2842 0000b2 3C01          JMP       $C$L53                ; [] |524| 
    2843                                                      ; [] |524| 
    2844            ;* --------------------------------------------------------------------------*
    2845 0000b4       $C$L52:    
    2846                    .dwpsn  file "../src/ISR.c",line 519,column 9,is_stmt,isa 0
    2847 0000b4 4303          NOP       ; [] |519| 
    2848            ;* --------------------------------------------------------------------------*
    2849 0000b6       $C$L53:    
    2850                    .dwpsn  file "../src/ISR.c",line 570,column 1,is_stmt,isa 0
    2851 0000b6 161E          POPM.A    #2,r15                ; [] 
    2852                    .dwcfi  restore_reg, 14
    2853                    .dwcfi  restore_reg, 15
    2854                    .dwcfi  cfa_offset, 4
    2855            $C$DW$148       .dwtag  DW_TAG_TI_branch
    2856                    .dwattr $C$DW$148, DW_AT_low_pc(0x00)
    2857                    .dwattr $C$DW$148, DW_AT_TI_return
    2858            
    2859 0000b8 1300          RETI      ; [] 
    2860                    ; [] 
    2861                    .dwattr $C$DW$147, DW_AT_TI_end_file("../src/ISR.c")
    2862                    .dwattr $C$DW$147, DW_AT_TI_end_line(0x23a)
    2863                    .dwattr $C$DW$147, DW_AT_TI_end_column(0x01)
    2864                    .dwendentry
    2865                    .dwendtag $C$DW$147
MSP430 Assembler PC v21.6.1 Tue Dec 20 14:10:54 2022

Copyright (c) 2003-2018 Texas Instruments Incorporated
ISR.asm                                                              PAGE   55

    2866            
    2867 000000               .sect   ".text:_isr:USCI_B1_ISR"
    2868                    .clink
    2869                    .global USCI_B1_ISR
    2870            
    2871            $C$DW$149       .dwtag  DW_TAG_subprogram
    2872                    .dwattr $C$DW$149, DW_AT_name("USCI_B1_ISR")
    2873                    .dwattr $C$DW$149, DW_AT_low_pc(USCI_B1_ISR)
    2874                    .dwattr $C$DW$149, DW_AT_high_pc(0x00)
    2875                    .dwattr $C$DW$149, DW_AT_TI_symbol_name("USCI_B1_ISR")
    2876                    .dwattr $C$DW$149, DW_AT_external
    2877                    .dwattr $C$DW$149, DW_AT_TI_begin_file("../src/ISR.c")
    2878                    .dwattr $C$DW$149, DW_AT_TI_begin_line(0x1ae)
    2879                    .dwattr $C$DW$149, DW_AT_TI_begin_column(0x12)
    2880                    .dwattr $C$DW$149, DW_AT_decl_file("../src/ISR.c")
    2881                    .dwattr $C$DW$149, DW_AT_decl_line(0x1ae)
    2882                    .dwattr $C$DW$149, DW_AT_decl_column(0x12)
    2883                    .dwattr $C$DW$149, DW_AT_TI_interrupt
    2884                    .dwattr $C$DW$149, DW_AT_TI_max_frame_size(0x0c)
    2885                    .dwpsn  file "../src/ISR.c",line 431,column 1,is_stmt,address USCI_B1_ISR,isa 0
    2886            
    2887                    .dwfde $C$DW$CIE, USCI_B1_ISR
    2888            
    2889            ;*****************************************************************************
    2890            ;* FUNCTION NAME: USCI_B1_ISR                                                *
    2891            ;*                                                                           *
    2892            ;*   Regs Modified     : SP,SR,r14,r15                                       *
    2893            ;*   Regs Used         : SP,SR,r14,r15                                       *
    2894            ;*   Local Frame Size  : 0 Args + 0 Auto + 8 Save = 8 byte                   *
    2895            ;*****************************************************************************
    2896 000000       USCI_B1_ISR:
    2897            ;* --------------------------------------------------------------------------*
    2898                    .dwcfi  cfa_offset, 4
    2899                    .dwcfi  save_reg_to_mem, 16, -4
    2900 000000 141F          PUSHM.A   #2,r15                ; [] 
    2901                    .dwcfi  save_reg_to_mem, 15, -8
    2902                    .dwcfi  save_reg_to_mem, 14, -12
    2903                    .dwcfi  cfa_offset, 12
    2904                    .dwpsn  file "../src/ISR.c",line 432,column 3,is_stmt,isa 0
    2905 000002 421F          MOV.W     &UCB1IV+0,r15         ; [] |432| 
         000004 0000!
    2906 000006 822F          SUB.W     #4,r15                ; [] |432| 
    2907 000008 247A          JEQ       $C$L62                ; [] |432| 
    2908                                                      ; [] |432| 
    2909            ;* --------------------------------------------------------------------------*
    2910 00000a 832F          SUB.W     #2,r15                ; [] |432| 
    2911 00000c 246F          JEQ       $C$L61                ; [] |432| 
    2912                                                      ; [] |432| 
    2913            ;* --------------------------------------------------------------------------*
    2914 00000e 832F          SUB.W     #2,r15                ; [] |432| 
    2915 000010 246A          JEQ       $C$L60                ; [] |432| 
    2916                                                      ; [] |432| 
    2917            ;* --------------------------------------------------------------------------*
    2918 000012 832F          SUB.W     #2,r15                ; [] |432| 
    2919 000014 2425          JEQ       $C$L55                ; [] |432| 
MSP430 Assembler PC v21.6.1 Tue Dec 20 14:10:54 2022

Copyright (c) 2003-2018 Texas Instruments Incorporated
ISR.asm                                                              PAGE   56

    2920                                                      ; [] |432| 
    2921            ;* --------------------------------------------------------------------------*
    2922 000016 832F          SUB.W     #2,r15                ; [] |432| 
    2923 000018 2073          JNE       $C$L63                ; [] |432| 
    2924                                                      ; [] |432| 
    2925            ;* --------------------------------------------------------------------------*
    2926                    .dwpsn  file "../src/ISR.c",line 487,column 5,is_stmt,isa 0
    2927 00001a 93C2          TST.B     &TXByteCtrB1+0        ; [] |487| 
         00001c 0000!
    2928 00001e 200F          JNE       $C$L54                ; [] |487| 
    2929                                                      ; [] |487| 
    2930            ;* --------------------------------------------------------------------------*
    2931                    .dwpsn  file "../src/ISR.c",line 495,column 7,is_stmt,isa 0
    2932                    ; Begin 50 cycle delay
    2933                    .newblock
    2934 000020 140D          PUSHM.A  #1, r13
    2935 000022 403D          MOV.W    #13, r13
         000024 000D 
    2936 000026 831D  $1:     SUB.W    #1, r13
    2937 000028 23FE          JNE      $1
    2938 00002a 160D          POPM.A   #1, r13
    2939 00002c 4303          NOP
    2940                    ; End 50 cycle delay ; [] |495| 
    2941                    .dwpsn  file "../src/ISR.c",line 496,column 7,is_stmt,isa 0
    2942 00002e D2E2          OR.B      #4,&UCB1CTLW0_L+0     ; [] |496| 
         000030 0000!
    2943                    .dwpsn  file "../src/ISR.c",line 497,column 7,is_stmt,isa 0
    2944 000032 C3E2          BIC.B     #2,&UCB1ICTL_H+0      ; [] |497| 
         000034 0000!
    2945                    .dwpsn  file "../src/ISR.c",line 499,column 7,is_stmt,isa 0
    2946 000036 C0B1          BIC.W     #16,8(SP)             ; [] |499| 
         000038 0010 
         00003a 0008 
    2947 00003c 3C61          JMP       $C$L63                ; [] |499| 
    2948                                                      ; [] |499| 
    2949            ;* --------------------------------------------------------------------------*
    2950 00003e       $C$L54:    
    2951                    .dwpsn  file "../src/ISR.c",line 489,column 7,is_stmt,isa 0
    2952                    ; Begin 50 cycle delay
    2953                    .newblock
    2954 00003e 140D          PUSHM.A  #1, r13
    2955 000040 403D          MOV.W    #13, r13
         000042 000D 
    2956 000044 831D  $1:     SUB.W    #1, r13
    2957 000046 23FE          JNE      $1
    2958 000048 160D          POPM.A   #1, r13
    2959 00004a 4303          NOP
    2960                    ; End 50 cycle delay ; [] |489| 
    2961                    .dwpsn  file "../src/ISR.c",line 490,column 7,is_stmt,isa 0
    2962 00004c 002F!         MOVX.A    &PTxB1Data+0,r15      ; [] |490| 
         00004e 0000 
    2963 000050 4F7E          MOV.B     @r15+,r14             ; [] |490| 
    2964 000052 0F60!         MOVX.A    r15,&PTxB1Data+0      ; [] |490| 
         000054 0000 
    2965 000056 4EC2          MOV.B     r14,&UCB1TXBUF+0      ; [] |490| 
MSP430 Assembler PC v21.6.1 Tue Dec 20 14:10:54 2022

Copyright (c) 2003-2018 Texas Instruments Incorporated
ISR.asm                                                              PAGE   57

         000058 0000!
    2966                    .dwpsn  file "../src/ISR.c",line 491,column 7,is_stmt,isa 0
    2967 00005a 83D2          SUB.B     #1,&TXByteCtrB1+0     ; [] |491| 
         00005c 0000!
    2968 00005e 3C50          JMP       $C$L63                ; [] 
    2969                                                      ; [] 
    2970            ;* --------------------------------------------------------------------------*
    2971 000060       $C$L55:    
    2972                    .dwpsn  file "../src/ISR.c",line 448,column 4,is_stmt,isa 0
    2973 000060 002E!         MOVX.A    &PRxB1Data+0,r14      ; [] |448| 
         000062 0000 
    2974 000064 0ECF          MOVA      r14,r15               ; [] |448| 
    2975 000066 00AF          ADDA      #1,r15                ; [] |448| 
         000068 0001 
    2976 00006a 0F60!         MOVX.A    r15,&PRxB1Data+0      ; [] |448| 
         00006c 0000 
    2977 00006e 42DE          MOV.B     &UCB1RXBUF+0,0(r14)   ; [] |448| 
         000070 0000!
         000072 0000 
    2978                    .dwpsn  file "../src/ISR.c",line 449,column 5,is_stmt,isa 0
    2979 000074 53D2          ADD.B     #1,&RXByteCtrB1+0     ; [] |449| 
         000076 0000!
    2980                    .dwpsn  file "../src/ISR.c",line 451,column 2,is_stmt,isa 0
    2981 000078 1800!         MOVX.A    #TxB1Data+0,&PTxB1Data+0 ; [] |451| 
         00007a 40F2 
         00007c 0000 
         00007e 0000 
    2982                    .dwpsn  file "../src/ISR.c",line 456,column 7,is_stmt,isa 0
    2983 000080 93C2          TST.B     &RXByteCtrB1+0        ; [] |456| 
         000082 0000!
    2984 000084 242A          JEQ       $C$L59                ; [] |456| 
    2985                                                      ; [] |456| 
    2986            ;* --------------------------------------------------------------------------*
    2987 000086 425F          MOV.B     &UCB1RXBUF+0,r15      ; [] |456| 
         000088 0000!
    2988 00008a 823F          SUB.W     #8,r15                ; [] |456| 
    2989 00008c 2418          JEQ       $C$L57                ; [] |456| 
    2990                                                      ; [] |456| 
    2991            ;* --------------------------------------------------------------------------*
    2992 00008e 831F          SUB.W     #1,r15                ; [] |456| 
    2993 000090 240E          JEQ       $C$L56                ; [] |456| 
    2994                                                      ; [] |456| 
    2995            ;* --------------------------------------------------------------------------*
    2996 000092 831F          SUB.W     #1,r15                ; [] |456| 
    2997 000094 201C          JNE       $C$L58                ; [] |456| 
    2998                                                      ; [] |456| 
    2999            ;* --------------------------------------------------------------------------*
    3000                    .dwpsn  file "../src/ISR.c",line 470,column 14,is_stmt,isa 0
    3001 000096 43E2          MOV.B     #2,&TXByteCtrB1+0     ; [] |470| 
         000098 0000!
    3002                    .dwpsn  file "../src/ISR.c",line 471,column 14,is_stmt,isa 0
    3003 00009a 40B2          MOV.W     #80,&Out_A+0          ; [] |471| 
         00009c 0050 
         00009e 0000!
    3004                    .dwpsn  file "../src/ISR.c",line 472,column 14,is_stmt,isa 0
MSP430 Assembler PC v21.6.1 Tue Dec 20 14:10:54 2022

Copyright (c) 2003-2018 Texas Instruments Incorporated
ISR.asm                                                              PAGE   58

    3005 0000a0 42D2          MOV.B     &Out_A+0,&TxB1Data+0  ; [] |472| 
         0000a2 0000!
         0000a4 0000!
    3006                    .dwpsn  file "../src/ISR.c",line 473,column 14,is_stmt,isa 0
    3007 0000a6 42D2          MOV.B     &Out_A+1,&TxB1Data+1  ; [] |473| 
         0000a8 0001!
         0000aa 0001!
    3008                    .dwpsn  file "../src/ISR.c",line 474,column 12,is_stmt,isa 0
    3009 0000ac 3C10          JMP       $C$L58                ; [] |474| 
    3010                                                      ; [] |474| 
    3011            ;* --------------------------------------------------------------------------*
    3012 0000ae       $C$L56:    
    3013                    .dwpsn  file "../src/ISR.c",line 465,column 14,is_stmt,isa 0
    3014 0000ae 43E2          MOV.B     #2,&TXByteCtrB1+0     ; [] |465| 
         0000b0 0000!
    3015                    .dwpsn  file "../src/ISR.c",line 466,column 14,is_stmt,isa 0
    3016 0000b2 40F2          MOV.B     #168,&TxB1Data+0      ; [] |466| 
         0000b4 00A8 
         0000b6 0000!
    3017                    .dwpsn  file "../src/ISR.c",line 467,column 14,is_stmt,isa 0
    3018 0000b8 43C2          MOV.B     #0,&TxB1Data+1        ; [] |467| 
         0000ba 0001!
    3019                    .dwpsn  file "../src/ISR.c",line 468,column 12,is_stmt,isa 0
    3020 0000bc 3C08          JMP       $C$L58                ; [] |468| 
    3021                                                      ; [] |468| 
    3022            ;* --------------------------------------------------------------------------*
    3023 0000be       $C$L57:    
    3024                    .dwpsn  file "../src/ISR.c",line 459,column 15,is_stmt,isa 0
    3025 0000be 4392          MOV.W     #1,&AmbTemp+0         ; [] |459| 
         0000c0 0000!
    3026                    .dwpsn  file "../src/ISR.c",line 460,column 15,is_stmt,isa 0
    3027 0000c2 43E2          MOV.B     #2,&TXByteCtrB1+0     ; [] |460| 
         0000c4 0000!
    3028                    .dwpsn  file "../src/ISR.c",line 461,column 14,is_stmt,isa 0
    3029 0000c6 43D2          MOV.B     #1,&TxB1Data+0        ; [] |461| 
         0000c8 0000!
    3030                    .dwpsn  file "../src/ISR.c",line 462,column 14,is_stmt,isa 0
    3031 0000ca 43D2          MOV.B     #1,&TxB1Data+1        ; [] |462| 
         0000cc 0001!
    3032            ;* --------------------------------------------------------------------------*
    3033 0000ce       $C$L58:    
    3034                    .dwpsn  file "../src/ISR.c",line 478,column 7,is_stmt,isa 0
    3035 0000ce 93D2          CMP.B     #1,&RXByteCtrB1+0     ; [] |478| 
         0000d0 0000!
    3036 0000d2 2016          JNE       $C$L63                ; [] |478| 
    3037                                                      ; [] |478| 
    3038            ;* --------------------------------------------------------------------------*
    3039                    .dwpsn  file "../src/ISR.c",line 479,column 9,is_stmt,isa 0
    3040 0000d4 D2E2          OR.B      #4,&UCB1CTLW0_L+0     ; [] |479| 
         0000d6 0000!
    3041 0000d8 3C13          JMP       $C$L63                ; [] |479| 
    3042                                                      ; [] |479| 
    3043            ;* --------------------------------------------------------------------------*
    3044 0000da       $C$L59:    
    3045                    .dwpsn  file "../src/ISR.c",line 483,column 7,is_stmt,isa 0
MSP430 Assembler PC v21.6.1 Tue Dec 20 14:10:54 2022

Copyright (c) 2003-2018 Texas Instruments Incorporated
ISR.asm                                                              PAGE   59

    3046 0000da 002F!         MOVX.A    &PRxB1Data+0,r15      ; [] |483| 
         0000dc 0000 
    3047 0000de 42DF          MOV.B     &UCB1RXBUF+0,0(r15)   ; [] |483| 
         0000e0 0000!
         0000e2 0000 
    3048 0000e4 3C0D          JMP       $C$L63                ; [] |483| 
    3049                                                      ; [] |483| 
    3050            ;* --------------------------------------------------------------------------*
    3051 0000e6       $C$L60:    
    3052                    .dwpsn  file "../src/ISR.c",line 445,column 5,is_stmt,isa 0
    3053 0000e6 C2F2          BIC.B     #8,&UCB1ICTL_H+0      ; [] |445| 
         0000e8 0000!
    3054                    .dwpsn  file "../src/ISR.c",line 446,column 5,is_stmt,isa 0
    3055 0000ea 3C0A          JMP       $C$L63                ; [] |446| 
    3056                                                      ; [] |446| 
    3057            ;* --------------------------------------------------------------------------*
    3058 0000ec       $C$L61:    
    3059                    .dwpsn  file "../src/ISR.c",line 440,column 5,is_stmt,isa 0
    3060 0000ec C2E2          BIC.B     #4,&UCB1ICTL_H+0      ; [] |440| 
         0000ee 0000!
    3061                    .dwpsn  file "../src/ISR.c",line 441,column 5,is_stmt,isa 0
    3062 0000f0 1800!         MOVX.A    #RXmsg+0,&PRxB1Data+0 ; [] |441| 
         0000f2 40F2 
         0000f4 0000 
         0000f6 0000 
    3063                    .dwpsn  file "../src/ISR.c",line 442,column 5,is_stmt,isa 0
    3064 0000f8 43C2          MOV.B     #0,&RXByteCtrB1+0     ; [] |442| 
         0000fa 0000!
    3065                    .dwpsn  file "../src/ISR.c",line 443,column 5,is_stmt,isa 0
    3066 0000fc 3C01          JMP       $C$L63                ; [] |443| 
    3067                                                      ; [] |443| 
    3068            ;* --------------------------------------------------------------------------*
    3069 0000fe       $C$L62:    
    3070                    .dwpsn  file "../src/ISR.c",line 437,column 5,is_stmt,isa 0
    3071 0000fe 4303          NOP       ; [] |437| 
    3072            ;* --------------------------------------------------------------------------*
    3073 000100       $C$L63:    
    3074                    .dwpsn  file "../src/ISR.c",line 503,column 1,is_stmt,isa 0
    3075 000100 161E          POPM.A    #2,r15                ; [] 
    3076                    .dwcfi  restore_reg, 14
    3077                    .dwcfi  restore_reg, 15
    3078                    .dwcfi  cfa_offset, 4
    3079            $C$DW$150       .dwtag  DW_TAG_TI_branch
    3080                    .dwattr $C$DW$150, DW_AT_low_pc(0x00)
    3081                    .dwattr $C$DW$150, DW_AT_TI_return
    3082            
    3083 000102 1300          RETI      ; [] 
    3084                    ; [] 
    3085                    .dwattr $C$DW$149, DW_AT_TI_end_file("../src/ISR.c")
    3086                    .dwattr $C$DW$149, DW_AT_TI_end_line(0x1f7)
    3087                    .dwattr $C$DW$149, DW_AT_TI_end_column(0x01)
    3088                    .dwendentry
    3089                    .dwendtag $C$DW$149
    3090            
    3091 000000               .sect   ".text:_isr:USCI_B0_ISR"
MSP430 Assembler PC v21.6.1 Tue Dec 20 14:10:54 2022

Copyright (c) 2003-2018 Texas Instruments Incorporated
ISR.asm                                                              PAGE   60

    3092                    .clink
    3093                    .global USCI_B0_ISR
    3094            
    3095            $C$DW$151       .dwtag  DW_TAG_subprogram
    3096                    .dwattr $C$DW$151, DW_AT_name("USCI_B0_ISR")
    3097                    .dwattr $C$DW$151, DW_AT_low_pc(USCI_B0_ISR)
    3098                    .dwattr $C$DW$151, DW_AT_high_pc(0x00)
    3099                    .dwattr $C$DW$151, DW_AT_TI_symbol_name("USCI_B0_ISR")
    3100                    .dwattr $C$DW$151, DW_AT_external
    3101                    .dwattr $C$DW$151, DW_AT_TI_begin_file("../src/ISR.c")
    3102                    .dwattr $C$DW$151, DW_AT_TI_begin_line(0x11e)
    3103                    .dwattr $C$DW$151, DW_AT_TI_begin_column(0x12)
    3104                    .dwattr $C$DW$151, DW_AT_decl_file("../src/ISR.c")
    3105                    .dwattr $C$DW$151, DW_AT_decl_line(0x11e)
    3106                    .dwattr $C$DW$151, DW_AT_decl_column(0x12)
    3107                    .dwattr $C$DW$151, DW_AT_TI_interrupt
    3108                    .dwattr $C$DW$151, DW_AT_TI_max_frame_size(0x18)
    3109                    .dwpsn  file "../src/ISR.c",line 287,column 1,is_stmt,address USCI_B0_ISR,isa 0
    3110            
    3111                    .dwfde $C$DW$CIE, USCI_B0_ISR
    3112            
    3113            ;*****************************************************************************
    3114            ;* FUNCTION NAME: USCI_B0_ISR                                                *
    3115            ;*                                                                           *
    3116            ;*   Regs Modified     : SP,SR,r11,r12,r13,r14,r15                           *
    3117            ;*   Regs Used         : SP,SR,r11,r12,r13,r14,r15                           *
    3118            ;*   Local Frame Size  : 0 Args + 0 Auto + 20 Save = 20 byte                 *
    3119            ;*****************************************************************************
    3120 000000       USCI_B0_ISR:
    3121            ;* --------------------------------------------------------------------------*
    3122                    .dwcfi  cfa_offset, 4
    3123                    .dwcfi  save_reg_to_mem, 16, -4
    3124 000000 144F          PUSHM.A   #5,r15                ; [] 
    3125                    .dwcfi  save_reg_to_mem, 15, -8
    3126                    .dwcfi  save_reg_to_mem, 14, -12
    3127                    .dwcfi  save_reg_to_mem, 13, -16
    3128                    .dwcfi  save_reg_to_mem, 12, -20
    3129                    .dwcfi  save_reg_to_mem, 11, -24
    3130                    .dwcfi  cfa_offset, 24
    3131                    .dwpsn  file "../src/ISR.c",line 290,column 3,is_stmt,isa 0
    3132 000002 421F          MOV.W     &UCB0IV+0,r15         ; [] |290| 
         000004 0000!
    3133 000006 930F          TST.W     r15                   ; [] |290| 
    3134 000008 24B9          JEQ       $C$L77                ; [] |290| 
    3135                                                      ; [] |290| 
    3136            ;* --------------------------------------------------------------------------*
    3137 00000a 832F          SUB.W     #2,r15                ; [] |290| 
    3138 00000c 24B5          JEQ       $C$L76                ; [] |290| 
    3139                                                      ; [] |290| 
    3140            ;* --------------------------------------------------------------------------*
    3141 00000e 832F          SUB.W     #2,r15                ; [] |290| 
    3142 000010 24AE          JEQ       $C$L75                ; [] |290| 
    3143                                                      ; [] |290| 
    3144            ;* --------------------------------------------------------------------------*
    3145 000012 832F          SUB.W     #2,r15                ; [] |290| 
MSP430 Assembler PC v21.6.1 Tue Dec 20 14:10:54 2022

Copyright (c) 2003-2018 Texas Instruments Incorporated
ISR.asm                                                              PAGE   61

    3146 000014 248D          JEQ       $C$L73                ; [] |290| 
    3147                                                      ; [] |290| 
    3148            ;* --------------------------------------------------------------------------*
    3149 000016 822F          SUB.W     #4,r15                ; [] |290| 
    3150 000018 241D          JEQ       $C$L65                ; [] |290| 
    3151                                                      ; [] |290| 
    3152            ;* --------------------------------------------------------------------------*
    3153 00001a 832F          SUB.W     #2,r15                ; [] |290| 
    3154 00001c 20B0          JNE       $C$L78                ; [] |290| 
    3155                                                      ; [] |290| 
    3156            ;* --------------------------------------------------------------------------*
    3157                    .dwpsn  file "../src/ISR.c",line 400,column 7,is_stmt,isa 0
    3158 00001e 93C2          TST.B     &TXByteCtrB0+0        ; [] |400| 
         000020 0000!
    3159 000022 200E          JNE       $C$L64                ; [] |400| 
    3160                                                      ; [] |400| 
    3161            ;* --------------------------------------------------------------------------*
    3162                    .dwpsn  file "../src/ISR.c",line 407,column 9,is_stmt,isa 0
    3163 000024 43C2          MOV.B     #0,&CommandByte+0     ; [] |407| 
         000026 0000!
    3164                    .dwpsn  file "../src/ISR.c",line 408,column 9,is_stmt,isa 0
    3165 000028 43C2          MOV.B     #0,&command+0         ; [] |408| 
         00002a 0000!
    3166                    .dwpsn  file "../src/ISR.c",line 409,column 9,is_stmt,isa 0
    3167 00002c 43C2          MOV.B     #0,&read+0            ; [] |409| 
         00002e 0000!
    3168                    .dwpsn  file "../src/ISR.c",line 410,column 9,is_stmt,isa 0
    3169 000030 D2E2          OR.B      #4,&UCB0CTLW0_L+0     ; [] |410| 
         000032 0000!
    3170                    .dwpsn  file "../src/ISR.c",line 412,column 9,is_stmt,isa 0
    3171 000034 C3E2          BIC.B     #2,&UCB0ICTL_H+0      ; [] |412| 
         000036 0000!
    3172                    .dwpsn  file "../src/ISR.c",line 414,column 9,is_stmt,isa 0
    3173 000038 C0B1          BIC.W     #16,20(SP)            ; [] |414| 
         00003a 0010 
         00003c 0014 
    3174 00003e 3C9F          JMP       $C$L78                ; [] |414| 
    3175                                                      ; [] |414| 
    3176            ;* --------------------------------------------------------------------------*
    3177 000040       $C$L64:    
    3178                    .dwpsn  file "../src/ISR.c",line 402,column 9,is_stmt,isa 0
    3179 000040 002F!         MOVX.A    &PTxB0Data+0,r15      ; [] |402| 
         000042 0000 
    3180 000044 4F7E          MOV.B     @r15+,r14             ; [] |402| 
    3181 000046 0F60!         MOVX.A    r15,&PTxB0Data+0      ; [] |402| 
         000048 0000 
    3182 00004a 4EC2          MOV.B     r14,&UCB0TXBUF+0      ; [] |402| 
         00004c 0000!
    3183                    .dwpsn  file "../src/ISR.c",line 403,column 9,is_stmt,isa 0
    3184 00004e 83D2          SUB.B     #1,&TXByteCtrB0+0     ; [] |403| 
         000050 0000!
    3185 000052 3C95          JMP       $C$L78                ; [] 
    3186                                                      ; [] 
    3187            ;* --------------------------------------------------------------------------*
    3188 000054       $C$L65:    
MSP430 Assembler PC v21.6.1 Tue Dec 20 14:10:54 2022

Copyright (c) 2003-2018 Texas Instruments Incorporated
ISR.asm                                                              PAGE   62

    3189                    .dwpsn  file "../src/ISR.c",line 333,column 7,is_stmt,isa 0
    3190 000054 83D2          SUB.B     #1,&RXByteCtrB0+0     ; [] |333| 
         000056 0000!
    3191                    .dwpsn  file "../src/ISR.c",line 334,column 7,is_stmt,isa 0
    3192 000058 5392          ADD.W     #1,&byteCount+0       ; [] |334| 
         00005a 0000!
    3193                    .dwpsn  file "../src/ISR.c",line 335,column 7,is_stmt,isa 0
    3194 00005c 5392          ADD.W     #1,&cnt+0             ; [] |335| 
         00005e 0000!
    3195                    .dwpsn  file "../src/ISR.c",line 336,column 7,is_stmt,isa 0
    3196 000060 93C2          TST.B     &RXByteCtrB0+0        ; [] |336| 
         000062 0000!
    3197 000064 2457          JEQ       $C$L72                ; [] |336| 
    3198                                                      ; [] |336| 
    3199            ;* --------------------------------------------------------------------------*
    3200                    .dwpsn  file "../src/ISR.c",line 338,column 9,is_stmt,isa 0
    3201 000066 42D2          MOV.B     &UCB0RXBUF+0,&RXByte+0 ; [] |338| 
         000068 0000!
         00006a 0000!
    3202                    .dwpsn  file "../src/ISR.c",line 345,column 9,is_stmt,isa 0
    3203 00006c 002E!         MOVX.A    &PRxB0Data+0,r14      ; [] |345| 
         00006e 0000 
    3204 000070 0ECF          MOVA      r14,r15               ; [] |345| 
    3205 000072 00AF          ADDA      #1,r15                ; [] |345| 
         000074 0001 
    3206 000076 0F60!         MOVX.A    r15,&PRxB0Data+0      ; [] |345| 
         000078 0000 
    3207 00007a 42DE          MOV.B     &RXByte+0,0(r14)      ; [] |345| 
         00007c 0000!
         00007e 0000 
    3208                    .dwpsn  file "../src/ISR.c",line 347,column 9,is_stmt,isa 0
    3209 000080 90F2          CMP.B     #238,&RXmsg+0         ; [] |347| 
         000082 00EE 
         000084 0000!
    3210 000086 2005          JNE       $C$L66                ; [] |347| 
    3211                                                      ; [] |347| 
    3212            ;* --------------------------------------------------------------------------*
    3213 000088 9392          CMP.W     #1,&byteCount+0       ; [] |347| 
         00008a 0000!
    3214 00008c 2002          JNE       $C$L66                ; [] |347| 
    3215                                                      ; [] |347| 
    3216            ;* --------------------------------------------------------------------------*
    3217                    .dwpsn  file "../src/ISR.c",line 347,column 48,is_stmt,isa 0
    3218 00008e 43E2          MOV.B     #2,&RXByteCtrB0+0     ; [] |347| 
         000090 0000!
    3219            ;* --------------------------------------------------------------------------*
    3220 000092       $C$L66:    
    3221                    .dwpsn  file "../src/ISR.c",line 348,column 9,is_stmt,isa 0
    3222 000092 90F2          CMP.B     #238,&RXmsg+0         ; [] |348| 
         000094 00EE 
         000096 0000!
    3223 000098 2019          JNE       $C$L69                ; [] |348| 
    3224                                                      ; [] |348| 
    3225            ;* --------------------------------------------------------------------------*
    3226 00009a 93A2          CMP.W     #2,&byteCount+0       ; [] |348| 
MSP430 Assembler PC v21.6.1 Tue Dec 20 14:10:54 2022

Copyright (c) 2003-2018 Texas Instruments Incorporated
ISR.asm                                                              PAGE   63

         00009c 0000!
    3227 00009e 2016          JNE       $C$L69                ; [] |348| 
    3228                                                      ; [] |348| 
    3229            ;* --------------------------------------------------------------------------*
    3230                    .dwpsn  file "../src/ISR.c",line 350,column 11,is_stmt,isa 0
    3231 0000a0 90F2          CMP.B     #42,&RXmsg+1          ; [] |350| 
         0000a2 002A 
         0000a4 0001!
    3232 0000a6 240F          JEQ       $C$L68                ; [] |350| 
    3233                                                      ; [] |350| 
    3234            ;* --------------------------------------------------------------------------*
    3235                    .dwpsn  file "../src/ISR.c",line 351,column 16,is_stmt,isa 0
    3236 0000a8 90F2          CMP.B     #34,&RXmsg+1          ; [] |351| 
         0000aa 0022 
         0000ac 0001!
    3237 0000ae 2407          JEQ       $C$L67                ; [] |351| 
    3238                                                      ; [] |351| 
    3239            ;* --------------------------------------------------------------------------*
    3240                    .dwpsn  file "../src/ISR.c",line 352,column 16,is_stmt,isa 0
    3241 0000b0 90F2          CMP.B     #43,&RXmsg+1          ; [] |352| 
         0000b2 002B 
         0000b4 0001!
    3242 0000b6 200A          JNE       $C$L69                ; [] |352| 
    3243                                                      ; [] |352| 
    3244            ;* --------------------------------------------------------------------------*
    3245                    .dwpsn  file "../src/ISR.c",line 352,column 37,is_stmt,isa 0
    3246 0000b8 43E2          MOV.B     #2,&RXByteCtrB0+0     ; [] |352| 
         0000ba 0000!
    3247 0000bc 3C07          JMP       $C$L69                ; [] |352| 
    3248                                                      ; [] |352| 
    3249            ;* --------------------------------------------------------------------------*
    3250 0000be       $C$L67:    
    3251                    .dwpsn  file "../src/ISR.c",line 351,column 37,is_stmt,isa 0
    3252 0000be 40F2          MOV.B     #10,&RXByteCtrB0+0    ; [] |351| 
         0000c0 000A 
         0000c2 0000!
    3253 0000c4 3C03          JMP       $C$L69                ; [] 
    3254                                                      ; [] 
    3255            ;* --------------------------------------------------------------------------*
    3256 0000c6       $C$L68:    
    3257                    .dwpsn  file "../src/ISR.c",line 350,column 32,is_stmt,isa 0
    3258 0000c6 40F2          MOV.B     #25,&RXByteCtrB0+0    ; [] |350| 
         0000c8 0019 
         0000ca 0000!
    3259            ;* --------------------------------------------------------------------------*
    3260 0000cc       $C$L69:    
    3261                    .dwpsn  file "../src/ISR.c",line 354,column 9,is_stmt,isa 0
    3262 0000cc 42D2          MOV.B     &RXmsg+0,&CommandByte+0 ; [] |354| 
         0000ce 0000!
         0000d0 0000!
    3263                    .dwpsn  file "../src/ISR.c",line 359,column 11,is_stmt,isa 0
    3264 0000d2 93C2          TST.B     &read+0               ; [] |359| 
         0000d4 0000!
    3265 0000d6 2010          JNE       $C$L71                ; [] |359| 
    3266                                                      ; [] |359| 
MSP430 Assembler PC v21.6.1 Tue Dec 20 14:10:54 2022

Copyright (c) 2003-2018 Texas Instruments Incorporated
ISR.asm                                                              PAGE   64

    3267            ;* --------------------------------------------------------------------------*
    3268 0000d8 9392          CMP.W     #1,&byteCount+0       ; [] |359| 
         0000da 0000!
    3269 0000dc 200D          JNE       $C$L71                ; [] |359| 
    3270                                                      ; [] |359| 
    3271            ;* --------------------------------------------------------------------------*
    3272 0000de 425F          MOV.B     &CommandByte+0,r15    ; [] |359| 
         0000e0 0000!
    3273 0000e2 831F          SUB.W     #1,r15                ; [] |359| 
    3274 0000e4 922F          CMP.W     #4,r15                ; [] |359| 
    3275 0000e6 2803          JLO       $C$L70                ; [] |359| 
    3276                                                      ; [] |359| 
    3277            ;* --------------------------------------------------------------------------*
    3278 0000e8 803F          SUB.W     #40,r15               ; [] |359| 
         0000ea 0028 
    3279 0000ec 2005          JNE       $C$L71                ; [] |359| 
    3280                                                      ; [] |359| 
    3281            ;* --------------------------------------------------------------------------*
    3282 0000ee       $C$L70:    
    3283                    .dwpsn  file "../src/ISR.c",line 366,column 15,is_stmt,isa 0
    3284 0000ee 40F2          MOV.B     #3,&RXByteCtrB0+0     ; [] |366| 
         0000f0 0003 
         0000f2 0000!
    3285                    .dwpsn  file "../src/ISR.c",line 367,column 15,is_stmt,isa 0
    3286 0000f4 43D2          MOV.B     #1,&command+0         ; [] |367| 
         0000f6 0000!
    3287            ;* --------------------------------------------------------------------------*
    3288 0000f8       $C$L71:    
    3289                    .dwpsn  file "../src/ISR.c",line 376,column 9,is_stmt,isa 0
    3290 0000f8 93D2          CMP.B     #1,&RXByteCtrB0+0     ; [] |376| 
         0000fa 0000!
    3291 0000fc 2040          JNE       $C$L78                ; [] |376| 
    3292                                                      ; [] |376| 
    3293            ;* --------------------------------------------------------------------------*
    3294                    .dwpsn  file "../src/ISR.c",line 378,column 11,is_stmt,isa 0
    3295 0000fe D2E2          OR.B      #4,&UCB0CTLW0_L+0     ; [] |378| 
         000100 0000!
    3296                    .dwpsn  file "../src/ISR.c",line 381,column 11,is_stmt,isa 0
    3297 000102 1800!         MOVX.A    #TxB0Data+0,&PTxB0Data+0 ; [] |381| 
         000104 40F2 
         000106 0000 
         000108 0000 
    3298                    .dwpsn  file "../src/ISR.c",line 384,column 11,is_stmt,isa 0
    3299            $C$DW$152       .dwtag  DW_TAG_TI_branch
    3300                    .dwattr $C$DW$152, DW_AT_low_pc(0x00)
    3301                    .dwattr $C$DW$152, DW_AT_name("SMBUSjump")
    3302                    .dwattr $C$DW$152, DW_AT_TI_call
    3303            
    3304 00010a 13B0!         CALLA     #SMBUSjump            ; [] |384| 
         00010c 0000 
    3305                                                      ; [] |384| 
    3306                    .dwpsn  file "../src/ISR.c",line 385,column 11,is_stmt,isa 0
    3307 00010e 43C2          MOV.B     #0,&CommandByte+0     ; [] |385| 
         000110 0000!
    3308 000112 3C35          JMP       $C$L78                ; [] |385| 
MSP430 Assembler PC v21.6.1 Tue Dec 20 14:10:54 2022

Copyright (c) 2003-2018 Texas Instruments Incorporated
ISR.asm                                                              PAGE   65

    3309                                                      ; [] |385| 
    3310            ;* --------------------------------------------------------------------------*
    3311 000114       $C$L72:    
    3312                    .dwpsn  file "../src/ISR.c",line 391,column 9,is_stmt,isa 0
    3313 000114 002F!         MOVX.A    &PRxB0Data+0,r15      ; [] |391| 
         000116 0000 
    3314 000118 42DF          MOV.B     &UCB0RXBUF+0,0(r15)   ; [] |391| 
         00011a 0000!
         00011c 0000 
    3315                    .dwpsn  file "../src/ISR.c",line 392,column 9,is_stmt,isa 0
    3316 00011e 1800!         MOVX.A    #TxB0Data+0,&PTxB0Data+0 ; [] |392| 
         000120 40F2 
         000122 0000 
         000124 0000 
    3317                    .dwpsn  file "../src/ISR.c",line 394,column 9,is_stmt,isa 0
    3318            $C$DW$153       .dwtag  DW_TAG_TI_branch
    3319                    .dwattr $C$DW$153, DW_AT_low_pc(0x00)
    3320                    .dwattr $C$DW$153, DW_AT_name("SMBUSjump")
    3321                    .dwattr $C$DW$153, DW_AT_TI_call
    3322            
    3323 000126 13B0!         CALLA     #SMBUSjump            ; [] |394| 
         000128 0000 
    3324                                                      ; [] |394| 
    3325                    .dwpsn  file "../src/ISR.c",line 395,column 9,is_stmt,isa 0
    3326 00012a 43C2          MOV.B     #0,&CommandByte+0     ; [] |395| 
         00012c 0000!
    3327 00012e 3C27          JMP       $C$L78                ; [] |395| 
    3328                                                      ; [] |395| 
    3329            ;* --------------------------------------------------------------------------*
    3330 000130       $C$L73:    
    3331                    .dwpsn  file "../src/ISR.c",line 304,column 7,is_stmt,isa 0
    3332 000130 C2E2          BIC.B     #4,&UCB0ICTL_H+0      ; [] |304| 
         000132 0000!
    3333                    .dwpsn  file "../src/ISR.c",line 305,column 7,is_stmt,isa 0
    3334 000134 1800!         MOVX.A    #RXmsg+0,&PRxB0Data+0 ; [] |305| 
         000136 40F2 
         000138 0000 
         00013a 0000 
    3335                    .dwpsn  file "../src/ISR.c",line 306,column 7,is_stmt,isa 0
    3336 00013c 1800!         MOVX.A    #TxB0Data+0,&PTxB0Data+0 ; [] |306| 
         00013e 40F2 
         000140 0000 
         000142 0000 
    3337                    .dwpsn  file "../src/ISR.c",line 308,column 7,is_stmt,isa 0
    3338 000144 43E2          MOV.B     #2,&RXByteCtrB0+0     ; [] |308| 
         000146 0000!
    3339                    .dwpsn  file "../src/ISR.c",line 309,column 7,is_stmt,isa 0
    3340 000148 4382          MOV.W     #0,&byteCount+0       ; [] |309| 
         00014a 0000!
    3341                    .dwpsn  file "../src/ISR.c",line 310,column 7,is_stmt,isa 0
    3342 00014c 4382          MOV.W     #0,&cnt+0             ; [] |310| 
         00014e 0000!
    3343                    .dwpsn  file "../src/ISR.c",line 311,column 7,is_stmt,isa 0
    3344 000150 43C2          MOV.B     #0,&command+0         ; [] |311| 
         000152 0000!
MSP430 Assembler PC v21.6.1 Tue Dec 20 14:10:54 2022

Copyright (c) 2003-2018 Texas Instruments Incorporated
ISR.asm                                                              PAGE   66

    3345                    .dwpsn  file "../src/ISR.c",line 312,column 7,is_stmt,isa 0
