MSP430 Assembler PC v21.6.1 Tue Dec 20 13:46:05 2022

Copyright (c) 2003-2018 Texas Instruments Incorporated
loadfollow.asm                                                       PAGE    1

       1            ;******************************************************************************
       2            ;* MSP430 G3 C/C++ Codegen                                              PC v21.6.1.LTS *
       3            ;* Date/Time created: Tue Dec 20 13:46:05 2022                                *
       4            ;******************************************************************************
       5                    .compiler_opts --abi=eabi --diag_wrap=off --hll_source=on --mem_model:code=large --mem_model:d
       6            
       7            $C$DW$CU        .dwtag  DW_TAG_compile_unit
       8                    .dwattr $C$DW$CU, DW_AT_name("../src/loadfollow.c")
       9                    .dwattr $C$DW$CU, DW_AT_producer("TI MSP430 G3 C/C++ Codegen PC v21.6.1.LTS Copyright (c) 2003
      10                    .dwattr $C$DW$CU, DW_AT_TI_version(0x01)
      11                    .dwattr $C$DW$CU, DW_AT_comp_dir("C:\Users\MCourson\workspace_v11\MZERO_HB50Board\Debug")
      12                    .global mode
      13                    .common mode,2,2
      14            $C$DW$1 .dwtag  DW_TAG_variable
      15                    .dwattr $C$DW$1, DW_AT_name("mode")
      16                    .dwattr $C$DW$1, DW_AT_TI_symbol_name("mode")
      17                    .dwattr $C$DW$1, DW_AT_location[DW_OP_addr mode]
      18                    .dwattr $C$DW$1, DW_AT_type(*$C$DW$T$54)
      19                    .dwattr $C$DW$1, DW_AT_external
      20                    .dwattr $C$DW$1, DW_AT_decl_file("C:/Users/MCourson/workspace_v11/MZERO_HB50Board/include/Main
      21                    .dwattr $C$DW$1, DW_AT_decl_line(0x65)
      22                    .dwattr $C$DW$1, DW_AT_decl_column(0x07)
      23            
      24                    .global FCState
      25                    .common FCState,2,2
      26            $C$DW$2 .dwtag  DW_TAG_variable
      27                    .dwattr $C$DW$2, DW_AT_name("FCState")
      28                    .dwattr $C$DW$2, DW_AT_TI_symbol_name("FCState")
      29                    .dwattr $C$DW$2, DW_AT_location[DW_OP_addr FCState]
      30                    .dwattr $C$DW$2, DW_AT_type(*$C$DW$T$56)
      31                    .dwattr $C$DW$2, DW_AT_external
      32                    .dwattr $C$DW$2, DW_AT_decl_file("C:/Users/MCourson/workspace_v11/MZERO_HB50Board/include/Main
      33                    .dwattr $C$DW$2, DW_AT_decl_line(0x6d)
      34                    .dwattr $C$DW$2, DW_AT_decl_column(0x0a)
      35            
      36                    .global msgstatus
      37                    .common msgstatus,2,2
      38            $C$DW$3 .dwtag  DW_TAG_variable
      39                    .dwattr $C$DW$3, DW_AT_name("msgstatus")
      40                    .dwattr $C$DW$3, DW_AT_TI_symbol_name("msgstatus")
      41                    .dwattr $C$DW$3, DW_AT_location[DW_OP_addr msgstatus]
      42                    .dwattr $C$DW$3, DW_AT_type(*$C$DW$T$58)
      43                    .dwattr $C$DW$3, DW_AT_external
      44                    .dwattr $C$DW$3, DW_AT_decl_file("C:/Users/MCourson/workspace_v11/MZERO_HB50Board/include/Main
      45                    .dwattr $C$DW$3, DW_AT_decl_line(0x7c)
      46                    .dwattr $C$DW$3, DW_AT_decl_column(0x0f)
      47            
      48                    .global status
      49                    .common status,2,2
      50            $C$DW$4 .dwtag  DW_TAG_variable
      51                    .dwattr $C$DW$4, DW_AT_name("status")
      52                    .dwattr $C$DW$4, DW_AT_TI_symbol_name("status")
      53                    .dwattr $C$DW$4, DW_AT_location[DW_OP_addr status]
      54                    .dwattr $C$DW$4, DW_AT_type(*$C$DW$T$60)
      55                    .dwattr $C$DW$4, DW_AT_external
MSP430 Assembler PC v21.6.1 Tue Dec 20 13:46:05 2022

Copyright (c) 2003-2018 Texas Instruments Incorporated
loadfollow.asm                                                       PAGE    2

      56                    .dwattr $C$DW$4, DW_AT_decl_file("C:/Users/MCourson/workspace_v11/MZERO_HB50Board/include/Main
      57                    .dwattr $C$DW$4, DW_AT_decl_line(0x83)
      58                    .dwattr $C$DW$4, DW_AT_decl_column(0x0e)
      59            
      60            $C$DW$5 .dwtag  DW_TAG_variable
      61                    .dwattr $C$DW$5, DW_AT_name("TC2_temp")
      62                    .dwattr $C$DW$5, DW_AT_TI_symbol_name("TC2_temp")
      63                    .dwattr $C$DW$5, DW_AT_type(*$C$DW$T$16)
      64                    .dwattr $C$DW$5, DW_AT_declaration
      65                    .dwattr $C$DW$5, DW_AT_external
      66                    .dwattr $C$DW$5, DW_AT_decl_file("../src/loadfollow.c")
      67                    .dwattr $C$DW$5, DW_AT_decl_line(0x16)
      68                    .dwattr $C$DW$5, DW_AT_decl_column(0x0e)
      69            
      70            $C$DW$6 .dwtag  DW_TAG_variable
      71                    .dwattr $C$DW$6, DW_AT_name("FC_Current")
      72                    .dwattr $C$DW$6, DW_AT_TI_symbol_name("FC_Current")
      73                    .dwattr $C$DW$6, DW_AT_type(*$C$DW$T$16)
      74                    .dwattr $C$DW$6, DW_AT_declaration
      75                    .dwattr $C$DW$6, DW_AT_external
      76                    .dwattr $C$DW$6, DW_AT_decl_file("../src/loadfollow.c")
      77                    .dwattr $C$DW$6, DW_AT_decl_line(0x18)
      78                    .dwattr $C$DW$6, DW_AT_decl_column(0x0e)
      79            
      80            $C$DW$7 .dwtag  DW_TAG_variable
      81                    .dwattr $C$DW$7, DW_AT_name("O2_util")
      82                    .dwattr $C$DW$7, DW_AT_TI_symbol_name("O2_util")
      83                    .dwattr $C$DW$7, DW_AT_type(*$C$DW$T$16)
      84                    .dwattr $C$DW$7, DW_AT_declaration
      85                    .dwattr $C$DW$7, DW_AT_external
      86                    .dwattr $C$DW$7, DW_AT_decl_file("../src/loadfollow.c")
      87                    .dwattr $C$DW$7, DW_AT_decl_line(0x1c)
      88                    .dwattr $C$DW$7, DW_AT_decl_column(0x0e)
      89            
      90            $C$DW$8 .dwtag  DW_TAG_variable
      91                    .dwattr $C$DW$8, DW_AT_name("main_fuel_flow")
      92                    .dwattr $C$DW$8, DW_AT_TI_symbol_name("main_fuel_flow")
      93                    .dwattr $C$DW$8, DW_AT_type(*$C$DW$T$16)
      94                    .dwattr $C$DW$8, DW_AT_declaration
      95                    .dwattr $C$DW$8, DW_AT_external
      96                    .dwattr $C$DW$8, DW_AT_decl_file("../src/loadfollow.c")
      97                    .dwattr $C$DW$8, DW_AT_decl_line(0x24)
      98                    .dwattr $C$DW$8, DW_AT_decl_column(0x0e)
      99            
     100            $C$DW$9 .dwtag  DW_TAG_variable
     101                    .dwattr $C$DW$9, DW_AT_name("Tset")
     102                    .dwattr $C$DW$9, DW_AT_TI_symbol_name("Tset")
     103                    .dwattr $C$DW$9, DW_AT_type(*$C$DW$T$10)
     104                    .dwattr $C$DW$9, DW_AT_declaration
     105                    .dwattr $C$DW$9, DW_AT_external
     106                    .dwattr $C$DW$9, DW_AT_decl_file("../src/loadfollow.c")
     107                    .dwattr $C$DW$9, DW_AT_decl_line(0x25)
     108                    .dwattr $C$DW$9, DW_AT_decl_column(0x0c)
     109            
     110            $C$DW$10        .dwtag  DW_TAG_variable
MSP430 Assembler PC v21.6.1 Tue Dec 20 13:46:05 2022

Copyright (c) 2003-2018 Texas Instruments Incorporated
loadfollow.asm                                                       PAGE    3

     111                    .dwattr $C$DW$10, DW_AT_name("main_fuel_flow_GUI")
     112                    .dwattr $C$DW$10, DW_AT_TI_symbol_name("main_fuel_flow_GUI")
     113                    .dwattr $C$DW$10, DW_AT_type(*$C$DW$T$10)
     114                    .dwattr $C$DW$10, DW_AT_declaration
     115                    .dwattr $C$DW$10, DW_AT_external
     116                    .dwattr $C$DW$10, DW_AT_decl_file("../src/loadfollow.c")
     117                    .dwattr $C$DW$10, DW_AT_decl_line(0x26)
     118                    .dwattr $C$DW$10, DW_AT_decl_column(0x0c)
     119            
     120                    .global old_fuel_flow
     121                    .common old_fuel_flow,4,2
     122            $C$DW$11        .dwtag  DW_TAG_variable
     123                    .dwattr $C$DW$11, DW_AT_name("old_fuel_flow")
     124                    .dwattr $C$DW$11, DW_AT_TI_symbol_name("old_fuel_flow")
     125                    .dwattr $C$DW$11, DW_AT_location[DW_OP_addr old_fuel_flow]
     126                    .dwattr $C$DW$11, DW_AT_type(*$C$DW$T$16)
     127                    .dwattr $C$DW$11, DW_AT_external
     128                    .dwattr $C$DW$11, DW_AT_decl_file("../src/loadfollow.c")
     129                    .dwattr $C$DW$11, DW_AT_decl_line(0x35)
     130                    .dwattr $C$DW$11, DW_AT_decl_column(0x07)
     131            
     132                    .global O2_Cons
     133                    .common O2_Cons,4,2
     134            $C$DW$12        .dwtag  DW_TAG_variable
     135                    .dwattr $C$DW$12, DW_AT_name("O2_Cons")
     136                    .dwattr $C$DW$12, DW_AT_TI_symbol_name("O2_Cons")
     137                    .dwattr $C$DW$12, DW_AT_location[DW_OP_addr O2_Cons]
     138                    .dwattr $C$DW$12, DW_AT_type(*$C$DW$T$16)
     139                    .dwattr $C$DW$12, DW_AT_external
     140                    .dwattr $C$DW$12, DW_AT_decl_file("../src/loadfollow.c")
     141                    .dwattr $C$DW$12, DW_AT_decl_line(0x36)
     142                    .dwattr $C$DW$12, DW_AT_decl_column(0x07)
     143            
     144                    .global new_air_flow
     145                    .common new_air_flow,4,2
     146            $C$DW$13        .dwtag  DW_TAG_variable
     147                    .dwattr $C$DW$13, DW_AT_name("new_air_flow")
     148                    .dwattr $C$DW$13, DW_AT_TI_symbol_name("new_air_flow")
     149                    .dwattr $C$DW$13, DW_AT_location[DW_OP_addr new_air_flow]
     150                    .dwattr $C$DW$13, DW_AT_type(*$C$DW$T$16)
     151                    .dwattr $C$DW$13, DW_AT_external
     152                    .dwattr $C$DW$13, DW_AT_decl_file("../src/loadfollow.c")
     153                    .dwattr $C$DW$13, DW_AT_decl_line(0x37)
     154                    .dwattr $C$DW$13, DW_AT_decl_column(0x07)
     155            
     156                    .global O2_util_wanted
     157                    .common O2_util_wanted,4,2
     158            $C$DW$14        .dwtag  DW_TAG_variable
     159                    .dwattr $C$DW$14, DW_AT_name("O2_util_wanted")
     160                    .dwattr $C$DW$14, DW_AT_TI_symbol_name("O2_util_wanted")
     161                    .dwattr $C$DW$14, DW_AT_location[DW_OP_addr O2_util_wanted]
     162                    .dwattr $C$DW$14, DW_AT_type(*$C$DW$T$16)
     163                    .dwattr $C$DW$14, DW_AT_external
     164                    .dwattr $C$DW$14, DW_AT_decl_file("../src/loadfollow.c")
     165                    .dwattr $C$DW$14, DW_AT_decl_line(0x38)
MSP430 Assembler PC v21.6.1 Tue Dec 20 13:46:05 2022

Copyright (c) 2003-2018 Texas Instruments Incorporated
loadfollow.asm                                                       PAGE    4

     166                    .dwattr $C$DW$14, DW_AT_decl_column(0x07)
     167            
     168                    .global O2_util_desired
     169                    .common O2_util_desired,4,2
     170            $C$DW$15        .dwtag  DW_TAG_variable
     171                    .dwattr $C$DW$15, DW_AT_name("O2_util_desired")
     172                    .dwattr $C$DW$15, DW_AT_TI_symbol_name("O2_util_desired")
     173                    .dwattr $C$DW$15, DW_AT_location[DW_OP_addr O2_util_desired]
     174                    .dwattr $C$DW$15, DW_AT_type(*$C$DW$T$16)
     175                    .dwattr $C$DW$15, DW_AT_external
     176                    .dwattr $C$DW$15, DW_AT_decl_file("../src/loadfollow.c")
     177                    .dwattr $C$DW$15, DW_AT_decl_line(0x39)
     178                    .dwattr $C$DW$15, DW_AT_decl_column(0x07)
     179            
     180                    .global H2_util_wanted
     181                    .common H2_util_wanted,4,2
     182            $C$DW$16        .dwtag  DW_TAG_variable
     183                    .dwattr $C$DW$16, DW_AT_name("H2_util_wanted")
     184                    .dwattr $C$DW$16, DW_AT_TI_symbol_name("H2_util_wanted")
     185                    .dwattr $C$DW$16, DW_AT_location[DW_OP_addr H2_util_wanted]
     186                    .dwattr $C$DW$16, DW_AT_type(*$C$DW$T$16)
     187                    .dwattr $C$DW$16, DW_AT_external
     188                    .dwattr $C$DW$16, DW_AT_decl_file("../src/loadfollow.c")
     189                    .dwattr $C$DW$16, DW_AT_decl_line(0x3a)
     190                    .dwattr $C$DW$16, DW_AT_decl_column(0x07)
     191            
     192                    .global H2_util_desired
     193 000000               .data
     194                    .align  2
     195                    .elfsym H2_util_desired,SYM_SIZE(4)
     196 000000       H2_util_desired:
     197 000000 0000          .float          $strtod("0x0p+0")               ; H2_util_desired @ 0
         000002 0000 
     198            
     199            $C$DW$17        .dwtag  DW_TAG_variable
     200                    .dwattr $C$DW$17, DW_AT_name("H2_util_desired")
     201                    .dwattr $C$DW$17, DW_AT_TI_symbol_name("H2_util_desired")
     202                    .dwattr $C$DW$17, DW_AT_location[DW_OP_addr H2_util_desired]
     203                    .dwattr $C$DW$17, DW_AT_type(*$C$DW$T$16)
     204                    .dwattr $C$DW$17, DW_AT_external
     205                    .dwattr $C$DW$17, DW_AT_decl_file("../src/loadfollow.c")
     206                    .dwattr $C$DW$17, DW_AT_decl_line(0x3b)
     207                    .dwattr $C$DW$17, DW_AT_decl_column(0x07)
     208            
     209                    .global H2_ADJ
     210                    .common H2_ADJ,4,2
     211            $C$DW$18        .dwtag  DW_TAG_variable
     212                    .dwattr $C$DW$18, DW_AT_name("H2_ADJ")
     213                    .dwattr $C$DW$18, DW_AT_TI_symbol_name("H2_ADJ")
     214                    .dwattr $C$DW$18, DW_AT_location[DW_OP_addr H2_ADJ]
     215                    .dwattr $C$DW$18, DW_AT_type(*$C$DW$T$16)
     216                    .dwattr $C$DW$18, DW_AT_external
     217                    .dwattr $C$DW$18, DW_AT_decl_file("../src/loadfollow.c")
     218                    .dwattr $C$DW$18, DW_AT_decl_line(0x3d)
     219                    .dwattr $C$DW$18, DW_AT_decl_column(0x07)
MSP430 Assembler PC v21.6.1 Tue Dec 20 13:46:05 2022

Copyright (c) 2003-2018 Texas Instruments Incorporated
loadfollow.asm                                                       PAGE    5

     220            
     221                    .global old_air_flow
     222                    .common old_air_flow,4,2
     223            $C$DW$19        .dwtag  DW_TAG_variable
     224                    .dwattr $C$DW$19, DW_AT_name("old_air_flow")
     225                    .dwattr $C$DW$19, DW_AT_TI_symbol_name("old_air_flow")
     226                    .dwattr $C$DW$19, DW_AT_location[DW_OP_addr old_air_flow]
     227                    .dwattr $C$DW$19, DW_AT_type(*$C$DW$T$16)
     228                    .dwattr $C$DW$19, DW_AT_external
     229                    .dwattr $C$DW$19, DW_AT_decl_file("../src/loadfollow.c")
     230                    .dwattr $C$DW$19, DW_AT_decl_line(0x3e)
     231                    .dwattr $C$DW$19, DW_AT_decl_column(0x07)
     232            
     233                    .global power_ave
     234                    .common power_ave,4,2
     235            $C$DW$20        .dwtag  DW_TAG_variable
     236                    .dwattr $C$DW$20, DW_AT_name("power_ave")
     237                    .dwattr $C$DW$20, DW_AT_TI_symbol_name("power_ave")
     238                    .dwattr $C$DW$20, DW_AT_location[DW_OP_addr power_ave]
     239                    .dwattr $C$DW$20, DW_AT_type(*$C$DW$T$16)
     240                    .dwattr $C$DW$20, DW_AT_external
     241                    .dwattr $C$DW$20, DW_AT_decl_file("../src/loadfollow.c")
     242                    .dwattr $C$DW$20, DW_AT_decl_line(0x40)
     243                    .dwattr $C$DW$20, DW_AT_decl_column(0x07)
     244            
     245            $C$DW$21        .dwtag  DW_TAG_variable
     246                    .dwattr $C$DW$21, DW_AT_name("Hmax_desired")
     247                    .dwattr $C$DW$21, DW_AT_TI_symbol_name("Hmax_desired")
     248                    .dwattr $C$DW$21, DW_AT_type(*$C$DW$T$16)
     249                    .dwattr $C$DW$21, DW_AT_declaration
     250                    .dwattr $C$DW$21, DW_AT_external
     251                    .dwattr $C$DW$21, DW_AT_decl_file("../src/loadfollow.c")
     252                    .dwattr $C$DW$21, DW_AT_decl_line(0x47)
     253                    .dwattr $C$DW$21, DW_AT_decl_column(0x0e)
     254            
     255                    .global Hmax
     256                    .common Hmax,4,2
     257            $C$DW$22        .dwtag  DW_TAG_variable
     258                    .dwattr $C$DW$22, DW_AT_name("Hmax")
     259                    .dwattr $C$DW$22, DW_AT_TI_symbol_name("Hmax")
     260                    .dwattr $C$DW$22, DW_AT_location[DW_OP_addr Hmax]
     261                    .dwattr $C$DW$22, DW_AT_type(*$C$DW$T$16)
     262                    .dwattr $C$DW$22, DW_AT_external
     263                    .dwattr $C$DW$22, DW_AT_decl_file("../src/loadfollow.c")
     264                    .dwattr $C$DW$22, DW_AT_decl_line(0x4c)
     265                    .dwattr $C$DW$22, DW_AT_decl_column(0x07)
     266            
     267                    .global H2_Util_Max
     268 000004               .data
     269                    .align  2
     270                    .elfsym H2_Util_Max,SYM_SIZE(4)
     271 000004       H2_Util_Max:
     272 000004 0000          .float          $strtod("0x0p+0")               ; H2_Util_Max @ 0
         000006 0000 
     273            
MSP430 Assembler PC v21.6.1 Tue Dec 20 13:46:05 2022

Copyright (c) 2003-2018 Texas Instruments Incorporated
loadfollow.asm                                                       PAGE    6

     274            $C$DW$23        .dwtag  DW_TAG_variable
     275                    .dwattr $C$DW$23, DW_AT_name("H2_Util_Max")
     276                    .dwattr $C$DW$23, DW_AT_TI_symbol_name("H2_Util_Max")
     277                    .dwattr $C$DW$23, DW_AT_location[DW_OP_addr H2_Util_Max]
     278                    .dwattr $C$DW$23, DW_AT_type(*$C$DW$T$16)
     279                    .dwattr $C$DW$23, DW_AT_external
     280                    .dwattr $C$DW$23, DW_AT_decl_file("../src/loadfollow.c")
     281                    .dwattr $C$DW$23, DW_AT_decl_line(0x4e)
     282                    .dwattr $C$DW$23, DW_AT_decl_column(0x07)
     283            
     284                    .global H2_Util_Max_Setpoint
     285 000008               .data
     286                    .align  2
     287                    .elfsym H2_Util_Max_Setpoint,SYM_SIZE(4)
     288 000008       H2_Util_Max_Setpoint:
     289 000008 0000          .float          $strtod("0x0p+0")               ; H2_Util_Max_Setpoint @ 0
         00000a 0000 
     290            
     291            $C$DW$24        .dwtag  DW_TAG_variable
     292                    .dwattr $C$DW$24, DW_AT_name("H2_Util_Max_Setpoint")
     293                    .dwattr $C$DW$24, DW_AT_TI_symbol_name("H2_Util_Max_Setpoint")
     294                    .dwattr $C$DW$24, DW_AT_location[DW_OP_addr H2_Util_Max_Setpoint]
     295                    .dwattr $C$DW$24, DW_AT_type(*$C$DW$T$16)
     296                    .dwattr $C$DW$24, DW_AT_external
     297                    .dwattr $C$DW$24, DW_AT_decl_file("../src/loadfollow.c")
     298                    .dwattr $C$DW$24, DW_AT_decl_line(0x4f)
     299                    .dwattr $C$DW$24, DW_AT_decl_column(0x07)
     300            
     301                    .global FCPerror
     302                    .common FCPerror,4,2
     303            $C$DW$25        .dwtag  DW_TAG_variable
     304                    .dwattr $C$DW$25, DW_AT_name("FCPerror")
     305                    .dwattr $C$DW$25, DW_AT_TI_symbol_name("FCPerror")
     306                    .dwattr $C$DW$25, DW_AT_location[DW_OP_addr FCPerror]
     307                    .dwattr $C$DW$25, DW_AT_type(*$C$DW$T$16)
     308                    .dwattr $C$DW$25, DW_AT_external
     309                    .dwattr $C$DW$25, DW_AT_decl_file("../src/loadfollow.c")
     310                    .dwattr $C$DW$25, DW_AT_decl_line(0x51)
     311                    .dwattr $C$DW$25, DW_AT_decl_column(0x07)
     312            
     313                    .global FCPerror1
     314                    .common FCPerror1,4,2
     315            $C$DW$26        .dwtag  DW_TAG_variable
     316                    .dwattr $C$DW$26, DW_AT_name("FCPerror1")
     317                    .dwattr $C$DW$26, DW_AT_TI_symbol_name("FCPerror1")
     318                    .dwattr $C$DW$26, DW_AT_location[DW_OP_addr FCPerror1]
     319                    .dwattr $C$DW$26, DW_AT_type(*$C$DW$T$16)
     320                    .dwattr $C$DW$26, DW_AT_external
     321                    .dwattr $C$DW$26, DW_AT_decl_file("../src/loadfollow.c")
     322                    .dwattr $C$DW$26, DW_AT_decl_line(0x52)
     323                    .dwattr $C$DW$26, DW_AT_decl_column(0x07)
     324            
     325                    .global FCPerror2
     326                    .common FCPerror2,4,2
     327            $C$DW$27        .dwtag  DW_TAG_variable
MSP430 Assembler PC v21.6.1 Tue Dec 20 13:46:05 2022

Copyright (c) 2003-2018 Texas Instruments Incorporated
loadfollow.asm                                                       PAGE    7

     328                    .dwattr $C$DW$27, DW_AT_name("FCPerror2")
     329                    .dwattr $C$DW$27, DW_AT_TI_symbol_name("FCPerror2")
     330                    .dwattr $C$DW$27, DW_AT_location[DW_OP_addr FCPerror2]
     331                    .dwattr $C$DW$27, DW_AT_type(*$C$DW$T$16)
     332                    .dwattr $C$DW$27, DW_AT_external
     333                    .dwattr $C$DW$27, DW_AT_decl_file("../src/loadfollow.c")
     334                    .dwattr $C$DW$27, DW_AT_decl_line(0x53)
     335                    .dwattr $C$DW$27, DW_AT_decl_column(0x07)
     336            
     337                    .global pterm_FP
     338                    .common pterm_FP,4,2
     339            $C$DW$28        .dwtag  DW_TAG_variable
     340                    .dwattr $C$DW$28, DW_AT_name("pterm_FP")
     341                    .dwattr $C$DW$28, DW_AT_TI_symbol_name("pterm_FP")
     342                    .dwattr $C$DW$28, DW_AT_location[DW_OP_addr pterm_FP]
     343                    .dwattr $C$DW$28, DW_AT_type(*$C$DW$T$16)
     344                    .dwattr $C$DW$28, DW_AT_external
     345                    .dwattr $C$DW$28, DW_AT_decl_file("../src/loadfollow.c")
     346                    .dwattr $C$DW$28, DW_AT_decl_line(0x54)
     347                    .dwattr $C$DW$28, DW_AT_decl_column(0x07)
     348            
     349                    .global iterm_FP
     350                    .common iterm_FP,4,2
     351            $C$DW$29        .dwtag  DW_TAG_variable
     352                    .dwattr $C$DW$29, DW_AT_name("iterm_FP")
     353                    .dwattr $C$DW$29, DW_AT_TI_symbol_name("iterm_FP")
     354                    .dwattr $C$DW$29, DW_AT_location[DW_OP_addr iterm_FP]
     355                    .dwattr $C$DW$29, DW_AT_type(*$C$DW$T$16)
     356                    .dwattr $C$DW$29, DW_AT_external
     357                    .dwattr $C$DW$29, DW_AT_decl_file("../src/loadfollow.c")
     358                    .dwattr $C$DW$29, DW_AT_decl_line(0x55)
     359                    .dwattr $C$DW$29, DW_AT_decl_column(0x07)
     360            
     361                    .global dterm_FP
     362                    .common dterm_FP,4,2
     363            $C$DW$30        .dwtag  DW_TAG_variable
     364                    .dwattr $C$DW$30, DW_AT_name("dterm_FP")
     365                    .dwattr $C$DW$30, DW_AT_TI_symbol_name("dterm_FP")
     366                    .dwattr $C$DW$30, DW_AT_location[DW_OP_addr dterm_FP]
     367                    .dwattr $C$DW$30, DW_AT_type(*$C$DW$T$16)
     368                    .dwattr $C$DW$30, DW_AT_external
     369                    .dwattr $C$DW$30, DW_AT_decl_file("../src/loadfollow.c")
     370                    .dwattr $C$DW$30, DW_AT_decl_line(0x56)
     371                    .dwattr $C$DW$30, DW_AT_decl_column(0x07)
     372            
     373                    .global pid_Kp
     374                    .common pid_Kp,4,2
     375            $C$DW$31        .dwtag  DW_TAG_variable
     376                    .dwattr $C$DW$31, DW_AT_name("pid_Kp")
     377                    .dwattr $C$DW$31, DW_AT_TI_symbol_name("pid_Kp")
     378                    .dwattr $C$DW$31, DW_AT_location[DW_OP_addr pid_Kp]
     379                    .dwattr $C$DW$31, DW_AT_type(*$C$DW$T$16)
     380                    .dwattr $C$DW$31, DW_AT_external
     381                    .dwattr $C$DW$31, DW_AT_decl_file("../src/loadfollow.c")
     382                    .dwattr $C$DW$31, DW_AT_decl_line(0x57)
MSP430 Assembler PC v21.6.1 Tue Dec 20 13:46:05 2022

Copyright (c) 2003-2018 Texas Instruments Incorporated
loadfollow.asm                                                       PAGE    8

     383                    .dwattr $C$DW$31, DW_AT_decl_column(0x07)
     384            
     385                    .global pid_Ki
     386                    .common pid_Ki,4,2
     387            $C$DW$32        .dwtag  DW_TAG_variable
     388                    .dwattr $C$DW$32, DW_AT_name("pid_Ki")
     389                    .dwattr $C$DW$32, DW_AT_TI_symbol_name("pid_Ki")
     390                    .dwattr $C$DW$32, DW_AT_location[DW_OP_addr pid_Ki]
     391                    .dwattr $C$DW$32, DW_AT_type(*$C$DW$T$16)
     392                    .dwattr $C$DW$32, DW_AT_external
     393                    .dwattr $C$DW$32, DW_AT_decl_file("../src/loadfollow.c")
     394                    .dwattr $C$DW$32, DW_AT_decl_line(0x58)
     395                    .dwattr $C$DW$32, DW_AT_decl_column(0x07)
     396            
     397                    .global pid_Kd
     398                    .common pid_Kd,4,2
     399            $C$DW$33        .dwtag  DW_TAG_variable
     400                    .dwattr $C$DW$33, DW_AT_name("pid_Kd")
     401                    .dwattr $C$DW$33, DW_AT_TI_symbol_name("pid_Kd")
     402                    .dwattr $C$DW$33, DW_AT_location[DW_OP_addr pid_Kd]
     403                    .dwattr $C$DW$33, DW_AT_type(*$C$DW$T$16)
     404                    .dwattr $C$DW$33, DW_AT_external
     405                    .dwattr $C$DW$33, DW_AT_decl_file("../src/loadfollow.c")
     406                    .dwattr $C$DW$33, DW_AT_decl_line(0x59)
     407                    .dwattr $C$DW$33, DW_AT_decl_column(0x07)
     408            
     409                    .global pid_H2_ADJ
     410                    .common pid_H2_ADJ,4,2
     411            $C$DW$34        .dwtag  DW_TAG_variable
     412                    .dwattr $C$DW$34, DW_AT_name("pid_H2_ADJ")
     413                    .dwattr $C$DW$34, DW_AT_TI_symbol_name("pid_H2_ADJ")
     414                    .dwattr $C$DW$34, DW_AT_location[DW_OP_addr pid_H2_ADJ]
     415                    .dwattr $C$DW$34, DW_AT_type(*$C$DW$T$16)
     416                    .dwattr $C$DW$34, DW_AT_external
     417                    .dwattr $C$DW$34, DW_AT_decl_file("../src/loadfollow.c")
     418                    .dwattr $C$DW$34, DW_AT_decl_line(0x5a)
     419                    .dwattr $C$DW$34, DW_AT_decl_column(0x07)
     420            
     421                    .global p_steady
     422 00000c               .data
     423                    .align  2
     424                    .elfsym p_steady,SYM_SIZE(4)
     425 00000c       p_steady:
     426 00000c 0000          .float          $strtod("0x0p+0")               ; p_steady @ 0
         00000e 0000 
     427            
     428            $C$DW$35        .dwtag  DW_TAG_variable
     429                    .dwattr $C$DW$35, DW_AT_name("p_steady")
     430                    .dwattr $C$DW$35, DW_AT_TI_symbol_name("p_steady")
     431                    .dwattr $C$DW$35, DW_AT_location[DW_OP_addr p_steady]
     432                    .dwattr $C$DW$35, DW_AT_type(*$C$DW$T$16)
     433                    .dwattr $C$DW$35, DW_AT_external
     434                    .dwattr $C$DW$35, DW_AT_decl_file("../src/loadfollow.c")
     435                    .dwattr $C$DW$35, DW_AT_decl_line(0x5b)
     436                    .dwattr $C$DW$35, DW_AT_decl_column(0x07)
MSP430 Assembler PC v21.6.1 Tue Dec 20 13:46:05 2022

Copyright (c) 2003-2018 Texas Instruments Incorporated
loadfollow.asm                                                       PAGE    9

     437            
     438                    .global FCPerror_accumulated
     439 000010               .data
     440                    .align  2
     441                    .elfsym FCPerror_accumulated,SYM_SIZE(4)
     442 000010       FCPerror_accumulated:
     443 000010 0000          .float          $strtod("0x0p+0")               ; FCPerror_accumulated @ 0
         000012 0000 
     444            
     445            $C$DW$36        .dwtag  DW_TAG_variable
     446                    .dwattr $C$DW$36, DW_AT_name("FCPerror_accumulated")
     447                    .dwattr $C$DW$36, DW_AT_TI_symbol_name("FCPerror_accumulated")
     448                    .dwattr $C$DW$36, DW_AT_location[DW_OP_addr FCPerror_accumulated]
     449                    .dwattr $C$DW$36, DW_AT_type(*$C$DW$T$16)
     450                    .dwattr $C$DW$36, DW_AT_external
     451                    .dwattr $C$DW$36, DW_AT_decl_file("../src/loadfollow.c")
     452                    .dwattr $C$DW$36, DW_AT_decl_line(0x5c)
     453                    .dwattr $C$DW$36, DW_AT_decl_column(0x07)
     454            
     455                    .global FCPerror_accumulated_limit
     456 000014               .data
     457                    .align  2
     458                    .elfsym FCPerror_accumulated_limit,SYM_SIZE(4)
     459 000014       FCPerror_accumulated_limit:
     460 000014 0000          .float          $strtod("0x1.9p+6")             ; FCPerror_accumulated_limit @ 0
         000016 42C8 
     461            
     462            $C$DW$37        .dwtag  DW_TAG_variable
     463                    .dwattr $C$DW$37, DW_AT_name("FCPerror_accumulated_limit")
     464                    .dwattr $C$DW$37, DW_AT_TI_symbol_name("FCPerror_accumulated_limit")
     465                    .dwattr $C$DW$37, DW_AT_location[DW_OP_addr FCPerror_accumulated_limit]
     466                    .dwattr $C$DW$37, DW_AT_type(*$C$DW$T$16)
     467                    .dwattr $C$DW$37, DW_AT_external
     468                    .dwattr $C$DW$37, DW_AT_decl_file("../src/loadfollow.c")
     469                    .dwattr $C$DW$37, DW_AT_decl_line(0x5d)
     470                    .dwattr $C$DW$37, DW_AT_decl_column(0x07)
     471            
     472            $C$DW$38        .dwtag  DW_TAG_variable
     473                    .dwattr $C$DW$38, DW_AT_name("FCPerror_accumulated_limit_GUI")
     474                    .dwattr $C$DW$38, DW_AT_TI_symbol_name("FCPerror_accumulated_limit_GUI")
     475                    .dwattr $C$DW$38, DW_AT_type(*$C$DW$T$16)
     476                    .dwattr $C$DW$38, DW_AT_declaration
     477                    .dwattr $C$DW$38, DW_AT_external
     478                    .dwattr $C$DW$38, DW_AT_decl_file("../src/loadfollow.c")
     479                    .dwattr $C$DW$38, DW_AT_decl_line(0x5e)
     480                    .dwattr $C$DW$38, DW_AT_decl_column(0x0e)
     481            
     482                    .global PID_Counter
     483                    .common PID_Counter,2,2
     484            $C$DW$39        .dwtag  DW_TAG_variable
     485                    .dwattr $C$DW$39, DW_AT_name("PID_Counter")
     486                    .dwattr $C$DW$39, DW_AT_TI_symbol_name("PID_Counter")
     487                    .dwattr $C$DW$39, DW_AT_location[DW_OP_addr PID_Counter]
     488                    .dwattr $C$DW$39, DW_AT_type(*$C$DW$T$10)
     489                    .dwattr $C$DW$39, DW_AT_external
MSP430 Assembler PC v21.6.1 Tue Dec 20 13:46:05 2022

Copyright (c) 2003-2018 Texas Instruments Incorporated
loadfollow.asm                                                       PAGE   10

     490                    .dwattr $C$DW$39, DW_AT_decl_file("../src/loadfollow.c")
     491                    .dwattr $C$DW$39, DW_AT_decl_line(0x60)
     492                    .dwattr $C$DW$39, DW_AT_decl_column(0x05)
     493            
     494            $C$DW$40        .dwtag  DW_TAG_variable
     495                    .dwattr $C$DW$40, DW_AT_name("pid_Kp_GUI")
     496                    .dwattr $C$DW$40, DW_AT_TI_symbol_name("pid_Kp_GUI")
     497                    .dwattr $C$DW$40, DW_AT_type(*$C$DW$T$16)
     498                    .dwattr $C$DW$40, DW_AT_declaration
     499                    .dwattr $C$DW$40, DW_AT_external
     500                    .dwattr $C$DW$40, DW_AT_decl_file("../src/loadfollow.c")
     501                    .dwattr $C$DW$40, DW_AT_decl_line(0x61)
     502                    .dwattr $C$DW$40, DW_AT_decl_column(0x0e)
     503            
     504            $C$DW$41        .dwtag  DW_TAG_variable
     505                    .dwattr $C$DW$41, DW_AT_name("pid_Ki_GUI")
     506                    .dwattr $C$DW$41, DW_AT_TI_symbol_name("pid_Ki_GUI")
     507                    .dwattr $C$DW$41, DW_AT_type(*$C$DW$T$16)
     508                    .dwattr $C$DW$41, DW_AT_declaration
     509                    .dwattr $C$DW$41, DW_AT_external
     510                    .dwattr $C$DW$41, DW_AT_decl_file("../src/loadfollow.c")
     511                    .dwattr $C$DW$41, DW_AT_decl_line(0x62)
     512                    .dwattr $C$DW$41, DW_AT_decl_column(0x0e)
     513            
     514            $C$DW$42        .dwtag  DW_TAG_variable
     515                    .dwattr $C$DW$42, DW_AT_name("pid_Kd_GUI")
     516                    .dwattr $C$DW$42, DW_AT_TI_symbol_name("pid_Kd_GUI")
     517                    .dwattr $C$DW$42, DW_AT_type(*$C$DW$T$16)
     518                    .dwattr $C$DW$42, DW_AT_declaration
     519                    .dwattr $C$DW$42, DW_AT_external
     520                    .dwattr $C$DW$42, DW_AT_decl_file("../src/loadfollow.c")
     521                    .dwattr $C$DW$42, DW_AT_decl_line(0x63)
     522                    .dwattr $C$DW$42, DW_AT_decl_column(0x0e)
     523            
     524            $C$DW$43        .dwtag  DW_TAG_variable
     525                    .dwattr $C$DW$43, DW_AT_name("TC1_temp")
     526                    .dwattr $C$DW$43, DW_AT_TI_symbol_name("TC1_temp")
     527                    .dwattr $C$DW$43, DW_AT_type(*$C$DW$T$16)
     528                    .dwattr $C$DW$43, DW_AT_declaration
     529                    .dwattr $C$DW$43, DW_AT_external
     530                    .dwattr $C$DW$43, DW_AT_decl_file("../src/loadfollow.c")
     531                    .dwattr $C$DW$43, DW_AT_decl_line(0x66)
     532                    .dwattr $C$DW$43, DW_AT_decl_column(0x0e)
     533            
     534            $C$DW$44        .dwtag  DW_TAG_variable
     535                    .dwattr $C$DW$44, DW_AT_name("fc_run_temp_max")
     536                    .dwattr $C$DW$44, DW_AT_TI_symbol_name("fc_run_temp_max")
     537                    .dwattr $C$DW$44, DW_AT_type(*$C$DW$T$10)
     538                    .dwattr $C$DW$44, DW_AT_declaration
     539                    .dwattr $C$DW$44, DW_AT_external
     540                    .dwattr $C$DW$44, DW_AT_decl_file("../src/loadfollow.c")
     541                    .dwattr $C$DW$44, DW_AT_decl_line(0x67)
     542                    .dwattr $C$DW$44, DW_AT_decl_column(0x0c)
     543            
     544            $C$DW$45        .dwtag  DW_TAG_variable
MSP430 Assembler PC v21.6.1 Tue Dec 20 13:46:05 2022

Copyright (c) 2003-2018 Texas Instruments Incorporated
loadfollow.asm                                                       PAGE   11

     545                    .dwattr $C$DW$45, DW_AT_name("Transition_to_RunMode")
     546                    .dwattr $C$DW$45, DW_AT_TI_symbol_name("Transition_to_RunMode")
     547                    .dwattr $C$DW$45, DW_AT_type(*$C$DW$T$24)
     548                    .dwattr $C$DW$45, DW_AT_declaration
     549                    .dwattr $C$DW$45, DW_AT_external
     550                    .dwattr $C$DW$45, DW_AT_decl_file("../src/loadfollow.c")
     551                    .dwattr $C$DW$45, DW_AT_decl_line(0x68)
     552                    .dwattr $C$DW$45, DW_AT_decl_column(0x10)
     553            
     554                    .global H2_ADJ_temp
     555 000018               .data
     556                    .align  2
     557                    .elfsym H2_ADJ_temp,SYM_SIZE(4)
     558 000018       H2_ADJ_temp:
     559 000018 0000          .float          $strtod("0x0p+0")               ; H2_ADJ_temp @ 0
         00001a 0000 
     560            
     561            $C$DW$46        .dwtag  DW_TAG_variable
     562                    .dwattr $C$DW$46, DW_AT_name("H2_ADJ_temp")
     563                    .dwattr $C$DW$46, DW_AT_TI_symbol_name("H2_ADJ_temp")
     564                    .dwattr $C$DW$46, DW_AT_location[DW_OP_addr H2_ADJ_temp]
     565                    .dwattr $C$DW$46, DW_AT_type(*$C$DW$T$16)
     566                    .dwattr $C$DW$46, DW_AT_external
     567                    .dwattr $C$DW$46, DW_AT_decl_file("../src/loadfollow.c")
     568                    .dwattr $C$DW$46, DW_AT_decl_line(0x78)
     569                    .dwattr $C$DW$46, DW_AT_decl_column(0x07)
     570            
     571            ;       C:\ti\ccs1110\ccs\tools\compiler\ti-cgt-msp430_21.6.1.LTS\bin\opt430.exe C:\\Users\\MCourson\\
     572 000000               .sect   ".text:load_monitor"
     573                    .clink
     574                    .global load_monitor
     575            
     576            $C$DW$47        .dwtag  DW_TAG_subprogram
     577                    .dwattr $C$DW$47, DW_AT_name("load_monitor")
     578                    .dwattr $C$DW$47, DW_AT_low_pc(load_monitor)
     579                    .dwattr $C$DW$47, DW_AT_high_pc(0x00)
     580                    .dwattr $C$DW$47, DW_AT_TI_symbol_name("load_monitor")
     581                    .dwattr $C$DW$47, DW_AT_external
     582                    .dwattr $C$DW$47, DW_AT_TI_begin_file("../src/loadfollow.c")
     583                    .dwattr $C$DW$47, DW_AT_TI_begin_line(0x79)
     584                    .dwattr $C$DW$47, DW_AT_TI_begin_column(0x06)
     585                    .dwattr $C$DW$47, DW_AT_decl_file("../src/loadfollow.c")
     586                    .dwattr $C$DW$47, DW_AT_decl_line(0x79)
     587                    .dwattr $C$DW$47, DW_AT_decl_column(0x06)
     588                    .dwattr $C$DW$47, DW_AT_TI_max_frame_size(0x26)
     589                    .dwpsn  file "../src/loadfollow.c",line 122,column 1,is_stmt,address load_monitor,isa 0
     590            
     591                    .dwfde $C$DW$CIE, load_monitor
     592            
     593            ;*****************************************************************************
     594            ;* FUNCTION NAME: load_monitor                                               *
     595            ;*                                                                           *
     596            ;*   Regs Modified     : SP,SR,r4,r5,r6,r7,r8,r9,r10,r11,r12,r13,r14,r15     *
     597            ;*   Regs Used         : SP,SR,r4,r5,r6,r7,r8,r9,r10,r11,r12,r13,r14,r15     *
     598            ;*   Local Frame Size  : 0 Args + 6 Auto + 28 Save = 34 byte                 *
MSP430 Assembler PC v21.6.1 Tue Dec 20 13:46:05 2022

Copyright (c) 2003-2018 Texas Instruments Incorporated
loadfollow.asm                                                       PAGE   12

     599            ;*****************************************************************************
     600 000000       load_monitor:
     601            ;* --------------------------------------------------------------------------*
     602                    .dwcfi  cfa_offset, 4
     603                    .dwcfi  save_reg_to_mem, 16, -4
     604 000000 146A          PUSHM.A   #7,r10                ; [] 
     605                    .dwcfi  save_reg_to_mem, 10, -8
     606                    .dwcfi  save_reg_to_mem, 9, -12
     607                    .dwcfi  save_reg_to_mem, 8, -16
     608                    .dwcfi  save_reg_to_mem, 7, -20
     609                    .dwcfi  save_reg_to_mem, 6, -24
     610                    .dwcfi  save_reg_to_mem, 5, -28
     611                    .dwcfi  save_reg_to_mem, 4, -32
     612                    .dwcfi  cfa_offset, 32
     613 000002 00B1          SUBA      #6,SP                 ; [] 
         000004 0006 
     614                    .dwcfi  cfa_offset, 38
     615            ;* r5    assigned to main_fuel_flow_min
     616            $C$DW$48        .dwtag  DW_TAG_variable
     617                    .dwattr $C$DW$48, DW_AT_name("main_fuel_flow_min")
     618                    .dwattr $C$DW$48, DW_AT_TI_symbol_name("main_fuel_flow_min")
     619                    .dwattr $C$DW$48, DW_AT_type(*$C$DW$T$16)
     620                    .dwattr $C$DW$48, DW_AT_location[DW_OP_reg5 DW_OP_piece 2 DW_OP_reg7 DW_OP_piece 2]
     621            
     622            ;* r6    assigned to temp_stoich
     623            $C$DW$49        .dwtag  DW_TAG_variable
     624                    .dwattr $C$DW$49, DW_AT_name("temp_stoich")
     625                    .dwattr $C$DW$49, DW_AT_TI_symbol_name("temp_stoich")
     626                    .dwattr $C$DW$49, DW_AT_type(*$C$DW$T$16)
     627                    .dwattr $C$DW$49, DW_AT_location[DW_OP_reg6 DW_OP_piece 2 DW_OP_reg7 DW_OP_piece 2]
     628            
     629                    .dwpsn  file "../src/loadfollow.c",line 132,column 3,is_stmt,isa 0
     630 000006 421C          MOV.W     &FC_Current+0,r12     ; [] |132| 
         000008 0000!
     631 00000a 421D          MOV.W     &FC_Current+2,r13     ; [] |132| 
         00000c 0002!
     632            $C$DW$50        .dwtag  DW_TAG_TI_branch
     633                    .dwattr $C$DW$50, DW_AT_low_pc(0x00)
     634                    .dwattr $C$DW$50, DW_AT_name("__mspabi_cvtfd")
     635                    .dwattr $C$DW$50, DW_AT_TI_call
     636            
     637 00000e 13B0!         CALLA     #__mspabi_cvtfd       ; [] |132| 
         000010 0000 
     638                                                      ; [] |132| 
     639 000012 0CC8          MOVA      r12,r8                ; [] |132| 
     640 000014 0DC9          MOVA      r13,r9                ; [] |132| 
     641 000016 0ECA          MOVA      r14,r10               ; [] |132| 
     642 000018 0FCB          MOVA      r15,r11               ; [] |132| 
     643 00001a 403C          MOV.W     #19123,r12            ; [] |132| 
         00001c 4AB3 
     644 00001e 403D          MOV.W     #24933,r13            ; [] |132| 
         000020 6165 
     645 000022 403E          MOV.W     #54970,r14            ; [] |132| 
         000024 D6BA 
     646 000026 403F          MOV.W     #49007,r15            ; [] |132| 
MSP430 Assembler PC v21.6.1 Tue Dec 20 13:46:05 2022

Copyright (c) 2003-2018 Texas Instruments Incorporated
loadfollow.asm                                                       PAGE   13

         000028 BF6F 
     647            $C$DW$51        .dwtag  DW_TAG_TI_branch
     648                    .dwattr $C$DW$51, DW_AT_low_pc(0x00)
     649                    .dwattr $C$DW$51, DW_AT_name("__mspabi_mpyd")
     650                    .dwattr $C$DW$51, DW_AT_TI_call
     651            
     652 00002a 13B0!         CALLA     #__mspabi_mpyd        ; [] |132| 
         00002c 0000 
     653                                                      ; [] |132| 
     654 00002e 0CC8          MOVA      r12,r8                ; [] |132| 
     655 000030 0DC9          MOVA      r13,r9                ; [] |132| 
     656 000032 0ECA          MOVA      r14,r10               ; [] |132| 
     657 000034 0FC7          MOVA      r15,r7                ; [] |132| 
     658 000036 421C          MOV.W     &FC_Current+0,r12     ; [] |132| 
         000038 0000!
     659 00003a 421D          MOV.W     &FC_Current+2,r13     ; [] |132| 
         00003c 0002!
     660            $C$DW$52        .dwtag  DW_TAG_TI_branch
     661                    .dwattr $C$DW$52, DW_AT_low_pc(0x00)
     662                    .dwattr $C$DW$52, DW_AT_name("__mspabi_cvtfd")
     663                    .dwattr $C$DW$52, DW_AT_TI_call
     664            
     665 00003e 13B0!         CALLA     #__mspabi_cvtfd       ; [] |132| 
         000040 0000 
     666                                                      ; [] |132| 
     667 000042 07CB          MOVA      r7,r11                ; [] |132| 
     668            $C$DW$53        .dwtag  DW_TAG_TI_branch
     669                    .dwattr $C$DW$53, DW_AT_low_pc(0x00)
     670                    .dwattr $C$DW$53, DW_AT_name("__mspabi_mpyd")
     671                    .dwattr $C$DW$53, DW_AT_TI_call
     672            
     673 000044 13B0!         CALLA     #__mspabi_mpyd        ; [] |132| 
         000046 0000 
     674                                                      ; [] |132| 
     675 000048 0CC4          MOVA      r12,r4                ; [] |132| 
     676 00004a 0DC5          MOVA      r13,r5                ; [] |132| 
     677 00004c 0EC6          MOVA      r14,r6                ; [] |132| 
     678 00004e 0FC7          MOVA      r15,r7                ; [] |132| 
     679 000050 421C          MOV.W     &FC_Current+0,r12     ; [] |132| 
         000052 0000!
     680 000054 421D          MOV.W     &FC_Current+2,r13     ; [] |132| 
         000056 0002!
     681            $C$DW$54        .dwtag  DW_TAG_TI_branch
     682                    .dwattr $C$DW$54, DW_AT_low_pc(0x00)
     683                    .dwattr $C$DW$54, DW_AT_name("__mspabi_cvtfd")
     684                    .dwattr $C$DW$54, DW_AT_TI_call
     685            
     686 000058 13B0!         CALLA     #__mspabi_cvtfd       ; [] |132| 
         00005a 0000 
     687                                                      ; [] |132| 
     688 00005c 0CC8          MOVA      r12,r8                ; [] |132| 
     689 00005e 0DC9          MOVA      r13,r9                ; [] |132| 
     690 000060 0ECA          MOVA      r14,r10               ; [] |132| 
     691 000062 0FCB          MOVA      r15,r11               ; [] |132| 
     692 000064 403C          MOV.W     #64623,r12            ; [] |132| 
MSP430 Assembler PC v21.6.1 Tue Dec 20 13:46:05 2022

Copyright (c) 2003-2018 Texas Instruments Incorporated
loadfollow.asm                                                       PAGE   14

         000066 FC6F 
     693 000068 403D          MOV.W     #30147,r13            ; [] |132| 
         00006a 75C3 
     694 00006c 403E          MOV.W     #25616,r14            ; [] |132| 
         00006e 6410 
     695 000070 403F          MOV.W     #16308,r15            ; [] |132| 
         000072 3FB4 
     696            $C$DW$55        .dwtag  DW_TAG_TI_branch
     697                    .dwattr $C$DW$55, DW_AT_low_pc(0x00)
     698                    .dwattr $C$DW$55, DW_AT_name("__mspabi_mpyd")
     699                    .dwattr $C$DW$55, DW_AT_TI_call
     700            
     701 000074 13B0!         CALLA     #__mspabi_mpyd        ; [] |132| 
         000076 0000 
     702                                                      ; [] |132| 
     703            ;* --------------------------------------------------------------------------*
     704 000078 04C8          MOVA      r4,r8                 ; [] |132| 
     705 00007a 05C9          MOVA      r5,r9                 ; [] |132| 
     706 00007c 06CA          MOVA      r6,r10                ; [] |132| 
     707 00007e 07CB          MOVA      r7,r11                ; [] |132| 
     708            $C$DW$56        .dwtag  DW_TAG_TI_branch
     709                    .dwattr $C$DW$56, DW_AT_low_pc(0x00)
     710                    .dwattr $C$DW$56, DW_AT_name("__mspabi_addd")
     711                    .dwattr $C$DW$56, DW_AT_TI_call
     712            
     713 000080 13B0!         CALLA     #__mspabi_addd        ; [] |132| 
         000082 0000 
     714                                                      ; [] |132| 
     715 000084 0CC8          MOVA      r12,r8                ; [] |132| 
     716 000086 0DC9          MOVA      r13,r9                ; [] |132| 
     717 000088 0ECA          MOVA      r14,r10               ; [] |132| 
     718 00008a 0FCB          MOVA      r15,r11               ; [] |132| 
     719 00008c 403C          MOV.W     #13671,r12            ; [] |132| 
         00008e 3567 
     720 000090 403D          MOV.W     #53300,r13            ; [] |132| 
         000092 D034 
     721 000094 403E          MOV.W     #41794,r14            ; [] |132| 
         000096 A342 
     722 000098 403F          MOV.W     #16334,r15            ; [] |132| 
         00009a 3FCE 
     723            $C$DW$57        .dwtag  DW_TAG_TI_branch
     724                    .dwattr $C$DW$57, DW_AT_low_pc(0x00)
     725                    .dwattr $C$DW$57, DW_AT_name("__mspabi_addd")
     726                    .dwattr $C$DW$57, DW_AT_TI_call
     727            
     728 00009c 13B0!         CALLA     #__mspabi_addd        ; [] |132| 
         00009e 0000 
     729                                                      ; [] |132| 
     730            $C$DW$58        .dwtag  DW_TAG_TI_branch
     731                    .dwattr $C$DW$58, DW_AT_low_pc(0x00)
     732                    .dwattr $C$DW$58, DW_AT_name("__mspabi_cvtdf")
     733                    .dwattr $C$DW$58, DW_AT_TI_call
     734            
     735 0000a0 13B0!         CALLA     #__mspabi_cvtdf       ; [] |132| 
         0000a2 0000 
MSP430 Assembler PC v21.6.1 Tue Dec 20 13:46:05 2022

Copyright (c) 2003-2018 Texas Instruments Incorporated
loadfollow.asm                                                       PAGE   15

     736                                                      ; [] |132| 
     737 0000a4 4C82          MOV.W     r12,&H2_util_wanted+0 ; [] |132| 
         0000a6 0000!
     738 0000a8 4D82          MOV.W     r13,&H2_util_wanted+2 ; [] |132| 
         0000aa 0002!
     739                    .dwpsn  file "../src/loadfollow.c",line 144,column 3,is_stmt,isa 0
     740 0000ac 421C          MOV.W     &H2_util_wanted+0,r12 ; [] |144| 
         0000ae 0000!
     741            $C$DW$59        .dwtag  DW_TAG_TI_branch
     742                    .dwattr $C$DW$59, DW_AT_low_pc(0x00)
     743                    .dwattr $C$DW$59, DW_AT_name("__mspabi_cvtfd")
     744                    .dwattr $C$DW$59, DW_AT_TI_call
     745            
     746 0000b0 13B0!         CALLA     #__mspabi_cvtfd       ; [] |144| 
         0000b2 0000 
     747                                                      ; [] |144| 
     748 0000b4 4038          MOV.W     #26214,r8             ; [] |144| 
         0000b6 6666 
     749 0000b8 4039          MOV.W     #26214,r9             ; [] |144| 
         0000ba 6666 
     750 0000bc 403A          MOV.W     #26214,r10            ; [] |144| 
         0000be 6666 
     751 0000c0 403B          MOV.W     #16358,r11            ; [] |144| 
         0000c2 3FE6 
     752            $C$DW$60        .dwtag  DW_TAG_TI_branch
     753                    .dwattr $C$DW$60, DW_AT_low_pc(0x00)
     754                    .dwattr $C$DW$60, DW_AT_name("__mspabi_cmpd")
     755                    .dwattr $C$DW$60, DW_AT_TI_call
     756            
     757 0000c4 13B0!         CALLA     #__mspabi_cmpd        ; [] |144| 
         0000c6 0000 
     758                                                      ; [] |144| 
     759 0000c8 930C          TST.W     r12                   ; [] |144| 
     760 0000ca 3406          JGE       $C$L1                 ; [] |144| 
     761                                                      ; [] |144| 
     762            ;* --------------------------------------------------------------------------*
     763                    .dwpsn  file "../src/loadfollow.c",line 144,column 30,is_stmt,isa 0
     764 0000cc 40B2          MOV.W     #13107,&H2_util_wanted+0 ; [] |144| 
         0000ce 3333 
         0000d0 0000!
     765 0000d2 40B2          MOV.W     #16179,&H2_util_wanted+2 ; [] |144| 
         0000d4 3F33 
         0000d6 0002!
     766            ;* --------------------------------------------------------------------------*
     767 0000d8       $C$L1:    
     768                    .dwpsn  file "../src/loadfollow.c",line 145,column 3,is_stmt,isa 0
     769 0000d8 421C          MOV.W     &H2_util_wanted+0,r12 ; [] |145| 
         0000da 0000!
     770 0000dc 421D          MOV.W     &H2_util_wanted+2,r13 ; [] |145| 
         0000de 0002!
     771 0000e0 430E          MOV.W     #0,r14                ; [] |145| 
     772 0000e2 403F          MOV.W     #16000,r15            ; [] |145| 
         0000e4 3E80 
     773            $C$DW$61        .dwtag  DW_TAG_TI_branch
     774                    .dwattr $C$DW$61, DW_AT_low_pc(0x00)
MSP430 Assembler PC v21.6.1 Tue Dec 20 13:46:05 2022

Copyright (c) 2003-2018 Texas Instruments Incorporated
loadfollow.asm                                                       PAGE   16

     775                    .dwattr $C$DW$61, DW_AT_name("__mspabi_cmpf")
     776                    .dwattr $C$DW$61, DW_AT_TI_call
     777            
     778 0000e6 13B0!         CALLA     #__mspabi_cmpf        ; [] |145| 
         0000e8 0000 
     779                                                      ; [] |145| 
     780 0000ea 930C          TST.W     r12                   ; [] |145| 
     781 0000ec 3405          JGE       $C$L2                 ; [] |145| 
     782                                                      ; [] |145| 
     783            ;* --------------------------------------------------------------------------*
     784                    .dwpsn  file "../src/loadfollow.c",line 145,column 30,is_stmt,isa 0
     785 0000ee 4382          MOV.W     #0,&H2_util_wanted+0  ; [] |145| 
         0000f0 0000!
     786 0000f2 40B2          MOV.W     #16000,&H2_util_wanted+2 ; [] |145| 
         0000f4 3E80 
         0000f6 0002!
     787            ;* --------------------------------------------------------------------------*
     788 0000f8       $C$L2:    
     789                    .dwpsn  file "../src/loadfollow.c",line 146,column 3,is_stmt,isa 0
     790 0000f8 93C2          TST.B     &Transition_to_RunMode+0 ; [] |146| 
         0000fa 0000!
     791 0000fc 2411          JEQ       $C$L3                 ; [] |146| 
     792                                                      ; [] |146| 
     793            ;* --------------------------------------------------------------------------*
     794 0000fe 421C          MOV.W     &TC2_temp+0,r12       ; [] |146| 
         000100 0000!
     795 000102 421D          MOV.W     &TC2_temp+2,r13       ; [] |146| 
         000104 0002!
     796 000106 430E          MOV.W     #0,r14                ; [] |146| 
     797 000108 403F          MOV.W     #17282,r15            ; [] |146| 
         00010a 4382 
     798            $C$DW$62        .dwtag  DW_TAG_TI_branch
     799                    .dwattr $C$DW$62, DW_AT_low_pc(0x00)
     800                    .dwattr $C$DW$62, DW_AT_name("__mspabi_cmpf")
     801                    .dwattr $C$DW$62, DW_AT_TI_call
     802            
     803 00010c 13B0!         CALLA     #__mspabi_cmpf        ; [] |146| 
         00010e 0000 
     804                                                      ; [] |146| 
     805 000110 930C          TST.W     r12                   ; [] |146| 
     806 000112 3406          JGE       $C$L3                 ; [] |146| 
     807                                                      ; [] |146| 
     808            ;* --------------------------------------------------------------------------*
     809                    .dwpsn  file "../src/loadfollow.c",line 148,column 27,is_stmt,isa 0
     810 000114 40B2          MOV.W     #13107,&H2_util_wanted+0 ; [] |148| 
         000116 3333 
         000118 0000!
     811 00011a 40B2          MOV.W     #16051,&H2_util_wanted+2 ; [] |148| 
         00011c 3EB3 
         00011e 0002!
     812            ;* --------------------------------------------------------------------------*
     813 000120       $C$L3:    
     814                    .dwpsn  file "../src/loadfollow.c",line 152,column 3,is_stmt,isa 0
     815 000120 421C          MOV.W     &Tset+0,r12           ; [] |152| 
         000122 0000!
MSP430 Assembler PC v21.6.1 Tue Dec 20 13:46:05 2022

Copyright (c) 2003-2018 Texas Instruments Incorporated
loadfollow.asm                                                       PAGE   17

     816            $C$DW$63        .dwtag  DW_TAG_TI_branch
     817                    .dwattr $C$DW$63, DW_AT_low_pc(0x00)
     818                    .dwattr $C$DW$63, DW_AT_name("__mspabi_fltif")
     819                    .dwattr $C$DW$63, DW_AT_TI_call
     820            
     821 000124 13B0!         CALLA     #__mspabi_fltif       ; [] |152| 
         000126 0000 
     822                                                      ; [] |152| 
     823 000128 0CCE          MOVA      r12,r14               ; [] |152| 
     824 00012a 0DCF          MOVA      r13,r15               ; [] |152| 
     825 00012c 421C          MOV.W     &TC2_temp+0,r12       ; [] |152| 
         00012e 0000!
     826 000130 421D          MOV.W     &TC2_temp+2,r13       ; [] |152| 
         000132 0002!
     827            $C$DW$64        .dwtag  DW_TAG_TI_branch
     828                    .dwattr $C$DW$64, DW_AT_low_pc(0x00)
     829                    .dwattr $C$DW$64, DW_AT_name("__mspabi_subf")
     830                    .dwattr $C$DW$64, DW_AT_TI_call
     831            
     832 000134 13B0!         CALLA     #__mspabi_subf        ; [] |152| 
         000136 0000 
     833                                                      ; [] |152| 
     834            $C$DW$65        .dwtag  DW_TAG_TI_branch
     835                    .dwattr $C$DW$65, DW_AT_low_pc(0x00)
     836                    .dwattr $C$DW$65, DW_AT_name("__mspabi_cvtfd")
     837                    .dwattr $C$DW$65, DW_AT_TI_call
     838            
     839 000138 13B0!         CALLA     #__mspabi_cvtfd       ; [] |152| 
         00013a 0000 
     840                                                      ; [] |152| 
     841 00013c 0CC8          MOVA      r12,r8                ; [] |152| 
     842 00013e 0DC9          MOVA      r13,r9                ; [] |152| 
     843 000140 0ECA          MOVA      r14,r10               ; [] |152| 
     844 000142 0FCB          MOVA      r15,r11               ; [] |152| 
     845 000144 430C          MOV.W     #0,r12                ; [] |152| 
     846 000146 430D          MOV.W     #0,r13                ; [] |152| 
     847 000148 430E          MOV.W     #0,r14                ; [] |152| 
     848 00014a 403F          MOV.W     #16352,r15            ; [] |152| 
         00014c 3FE0 
     849            $C$DW$66        .dwtag  DW_TAG_TI_branch
     850                    .dwattr $C$DW$66, DW_AT_low_pc(0x00)
     851                    .dwattr $C$DW$66, DW_AT_name("__mspabi_mpyd")
     852                    .dwattr $C$DW$66, DW_AT_TI_call
     853            
     854 00014e 13B0!         CALLA     #__mspabi_mpyd        ; [] |152| 
         000150 0000 
     855                                                      ; [] |152| 
     856 000152 0CC8          MOVA      r12,r8                ; [] |152| 
     857 000154 0DC9          MOVA      r13,r9                ; [] |152| 
     858 000156 0ECA          MOVA      r14,r10               ; [] |152| 
     859 000158 0FCB          MOVA      r15,r11               ; [] |152| 
     860 00015a 430C          MOV.W     #0,r12                ; [] |152| 
     861 00015c 430D          MOV.W     #0,r13                ; [] |152| 
     862 00015e 403E          MOV.W     #32768,r14            ; [] |152| 
         000160 8000 
MSP430 Assembler PC v21.6.1 Tue Dec 20 13:46:05 2022

Copyright (c) 2003-2018 Texas Instruments Incorporated
loadfollow.asm                                                       PAGE   18

     863 000162 403F          MOV.W     #16465,r15            ; [] |152| 
         000164 4051 
     864            $C$DW$67        .dwtag  DW_TAG_TI_branch
     865                    .dwattr $C$DW$67, DW_AT_low_pc(0x00)
     866                    .dwattr $C$DW$67, DW_AT_name("__mspabi_addd")
     867                    .dwattr $C$DW$67, DW_AT_TI_call
     868            
     869 000166 13B0!         CALLA     #__mspabi_addd        ; [] |152| 
         000168 0000 
     870                                                      ; [] |152| 
     871 00016a 0CC8          MOVA      r12,r8                ; [] |152| 
     872 00016c 0DC9          MOVA      r13,r9                ; [] |152| 
     873 00016e 0ECA          MOVA      r14,r10               ; [] |152| 
     874 000170 0FCB          MOVA      r15,r11               ; [] |152| 
     875 000172 403C          MOV.W     #5243,r12             ; [] |152| 
         000174 147B 
     876 000176 403D          MOV.W     #18350,r13            ; [] |152| 
         000178 47AE 
     877 00017a 403E          MOV.W     #31457,r14            ; [] |152| 
         00017c 7AE1 
     878 00017e 403F          MOV.W     #16260,r15            ; [] |152| 
         000180 3F84 
     879            $C$DW$68        .dwtag  DW_TAG_TI_branch
     880                    .dwattr $C$DW$68, DW_AT_low_pc(0x00)
     881                    .dwattr $C$DW$68, DW_AT_name("__mspabi_mpyd")
     882                    .dwattr $C$DW$68, DW_AT_TI_call
     883            
     884 000182 13B0!         CALLA     #__mspabi_mpyd        ; [] |152| 
         000184 0000 
     885                                                      ; [] |152| 
     886            $C$DW$69        .dwtag  DW_TAG_TI_branch
     887                    .dwattr $C$DW$69, DW_AT_low_pc(0x00)
     888                    .dwattr $C$DW$69, DW_AT_name("__mspabi_cvtdf")
     889                    .dwattr $C$DW$69, DW_AT_TI_call
     890            
     891 000186 13B0!         CALLA     #__mspabi_cvtdf       ; [] |152| 
         000188 0000 
     892                                                      ; [] |152| 
     893 00018a 4C82          MOV.W     r12,&H2_Util_Max+0    ; [] |152| 
         00018c 0000!
     894 00018e 4D82          MOV.W     r13,&H2_Util_Max+2    ; [] |152| 
         000190 0002!
     895                    .dwpsn  file "../src/loadfollow.c",line 159,column 3,is_stmt,isa 0
     896 000192 403C          MOV.W     #18,r12               ; [] |159| 
         000194 0012 
     897 000196 521C          ADD.W     &Tset+0,r12           ; [] |159| 
         000198 0000!
     898            $C$DW$70        .dwtag  DW_TAG_TI_branch
     899                    .dwattr $C$DW$70, DW_AT_low_pc(0x00)
     900                    .dwattr $C$DW$70, DW_AT_name("__mspabi_fltif")
     901                    .dwattr $C$DW$70, DW_AT_TI_call
     902            
     903 00019a 13B0!         CALLA     #__mspabi_fltif       ; [] |159| 
         00019c 0000 
     904                                                      ; [] |159| 
MSP430 Assembler PC v21.6.1 Tue Dec 20 13:46:05 2022

Copyright (c) 2003-2018 Texas Instruments Incorporated
loadfollow.asm                                                       PAGE   19

     905 00019e 0CCE          MOVA      r12,r14               ; [] |159| 
     906 0001a0 0DCF          MOVA      r13,r15               ; [] |159| 
     907 0001a2 421C          MOV.W     &TC2_temp+0,r12       ; [] |159| 
         0001a4 0000!
     908 0001a6 421D          MOV.W     &TC2_temp+2,r13       ; [] |159| 
         0001a8 0002!
     909            $C$DW$71        .dwtag  DW_TAG_TI_branch
     910                    .dwattr $C$DW$71, DW_AT_low_pc(0x00)
     911                    .dwattr $C$DW$71, DW_AT_name("__mspabi_cmpf")
     912                    .dwattr $C$DW$71, DW_AT_TI_call
     913            
     914 0001aa 13B0!         CALLA     #__mspabi_cmpf        ; [] |159| 
         0001ac 0000 
     915                                                      ; [] |159| 
     916 0001ae 930C          TST.W     r12                   ; [] |159| 
     917 0001b0 3434          JGE       $C$L6                 ; [] |159| 
     918                                                      ; [] |159| 
     919            ;* --------------------------------------------------------------------------*
     920                    .dwpsn  file "../src/loadfollow.c",line 161,column 8,is_stmt,isa 0
     921 0001b2 403C          MOV.W     #10,r12               ; [] |161| 
         0001b4 000A 
     922 0001b6 521C          ADD.W     &Tset+0,r12           ; [] |161| 
         0001b8 0000!
     923            $C$DW$72        .dwtag  DW_TAG_TI_branch
     924                    .dwattr $C$DW$72, DW_AT_low_pc(0x00)
     925                    .dwattr $C$DW$72, DW_AT_name("__mspabi_fltif")
     926                    .dwattr $C$DW$72, DW_AT_TI_call
     927            
     928 0001ba 13B0!         CALLA     #__mspabi_fltif       ; [] |161| 
         0001bc 0000 
     929                                                      ; [] |161| 
     930 0001be 0CCE          MOVA      r12,r14               ; [] |161| 
     931 0001c0 0DCF          MOVA      r13,r15               ; [] |161| 
     932 0001c2 421C          MOV.W     &TC2_temp+0,r12       ; [] |161| 
         0001c4 0000!
     933 0001c6 421D          MOV.W     &TC2_temp+2,r13       ; [] |161| 
         0001c8 0002!
     934            $C$DW$73        .dwtag  DW_TAG_TI_branch
     935                    .dwattr $C$DW$73, DW_AT_low_pc(0x00)
     936                    .dwattr $C$DW$73, DW_AT_name("__mspabi_cmpf")
     937                    .dwattr $C$DW$73, DW_AT_TI_call
     938            
     939 0001ca 13B0!         CALLA     #__mspabi_cmpf        ; [] |161| 
         0001cc 0000 
     940                                                      ; [] |161| 
     941 0001ce 930C          TST.W     r12                   ; [] |161| 
     942 0001d0 341E          JGE       $C$L5                 ; [] |161| 
     943                                                      ; [] |161| 
     944            ;* --------------------------------------------------------------------------*
     945                    .dwpsn  file "../src/loadfollow.c",line 163,column 8,is_stmt,isa 0
     946 0001d2 423C          MOV.W     #8,r12                ; [] |163| 
     947 0001d4 521C          ADD.W     &Tset+0,r12           ; [] |163| 
         0001d6 0000!
     948            $C$DW$74        .dwtag  DW_TAG_TI_branch
     949                    .dwattr $C$DW$74, DW_AT_low_pc(0x00)
MSP430 Assembler PC v21.6.1 Tue Dec 20 13:46:05 2022

Copyright (c) 2003-2018 Texas Instruments Incorporated
loadfollow.asm                                                       PAGE   20

     950                    .dwattr $C$DW$74, DW_AT_name("__mspabi_fltif")
     951                    .dwattr $C$DW$74, DW_AT_TI_call
     952            
     953 0001d8 13B0!         CALLA     #__mspabi_fltif       ; [] |163| 
         0001da 0000 
     954                                                      ; [] |163| 
     955 0001dc 421E          MOV.W     &TC2_temp+0,r14       ; [] |163| 
         0001de 0000!
     956 0001e0 421F          MOV.W     &TC2_temp+2,r15       ; [] |163| 
         0001e2 0002!
     957            $C$DW$75        .dwtag  DW_TAG_TI_branch
     958                    .dwattr $C$DW$75, DW_AT_low_pc(0x00)
     959                    .dwattr $C$DW$75, DW_AT_name("__mspabi_cmpf")
     960                    .dwattr $C$DW$75, DW_AT_TI_call
     961            
     962 0001e4 13B0!         CALLA     #__mspabi_cmpf        ; [] |163| 
         0001e6 0000 
     963                                                      ; [] |163| 
     964 0001e8 930C          TST.W     r12                   ; [] |163| 
     965 0001ea 340A          JGE       $C$L4                 ; [] |163| 
     966                                                      ; [] |163| 
     967            ;* --------------------------------------------------------------------------*
     968 0001ec 421C          MOV.W     &H2_Util_Max_Setpoint+0,r12 ; [] |163| 
         0001ee 0000!
     969 0001f0 421D          MOV.W     &H2_Util_Max_Setpoint+2,r13 ; [] |163| 
         0001f2 0002!
     970 0001f4 430E          MOV.W     #0,r14                ; [] |163| 
     971 0001f6 430F          MOV.W     #0,r15                ; [] |163| 
     972            $C$DW$76        .dwtag  DW_TAG_TI_branch
     973                    .dwattr $C$DW$76, DW_AT_low_pc(0x00)
     974                    .dwattr $C$DW$76, DW_AT_name("__mspabi_cmpf")
     975                    .dwattr $C$DW$76, DW_AT_TI_call
     976            
     977 0001f8 13B0!         CALLA     #__mspabi_cmpf        ; [] |163| 
         0001fa 0000 
     978                                                      ; [] |163| 
     979 0001fc 930C          TST.W     r12                   ; [] |163| 
     980 0001fe 2013          JNE       $C$L7                 ; [] |163| 
     981                                                      ; [] |163| 
     982            ;* --------------------------------------------------------------------------*
     983 000200       $C$L4:    
     984                    .dwpsn  file "../src/loadfollow.c",line 164,column 6,is_stmt,isa 0
     985 000200 40B2          MOV.W     #20972,&H2_Util_Max_Setpoint+0 ; [] |164| 
         000202 51EC 
         000204 0000!
     986 000206 40B2          MOV.W     #16184,&H2_Util_Max_Setpoint+2 ; [] |164| 
         000208 3F38 
         00020a 0002!
     987 00020c 3C0C          JMP       $C$L7                 ; [] |164| 
     988                                                      ; [] |164| 
     989            ;* --------------------------------------------------------------------------*
     990 00020e       $C$L5:    
     991                    .dwpsn  file "../src/loadfollow.c",line 162,column 6,is_stmt,isa 0
     992 00020e 4382          MOV.W     #0,&H2_Util_Max_Setpoint+0 ; [] |162| 
         000210 0000!
MSP430 Assembler PC v21.6.1 Tue Dec 20 13:46:05 2022

Copyright (c) 2003-2018 Texas Instruments Incorporated
loadfollow.asm                                                       PAGE   21

     993 000212 40B2          MOV.W     #16192,&H2_Util_Max_Setpoint+2 ; [] |162| 
         000214 3F40 
         000216 0002!
     994 000218 3C06          JMP       $C$L7                 ; [] 
     995                                                      ; [] 
     996            ;* --------------------------------------------------------------------------*
     997 00021a       $C$L6:    
     998                    .dwpsn  file "../src/loadfollow.c",line 160,column 6,is_stmt,isa 0
     999 00021a 40B2          MOV.W     #52429,&H2_Util_Max_Setpoint+0 ; [] |160| 
         00021c CCCD 
         00021e 0000!
    1000 000220 40B2          MOV.W     #16204,&H2_Util_Max_Setpoint+2 ; [] |160| 
         000222 3F4C 
         000224 0002!
    1001            ;* --------------------------------------------------------------------------*
    1002 000226       $C$L7:    
    1003                    .dwpsn  file "../src/loadfollow.c",line 167,column 3,is_stmt,isa 0
    1004 000226 421C          MOV.W     &H2_Util_Max_Setpoint+0,r12 ; [] |167| 
         000228 0000!
    1005 00022a 421D          MOV.W     &H2_Util_Max_Setpoint+2,r13 ; [] |167| 
         00022c 0002!
    1006 00022e 421E          MOV.W     &H2_Util_Max+0,r14    ; [] |167| 
         000230 0000!
    1007 000232 421F          MOV.W     &H2_Util_Max+2,r15    ; [] |167| 
         000234 0002!
    1008            $C$DW$77        .dwtag  DW_TAG_TI_branch
    1009                    .dwattr $C$DW$77, DW_AT_low_pc(0x00)
    1010                    .dwattr $C$DW$77, DW_AT_name("__mspabi_cmpf")
    1011                    .dwattr $C$DW$77, DW_AT_TI_call
    1012            
    1013 000236 13B0!         CALLA     #__mspabi_cmpf        ; [] |167| 
         000238 0000 
    1014                                                      ; [] |167| 
    1015 00023a 930C          TST.W     r12                   ; [] |167| 
    1016 00023c 3406          JGE       $C$L8                 ; [] |167| 
    1017                                                      ; [] |167| 
    1018            ;* --------------------------------------------------------------------------*
    1019                    .dwpsn  file "../src/loadfollow.c",line 168,column 6,is_stmt,isa 0
    1020 00023e 4292          MOV.W     &H2_Util_Max_Setpoint+0,&H2_Util_Max+0 ; [] |168| 
         000240 0000!
         000242 0000!
    1021 000244 4292          MOV.W     &H2_Util_Max_Setpoint+2,&H2_Util_Max+2 ; [] |168| 
         000246 0002!
         000248 0002!
    1022            ;* --------------------------------------------------------------------------*
    1023 00024a       $C$L8:    
    1024                    .dwpsn  file "../src/loadfollow.c",line 174,column 3,is_stmt,isa 0
    1025 00024a 430C          MOV.W     #0,r12                ; [] |174| 
    1026 00024c 430D          MOV.W     #0,r13                ; [] |174| 
    1027 00024e 421E          MOV.W     &Hmax_desired+0,r14   ; [] |174| 
         000250 0000!
    1028 000252 421F          MOV.W     &Hmax_desired+2,r15   ; [] |174| 
         000254 0002!
    1029            $C$DW$78        .dwtag  DW_TAG_TI_branch
    1030                    .dwattr $C$DW$78, DW_AT_low_pc(0x00)
MSP430 Assembler PC v21.6.1 Tue Dec 20 13:46:05 2022

Copyright (c) 2003-2018 Texas Instruments Incorporated
loadfollow.asm                                                       PAGE   22

    1031                    .dwattr $C$DW$78, DW_AT_name("__mspabi_cmpf")
    1032                    .dwattr $C$DW$78, DW_AT_TI_call
    1033            
    1034 000256 13B0!         CALLA     #__mspabi_cmpf        ; [] |174| 
         000258 0000 
    1035                                                      ; [] |174| 
    1036 00025a 930C          TST.W     r12                   ; [] |174| 
    1037 00025c 3406          JGE       $C$L9                 ; [] |174| 
    1038                                                      ; [] |174| 
    1039            ;* --------------------------------------------------------------------------*
    1040                    .dwpsn  file "../src/loadfollow.c",line 175,column 6,is_stmt,isa 0
    1041 00025e 4292          MOV.W     &Hmax_desired+0,&H2_Util_Max+0 ; [] |175| 
         000260 0000!
         000262 0000!
    1042 000264 4292          MOV.W     &Hmax_desired+2,&H2_Util_Max+2 ; [] |175| 
         000266 0002!
         000268 0002!
    1043            ;* --------------------------------------------------------------------------*
    1044 00026a       $C$L9:    
    1045                    .dwpsn  file "../src/loadfollow.c",line 177,column 3,is_stmt,isa 0
    1046 00026a 430C          MOV.W     #0,r12                ; [] |177| 
    1047 00026c 430D          MOV.W     #0,r13                ; [] |177| 
    1048 00026e 421E          MOV.W     &H2_util_desired+0,r14 ; [] |177| 
         000270 0000!
    1049 000272 421F          MOV.W     &H2_util_desired+2,r15 ; [] |177| 
         000274 0002!
    1050            $C$DW$79        .dwtag  DW_TAG_TI_branch
    1051                    .dwattr $C$DW$79, DW_AT_low_pc(0x00)
    1052                    .dwattr $C$DW$79, DW_AT_name("__mspabi_cmpf")
    1053                    .dwattr $C$DW$79, DW_AT_TI_call
    1054            
    1055 000276 13B0!         CALLA     #__mspabi_cmpf        ; [] |177| 
         000278 0000 
    1056                                                      ; [] |177| 
    1057 00027a 930C          TST.W     r12                   ; [] |177| 
    1058 00027c 3424          JGE       $C$L10                ; [] |177| 
    1059                                                      ; [] |177| 
    1060            ;* --------------------------------------------------------------------------*
    1061                    .dwpsn  file "../src/loadfollow.c",line 179,column 5,is_stmt,isa 0
    1062 00027e 4292          MOV.W     &H2_util_desired+0,&H2_util_wanted+0 ; [] |179| 
         000280 0000!
         000282 0000!
    1063 000284 4292          MOV.W     &H2_util_desired+2,&H2_util_wanted+2 ; [] |179| 
         000286 0002!
         000288 0002!
    1064                    .dwpsn  file "../src/loadfollow.c",line 180,column 5,is_stmt,isa 0
    1065 00028a 421C          MOV.W     &H2_util_desired+0,r12 ; [] |180| 
         00028c 0000!
    1066 00028e 421D          MOV.W     &H2_util_desired+2,r13 ; [] |180| 
         000290 0002!
    1067            $C$DW$80        .dwtag  DW_TAG_TI_branch
    1068                    .dwattr $C$DW$80, DW_AT_low_pc(0x00)
    1069                    .dwattr $C$DW$80, DW_AT_name("__mspabi_cvtfd")
    1070                    .dwattr $C$DW$80, DW_AT_TI_call
    1071            
MSP430 Assembler PC v21.6.1 Tue Dec 20 13:46:05 2022

Copyright (c) 2003-2018 Texas Instruments Incorporated
loadfollow.asm                                                       PAGE   23

    1072 000292 13B0!         CALLA     #__mspabi_cvtfd       ; [] |180| 
         000294 0000 
    1073                                                      ; [] |180| 
    1074 000296 0CC8          MOVA      r12,r8                ; [] |180| 
    1075 000298 0DC9          MOVA      r13,r9                ; [] |180| 
    1076 00029a 0ECA          MOVA      r14,r10               ; [] |180| 
    1077 00029c 0FCB          MOVA      r15,r11               ; [] |180| 
    1078 00029e 403C          MOV.W     #5243,r12             ; [] |180| 
         0002a0 147B 
    1079 0002a2 403D          MOV.W     #18350,r13            ; [] |180| 
         0002a4 47AE 
    1080 0002a6 403E          MOV.W     #31457,r14            ; [] |180| 
         0002a8 7AE1 
    1081 0002aa 403F          MOV.W     #16260,r15            ; [] |180| 
         0002ac 3F84 
    1082            $C$DW$81        .dwtag  DW_TAG_TI_branch
    1083                    .dwattr $C$DW$81, DW_AT_low_pc(0x00)
    1084                    .dwattr $C$DW$81, DW_AT_name("__mspabi_addd")
    1085                    .dwattr $C$DW$81, DW_AT_TI_call
    1086            
    1087 0002ae 13B0!         CALLA     #__mspabi_addd        ; [] |180| 
         0002b0 0000 
    1088                                                      ; [] |180| 
    1089            $C$DW$82        .dwtag  DW_TAG_TI_branch
    1090                    .dwattr $C$DW$82, DW_AT_low_pc(0x00)
    1091                    .dwattr $C$DW$82, DW_AT_name("__mspabi_cvtdf")
    1092                    .dwattr $C$DW$82, DW_AT_TI_call
    1093            
    1094 0002b2 13B0!         CALLA     #__mspabi_cvtdf       ; [] |180| 
         0002b4 0000 
    1095                                                      ; [] |180| 
    1096 0002b6 4C82          MOV.W     r12,&H2_Util_Max+0    ; [] |180| 
         0002b8 0000!
    1097 0002ba 4D82          MOV.W     r13,&H2_Util_Max+2    ; [] |180| 
         0002bc 0002!
    1098                    .dwpsn  file "../src/loadfollow.c",line 181,column 5,is_stmt,isa 0
    1099 0002be 4382          MOV.W     #0,&H2_ADJ+0          ; [] |181| 
         0002c0 0000!
    1100 0002c2 4382          MOV.W     #0,&H2_ADJ+2          ; [] |181| 
         0002c4 0002!
    1101            ;* --------------------------------------------------------------------------*
    1102 0002c6       $C$L10:    
    1103                    .dwpsn  file "../src/loadfollow.c",line 185,column 3,is_stmt,isa 0
    1104 0002c6 421C          MOV.W     &H2_util_wanted+0,r12 ; [] |185| 
         0002c8 0000!
    1105 0002ca 421D          MOV.W     &H2_util_wanted+2,r13 ; [] |185| 
         0002cc 0002!
    1106 0002ce 421E          MOV.W     &H2_ADJ+0,r14         ; [] |185| 
         0002d0 0000!
    1107 0002d2 421F          MOV.W     &H2_ADJ+2,r15         ; [] |185| 
         0002d4 0002!
    1108            $C$DW$83        .dwtag  DW_TAG_TI_branch
    1109                    .dwattr $C$DW$83, DW_AT_low_pc(0x00)
    1110                    .dwattr $C$DW$83, DW_AT_name("__mspabi_addf")
    1111                    .dwattr $C$DW$83, DW_AT_TI_call
MSP430 Assembler PC v21.6.1 Tue Dec 20 13:46:05 2022

Copyright (c) 2003-2018 Texas Instruments Incorporated
loadfollow.asm                                                       PAGE   24

    1112            
    1113 0002d6 13B0!         CALLA     #__mspabi_addf        ; [] |185| 
         0002d8 0000 
    1114                                                      ; [] |185| 
    1115 0002da 0CCE          MOVA      r12,r14               ; [] |185| 
    1116 0002dc 0DCF          MOVA      r13,r15               ; [] |185| 
    1117 0002de 421C          MOV.W     &H2_Util_Max+0,r12    ; [] |185| 
         0002e0 0000!
    1118 0002e2 421D          MOV.W     &H2_Util_Max+2,r13    ; [] |185| 
         0002e4 0002!
    1119            $C$DW$84        .dwtag  DW_TAG_TI_branch
    1120                    .dwattr $C$DW$84, DW_AT_low_pc(0x00)
    1121                    .dwattr $C$DW$84, DW_AT_name("__mspabi_cmpf")
    1122                    .dwattr $C$DW$84, DW_AT_TI_call
    1123            
    1124 0002e6 13B0!         CALLA     #__mspabi_cmpf        ; [] |185| 
         0002e8 0000 
    1125                                                      ; [] |185| 
    1126 0002ea 930C          TST.W     r12                   ; [] |185| 
    1127 0002ec 3888          JL        $C$L12                ; [] |185| 
    1128                                                      ; [] |185| 
    1129            ;* --------------------------------------------------------------------------*
    1130                    .dwpsn  file "../src/loadfollow.c",line 190,column 8,is_stmt,isa 0
    1131 0002ee 421C          MOV.W     &H2_util_wanted+0,r12 ; [] |190| 
         0002f0 0000!
    1132 0002f2 421D          MOV.W     &H2_util_wanted+2,r13 ; [] |190| 
         0002f4 0002!
    1133 0002f6 421E          MOV.W     &H2_ADJ+0,r14         ; [] |190| 
         0002f8 0000!
    1134 0002fa 421F          MOV.W     &H2_ADJ+2,r15         ; [] |190| 
         0002fc 0002!
    1135            $C$DW$85        .dwtag  DW_TAG_TI_branch
    1136                    .dwattr $C$DW$85, DW_AT_low_pc(0x00)
    1137                    .dwattr $C$DW$85, DW_AT_name("__mspabi_addf")
    1138                    .dwattr $C$DW$85, DW_AT_TI_call
    1139            
    1140 0002fe 13B0!         CALLA     #__mspabi_addf        ; [] |190| 
         000300 0000 
    1141                                                      ; [] |190| 
    1142            $C$DW$86        .dwtag  DW_TAG_TI_branch
    1143                    .dwattr $C$DW$86, DW_AT_low_pc(0x00)
    1144                    .dwattr $C$DW$86, DW_AT_name("__mspabi_cvtfd")
    1145                    .dwattr $C$DW$86, DW_AT_TI_call
    1146            
    1147 000302 13B0!         CALLA     #__mspabi_cvtfd       ; [] |190| 
         000304 0000 
    1148                                                      ; [] |190| 
    1149 000306 0CC8          MOVA      r12,r8                ; [] |190| 
    1150 000308 0DC9          MOVA      r13,r9                ; [] |190| 
    1151 00030a 0ECA          MOVA      r14,r10               ; [] |190| 
    1152 00030c 0FCB          MOVA      r15,r11               ; [] |190| 
    1153 00030e 403C          MOV.W     #39322,r12            ; [] |190| 
         000310 999A 
    1154 000312 403D          MOV.W     #39321,r13            ; [] |190| 
         000314 9999 
MSP430 Assembler PC v21.6.1 Tue Dec 20 13:46:05 2022

Copyright (c) 2003-2018 Texas Instruments Incorporated
loadfollow.asm                                                       PAGE   25

    1155 000316 403E          MOV.W     #39321,r14            ; [] |190| 
         000318 9999 
    1156 00031a 403F          MOV.W     #16313,r15            ; [] |190| 
         00031c 3FB9 
    1157            $C$DW$87        .dwtag  DW_TAG_TI_branch
    1158                    .dwattr $C$DW$87, DW_AT_low_pc(0x00)
    1159                    .dwattr $C$DW$87, DW_AT_name("__mspabi_cmpd")
    1160                    .dwattr $C$DW$87, DW_AT_TI_call
    1161            
    1162 00031e 13B0!         CALLA     #__mspabi_cmpd        ; [] |190| 
         000320 0000 
    1163                                                      ; [] |190| 
    1164 000322 930C          TST.W     r12                   ; [] |190| 
    1165 000324 3836          JL        $C$L11                ; [] |190| 
    1166                                                      ; [] |190| 
    1167            ;* --------------------------------------------------------------------------*
    1168                    .dwpsn  file "../src/loadfollow.c",line 197,column 5,is_stmt,isa 0
    1169 000326 421C          MOV.W     &FC_Current+0,r12     ; [] |197| 
         000328 0000!
    1170 00032a 421D          MOV.W     &FC_Current+2,r13     ; [] |197| 
         00032c 0002!
    1171 00032e 430E          MOV.W     #0,r14                ; [] |197| 
    1172 000330 403F          MOV.W     #16704,r15            ; [] |197| 
         000332 4140 
    1173            $C$DW$88        .dwtag  DW_TAG_TI_branch
    1174                    .dwattr $C$DW$88, DW_AT_low_pc(0x00)
    1175                    .dwattr $C$DW$88, DW_AT_name("__mspabi_mpyf")
    1176                    .dwattr $C$DW$88, DW_AT_TI_call
    1177            
    1178 000334 13B0!         CALLA     #__mspabi_mpyf        ; [] |197| 
         000336 0000 
    1179                                                      ; [] |197| 
    1180            $C$DW$89        .dwtag  DW_TAG_TI_branch
    1181                    .dwattr $C$DW$89, DW_AT_low_pc(0x00)
    1182                    .dwattr $C$DW$89, DW_AT_name("__mspabi_cvtfd")
    1183                    .dwattr $C$DW$89, DW_AT_TI_call
    1184            
    1185 000338 13B0!         CALLA     #__mspabi_cvtfd       ; [] |197| 
         00033a 0000 
    1186                                                      ; [] |197| 
    1187 00033c 0CC4          MOVA      r12,r4                ; [] |197| 
    1188 00033e 0DC5          MOVA      r13,r5                ; [] |197| 
    1189 000340 0EC6          MOVA      r14,r6                ; [] |197| 
    1190 000342 0FC7          MOVA      r15,r7                ; [] |197| 
    1191 000344 421C          MOV.W     &H2_util_wanted+0,r12 ; [] |197| 
         000346 0000!
    1192 000348 421D          MOV.W     &H2_util_wanted+2,r13 ; [] |197| 
         00034a 0002!
    1193 00034c 421E          MOV.W     &H2_ADJ+0,r14         ; [] |197| 
         00034e 0000!
    1194 000350 421F          MOV.W     &H2_ADJ+2,r15         ; [] |197| 
         000352 0002!
    1195            $C$DW$90        .dwtag  DW_TAG_TI_branch
    1196                    .dwattr $C$DW$90, DW_AT_low_pc(0x00)
    1197                    .dwattr $C$DW$90, DW_AT_name("__mspabi_addf")
MSP430 Assembler PC v21.6.1 Tue Dec 20 13:46:05 2022

Copyright (c) 2003-2018 Texas Instruments Incorporated
loadfollow.asm                                                       PAGE   26

    1198                    .dwattr $C$DW$90, DW_AT_TI_call
    1199            
    1200 000354 13B0!         CALLA     #__mspabi_addf        ; [] |197| 
         000356 0000 
    1201                                                      ; [] |197| 
    1202            $C$DW$91        .dwtag  DW_TAG_TI_branch
    1203                    .dwattr $C$DW$91, DW_AT_low_pc(0x00)
    1204                    .dwattr $C$DW$91, DW_AT_name("__mspabi_cvtfd")
    1205                    .dwattr $C$DW$91, DW_AT_TI_call
    1206            
    1207 000358 13B0!         CALLA     #__mspabi_cvtfd       ; [] |197| 
         00035a 0000 
    1208                                                      ; [] |197| 
    1209 00035c 0CC8          MOVA      r12,r8                ; [] |197| 
    1210 00035e 0DC9          MOVA      r13,r9                ; [] |197| 
    1211 000360 0ECA          MOVA      r14,r10               ; [] |197| 
    1212 000362 0FCB          MOVA      r15,r11               ; [] |197| 
    1213 000364 403C          MOV.W     #46347,r12            ; [] |197| 
         000366 B50B 
    1214 000368 403D          MOV.W     #31142,r13            ; [] |197| 
         00036a 79A6 
    1215 00036c 403E          MOV.W     #43463,r14            ; [] |197| 
         00036e A9C7 
    1216 000370 403F          MOV.W     #16388,r15            ; [] |197| 
         000372 4004 
    1217            $C$DW$92        .dwtag  DW_TAG_TI_branch
    1218                    .dwattr $C$DW$92, DW_AT_low_pc(0x00)
    1219                    .dwattr $C$DW$92, DW_AT_name("__mspabi_mpyd")
    1220                    .dwattr $C$DW$92, DW_AT_TI_call
    1221            
    1222 000374 13B0!         CALLA     #__mspabi_mpyd        ; [] |197| 
         000376 0000 
    1223                                                      ; [] |197| 
    1224 000378 04C8          MOVA      r4,r8                 ; [] |197| 
    1225 00037a 05C9          MOVA      r5,r9                 ; [] |197| 
    1226 00037c 06CA          MOVA      r6,r10                ; [] |197| 
    1227 00037e 07CB          MOVA      r7,r11                ; [] |197| 
    1228            $C$DW$93        .dwtag  DW_TAG_TI_branch
    1229                    .dwattr $C$DW$93, DW_AT_low_pc(0x00)
    1230                    .dwattr $C$DW$93, DW_AT_name("__mspabi_divd")
    1231                    .dwattr $C$DW$93, DW_AT_TI_call
    1232            
    1233 000380 13B0!         CALLA     #__mspabi_divd        ; [] |197| 
         000382 0000 
    1234                                                      ; [] |197| 
    1235            $C$DW$94        .dwtag  DW_TAG_TI_branch
    1236                    .dwattr $C$DW$94, DW_AT_low_pc(0x00)
    1237                    .dwattr $C$DW$94, DW_AT_name("__mspabi_cvtdf")
    1238                    .dwattr $C$DW$94, DW_AT_TI_call
    1239            
    1240 000384 13B0!         CALLA     #__mspabi_cvtdf       ; [] |197| 
         000386 0000 
    1241                                                      ; [] |197| 
    1242 000388 4C82          MOV.W     r12,&main_fuel_flow+0 ; [] |197| 
         00038a 0000!
MSP430 Assembler PC v21.6.1 Tue Dec 20 13:46:05 2022

Copyright (c) 2003-2018 Texas Instruments Incorporated
loadfollow.asm                                                       PAGE   27

    1243 00038c 4D82          MOV.W     r13,&main_fuel_flow+2 ; [] |197| 
         00038e 0002!
    1244 000390 3C73          JMP       $C$L13                ; [] |197| 
    1245                                                      ; [] |197| 
    1246            ;* --------------------------------------------------------------------------*
    1247 000392       $C$L11:    
    1248                    .dwpsn  file "../src/loadfollow.c",line 192,column 5,is_stmt,isa 0
    1249 000392 421C          MOV.W     &FC_Current+0,r12     ; [] |192| 
         000394 0000!
    1250 000396 421D          MOV.W     &FC_Current+2,r13     ; [] |192| 
         000398 0002!
    1251 00039a 430E          MOV.W     #0,r14                ; [] |192| 
    1252 00039c 403F          MOV.W     #16704,r15            ; [] |192| 
         00039e 4140 
    1253            $C$DW$95        .dwtag  DW_TAG_TI_branch
    1254                    .dwattr $C$DW$95, DW_AT_low_pc(0x00)
    1255                    .dwattr $C$DW$95, DW_AT_name("__mspabi_mpyf")
    1256                    .dwattr $C$DW$95, DW_AT_TI_call
    1257            
    1258 0003a0 13B0!         CALLA     #__mspabi_mpyf        ; [] |192| 
         0003a2 0000 
    1259                                                      ; [] |192| 
    1260            $C$DW$96        .dwtag  DW_TAG_TI_branch
    1261                    .dwattr $C$DW$96, DW_AT_low_pc(0x00)
    1262                    .dwattr $C$DW$96, DW_AT_name("__mspabi_cvtfd")
    1263                    .dwattr $C$DW$96, DW_AT_TI_call
    1264            
    1265 0003a4 13B0!         CALLA     #__mspabi_cvtfd       ; [] |192| 
         0003a6 0000 
    1266                                                      ; [] |192| 
    1267 0003a8 0CC8          MOVA      r12,r8                ; [] |192| 
    1268 0003aa 0DC9          MOVA      r13,r9                ; [] |192| 
    1269 0003ac 0ECA          MOVA      r14,r10               ; [] |192| 
    1270 0003ae 0FCB          MOVA      r15,r11               ; [] |192| 
    1271 0003b0 403C          MOV.W     #37078,r12            ; [] |192| 
         0003b2 90D6 
    1272 0003b4 403D          MOV.W     #51128,r13            ; [] |192| 
         0003b6 C7B8 
    1273 0003b8 403E          MOV.W     #34770,r14            ; [] |192| 
         0003ba 87D2 
    1274 0003bc 403F          MOV.W     #16336,r15            ; [] |192| 
         0003be 3FD0 
    1275            $C$DW$97        .dwtag  DW_TAG_TI_branch
    1276                    .dwattr $C$DW$97, DW_AT_low_pc(0x00)
    1277                    .dwattr $C$DW$97, DW_AT_name("__mspabi_divd")
    1278                    .dwattr $C$DW$97, DW_AT_TI_call
    1279            
    1280 0003c0 13B0!         CALLA     #__mspabi_divd        ; [] |192| 
         0003c2 0000 
    1281                                                      ; [] |192| 
    1282            $C$DW$98        .dwtag  DW_TAG_TI_branch
    1283                    .dwattr $C$DW$98, DW_AT_low_pc(0x00)
    1284                    .dwattr $C$DW$98, DW_AT_name("__mspabi_cvtdf")
    1285                    .dwattr $C$DW$98, DW_AT_TI_call
    1286            
MSP430 Assembler PC v21.6.1 Tue Dec 20 13:46:05 2022

Copyright (c) 2003-2018 Texas Instruments Incorporated
loadfollow.asm                                                       PAGE   28

    1287 0003c4 13B0!         CALLA     #__mspabi_cvtdf       ; [] |192| 
         0003c6 0000 
    1288                                                      ; [] |192| 
    1289 0003c8 4C82          MOV.W     r12,&main_fuel_flow+0 ; [] |192| 
         0003ca 0000!
    1290 0003cc 4D82          MOV.W     r13,&main_fuel_flow+2 ; [] |192| 
         0003ce 0002!
    1291                    .dwpsn  file "../src/loadfollow.c",line 193,column 5,is_stmt,isa 0
    1292 0003d0 421C          MOV.W     &H2_util_wanted+0,r12 ; [] |193| 
         0003d2 0000!
    1293 0003d4 421D          MOV.W     &H2_util_wanted+2,r13 ; [] |193| 
         0003d6 0002!
    1294            $C$DW$99        .dwtag  DW_TAG_TI_branch
    1295                    .dwattr $C$DW$99, DW_AT_low_pc(0x00)
    1296                    .dwattr $C$DW$99, DW_AT_name("__mspabi_cvtfd")
    1297                    .dwattr $C$DW$99, DW_AT_TI_call
    1298            
    1299 0003d8 13B0!         CALLA     #__mspabi_cvtfd       ; [] |193| 
         0003da 0000 
    1300                                                      ; [] |193| 
    1301 0003dc 4038          MOV.W     #39322,r8             ; [] |193| 
         0003de 999A 
    1302 0003e0 4039          MOV.W     #39321,r9             ; [] |193| 
         0003e2 9999 
    1303 0003e4 403A          MOV.W     #39321,r10            ; [] |193| 
         0003e6 9999 
    1304 0003e8 403B          MOV.W     #16313,r11            ; [] |193| 
         0003ea 3FB9 
    1305            $C$DW$100       .dwtag  DW_TAG_TI_branch
    1306                    .dwattr $C$DW$100, DW_AT_low_pc(0x00)
    1307                    .dwattr $C$DW$100, DW_AT_name("__mspabi_subd")
    1308                    .dwattr $C$DW$100, DW_AT_TI_call
    1309            
    1310 0003ec 13B0!         CALLA     #__mspabi_subd        ; [] |193| 
         0003ee 0000 
    1311                                                      ; [] |193| 
    1312            $C$DW$101       .dwtag  DW_TAG_TI_branch
    1313                    .dwattr $C$DW$101, DW_AT_low_pc(0x00)
    1314                    .dwattr $C$DW$101, DW_AT_name("__mspabi_cvtdf")
    1315                    .dwattr $C$DW$101, DW_AT_TI_call
    1316            
    1317 0003f0 13B0!         CALLA     #__mspabi_cvtdf       ; [] |193| 
         0003f2 0000 
    1318                                                      ; [] |193| 
    1319 0003f4 4C82          MOV.W     r12,&H2_ADJ+0         ; [] |193| 
         0003f6 0000!
    1320 0003f8 4D82          MOV.W     r13,&H2_ADJ+2         ; [] |193| 
         0003fa 0002!
    1321 0003fc 3C3D          JMP       $C$L13                ; [] 
    1322                                                      ; [] 
    1323            ;* --------------------------------------------------------------------------*
    1324 0003fe       $C$L12:    
    1325                    .dwpsn  file "../src/loadfollow.c",line 187,column 5,is_stmt,isa 0
    1326 0003fe 421C          MOV.W     &FC_Current+0,r12     ; [] |187| 
         000400 0000!
MSP430 Assembler PC v21.6.1 Tue Dec 20 13:46:05 2022

Copyright (c) 2003-2018 Texas Instruments Incorporated
loadfollow.asm                                                       PAGE   29

    1327 000402 421D          MOV.W     &FC_Current+2,r13     ; [] |187| 
         000404 0002!
    1328 000406 430E          MOV.W     #0,r14                ; [] |187| 
    1329 000408 403F          MOV.W     #16704,r15            ; [] |187| 
         00040a 4140 
    1330            $C$DW$102       .dwtag  DW_TAG_TI_branch
    1331                    .dwattr $C$DW$102, DW_AT_low_pc(0x00)
    1332                    .dwattr $C$DW$102, DW_AT_name("__mspabi_mpyf")
    1333                    .dwattr $C$DW$102, DW_AT_TI_call
    1334            
    1335 00040c 13B0!         CALLA     #__mspabi_mpyf        ; [] |187| 
         00040e 0000 
    1336                                                      ; [] |187| 
    1337            $C$DW$103       .dwtag  DW_TAG_TI_branch
    1338                    .dwattr $C$DW$103, DW_AT_low_pc(0x00)
    1339                    .dwattr $C$DW$103, DW_AT_name("__mspabi_cvtfd")
    1340                    .dwattr $C$DW$103, DW_AT_TI_call
    1341            
    1342 000410 13B0!         CALLA     #__mspabi_cvtfd       ; [] |187| 
         000412 0000 
    1343                                                      ; [] |187| 
    1344 000414 0CC4          MOVA      r12,r4                ; [] |187| 
    1345 000416 0DC5          MOVA      r13,r5                ; [] |187| 
    1346 000418 0EC6          MOVA      r14,r6                ; [] |187| 
    1347 00041a 0FC7          MOVA      r15,r7                ; [] |187| 
    1348 00041c 421C          MOV.W     &H2_Util_Max+0,r12    ; [] |187| 
         00041e 0000!
    1349 000420 421D          MOV.W     &H2_Util_Max+2,r13    ; [] |187| 
         000422 0002!
    1350            $C$DW$104       .dwtag  DW_TAG_TI_branch
    1351                    .dwattr $C$DW$104, DW_AT_low_pc(0x00)
    1352                    .dwattr $C$DW$104, DW_AT_name("__mspabi_cvtfd")
    1353                    .dwattr $C$DW$104, DW_AT_TI_call
    1354            
    1355 000424 13B0!         CALLA     #__mspabi_cvtfd       ; [] |187| 
         000426 0000 
    1356                                                      ; [] |187| 
    1357 000428 0CC8          MOVA      r12,r8                ; [] |187| 
    1358 00042a 0DC9          MOVA      r13,r9                ; [] |187| 
    1359 00042c 0ECA          MOVA      r14,r10               ; [] |187| 
    1360 00042e 0FCB          MOVA      r15,r11               ; [] |187| 
    1361 000430 403C          MOV.W     #46347,r12            ; [] |187| 
         000432 B50B 
    1362 000434 403D          MOV.W     #31142,r13            ; [] |187| 
         000436 79A6 
    1363 000438 403E          MOV.W     #43463,r14            ; [] |187| 
         00043a A9C7 
    1364 00043c 403F          MOV.W     #16388,r15            ; [] |187| 
         00043e 4004 
    1365            $C$DW$105       .dwtag  DW_TAG_TI_branch
    1366                    .dwattr $C$DW$105, DW_AT_low_pc(0x00)
    1367                    .dwattr $C$DW$105, DW_AT_name("__mspabi_mpyd")
    1368                    .dwattr $C$DW$105, DW_AT_TI_call
    1369            
    1370 000440 13B0!         CALLA     #__mspabi_mpyd        ; [] |187| 
MSP430 Assembler PC v21.6.1 Tue Dec 20 13:46:05 2022

Copyright (c) 2003-2018 Texas Instruments Incorporated
loadfollow.asm                                                       PAGE   30

         000442 0000 
    1371                                                      ; [] |187| 
    1372 000444 04C8          MOVA      r4,r8                 ; [] |187| 
    1373 000446 05C9          MOVA      r5,r9                 ; [] |187| 
    1374 000448 06CA          MOVA      r6,r10                ; [] |187| 
    1375 00044a 07CB          MOVA      r7,r11                ; [] |187| 
    1376            $C$DW$106       .dwtag  DW_TAG_TI_branch
    1377                    .dwattr $C$DW$106, DW_AT_low_pc(0x00)
    1378                    .dwattr $C$DW$106, DW_AT_name("__mspabi_divd")
    1379                    .dwattr $C$DW$106, DW_AT_TI_call
    1380            
    1381 00044c 13B0!         CALLA     #__mspabi_divd        ; [] |187| 
         00044e 0000 
    1382                                                      ; [] |187| 
    1383            $C$DW$107       .dwtag  DW_TAG_TI_branch
    1384                    .dwattr $C$DW$107, DW_AT_low_pc(0x00)
    1385                    .dwattr $C$DW$107, DW_AT_name("__mspabi_cvtdf")
    1386                    .dwattr $C$DW$107, DW_AT_TI_call
    1387            
    1388 000450 13B0!         CALLA     #__mspabi_cvtdf       ; [] |187| 
         000452 0000 
    1389                                                      ; [] |187| 
    1390 000454 4C82          MOV.W     r12,&main_fuel_flow+0 ; [] |187| 
         000456 0000!
    1391 000458 4D82          MOV.W     r13,&main_fuel_flow+2 ; [] |187| 
         00045a 0002!
    1392                    .dwpsn  file "../src/loadfollow.c",line 188,column 5,is_stmt,isa 0
    1393 00045c 421C          MOV.W     &H2_Util_Max+0,r12    ; [] |188| 
         00045e 0000!
    1394 000460 421D          MOV.W     &H2_Util_Max+2,r13    ; [] |188| 
         000462 0002!
    1395 000464 421E          MOV.W     &H2_util_wanted+0,r14 ; [] |188| 
         000466 0000!
    1396 000468 421F          MOV.W     &H2_util_wanted+2,r15 ; [] |188| 
         00046a 0002!
    1397            $C$DW$108       .dwtag  DW_TAG_TI_branch
    1398                    .dwattr $C$DW$108, DW_AT_low_pc(0x00)
    1399                    .dwattr $C$DW$108, DW_AT_name("__mspabi_subf")
    1400                    .dwattr $C$DW$108, DW_AT_TI_call
    1401            
    1402 00046c 13B0!         CALLA     #__mspabi_subf        ; [] |188| 
         00046e 0000 
    1403                                                      ; [] |188| 
    1404 000470 4C82          MOV.W     r12,&H2_ADJ+0         ; [] |188| 
         000472 0000!
    1405 000474 4D82          MOV.W     r13,&H2_ADJ+2         ; [] |188| 
         000476 0002!
    1406            ;* --------------------------------------------------------------------------*
    1407 000478       $C$L13:    
    1408                    .dwpsn  file "../src/loadfollow.c",line 200,column 24,is_stmt,isa 0
    1409 000478 421C          MOV.W     &TC2_temp+0,r12       ; [] |200| 
         00047a 0000!
    1410 00047c 421D          MOV.W     &TC2_temp+2,r13       ; [] |200| 
         00047e 0002!
    1411 000480 430E          MOV.W     #0,r14                ; [] |200| 
MSP430 Assembler PC v21.6.1 Tue Dec 20 13:46:05 2022

Copyright (c) 2003-2018 Texas Instruments Incorporated
loadfollow.asm                                                       PAGE   31

    1412 000482 403F          MOV.W     #17274,r15            ; [] |200| 
         000484 437A 
    1413            $C$DW$109       .dwtag  DW_TAG_TI_branch
    1414                    .dwattr $C$DW$109, DW_AT_low_pc(0x00)
    1415                    .dwattr $C$DW$109, DW_AT_name("__mspabi_cmpf")
    1416                    .dwattr $C$DW$109, DW_AT_TI_call
    1417            
    1418 000486 13B0!         CALLA     #__mspabi_cmpf        ; [] |200| 
         000488 0000 
    1419                                                      ; [] |200| 
    1420 00048a 930C          TST.W     r12                   ; [] |200| 
    1421 00048c 3403          JGE       $C$L14                ; [] |200| 
    1422                                                      ; [] |200| 
    1423            ;* --------------------------------------------------------------------------*
    1424 00048e 4036          MOV.W     #17076,r6             ; [] |200| 
         000490 42B4 
    1425 000492 3C02          JMP       $C$L15                ; [] |200| 
    1426                                                      ; [] |200| 
    1427            ;* --------------------------------------------------------------------------*
    1428 000494       $C$L14:    
    1429 000494 4036          MOV.W     #17056,r6             ; [] |200| 
         000496 42A0 
    1430            ;* --------------------------------------------------------------------------*
    1431 000498       $C$L15:    
    1432                    .dwpsn  file "../src/loadfollow.c",line 202,column 3,is_stmt,isa 0
    1433 000498 421C          MOV.W     &main_fuel_flow+0,r12 ; [] |202| 
         00049a 0000!
    1434 00049c 421D          MOV.W     &main_fuel_flow+2,r13 ; [] |202| 
         00049e 0002!
    1435 0004a0 430E          MOV.W     #0,r14                ; [] |200| 
    1436 0004a2 06CF          MOVA      r6,r15                ; [] |202| 
    1437            $C$DW$110       .dwtag  DW_TAG_TI_branch
    1438                    .dwattr $C$DW$110, DW_AT_low_pc(0x00)
    1439                    .dwattr $C$DW$110, DW_AT_name("__mspabi_cmpf")
    1440                    .dwattr $C$DW$110, DW_AT_TI_call
    1441            
    1442 0004a4 13B0!         CALLA     #__mspabi_cmpf        ; [] |202| 
         0004a6 0000 
    1443                                                      ; [] |202| 
    1444 0004a8 930C          TST.W     r12                   ; [] |202| 
    1445 0004aa 381A          JL        $C$L16                ; [] |202| 
    1446                                                      ; [] |202| 
    1447            ;* --------------------------------------------------------------------------*
    1448                    .dwpsn  file "../src/loadfollow.c",line 202,column 44,is_stmt,isa 0
    1449 0004ac 421C          MOV.W     &H2_ADJ+0,r12         ; [] |202| 
         0004ae 0000!
    1450 0004b0 421D          MOV.W     &H2_ADJ+2,r13         ; [] |202| 
         0004b2 0002!
    1451            $C$DW$111       .dwtag  DW_TAG_TI_branch
    1452                    .dwattr $C$DW$111, DW_AT_low_pc(0x00)
    1453                    .dwattr $C$DW$111, DW_AT_name("__mspabi_cvtfd")
    1454                    .dwattr $C$DW$111, DW_AT_TI_call
    1455            
    1456 0004b4 13B0!         CALLA     #__mspabi_cvtfd       ; [] |202| 
         0004b6 0000 
MSP430 Assembler PC v21.6.1 Tue Dec 20 13:46:05 2022

Copyright (c) 2003-2018 Texas Instruments Incorporated
loadfollow.asm                                                       PAGE   32

    1457                                                      ; [] |202| 
    1458 0004b8 0CC8          MOVA      r12,r8                ; [] |202| 
    1459 0004ba 0DC9          MOVA      r13,r9                ; [] |202| 
    1460 0004bc 0ECA          MOVA      r14,r10               ; [] |202| 
    1461 0004be 0FCB          MOVA      r15,r11               ; [] |202| 
    1462 0004c0 403C          MOV.W     #43516,r12            ; [] |202| 
         0004c2 A9FC 
    1463 0004c4 403D          MOV.W     #54001,r13            ; [] |202| 
         0004c6 D2F1 
    1464 0004c8 403E          MOV.W     #25165,r14            ; [] |202| 
         0004ca 624D 
    1465 0004cc 403F          MOV.W     #16208,r15            ; [] |202| 
         0004ce 3F50 
    1466            $C$DW$112       .dwtag  DW_TAG_TI_branch
    1467                    .dwattr $C$DW$112, DW_AT_low_pc(0x00)
    1468                    .dwattr $C$DW$112, DW_AT_name("__mspabi_addd")
    1469                    .dwattr $C$DW$112, DW_AT_TI_call
    1470            
    1471 0004d0 13B0!         CALLA     #__mspabi_addd        ; [] |202| 
         0004d2 0000 
    1472                                                      ; [] |202| 
    1473            $C$DW$113       .dwtag  DW_TAG_TI_branch
    1474                    .dwattr $C$DW$113, DW_AT_low_pc(0x00)
    1475                    .dwattr $C$DW$113, DW_AT_name("__mspabi_cvtdf")
    1476                    .dwattr $C$DW$113, DW_AT_TI_call
    1477            
    1478 0004d4 13B0!         CALLA     #__mspabi_cvtdf       ; [] |202| 
         0004d6 0000 
    1479                                                      ; [] |202| 
    1480 0004d8 4C82          MOV.W     r12,&H2_ADJ+0         ; [] |202| 
         0004da 0000!
    1481 0004dc 4D82          MOV.W     r13,&H2_ADJ+2         ; [] |202| 
         0004de 0002!
    1482            ;* --------------------------------------------------------------------------*
    1483 0004e0       $C$L16:    
    1484                    .dwpsn  file "../src/loadfollow.c",line 206,column 3,is_stmt,isa 0
    1485 0004e0 403C          MOV.W     #7,r12                ; [] |206| 
         0004e2 0007 
    1486 0004e4 521C          ADD.W     &fc_run_temp_max+0,r12 ; [] |206| 
         0004e6 0000!
    1487            $C$DW$114       .dwtag  DW_TAG_TI_branch
    1488                    .dwattr $C$DW$114, DW_AT_low_pc(0x00)
    1489                    .dwattr $C$DW$114, DW_AT_name("__mspabi_fltif")
    1490                    .dwattr $C$DW$114, DW_AT_TI_call
    1491            
    1492 0004e8 13B0!         CALLA     #__mspabi_fltif       ; [] |206| 
         0004ea 0000 
    1493                                                      ; [] |206| 
    1494 0004ec 0CCE          MOVA      r12,r14               ; [] |206| 
    1495 0004ee 0DCF          MOVA      r13,r15               ; [] |206| 
    1496 0004f0 421C          MOV.W     &TC1_temp+0,r12       ; [] |206| 
         0004f2 0000!
    1497 0004f4 421D          MOV.W     &TC1_temp+2,r13       ; [] |206| 
         0004f6 0002!
    1498            $C$DW$115       .dwtag  DW_TAG_TI_branch
MSP430 Assembler PC v21.6.1 Tue Dec 20 13:46:05 2022

Copyright (c) 2003-2018 Texas Instruments Incorporated
loadfollow.asm                                                       PAGE   33

    1499                    .dwattr $C$DW$115, DW_AT_low_pc(0x00)
    1500                    .dwattr $C$DW$115, DW_AT_name("__mspabi_cmpf")
    1501                    .dwattr $C$DW$115, DW_AT_TI_call
    1502            
    1503 0004f8 13B0!         CALLA     #__mspabi_cmpf        ; [] |206| 
         0004fa 0000 
    1504                                                      ; [] |206| 
    1505 0004fc 930C          TST.W     r12                   ; [] |206| 
    1506 0004fe 3810          JL        $C$L17                ; [] |206| 
    1507                                                      ; [] |206| 
    1508            ;* --------------------------------------------------------------------------*
    1509 000500 421C          MOV.W     &main_fuel_flow+0,r12 ; [] |206| 
         000502 0000!
    1510 000504 421D          MOV.W     &main_fuel_flow+2,r13 ; [] |206| 
         000506 0002!
    1511 000508 430E          MOV.W     #0,r14                ; [] |206| 
    1512 00050a 403F          MOV.W     #17046,r15            ; [] |206| 
         00050c 4296 
    1513            $C$DW$116       .dwtag  DW_TAG_TI_branch
    1514                    .dwattr $C$DW$116, DW_AT_low_pc(0x00)
    1515                    .dwattr $C$DW$116, DW_AT_name("__mspabi_cmpf")
    1516                    .dwattr $C$DW$116, DW_AT_TI_call
    1517            
    1518 00050e 13B0!         CALLA     #__mspabi_cmpf        ; [] |206| 
         000510 0000 
    1519                                                      ; [] |206| 
    1520 000512 930C          TST.W     r12                   ; [] |206| 
    1521 000514 3805          JL        $C$L17                ; [] |206| 
    1522                                                      ; [] |206| 
    1523            ;* --------------------------------------------------------------------------*
    1524                    .dwpsn  file "../src/loadfollow.c",line 207,column 6,is_stmt,isa 0
    1525 000516 4382          MOV.W     #0,&main_fuel_flow+0  ; [] |207| 
         000518 0000!
    1526 00051a 40B2          MOV.W     #17046,&main_fuel_flow+2 ; [] |207| 
         00051c 4296 
         00051e 0002!
    1527            ;* --------------------------------------------------------------------------*
    1528 000520       $C$L17:    
    1529                    .dwpsn  file "../src/loadfollow.c",line 210,column 3,is_stmt,isa 0
    1530 000520 421C          MOV.W     &main_fuel_flow+0,r12 ; [] |210| 
         000522 0000!
    1531 000524 421D          MOV.W     &main_fuel_flow+2,r13 ; [] |210| 
         000526 0002!
    1532 000528 421E          MOV.W     &old_fuel_flow+0,r14  ; [] |210| 
         00052a 0000!
    1533 00052c 421F          MOV.W     &old_fuel_flow+2,r15  ; [] |210| 
         00052e 0002!
    1534            $C$DW$117       .dwtag  DW_TAG_TI_branch
    1535                    .dwattr $C$DW$117, DW_AT_low_pc(0x00)
    1536                    .dwattr $C$DW$117, DW_AT_name("__mspabi_cmpf")
    1537                    .dwattr $C$DW$117, DW_AT_TI_call
    1538            
    1539 000530 13B0!         CALLA     #__mspabi_cmpf        ; [] |210| 
         000532 0000 
    1540                                                      ; [] |210| 
MSP430 Assembler PC v21.6.1 Tue Dec 20 13:46:05 2022

Copyright (c) 2003-2018 Texas Instruments Incorporated
loadfollow.asm                                                       PAGE   34

    1541 000534 930C          TST.W     r12                   ; [] |210| 
    1542 000536 3806          JL        $C$L18                ; [] |210| 
    1543                                                      ; [] |210| 
    1544            ;* --------------------------------------------------------------------------*
    1545                    .dwpsn  file "../src/loadfollow.c",line 210,column 40,is_stmt,isa 0
    1546 000538 4292          MOV.W     &main_fuel_flow+0,&old_fuel_flow+0 ; [] |210| 
         00053a 0000!
         00053c 0000!
    1547 00053e 4292          MOV.W     &main_fuel_flow+2,&old_fuel_flow+2 ; [] |210| 
         000540 0002!
         000542 0002!
    1548            ;* --------------------------------------------------------------------------*
    1549 000544       $C$L18:    
    1550                    .dwpsn  file "../src/loadfollow.c",line 211,column 3,is_stmt,isa 0
    1551 000544 421C          MOV.W     &main_fuel_flow+0,r12 ; [] |211| 
         000546 0000!
    1552 000548 421D          MOV.W     &main_fuel_flow+2,r13 ; [] |211| 
         00054a 0002!
    1553 00054c 421E          MOV.W     &old_fuel_flow+0,r14  ; [] |211| 
         00054e 0000!
    1554 000550 421F          MOV.W     &old_fuel_flow+2,r15  ; [] |211| 
         000552 0002!
    1555            $C$DW$118       .dwtag  DW_TAG_TI_branch
    1556                    .dwattr $C$DW$118, DW_AT_low_pc(0x00)
    1557                    .dwattr $C$DW$118, DW_AT_name("__mspabi_cmpf")
    1558                    .dwattr $C$DW$118, DW_AT_TI_call
    1559            
    1560 000554 13B0!         CALLA     #__mspabi_cmpf        ; [] |211| 
         000556 0000 
    1561                                                      ; [] |211| 
    1562 000558 930C          TST.W     r12                   ; [] |211| 
    1563 00055a 346A          JGE       $C$L22                ; [] |211| 
    1564                                                      ; [] |211| 
    1565            ;* --------------------------------------------------------------------------*
    1566                    .dwpsn  file "../src/loadfollow.c",line 213,column 47,is_stmt,isa 0
    1567 00055c 421C          MOV.W     &old_fuel_flow+0,r12  ; [] |213| 
         00055e 0000!
    1568 000560 421D          MOV.W     &old_fuel_flow+2,r13  ; [] |213| 
         000562 0002!
    1569 000564 421E          MOV.W     &main_fuel_flow+0,r14 ; [] |213| 
         000566 0000!
    1570 000568 421F          MOV.W     &main_fuel_flow+2,r15 ; [] |213| 
         00056a 0002!
    1571            $C$DW$119       .dwtag  DW_TAG_TI_branch
    1572                    .dwattr $C$DW$119, DW_AT_low_pc(0x00)
    1573                    .dwattr $C$DW$119, DW_AT_name("__mspabi_subf")
    1574                    .dwattr $C$DW$119, DW_AT_TI_call
    1575            
    1576 00056c 13B0!         CALLA     #__mspabi_subf        ; [] |213| 
         00056e 0000 
    1577                                                      ; [] |213| 
    1578 000570 0CCE          MOVA      r12,r14               ; [] |213| 
    1579 000572 0DCF          MOVA      r13,r15               ; [] |213| 
    1580 000574 430C          MOV.W     #0,r12                ; [] |213| 
    1581 000576 403D          MOV.W     #16672,r13            ; [] |213| 
MSP430 Assembler PC v21.6.1 Tue Dec 20 13:46:05 2022

Copyright (c) 2003-2018 Texas Instruments Incorporated
loadfollow.asm                                                       PAGE   35

         000578 4120 
    1582            $C$DW$120       .dwtag  DW_TAG_TI_branch
    1583                    .dwattr $C$DW$120, DW_AT_low_pc(0x00)
    1584                    .dwattr $C$DW$120, DW_AT_name("__mspabi_cmpf")
    1585                    .dwattr $C$DW$120, DW_AT_TI_call
    1586            
    1587 00057a 13B0!         CALLA     #__mspabi_cmpf        ; [] |213| 
         00057c 0000 
    1588                                                      ; [] |213| 
    1589 00057e 930C          TST.W     r12                   ; [] |213| 
    1590 000580 3415          JGE       $C$L19                ; [] |213| 
    1591                                                      ; [] |213| 
    1592            ;* --------------------------------------------------------------------------*
    1593 000582 421C          MOV.W     &old_fuel_flow+0,r12  ; [] |213| 
         000584 0000!
    1594 000586 421D          MOV.W     &old_fuel_flow+2,r13  ; [] |213| 
         000588 0002!
    1595            $C$DW$121       .dwtag  DW_TAG_TI_branch
    1596                    .dwattr $C$DW$121, DW_AT_low_pc(0x00)
    1597                    .dwattr $C$DW$121, DW_AT_name("__mspabi_cvtfd")
    1598                    .dwattr $C$DW$121, DW_AT_TI_call
    1599            
    1600 00058a 13B0!         CALLA     #__mspabi_cvtfd       ; [] |213| 
         00058c 0000 
    1601                                                      ; [] |213| 
    1602 00058e 0CC8          MOVA      r12,r8                ; [] |213| 
    1603 000590 0DC9          MOVA      r13,r9                ; [] |213| 
    1604 000592 0ECA          MOVA      r14,r10               ; [] |213| 
    1605 000594 0FCB          MOVA      r15,r11               ; [] |213| 
    1606 000596 403C          MOV.W     #39322,r12            ; [] |213| 
         000598 999A 
    1607 00059a 403D          MOV.W     #39321,r13            ; [] |213| 
         00059c 9999 
    1608 00059e 403E          MOV.W     #39321,r14            ; [] |213| 
         0005a0 9999 
    1609 0005a2 403F          MOV.W     #16313,r15            ; [] |213| 
         0005a4 3FB9 
    1610            $C$DW$122       .dwtag  DW_TAG_TI_branch
    1611                    .dwattr $C$DW$122, DW_AT_low_pc(0x00)
    1612                    .dwattr $C$DW$122, DW_AT_name("__mspabi_subd")
    1613                    .dwattr $C$DW$122, DW_AT_TI_call
    1614            
    1615 0005a6 13B0!         CALLA     #__mspabi_subd        ; [] |213| 
         0005a8 0000 
    1616                                                      ; [] |213| 
    1617 0005aa 3C3C          JMP       $C$L21                ; [] |213| 
    1618                                                      ; [] |213| 
    1619            ;* --------------------------------------------------------------------------*
    1620 0005ac       $C$L19:    
    1621 0005ac 421C          MOV.W     &old_fuel_flow+0,r12  ; [] |213| 
         0005ae 0000!
    1622 0005b0 421D          MOV.W     &old_fuel_flow+2,r13  ; [] |213| 
         0005b2 0002!
    1623 0005b4 421E          MOV.W     &main_fuel_flow+0,r14 ; [] |213| 
         0005b6 0000!
MSP430 Assembler PC v21.6.1 Tue Dec 20 13:46:05 2022

Copyright (c) 2003-2018 Texas Instruments Incorporated
loadfollow.asm                                                       PAGE   36

    1624 0005b8 421F          MOV.W     &main_fuel_flow+2,r15 ; [] |213| 
         0005ba 0002!
    1625            $C$DW$123       .dwtag  DW_TAG_TI_branch
    1626                    .dwattr $C$DW$123, DW_AT_low_pc(0x00)
    1627                    .dwattr $C$DW$123, DW_AT_name("__mspabi_subf")
    1628                    .dwattr $C$DW$123, DW_AT_TI_call
    1629            
    1630 0005bc 13B0!         CALLA     #__mspabi_subf        ; [] |213| 
         0005be 0000 
    1631                                                      ; [] |213| 
    1632 0005c0 0CCE          MOVA      r12,r14               ; [] |213| 
    1633 0005c2 0DCF          MOVA      r13,r15               ; [] |213| 
    1634 0005c4 430C          MOV.W     #0,r12                ; [] |213| 
    1635 0005c6 403D          MOV.W     #16544,r13            ; [] |213| 
         0005c8 40A0 
    1636            $C$DW$124       .dwtag  DW_TAG_TI_branch
    1637                    .dwattr $C$DW$124, DW_AT_low_pc(0x00)
    1638                    .dwattr $C$DW$124, DW_AT_name("__mspabi_cmpf")
    1639                    .dwattr $C$DW$124, DW_AT_TI_call
    1640            
    1641 0005ca 13B0!         CALLA     #__mspabi_cmpf        ; [] |213| 
         0005cc 0000 
    1642                                                      ; [] |213| 
    1643 0005ce 930C          TST.W     r12                   ; [] |213| 
    1644 0005d0 3415          JGE       $C$L20                ; [] |213| 
    1645                                                      ; [] |213| 
    1646            ;* --------------------------------------------------------------------------*
    1647 0005d2 421C          MOV.W     &old_fuel_flow+0,r12  ; [] |213| 
         0005d4 0000!
    1648 0005d6 421D          MOV.W     &old_fuel_flow+2,r13  ; [] |213| 
         0005d8 0002!
    1649            $C$DW$125       .dwtag  DW_TAG_TI_branch
    1650                    .dwattr $C$DW$125, DW_AT_low_pc(0x00)
    1651                    .dwattr $C$DW$125, DW_AT_name("__mspabi_cvtfd")
    1652                    .dwattr $C$DW$125, DW_AT_TI_call
    1653            
    1654 0005da 13B0!         CALLA     #__mspabi_cvtfd       ; [] |213| 
         0005dc 0000 
    1655                                                      ; [] |213| 
    1656 0005de 0CC8          MOVA      r12,r8                ; [] |213| 
    1657 0005e0 0DC9          MOVA      r13,r9                ; [] |213| 
    1658 0005e2 0ECA          MOVA      r14,r10               ; [] |213| 
    1659 0005e4 0FCB          MOVA      r15,r11               ; [] |213| 
    1660 0005e6 403C          MOV.W     #39322,r12            ; [] |213| 
         0005e8 999A 
    1661 0005ea 403D          MOV.W     #39321,r13            ; [] |213| 
         0005ec 9999 
    1662 0005ee 403E          MOV.W     #39321,r14            ; [] |213| 
         0005f0 9999 
    1663 0005f2 403F          MOV.W     #16297,r15            ; [] |213| 
         0005f4 3FA9 
    1664            $C$DW$126       .dwtag  DW_TAG_TI_branch
    1665                    .dwattr $C$DW$126, DW_AT_low_pc(0x00)
    1666                    .dwattr $C$DW$126, DW_AT_name("__mspabi_subd")
    1667                    .dwattr $C$DW$126, DW_AT_TI_call
MSP430 Assembler PC v21.6.1 Tue Dec 20 13:46:05 2022

Copyright (c) 2003-2018 Texas Instruments Incorporated
loadfollow.asm                                                       PAGE   37

    1668            
    1669 0005f6 13B0!         CALLA     #__mspabi_subd        ; [] |213| 
         0005f8 0000 
    1670                                                      ; [] |213| 
    1671 0005fa 3C14          JMP       $C$L21                ; [] |213| 
    1672                                                      ; [] |213| 
    1673            ;* --------------------------------------------------------------------------*
    1674 0005fc       $C$L20:    
    1675 0005fc 421C          MOV.W     &old_fuel_flow+0,r12  ; [] |213| 
         0005fe 0000!
    1676 000600 421D          MOV.W     &old_fuel_flow+2,r13  ; [] |213| 
         000602 0002!
    1677            $C$DW$127       .dwtag  DW_TAG_TI_branch
    1678                    .dwattr $C$DW$127, DW_AT_low_pc(0x00)
    1679                    .dwattr $C$DW$127, DW_AT_name("__mspabi_cvtfd")
    1680                    .dwattr $C$DW$127, DW_AT_TI_call
    1681            
    1682 000604 13B0!         CALLA     #__mspabi_cvtfd       ; [] |213| 
         000606 0000 
    1683                                                      ; [] |213| 
    1684 000608 0CC8          MOVA      r12,r8                ; [] |213| 
    1685 00060a 0DC9          MOVA      r13,r9                ; [] |213| 
    1686 00060c 0ECA          MOVA      r14,r10               ; [] |213| 
    1687 00060e 0FCB          MOVA      r15,r11               ; [] |213| 
    1688 000610 403C          MOV.W     #5243,r12             ; [] |213| 
         000612 147B 
    1689 000614 403D          MOV.W     #18350,r13            ; [] |213| 
         000616 47AE 
    1690 000618 403E          MOV.W     #31457,r14            ; [] |213| 
         00061a 7AE1 
    1691 00061c 403F          MOV.W     #16276,r15            ; [] |213| 
         00061e 3F94 
    1692            $C$DW$128       .dwtag  DW_TAG_TI_branch
    1693                    .dwattr $C$DW$128, DW_AT_low_pc(0x00)
    1694                    .dwattr $C$DW$128, DW_AT_name("__mspabi_subd")
    1695                    .dwattr $C$DW$128, DW_AT_TI_call
    1696            
    1697 000620 13B0!         CALLA     #__mspabi_subd        ; [] |213| 
         000622 0000 
    1698                                                      ; [] |213| 
    1699            ;* --------------------------------------------------------------------------*
    1700            $C$L21:    
    1701            $C$DW$129       .dwtag  DW_TAG_TI_branch
    1702                    .dwattr $C$DW$129, DW_AT_low_pc(0x00)
    1703                    .dwattr $C$DW$129, DW_AT_name("__mspabi_cvtdf")
    1704                    .dwattr $C$DW$129, DW_AT_TI_call
    1705            
    1706 000624 13B0!         CALLA     #__mspabi_cvtdf       ; [] |213| 
         000626 0000 
    1707                                                      ; [] |213| 
    1708 000628 4C82          MOV.W     r12,&old_fuel_flow+0  ; [] |213| 
         00062a 0000!
    1709 00062c 4D82          MOV.W     r13,&old_fuel_flow+2  ; [] |213| 
         00062e 0002!
    1710            ;* --------------------------------------------------------------------------*
MSP430 Assembler PC v21.6.1 Tue Dec 20 13:46:05 2022

Copyright (c) 2003-2018 Texas Instruments Incorporated
loadfollow.asm                                                       PAGE   38

    1711 000630       $C$L22:    
    1712                    .dwpsn  file "../src/loadfollow.c",line 217,column 3,is_stmt,isa 0
    1713 000630 4292          MOV.W     &old_fuel_flow+0,&main_fuel_flow+0 ; [] |217| 
         000632 0000!
         000634 0000!
    1714 000636 4292          MOV.W     &old_fuel_flow+2,&main_fuel_flow+2 ; [] |217| 
         000638 0002!
         00063a 0002!
    1715                    .dwpsn  file "../src/loadfollow.c",line 222,column 29,is_stmt,isa 0
    1716 00063c 403C          MOV.W     #15,r12               ; [] |222| 
         00063e 000F 
    1717 000640 521C          ADD.W     &Tset+0,r12           ; [] |222| 
         000642 0000!
    1718            $C$DW$130       .dwtag  DW_TAG_TI_branch
    1719                    .dwattr $C$DW$130, DW_AT_low_pc(0x00)
    1720                    .dwattr $C$DW$130, DW_AT_name("__mspabi_fltif")
    1721                    .dwattr $C$DW$130, DW_AT_TI_call
    1722            
    1723 000644 13B0!         CALLA     #__mspabi_fltif       ; [] |222| 
         000646 0000 
    1724                                                      ; [] |222| 
    1725 000648 0CCE          MOVA      r12,r14               ; [] |222| 
    1726 00064a 0DCF          MOVA      r13,r15               ; [] |222| 
    1727 00064c 421C          MOV.W     &TC2_temp+0,r12       ; [] |222| 
         00064e 0000!
    1728 000650 421D          MOV.W     &TC2_temp+2,r13       ; [] |222| 
         000652 0002!
    1729            $C$DW$131       .dwtag  DW_TAG_TI_branch
    1730                    .dwattr $C$DW$131, DW_AT_low_pc(0x00)
    1731                    .dwattr $C$DW$131, DW_AT_name("__mspabi_cmpf")
    1732                    .dwattr $C$DW$131, DW_AT_TI_call
    1733            
    1734 000654 13B0!         CALLA     #__mspabi_cmpf        ; [] |222| 
         000656 0000 
    1735                                                      ; [] |222| 
    1736 000658 930C          TST.W     r12                   ; [] |222| 
    1737 00065a 3404          JGE       $C$L23                ; [] |222| 
    1738                                                      ; [] |222| 
    1739            ;* --------------------------------------------------------------------------*
    1740 00065c 4305          MOV.W     #0,r5                 ; [] |222| 
    1741 00065e 4037          MOV.W     #16704,r7             ; [] |222| 
         000660 4140 
    1742 000662 3C03          JMP       $C$L24                ; [] |222| 
    1743                                                      ; [] |222| 
    1744            ;* --------------------------------------------------------------------------*
    1745 000664       $C$L23:    
    1746 000664 4305          MOV.W     #0,r5                 ; [] |222| 
    1747 000666 4037          MOV.W     #16672,r7             ; [] |222| 
         000668 4120 
    1748            ;* --------------------------------------------------------------------------*
    1749 00066a       $C$L24:    
    1750                    .dwpsn  file "../src/loadfollow.c",line 224,column 3,is_stmt,isa 0
    1751 00066a 05CC          MOVA      r5,r12                ; [] |224| 
    1752 00066c 07CD          MOVA      r7,r13                ; [] |224| 
    1753 00066e 421E          MOV.W     &main_fuel_flow+0,r14 ; [] |224| 
MSP430 Assembler PC v21.6.1 Tue Dec 20 13:46:05 2022

Copyright (c) 2003-2018 Texas Instruments Incorporated
loadfollow.asm                                                       PAGE   39

         000670 0000!
    1754 000672 421F          MOV.W     &main_fuel_flow+2,r15 ; [] |224| 
         000674 0002!
    1755            $C$DW$132       .dwtag  DW_TAG_TI_branch
    1756                    .dwattr $C$DW$132, DW_AT_low_pc(0x00)
    1757                    .dwattr $C$DW$132, DW_AT_name("__mspabi_cmpf")
    1758                    .dwattr $C$DW$132, DW_AT_TI_call
    1759            
    1760 000676 13B0!         CALLA     #__mspabi_cmpf        ; [] |224| 
         000678 0000 
    1761                                                      ; [] |224| 
    1762 00067a 930C          TST.W     r12                   ; [] |224| 
    1763 00067c 3804          JL        $C$L25                ; [] |224| 
    1764                                                      ; [] |224| 
    1765            ;* --------------------------------------------------------------------------*
    1766                    .dwpsn  file "../src/loadfollow.c",line 224,column 45,is_stmt,isa 0
    1767 00067e 4582          MOV.W     r5,&main_fuel_flow+0  ; [] |224| 
         000680 0000!
    1768 000682 4782          MOV.W     r7,&main_fuel_flow+2  ; [] |224| 
         000684 0002!
    1769            ;* --------------------------------------------------------------------------*
    1770 000686       $C$L25:    
    1771                    .dwpsn  file "../src/loadfollow.c",line 226,column 3,is_stmt,isa 0
    1772 000686 9392          CMP.W     #1,&main_fuel_flow_GUI+0 ; [] |226| 
         000688 0000!
    1773 00068a 3808          JL        $C$L26                ; [] |226| 
    1774                                                      ; [] |226| 
    1775            ;* --------------------------------------------------------------------------*
    1776                    .dwpsn  file "../src/loadfollow.c",line 226,column 29,is_stmt,isa 0
    1777 00068c 421C          MOV.W     &main_fuel_flow_GUI+0,r12 ; [] |226| 
         00068e 0000!
    1778            $C$DW$133       .dwtag  DW_TAG_TI_branch
    1779                    .dwattr $C$DW$133, DW_AT_low_pc(0x00)
    1780                    .dwattr $C$DW$133, DW_AT_name("__mspabi_fltif")
    1781                    .dwattr $C$DW$133, DW_AT_TI_call
    1782            
    1783 000690 13B0!         CALLA     #__mspabi_fltif       ; [] |226| 
         000692 0000 
    1784                                                      ; [] |226| 
    1785 000694 4C82          MOV.W     r12,&main_fuel_flow+0 ; [] |226| 
         000696 0000!
    1786 000698 4D82          MOV.W     r13,&main_fuel_flow+2 ; [] |226| 
         00069a 0002!
    1787            ;* --------------------------------------------------------------------------*
    1788 00069c       $C$L26:    
    1789                    .dwpsn  file "../src/loadfollow.c",line 228,column 3,is_stmt,isa 0
    1790 00069c 5392          ADD.W     #1,&PID_Counter+0     ; [] |228| 
         00069e 0000!
    1791 0006a0 90B2          CMP.W     #50,&PID_Counter+0    ; [] |228| 
         0006a2 0032 
         0006a4 0000!
    1792 0006a6 39D8          JL        $C$L40                ; [] |228| 
    1793                                                      ; [] |228| 
    1794            ;* --------------------------------------------------------------------------*
    1795                    .dwpsn  file "../src/loadfollow.c",line 231,column 5,is_stmt,isa 0
MSP430 Assembler PC v21.6.1 Tue Dec 20 13:46:05 2022

Copyright (c) 2003-2018 Texas Instruments Incorporated
loadfollow.asm                                                       PAGE   40

    1796 0006a8 4382          MOV.W     #0,&PID_Counter+0     ; [] |231| 
         0006aa 0000!
    1797                    .dwpsn  file "../src/loadfollow.c",line 232,column 26,is_stmt,isa 0
    1798 0006ac 430C          MOV.W     #0,r12                ; [] |232| 
    1799 0006ae 430D          MOV.W     #0,r13                ; [] |232| 
    1800 0006b0 421E          MOV.W     &pid_Kp_GUI+0,r14     ; [] |232| 
         0006b2 0000!
    1801 0006b4 421F          MOV.W     &pid_Kp_GUI+2,r15     ; [] |232| 
         0006b6 0002!
    1802            $C$DW$134       .dwtag  DW_TAG_TI_branch
    1803                    .dwattr $C$DW$134, DW_AT_low_pc(0x00)
    1804                    .dwattr $C$DW$134, DW_AT_name("__mspabi_cmpf")
    1805                    .dwattr $C$DW$134, DW_AT_TI_call
    1806            
    1807 0006b8 13B0!         CALLA     #__mspabi_cmpf        ; [] |232| 
         0006ba 0000 
    1808                                                      ; [] |232| 
    1809 0006bc 930C          TST.W     r12                   ; [] |232| 
    1810 0006be 3405          JGE       $C$L27                ; [] |232| 
    1811                                                      ; [] |232| 
    1812            ;* --------------------------------------------------------------------------*
    1813 0006c0 421E          MOV.W     &pid_Kp_GUI+0,r14     ; [] |232| 
         0006c2 0000!
    1814 0006c4 421F          MOV.W     &pid_Kp_GUI+2,r15     ; [] |232| 
         0006c6 0002!
    1815 0006c8 3C04          JMP       $C$L28                ; [] |232| 
    1816                                                      ; [] |232| 
    1817            ;* --------------------------------------------------------------------------*
    1818 0006ca       $C$L27:    
    1819 0006ca 403E          MOV.W     #49807,r14            ; [] |232| 
         0006cc C28F 
    1820 0006ce 403F          MOV.W     #15477,r15            ; [] |232| 
         0006d0 3C75 
    1821            ;* --------------------------------------------------------------------------*
    1822 0006d2       $C$L28:    
    1823 0006d2 4E82          MOV.W     r14,&pid_Kp+0         ; [] |232| 
         0006d4 0000!
    1824 0006d6 4F82          MOV.W     r15,&pid_Kp+2         ; [] |232| 
         0006d8 0002!
    1825                    .dwpsn  file "../src/loadfollow.c",line 234,column 26,is_stmt,isa 0
    1826 0006da 430C          MOV.W     #0,r12                ; [] |234| 
    1827 0006dc 430D          MOV.W     #0,r13                ; [] |234| 
    1828 0006de 421E          MOV.W     &pid_Ki_GUI+0,r14     ; [] |234| 
         0006e0 0000!
    1829 0006e2 421F          MOV.W     &pid_Ki_GUI+2,r15     ; [] |234| 
         0006e4 0002!
    1830            $C$DW$135       .dwtag  DW_TAG_TI_branch
    1831                    .dwattr $C$DW$135, DW_AT_low_pc(0x00)
    1832                    .dwattr $C$DW$135, DW_AT_name("__mspabi_cmpf")
    1833                    .dwattr $C$DW$135, DW_AT_TI_call
    1834            
    1835 0006e6 13B0!         CALLA     #__mspabi_cmpf        ; [] |234| 
         0006e8 0000 
    1836                                                      ; [] |234| 
    1837 0006ea 930C          TST.W     r12                   ; [] |234| 
MSP430 Assembler PC v21.6.1 Tue Dec 20 13:46:05 2022

Copyright (c) 2003-2018 Texas Instruments Incorporated
loadfollow.asm                                                       PAGE   41

    1838 0006ec 3405          JGE       $C$L29                ; [] |234| 
    1839                                                      ; [] |234| 
    1840            ;* --------------------------------------------------------------------------*
    1841 0006ee 421E          MOV.W     &pid_Ki_GUI+0,r14     ; [] |234| 
         0006f0 0000!
    1842 0006f2 421F          MOV.W     &pid_Ki_GUI+2,r15     ; [] |234| 
         0006f4 0002!
    1843 0006f6 3C04          JMP       $C$L30                ; [] |234| 
    1844                                                      ; [] |234| 
    1845            ;* --------------------------------------------------------------------------*
    1846 0006f8       $C$L29:    
    1847 0006f8 403E          MOV.W     #50604,r14            ; [] |234| 
         0006fa C5AC 
    1848 0006fc 403F          MOV.W     #14503,r15            ; [] |234| 
         0006fe 38A7 
    1849            ;* --------------------------------------------------------------------------*
    1850 000700       $C$L30:    
    1851 000700 4E82          MOV.W     r14,&pid_Ki+0         ; [] |234| 
         000702 0000!
    1852 000704 4F82          MOV.W     r15,&pid_Ki+2         ; [] |234| 
         000706 0002!
    1853                    .dwpsn  file "../src/loadfollow.c",line 236,column 26,is_stmt,isa 0
    1854 000708 430C          MOV.W     #0,r12                ; [] |236| 
    1855 00070a 430D          MOV.W     #0,r13                ; [] |236| 
    1856 00070c 421E          MOV.W     &pid_Kd_GUI+0,r14     ; [] |236| 
         00070e 0000!
    1857 000710 421F          MOV.W     &pid_Kd_GUI+2,r15     ; [] |236| 
         000712 0002!
    1858            $C$DW$136       .dwtag  DW_TAG_TI_branch
    1859                    .dwattr $C$DW$136, DW_AT_low_pc(0x00)
    1860                    .dwattr $C$DW$136, DW_AT_name("__mspabi_cmpf")
    1861                    .dwattr $C$DW$136, DW_AT_TI_call
    1862            
    1863 000714 13B0!         CALLA     #__mspabi_cmpf        ; [] |236| 
         000716 0000 
    1864                                                      ; [] |236| 
    1865 000718 930C          TST.W     r12                   ; [] |236| 
    1866 00071a 3405          JGE       $C$L31                ; [] |236| 
    1867                                                      ; [] |236| 
    1868            ;* --------------------------------------------------------------------------*
    1869 00071c 421E          MOV.W     &pid_Kd_GUI+0,r14     ; [] |236| 
         00071e 0000!
    1870 000720 421F          MOV.W     &pid_Kd_GUI+2,r15     ; [] |236| 
         000722 0002!
    1871 000724 3C03          JMP       $C$L32                ; [] |236| 
    1872                                                      ; [] |236| 
    1873            ;* --------------------------------------------------------------------------*
    1874 000726       $C$L31:    
    1875 000726 430E          MOV.W     #0,r14                ; [] |236| 
    1876 000728 403F          MOV.W     #16256,r15            ; [] |236| 
         00072a 3F80 
    1877            ;* --------------------------------------------------------------------------*
    1878 00072c       $C$L32:    
    1879 00072c 4E82          MOV.W     r14,&pid_Kd+0         ; [] |236| 
         00072e 0000!
MSP430 Assembler PC v21.6.1 Tue Dec 20 13:46:05 2022

Copyright (c) 2003-2018 Texas Instruments Incorporated
loadfollow.asm                                                       PAGE   42

    1880 000730 4F82          MOV.W     r15,&pid_Kd+2         ; [] |236| 
         000732 0002!
    1881                    .dwpsn  file "../src/loadfollow.c",line 238,column 46,is_stmt,isa 0
    1882 000734 421C          MOV.W     &FCPerror_accumulated_limit_GUI+0,r12 ; [] |238| 
         000736 0000!
    1883 000738 421D          MOV.W     &FCPerror_accumulated_limit_GUI+2,r13 ; [] |238| 
         00073a 0002!
    1884            $C$DW$137       .dwtag  DW_TAG_TI_branch
    1885                    .dwattr $C$DW$137, DW_AT_low_pc(0x00)
    1886                    .dwattr $C$DW$137, DW_AT_name("__mspabi_cvtfd")
    1887                    .dwattr $C$DW$137, DW_AT_TI_call
    1888            
    1889 00073c 13B0!         CALLA     #__mspabi_cvtfd       ; [] |238| 
         00073e 0000 
    1890                                                      ; [] |238| 
    1891 000740 4038          MOV.W     #39322,r8             ; [] |238| 
         000742 999A 
    1892 000744 4039          MOV.W     #39321,r9             ; [] |238| 
         000746 9999 
    1893 000748 403A          MOV.W     #39321,r10            ; [] |238| 
         00074a 9999 
    1894 00074c 403B          MOV.W     #16313,r11            ; [] |238| 
         00074e 3FB9 
    1895            $C$DW$138       .dwtag  DW_TAG_TI_branch
    1896                    .dwattr $C$DW$138, DW_AT_low_pc(0x00)
    1897                    .dwattr $C$DW$138, DW_AT_name("__mspabi_cmpd")
    1898                    .dwattr $C$DW$138, DW_AT_TI_call
    1899            
    1900 000750 13B0!         CALLA     #__mspabi_cmpd        ; [] |238| 
         000752 0000 
    1901                                                      ; [] |238| 
    1902 000754 930C          TST.W     r12                   ; [] |238| 
    1903 000756 340A          JGE       $C$L33                ; [] |238| 
    1904                                                      ; [] |238| 
    1905            ;* --------------------------------------------------------------------------*
    1906 000758 421C          MOV.W     &FCPerror_accumulated_limit_GUI+0,r12 ; [] |238| 
         00075a 0000!
    1907 00075c 421D          MOV.W     &FCPerror_accumulated_limit_GUI+2,r13 ; [] |238| 
         00075e 0002!
    1908 000760 430E          MOV.W     #0,r14                ; [] |238| 
    1909 000762 403F          MOV.W     #17096,r15            ; [] |238| 
         000764 42C8 
    1910            $C$DW$139       .dwtag  DW_TAG_TI_branch
    1911                    .dwattr $C$DW$139, DW_AT_low_pc(0x00)
    1912                    .dwattr $C$DW$139, DW_AT_name("__mspabi_mpyf")
    1913                    .dwattr $C$DW$139, DW_AT_TI_call
    1914            
    1915 000766 13B0!         CALLA     #__mspabi_mpyf        ; [] |238| 
         000768 0000 
    1916                                                      ; [] |238| 
    1917 00076a 3C03          JMP       $C$L34                ; [] |238| 
    1918                                                      ; [] |238| 
    1919            ;* --------------------------------------------------------------------------*
    1920 00076c       $C$L33:    
    1921 00076c 430C          MOV.W     #0,r12                ; [] |238| 
MSP430 Assembler PC v21.6.1 Tue Dec 20 13:46:05 2022

Copyright (c) 2003-2018 Texas Instruments Incorporated
loadfollow.asm                                                       PAGE   43

    1922 00076e 403D          MOV.W     #17402,r13            ; [] |238| 
         000770 43FA 
    1923            ;* --------------------------------------------------------------------------*
    1924 000772       $C$L34:    
    1925 000772 4C82          MOV.W     r12,&FCPerror_accumulated_limit+0 ; [] |238| 
         000774 0000!
    1926 000776 4D82          MOV.W     r13,&FCPerror_accumulated_limit+2 ; [] |238| 
         000778 0002!
    1927                    .dwpsn  file "../src/loadfollow.c",line 241,column 5,is_stmt,isa 0
    1928 00077a 421C          MOV.W     &Tset+0,r12           ; [] |241| 
         00077c 0000!
    1929            $C$DW$140       .dwtag  DW_TAG_TI_branch
    1930                    .dwattr $C$DW$140, DW_AT_low_pc(0x00)
    1931                    .dwattr $C$DW$140, DW_AT_name("__mspabi_fltif")
    1932                    .dwattr $C$DW$140, DW_AT_TI_call
    1933            
    1934 00077e 13B0!         CALLA     #__mspabi_fltif       ; [] |241| 
         000780 0000 
    1935                                                      ; [] |241| 
    1936 000782 421E          MOV.W     &TC2_temp+0,r14       ; [] |241| 
         000784 0000!
    1937 000786 421F          MOV.W     &TC2_temp+2,r15       ; [] |241| 
         000788 0002!
    1938            $C$DW$141       .dwtag  DW_TAG_TI_branch
    1939                    .dwattr $C$DW$141, DW_AT_low_pc(0x00)
    1940                    .dwattr $C$DW$141, DW_AT_name("__mspabi_subf")
    1941                    .dwattr $C$DW$141, DW_AT_TI_call
    1942            
    1943 00078a 13B0!         CALLA     #__mspabi_subf        ; [] |241| 
         00078c 0000 
    1944                                                      ; [] |241| 
    1945 00078e 4C82          MOV.W     r12,&FCPerror+0       ; [] |241| 
         000790 0000!
    1946 000792 4D82          MOV.W     r13,&FCPerror+2       ; [] |241| 
         000794 0002!
    1947                    .dwpsn  file "../src/loadfollow.c",line 243,column 5,is_stmt,isa 0
    1948 000796 421C          MOV.W     &FCPerror_accumulated_limit_GUI+0,r12 ; [] |243| 
         000798 0000!
    1949 00079a 421D          MOV.W     &FCPerror_accumulated_limit_GUI+2,r13 ; [] |243| 
         00079c 0002!
    1950            $C$DW$142       .dwtag  DW_TAG_TI_branch
    1951                    .dwattr $C$DW$142, DW_AT_low_pc(0x00)
    1952                    .dwattr $C$DW$142, DW_AT_name("__mspabi_cvtfd")
    1953                    .dwattr $C$DW$142, DW_AT_TI_call
    1954            
    1955 00079e 13B0!         CALLA     #__mspabi_cvtfd       ; [] |243| 
         0007a0 0000 
    1956                                                      ; [] |243| 
    1957 0007a2 4038          MOV.W     #39322,r8             ; [] |243| 
         0007a4 999A 
    1958 0007a6 4039          MOV.W     #39321,r9             ; [] |243| 
         0007a8 9999 
    1959 0007aa 403A          MOV.W     #39321,r10            ; [] |243| 
         0007ac 9999 
    1960 0007ae 403B          MOV.W     #16313,r11            ; [] |243| 
MSP430 Assembler PC v21.6.1 Tue Dec 20 13:46:05 2022

Copyright (c) 2003-2018 Texas Instruments Incorporated
loadfollow.asm                                                       PAGE   44

         0007b0 3FB9 
    1961            $C$DW$143       .dwtag  DW_TAG_TI_branch
    1962                    .dwattr $C$DW$143, DW_AT_low_pc(0x00)
    1963                    .dwattr $C$DW$143, DW_AT_name("__mspabi_cmpd")
    1964                    .dwattr $C$DW$143, DW_AT_TI_call
    1965            
    1966 0007b2 13B0!         CALLA     #__mspabi_cmpd        ; [] |243| 
         0007b4 0000 
    1967                                                      ; [] |243| 
    1968 0007b6 930C          TST.W     r12                   ; [] |243| 
    1969 0007b8 344C          JGE       $C$L36                ; [] |243| 
    1970                                                      ; [] |243| 
    1971            ;* --------------------------------------------------------------------------*
    1972                    .dwpsn  file "../src/loadfollow.c",line 245,column 7,is_stmt,isa 0
    1973 0007ba 421C          MOV.W     &FCPerror_accumulated+0,r12 ; [] |245| 
         0007bc 0000!
    1974 0007be 421D          MOV.W     &FCPerror_accumulated+2,r13 ; [] |245| 
         0007c0 0002!
    1975 0007c2 421E          MOV.W     &FCPerror+0,r14       ; [] |245| 
         0007c4 0000!
    1976 0007c6 421F          MOV.W     &FCPerror+2,r15       ; [] |245| 
         0007c8 0002!
    1977            $C$DW$144       .dwtag  DW_TAG_TI_branch
    1978                    .dwattr $C$DW$144, DW_AT_low_pc(0x00)
    1979                    .dwattr $C$DW$144, DW_AT_name("__mspabi_addf")
    1980                    .dwattr $C$DW$144, DW_AT_TI_call
    1981            
    1982 0007ca 13B0!         CALLA     #__mspabi_addf        ; [] |245| 
         0007cc 0000 
    1983                                                      ; [] |245| 
    1984 0007ce 4C82          MOV.W     r12,&FCPerror_accumulated+0 ; [] |245| 
         0007d0 0000!
    1985 0007d2 4D82          MOV.W     r13,&FCPerror_accumulated+2 ; [] |245| 
         0007d4 0002!
    1986                    .dwpsn  file "../src/loadfollow.c",line 246,column 7,is_stmt,isa 0
    1987 0007d6 421C          MOV.W     &FCPerror_accumulated+0,r12 ; [] |246| 
         0007d8 0000!
    1988 0007da 421E          MOV.W     &FCPerror_accumulated_limit+0,r14 ; [] |246| 
         0007dc 0000!
    1989 0007de 421F          MOV.W     &FCPerror_accumulated_limit+2,r15 ; [] |246| 
         0007e0 0002!
    1990            $C$DW$145       .dwtag  DW_TAG_TI_branch
    1991                    .dwattr $C$DW$145, DW_AT_low_pc(0x00)
    1992                    .dwattr $C$DW$145, DW_AT_name("__mspabi_cmpf")
    1993                    .dwattr $C$DW$145, DW_AT_TI_call
    1994            
    1995 0007e2 13B0!         CALLA     #__mspabi_cmpf        ; [] |246| 
         0007e4 0000 
    1996                                                      ; [] |246| 
    1997 0007e6 930C          TST.W     r12                   ; [] |246| 
    1998 0007e8 342E          JGE       $C$L35                ; [] |246| 
    1999                                                      ; [] |246| 
    2000            ;* --------------------------------------------------------------------------*
    2001                    .dwpsn  file "../src/loadfollow.c",line 247,column 12,is_stmt,isa 0
    2002 0007ea 421C          MOV.W     &FCPerror_accumulated_limit+0,r12 ; [] |247| 
MSP430 Assembler PC v21.6.1 Tue Dec 20 13:46:05 2022

Copyright (c) 2003-2018 Texas Instruments Incorporated
loadfollow.asm                                                       PAGE   45

         0007ec 0000!
    2003 0007ee 421D          MOV.W     &FCPerror_accumulated_limit+2,r13 ; [] |247| 
         0007f0 0002!
    2004            $C$DW$146       .dwtag  DW_TAG_TI_branch
    2005                    .dwattr $C$DW$146, DW_AT_low_pc(0x00)
    2006                    .dwattr $C$DW$146, DW_AT_name("__mspabi_cvtfd")
    2007                    .dwattr $C$DW$146, DW_AT_TI_call
    2008            
    2009 0007f2 13B0!         CALLA     #__mspabi_cvtfd       ; [] |247| 
         0007f4 0000 
    2010                                                      ; [] |247| 
    2011 0007f6 0CC8          MOVA      r12,r8                ; [] |247| 
    2012 0007f8 0DC9          MOVA      r13,r9                ; [] |247| 
    2013 0007fa 0ECA          MOVA      r14,r10               ; [] |247| 
    2014 0007fc 0FCB          MOVA      r15,r11               ; [] |247| 
    2015 0007fe 430C          MOV.W     #0,r12                ; [] |247| 
    2016 000800 430D          MOV.W     #0,r13                ; [] |247| 
    2017 000802 430E          MOV.W     #0,r14                ; [] |247| 
    2018 000804 403F          MOV.W     #49120,r15            ; [] |247| 
         000806 BFE0 
    2019            $C$DW$147       .dwtag  DW_TAG_TI_branch
    2020                    .dwattr $C$DW$147, DW_AT_low_pc(0x00)
    2021                    .dwattr $C$DW$147, DW_AT_name("__mspabi_mpyd")
    2022                    .dwattr $C$DW$147, DW_AT_TI_call
    2023            
    2024 000808 13B0!         CALLA     #__mspabi_mpyd        ; [] |247| 
         00080a 0000 
    2025                                                      ; [] |247| 
    2026 00080c 0CC8          MOVA      r12,r8                ; [] |247| 
    2027 00080e 0DC9          MOVA      r13,r9                ; [] |247| 
    2028 000810 0ECA          MOVA      r14,r10               ; [] |247| 
    2029 000812 0FC4          MOVA      r15,r4                ; [] |247| 
    2030 000814 421C          MOV.W     &FCPerror_accumulated+0,r12 ; [] |247| 
         000816 0000!
    2031 000818 421D          MOV.W     &FCPerror_accumulated+2,r13 ; [] |247| 
         00081a 0002!
    2032            $C$DW$148       .dwtag  DW_TAG_TI_branch
    2033                    .dwattr $C$DW$148, DW_AT_low_pc(0x00)
    2034                    .dwattr $C$DW$148, DW_AT_name("__mspabi_cvtfd")
    2035                    .dwattr $C$DW$148, DW_AT_TI_call
    2036            
    2037 00081c 13B0!         CALLA     #__mspabi_cvtfd       ; [] |247| 
         00081e 0000 
    2038                                                      ; [] |247| 
    2039 000820 04CB          MOVA      r4,r11                ; [] |247| 
    2040            $C$DW$149       .dwtag  DW_TAG_TI_branch
    2041                    .dwattr $C$DW$149, DW_AT_low_pc(0x00)
    2042                    .dwattr $C$DW$149, DW_AT_name("__mspabi_cmpd")
    2043                    .dwattr $C$DW$149, DW_AT_TI_call
    2044            
    2045 000822 13B0!         CALLA     #__mspabi_cmpd        ; [] |247| 
         000824 0000 
    2046                                                      ; [] |247| 
    2047 000826 930C          TST.W     r12                   ; [] |247| 
    2048 000828 3814          JL        $C$L36                ; [] |247| 
MSP430 Assembler PC v21.6.1 Tue Dec 20 13:46:05 2022

Copyright (c) 2003-2018 Texas Instruments Incorporated
loadfollow.asm                                                       PAGE   46

    2049                                                      ; [] |247| 
    2050            ;* --------------------------------------------------------------------------*
    2051                    .dwpsn  file "../src/loadfollow.c",line 247,column 74,is_stmt,isa 0
    2052 00082a 421C          MOV.W     &FCPerror_accumulated_limit+0,r12 ; [] |247| 
         00082c 0000!
    2053 00082e 421D          MOV.W     &FCPerror_accumulated_limit+2,r13 ; [] |247| 
         000830 0002!
    2054 000832 430E          MOV.W     #0,r14                ; [] |247| 
    2055 000834 403F          MOV.W     #48896,r15            ; [] |247| 
         000836 BF00 
    2056            $C$DW$150       .dwtag  DW_TAG_TI_branch
    2057                    .dwattr $C$DW$150, DW_AT_low_pc(0x00)
    2058                    .dwattr $C$DW$150, DW_AT_name("__mspabi_mpyf")
    2059                    .dwattr $C$DW$150, DW_AT_TI_call
    2060            
    2061 000838 13B0!         CALLA     #__mspabi_mpyf        ; [] |247| 
         00083a 0000 
    2062                                                      ; [] |247| 
    2063 00083c 4C82          MOV.W     r12,&FCPerror_accumulated+0 ; [] |247| 
         00083e 0000!
    2064 000840 4D82          MOV.W     r13,&FCPerror_accumulated+2 ; [] |247| 
         000842 0002!
    2065 000844 3C06          JMP       $C$L36                ; [] |247| 
    2066                                                      ; [] |247| 
    2067            ;* --------------------------------------------------------------------------*
    2068 000846       $C$L35:    
    2069                    .dwpsn  file "../src/loadfollow.c",line 246,column 62,is_stmt,isa 0
    2070 000846 4292          MOV.W     &FCPerror_accumulated_limit+0,&FCPerror_accumulated+0 ; [] |246| 
         000848 0000!
         00084a 0000!
    2071 00084c 4292          MOV.W     &FCPerror_accumulated_limit+2,&FCPerror_accumulated+2 ; [] |246| 
         00084e 0002!
         000850 0002!
    2072            ;* --------------------------------------------------------------------------*
    2073 000852       $C$L36:    
    2074                    .dwpsn  file "../src/loadfollow.c",line 250,column 5,is_stmt,isa 0
    2075 000852 421C          MOV.W     &pid_Kp+0,r12         ; [] |250| 
         000854 0000!
    2076 000856 421D          MOV.W     &pid_Kp+2,r13         ; [] |250| 
         000858 0002!
    2077 00085a 421E          MOV.W     &FCPerror+0,r14       ; [] |250| 
         00085c 0000!
    2078 00085e 421F          MOV.W     &FCPerror+2,r15       ; [] |250| 
         000860 0002!
    2079            $C$DW$151       .dwtag  DW_TAG_TI_branch
    2080                    .dwattr $C$DW$151, DW_AT_low_pc(0x00)
    2081                    .dwattr $C$DW$151, DW_AT_name("__mspabi_mpyf")
    2082                    .dwattr $C$DW$151, DW_AT_TI_call
    2083            
    2084 000862 13B0!         CALLA     #__mspabi_mpyf        ; [] |250| 
         000864 0000 
    2085                                                      ; [] |250| 
    2086 000866 4C82          MOV.W     r12,&pterm_FP+0       ; [] |250| 
         000868 0000!
    2087 00086a 4D82          MOV.W     r13,&pterm_FP+2       ; [] |250| 
MSP430 Assembler PC v21.6.1 Tue Dec 20 13:46:05 2022

Copyright (c) 2003-2018 Texas Instruments Incorporated
loadfollow.asm                                                       PAGE   47

         00086c 0002!
    2088                    .dwpsn  file "../src/loadfollow.c",line 251,column 5,is_stmt,isa 0
    2089 00086e 421C          MOV.W     &pid_Ki+0,r12         ; [] |251| 
         000870 0000!
    2090 000872 421D          MOV.W     &pid_Ki+2,r13         ; [] |251| 
         000874 0002!
    2091 000876 421E          MOV.W     &FCPerror_accumulated+0,r14 ; [] |251| 
         000878 0000!
    2092 00087a 421F          MOV.W     &FCPerror_accumulated+2,r15 ; [] |251| 
         00087c 0002!
    2093            $C$DW$152       .dwtag  DW_TAG_TI_branch
    2094                    .dwattr $C$DW$152, DW_AT_low_pc(0x00)
    2095                    .dwattr $C$DW$152, DW_AT_name("__mspabi_mpyf")
    2096                    .dwattr $C$DW$152, DW_AT_TI_call
    2097            
    2098 00087e 13B0!         CALLA     #__mspabi_mpyf        ; [] |251| 
         000880 0000 
    2099                                                      ; [] |251| 
    2100 000882 4C82          MOV.W     r12,&iterm_FP+0       ; [] |251| 
         000884 0000!
    2101 000886 4D82          MOV.W     r13,&iterm_FP+2       ; [] |251| 
         000888 0002!
    2102                    .dwpsn  file "../src/loadfollow.c",line 252,column 5,is_stmt,isa 0
    2103 00088a 421C          MOV.W     &FCPerror+0,r12       ; [] |252| 
         00088c 0000!
    2104 00088e 421D          MOV.W     &FCPerror+2,r13       ; [] |252| 
         000890 0002!
    2105 000892 421E          MOV.W     &FCPerror1+0,r14      ; [] |252| 
         000894 0000!
    2106 000896 421F          MOV.W     &FCPerror1+2,r15      ; [] |252| 
         000898 0002!
    2107            $C$DW$153       .dwtag  DW_TAG_TI_branch
    2108                    .dwattr $C$DW$153, DW_AT_low_pc(0x00)
    2109                    .dwattr $C$DW$153, DW_AT_name("__mspabi_subf")
    2110                    .dwattr $C$DW$153, DW_AT_TI_call
    2111            
    2112 00089a 13B0!         CALLA     #__mspabi_subf        ; [] |252| 
         00089c 0000 
    2113                                                      ; [] |252| 
    2114 00089e 421E          MOV.W     &pid_Kd+0,r14         ; [] |252| 
         0008a0 0000!
    2115 0008a2 421F          MOV.W     &pid_Kd+2,r15         ; [] |252| 
         0008a4 0002!
    2116            $C$DW$154       .dwtag  DW_TAG_TI_branch
    2117                    .dwattr $C$DW$154, DW_AT_low_pc(0x00)
    2118                    .dwattr $C$DW$154, DW_AT_name("__mspabi_mpyf")
    2119                    .dwattr $C$DW$154, DW_AT_TI_call
    2120            
    2121 0008a6 13B0!         CALLA     #__mspabi_mpyf        ; [] |252| 
         0008a8 0000 
    2122                                                      ; [] |252| 
    2123 0008aa 4C82          MOV.W     r12,&dterm_FP+0       ; [] |252| 
         0008ac 0000!
    2124 0008ae 4D82          MOV.W     r13,&dterm_FP+2       ; [] |252| 
         0008b0 0002!
MSP430 Assembler PC v21.6.1 Tue Dec 20 13:46:05 2022

Copyright (c) 2003-2018 Texas Instruments Incorporated
loadfollow.asm                                                       PAGE   48

    2125                    .dwpsn  file "../src/loadfollow.c",line 254,column 5,is_stmt,isa 0
    2126 0008b2 421C          MOV.W     &p_steady+0,r12       ; [] |254| 
         0008b4 0000!
    2127 0008b6 421D          MOV.W     &p_steady+2,r13       ; [] |254| 
         0008b8 0002!
    2128 0008ba 421E          MOV.W     &pterm_FP+0,r14       ; [] |254| 
         0008bc 0000!
    2129 0008be 421F          MOV.W     &pterm_FP+2,r15       ; [] |254| 
         0008c0 0002!
    2130            $C$DW$155       .dwtag  DW_TAG_TI_branch
    2131                    .dwattr $C$DW$155, DW_AT_low_pc(0x00)
    2132                    .dwattr $C$DW$155, DW_AT_name("__mspabi_addf")
    2133                    .dwattr $C$DW$155, DW_AT_TI_call
    2134            
    2135 0008c2 13B0!         CALLA     #__mspabi_addf        ; [] |254| 
         0008c4 0000 
    2136                                                      ; [] |254| 
    2137 0008c6 421E          MOV.W     &iterm_FP+0,r14       ; [] |254| 
         0008c8 0000!
    2138 0008ca 421F          MOV.W     &iterm_FP+2,r15       ; [] |254| 
         0008cc 0002!
    2139            $C$DW$156       .dwtag  DW_TAG_TI_branch
    2140                    .dwattr $C$DW$156, DW_AT_low_pc(0x00)
    2141                    .dwattr $C$DW$156, DW_AT_name("__mspabi_addf")
    2142                    .dwattr $C$DW$156, DW_AT_TI_call
    2143            
    2144 0008ce 13B0!         CALLA     #__mspabi_addf        ; [] |254| 
         0008d0 0000 
    2145                                                      ; [] |254| 
    2146 0008d2 421E          MOV.W     &dterm_FP+0,r14       ; [] |254| 
         0008d4 0000!
    2147 0008d6 421F          MOV.W     &dterm_FP+2,r15       ; [] |254| 
         0008d8 0002!
    2148            $C$DW$157       .dwtag  DW_TAG_TI_branch
    2149                    .dwattr $C$DW$157, DW_AT_low_pc(0x00)
    2150                    .dwattr $C$DW$157, DW_AT_name("__mspabi_addf")
    2151                    .dwattr $C$DW$157, DW_AT_TI_call
    2152            
    2153 0008da 13B0!         CALLA     #__mspabi_addf        ; [] |254| 
         0008dc 0000 
    2154                                                      ; [] |254| 
    2155            $C$DW$158       .dwtag  DW_TAG_TI_branch
    2156                    .dwattr $C$DW$158, DW_AT_low_pc(0x00)
    2157                    .dwattr $C$DW$158, DW_AT_name("__mspabi_negf")
    2158                    .dwattr $C$DW$158, DW_AT_TI_call
    2159            
    2160 0008de 13B0!         CALLA     #__mspabi_negf        ; [] |254| 
         0008e0 0000 
    2161                                                      ; [] |254| 
    2162 0008e2 4C82          MOV.W     r12,&H2_ADJ_temp+0    ; [] |254| 
         0008e4 0000!
    2163 0008e6 4D82          MOV.W     r13,&H2_ADJ_temp+2    ; [] |254| 
         0008e8 0002!
    2164                    .dwpsn  file "../src/loadfollow.c",line 258,column 5,is_stmt,isa 0
    2165 0008ea 421C          MOV.W     &H2_ADJ_temp+0,r12    ; [] |258| 
MSP430 Assembler PC v21.6.1 Tue Dec 20 13:46:05 2022

Copyright (c) 2003-2018 Texas Instruments Incorporated
loadfollow.asm                                                       PAGE   49

         0008ec 0000!
    2166            $C$DW$159       .dwtag  DW_TAG_TI_branch
    2167                    .dwattr $C$DW$159, DW_AT_low_pc(0x00)
    2168                    .dwattr $C$DW$159, DW_AT_name("__mspabi_cvtfd")
    2169                    .dwattr $C$DW$159, DW_AT_TI_call
    2170            
    2171 0008ee 13B0!         CALLA     #__mspabi_cvtfd       ; [] |258| 
         0008f0 0000 
    2172                                                      ; [] |258| 
    2173 0008f2 4038          MOV.W     #13107,r8             ; [] |258| 
         0008f4 3333 
    2174 0008f6 4039          MOV.W     #13107,r9             ; [] |258| 
         0008f8 3333 
    2175 0008fa 403A          MOV.W     #13107,r10            ; [] |258| 
         0008fc 3333 
    2176 0008fe 403B          MOV.W     #16323,r11            ; [] |258| 
         000900 3FC3 
    2177            $C$DW$160       .dwtag  DW_TAG_TI_branch
    2178                    .dwattr $C$DW$160, DW_AT_low_pc(0x00)
    2179                    .dwattr $C$DW$160, DW_AT_name("__mspabi_cmpd")
    2180                    .dwattr $C$DW$160, DW_AT_TI_call
    2181            
    2182 000902 13B0!         CALLA     #__mspabi_cmpd        ; [] |258| 
         000904 0000 
    2183                                                      ; [] |258| 
    2184 000906 930C          TST.W     r12                   ; [] |258| 
    2185 000908 3406          JGE       $C$L37                ; [] |258| 
    2186                                                      ; [] |258| 
    2187            ;* --------------------------------------------------------------------------*
    2188                    .dwpsn  file "../src/loadfollow.c",line 258,column 47,is_stmt,isa 0
    2189 00090a 40B2          MOV.W     #39322,&H2_ADJ_temp+0 ; [] |258| 
         00090c 999A 
         00090e 0000!
    2190 000910 40B2          MOV.W     #15897,&H2_ADJ_temp+2 ; [] |258| 
         000912 3E19 
         000914 0002!
    2191            ;* --------------------------------------------------------------------------*
    2192 000916       $C$L37:    
    2193                    .dwpsn  file "../src/loadfollow.c",line 259,column 5,is_stmt,isa 0
    2194 000916 421C          MOV.W     &H2_ADJ_temp+0,r12    ; [] |259| 
         000918 0000!
    2195 00091a 421D          MOV.W     &H2_ADJ_temp+2,r13    ; [] |259| 
         00091c 0002!
    2196            $C$DW$161       .dwtag  DW_TAG_TI_branch
    2197                    .dwattr $C$DW$161, DW_AT_low_pc(0x00)
    2198                    .dwattr $C$DW$161, DW_AT_name("__mspabi_cvtfd")
    2199                    .dwattr $C$DW$161, DW_AT_TI_call
    2200            
    2201 00091e 13B0!         CALLA     #__mspabi_cvtfd       ; [] |259| 
         000920 0000 
    2202                                                      ; [] |259| 
    2203 000922 0CC8          MOVA      r12,r8                ; [] |259| 
    2204 000924 0DC9          MOVA      r13,r9                ; [] |259| 
    2205 000926 0ECA          MOVA      r14,r10               ; [] |259| 
    2206 000928 0FCB          MOVA      r15,r11               ; [] |259| 
MSP430 Assembler PC v21.6.1 Tue Dec 20 13:46:05 2022

Copyright (c) 2003-2018 Texas Instruments Incorporated
loadfollow.asm                                                       PAGE   50

    2207 00092a 403C          MOV.W     #13107,r12            ; [] |259| 
         00092c 3333 
    2208 00092e 403D          MOV.W     #13107,r13            ; [] |259| 
         000930 3333 
    2209 000932 403E          MOV.W     #13107,r14            ; [] |259| 
         000934 3333 
    2210 000936 403F          MOV.W     #49107,r15            ; [] |259| 
         000938 BFD3 
    2211            $C$DW$162       .dwtag  DW_TAG_TI_branch
    2212                    .dwattr $C$DW$162, DW_AT_low_pc(0x00)
    2213                    .dwattr $C$DW$162, DW_AT_name("__mspabi_cmpd")
    2214                    .dwattr $C$DW$162, DW_AT_TI_call
    2215            
    2216 00093a 13B0!         CALLA     #__mspabi_cmpd        ; [] |259| 
         00093c 0000 
    2217                                                      ; [] |259| 
    2218 00093e 930C          TST.W     r12                   ; [] |259| 
    2219 000940 3406          JGE       $C$L38                ; [] |259| 
    2220                                                      ; [] |259| 
    2221            ;* --------------------------------------------------------------------------*
    2222                    .dwpsn  file "../src/loadfollow.c",line 259,column 47,is_stmt,isa 0
    2223 000942 40B2          MOV.W     #39322,&H2_ADJ_temp+0 ; [] |259| 
         000944 999A 
         000946 0000!
    2224 000948 40B2          MOV.W     #48793,&H2_ADJ_temp+2 ; [] |259| 
         00094a BE99 
         00094c 0002!
    2225            ;* --------------------------------------------------------------------------*
    2226 00094e       $C$L38:    
    2227                    .dwpsn  file "../src/loadfollow.c",line 261,column 5,is_stmt,isa 0
    2228 00094e 421C          MOV.W     &FCPerror_accumulated_limit_GUI+0,r12 ; [] |261| 
         000950 0000!
    2229 000952 421D          MOV.W     &FCPerror_accumulated_limit_GUI+2,r13 ; [] |261| 
         000954 0002!
    2230 000956 430E          MOV.W     #0,r14                ; [] |261| 
    2231 000958 403F          MOV.W     #16256,r15            ; [] |261| 
         00095a 3F80 
    2232            $C$DW$163       .dwtag  DW_TAG_TI_branch
    2233                    .dwattr $C$DW$163, DW_AT_low_pc(0x00)
    2234                    .dwattr $C$DW$163, DW_AT_name("__mspabi_cmpf")
    2235                    .dwattr $C$DW$163, DW_AT_TI_call
    2236            
    2237 00095c 13B0!         CALLA     #__mspabi_cmpf        ; [] |261| 
         00095e 0000 
    2238                                                      ; [] |261| 
    2239 000960 930C          TST.W     r12                   ; [] |261| 
    2240 000962 3474          JGE       $C$L39                ; [] |261| 
    2241                                                      ; [] |261| 
    2242            ;* --------------------------------------------------------------------------*
    2243 000964 421C          MOV.W     &H2_ADJ_temp+0,r12    ; [] |261| 
         000966 0000!
    2244 000968 421D          MOV.W     &H2_ADJ_temp+2,r13    ; [] |261| 
         00096a 0002!
    2245            $C$DW$164       .dwtag  DW_TAG_TI_branch
    2246                    .dwattr $C$DW$164, DW_AT_low_pc(0x00)
MSP430 Assembler PC v21.6.1 Tue Dec 20 13:46:05 2022

Copyright (c) 2003-2018 Texas Instruments Incorporated
loadfollow.asm                                                       PAGE   51

    2247                    .dwattr $C$DW$164, DW_AT_name("__mspabi_cvtfd")
    2248                    .dwattr $C$DW$164, DW_AT_TI_call
    2249            
    2250 00096c 13B0!         CALLA     #__mspabi_cvtfd       ; [] |261| 
         00096e 0000 
    2251                                                      ; [] |261| 
    2252 000970 4038          MOV.W     #13107,r8             ; [] |261| 
         000972 3333 
    2253 000974 4039          MOV.W     #13107,r9             ; [] |261| 
         000976 3333 
    2254 000978 403A          MOV.W     #13107,r10            ; [] |261| 
         00097a 3333 
    2255 00097c 403B          MOV.W     #49107,r11            ; [] |261| 
         00097e BFD3 
    2256            $C$DW$165       .dwtag  DW_TAG_TI_branch
    2257                    .dwattr $C$DW$165, DW_AT_low_pc(0x00)
    2258                    .dwattr $C$DW$165, DW_AT_name("__mspabi_cmpd")
    2259                    .dwattr $C$DW$165, DW_AT_TI_call
    2260            
    2261 000980 13B0!         CALLA     #__mspabi_cmpd        ; [] |261| 
         000982 0000 
    2262                                                      ; [] |261| 
    2263 000984 930C          TST.W     r12                   ; [] |261| 
    2264 000986 3462          JGE       $C$L39                ; [] |261| 
    2265                                                      ; [] |261| 
    2266            ;* --------------------------------------------------------------------------*
    2267 000988 421C          MOV.W     &H2_ADJ_temp+0,r12    ; [] |261| 
         00098a 0000!
    2268 00098c 421D          MOV.W     &H2_ADJ_temp+2,r13    ; [] |261| 
         00098e 0002!
    2269            $C$DW$166       .dwtag  DW_TAG_TI_branch
    2270                    .dwattr $C$DW$166, DW_AT_low_pc(0x00)
    2271                    .dwattr $C$DW$166, DW_AT_name("__mspabi_cvtfd")
    2272                    .dwattr $C$DW$166, DW_AT_TI_call
    2273            
    2274 000990 13B0!         CALLA     #__mspabi_cvtfd       ; [] |261| 
         000992 0000 
    2275                                                      ; [] |261| 
    2276 000994 0CC8          MOVA      r12,r8                ; [] |261| 
    2277 000996 0DC9          MOVA      r13,r9                ; [] |261| 
    2278 000998 0ECA          MOVA      r14,r10               ; [] |261| 
    2279 00099a 0FCB          MOVA      r15,r11               ; [] |261| 
    2280 00099c 403C          MOV.W     #13107,r12            ; [] |261| 
         00099e 3333 
    2281 0009a0 403D          MOV.W     #13107,r13            ; [] |261| 
         0009a2 3333 
    2282 0009a4 403E          MOV.W     #13107,r14            ; [] |261| 
         0009a6 3333 
    2283 0009a8 403F          MOV.W     #16323,r15            ; [] |261| 
         0009aa 3FC3 
    2284            $C$DW$167       .dwtag  DW_TAG_TI_branch
    2285                    .dwattr $C$DW$167, DW_AT_low_pc(0x00)
    2286                    .dwattr $C$DW$167, DW_AT_name("__mspabi_cmpd")
    2287                    .dwattr $C$DW$167, DW_AT_TI_call
    2288            
MSP430 Assembler PC v21.6.1 Tue Dec 20 13:46:05 2022

Copyright (c) 2003-2018 Texas Instruments Incorporated
loadfollow.asm                                                       PAGE   52

    2289 0009ac 13B0!         CALLA     #__mspabi_cmpd        ; [] |261| 
         0009ae 0000 
    2290                                                      ; [] |261| 
    2291 0009b0 930C          TST.W     r12                   ; [] |261| 
    2292 0009b2 344C          JGE       $C$L39                ; [] |261| 
    2293                                                      ; [] |261| 
    2294            ;* --------------------------------------------------------------------------*
    2295 0009b4 05CC          MOVA      r5,r12                ; [] |261| 
    2296 0009b6 07CD          MOVA      r7,r13                ; [] |261| 
    2297 0009b8 421E          MOV.W     &main_fuel_flow+0,r14 ; [] |261| 
         0009ba 0000!
    2298 0009bc 421F          MOV.W     &main_fuel_flow+2,r15 ; [] |261| 
         0009be 0002!
    2299            $C$DW$168       .dwtag  DW_TAG_TI_branch
    2300                    .dwattr $C$DW$168, DW_AT_low_pc(0x00)
    2301                    .dwattr $C$DW$168, DW_AT_name("__mspabi_cmpf")
    2302                    .dwattr $C$DW$168, DW_AT_TI_call
    2303            
    2304 0009c0 13B0!         CALLA     #__mspabi_cmpf        ; [] |261| 
         0009c2 0000 
    2305                                                      ; [] |261| 
    2306 0009c4 930C          TST.W     r12                   ; [] |261| 
    2307 0009c6 3442          JGE       $C$L39                ; [] |261| 
    2308                                                      ; [] |261| 
    2309            ;* --------------------------------------------------------------------------*
    2310 0009c8 421C          MOV.W     &main_fuel_flow+0,r12 ; [] |261| 
         0009ca 0000!
    2311 0009cc 421D          MOV.W     &main_fuel_flow+2,r13 ; [] |261| 
         0009ce 0002!
    2312 0009d0 430E          MOV.W     #0,r14                ; [] |200| 
    2313 0009d2 06CF          MOVA      r6,r15                ; [] |261| 
    2314            $C$DW$169       .dwtag  DW_TAG_TI_branch
    2315                    .dwattr $C$DW$169, DW_AT_low_pc(0x00)
    2316                    .dwattr $C$DW$169, DW_AT_name("__mspabi_cmpf")
    2317                    .dwattr $C$DW$169, DW_AT_TI_call
    2318            
    2319 0009d4 13B0!         CALLA     #__mspabi_cmpf        ; [] |261| 
         0009d6 0000 
    2320                                                      ; [] |261| 
    2321 0009d8 930C          TST.W     r12                   ; [] |261| 
    2322 0009da 3438          JGE       $C$L39                ; [] |261| 
    2323                                                      ; [] |261| 
    2324            ;* --------------------------------------------------------------------------*
    2325 0009dc 421C          MOV.W     &H2_util_wanted+0,r12 ; [] |261| 
         0009de 0000!
    2326 0009e0 421D          MOV.W     &H2_util_wanted+2,r13 ; [] |261| 
         0009e2 0002!
    2327 0009e4 421E          MOV.W     &H2_ADJ_temp+0,r14    ; [] |261| 
         0009e6 0000!
    2328 0009e8 421F          MOV.W     &H2_ADJ_temp+2,r15    ; [] |261| 
         0009ea 0002!
    2329            $C$DW$170       .dwtag  DW_TAG_TI_branch
    2330                    .dwattr $C$DW$170, DW_AT_low_pc(0x00)
    2331                    .dwattr $C$DW$170, DW_AT_name("__mspabi_addf")
    2332                    .dwattr $C$DW$170, DW_AT_TI_call
MSP430 Assembler PC v21.6.1 Tue Dec 20 13:46:05 2022

Copyright (c) 2003-2018 Texas Instruments Incorporated
loadfollow.asm                                                       PAGE   53

    2333            
    2334 0009ec 13B0!         CALLA     #__mspabi_addf        ; [] |261| 
         0009ee 0000 
    2335                                                      ; [] |261| 
    2336 0009f0 421E          MOV.W     &H2_Util_Max+0,r14    ; [] |261| 
         0009f2 0000!
    2337 0009f4 421F          MOV.W     &H2_Util_Max+2,r15    ; [] |261| 
         0009f6 0002!
    2338            $C$DW$171       .dwtag  DW_TAG_TI_branch
    2339                    .dwattr $C$DW$171, DW_AT_low_pc(0x00)
    2340                    .dwattr $C$DW$171, DW_AT_name("__mspabi_cmpf")
    2341                    .dwattr $C$DW$171, DW_AT_TI_call
    2342            
    2343 0009f8 13B0!         CALLA     #__mspabi_cmpf        ; [] |261| 
         0009fa 0000 
    2344                                                      ; [] |261| 
    2345 0009fc 930C          TST.W     r12                   ; [] |261| 
    2346 0009fe 3426          JGE       $C$L39                ; [] |261| 
    2347                                                      ; [] |261| 
    2348            ;* --------------------------------------------------------------------------*
    2349 000a00 421C          MOV.W     &H2_util_wanted+0,r12 ; [] |261| 
         000a02 0000!
    2350 000a04 421D          MOV.W     &H2_util_wanted+2,r13 ; [] |261| 
         000a06 0002!
    2351 000a08 421E          MOV.W     &H2_ADJ_temp+0,r14    ; [] |261| 
         000a0a 0000!
    2352 000a0c 421F          MOV.W     &H2_ADJ_temp+2,r15    ; [] |261| 
         000a0e 0002!
    2353            $C$DW$172       .dwtag  DW_TAG_TI_branch
    2354                    .dwattr $C$DW$172, DW_AT_low_pc(0x00)
    2355                    .dwattr $C$DW$172, DW_AT_name("__mspabi_addf")
    2356                    .dwattr $C$DW$172, DW_AT_TI_call
    2357            
    2358 000a10 13B0!         CALLA     #__mspabi_addf        ; [] |261| 
         000a12 0000 
    2359                                                      ; [] |261| 
    2360            $C$DW$173       .dwtag  DW_TAG_TI_branch
    2361                    .dwattr $C$DW$173, DW_AT_low_pc(0x00)
    2362                    .dwattr $C$DW$173, DW_AT_name("__mspabi_cvtfd")
    2363                    .dwattr $C$DW$173, DW_AT_TI_call
    2364            
    2365 000a14 13B0!         CALLA     #__mspabi_cvtfd       ; [] |261| 
         000a16 0000 
    2366                                                      ; [] |261| 
    2367 000a18 4038          MOV.W     #39322,r8             ; [] |261| 
         000a1a 999A 
    2368 000a1c 4039          MOV.W     #39321,r9             ; [] |261| 
         000a1e 9999 
    2369 000a20 403A          MOV.W     #39321,r10            ; [] |261| 
         000a22 9999 
    2370 000a24 403B          MOV.W     #16313,r11            ; [] |261| 
         000a26 3FB9 
    2371            $C$DW$174       .dwtag  DW_TAG_TI_branch
    2372                    .dwattr $C$DW$174, DW_AT_low_pc(0x00)
    2373                    .dwattr $C$DW$174, DW_AT_name("__mspabi_cmpd")
MSP430 Assembler PC v21.6.1 Tue Dec 20 13:46:05 2022

Copyright (c) 2003-2018 Texas Instruments Incorporated
loadfollow.asm                                                       PAGE   54

    2374                    .dwattr $C$DW$174, DW_AT_TI_call
    2375            
    2376 000a28 13B0!         CALLA     #__mspabi_cmpd        ; [] |261| 
         000a2a 0000 
    2377                                                      ; [] |261| 
    2378 000a2c 930C          TST.W     r12                   ; [] |261| 
    2379 000a2e 340E          JGE       $C$L39                ; [] |261| 
    2380                                                      ; [] |261| 
    2381            ;* --------------------------------------------------------------------------*
    2382                    .dwpsn  file "../src/loadfollow.c",line 263,column 277,is_stmt,isa 0
    2383 000a30 421C          MOV.W     &FCPerror_accumulated+0,r12 ; [] |263| 
         000a32 0000!
    2384 000a34 421D          MOV.W     &FCPerror_accumulated+2,r13 ; [] |263| 
         000a36 0002!
    2385 000a38 421E          MOV.W     &FCPerror+0,r14       ; [] |263| 
         000a3a 0000!
    2386 000a3c 421F          MOV.W     &FCPerror+2,r15       ; [] |263| 
         000a3e 0002!
    2387            $C$DW$175       .dwtag  DW_TAG_TI_branch
    2388                    .dwattr $C$DW$175, DW_AT_low_pc(0x00)
    2389                    .dwattr $C$DW$175, DW_AT_name("__mspabi_addf")
    2390                    .dwattr $C$DW$175, DW_AT_TI_call
    2391            
    2392 000a40 13B0!         CALLA     #__mspabi_addf        ; [] |263| 
         000a42 0000 
    2393                                                      ; [] |263| 
    2394 000a44 4C82          MOV.W     r12,&FCPerror_accumulated+0 ; [] |263| 
         000a46 0000!
    2395 000a48 4D82          MOV.W     r13,&FCPerror_accumulated+2 ; [] |263| 
         000a4a 0002!
    2396            ;* --------------------------------------------------------------------------*
    2397 000a4c       $C$L39:    
    2398                    .dwpsn  file "../src/loadfollow.c",line 266,column 5,is_stmt,isa 0
    2399 000a4c 4292          MOV.W     &FCPerror+0,&FCPerror1+0 ; [] |266| 
         000a4e 0000!
         000a50 0000!
    2400 000a52 4292          MOV.W     &FCPerror+2,&FCPerror1+2 ; [] |266| 
         000a54 0002!
         000a56 0002!
    2401            ;* --------------------------------------------------------------------------*
    2402 000a58       $C$L40:    
    2403                    .dwpsn  file "../src/loadfollow.c",line 268,column 3,is_stmt,isa 0
    2404 000a58 421C          MOV.W     &H2_ADJ+0,r12         ; [] |268| 
         000a5a 0000!
    2405 000a5c 421D          MOV.W     &H2_ADJ+2,r13         ; [] |268| 
         000a5e 0002!
    2406 000a60 421E          MOV.W     &H2_ADJ_temp+0,r14    ; [] |268| 
         000a62 0000!
    2407 000a64 421F          MOV.W     &H2_ADJ_temp+2,r15    ; [] |268| 
         000a66 0002!
    2408            $C$DW$176       .dwtag  DW_TAG_TI_branch
    2409                    .dwattr $C$DW$176, DW_AT_low_pc(0x00)
    2410                    .dwattr $C$DW$176, DW_AT_name("__mspabi_cmpf")
    2411                    .dwattr $C$DW$176, DW_AT_TI_call
    2412            
MSP430 Assembler PC v21.6.1 Tue Dec 20 13:46:05 2022

Copyright (c) 2003-2018 Texas Instruments Incorporated
loadfollow.asm                                                       PAGE   55

    2413 000a68 13B0!         CALLA     #__mspabi_cmpf        ; [] |268| 
         000a6a 0000 
    2414                                                      ; [] |268| 
    2415 000a6c 930C          TST.W     r12                   ; [] |268| 
    2416 000a6e 3827          JL        $C$L41                ; [] |268| 
    2417                                                      ; [] |268| 
    2418            ;* --------------------------------------------------------------------------*
    2419                    .dwpsn  file "../src/loadfollow.c",line 269,column 8,is_stmt,isa 0
    2420 000a70 421C          MOV.W     &H2_ADJ_temp+0,r12    ; [] |269| 
         000a72 0000!
    2421 000a74 421D          MOV.W     &H2_ADJ_temp+2,r13    ; [] |269| 
         000a76 0002!
    2422 000a78 421E          MOV.W     &H2_ADJ+0,r14         ; [] |269| 
         000a7a 0000!
    2423 000a7c 421F          MOV.W     &H2_ADJ+2,r15         ; [] |269| 
         000a7e 0002!
    2424            $C$DW$177       .dwtag  DW_TAG_TI_branch
    2425                    .dwattr $C$DW$177, DW_AT_low_pc(0x00)
    2426                    .dwattr $C$DW$177, DW_AT_name("__mspabi_cmpf")
    2427                    .dwattr $C$DW$177, DW_AT_TI_call
    2428            
    2429 000a80 13B0!         CALLA     #__mspabi_cmpf        ; [] |269| 
         000a82 0000 
    2430                                                      ; [] |269| 
    2431 000a84 930C          TST.W     r12                   ; [] |269| 
    2432 000a86 3435          JGE       $C$L42                ; [] |269| 
    2433                                                      ; [] |269| 
    2434            ;* --------------------------------------------------------------------------*
    2435                    .dwpsn  file "../src/loadfollow.c",line 269,column 33,is_stmt,isa 0
    2436 000a88 421C          MOV.W     &H2_ADJ+0,r12         ; [] |269| 
         000a8a 0000!
    2437 000a8c 421D          MOV.W     &H2_ADJ+2,r13         ; [] |269| 
         000a8e 0002!
    2438            $C$DW$178       .dwtag  DW_TAG_TI_branch
    2439                    .dwattr $C$DW$178, DW_AT_low_pc(0x00)
    2440                    .dwattr $C$DW$178, DW_AT_name("__mspabi_cvtfd")
    2441                    .dwattr $C$DW$178, DW_AT_TI_call
    2442            
    2443 000a90 13B0!         CALLA     #__mspabi_cvtfd       ; [] |269| 
         000a92 0000 
    2444                                                      ; [] |269| 
    2445 000a94 0CC8          MOVA      r12,r8                ; [] |269| 
    2446 000a96 0DC9          MOVA      r13,r9                ; [] |269| 
    2447 000a98 0ECA          MOVA      r14,r10               ; [] |269| 
    2448 000a9a 0FCB          MOVA      r15,r11               ; [] |269| 
    2449 000a9c 403C          MOV.W     #12897,r12            ; [] |269| 
         000a9e 3261 
    2450 000aa0 403D          MOV.W     #12373,r13            ; [] |269| 
         000aa2 3055 
    2451 000aa4 403E          MOV.W     #43306,r14            ; [] |269| 
         000aa6 A92A 
    2452 000aa8 403F          MOV.W     #16179,r15            ; [] |269| 
         000aaa 3F33 
    2453            $C$DW$179       .dwtag  DW_TAG_TI_branch
    2454                    .dwattr $C$DW$179, DW_AT_low_pc(0x00)
MSP430 Assembler PC v21.6.1 Tue Dec 20 13:46:05 2022

Copyright (c) 2003-2018 Texas Instruments Incorporated
loadfollow.asm                                                       PAGE   56

    2455                    .dwattr $C$DW$179, DW_AT_name("__mspabi_subd")
    2456                    .dwattr $C$DW$179, DW_AT_TI_call
    2457            
    2458 000aac 13B0!         CALLA     #__mspabi_subd        ; [] |269| 
         000aae 0000 
    2459                                                      ; [] |269| 
    2460            $C$DW$180       .dwtag  DW_TAG_TI_branch
    2461                    .dwattr $C$DW$180, DW_AT_low_pc(0x00)
    2462                    .dwattr $C$DW$180, DW_AT_name("__mspabi_cvtdf")
    2463                    .dwattr $C$DW$180, DW_AT_TI_call
    2464            
    2465 000ab0 13B0!         CALLA     #__mspabi_cvtdf       ; [] |269| 
         000ab2 0000 
    2466                                                      ; [] |269| 
    2467 000ab4 4C82          MOV.W     r12,&H2_ADJ+0         ; [] |269| 
         000ab6 0000!
    2468 000ab8 4D82          MOV.W     r13,&H2_ADJ+2         ; [] |269| 
         000aba 0002!
    2469 000abc 3C1A          JMP       $C$L42                ; [] |269| 
    2470                                                      ; [] |269| 
    2471            ;* --------------------------------------------------------------------------*
    2472 000abe       $C$L41:    
    2473                    .dwpsn  file "../src/loadfollow.c",line 268,column 28,is_stmt,isa 0
    2474 000abe 421C          MOV.W     &H2_ADJ+0,r12         ; [] |268| 
         000ac0 0000!
    2475 000ac2 421D          MOV.W     &H2_ADJ+2,r13         ; [] |268| 
         000ac4 0002!
    2476            $C$DW$181       .dwtag  DW_TAG_TI_branch
    2477                    .dwattr $C$DW$181, DW_AT_low_pc(0x00)
    2478                    .dwattr $C$DW$181, DW_AT_name("__mspabi_cvtfd")
    2479                    .dwattr $C$DW$181, DW_AT_TI_call
    2480            
    2481 000ac6 13B0!         CALLA     #__mspabi_cvtfd       ; [] |268| 
         000ac8 0000 
    2482                                                      ; [] |268| 
    2483 000aca 0CC8          MOVA      r12,r8                ; [] |268| 
    2484 000acc 0DC9          MOVA      r13,r9                ; [] |268| 
    2485 000ace 0ECA          MOVA      r14,r10               ; [] |268| 
    2486 000ad0 0FCB          MOVA      r15,r11               ; [] |268| 
    2487 000ad2 403C          MOV.W     #12897,r12            ; [] |268| 
         000ad4 3261 
    2488 000ad6 403D          MOV.W     #12373,r13            ; [] |268| 
         000ad8 3055 
    2489 000ada 403E          MOV.W     #43306,r14            ; [] |268| 
         000adc A92A 
    2490 000ade 403F          MOV.W     #16179,r15            ; [] |268| 
         000ae0 3F33 
    2491            $C$DW$182       .dwtag  DW_TAG_TI_branch
    2492                    .dwattr $C$DW$182, DW_AT_low_pc(0x00)
    2493                    .dwattr $C$DW$182, DW_AT_name("__mspabi_addd")
    2494                    .dwattr $C$DW$182, DW_AT_TI_call
    2495            
    2496 000ae2 13B0!         CALLA     #__mspabi_addd        ; [] |268| 
         000ae4 0000 
    2497                                                      ; [] |268| 
MSP430 Assembler PC v21.6.1 Tue Dec 20 13:46:05 2022

Copyright (c) 2003-2018 Texas Instruments Incorporated
loadfollow.asm                                                       PAGE   57

    2498            $C$DW$183       .dwtag  DW_TAG_TI_branch
    2499                    .dwattr $C$DW$183, DW_AT_low_pc(0x00)
    2500                    .dwattr $C$DW$183, DW_AT_name("__mspabi_cvtdf")
    2501                    .dwattr $C$DW$183, DW_AT_TI_call
    2502            
    2503 000ae6 13B0!         CALLA     #__mspabi_cvtdf       ; [] |268| 
         000ae8 0000 
    2504                                                      ; [] |268| 
    2505 000aea 4C82          MOV.W     r12,&H2_ADJ+0         ; [] |268| 
         000aec 0000!
    2506 000aee 4D82          MOV.W     r13,&H2_ADJ+2         ; [] |268| 
         000af0 0002!
    2507            ;* --------------------------------------------------------------------------*
    2508 000af2       $C$L42:    
    2509                    .dwpsn  file "../src/loadfollow.c",line 274,column 3,is_stmt,isa 0
    2510 000af2 421C          MOV.W     &H2_ADJ+0,r12         ; [] |274| 
         000af4 0000!
    2511 000af6 421D          MOV.W     &H2_ADJ+2,r13         ; [] |274| 
         000af8 0002!
    2512            $C$DW$184       .dwtag  DW_TAG_TI_branch
    2513                    .dwattr $C$DW$184, DW_AT_low_pc(0x00)
    2514                    .dwattr $C$DW$184, DW_AT_name("__mspabi_cvtfd")
    2515                    .dwattr $C$DW$184, DW_AT_TI_call
    2516            
    2517 000afa 13B0!         CALLA     #__mspabi_cvtfd       ; [] |274| 
         000afc 0000 
    2518                                                      ; [] |274| 
    2519 000afe 4038          MOV.W     #13107,r8             ; [] |274| 
         000b00 3333 
    2520 000b02 4039          MOV.W     #13107,r9             ; [] |274| 
         000b04 3333 
    2521 000b06 403A          MOV.W     #13107,r10            ; [] |274| 
         000b08 3333 
    2522 000b0a 403B          MOV.W     #16323,r11            ; [] |274| 
         000b0c 3FC3 
    2523            $C$DW$185       .dwtag  DW_TAG_TI_branch
    2524                    .dwattr $C$DW$185, DW_AT_low_pc(0x00)
    2525                    .dwattr $C$DW$185, DW_AT_name("__mspabi_cmpd")
    2526                    .dwattr $C$DW$185, DW_AT_TI_call
    2527            
    2528 000b0e 13B0!         CALLA     #__mspabi_cmpd        ; [] |274| 
         000b10 0000 
    2529                                                      ; [] |274| 
    2530 000b12 930C          TST.W     r12                   ; [] |274| 
    2531 000b14 3406          JGE       $C$L43                ; [] |274| 
    2532                                                      ; [] |274| 
    2533            ;* --------------------------------------------------------------------------*
    2534                    .dwpsn  file "../src/loadfollow.c",line 274,column 40,is_stmt,isa 0
    2535 000b16 40B2          MOV.W     #39322,&H2_ADJ+0      ; [] |274| 
         000b18 999A 
         000b1a 0000!
    2536 000b1c 40B2          MOV.W     #15897,&H2_ADJ+2      ; [] |274| 
         000b1e 3E19 
         000b20 0002!
    2537            ;* --------------------------------------------------------------------------*
MSP430 Assembler PC v21.6.1 Tue Dec 20 13:46:05 2022

Copyright (c) 2003-2018 Texas Instruments Incorporated
loadfollow.asm                                                       PAGE   58

    2538 000b22       $C$L43:    
    2539                    .dwpsn  file "../src/loadfollow.c",line 275,column 3,is_stmt,isa 0
    2540 000b22 421C          MOV.W     &H2_ADJ+0,r12         ; [] |275| 
         000b24 0000!
    2541 000b26 421D          MOV.W     &H2_ADJ+2,r13         ; [] |275| 
         000b28 0002!
    2542            $C$DW$186       .dwtag  DW_TAG_TI_branch
    2543                    .dwattr $C$DW$186, DW_AT_low_pc(0x00)
    2544                    .dwattr $C$DW$186, DW_AT_name("__mspabi_cvtfd")
    2545                    .dwattr $C$DW$186, DW_AT_TI_call
    2546            
    2547 000b2a 13B0!         CALLA     #__mspabi_cvtfd       ; [] |275| 
         000b2c 0000 
    2548                                                      ; [] |275| 
    2549 000b2e 0CC8          MOVA      r12,r8                ; [] |275| 
    2550 000b30 0DC9          MOVA      r13,r9                ; [] |275| 
    2551 000b32 0ECA          MOVA      r14,r10               ; [] |275| 
    2552 000b34 0FCB          MOVA      r15,r11               ; [] |275| 
    2553 000b36 403C          MOV.W     #13107,r12            ; [] |275| 
         000b38 3333 
    2554 000b3a 403D          MOV.W     #13107,r13            ; [] |275| 
         000b3c 3333 
    2555 000b3e 403E          MOV.W     #13107,r14            ; [] |275| 
         000b40 3333 
    2556 000b42 403F          MOV.W     #49107,r15            ; [] |275| 
         000b44 BFD3 
    2557            $C$DW$187       .dwtag  DW_TAG_TI_branch
    2558                    .dwattr $C$DW$187, DW_AT_low_pc(0x00)
    2559                    .dwattr $C$DW$187, DW_AT_name("__mspabi_cmpd")
    2560                    .dwattr $C$DW$187, DW_AT_TI_call
    2561            
    2562 000b46 13B0!         CALLA     #__mspabi_cmpd        ; [] |275| 
         000b48 0000 
    2563                                                      ; [] |275| 
    2564 000b4a 930C          TST.W     r12                   ; [] |275| 
    2565 000b4c 3406          JGE       $C$L44                ; [] |275| 
    2566                                                      ; [] |275| 
    2567            ;* --------------------------------------------------------------------------*
    2568                    .dwpsn  file "../src/loadfollow.c",line 275,column 40,is_stmt,isa 0
    2569 000b4e 40B2          MOV.W     #39322,&H2_ADJ+0      ; [] |275| 
         000b50 999A 
         000b52 0000!
    2570 000b54 40B2          MOV.W     #48793,&H2_ADJ+2      ; [] |275| 
         000b56 BE99 
         000b58 0002!
    2571            ;* --------------------------------------------------------------------------*
    2572 000b5a       $C$L44:    
    2573                    .dwpsn  file "../src/loadfollow.c",line 276,column 3,is_stmt,isa 0
    2574 000b5a 421C          MOV.W     &H2_util_wanted+0,r12 ; [] |276| 
         000b5c 0000!
    2575 000b5e 421D          MOV.W     &H2_util_wanted+2,r13 ; [] |276| 
         000b60 0002!
    2576 000b62 421E          MOV.W     &H2_ADJ+0,r14         ; [] |276| 
         000b64 0000!
    2577 000b66 421F          MOV.W     &H2_ADJ+2,r15         ; [] |276| 
MSP430 Assembler PC v21.6.1 Tue Dec 20 13:46:05 2022

Copyright (c) 2003-2018 Texas Instruments Incorporated
loadfollow.asm                                                       PAGE   59

         000b68 0002!
    2578            $C$DW$188       .dwtag  DW_TAG_TI_branch
    2579                    .dwattr $C$DW$188, DW_AT_low_pc(0x00)
    2580                    .dwattr $C$DW$188, DW_AT_name("__mspabi_addf")
    2581                    .dwattr $C$DW$188, DW_AT_TI_call
    2582            
    2583 000b6a 13B0!         CALLA     #__mspabi_addf        ; [] |276| 
         000b6c 0000 
    2584                                                      ; [] |276| 
    2585            $C$DW$189       .dwtag  DW_TAG_TI_branch
    2586                    .dwattr $C$DW$189, DW_AT_low_pc(0x00)
    2587                    .dwattr $C$DW$189, DW_AT_name("__mspabi_cvtfd")
    2588                    .dwattr $C$DW$189, DW_AT_TI_call
    2589            
    2590 000b6e 13B0!         CALLA     #__mspabi_cvtfd       ; [] |276| 
         000b70 0000 
    2591                                                      ; [] |276| 
    2592 000b72 0CC8          MOVA      r12,r8                ; [] |276| 
    2593 000b74 0DC9          MOVA      r13,r9                ; [] |276| 
    2594 000b76 0ECA          MOVA      r14,r10               ; [] |276| 
    2595 000b78 0FCB          MOVA      r15,r11               ; [] |276| 
    2596 000b7a 403C          MOV.W     #39322,r12            ; [] |276| 
         000b7c 999A 
    2597 000b7e 403D          MOV.W     #39321,r13            ; [] |276| 
         000b80 9999 
    2598 000b82 403E          MOV.W     #39321,r14            ; [] |276| 
         000b84 9999 
    2599 000b86 403F          MOV.W     #16313,r15            ; [] |276| 
         000b88 3FB9 
    2600            $C$DW$190       .dwtag  DW_TAG_TI_branch
    2601                    .dwattr $C$DW$190, DW_AT_low_pc(0x00)
    2602                    .dwattr $C$DW$190, DW_AT_name("__mspabi_cmpd")
    2603                    .dwattr $C$DW$190, DW_AT_TI_call
    2604            
    2605 000b8a 13B0!         CALLA     #__mspabi_cmpd        ; [] |276| 
         000b8c 0000 
    2606                                                      ; [] |276| 
    2607 000b8e 930C          TST.W     r12                   ; [] |276| 
    2608 000b90 3416          JGE       $C$L45                ; [] |276| 
    2609                                                      ; [] |276| 
    2610            ;* --------------------------------------------------------------------------*
    2611                    .dwpsn  file "../src/loadfollow.c",line 276,column 48,is_stmt,isa 0
    2612 000b92 421C          MOV.W     &H2_util_wanted+0,r12 ; [] |276| 
         000b94 0000!
    2613 000b96 421D          MOV.W     &H2_util_wanted+2,r13 ; [] |276| 
         000b98 0002!
    2614            $C$DW$191       .dwtag  DW_TAG_TI_branch
    2615                    .dwattr $C$DW$191, DW_AT_low_pc(0x00)
    2616                    .dwattr $C$DW$191, DW_AT_name("__mspabi_cvtfd")
    2617                    .dwattr $C$DW$191, DW_AT_TI_call
    2618            
    2619 000b9a 13B0!         CALLA     #__mspabi_cvtfd       ; [] |276| 
         000b9c 0000 
    2620                                                      ; [] |276| 
    2621 000b9e 4038          MOV.W     #39322,r8             ; [] |276| 
MSP430 Assembler PC v21.6.1 Tue Dec 20 13:46:05 2022

Copyright (c) 2003-2018 Texas Instruments Incorporated
loadfollow.asm                                                       PAGE   60

         000ba0 999A 
    2622 000ba2 4039          MOV.W     #39321,r9             ; [] |276| 
         000ba4 9999 
    2623 000ba6 403A          MOV.W     #39321,r10            ; [] |276| 
         000ba8 9999 
    2624 000baa 403B          MOV.W     #16313,r11            ; [] |276| 
         000bac 3FB9 
    2625            $C$DW$192       .dwtag  DW_TAG_TI_branch
    2626                    .dwattr $C$DW$192, DW_AT_low_pc(0x00)
    2627                    .dwattr $C$DW$192, DW_AT_name("__mspabi_subd")
    2628                    .dwattr $C$DW$192, DW_AT_TI_call
    2629            
    2630 000bae 13B0!         CALLA     #__mspabi_subd        ; [] |276| 
         000bb0 0000 
    2631                                                      ; [] |276| 
    2632            $C$DW$193       .dwtag  DW_TAG_TI_branch
    2633                    .dwattr $C$DW$193, DW_AT_low_pc(0x00)
    2634                    .dwattr $C$DW$193, DW_AT_name("__mspabi_cvtdf")
    2635                    .dwattr $C$DW$193, DW_AT_TI_call
    2636            
    2637 000bb2 13B0!         CALLA     #__mspabi_cvtdf       ; [] |276| 
         000bb4 0000 
    2638                                                      ; [] |276| 
    2639 000bb6 4C82          MOV.W     r12,&H2_ADJ+0         ; [] |276| 
         000bb8 0000!
    2640 000bba 4D82          MOV.W     r13,&H2_ADJ+2         ; [] |276| 
         000bbc 0002!
    2641            ;* --------------------------------------------------------------------------*
    2642 000bbe       $C$L45:    
    2643                    .dwpsn  file "../src/loadfollow.c",line 280,column 3,is_stmt,isa 0
    2644 000bbe 430C          MOV.W     #0,r12                ; [] |280| 
    2645 000bc0 430D          MOV.W     #0,r13                ; [] |280| 
    2646 000bc2 421E          MOV.W     &O2_util_desired+0,r14 ; [] |280| 
         000bc4 0000!
    2647 000bc6 421F          MOV.W     &O2_util_desired+2,r15 ; [] |280| 
         000bc8 0002!
    2648            $C$DW$194       .dwtag  DW_TAG_TI_branch
    2649                    .dwattr $C$DW$194, DW_AT_low_pc(0x00)
    2650                    .dwattr $C$DW$194, DW_AT_name("__mspabi_cmpf")
    2651                    .dwattr $C$DW$194, DW_AT_TI_call
    2652            
    2653 000bca 13B0!         CALLA     #__mspabi_cmpf        ; [] |280| 
         000bcc 0000 
    2654                                                      ; [] |280| 
    2655 000bce 930C          TST.W     r12                   ; [] |280| 
    2656 000bd0 38A3          JL        $C$L48                ; [] |280| 
    2657                                                      ; [] |280| 
    2658            ;* --------------------------------------------------------------------------*
    2659                    .dwpsn  file "../src/loadfollow.c",line 286,column 5,is_stmt,isa 0
    2660 000bd2 421C          MOV.W     &FC_Current+0,r12     ; [] |286| 
         000bd4 0000!
    2661 000bd6 421D          MOV.W     &FC_Current+2,r13     ; [] |286| 
         000bd8 0002!
    2662            $C$DW$195       .dwtag  DW_TAG_TI_branch
    2663                    .dwattr $C$DW$195, DW_AT_low_pc(0x00)
MSP430 Assembler PC v21.6.1 Tue Dec 20 13:46:05 2022

Copyright (c) 2003-2018 Texas Instruments Incorporated
loadfollow.asm                                                       PAGE   61

    2664                    .dwattr $C$DW$195, DW_AT_name("__mspabi_cvtfd")
    2665                    .dwattr $C$DW$195, DW_AT_TI_call
    2666            
    2667 000bda 13B0!         CALLA     #__mspabi_cvtfd       ; [] |286| 
         000bdc 0000 
    2668                                                      ; [] |286| 
    2669 000bde 0CC8          MOVA      r12,r8                ; [] |286| 
    2670 000be0 0DC9          MOVA      r13,r9                ; [] |286| 
    2671 000be2 0ECA          MOVA      r14,r10               ; [] |286| 
    2672 000be4 0FCB          MOVA      r15,r11               ; [] |286| 
    2673 000be6 403C          MOV.W     #61790,r12            ; [] |286| 
         000be8 F15E 
    2674 000bea 403D          MOV.W     #27257,r13            ; [] |286| 
         000bec 6A79 
    2675 000bee 403E          MOV.W     #7322,r14             ; [] |286| 
         000bf0 1C9A 
    2676 000bf2 403F          MOV.W     #49011,r15            ; [] |286| 
         000bf4 BF73 
    2677            $C$DW$196       .dwtag  DW_TAG_TI_branch
    2678                    .dwattr $C$DW$196, DW_AT_low_pc(0x00)
    2679                    .dwattr $C$DW$196, DW_AT_name("__mspabi_mpyd")
    2680                    .dwattr $C$DW$196, DW_AT_TI_call
    2681            
    2682 000bf6 13B0!         CALLA     #__mspabi_mpyd        ; [] |286| 
         000bf8 0000 
    2683                                                      ; [] |286| 
    2684 000bfa 0CC8          MOVA      r12,r8                ; [] |286| 
    2685 000bfc 0DC9          MOVA      r13,r9                ; [] |286| 
    2686 000bfe 0ECA          MOVA      r14,r10               ; [] |286| 
    2687 000c00 0FC7          MOVA      r15,r7                ; [] |286| 
    2688 000c02 421C          MOV.W     &FC_Current+0,r12     ; [] |286| 
         000c04 0000!
    2689 000c06 421D          MOV.W     &FC_Current+2,r13     ; [] |286| 
         000c08 0002!
    2690            $C$DW$197       .dwtag  DW_TAG_TI_branch
    2691                    .dwattr $C$DW$197, DW_AT_low_pc(0x00)
    2692                    .dwattr $C$DW$197, DW_AT_name("__mspabi_cvtfd")
    2693                    .dwattr $C$DW$197, DW_AT_TI_call
    2694            
    2695 000c0a 13B0!         CALLA     #__mspabi_cvtfd       ; [] |286| 
         000c0c 0000 
    2696                                                      ; [] |286| 
    2697 000c0e 07CB          MOVA      r7,r11                ; [] |286| 
    2698            $C$DW$198       .dwtag  DW_TAG_TI_branch
    2699                    .dwattr $C$DW$198, DW_AT_low_pc(0x00)
    2700                    .dwattr $C$DW$198, DW_AT_name("__mspabi_mpyd")
    2701                    .dwattr $C$DW$198, DW_AT_TI_call
    2702            
    2703 000c10 13B0!         CALLA     #__mspabi_mpyd        ; [] |286| 
         000c12 0000 
    2704                                                      ; [] |286| 
    2705 000c14 0CC4          MOVA      r12,r4                ; [] |286| 
    2706 000c16 0DC5          MOVA      r13,r5                ; [] |286| 
    2707 000c18 0EC6          MOVA      r14,r6                ; [] |286| 
    2708 000c1a 0FC7          MOVA      r15,r7                ; [] |286| 
MSP430 Assembler PC v21.6.1 Tue Dec 20 13:46:05 2022

Copyright (c) 2003-2018 Texas Instruments Incorporated
loadfollow.asm                                                       PAGE   62

    2709 000c1c 421C          MOV.W     &FC_Current+0,r12     ; [] |286| 
         000c1e 0000!
    2710 000c20 421D          MOV.W     &FC_Current+2,r13     ; [] |286| 
         000c22 0002!
    2711            $C$DW$199       .dwtag  DW_TAG_TI_branch
    2712                    .dwattr $C$DW$199, DW_AT_low_pc(0x00)
    2713                    .dwattr $C$DW$199, DW_AT_name("__mspabi_cvtfd")
    2714                    .dwattr $C$DW$199, DW_AT_TI_call
    2715            
    2716 000c24 13B0!         CALLA     #__mspabi_cvtfd       ; [] |286| 
         000c26 0000 
    2717                                                      ; [] |286| 
    2718 000c28 0CC8          MOVA      r12,r8                ; [] |286| 
    2719 000c2a 0DC9          MOVA      r13,r9                ; [] |286| 
    2720 000c2c 0ECA          MOVA      r14,r10               ; [] |286| 
    2721 000c2e 0FCB          MOVA      r15,r11               ; [] |286| 
    2722 000c30 403C          MOV.W     #4005,r12             ; [] |286| 
         000c32 0FA5 
    2723 000c34 403D          MOV.W     #42275,r13            ; [] |286| 
         000c36 A523 
    2724 000c38 403E          MOV.W     #1109,r14             ; [] |286| 
         000c3a 0455 
    2725 000c3c 403F          MOV.W     #16308,r15            ; [] |286| 
         000c3e 3FB4 
    2726            $C$DW$200       .dwtag  DW_TAG_TI_branch
    2727                    .dwattr $C$DW$200, DW_AT_low_pc(0x00)
    2728                    .dwattr $C$DW$200, DW_AT_name("__mspabi_mpyd")
    2729                    .dwattr $C$DW$200, DW_AT_TI_call
    2730            
    2731 000c40 13B0!         CALLA     #__mspabi_mpyd        ; [] |286| 
         000c42 0000 
    2732                                                      ; [] |286| 
    2733            ;* --------------------------------------------------------------------------*
    2734 000c44 04C8          MOVA      r4,r8                 ; [] |286| 
    2735 000c46 05C9          MOVA      r5,r9                 ; [] |286| 
    2736 000c48 06CA          MOVA      r6,r10                ; [] |286| 
    2737 000c4a 07CB          MOVA      r7,r11                ; [] |286| 
    2738            $C$DW$201       .dwtag  DW_TAG_TI_branch
    2739                    .dwattr $C$DW$201, DW_AT_low_pc(0x00)
    2740                    .dwattr $C$DW$201, DW_AT_name("__mspabi_addd")
    2741                    .dwattr $C$DW$201, DW_AT_TI_call
    2742            
    2743 000c4c 13B0!         CALLA     #__mspabi_addd        ; [] |286| 
         000c4e 0000 
    2744                                                      ; [] |286| 
    2745 000c50 0CC8          MOVA      r12,r8                ; [] |286| 
    2746 000c52 0DC9          MOVA      r13,r9                ; [] |286| 
    2747 000c54 0ECA          MOVA      r14,r10               ; [] |286| 
    2748 000c56 0FCB          MOVA      r15,r11               ; [] |286| 
    2749 000c58 403C          MOV.W     #24718,r12            ; [] |286| 
         000c5a 608E 
    2750 000c5c 403D          MOV.W     #38908,r13            ; [] |286| 
         000c5e 97FC 
    2751 000c60 403E          MOV.W     #35096,r14            ; [] |286| 
         000c62 8918 
MSP430 Assembler PC v21.6.1 Tue Dec 20 13:46:05 2022

Copyright (c) 2003-2018 Texas Instruments Incorporated
loadfollow.asm                                                       PAGE   63

    2752 000c64 403F          MOV.W     #16320,r15            ; [] |286| 
         000c66 3FC0 
    2753            $C$DW$202       .dwtag  DW_TAG_TI_branch
    2754                    .dwattr $C$DW$202, DW_AT_low_pc(0x00)
    2755                    .dwattr $C$DW$202, DW_AT_name("__mspabi_addd")
    2756                    .dwattr $C$DW$202, DW_AT_TI_call
    2757            
    2758 000c68 13B0!         CALLA     #__mspabi_addd        ; [] |286| 
         000c6a 0000 
    2759                                                      ; [] |286| 
    2760            $C$DW$203       .dwtag  DW_TAG_TI_branch
    2761                    .dwattr $C$DW$203, DW_AT_low_pc(0x00)
    2762                    .dwattr $C$DW$203, DW_AT_name("__mspabi_cvtdf")
    2763                    .dwattr $C$DW$203, DW_AT_TI_call
    2764            
    2765 000c6c 13B0!         CALLA     #__mspabi_cvtdf       ; [] |286| 
         000c6e 0000 
    2766                                                      ; [] |286| 
    2767 000c70 4C82          MOV.W     r12,&O2_util_wanted+0 ; [] |286| 
         000c72 0000!
    2768 000c74 4D82          MOV.W     r13,&O2_util_wanted+2 ; [] |286| 
         000c76 0002!
    2769                    .dwpsn  file "../src/loadfollow.c",line 289,column 5,is_stmt,isa 0
    2770 000c78 403C          MOV.W     #10,r12               ; [] |289| 
         000c7a 000A 
    2771 000c7c 521C          ADD.W     &Tset+0,r12           ; [] |289| 
         000c7e 0000!
    2772            $C$DW$204       .dwtag  DW_TAG_TI_branch
    2773                    .dwattr $C$DW$204, DW_AT_low_pc(0x00)
    2774                    .dwattr $C$DW$204, DW_AT_name("__mspabi_fltif")
    2775                    .dwattr $C$DW$204, DW_AT_TI_call
    2776            
    2777 000c80 13B0!         CALLA     #__mspabi_fltif       ; [] |289| 
         000c82 0000 
    2778                                                      ; [] |289| 
    2779 000c84 421E          MOV.W     &TC2_temp+0,r14       ; [] |289| 
         000c86 0000!
    2780 000c88 421F          MOV.W     &TC2_temp+2,r15       ; [] |289| 
         000c8a 0002!
    2781            $C$DW$205       .dwtag  DW_TAG_TI_branch
    2782                    .dwattr $C$DW$205, DW_AT_low_pc(0x00)
    2783                    .dwattr $C$DW$205, DW_AT_name("__mspabi_cmpf")
    2784                    .dwattr $C$DW$205, DW_AT_TI_call
    2785            
    2786 000c8c 13B0!         CALLA     #__mspabi_cmpf        ; [] |289| 
         000c8e 0000 
    2787                                                      ; [] |289| 
    2788 000c90 930C          TST.W     r12                   ; [] |289| 
    2789 000c92 3819          JL        $C$L46                ; [] |289| 
    2790                                                      ; [] |289| 
    2791            ;* --------------------------------------------------------------------------*
    2792                    .dwpsn  file "../src/loadfollow.c",line 293,column 10,is_stmt,isa 0
    2793 000c94 421C          MOV.W     &O2_util_wanted+0,r12 ; [] |293| 
         000c96 0000!
    2794 000c98 421D          MOV.W     &O2_util_wanted+2,r13 ; [] |293| 
MSP430 Assembler PC v21.6.1 Tue Dec 20 13:46:05 2022

Copyright (c) 2003-2018 Texas Instruments Incorporated
loadfollow.asm                                                       PAGE   64

         000c9a 0002!
    2795            $C$DW$206       .dwtag  DW_TAG_TI_branch
    2796                    .dwattr $C$DW$206, DW_AT_low_pc(0x00)
    2797                    .dwattr $C$DW$206, DW_AT_name("__mspabi_cvtfd")
    2798                    .dwattr $C$DW$206, DW_AT_TI_call
    2799            
    2800 000c9c 13B0!         CALLA     #__mspabi_cvtfd       ; [] |293| 
         000c9e 0000 
    2801                                                      ; [] |293| 
    2802 000ca0 4038          MOV.W     #52429,r8             ; [] |293| 
         000ca2 CCCD 
    2803 000ca4 4039          MOV.W     #52428,r9             ; [] |293| 
         000ca6 CCCC 
    2804 000ca8 403A          MOV.W     #52428,r10            ; [] |293| 
         000caa CCCC 
    2805 000cac 403B          MOV.W     #16348,r11            ; [] |293| 
         000cae 3FDC 
    2806            $C$DW$207       .dwtag  DW_TAG_TI_branch
    2807                    .dwattr $C$DW$207, DW_AT_low_pc(0x00)
    2808                    .dwattr $C$DW$207, DW_AT_name("__mspabi_cmpd")
    2809                    .dwattr $C$DW$207, DW_AT_TI_call
    2810            
    2811 000cb0 13B0!         CALLA     #__mspabi_cmpd        ; [] |293| 
         000cb2 0000 
    2812                                                      ; [] |293| 
    2813 000cb4 930C          TST.W     r12                   ; [] |293| 
    2814 000cb6 341F          JGE       $C$L47                ; [] |293| 
    2815                                                      ; [] |293| 
    2816            ;* --------------------------------------------------------------------------*
    2817                    .dwpsn  file "../src/loadfollow.c",line 293,column 37,is_stmt,isa 0
    2818 000cb8 40B2          MOV.W     #26214,&O2_util_wanted+0 ; [] |293| 
         000cba 6666 
         000cbc 0000!
    2819 000cbe 40B2          MOV.W     #16102,&O2_util_wanted+2 ; [] |293| 
         000cc0 3EE6 
         000cc2 0002!
    2820 000cc4 3C18          JMP       $C$L47                ; [] |293| 
    2821                                                      ; [] |293| 
    2822            ;* --------------------------------------------------------------------------*
    2823 000cc6       $C$L46:    
    2824                    .dwpsn  file "../src/loadfollow.c",line 291,column 7,is_stmt,isa 0
    2825 000cc6 421C          MOV.W     &O2_util_wanted+0,r12 ; [] |291| 
         000cc8 0000!
    2826 000cca 421D          MOV.W     &O2_util_wanted+2,r13 ; [] |291| 
         000ccc 0002!
    2827            $C$DW$208       .dwtag  DW_TAG_TI_branch
    2828                    .dwattr $C$DW$208, DW_AT_low_pc(0x00)
    2829                    .dwattr $C$DW$208, DW_AT_name("__mspabi_cvtfd")
    2830                    .dwattr $C$DW$208, DW_AT_TI_call
    2831            
    2832 000cce 13B0!         CALLA     #__mspabi_cvtfd       ; [] |291| 
         000cd0 0000 
    2833                                                      ; [] |291| 
    2834 000cd2 4038          MOV.W     #44564,r8             ; [] |291| 
         000cd4 AE14 
MSP430 Assembler PC v21.6.1 Tue Dec 20 13:46:05 2022

Copyright (c) 2003-2018 Texas Instruments Incorporated
loadfollow.asm                                                       PAGE   65

    2835 000cd6 4039          MOV.W     #57671,r9             ; [] |291| 
         000cd8 E147 
    2836 000cda 403A          MOV.W     #5242,r10             ; [] |291| 
         000cdc 147A 
    2837 000cde 403B          MOV.W     #16350,r11            ; [] |291| 
         000ce0 3FDE 
    2838            $C$DW$209       .dwtag  DW_TAG_TI_branch
    2839                    .dwattr $C$DW$209, DW_AT_low_pc(0x00)
    2840                    .dwattr $C$DW$209, DW_AT_name("__mspabi_cmpd")
    2841                    .dwattr $C$DW$209, DW_AT_TI_call
    2842            
    2843 000ce2 13B0!         CALLA     #__mspabi_cmpd        ; [] |291| 
         000ce4 0000 
    2844                                                      ; [] |291| 
    2845 000ce6 930C          TST.W     r12                   ; [] |291| 
    2846 000ce8 3406          JGE       $C$L47                ; [] |291| 
    2847                                                      ; [] |291| 
    2848            ;* --------------------------------------------------------------------------*
    2849                    .dwpsn  file "../src/loadfollow.c",line 291,column 34,is_stmt,isa 0
    2850 000cea 40B2          MOV.W     #41943,&O2_util_wanted+0 ; [] |291| 
         000cec A3D7 
         000cee 0000!
    2851 000cf0 40B2          MOV.W     #16112,&O2_util_wanted+2 ; [] |291| 
         000cf2 3EF0 
         000cf4 0002!
    2852            ;* --------------------------------------------------------------------------*
    2853 000cf6       $C$L47:    
    2854                    .dwpsn  file "../src/loadfollow.c",line 294,column 5,is_stmt,isa 0
    2855 000cf6 421C          MOV.W     &O2_util_wanted+0,r12 ; [] |294| 
         000cf8 0000!
    2856 000cfa 421D          MOV.W     &O2_util_wanted+2,r13 ; [] |294| 
         000cfc 0002!
    2857 000cfe 430E          MOV.W     #0,r14                ; [] |294| 
    2858 000d00 403F          MOV.W     #16000,r15            ; [] |294| 
         000d02 3E80 
    2859            $C$DW$210       .dwtag  DW_TAG_TI_branch
    2860                    .dwattr $C$DW$210, DW_AT_low_pc(0x00)
    2861                    .dwattr $C$DW$210, DW_AT_name("__mspabi_cmpf")
    2862                    .dwattr $C$DW$210, DW_AT_TI_call
    2863            
    2864 000d04 13B0!         CALLA     #__mspabi_cmpf        ; [] |294| 
         000d06 0000 
    2865                                                      ; [] |294| 
    2866 000d08 930C          TST.W     r12                   ; [] |294| 
    2867 000d0a 340C          JGE       $C$L49                ; [] |294| 
    2868                                                      ; [] |294| 
    2869            ;* --------------------------------------------------------------------------*
    2870                    .dwpsn  file "../src/loadfollow.c",line 294,column 32,is_stmt,isa 0
    2871 000d0c 4382          MOV.W     #0,&O2_util_wanted+0  ; [] |294| 
         000d0e 0000!
    2872 000d10 40B2          MOV.W     #16000,&O2_util_wanted+2 ; [] |294| 
         000d12 3E80 
         000d14 0002!
    2873 000d16 3C06          JMP       $C$L49                ; [] |294| 
    2874                                                      ; [] |294| 
MSP430 Assembler PC v21.6.1 Tue Dec 20 13:46:05 2022

Copyright (c) 2003-2018 Texas Instruments Incorporated
loadfollow.asm                                                       PAGE   66

    2875            ;* --------------------------------------------------------------------------*
    2876 000d18       $C$L48:    
    2877                    .dwpsn  file "../src/loadfollow.c",line 280,column 27,is_stmt,isa 0
    2878 000d18 4292          MOV.W     &O2_util_desired+0,&O2_util_wanted+0 ; [] |280| 
         000d1a 0000!
         000d1c 0000!
    2879 000d1e 4292          MOV.W     &O2_util_desired+2,&O2_util_wanted+2 ; [] |280| 
         000d20 0002!
         000d22 0002!
    2880            ;* --------------------------------------------------------------------------*
    2881 000d24       $C$L49:    
    2882                    .dwpsn  file "../src/loadfollow.c",line 297,column 3,is_stmt,isa 0
    2883 000d24 421C          MOV.W     &O2_Cons+0,r12        ; [] |297| 
         000d26 0000!
    2884 000d28 421D          MOV.W     &O2_Cons+2,r13        ; [] |297| 
         000d2a 0002!
    2885 000d2c 421E          MOV.W     &O2_util_wanted+0,r14 ; [] |297| 
         000d2e 0000!
    2886 000d30 421F          MOV.W     &O2_util_wanted+2,r15 ; [] |297| 
         000d32 0002!
    2887            $C$DW$211       .dwtag  DW_TAG_TI_branch
    2888                    .dwattr $C$DW$211, DW_AT_low_pc(0x00)
    2889                    .dwattr $C$DW$211, DW_AT_name("__mspabi_divf")
    2890                    .dwattr $C$DW$211, DW_AT_TI_call
    2891            
    2892 000d34 13B0!         CALLA     #__mspabi_divf        ; [] |297| 
         000d36 0000 
    2893                                                      ; [] |297| 
    2894            $C$DW$212       .dwtag  DW_TAG_TI_branch
    2895                    .dwattr $C$DW$212, DW_AT_low_pc(0x00)
    2896                    .dwattr $C$DW$212, DW_AT_name("__mspabi_cvtfd")
    2897                    .dwattr $C$DW$212, DW_AT_TI_call
    2898            
    2899 000d38 13B0!         CALLA     #__mspabi_cvtfd       ; [] |297| 
         000d3a 0000 
    2900                                                      ; [] |297| 
    2901 000d3c 0CC8          MOVA      r12,r8                ; [] |297| 
    2902 000d3e 0DC9          MOVA      r13,r9                ; [] |297| 
    2903 000d40 0ECA          MOVA      r14,r10               ; [] |297| 
    2904 000d42 0FCB          MOVA      r15,r11               ; [] |297| 
    2905 000d44 403C          MOV.W     #31457,r12            ; [] |297| 
         000d46 7AE1 
    2906 000d48 403D          MOV.W     #44564,r13            ; [] |297| 
         000d4a AE14 
    2907 000d4c 403E          MOV.W     #57671,r14            ; [] |297| 
         000d4e E147 
    2908 000d50 403F          MOV.W     #16330,r15            ; [] |297| 
         000d52 3FCA 
    2909            $C$DW$213       .dwtag  DW_TAG_TI_branch
    2910                    .dwattr $C$DW$213, DW_AT_low_pc(0x00)
    2911                    .dwattr $C$DW$213, DW_AT_name("__mspabi_divd")
    2912                    .dwattr $C$DW$213, DW_AT_TI_call
    2913            
    2914 000d54 13B0!         CALLA     #__mspabi_divd        ; [] |297| 
         000d56 0000 
MSP430 Assembler PC v21.6.1 Tue Dec 20 13:46:05 2022

Copyright (c) 2003-2018 Texas Instruments Incorporated
loadfollow.asm                                                       PAGE   67

    2915                                                      ; [] |297| 
    2916            $C$DW$214       .dwtag  DW_TAG_TI_branch
    2917                    .dwattr $C$DW$214, DW_AT_low_pc(0x00)
    2918                    .dwattr $C$DW$214, DW_AT_name("__mspabi_cvtdf")
    2919                    .dwattr $C$DW$214, DW_AT_TI_call
    2920            
    2921 000d58 13B0!         CALLA     #__mspabi_cvtdf       ; [] |297| 
         000d5a 0000 
    2922                                                      ; [] |297| 
    2923 000d5c 4C82          MOV.W     r12,&new_air_flow+0   ; [] |297| 
         000d5e 0000!
    2924 000d60 4D82          MOV.W     r13,&new_air_flow+2   ; [] |297| 
         000d62 0002!
    2925                    .dwpsn  file "../src/loadfollow.c",line 298,column 3,is_stmt,isa 0
    2926 000d64 421C          MOV.W     &O2_util_wanted+0,r12 ; [] |298| 
         000d66 0000!
    2927 000d68 421D          MOV.W     &O2_util_wanted+2,r13 ; [] |298| 
         000d6a 0002!
    2928 000d6c 421E          MOV.W     &O2_util+0,r14        ; [] |298| 
         000d6e 0000!
    2929 000d70 421F          MOV.W     &O2_util+2,r15        ; [] |298| 
         000d72 0002!
    2930            $C$DW$215       .dwtag  DW_TAG_TI_branch
    2931                    .dwattr $C$DW$215, DW_AT_low_pc(0x00)
    2932                    .dwattr $C$DW$215, DW_AT_name("__mspabi_cmpf")
    2933                    .dwattr $C$DW$215, DW_AT_TI_call
    2934            
    2935 000d74 13B0!         CALLA     #__mspabi_cmpf        ; [] |298| 
         000d76 0000 
    2936                                                      ; [] |298| 
    2937 000d78 930C          TST.W     r12                   ; [] |298| 
    2938 000d7a 387B          JL        $C$L54                ; [] |298| 
    2939                                                      ; [] |298| 
    2940            ;* --------------------------------------------------------------------------*
    2941                    .dwpsn  file "../src/loadfollow.c",line 299,column 8,is_stmt,isa 0
    2942 000d7c 421C          MOV.W     &old_air_flow+0,r12   ; [] |299| 
         000d7e 0000!
    2943 000d80 421D          MOV.W     &old_air_flow+2,r13   ; [] |299| 
         000d82 0002!
    2944 000d84 421E          MOV.W     &new_air_flow+0,r14   ; [] |299| 
         000d86 0000!
    2945 000d88 421F          MOV.W     &new_air_flow+2,r15   ; [] |299| 
         000d8a 0002!
    2946            $C$DW$216       .dwtag  DW_TAG_TI_branch
    2947                    .dwattr $C$DW$216, DW_AT_low_pc(0x00)
    2948                    .dwattr $C$DW$216, DW_AT_name("__mspabi_cmpf")
    2949                    .dwattr $C$DW$216, DW_AT_TI_call
    2950            
    2951 000d8c 13B0!         CALLA     #__mspabi_cmpf        ; [] |299| 
         000d8e 0000 
    2952                                                      ; [] |299| 
    2953 000d90 930C          TST.W     r12                   ; [] |299| 
    2954 000d92 3854          JL        $C$L53                ; [] |299| 
    2955                                                      ; [] |299| 
    2956            ;* --------------------------------------------------------------------------*
MSP430 Assembler PC v21.6.1 Tue Dec 20 13:46:05 2022

Copyright (c) 2003-2018 Texas Instruments Incorporated
loadfollow.asm                                                       PAGE   68

    2957                    .dwpsn  file "../src/loadfollow.c",line 302,column 45,is_stmt,isa 0
    2958 000d94 421C          MOV.W     &old_air_flow+0,r12   ; [] |302| 
         000d96 0000!
    2959 000d98 421D          MOV.W     &old_air_flow+2,r13   ; [] |302| 
         000d9a 0002!
    2960            $C$DW$217       .dwtag  DW_TAG_TI_branch
    2961                    .dwattr $C$DW$217, DW_AT_low_pc(0x00)
    2962                    .dwattr $C$DW$217, DW_AT_name("__mspabi_cvtfd")
    2963                    .dwattr $C$DW$217, DW_AT_TI_call
    2964            
    2965 000d9c 13B0!         CALLA     #__mspabi_cvtfd       ; [] |302| 
         000d9e 0000 
    2966                                                      ; [] |302| 
    2967 000da0 0CC8          MOVA      r12,r8                ; [] |302| 
    2968 000da2 0DC9          MOVA      r13,r9                ; [] |302| 
    2969 000da4 0ECA          MOVA      r14,r10               ; [] |302| 
    2970 000da6 0FC7          MOVA      r15,r7                ; [] |302| 
    2971 000da8 421C          MOV.W     &old_air_flow+0,r12   ; [] |302| 
         000daa 0000!
    2972 000dac 421D          MOV.W     &old_air_flow+2,r13   ; [] |302| 
         000dae 0002!
    2973 000db0 421E          MOV.W     &new_air_flow+0,r14   ; [] |302| 
         000db2 0000!
    2974 000db4 421F          MOV.W     &new_air_flow+2,r15   ; [] |302| 
         000db6 0002!
    2975            $C$DW$218       .dwtag  DW_TAG_TI_branch
    2976                    .dwattr $C$DW$218, DW_AT_low_pc(0x00)
    2977                    .dwattr $C$DW$218, DW_AT_name("__mspabi_subf")
    2978                    .dwattr $C$DW$218, DW_AT_TI_call
    2979            
    2980 000db8 13B0!         CALLA     #__mspabi_subf        ; [] |302| 
         000dba 0000 
    2981                                                      ; [] |302| 
    2982 000dbc 0CCE          MOVA      r12,r14               ; [] |302| 
    2983 000dbe 0DCF          MOVA      r13,r15               ; [] |302| 
    2984 000dc0 430C          MOV.W     #0,r12                ; [] |302| 
    2985 000dc2 403D          MOV.W     #16256,r13            ; [] |302| 
         000dc4 3F80 
    2986            $C$DW$219       .dwtag  DW_TAG_TI_branch
    2987                    .dwattr $C$DW$219, DW_AT_low_pc(0x00)
    2988                    .dwattr $C$DW$219, DW_AT_name("__mspabi_cmpf")
    2989                    .dwattr $C$DW$219, DW_AT_TI_call
    2990            
    2991 000dc6 13B0!         CALLA     #__mspabi_cmpf        ; [] |302| 
         000dc8 0000 
    2992                                                      ; [] |302| 
    2993 000dca 930C          TST.W     r12                   ; [] |302| 
    2994 000dcc 3409          JGE       $C$L50                ; [] |302| 
    2995                                                      ; [] |302| 
    2996            ;* --------------------------------------------------------------------------*
    2997 000dce 403C          MOV.W     #5243,r12             ; [] |302| 
         000dd0 147B 
    2998 000dd2 403D          MOV.W     #18350,r13            ; [] |302| 
         000dd4 47AE 
    2999 000dd6 403E          MOV.W     #31457,r14            ; [] |302| 
MSP430 Assembler PC v21.6.1 Tue Dec 20 13:46:05 2022

Copyright (c) 2003-2018 Texas Instruments Incorporated
loadfollow.asm                                                       PAGE   69

         000dd8 7AE1 
    3000 000dda 403F          MOV.W     #16260,r15            ; [] |302| 
         000ddc 3F84 
    3001 000dde 3C24          JMP       $C$L52                ; [] |302| 
    3002                                                      ; [] |302| 
    3003            ;* --------------------------------------------------------------------------*
    3004 000de0       $C$L50:    
    3005 000de0 421C          MOV.W     &old_air_flow+0,r12   ; [] |302| 
         000de2 0000!
    3006 000de4 421D          MOV.W     &old_air_flow+2,r13   ; [] |302| 
         000de6 0002!
    3007 000de8 421E          MOV.W     &new_air_flow+0,r14   ; [] |302| 
         000dea 0000!
    3008 000dec 421F          MOV.W     &new_air_flow+2,r15   ; [] |302| 
         000dee 0002!
    3009            $C$DW$220       .dwtag  DW_TAG_TI_branch
    3010                    .dwattr $C$DW$220, DW_AT_low_pc(0x00)
    3011                    .dwattr $C$DW$220, DW_AT_name("__mspabi_subf")
    3012                    .dwattr $C$DW$220, DW_AT_TI_call
    3013            
    3014 000df0 13B0!         CALLA     #__mspabi_subf        ; [] |302| 
         000df2 0000 
    3015                                                      ; [] |302| 
    3016 000df4 0CCE          MOVA      r12,r14               ; [] |302| 
    3017 000df6 0DCF          MOVA      r13,r15               ; [] |302| 
    3018 000df8 430C          MOV.W     #0,r12                ; [] |302| 
    3019 000dfa 403D          MOV.W     #16128,r13            ; [] |302| 
         000dfc 3F00 
    3020            $C$DW$221       .dwtag  DW_TAG_TI_branch
    3021                    .dwattr $C$DW$221, DW_AT_low_pc(0x00)
    3022                    .dwattr $C$DW$221, DW_AT_name("__mspabi_cmpf")
    3023                    .dwattr $C$DW$221, DW_AT_TI_call
    3024            
    3025 000dfe 13B0!         CALLA     #__mspabi_cmpf        ; [] |302| 
         000e00 0000 
    3026                                                      ; [] |302| 
    3027 000e02 930C          TST.W     r12                   ; [] |302| 
    3028 000e04 3409          JGE       $C$L51                ; [] |302| 
    3029                                                      ; [] |302| 
    3030            ;* --------------------------------------------------------------------------*
    3031 000e06 403C          MOV.W     #43516,r12            ; [] |302| 
         000e08 A9FC 
    3032 000e0a 403D          MOV.W     #54001,r13            ; [] |302| 
         000e0c D2F1 
    3033 000e0e 403E          MOV.W     #25165,r14            ; [] |302| 
         000e10 624D 
    3034 000e12 403F          MOV.W     #16224,r15            ; [] |302| 
         000e14 3F60 
    3035 000e16 3C08          JMP       $C$L52                ; [] |302| 
    3036                                                      ; [] |302| 
    3037            ;* --------------------------------------------------------------------------*
    3038 000e18       $C$L51:    
    3039 000e18 403C          MOV.W     #43516,r12            ; [] |302| 
         000e1a A9FC 
    3040 000e1c 403D          MOV.W     #54001,r13            ; [] |302| 
MSP430 Assembler PC v21.6.1 Tue Dec 20 13:46:05 2022

Copyright (c) 2003-2018 Texas Instruments Incorporated
loadfollow.asm                                                       PAGE   70

         000e1e D2F1 
    3041 000e20 403E          MOV.W     #25165,r14            ; [] |302| 
         000e22 624D 
    3042 000e24 403F          MOV.W     #16208,r15            ; [] |302| 
         000e26 3F50 
    3043            ;* --------------------------------------------------------------------------*
    3044 000e28       $C$L52:    
    3045 000e28 07CB          MOVA      r7,r11                ; [] |302| 
    3046            $C$DW$222       .dwtag  DW_TAG_TI_branch
    3047                    .dwattr $C$DW$222, DW_AT_low_pc(0x00)
    3048                    .dwattr $C$DW$222, DW_AT_name("__mspabi_subd")
    3049                    .dwattr $C$DW$222, DW_AT_TI_call
    3050            
    3051 000e2a 13B0!         CALLA     #__mspabi_subd        ; [] |302| 
         000e2c 0000 
    3052                                                      ; [] |302| 
    3053            $C$DW$223       .dwtag  DW_TAG_TI_branch
    3054                    .dwattr $C$DW$223, DW_AT_low_pc(0x00)
    3055                    .dwattr $C$DW$223, DW_AT_name("__mspabi_cvtdf")
    3056                    .dwattr $C$DW$223, DW_AT_TI_call
    3057            
    3058 000e2e 13B0!         CALLA     #__mspabi_cvtdf       ; [] |302| 
         000e30 0000 
    3059                                                      ; [] |302| 
    3060 000e32 4C82          MOV.W     r12,&old_air_flow+0   ; [] |302| 
         000e34 0000!
    3061 000e36 4D82          MOV.W     r13,&old_air_flow+2   ; [] |302| 
         000e38 0002!
    3062 000e3a 3C21          JMP       $C$L55                ; [] 
    3063                                                      ; [] 
    3064            ;* --------------------------------------------------------------------------*
    3065 000e3c       $C$L53:    
    3066                    .dwpsn  file "../src/loadfollow.c",line 299,column 41,is_stmt,isa 0
    3067 000e3c 421C          MOV.W     &old_air_flow+0,r12   ; [] |299| 
         000e3e 0000!
    3068 000e40 421D          MOV.W     &old_air_flow+2,r13   ; [] |299| 
         000e42 0002!
    3069            $C$DW$224       .dwtag  DW_TAG_TI_branch
    3070                    .dwattr $C$DW$224, DW_AT_low_pc(0x00)
    3071                    .dwattr $C$DW$224, DW_AT_name("__mspabi_cvtfd")
    3072                    .dwattr $C$DW$224, DW_AT_TI_call
    3073            
    3074 000e44 13B0!         CALLA     #__mspabi_cvtfd       ; [] |299| 
         000e46 0000 
    3075                                                      ; [] |299| 
    3076 000e48 0CC8          MOVA      r12,r8                ; [] |299| 
    3077 000e4a 0DC9          MOVA      r13,r9                ; [] |299| 
    3078 000e4c 0ECA          MOVA      r14,r10               ; [] |299| 
    3079 000e4e 0FCB          MOVA      r15,r11               ; [] |299| 
    3080 000e50 403C          MOV.W     #39322,r12            ; [] |299| 
         000e52 999A 
    3081 000e54 403D          MOV.W     #39321,r13            ; [] |299| 
         000e56 9999 
    3082 000e58 403E          MOV.W     #39321,r14            ; [] |299| 
         000e5a 9999 
MSP430 Assembler PC v21.6.1 Tue Dec 20 13:46:05 2022

Copyright (c) 2003-2018 Texas Instruments Incorporated
loadfollow.asm                                                       PAGE   71

    3083 000e5c 403F          MOV.W     #16297,r15            ; [] |299| 
         000e5e 3FA9 
    3084            $C$DW$225       .dwtag  DW_TAG_TI_branch
    3085                    .dwattr $C$DW$225, DW_AT_low_pc(0x00)
    3086                    .dwattr $C$DW$225, DW_AT_name("__mspabi_addd")
    3087                    .dwattr $C$DW$225, DW_AT_TI_call
    3088            
    3089 000e60 13B0!         CALLA     #__mspabi_addd        ; [] |299| 
         000e62 0000 
    3090                                                      ; [] |299| 
    3091            $C$DW$226       .dwtag  DW_TAG_TI_branch
    3092                    .dwattr $C$DW$226, DW_AT_low_pc(0x00)
    3093                    .dwattr $C$DW$226, DW_AT_name("__mspabi_cvtdf")
    3094                    .dwattr $C$DW$226, DW_AT_TI_call
    3095            
    3096 000e64 13B0!         CALLA     #__mspabi_cvtdf       ; [] |299| 
         000e66 0000 
    3097                                                      ; [] |299| 
    3098 000e68 4C82          MOV.W     r12,&old_air_flow+0   ; [] |299| 
         000e6a 0000!
    3099 000e6c 4D82          MOV.W     r13,&old_air_flow+2   ; [] |299| 
         000e6e 0002!
    3100 000e70 3C06          JMP       $C$L55                ; [] 
    3101                                                      ; [] 
    3102            ;* --------------------------------------------------------------------------*
    3103 000e72       $C$L54:    
    3104                    .dwpsn  file "../src/loadfollow.c",line 298,column 32,is_stmt,isa 0
    3105 000e72 4292          MOV.W     &new_air_flow+0,&old_air_flow+0 ; [] |298| 
         000e74 0000!
         000e76 0000!
    3106 000e78 4292          MOV.W     &new_air_flow+2,&old_air_flow+2 ; [] |298| 
         000e7a 0002!
         000e7c 0002!
    3107            ;* --------------------------------------------------------------------------*
    3108 000e7e       $C$L55:    
    3109                    .dwpsn  file "../src/loadfollow.c",line 307,column 3,is_stmt,isa 0
    3110 000e7e 4292          MOV.W     &old_air_flow+0,&new_air_flow+0 ; [] |307| 
         000e80 0000!
         000e82 0000!
    3111 000e84 4292          MOV.W     &old_air_flow+2,&new_air_flow+2 ; [] |307| 
         000e86 0002!
         000e88 0002!
    3112                    .dwpsn  file "../src/loadfollow.c",line 310,column 3,is_stmt,isa 0
    3113 000e8a 421C          MOV.W     &new_air_flow+0,r12   ; [] |310| 
         000e8c 0000!
    3114 000e8e 421D          MOV.W     &new_air_flow+2,r13   ; [] |310| 
         000e90 0002!
    3115 000e92 430E          MOV.W     #0,r14                ; [] |310| 
    3116 000e94 403F          MOV.W     #16256,r15            ; [] |310| 
         000e96 3F80 
    3117            $C$DW$227       .dwtag  DW_TAG_TI_branch
    3118                    .dwattr $C$DW$227, DW_AT_low_pc(0x00)
    3119                    .dwattr $C$DW$227, DW_AT_name("__mspabi_cmpf")
    3120                    .dwattr $C$DW$227, DW_AT_TI_call
    3121            
MSP430 Assembler PC v21.6.1 Tue Dec 20 13:46:05 2022

Copyright (c) 2003-2018 Texas Instruments Incorporated
loadfollow.asm                                                       PAGE   72

    3122 000e98 13B0!         CALLA     #__mspabi_cmpf        ; [] |310| 
         000e9a 0000 
    3123                                                      ; [] |310| 
    3124 000e9c 930C          TST.W     r12                   ; [] |310| 
    3125 000e9e 3405          JGE       $C$L56                ; [] |310| 
    3126                                                      ; [] |310| 
    3127            ;* --------------------------------------------------------------------------*
    3128                    .dwpsn  file "../src/loadfollow.c",line 310,column 27,is_stmt,isa 0
    3129 000ea0 4382          MOV.W     #0,&new_air_flow+0    ; [] |310| 
         000ea2 0000!
    3130 000ea4 40B2          MOV.W     #16256,&new_air_flow+2 ; [] |310| 
         000ea6 3F80 
         000ea8 0002!
    3131            ;* --------------------------------------------------------------------------*
    3132 000eaa       $C$L56:    
    3133                    .dwpsn  file "../src/loadfollow.c",line 311,column 3,is_stmt,isa 0
    3134 000eaa 421C          MOV.W     &TC2_temp+0,r12       ; [] |311| 
         000eac 0000!
    3135 000eae 421D          MOV.W     &TC2_temp+2,r13       ; [] |311| 
         000eb0 0002!
    3136 000eb2 403E          MOV.W     #32768,r14            ; [] |311| 
         000eb4 8000 
    3137 000eb6 403F          MOV.W     #17284,r15            ; [] |311| 
         000eb8 4384 
    3138            $C$DW$228       .dwtag  DW_TAG_TI_branch
    3139                    .dwattr $C$DW$228, DW_AT_low_pc(0x00)
    3140                    .dwattr $C$DW$228, DW_AT_name("__mspabi_cmpf")
    3141                    .dwattr $C$DW$228, DW_AT_TI_call
    3142            
    3143 000eba 13B0!         CALLA     #__mspabi_cmpf        ; [] |311| 
         000ebc 0000 
    3144                                                      ; [] |311| 
    3145 000ebe 930C          TST.W     r12                   ; [] |311| 
    3146 000ec0 3841          JL        $C$L57                ; [] |311| 
    3147                                                      ; [] |311| 
    3148            ;* --------------------------------------------------------------------------*
    3149                    .dwpsn  file "../src/loadfollow.c",line 324,column 8,is_stmt,isa 0
    3150 000ec2 421C          MOV.W     &new_air_flow+0,r12   ; [] |324| 
         000ec4 0000!
    3151 000ec6 421D          MOV.W     &new_air_flow+2,r13   ; [] |324| 
         000ec8 0002!
    3152            $C$DW$229       .dwtag  DW_TAG_TI_branch
    3153                    .dwattr $C$DW$229, DW_AT_low_pc(0x00)
    3154                    .dwattr $C$DW$229, DW_AT_name("__mspabi_cvtfd")
    3155                    .dwattr $C$DW$229, DW_AT_TI_call
    3156            
    3157 000eca 13B0!         CALLA     #__mspabi_cvtfd       ; [] |324| 
         000ecc 0000 
    3158                                                      ; [] |324| 
    3159 000ece 0CC4          MOVA      r12,r4                ; [] |324| 
    3160 000ed0 0DC5          MOVA      r13,r5                ; [] |324| 
    3161 000ed2 0EC6          MOVA      r14,r6                ; [] |324| 
    3162 000ed4 0FC7          MOVA      r15,r7                ; [] |324| 
    3163 000ed6 421C          MOV.W     &main_fuel_flow+0,r12 ; [] |324| 
         000ed8 0000!
MSP430 Assembler PC v21.6.1 Tue Dec 20 13:46:05 2022

Copyright (c) 2003-2018 Texas Instruments Incorporated
loadfollow.asm                                                       PAGE   73

    3164 000eda 421D          MOV.W     &main_fuel_flow+2,r13 ; [] |324| 
         000edc 0002!
    3165            $C$DW$230       .dwtag  DW_TAG_TI_branch
    3166                    .dwattr $C$DW$230, DW_AT_low_pc(0x00)
    3167                    .dwattr $C$DW$230, DW_AT_name("__mspabi_cvtfd")
    3168                    .dwattr $C$DW$230, DW_AT_TI_call
    3169            
    3170 000ede 13B0!         CALLA     #__mspabi_cvtfd       ; [] |324| 
         000ee0 0000 
    3171                                                      ; [] |324| 
    3172 000ee2 0CC8          MOVA      r12,r8                ; [] |324| 
    3173 000ee4 0DC9          MOVA      r13,r9                ; [] |324| 
    3174 000ee6 0ECA          MOVA      r14,r10               ; [] |324| 
    3175 000ee8 0FCB          MOVA      r15,r11               ; [] |324| 
    3176 000eea 403C          MOV.W     #30911,r12            ; [] |324| 
         000eec 78BF 
    3177 000eee 403D          MOV.W     #3334,r13             ; [] |324| 
         000ef0 0D06 
    3178 000ef2 403E          MOV.W     #5117,r14             ; [] |324| 
         000ef4 13FD 
    3179 000ef6 403F          MOV.W     #16300,r15            ; [] |324| 
         000ef8 3FAC 
    3180            $C$DW$231       .dwtag  DW_TAG_TI_branch
    3181                    .dwattr $C$DW$231, DW_AT_low_pc(0x00)
    3182                    .dwattr $C$DW$231, DW_AT_name("__mspabi_mpyd")
    3183                    .dwattr $C$DW$231, DW_AT_TI_call
    3184            
    3185 000efa 13B0!         CALLA     #__mspabi_mpyd        ; [] |324| 
         000efc 0000 
    3186                                                      ; [] |324| 
    3187 000efe 04C8          MOVA      r4,r8                 ; [] |324| 
    3188 000f00 05C9          MOVA      r5,r9                 ; [] |324| 
    3189 000f02 06CA          MOVA      r6,r10                ; [] |324| 
    3190 000f04 07CB          MOVA      r7,r11                ; [] |324| 
    3191            $C$DW$232       .dwtag  DW_TAG_TI_branch
    3192                    .dwattr $C$DW$232, DW_AT_low_pc(0x00)
    3193                    .dwattr $C$DW$232, DW_AT_name("__mspabi_cmpd")
    3194                    .dwattr $C$DW$232, DW_AT_TI_call
    3195            
    3196 000f06 13B0!         CALLA     #__mspabi_cmpd        ; [] |324| 
         000f08 0000 
    3197                                                      ; [] |324| 
    3198 000f0a 930C          TST.W     r12                   ; [] |324| 
    3199 000f0c 34F4          JGE       $C$L60                ; [] |324| 
