MSP430 Assembler PC v21.6.1 Tue Dec 20 13:59:32 2022

Copyright (c) 2003-2018 Texas Instruments Incorporated
Momentary_Switch.asm                                                 PAGE    1

       1            ;******************************************************************************
       2            ;* MSP430 G3 C/C++ Codegen                                              PC v21.6.1.LTS *
       3            ;* Date/Time created: Tue Dec 20 13:59:32 2022                                *
       4            ;******************************************************************************
       5                    .compiler_opts --abi=eabi --diag_wrap=off --hll_source=on --mem_model:code=large --mem_model:d
       6            
       7            $C$DW$CU        .dwtag  DW_TAG_compile_unit
       8                    .dwattr $C$DW$CU, DW_AT_name("../src/Momentary_Switch.c")
       9                    .dwattr $C$DW$CU, DW_AT_producer("TI MSP430 G3 C/C++ Codegen PC v21.6.1.LTS Copyright (c) 2003
      10                    .dwattr $C$DW$CU, DW_AT_TI_version(0x01)
      11                    .dwattr $C$DW$CU, DW_AT_comp_dir("C:\Users\MCourson\workspace_v11\MZERO_HB50Board\Debug")
      12            $C$DW$1 .dwtag  DW_TAG_variable
      13                    .dwattr $C$DW$1, DW_AT_name("PAIN_L")
      14                    .dwattr $C$DW$1, DW_AT_TI_symbol_name("PAIN_L")
      15                    .dwattr $C$DW$1, DW_AT_type(*$C$DW$T$87)
      16                    .dwattr $C$DW$1, DW_AT_declaration
      17                    .dwattr $C$DW$1, DW_AT_external
      18                    .dwattr $C$DW$1, DW_AT_decl_file("C:\ti\ccs1110\ccs\ccs_base\msp430\include\msp430f5438a.h")
      19                    .dwattr $C$DW$1, DW_AT_decl_line(0x45a)
      20                    .dwattr $C$DW$1, DW_AT_decl_column(0x01)
      21            
      22            $C$DW$2 .dwtag  DW_TAG_variable
      23                    .dwattr $C$DW$2, DW_AT_name("PAIN_H")
      24                    .dwattr $C$DW$2, DW_AT_TI_symbol_name("PAIN_H")
      25                    .dwattr $C$DW$2, DW_AT_type(*$C$DW$T$87)
      26                    .dwattr $C$DW$2, DW_AT_declaration
      27                    .dwattr $C$DW$2, DW_AT_external
      28                    .dwattr $C$DW$2, DW_AT_decl_file("C:\ti\ccs1110\ccs\ccs_base\msp430\include\msp430f5438a.h")
      29                    .dwattr $C$DW$2, DW_AT_decl_line(0x45b)
      30                    .dwattr $C$DW$2, DW_AT_decl_column(0x01)
      31            
      32            $C$DW$3 .dwtag  DW_TAG_variable
      33                    .dwattr $C$DW$3, DW_AT_name("PAOUT_H")
      34                    .dwattr $C$DW$3, DW_AT_TI_symbol_name("PAOUT_H")
      35                    .dwattr $C$DW$3, DW_AT_type(*$C$DW$T$87)
      36                    .dwattr $C$DW$3, DW_AT_declaration
      37                    .dwattr $C$DW$3, DW_AT_external
      38                    .dwattr $C$DW$3, DW_AT_decl_file("C:\ti\ccs1110\ccs\ccs_base\msp430\include\msp430f5438a.h")
      39                    .dwattr $C$DW$3, DW_AT_decl_line(0x45e)
      40                    .dwattr $C$DW$3, DW_AT_decl_column(0x01)
      41            
      42            $C$DW$4 .dwtag  DW_TAG_variable
      43                    .dwattr $C$DW$4, DW_AT_name("PDOUT_H")
      44                    .dwattr $C$DW$4, DW_AT_TI_symbol_name("PDOUT_H")
      45                    .dwattr $C$DW$4, DW_AT_type(*$C$DW$T$87)
      46                    .dwattr $C$DW$4, DW_AT_declaration
      47                    .dwattr $C$DW$4, DW_AT_external
      48                    .dwattr $C$DW$4, DW_AT_decl_file("C:\ti\ccs1110\ccs\ccs_base\msp430\include\msp430f5438a.h")
      49                    .dwattr $C$DW$4, DW_AT_decl_line(0x51e)
      50                    .dwattr $C$DW$4, DW_AT_decl_column(0x01)
      51            
      52                    .global mode
      53                    .common mode,2,2
      54            $C$DW$5 .dwtag  DW_TAG_variable
      55                    .dwattr $C$DW$5, DW_AT_name("mode")
MSP430 Assembler PC v21.6.1 Tue Dec 20 13:59:32 2022

Copyright (c) 2003-2018 Texas Instruments Incorporated
Momentary_Switch.asm                                                 PAGE    2

      56                    .dwattr $C$DW$5, DW_AT_TI_symbol_name("mode")
      57                    .dwattr $C$DW$5, DW_AT_location[DW_OP_addr mode]
      58                    .dwattr $C$DW$5, DW_AT_type(*$C$DW$T$54)
      59                    .dwattr $C$DW$5, DW_AT_external
      60                    .dwattr $C$DW$5, DW_AT_decl_file("C:/Users/MCourson/workspace_v11/MZERO_HB50Board/include/Main
      61                    .dwattr $C$DW$5, DW_AT_decl_line(0x65)
      62                    .dwattr $C$DW$5, DW_AT_decl_column(0x07)
      63            
      64                    .global FCState
      65                    .common FCState,2,2
      66            $C$DW$6 .dwtag  DW_TAG_variable
      67                    .dwattr $C$DW$6, DW_AT_name("FCState")
      68                    .dwattr $C$DW$6, DW_AT_TI_symbol_name("FCState")
      69                    .dwattr $C$DW$6, DW_AT_location[DW_OP_addr FCState]
      70                    .dwattr $C$DW$6, DW_AT_type(*$C$DW$T$56)
      71                    .dwattr $C$DW$6, DW_AT_external
      72                    .dwattr $C$DW$6, DW_AT_decl_file("C:/Users/MCourson/workspace_v11/MZERO_HB50Board/include/Main
      73                    .dwattr $C$DW$6, DW_AT_decl_line(0x6d)
      74                    .dwattr $C$DW$6, DW_AT_decl_column(0x0a)
      75            
      76                    .global msgstatus
      77                    .common msgstatus,2,2
      78            $C$DW$7 .dwtag  DW_TAG_variable
      79                    .dwattr $C$DW$7, DW_AT_name("msgstatus")
      80                    .dwattr $C$DW$7, DW_AT_TI_symbol_name("msgstatus")
      81                    .dwattr $C$DW$7, DW_AT_location[DW_OP_addr msgstatus]
      82                    .dwattr $C$DW$7, DW_AT_type(*$C$DW$T$58)
      83                    .dwattr $C$DW$7, DW_AT_external
      84                    .dwattr $C$DW$7, DW_AT_decl_file("C:/Users/MCourson/workspace_v11/MZERO_HB50Board/include/Main
      85                    .dwattr $C$DW$7, DW_AT_decl_line(0x7c)
      86                    .dwattr $C$DW$7, DW_AT_decl_column(0x0f)
      87            
      88                    .global status
      89                    .common status,2,2
      90            $C$DW$8 .dwtag  DW_TAG_variable
      91                    .dwattr $C$DW$8, DW_AT_name("status")
      92                    .dwattr $C$DW$8, DW_AT_TI_symbol_name("status")
      93                    .dwattr $C$DW$8, DW_AT_location[DW_OP_addr status]
      94                    .dwattr $C$DW$8, DW_AT_type(*$C$DW$T$60)
      95                    .dwattr $C$DW$8, DW_AT_external
      96                    .dwattr $C$DW$8, DW_AT_decl_file("C:/Users/MCourson/workspace_v11/MZERO_HB50Board/include/Main
      97                    .dwattr $C$DW$8, DW_AT_decl_line(0x83)
      98                    .dwattr $C$DW$8, DW_AT_decl_column(0x0e)
      99            
     100            $C$DW$9 .dwtag  DW_TAG_variable
     101                    .dwattr $C$DW$9, DW_AT_name("modelno")
     102                    .dwattr $C$DW$9, DW_AT_TI_symbol_name("modelno")
     103                    .dwattr $C$DW$9, DW_AT_type(*$C$DW$T$24)
     104                    .dwattr $C$DW$9, DW_AT_declaration
     105                    .dwattr $C$DW$9, DW_AT_external
     106                    .dwattr $C$DW$9, DW_AT_decl_file("../src/Momentary_Switch.c")
     107                    .dwattr $C$DW$9, DW_AT_decl_line(0x29)
     108                    .dwattr $C$DW$9, DW_AT_decl_column(0x10)
     109            
     110            $C$DW$10        .dwtag  DW_TAG_variable
MSP430 Assembler PC v21.6.1 Tue Dec 20 13:59:32 2022

Copyright (c) 2003-2018 Texas Instruments Incorporated
Momentary_Switch.asm                                                 PAGE    3

     111                    .dwattr $C$DW$10, DW_AT_name("LCD_page")
     112                    .dwattr $C$DW$10, DW_AT_TI_symbol_name("LCD_page")
     113                    .dwattr $C$DW$10, DW_AT_type(*$C$DW$T$10)
     114                    .dwattr $C$DW$10, DW_AT_declaration
     115                    .dwattr $C$DW$10, DW_AT_external
     116                    .dwattr $C$DW$10, DW_AT_decl_file("../src/Momentary_Switch.c")
     117                    .dwattr $C$DW$10, DW_AT_decl_line(0x2d)
     118                    .dwattr $C$DW$10, DW_AT_decl_column(0x0c)
     119            
     120            $C$DW$11        .dwtag  DW_TAG_variable
     121                    .dwattr $C$DW$11, DW_AT_name("LCDline")
     122                    .dwattr $C$DW$11, DW_AT_TI_symbol_name("LCDline")
     123                    .dwattr $C$DW$11, DW_AT_type(*$C$DW$T$24)
     124                    .dwattr $C$DW$11, DW_AT_declaration
     125                    .dwattr $C$DW$11, DW_AT_external
     126                    .dwattr $C$DW$11, DW_AT_decl_file("../src/Momentary_Switch.c")
     127                    .dwattr $C$DW$11, DW_AT_decl_line(0x2f)
     128                    .dwattr $C$DW$11, DW_AT_decl_column(0x10)
     129            
     130            $C$DW$12        .dwtag  DW_TAG_variable
     131                    .dwattr $C$DW$12, DW_AT_name("quarter_second_clock")
     132                    .dwattr $C$DW$12, DW_AT_TI_symbol_name("quarter_second_clock")
     133                    .dwattr $C$DW$12, DW_AT_type(*$C$DW$T$24)
     134                    .dwattr $C$DW$12, DW_AT_declaration
     135                    .dwattr $C$DW$12, DW_AT_external
     136                    .dwattr $C$DW$12, DW_AT_decl_file("../src/Momentary_Switch.c")
     137                    .dwattr $C$DW$12, DW_AT_decl_line(0x36)
     138                    .dwattr $C$DW$12, DW_AT_decl_column(0x10)
     139            
     140            $C$DW$13        .dwtag  DW_TAG_variable
     141                    .dwattr $C$DW$13, DW_AT_name("UFC")
     142                    .dwattr $C$DW$13, DW_AT_TI_symbol_name("UFC")
     143                    .dwattr $C$DW$13, DW_AT_type(*$C$DW$T$24)
     144                    .dwattr $C$DW$13, DW_AT_declaration
     145                    .dwattr $C$DW$13, DW_AT_external
     146                    .dwattr $C$DW$13, DW_AT_decl_file("../src/Momentary_Switch.c")
     147                    .dwattr $C$DW$13, DW_AT_decl_line(0x37)
     148                    .dwattr $C$DW$13, DW_AT_decl_column(0x10)
     149            
     150            $C$DW$14        .dwtag  DW_TAG_variable
     151                    .dwattr $C$DW$14, DW_AT_name("Auto_restart_V")
     152                    .dwattr $C$DW$14, DW_AT_TI_symbol_name("Auto_restart_V")
     153                    .dwattr $C$DW$14, DW_AT_type(*$C$DW$T$16)
     154                    .dwattr $C$DW$14, DW_AT_declaration
     155                    .dwattr $C$DW$14, DW_AT_external
     156                    .dwattr $C$DW$14, DW_AT_decl_file("../src/Momentary_Switch.c")
     157                    .dwattr $C$DW$14, DW_AT_decl_line(0x3a)
     158                    .dwattr $C$DW$14, DW_AT_decl_column(0x0e)
     159            
     160            $C$DW$15        .dwtag  DW_TAG_variable
     161                    .dwattr $C$DW$15, DW_AT_name("Auto_sleep_V")
     162                    .dwattr $C$DW$15, DW_AT_TI_symbol_name("Auto_sleep_V")
     163                    .dwattr $C$DW$15, DW_AT_type(*$C$DW$T$16)
     164                    .dwattr $C$DW$15, DW_AT_declaration
     165                    .dwattr $C$DW$15, DW_AT_external
MSP430 Assembler PC v21.6.1 Tue Dec 20 13:59:32 2022

Copyright (c) 2003-2018 Texas Instruments Incorporated
Momentary_Switch.asm                                                 PAGE    4

     166                    .dwattr $C$DW$15, DW_AT_decl_file("../src/Momentary_Switch.c")
     167                    .dwattr $C$DW$15, DW_AT_decl_line(0x3b)
     168                    .dwattr $C$DW$15, DW_AT_decl_column(0x0e)
     169            
     170            $C$DW$16        .dwtag  DW_TAG_variable
     171                    .dwattr $C$DW$16, DW_AT_name("Soft_Off")
     172                    .dwattr $C$DW$16, DW_AT_TI_symbol_name("Soft_Off")
     173                    .dwattr $C$DW$16, DW_AT_type(*$C$DW$T$24)
     174                    .dwattr $C$DW$16, DW_AT_declaration
     175                    .dwattr $C$DW$16, DW_AT_external
     176                    .dwattr $C$DW$16, DW_AT_decl_file("../src/Momentary_Switch.c")
     177                    .dwattr $C$DW$16, DW_AT_decl_line(0x3c)
     178                    .dwattr $C$DW$16, DW_AT_decl_column(0x10)
     179            
     180            $C$DW$17        .dwtag  DW_TAG_variable
     181                    .dwattr $C$DW$17, DW_AT_name("shutdown_time")
     182                    .dwattr $C$DW$17, DW_AT_TI_symbol_name("shutdown_time")
     183                    .dwattr $C$DW$17, DW_AT_type(*$C$DW$T$10)
     184                    .dwattr $C$DW$17, DW_AT_declaration
     185                    .dwattr $C$DW$17, DW_AT_external
     186                    .dwattr $C$DW$17, DW_AT_decl_file("../src/Momentary_Switch.c")
     187                    .dwattr $C$DW$17, DW_AT_decl_line(0x3d)
     188                    .dwattr $C$DW$17, DW_AT_decl_column(0x0c)
     189            
     190            $C$DW$18        .dwtag  DW_TAG_variable
     191                    .dwattr $C$DW$18, DW_AT_name("Net_Power_Limit_Max")
     192                    .dwattr $C$DW$18, DW_AT_TI_symbol_name("Net_Power_Limit_Max")
     193                    .dwattr $C$DW$18, DW_AT_type(*$C$DW$T$16)
     194                    .dwattr $C$DW$18, DW_AT_declaration
     195                    .dwattr $C$DW$18, DW_AT_external
     196                    .dwattr $C$DW$18, DW_AT_decl_file("../src/Momentary_Switch.c")
     197                    .dwattr $C$DW$18, DW_AT_decl_line(0x3e)
     198                    .dwattr $C$DW$18, DW_AT_decl_column(0x0e)
     199            
     200            $C$DW$19        .dwtag  DW_TAG_variable
     201                    .dwattr $C$DW$19, DW_AT_name("shutdown_power_level")
     202                    .dwattr $C$DW$19, DW_AT_TI_symbol_name("shutdown_power_level")
     203                    .dwattr $C$DW$19, DW_AT_type(*$C$DW$T$16)
     204                    .dwattr $C$DW$19, DW_AT_declaration
     205                    .dwattr $C$DW$19, DW_AT_external
     206                    .dwattr $C$DW$19, DW_AT_decl_file("../src/Momentary_Switch.c")
     207                    .dwattr $C$DW$19, DW_AT_decl_line(0x41)
     208                    .dwattr $C$DW$19, DW_AT_decl_column(0x0e)
     209            
     210                    .global TSOF
     211                    .common TSOF,1,1
     212            $C$DW$20        .dwtag  DW_TAG_variable
     213                    .dwattr $C$DW$20, DW_AT_name("TSOF")
     214                    .dwattr $C$DW$20, DW_AT_TI_symbol_name("TSOF")
     215                    .dwattr $C$DW$20, DW_AT_location[DW_OP_addr TSOF]
     216                    .dwattr $C$DW$20, DW_AT_type(*$C$DW$T$24)
     217                    .dwattr $C$DW$20, DW_AT_external
     218                    .dwattr $C$DW$20, DW_AT_decl_file("../src/Momentary_Switch.c")
     219                    .dwattr $C$DW$20, DW_AT_decl_line(0x46)
     220                    .dwattr $C$DW$20, DW_AT_decl_column(0x09)
MSP430 Assembler PC v21.6.1 Tue Dec 20 13:59:32 2022

Copyright (c) 2003-2018 Texas Instruments Incorporated
Momentary_Switch.asm                                                 PAGE    5

     221            
     222                    .global Page_changed
     223 000000               .data
     224                    .align  1
     225                    .elfsym Page_changed,SYM_SIZE(1)
     226 000000       Page_changed:
     227 000000 0000          .bits           0,8
     228                                    ; Page_changed @ 0
     229            
     230            $C$DW$21        .dwtag  DW_TAG_variable
     231                    .dwattr $C$DW$21, DW_AT_name("Page_changed")
     232                    .dwattr $C$DW$21, DW_AT_TI_symbol_name("Page_changed")
     233                    .dwattr $C$DW$21, DW_AT_location[DW_OP_addr Page_changed]
     234                    .dwattr $C$DW$21, DW_AT_type(*$C$DW$T$24)
     235                    .dwattr $C$DW$21, DW_AT_external
     236                    .dwattr $C$DW$21, DW_AT_decl_file("../src/Momentary_Switch.c")
     237                    .dwattr $C$DW$21, DW_AT_decl_line(0x47)
     238                    .dwattr $C$DW$21, DW_AT_decl_column(0x09)
     239            
     240                    .global option_digit
     241 000001               .data
     242                    .align  2
     243                    .elfsym option_digit,SYM_SIZE(2)
     244 000002       option_digit:
     245 000002 0000          .bits           0,16
     246                                    ; option_digit @ 0
     247            
     248            $C$DW$22        .dwtag  DW_TAG_variable
     249                    .dwattr $C$DW$22, DW_AT_name("option_digit")
     250                    .dwattr $C$DW$22, DW_AT_TI_symbol_name("option_digit")
     251                    .dwattr $C$DW$22, DW_AT_location[DW_OP_addr option_digit]
     252                    .dwattr $C$DW$22, DW_AT_type(*$C$DW$T$10)
     253                    .dwattr $C$DW$22, DW_AT_external
     254                    .dwattr $C$DW$22, DW_AT_decl_file("../src/Momentary_Switch.c")
     255                    .dwattr $C$DW$22, DW_AT_decl_line(0x48)
     256                    .dwattr $C$DW$22, DW_AT_decl_column(0x05)
     257            
     258                    .global Auto_restart_V_digit1
     259                    .common Auto_restart_V_digit1,4,2
     260            $C$DW$23        .dwtag  DW_TAG_variable
     261                    .dwattr $C$DW$23, DW_AT_name("Auto_restart_V_digit1")
     262                    .dwattr $C$DW$23, DW_AT_TI_symbol_name("Auto_restart_V_digit1")
     263                    .dwattr $C$DW$23, DW_AT_location[DW_OP_addr Auto_restart_V_digit1]
     264                    .dwattr $C$DW$23, DW_AT_type(*$C$DW$T$16)
     265                    .dwattr $C$DW$23, DW_AT_external
     266                    .dwattr $C$DW$23, DW_AT_decl_file("../src/Momentary_Switch.c")
     267                    .dwattr $C$DW$23, DW_AT_decl_line(0x49)
     268                    .dwattr $C$DW$23, DW_AT_decl_column(0x07)
     269            
     270                    .global Auto_restart_V_digit2
     271                    .common Auto_restart_V_digit2,4,2
     272            $C$DW$24        .dwtag  DW_TAG_variable
     273                    .dwattr $C$DW$24, DW_AT_name("Auto_restart_V_digit2")
     274                    .dwattr $C$DW$24, DW_AT_TI_symbol_name("Auto_restart_V_digit2")
     275                    .dwattr $C$DW$24, DW_AT_location[DW_OP_addr Auto_restart_V_digit2]
MSP430 Assembler PC v21.6.1 Tue Dec 20 13:59:32 2022

Copyright (c) 2003-2018 Texas Instruments Incorporated
Momentary_Switch.asm                                                 PAGE    6

     276                    .dwattr $C$DW$24, DW_AT_type(*$C$DW$T$16)
     277                    .dwattr $C$DW$24, DW_AT_external
     278                    .dwattr $C$DW$24, DW_AT_decl_file("../src/Momentary_Switch.c")
     279                    .dwattr $C$DW$24, DW_AT_decl_line(0x49)
     280                    .dwattr $C$DW$24, DW_AT_decl_column(0x1e)
     281            
     282                    .global Auto_restart_V_digit3
     283                    .common Auto_restart_V_digit3,4,2
     284            $C$DW$25        .dwtag  DW_TAG_variable
     285                    .dwattr $C$DW$25, DW_AT_name("Auto_restart_V_digit3")
     286                    .dwattr $C$DW$25, DW_AT_TI_symbol_name("Auto_restart_V_digit3")
     287                    .dwattr $C$DW$25, DW_AT_location[DW_OP_addr Auto_restart_V_digit3]
     288                    .dwattr $C$DW$25, DW_AT_type(*$C$DW$T$16)
     289                    .dwattr $C$DW$25, DW_AT_external
     290                    .dwattr $C$DW$25, DW_AT_decl_file("../src/Momentary_Switch.c")
     291                    .dwattr $C$DW$25, DW_AT_decl_line(0x49)
     292                    .dwattr $C$DW$25, DW_AT_decl_column(0x35)
     293            
     294                    .global Auto_sleep_V_digit1
     295                    .common Auto_sleep_V_digit1,4,2
     296            $C$DW$26        .dwtag  DW_TAG_variable
     297                    .dwattr $C$DW$26, DW_AT_name("Auto_sleep_V_digit1")
     298                    .dwattr $C$DW$26, DW_AT_TI_symbol_name("Auto_sleep_V_digit1")
     299                    .dwattr $C$DW$26, DW_AT_location[DW_OP_addr Auto_sleep_V_digit1]
     300                    .dwattr $C$DW$26, DW_AT_type(*$C$DW$T$16)
     301                    .dwattr $C$DW$26, DW_AT_external
     302                    .dwattr $C$DW$26, DW_AT_decl_file("../src/Momentary_Switch.c")
     303                    .dwattr $C$DW$26, DW_AT_decl_line(0x4a)
     304                    .dwattr $C$DW$26, DW_AT_decl_column(0x07)
     305            
     306                    .global Auto_sleep_V_digit2
     307                    .common Auto_sleep_V_digit2,4,2
     308            $C$DW$27        .dwtag  DW_TAG_variable
     309                    .dwattr $C$DW$27, DW_AT_name("Auto_sleep_V_digit2")
     310                    .dwattr $C$DW$27, DW_AT_TI_symbol_name("Auto_sleep_V_digit2")
     311                    .dwattr $C$DW$27, DW_AT_location[DW_OP_addr Auto_sleep_V_digit2]
     312                    .dwattr $C$DW$27, DW_AT_type(*$C$DW$T$16)
     313                    .dwattr $C$DW$27, DW_AT_external
     314                    .dwattr $C$DW$27, DW_AT_decl_file("../src/Momentary_Switch.c")
     315                    .dwattr $C$DW$27, DW_AT_decl_line(0x4a)
     316                    .dwattr $C$DW$27, DW_AT_decl_column(0x1c)
     317            
     318                    .global Auto_sleep_V_digit3
     319                    .common Auto_sleep_V_digit3,4,2
     320            $C$DW$28        .dwtag  DW_TAG_variable
     321                    .dwattr $C$DW$28, DW_AT_name("Auto_sleep_V_digit3")
     322                    .dwattr $C$DW$28, DW_AT_TI_symbol_name("Auto_sleep_V_digit3")
     323                    .dwattr $C$DW$28, DW_AT_location[DW_OP_addr Auto_sleep_V_digit3]
     324                    .dwattr $C$DW$28, DW_AT_type(*$C$DW$T$16)
     325                    .dwattr $C$DW$28, DW_AT_external
     326                    .dwattr $C$DW$28, DW_AT_decl_file("../src/Momentary_Switch.c")
     327                    .dwattr $C$DW$28, DW_AT_decl_line(0x4a)
     328                    .dwattr $C$DW$28, DW_AT_decl_column(0x31)
     329            
     330                    .global shutdown_power_level_digit1
MSP430 Assembler PC v21.6.1 Tue Dec 20 13:59:32 2022

Copyright (c) 2003-2018 Texas Instruments Incorporated
Momentary_Switch.asm                                                 PAGE    7

     331                    .common shutdown_power_level_digit1,4,2
     332            $C$DW$29        .dwtag  DW_TAG_variable
     333                    .dwattr $C$DW$29, DW_AT_name("shutdown_power_level_digit1")
     334                    .dwattr $C$DW$29, DW_AT_TI_symbol_name("shutdown_power_level_digit1")
     335                    .dwattr $C$DW$29, DW_AT_location[DW_OP_addr shutdown_power_level_digit1]
     336                    .dwattr $C$DW$29, DW_AT_type(*$C$DW$T$16)
     337                    .dwattr $C$DW$29, DW_AT_external
     338                    .dwattr $C$DW$29, DW_AT_decl_file("../src/Momentary_Switch.c")
     339                    .dwattr $C$DW$29, DW_AT_decl_line(0x4b)
     340                    .dwattr $C$DW$29, DW_AT_decl_column(0x07)
     341            
     342                    .global shutdown_power_level_digit2
     343                    .common shutdown_power_level_digit2,4,2
     344            $C$DW$30        .dwtag  DW_TAG_variable
     345                    .dwattr $C$DW$30, DW_AT_name("shutdown_power_level_digit2")
     346                    .dwattr $C$DW$30, DW_AT_TI_symbol_name("shutdown_power_level_digit2")
     347                    .dwattr $C$DW$30, DW_AT_location[DW_OP_addr shutdown_power_level_digit2]
     348                    .dwattr $C$DW$30, DW_AT_type(*$C$DW$T$16)
     349                    .dwattr $C$DW$30, DW_AT_external
     350                    .dwattr $C$DW$30, DW_AT_decl_file("../src/Momentary_Switch.c")
     351                    .dwattr $C$DW$30, DW_AT_decl_line(0x4b)
     352                    .dwattr $C$DW$30, DW_AT_decl_column(0x24)
     353            
     354                    .global shutdown_power_level_digit3
     355                    .common shutdown_power_level_digit3,4,2
     356            $C$DW$31        .dwtag  DW_TAG_variable
     357                    .dwattr $C$DW$31, DW_AT_name("shutdown_power_level_digit3")
     358                    .dwattr $C$DW$31, DW_AT_TI_symbol_name("shutdown_power_level_digit3")
     359                    .dwattr $C$DW$31, DW_AT_location[DW_OP_addr shutdown_power_level_digit3]
     360                    .dwattr $C$DW$31, DW_AT_type(*$C$DW$T$16)
     361                    .dwattr $C$DW$31, DW_AT_external
     362                    .dwattr $C$DW$31, DW_AT_decl_file("../src/Momentary_Switch.c")
     363                    .dwattr $C$DW$31, DW_AT_decl_line(0x4b)
     364                    .dwattr $C$DW$31, DW_AT_decl_column(0x41)
     365            
     366                    .global Net_Power_Limit_Max_Option
     367                    .common Net_Power_Limit_Max_Option,2,2
     368            $C$DW$32        .dwtag  DW_TAG_variable
     369                    .dwattr $C$DW$32, DW_AT_name("Net_Power_Limit_Max_Option")
     370                    .dwattr $C$DW$32, DW_AT_TI_symbol_name("Net_Power_Limit_Max_Option")
     371                    .dwattr $C$DW$32, DW_AT_location[DW_OP_addr Net_Power_Limit_Max_Option]
     372                    .dwattr $C$DW$32, DW_AT_type(*$C$DW$T$10)
     373                    .dwattr $C$DW$32, DW_AT_external
     374                    .dwattr $C$DW$32, DW_AT_decl_file("../src/Momentary_Switch.c")
     375                    .dwattr $C$DW$32, DW_AT_decl_line(0x4d)
     376                    .dwattr $C$DW$32, DW_AT_decl_column(0x05)
     377            
     378                    .global Cartridge_Enable_Option
     379                    .common Cartridge_Enable_Option,2,2
     380            $C$DW$33        .dwtag  DW_TAG_variable
     381                    .dwattr $C$DW$33, DW_AT_name("Cartridge_Enable_Option")
     382                    .dwattr $C$DW$33, DW_AT_TI_symbol_name("Cartridge_Enable_Option")
     383                    .dwattr $C$DW$33, DW_AT_location[DW_OP_addr Cartridge_Enable_Option]
     384                    .dwattr $C$DW$33, DW_AT_type(*$C$DW$T$10)
     385                    .dwattr $C$DW$33, DW_AT_external
MSP430 Assembler PC v21.6.1 Tue Dec 20 13:59:32 2022

Copyright (c) 2003-2018 Texas Instruments Incorporated
Momentary_Switch.asm                                                 PAGE    8

     386                    .dwattr $C$DW$33, DW_AT_decl_file("../src/Momentary_Switch.c")
     387                    .dwattr $C$DW$33, DW_AT_decl_line(0x4e)
     388                    .dwattr $C$DW$33, DW_AT_decl_column(0x05)
     389            
     390                    .global Cartridge_Enable
     391                    .common Cartridge_Enable,1,1
     392            $C$DW$34        .dwtag  DW_TAG_variable
     393                    .dwattr $C$DW$34, DW_AT_name("Cartridge_Enable")
     394                    .dwattr $C$DW$34, DW_AT_TI_symbol_name("Cartridge_Enable")
     395                    .dwattr $C$DW$34, DW_AT_location[DW_OP_addr Cartridge_Enable]
     396                    .dwattr $C$DW$34, DW_AT_type(*$C$DW$T$24)
     397                    .dwattr $C$DW$34, DW_AT_external
     398                    .dwattr $C$DW$34, DW_AT_decl_file("../src/Momentary_Switch.c")
     399                    .dwattr $C$DW$34, DW_AT_decl_line(0x4f)
     400                    .dwattr $C$DW$34, DW_AT_decl_column(0x09)
     401            
     402                    .global Backlight_is_on
     403 000004               .data
     404                    .align  1
     405                    .elfsym Backlight_is_on,SYM_SIZE(1)
     406 000004       Backlight_is_on:
     407 000004 0000          .bits           0,8
     408                                    ; Backlight_is_on @ 0
     409            
     410            $C$DW$35        .dwtag  DW_TAG_variable
     411                    .dwattr $C$DW$35, DW_AT_name("Backlight_is_on")
     412                    .dwattr $C$DW$35, DW_AT_TI_symbol_name("Backlight_is_on")
     413                    .dwattr $C$DW$35, DW_AT_location[DW_OP_addr Backlight_is_on]
     414                    .dwattr $C$DW$35, DW_AT_type(*$C$DW$T$24)
     415                    .dwattr $C$DW$35, DW_AT_external
     416                    .dwattr $C$DW$35, DW_AT_decl_file("../src/Momentary_Switch.c")
     417                    .dwattr $C$DW$35, DW_AT_decl_line(0x50)
     418                    .dwattr $C$DW$35, DW_AT_decl_column(0x09)
     419            
     420                    .global LCD_Options_Page
     421 000005               .data
     422                    .align  1
     423                    .elfsym LCD_Options_Page,SYM_SIZE(1)
     424 000005       LCD_Options_Page:
     425 000004 0000          .bits           0,8
     426                                    ; LCD_Options_Page @ 0
     427            
     428            $C$DW$36        .dwtag  DW_TAG_variable
     429                    .dwattr $C$DW$36, DW_AT_name("LCD_Options_Page")
     430                    .dwattr $C$DW$36, DW_AT_TI_symbol_name("LCD_Options_Page")
     431                    .dwattr $C$DW$36, DW_AT_location[DW_OP_addr LCD_Options_Page]
     432                    .dwattr $C$DW$36, DW_AT_type(*$C$DW$T$24)
     433                    .dwattr $C$DW$36, DW_AT_external
     434                    .dwattr $C$DW$36, DW_AT_decl_file("../src/Momentary_Switch.c")
     435                    .dwattr $C$DW$36, DW_AT_decl_line(0x51)
     436                    .dwattr $C$DW$36, DW_AT_decl_column(0x09)
     437            
     438                    .global LCD_Option
     439 000006               .data
     440                    .align  1
MSP430 Assembler PC v21.6.1 Tue Dec 20 13:59:32 2022

Copyright (c) 2003-2018 Texas Instruments Incorporated
Momentary_Switch.asm                                                 PAGE    9

     441                    .elfsym LCD_Option,SYM_SIZE(1)
     442 000006       LCD_Option:
     443 000006 0000          .bits           0,8
     444                                    ; LCD_Option @ 0
     445            
     446            $C$DW$37        .dwtag  DW_TAG_variable
     447                    .dwattr $C$DW$37, DW_AT_name("LCD_Option")
     448                    .dwattr $C$DW$37, DW_AT_TI_symbol_name("LCD_Option")
     449                    .dwattr $C$DW$37, DW_AT_location[DW_OP_addr LCD_Option]
     450                    .dwattr $C$DW$37, DW_AT_type(*$C$DW$T$24)
     451                    .dwattr $C$DW$37, DW_AT_external
     452                    .dwattr $C$DW$37, DW_AT_decl_file("../src/Momentary_Switch.c")
     453                    .dwattr $C$DW$37, DW_AT_decl_line(0x52)
     454                    .dwattr $C$DW$37, DW_AT_decl_column(0x09)
     455            
     456                    .global go_to_LCD_Options
     457 000007               .data
     458                    .align  1
     459                    .elfsym go_to_LCD_Options,SYM_SIZE(1)
     460 000007       go_to_LCD_Options:
     461 000006 0000          .bits           0,8
     462                                    ; go_to_LCD_Options @ 0
     463            
     464            $C$DW$38        .dwtag  DW_TAG_variable
     465                    .dwattr $C$DW$38, DW_AT_name("go_to_LCD_Options")
     466                    .dwattr $C$DW$38, DW_AT_TI_symbol_name("go_to_LCD_Options")
     467                    .dwattr $C$DW$38, DW_AT_location[DW_OP_addr go_to_LCD_Options]
     468                    .dwattr $C$DW$38, DW_AT_type(*$C$DW$T$24)
     469                    .dwattr $C$DW$38, DW_AT_external
     470                    .dwattr $C$DW$38, DW_AT_decl_file("../src/Momentary_Switch.c")
     471                    .dwattr $C$DW$38, DW_AT_decl_line(0x53)
     472                    .dwattr $C$DW$38, DW_AT_decl_column(0x09)
     473            
     474                    .global Auto_Hybrid_Option
     475 000008               .data
     476                    .align  1
     477                    .elfsym Auto_Hybrid_Option,SYM_SIZE(1)
     478 000008       Auto_Hybrid_Option:
     479 000008 0001          .bits           0x1,8
     480                                    ; Auto_Hybrid_Option @ 0
     481            
     482            $C$DW$39        .dwtag  DW_TAG_variable
     483                    .dwattr $C$DW$39, DW_AT_name("Auto_Hybrid_Option")
     484                    .dwattr $C$DW$39, DW_AT_TI_symbol_name("Auto_Hybrid_Option")
     485                    .dwattr $C$DW$39, DW_AT_location[DW_OP_addr Auto_Hybrid_Option]
     486                    .dwattr $C$DW$39, DW_AT_type(*$C$DW$T$24)
     487                    .dwattr $C$DW$39, DW_AT_external
     488                    .dwattr $C$DW$39, DW_AT_decl_file("../src/Momentary_Switch.c")
     489                    .dwattr $C$DW$39, DW_AT_decl_line(0x54)
     490                    .dwattr $C$DW$39, DW_AT_decl_column(0x09)
     491            
     492                    .global Auto_Restart_Option
     493                    .common Auto_Restart_Option,1,1
     494            $C$DW$40        .dwtag  DW_TAG_variable
     495                    .dwattr $C$DW$40, DW_AT_name("Auto_Restart_Option")
MSP430 Assembler PC v21.6.1 Tue Dec 20 13:59:32 2022

Copyright (c) 2003-2018 Texas Instruments Incorporated
Momentary_Switch.asm                                                 PAGE   10

     496                    .dwattr $C$DW$40, DW_AT_TI_symbol_name("Auto_Restart_Option")
     497                    .dwattr $C$DW$40, DW_AT_location[DW_OP_addr Auto_Restart_Option]
     498                    .dwattr $C$DW$40, DW_AT_type(*$C$DW$T$24)
     499                    .dwattr $C$DW$40, DW_AT_external
     500                    .dwattr $C$DW$40, DW_AT_decl_file("../src/Momentary_Switch.c")
     501                    .dwattr $C$DW$40, DW_AT_decl_line(0x55)
     502                    .dwattr $C$DW$40, DW_AT_decl_column(0x09)
     503            
     504                    .global Save_Settings_Option
     505                    .common Save_Settings_Option,1,1
     506            $C$DW$41        .dwtag  DW_TAG_variable
     507                    .dwattr $C$DW$41, DW_AT_name("Save_Settings_Option")
     508                    .dwattr $C$DW$41, DW_AT_TI_symbol_name("Save_Settings_Option")
     509                    .dwattr $C$DW$41, DW_AT_location[DW_OP_addr Save_Settings_Option]
     510                    .dwattr $C$DW$41, DW_AT_type(*$C$DW$T$24)
     511                    .dwattr $C$DW$41, DW_AT_external
     512                    .dwattr $C$DW$41, DW_AT_decl_file("../src/Momentary_Switch.c")
     513                    .dwattr $C$DW$41, DW_AT_decl_line(0x56)
     514                    .dwattr $C$DW$41, DW_AT_decl_column(0x09)
     515            
     516                    .global Reprogram_Cartridge
     517 000009               .data
     518                    .align  1
     519                    .elfsym Reprogram_Cartridge,SYM_SIZE(1)
     520 000009       Reprogram_Cartridge:
     521 000008 0001          .bits           0,8
     522                                    ; Reprogram_Cartridge @ 0
     523            
     524            $C$DW$42        .dwtag  DW_TAG_variable
     525                    .dwattr $C$DW$42, DW_AT_name("Reprogram_Cartridge")
     526                    .dwattr $C$DW$42, DW_AT_TI_symbol_name("Reprogram_Cartridge")
     527                    .dwattr $C$DW$42, DW_AT_location[DW_OP_addr Reprogram_Cartridge]
     528                    .dwattr $C$DW$42, DW_AT_type(*$C$DW$T$24)
     529                    .dwattr $C$DW$42, DW_AT_external
     530                    .dwattr $C$DW$42, DW_AT_decl_file("../src/Momentary_Switch.c")
     531                    .dwattr $C$DW$42, DW_AT_decl_line(0x57)
     532                    .dwattr $C$DW$42, DW_AT_decl_column(0x09)
     533            
     534                    .global Cartridge_Programmed
     535 00000a               .data
     536                    .align  1
     537                    .elfsym Cartridge_Programmed,SYM_SIZE(1)
     538 00000a       Cartridge_Programmed:
     539 00000a 0000          .bits           0,8
     540                                    ; Cartridge_Programmed @ 0
     541            
     542            $C$DW$43        .dwtag  DW_TAG_variable
     543                    .dwattr $C$DW$43, DW_AT_name("Cartridge_Programmed")
     544                    .dwattr $C$DW$43, DW_AT_TI_symbol_name("Cartridge_Programmed")
     545                    .dwattr $C$DW$43, DW_AT_location[DW_OP_addr Cartridge_Programmed]
     546                    .dwattr $C$DW$43, DW_AT_type(*$C$DW$T$24)
     547                    .dwattr $C$DW$43, DW_AT_external
     548                    .dwattr $C$DW$43, DW_AT_decl_file("../src/Momentary_Switch.c")
     549                    .dwattr $C$DW$43, DW_AT_decl_line(0x58)
     550                    .dwattr $C$DW$43, DW_AT_decl_column(0x09)
MSP430 Assembler PC v21.6.1 Tue Dec 20 13:59:32 2022

Copyright (c) 2003-2018 Texas Instruments Incorporated
Momentary_Switch.asm                                                 PAGE   11

     551            
     552                    .global Ghost_Cartridge_Level_Option
     553 00000b               .data
     554                    .align  1
     555                    .elfsym Ghost_Cartridge_Level_Option,SYM_SIZE(1)
     556 00000b       Ghost_Cartridge_Level_Option:
     557 00000a 0000          .bits           0,8
     558                                    ; Ghost_Cartridge_Level_Option @ 0
     559            
     560            $C$DW$44        .dwtag  DW_TAG_variable
     561                    .dwattr $C$DW$44, DW_AT_name("Ghost_Cartridge_Level_Option")
     562                    .dwattr $C$DW$44, DW_AT_TI_symbol_name("Ghost_Cartridge_Level_Option")
     563                    .dwattr $C$DW$44, DW_AT_location[DW_OP_addr Ghost_Cartridge_Level_Option]
     564                    .dwattr $C$DW$44, DW_AT_type(*$C$DW$T$24)
     565                    .dwattr $C$DW$44, DW_AT_external
     566                    .dwattr $C$DW$44, DW_AT_decl_file("../src/Momentary_Switch.c")
     567                    .dwattr $C$DW$44, DW_AT_decl_line(0x59)
     568                    .dwattr $C$DW$44, DW_AT_decl_column(0x09)
     569            
     570                    .global Warming_Mode
     571                    .common Warming_Mode,1,1
     572            $C$DW$45        .dwtag  DW_TAG_variable
     573                    .dwattr $C$DW$45, DW_AT_name("Warming_Mode")
     574                    .dwattr $C$DW$45, DW_AT_TI_symbol_name("Warming_Mode")
     575                    .dwattr $C$DW$45, DW_AT_location[DW_OP_addr Warming_Mode]
     576                    .dwattr $C$DW$45, DW_AT_type(*$C$DW$T$24)
     577                    .dwattr $C$DW$45, DW_AT_external
     578                    .dwattr $C$DW$45, DW_AT_decl_file("../src/Momentary_Switch.c")
     579                    .dwattr $C$DW$45, DW_AT_decl_line(0x5a)
     580                    .dwattr $C$DW$45, DW_AT_decl_column(0x09)
     581            
     582                    .global Warming_Mode_Option
     583                    .common Warming_Mode_Option,1,1
     584            $C$DW$46        .dwtag  DW_TAG_variable
     585                    .dwattr $C$DW$46, DW_AT_name("Warming_Mode_Option")
     586                    .dwattr $C$DW$46, DW_AT_TI_symbol_name("Warming_Mode_Option")
     587                    .dwattr $C$DW$46, DW_AT_location[DW_OP_addr Warming_Mode_Option]
     588                    .dwattr $C$DW$46, DW_AT_type(*$C$DW$T$24)
     589                    .dwattr $C$DW$46, DW_AT_external
     590                    .dwattr $C$DW$46, DW_AT_decl_file("../src/Momentary_Switch.c")
     591                    .dwattr $C$DW$46, DW_AT_decl_line(0x5b)
     592                    .dwattr $C$DW$46, DW_AT_decl_column(0x09)
     593            
     594                    .global Phone_Mode
     595                    .common Phone_Mode,1,1
     596            $C$DW$47        .dwtag  DW_TAG_variable
     597                    .dwattr $C$DW$47, DW_AT_name("Phone_Mode")
     598                    .dwattr $C$DW$47, DW_AT_TI_symbol_name("Phone_Mode")
     599                    .dwattr $C$DW$47, DW_AT_location[DW_OP_addr Phone_Mode]
     600                    .dwattr $C$DW$47, DW_AT_type(*$C$DW$T$24)
     601                    .dwattr $C$DW$47, DW_AT_external
     602                    .dwattr $C$DW$47, DW_AT_decl_file("../src/Momentary_Switch.c")
     603                    .dwattr $C$DW$47, DW_AT_decl_line(0x5c)
     604                    .dwattr $C$DW$47, DW_AT_decl_column(0x09)
     605            
MSP430 Assembler PC v21.6.1 Tue Dec 20 13:59:32 2022

Copyright (c) 2003-2018 Texas Instruments Incorporated
Momentary_Switch.asm                                                 PAGE   12

     606                    .global Startup_Stage_Page
     607                    .common Startup_Stage_Page,1,1
     608            $C$DW$48        .dwtag  DW_TAG_variable
     609                    .dwattr $C$DW$48, DW_AT_name("Startup_Stage_Page")
     610                    .dwattr $C$DW$48, DW_AT_TI_symbol_name("Startup_Stage_Page")
     611                    .dwattr $C$DW$48, DW_AT_location[DW_OP_addr Startup_Stage_Page]
     612                    .dwattr $C$DW$48, DW_AT_type(*$C$DW$T$24)
     613                    .dwattr $C$DW$48, DW_AT_external
     614                    .dwattr $C$DW$48, DW_AT_decl_file("../src/Momentary_Switch.c")
     615                    .dwattr $C$DW$48, DW_AT_decl_line(0x5d)
     616                    .dwattr $C$DW$48, DW_AT_decl_column(0x09)
     617            
     618                    .global Auto_restart_V_temp
     619                    .common Auto_restart_V_temp,4,2
     620            $C$DW$49        .dwtag  DW_TAG_variable
     621                    .dwattr $C$DW$49, DW_AT_name("Auto_restart_V_temp")
     622                    .dwattr $C$DW$49, DW_AT_TI_symbol_name("Auto_restart_V_temp")
     623                    .dwattr $C$DW$49, DW_AT_location[DW_OP_addr Auto_restart_V_temp]
     624                    .dwattr $C$DW$49, DW_AT_type(*$C$DW$T$16)
     625                    .dwattr $C$DW$49, DW_AT_external
     626                    .dwattr $C$DW$49, DW_AT_decl_file("../src/Momentary_Switch.c")
     627                    .dwattr $C$DW$49, DW_AT_decl_line(0x5e)
     628                    .dwattr $C$DW$49, DW_AT_decl_column(0x07)
     629            
     630                    .global Auto_sleep_V_temp
     631                    .common Auto_sleep_V_temp,4,2
     632            $C$DW$50        .dwtag  DW_TAG_variable
     633                    .dwattr $C$DW$50, DW_AT_name("Auto_sleep_V_temp")
     634                    .dwattr $C$DW$50, DW_AT_TI_symbol_name("Auto_sleep_V_temp")
     635                    .dwattr $C$DW$50, DW_AT_location[DW_OP_addr Auto_sleep_V_temp]
     636                    .dwattr $C$DW$50, DW_AT_type(*$C$DW$T$16)
     637                    .dwattr $C$DW$50, DW_AT_external
     638                    .dwattr $C$DW$50, DW_AT_decl_file("../src/Momentary_Switch.c")
     639                    .dwattr $C$DW$50, DW_AT_decl_line(0x5f)
     640                    .dwattr $C$DW$50, DW_AT_decl_column(0x07)
     641            
     642                    .global shutdown_power_level_temp
     643                    .common shutdown_power_level_temp,4,2
     644            $C$DW$51        .dwtag  DW_TAG_variable
     645                    .dwattr $C$DW$51, DW_AT_name("shutdown_power_level_temp")
     646                    .dwattr $C$DW$51, DW_AT_TI_symbol_name("shutdown_power_level_temp")
     647                    .dwattr $C$DW$51, DW_AT_location[DW_OP_addr shutdown_power_level_temp]
     648                    .dwattr $C$DW$51, DW_AT_type(*$C$DW$T$16)
     649                    .dwattr $C$DW$51, DW_AT_external
     650                    .dwattr $C$DW$51, DW_AT_decl_file("../src/Momentary_Switch.c")
     651                    .dwattr $C$DW$51, DW_AT_decl_line(0x60)
     652                    .dwattr $C$DW$51, DW_AT_decl_column(0x07)
     653            
     654                    .global shutdown_time_temp
     655                    .common shutdown_time_temp,4,2
     656            $C$DW$52        .dwtag  DW_TAG_variable
     657                    .dwattr $C$DW$52, DW_AT_name("shutdown_time_temp")
     658                    .dwattr $C$DW$52, DW_AT_TI_symbol_name("shutdown_time_temp")
     659                    .dwattr $C$DW$52, DW_AT_location[DW_OP_addr shutdown_time_temp]
     660                    .dwattr $C$DW$52, DW_AT_type(*$C$DW$T$16)
MSP430 Assembler PC v21.6.1 Tue Dec 20 13:59:32 2022

Copyright (c) 2003-2018 Texas Instruments Incorporated
Momentary_Switch.asm                                                 PAGE   13

     661                    .dwattr $C$DW$52, DW_AT_external
     662                    .dwattr $C$DW$52, DW_AT_decl_file("../src/Momentary_Switch.c")
     663                    .dwattr $C$DW$52, DW_AT_decl_line(0x61)
     664                    .dwattr $C$DW$52, DW_AT_decl_column(0x07)
     665            
     666                    .global shutdown_time_hundred_minutes
     667                    .common shutdown_time_hundred_minutes,2,2
     668            $C$DW$53        .dwtag  DW_TAG_variable
     669                    .dwattr $C$DW$53, DW_AT_name("shutdown_time_hundred_minutes")
     670                    .dwattr $C$DW$53, DW_AT_TI_symbol_name("shutdown_time_hundred_minutes")
     671                    .dwattr $C$DW$53, DW_AT_location[DW_OP_addr shutdown_time_hundred_minutes]
     672                    .dwattr $C$DW$53, DW_AT_type(*$C$DW$T$10)
     673                    .dwattr $C$DW$53, DW_AT_external
     674                    .dwattr $C$DW$53, DW_AT_decl_file("../src/Momentary_Switch.c")
     675                    .dwattr $C$DW$53, DW_AT_decl_line(0x62)
     676                    .dwattr $C$DW$53, DW_AT_decl_column(0x05)
     677            
     678                    .global shutdown_time_ten_minutes
     679                    .common shutdown_time_ten_minutes,2,2
     680            $C$DW$54        .dwtag  DW_TAG_variable
     681                    .dwattr $C$DW$54, DW_AT_name("shutdown_time_ten_minutes")
     682                    .dwattr $C$DW$54, DW_AT_TI_symbol_name("shutdown_time_ten_minutes")
     683                    .dwattr $C$DW$54, DW_AT_location[DW_OP_addr shutdown_time_ten_minutes]
     684                    .dwattr $C$DW$54, DW_AT_type(*$C$DW$T$10)
     685                    .dwattr $C$DW$54, DW_AT_external
     686                    .dwattr $C$DW$54, DW_AT_decl_file("../src/Momentary_Switch.c")
     687                    .dwattr $C$DW$54, DW_AT_decl_line(0x62)
     688                    .dwattr $C$DW$54, DW_AT_decl_column(0x24)
     689            
     690                    .global shutdown_time_one_minutes
     691                    .common shutdown_time_one_minutes,2,2
     692            $C$DW$55        .dwtag  DW_TAG_variable
     693                    .dwattr $C$DW$55, DW_AT_name("shutdown_time_one_minutes")
     694                    .dwattr $C$DW$55, DW_AT_TI_symbol_name("shutdown_time_one_minutes")
     695                    .dwattr $C$DW$55, DW_AT_location[DW_OP_addr shutdown_time_one_minutes]
     696                    .dwattr $C$DW$55, DW_AT_type(*$C$DW$T$10)
     697                    .dwattr $C$DW$55, DW_AT_external
     698                    .dwattr $C$DW$55, DW_AT_decl_file("../src/Momentary_Switch.c")
     699                    .dwattr $C$DW$55, DW_AT_decl_line(0x62)
     700                    .dwattr $C$DW$55, DW_AT_decl_column(0x3f)
     701            
     702                    .global shutdown_time_hundred_minutes_temp
     703                    .common shutdown_time_hundred_minutes_temp,2,2
     704            $C$DW$56        .dwtag  DW_TAG_variable
     705                    .dwattr $C$DW$56, DW_AT_name("shutdown_time_hundred_minutes_temp")
     706                    .dwattr $C$DW$56, DW_AT_TI_symbol_name("shutdown_time_hundred_minutes_temp")
     707                    .dwattr $C$DW$56, DW_AT_location[DW_OP_addr shutdown_time_hundred_minutes_temp]
     708                    .dwattr $C$DW$56, DW_AT_type(*$C$DW$T$10)
     709                    .dwattr $C$DW$56, DW_AT_external
     710                    .dwattr $C$DW$56, DW_AT_decl_file("../src/Momentary_Switch.c")
     711                    .dwattr $C$DW$56, DW_AT_decl_line(0x63)
     712                    .dwattr $C$DW$56, DW_AT_decl_column(0x05)
     713            
     714                    .global shutdown_time_ten_minutes_temp
     715                    .common shutdown_time_ten_minutes_temp,2,2
MSP430 Assembler PC v21.6.1 Tue Dec 20 13:59:32 2022

Copyright (c) 2003-2018 Texas Instruments Incorporated
Momentary_Switch.asm                                                 PAGE   14

     716            $C$DW$57        .dwtag  DW_TAG_variable
     717                    .dwattr $C$DW$57, DW_AT_name("shutdown_time_ten_minutes_temp")
     718                    .dwattr $C$DW$57, DW_AT_TI_symbol_name("shutdown_time_ten_minutes_temp")
     719                    .dwattr $C$DW$57, DW_AT_location[DW_OP_addr shutdown_time_ten_minutes_temp]
     720                    .dwattr $C$DW$57, DW_AT_type(*$C$DW$T$10)
     721                    .dwattr $C$DW$57, DW_AT_external
     722                    .dwattr $C$DW$57, DW_AT_decl_file("../src/Momentary_Switch.c")
     723                    .dwattr $C$DW$57, DW_AT_decl_line(0x63)
     724                    .dwattr $C$DW$57, DW_AT_decl_column(0x29)
     725            
     726                    .global shutdown_time_one_minutes_temp
     727                    .common shutdown_time_one_minutes_temp,2,2
     728            $C$DW$58        .dwtag  DW_TAG_variable
     729                    .dwattr $C$DW$58, DW_AT_name("shutdown_time_one_minutes_temp")
     730                    .dwattr $C$DW$58, DW_AT_TI_symbol_name("shutdown_time_one_minutes_temp")
     731                    .dwattr $C$DW$58, DW_AT_location[DW_OP_addr shutdown_time_one_minutes_temp]
     732                    .dwattr $C$DW$58, DW_AT_type(*$C$DW$T$10)
     733                    .dwattr $C$DW$58, DW_AT_external
     734                    .dwattr $C$DW$58, DW_AT_decl_file("../src/Momentary_Switch.c")
     735                    .dwattr $C$DW$58, DW_AT_decl_line(0x63)
     736                    .dwattr $C$DW$58, DW_AT_decl_column(0x49)
     737            
     738            $C$DW$59        .dwtag  DW_TAG_variable
     739                    .dwattr $C$DW$59, DW_AT_name("commoTime")
     740                    .dwattr $C$DW$59, DW_AT_TI_symbol_name("commoTime")
     741                    .dwattr $C$DW$59, DW_AT_type(*$C$DW$T$24)
     742                    .dwattr $C$DW$59, DW_AT_declaration
     743                    .dwattr $C$DW$59, DW_AT_external
     744                    .dwattr $C$DW$59, DW_AT_decl_file("../src/Momentary_Switch.c")
     745                    .dwattr $C$DW$59, DW_AT_decl_line(0x64)
     746                    .dwattr $C$DW$59, DW_AT_decl_column(0x10)
     747            
     748            $C$DW$60        .dwtag  DW_TAG_variable
     749                    .dwattr $C$DW$60, DW_AT_name("commoTime2")
     750                    .dwattr $C$DW$60, DW_AT_TI_symbol_name("commoTime2")
     751                    .dwattr $C$DW$60, DW_AT_type(*$C$DW$T$24)
     752                    .dwattr $C$DW$60, DW_AT_declaration
     753                    .dwattr $C$DW$60, DW_AT_external
     754                    .dwattr $C$DW$60, DW_AT_decl_file("../src/Momentary_Switch.c")
     755                    .dwattr $C$DW$60, DW_AT_decl_line(0x65)
     756                    .dwattr $C$DW$60, DW_AT_decl_column(0x10)
     757            
     758            $C$DW$61        .dwtag  DW_TAG_variable
     759                    .dwattr $C$DW$61, DW_AT_name("commoTime3")
     760                    .dwattr $C$DW$61, DW_AT_TI_symbol_name("commoTime3")
     761                    .dwattr $C$DW$61, DW_AT_type(*$C$DW$T$24)
     762                    .dwattr $C$DW$61, DW_AT_declaration
     763                    .dwattr $C$DW$61, DW_AT_external
     764                    .dwattr $C$DW$61, DW_AT_decl_file("../src/Momentary_Switch.c")
     765                    .dwattr $C$DW$61, DW_AT_decl_line(0x66)
     766                    .dwattr $C$DW$61, DW_AT_decl_column(0x10)
     767            
     768            $C$DW$62        .dwtag  DW_TAG_variable
     769                    .dwattr $C$DW$62, DW_AT_name("Backlight_is_on_Time")
     770                    .dwattr $C$DW$62, DW_AT_TI_symbol_name("Backlight_is_on_Time")
MSP430 Assembler PC v21.6.1 Tue Dec 20 13:59:32 2022

Copyright (c) 2003-2018 Texas Instruments Incorporated
Momentary_Switch.asm                                                 PAGE   15

     771                    .dwattr $C$DW$62, DW_AT_type(*$C$DW$T$24)
     772                    .dwattr $C$DW$62, DW_AT_declaration
     773                    .dwattr $C$DW$62, DW_AT_external
     774                    .dwattr $C$DW$62, DW_AT_decl_file("../src/Momentary_Switch.c")
     775                    .dwattr $C$DW$62, DW_AT_decl_line(0x67)
     776                    .dwattr $C$DW$62, DW_AT_decl_column(0x10)
     777            
     778            $C$DW$63        .dwtag  DW_TAG_variable
     779                    .dwattr $C$DW$63, DW_AT_name("LCD_Options_Timeout_Timer")
     780                    .dwattr $C$DW$63, DW_AT_TI_symbol_name("LCD_Options_Timeout_Timer")
     781                    .dwattr $C$DW$63, DW_AT_type(*$C$DW$T$24)
     782                    .dwattr $C$DW$63, DW_AT_declaration
     783                    .dwattr $C$DW$63, DW_AT_external
     784                    .dwattr $C$DW$63, DW_AT_decl_file("../src/Momentary_Switch.c")
     785                    .dwattr $C$DW$63, DW_AT_decl_line(0x68)
     786                    .dwattr $C$DW$63, DW_AT_decl_column(0x10)
     787            
     788            $C$DW$64        .dwtag  DW_TAG_variable
     789                    .dwattr $C$DW$64, DW_AT_name("LCD_Options_Mode")
     790                    .dwattr $C$DW$64, DW_AT_TI_symbol_name("LCD_Options_Mode")
     791                    .dwattr $C$DW$64, DW_AT_type(*$C$DW$T$24)
     792                    .dwattr $C$DW$64, DW_AT_declaration
     793                    .dwattr $C$DW$64, DW_AT_external
     794                    .dwattr $C$DW$64, DW_AT_decl_file("../src/Momentary_Switch.c")
     795                    .dwattr $C$DW$64, DW_AT_decl_line(0x69)
     796                    .dwattr $C$DW$64, DW_AT_decl_column(0x10)
     797            
     798            $C$DW$65        .dwtag  DW_TAG_variable
     799                    .dwattr $C$DW$65, DW_AT_name("wait3sec")
     800                    .dwattr $C$DW$65, DW_AT_TI_symbol_name("wait3sec")
     801                    .dwattr $C$DW$65, DW_AT_type(*$C$DW$T$24)
     802                    .dwattr $C$DW$65, DW_AT_declaration
     803                    .dwattr $C$DW$65, DW_AT_external
     804                    .dwattr $C$DW$65, DW_AT_decl_file("../src/Momentary_Switch.c")
     805                    .dwattr $C$DW$65, DW_AT_decl_line(0x6a)
     806                    .dwattr $C$DW$65, DW_AT_decl_column(0x10)
     807            
     808            $C$DW$66        .dwtag  DW_TAG_variable
     809                    .dwattr $C$DW$66, DW_AT_name("XRT_Splitter")
     810                    .dwattr $C$DW$66, DW_AT_TI_symbol_name("XRT_Splitter")
     811                    .dwattr $C$DW$66, DW_AT_type(*$C$DW$T$24)
     812                    .dwattr $C$DW$66, DW_AT_declaration
     813                    .dwattr $C$DW$66, DW_AT_external
     814                    .dwattr $C$DW$66, DW_AT_decl_file("../src/Momentary_Switch.c")
     815                    .dwattr $C$DW$66, DW_AT_decl_line(0x6d)
     816                    .dwattr $C$DW$66, DW_AT_decl_column(0x10)
     817            
     818            
     819            $C$DW$67        .dwtag  DW_TAG_subprogram
     820                    .dwattr $C$DW$67, DW_AT_name("LCD_init")
     821                    .dwattr $C$DW$67, DW_AT_TI_symbol_name("LCD_init")
     822                    .dwattr $C$DW$67, DW_AT_declaration
     823                    .dwattr $C$DW$67, DW_AT_external
     824                    .dwattr $C$DW$67, DW_AT_decl_file("../src/Momentary_Switch.c")
     825                    .dwattr $C$DW$67, DW_AT_decl_line(0xdc)
MSP430 Assembler PC v21.6.1 Tue Dec 20 13:59:32 2022

Copyright (c) 2003-2018 Texas Instruments Incorporated
Momentary_Switch.asm                                                 PAGE   16

     826                    .dwattr $C$DW$67, DW_AT_decl_column(0x17)
     827                    .dwendtag $C$DW$67
     828            
     829            
     830            $C$DW$68        .dwtag  DW_TAG_subprogram
     831                    .dwattr $C$DW$68, DW_AT_name("Fuel_Gauge")
     832                    .dwattr $C$DW$68, DW_AT_TI_symbol_name("Fuel_Gauge")
     833                    .dwattr $C$DW$68, DW_AT_declaration
     834                    .dwattr $C$DW$68, DW_AT_external
     835                    .dwattr $C$DW$68, DW_AT_decl_file("../src/Momentary_Switch.c")
     836                    .dwattr $C$DW$68, DW_AT_decl_line(0x6f)
     837                    .dwattr $C$DW$68, DW_AT_decl_column(0x0d)
     838                    .dwendtag $C$DW$68
     839            
     840            
     841            $C$DW$69        .dwtag  DW_TAG_subprogram
     842                    .dwattr $C$DW$69, DW_AT_name("setFlash")
     843                    .dwattr $C$DW$69, DW_AT_TI_symbol_name("setFlash")
     844                    .dwattr $C$DW$69, DW_AT_declaration
     845                    .dwattr $C$DW$69, DW_AT_external
     846                    .dwattr $C$DW$69, DW_AT_decl_file("../src/Momentary_Switch.c")
     847                    .dwattr $C$DW$69, DW_AT_decl_line(0x44)
     848                    .dwattr $C$DW$69, DW_AT_decl_column(0x0d)
     849                    .dwendtag $C$DW$69
     850            
     851            ;       C:\ti\ccs1110\ccs\tools\compiler\ti-cgt-msp430_21.6.1.LTS\bin\opt430.exe C:\\Users\\MCourson\\
     852 000000               .sect   ".text:__signbitl"
     853                    .clink
     854                    .global __signbitl
     855            
     856            $C$DW$70        .dwtag  DW_TAG_subprogram
     857                    .dwattr $C$DW$70, DW_AT_name("__signbitl")
     858                    .dwattr $C$DW$70, DW_AT_low_pc(__signbitl)
     859                    .dwattr $C$DW$70, DW_AT_high_pc(0x00)
     860                    .dwattr $C$DW$70, DW_AT_TI_symbol_name("__signbitl")
     861                    .dwattr $C$DW$70, DW_AT_external
     862                    .dwattr $C$DW$70, DW_AT_type(*$C$DW$T$10)
     863                    .dwattr $C$DW$70, DW_AT_TI_begin_file("C:/ti/ccs1110/ccs/tools/compiler/ti-cgt-msp430_21.6.1.L
     864                    .dwattr $C$DW$70, DW_AT_TI_begin_line(0x16f)
     865                    .dwattr $C$DW$70, DW_AT_TI_begin_column(0x25)
     866                    .dwattr $C$DW$70, DW_AT_decl_file("C:/ti/ccs1110/ccs/tools/compiler/ti-cgt-msp430_21.6.1.LTS/i
     867                    .dwattr $C$DW$70, DW_AT_decl_line(0x16f)
     868                    .dwattr $C$DW$70, DW_AT_decl_column(0x25)
     869                    .dwattr $C$DW$70, DW_AT_TI_max_frame_size(0x04)
     870                    .dwpsn  file "C:/ti/ccs1110/ccs/tools/compiler/ti-cgt-msp430_21.6.1.LTS/include/_defs.h",line 
     871            
     872                    .dwfde $C$DW$CIE, __signbitl
     873            $C$DW$71        .dwtag  DW_TAG_formal_parameter
     874                    .dwattr $C$DW$71, DW_AT_name("e")
     875                    .dwattr $C$DW$71, DW_AT_TI_symbol_name("e")
     876                    .dwattr $C$DW$71, DW_AT_type(*$C$DW$T$18)
     877                    .dwattr $C$DW$71, DW_AT_location[DW_OP_reg12 DW_OP_piece 2 DW_OP_reg13 DW_OP_piece 2 DW_OP_reg
     878            
     879            
     880            ;*****************************************************************************
MSP430 Assembler PC v21.6.1 Tue Dec 20 13:59:32 2022

Copyright (c) 2003-2018 Texas Instruments Incorporated
Momentary_Switch.asm                                                 PAGE   17

     881            ;* FUNCTION NAME: __signbitl                                                 *
     882            ;*                                                                           *
     883            ;*   Regs Modified     : SP,SR,r11,r12,r13,r14,r15                           *
     884            ;*   Regs Used         : SP,SR,r11,r12,r13,r14,r15                           *
     885            ;*   Local Frame Size  : 0 Args + 0 Auto + 0 Save = 0 byte                   *
     886            ;*****************************************************************************
     887 000000       __signbitl:
     888            ;* --------------------------------------------------------------------------*
     889                    .dwcfi  cfa_offset, 4
     890                    .dwcfi  save_reg_to_mem, 16, -4
     891                    .dwpsn  file "C:/ti/ccs1110/ccs/tools/compiler/ti-cgt-msp430_21.6.1.LTS/include/_defs.h",line 
     892 000000 430B          MOV.W     #0,r11                ; [] |368| 
     893 000002 F30C          AND.W     #0,r12                ; [] |368| 
     894 000004 F30D          AND.W     #0,r13                ; [] |368| 
     895 000006 F30E          AND.W     #0,r14                ; [] |368| 
     896 000008 F03F          AND.W     #32768,r15            ; [] |368| 
         00000a 8000 
     897 00000c 930F          TST.W     r15                   ; [] |368| 
     898 00000e 2006          JNE       $C$L1                 ; [] |368| 
     899                                                      ; [] |368| 
     900            ;* --------------------------------------------------------------------------*
     901 000010 930E          TST.W     r14                   ; [] |368| 
     902 000012 2004          JNE       $C$L1                 ; [] |368| 
     903                                                      ; [] |368| 
     904            ;* --------------------------------------------------------------------------*
     905 000014 930D          TST.W     r13                   ; [] |368| 
     906 000016 2002          JNE       $C$L1                 ; [] |368| 
     907                                                      ; [] |368| 
     908            ;* --------------------------------------------------------------------------*
     909 000018 930C          TST.W     r12                   ; [] |368| 
     910 00001a 2401          JEQ       $C$L2                 ; [] |368| 
     911                                                      ; [] |368| 
     912            ;* --------------------------------------------------------------------------*
     913 00001c       $C$L1:    
     914 00001c 431B          MOV.W     #1,r11                ; [] |368| 
     915            ;* --------------------------------------------------------------------------*
     916 00001e       $C$L2:    
     917 00001e 0BCC          MOVA      r11,r12               ; [] |368| 
     918                    .dwpsn  file "C:/ti/ccs1110/ccs/tools/compiler/ti-cgt-msp430_21.6.1.LTS/include/_defs.h",line 
     919            $C$DW$72        .dwtag  DW_TAG_TI_branch
     920                    .dwattr $C$DW$72, DW_AT_low_pc(0x00)
     921                    .dwattr $C$DW$72, DW_AT_TI_return
     922            
     923 000020 0110          RETA      ; [] 
     924                    ; [] 
     925                    .dwattr $C$DW$70, DW_AT_TI_end_file("C:/ti/ccs1110/ccs/tools/compiler/ti-cgt-msp430_21.6.1.LTS
     926                    .dwattr $C$DW$70, DW_AT_TI_end_line(0x170)
     927                    .dwattr $C$DW$70, DW_AT_TI_end_column(0x2b)
     928                    .dwendentry
     929                    .dwendtag $C$DW$70
     930            
     931 000000               .sect   ".text:__signbitf"
     932                    .clink
     933                    .global __signbitf
     934            
MSP430 Assembler PC v21.6.1 Tue Dec 20 13:59:32 2022

Copyright (c) 2003-2018 Texas Instruments Incorporated
Momentary_Switch.asm                                                 PAGE   18

     935            $C$DW$73        .dwtag  DW_TAG_subprogram
     936                    .dwattr $C$DW$73, DW_AT_name("__signbitf")
     937                    .dwattr $C$DW$73, DW_AT_low_pc(__signbitf)
     938                    .dwattr $C$DW$73, DW_AT_high_pc(0x00)
     939                    .dwattr $C$DW$73, DW_AT_TI_symbol_name("__signbitf")
     940                    .dwattr $C$DW$73, DW_AT_external
     941                    .dwattr $C$DW$73, DW_AT_type(*$C$DW$T$10)
     942                    .dwattr $C$DW$73, DW_AT_TI_begin_file("C:/ti/ccs1110/ccs/tools/compiler/ti-cgt-msp430_21.6.1.L
     943                    .dwattr $C$DW$73, DW_AT_TI_begin_line(0x16d)
     944                    .dwattr $C$DW$73, DW_AT_TI_begin_column(0x25)
     945                    .dwattr $C$DW$73, DW_AT_decl_file("C:/ti/ccs1110/ccs/tools/compiler/ti-cgt-msp430_21.6.1.LTS/i
     946                    .dwattr $C$DW$73, DW_AT_decl_line(0x16d)
     947                    .dwattr $C$DW$73, DW_AT_decl_column(0x25)
     948                    .dwattr $C$DW$73, DW_AT_TI_max_frame_size(0x04)
     949                    .dwpsn  file "C:/ti/ccs1110/ccs/tools/compiler/ti-cgt-msp430_21.6.1.LTS/include/_defs.h",line 
     950            
     951                    .dwfde $C$DW$CIE, __signbitf
     952            $C$DW$74        .dwtag  DW_TAG_formal_parameter
     953                    .dwattr $C$DW$74, DW_AT_name("f")
     954                    .dwattr $C$DW$74, DW_AT_TI_symbol_name("f")
     955                    .dwattr $C$DW$74, DW_AT_type(*$C$DW$T$16)
     956                    .dwattr $C$DW$74, DW_AT_location[DW_OP_reg12 DW_OP_piece 2 DW_OP_reg13 DW_OP_piece 2]
     957            
     958            
     959            ;*****************************************************************************
     960            ;* FUNCTION NAME: __signbitf                                                 *
     961            ;*                                                                           *
     962            ;*   Regs Modified     : SP,SR,r12                                           *
     963            ;*   Regs Used         : SP,SR,r12,r13                                       *
     964            ;*   Local Frame Size  : 0 Args + 0 Auto + 0 Save = 0 byte                   *
     965            ;*****************************************************************************
     966 000000       __signbitf:
     967            ;* --------------------------------------------------------------------------*
     968                    .dwcfi  cfa_offset, 4
     969                    .dwcfi  save_reg_to_mem, 16, -4
     970                    .dwpsn  file "C:/ti/ccs1110/ccs/tools/compiler/ti-cgt-msp430_21.6.1.LTS/include/_defs.h",line 
     971 000000 430C          MOV.W     #0,r12                ; [] |366| 
     972 000002 930D          TST.W     r13                   ; [] |366| 
     973 000004 3401          JGE       $C$L3                 ; [] |366| 
     974                                                      ; [] |366| 
     975            ;* --------------------------------------------------------------------------*
     976 000006 431C          MOV.W     #1,r12                ; [] |366| 
     977            ;* --------------------------------------------------------------------------*
     978 000008       $C$L3:    
     979                    .dwpsn  file "C:/ti/ccs1110/ccs/tools/compiler/ti-cgt-msp430_21.6.1.LTS/include/_defs.h",line 
     980            $C$DW$75        .dwtag  DW_TAG_TI_branch
     981                    .dwattr $C$DW$75, DW_AT_low_pc(0x00)
     982                    .dwattr $C$DW$75, DW_AT_TI_return
     983            
     984 000008 0110          RETA      ; [] 
     985                    ; [] 
     986                    .dwattr $C$DW$73, DW_AT_TI_end_file("C:/ti/ccs1110/ccs/tools/compiler/ti-cgt-msp430_21.6.1.LTS
     987                    .dwattr $C$DW$73, DW_AT_TI_end_line(0x16e)
     988                    .dwattr $C$DW$73, DW_AT_TI_end_column(0x29)
     989                    .dwendentry
MSP430 Assembler PC v21.6.1 Tue Dec 20 13:59:32 2022

Copyright (c) 2003-2018 Texas Instruments Incorporated
Momentary_Switch.asm                                                 PAGE   19

     990                    .dwendtag $C$DW$73
     991            
     992 000000               .sect   ".text:__signbit"
     993                    .clink
     994                    .global __signbit
     995            
     996            $C$DW$76        .dwtag  DW_TAG_subprogram
     997                    .dwattr $C$DW$76, DW_AT_name("__signbit")
     998                    .dwattr $C$DW$76, DW_AT_low_pc(__signbit)
     999                    .dwattr $C$DW$76, DW_AT_high_pc(0x00)
    1000                    .dwattr $C$DW$76, DW_AT_TI_symbol_name("__signbit")
    1001                    .dwattr $C$DW$76, DW_AT_external
    1002                    .dwattr $C$DW$76, DW_AT_type(*$C$DW$T$10)
    1003                    .dwattr $C$DW$76, DW_AT_TI_begin_file("C:/ti/ccs1110/ccs/tools/compiler/ti-cgt-msp430_21.6.1.L
    1004                    .dwattr $C$DW$76, DW_AT_TI_begin_line(0x16b)
    1005                    .dwattr $C$DW$76, DW_AT_TI_begin_column(0x25)
    1006                    .dwattr $C$DW$76, DW_AT_decl_file("C:/ti/ccs1110/ccs/tools/compiler/ti-cgt-msp430_21.6.1.LTS/i
    1007                    .dwattr $C$DW$76, DW_AT_decl_line(0x16b)
    1008                    .dwattr $C$DW$76, DW_AT_decl_column(0x25)
    1009                    .dwattr $C$DW$76, DW_AT_TI_max_frame_size(0x04)
    1010                    .dwpsn  file "C:/ti/ccs1110/ccs/tools/compiler/ti-cgt-msp430_21.6.1.LTS/include/_defs.h",line 
    1011            
    1012                    .dwfde $C$DW$CIE, __signbit
    1013            $C$DW$77        .dwtag  DW_TAG_formal_parameter
    1014                    .dwattr $C$DW$77, DW_AT_name("d")
    1015                    .dwattr $C$DW$77, DW_AT_TI_symbol_name("d")
    1016                    .dwattr $C$DW$77, DW_AT_type(*$C$DW$T$17)
    1017                    .dwattr $C$DW$77, DW_AT_location[DW_OP_reg12 DW_OP_piece 2 DW_OP_reg13 DW_OP_piece 2 DW_OP_reg
    1018            
    1019            
    1020            ;*****************************************************************************
    1021            ;* FUNCTION NAME: __signbit                                                  *
    1022            ;*                                                                           *
    1023            ;*   Regs Modified     : SP,SR,r11,r12,r13,r14,r15                           *
    1024            ;*   Regs Used         : SP,SR,r11,r12,r13,r14,r15                           *
    1025            ;*   Local Frame Size  : 0 Args + 0 Auto + 0 Save = 0 byte                   *
    1026            ;*****************************************************************************
    1027 000000       __signbit:
    1028            ;* --------------------------------------------------------------------------*
    1029                    .dwcfi  cfa_offset, 4
    1030                    .dwcfi  save_reg_to_mem, 16, -4
    1031                    .dwpsn  file "C:/ti/ccs1110/ccs/tools/compiler/ti-cgt-msp430_21.6.1.LTS/include/_defs.h",line 
    1032 000000 430B          MOV.W     #0,r11                ; [] |364| 
    1033 000002 F30C          AND.W     #0,r12                ; [] |364| 
    1034 000004 F30D          AND.W     #0,r13                ; [] |364| 
    1035 000006 F30E          AND.W     #0,r14                ; [] |364| 
    1036 000008 F03F          AND.W     #32768,r15            ; [] |364| 
         00000a 8000 
    1037 00000c 930F          TST.W     r15                   ; [] |364| 
    1038 00000e 2006          JNE       $C$L4                 ; [] |364| 
    1039                                                      ; [] |364| 
    1040            ;* --------------------------------------------------------------------------*
    1041 000010 930E          TST.W     r14                   ; [] |364| 
    1042 000012 2004          JNE       $C$L4                 ; [] |364| 
    1043                                                      ; [] |364| 
MSP430 Assembler PC v21.6.1 Tue Dec 20 13:59:32 2022

Copyright (c) 2003-2018 Texas Instruments Incorporated
Momentary_Switch.asm                                                 PAGE   20

    1044            ;* --------------------------------------------------------------------------*
    1045 000014 930D          TST.W     r13                   ; [] |364| 
    1046 000016 2002          JNE       $C$L4                 ; [] |364| 
    1047                                                      ; [] |364| 
    1048            ;* --------------------------------------------------------------------------*
    1049 000018 930C          TST.W     r12                   ; [] |364| 
    1050 00001a 2401          JEQ       $C$L5                 ; [] |364| 
    1051                                                      ; [] |364| 
    1052            ;* --------------------------------------------------------------------------*
    1053 00001c       $C$L4:    
    1054 00001c 431B          MOV.W     #1,r11                ; [] |364| 
    1055            ;* --------------------------------------------------------------------------*
    1056 00001e       $C$L5:    
    1057 00001e 0BCC          MOVA      r11,r12               ; [] |364| 
    1058                    .dwpsn  file "C:/ti/ccs1110/ccs/tools/compiler/ti-cgt-msp430_21.6.1.LTS/include/_defs.h",line 
    1059            $C$DW$78        .dwtag  DW_TAG_TI_branch
    1060                    .dwattr $C$DW$78, DW_AT_low_pc(0x00)
    1061                    .dwattr $C$DW$78, DW_AT_TI_return
    1062            
    1063 000020 0110          RETA      ; [] 
    1064                    ; [] 
    1065                    .dwattr $C$DW$76, DW_AT_TI_end_file("C:/ti/ccs1110/ccs/tools/compiler/ti-cgt-msp430_21.6.1.LTS
    1066                    .dwattr $C$DW$76, DW_AT_TI_end_line(0x16c)
    1067                    .dwattr $C$DW$76, DW_AT_TI_end_column(0x2a)
    1068                    .dwendentry
    1069                    .dwendtag $C$DW$76
    1070            
    1071 000000               .sect   ".text:__isnormall"
    1072                    .clink
    1073                    .global __isnormall
    1074            
    1075            $C$DW$79        .dwtag  DW_TAG_subprogram
    1076                    .dwattr $C$DW$79, DW_AT_name("__isnormall")
    1077                    .dwattr $C$DW$79, DW_AT_low_pc(__isnormall)
    1078                    .dwattr $C$DW$79, DW_AT_high_pc(0x00)
    1079                    .dwattr $C$DW$79, DW_AT_TI_symbol_name("__isnormall")
    1080                    .dwattr $C$DW$79, DW_AT_external
    1081                    .dwattr $C$DW$79, DW_AT_type(*$C$DW$T$10)
    1082                    .dwattr $C$DW$79, DW_AT_TI_begin_file("C:/ti/ccs1110/ccs/tools/compiler/ti-cgt-msp430_21.6.1.L
    1083                    .dwattr $C$DW$79, DW_AT_TI_begin_line(0x167)
    1084                    .dwattr $C$DW$79, DW_AT_TI_begin_column(0x25)
    1085                    .dwattr $C$DW$79, DW_AT_decl_file("C:/ti/ccs1110/ccs/tools/compiler/ti-cgt-msp430_21.6.1.LTS/i
    1086                    .dwattr $C$DW$79, DW_AT_decl_line(0x167)
    1087                    .dwattr $C$DW$79, DW_AT_decl_column(0x25)
    1088                    .dwattr $C$DW$79, DW_AT_TI_max_frame_size(0x18)
    1089                    .dwpsn  file "C:/ti/ccs1110/ccs/tools/compiler/ti-cgt-msp430_21.6.1.LTS/include/_defs.h",line 
    1090            
    1091                    .dwfde $C$DW$CIE, __isnormall
    1092            $C$DW$80        .dwtag  DW_TAG_formal_parameter
    1093                    .dwattr $C$DW$80, DW_AT_name("e")
    1094                    .dwattr $C$DW$80, DW_AT_TI_symbol_name("e")
    1095                    .dwattr $C$DW$80, DW_AT_type(*$C$DW$T$18)
    1096                    .dwattr $C$DW$80, DW_AT_location[DW_OP_reg12 DW_OP_piece 2 DW_OP_reg13 DW_OP_piece 2 DW_OP_reg
    1097            
    1098            
MSP430 Assembler PC v21.6.1 Tue Dec 20 13:59:32 2022

Copyright (c) 2003-2018 Texas Instruments Incorporated
Momentary_Switch.asm                                                 PAGE   21

    1099            ;*****************************************************************************
    1100            ;* FUNCTION NAME: __isnormall                                                *
    1101            ;*                                                                           *
    1102            ;*   Regs Modified     : SP,SR,r6,r7,r8,r9,r10,r11,r12,r13,r14,r15           *
    1103            ;*   Regs Used         : SP,SR,r6,r7,r8,r9,r10,r11,r12,r13,r14,r15           *
    1104            ;*   Local Frame Size  : 0 Args + 0 Auto + 20 Save = 20 byte                 *
    1105            ;*****************************************************************************
    1106 000000       __isnormall:
    1107            ;* --------------------------------------------------------------------------*
    1108                    .dwcfi  cfa_offset, 4
    1109                    .dwcfi  save_reg_to_mem, 16, -4
    1110 000000 144A          PUSHM.A   #5,r10                ; [] 
    1111                    .dwcfi  save_reg_to_mem, 10, -8
    1112                    .dwcfi  save_reg_to_mem, 9, -12
    1113                    .dwcfi  save_reg_to_mem, 8, -16
    1114                    .dwcfi  save_reg_to_mem, 7, -20
    1115                    .dwcfi  save_reg_to_mem, 6, -24
    1116                    .dwcfi  cfa_offset, 24
    1117            ;* r6    assigned to $O$S1
    1118            ;* r12   assigned to e
    1119            $C$DW$81        .dwtag  DW_TAG_variable
    1120                    .dwattr $C$DW$81, DW_AT_name("e")
    1121                    .dwattr $C$DW$81, DW_AT_TI_symbol_name("e")
    1122                    .dwattr $C$DW$81, DW_AT_type(*$C$DW$T$18)
    1123                    .dwattr $C$DW$81, DW_AT_location[DW_OP_reg12 DW_OP_piece 2 DW_OP_reg13 DW_OP_piece 2 DW_OP_reg
    1124            
    1125 000002 0FC7          MOVA      r15,r7                ; [] |360| 
    1126                    .dwpsn  file "C:/ti/ccs1110/ccs/tools/compiler/ti-cgt-msp430_21.6.1.LTS/include/_defs.h",line 
    1127 000004 4306          MOV.W     #0,r6                 ; [] |360| 
    1128 000006 0CC8          MOVA      r12,r8                ; [] |360| 
    1129 000008 0DC9          MOVA      r13,r9                ; [] |360| 
    1130 00000a 0ECA          MOVA      r14,r10               ; [] |360| 
    1131 00000c 07CB          MOVA      r7,r11                ; [] |360| 
    1132 00000e 403C          MOV.W     #52,r12               ; [] |360| 
         000010 0034 
    1133            $C$DW$82        .dwtag  DW_TAG_TI_branch
    1134                    .dwattr $C$DW$82, DW_AT_low_pc(0x00)
    1135                    .dwattr $C$DW$82, DW_AT_name("__mspabi_srlll")
    1136                    .dwattr $C$DW$82, DW_AT_TI_call
    1137            
    1138 000012 13B0!         CALLA     #__mspabi_srlll       ; [] |360| 
         000014 0000 
    1139                                                      ; [] |360| 
    1140 000016 F03C          AND.W     #2047,r12             ; [] |360| 
         000018 07FF 
    1141 00001a F30D          AND.W     #0,r13                ; [] |360| 
    1142 00001c F30E          AND.W     #0,r14                ; [] |360| 
    1143 00001e F30F          AND.W     #0,r15                ; [] |360| 
    1144 000020 930F          TST.W     r15                   ; [] |360| 
    1145 000022 2006          JNE       $C$L6                 ; [] |360| 
    1146                                                      ; [] |360| 
    1147            ;* --------------------------------------------------------------------------*
    1148 000024 930E          TST.W     r14                   ; [] |360| 
    1149 000026 2004          JNE       $C$L6                 ; [] |360| 
    1150                                                      ; [] |360| 
MSP430 Assembler PC v21.6.1 Tue Dec 20 13:59:32 2022

Copyright (c) 2003-2018 Texas Instruments Incorporated
Momentary_Switch.asm                                                 PAGE   22

    1151            ;* --------------------------------------------------------------------------*
    1152 000028 930D          TST.W     r13                   ; [] |360| 
    1153 00002a 2002          JNE       $C$L6                 ; [] |360| 
    1154                                                      ; [] |360| 
    1155            ;* --------------------------------------------------------------------------*
    1156 00002c 930C          TST.W     r12                   ; [] |360| 
    1157 00002e 2406          JEQ       $C$L7                 ; [] |360| 
    1158                                                      ; [] |360| 
    1159            ;* --------------------------------------------------------------------------*
    1160 000030       $C$L6:    
    1161 000030 F037          AND.W     #32752,r7             ; [] |360| 
         000032 7FF0 
    1162 000034 9037          CMP.W     #32752,r7             ; [] |360| 
         000036 7FF0 
    1163 000038 2401          JEQ       $C$L7                 ; [] |360| 
    1164                                                      ; [] |360| 
    1165            ;* --------------------------------------------------------------------------*
    1166 00003a 4316          MOV.W     #1,r6                 ; [] |360| 
    1167            ;* --------------------------------------------------------------------------*
    1168 00003c       $C$L7:    
    1169 00003c 06CC          MOVA      r6,r12                ; [] |360| 
    1170                    .dwpsn  file "C:/ti/ccs1110/ccs/tools/compiler/ti-cgt-msp430_21.6.1.LTS/include/_defs.h",line 
    1171 00003e 1646          POPM.A    #5,r10                ; [] 
    1172                    .dwcfi  restore_reg, 6
    1173                    .dwcfi  restore_reg, 7
    1174                    .dwcfi  restore_reg, 8
    1175                    .dwcfi  restore_reg, 9
    1176                    .dwcfi  restore_reg, 10
    1177                    .dwcfi  cfa_offset, 4
    1178            $C$DW$83        .dwtag  DW_TAG_TI_branch
    1179                    .dwattr $C$DW$83, DW_AT_low_pc(0x00)
    1180                    .dwattr $C$DW$83, DW_AT_TI_return
    1181            
    1182 000040 0110          RETA      ; [] 
    1183                    ; [] 
    1184                    .dwattr $C$DW$79, DW_AT_TI_end_file("C:/ti/ccs1110/ccs/tools/compiler/ti-cgt-msp430_21.6.1.LTS
    1185                    .dwattr $C$DW$79, DW_AT_TI_end_line(0x169)
    1186                    .dwattr $C$DW$79, DW_AT_TI_end_column(0x31)
    1187                    .dwendentry
    1188                    .dwendtag $C$DW$79
    1189            
    1190 000000               .sect   ".text:__isnormalf"
    1191                    .clink
    1192                    .global __isnormalf
    1193            
    1194            $C$DW$84        .dwtag  DW_TAG_subprogram
    1195                    .dwattr $C$DW$84, DW_AT_name("__isnormalf")
    1196                    .dwattr $C$DW$84, DW_AT_low_pc(__isnormalf)
    1197                    .dwattr $C$DW$84, DW_AT_high_pc(0x00)
    1198                    .dwattr $C$DW$84, DW_AT_TI_symbol_name("__isnormalf")
    1199                    .dwattr $C$DW$84, DW_AT_external
    1200                    .dwattr $C$DW$84, DW_AT_type(*$C$DW$T$10)
    1201                    .dwattr $C$DW$84, DW_AT_TI_begin_file("C:/ti/ccs1110/ccs/tools/compiler/ti-cgt-msp430_21.6.1.L
    1202                    .dwattr $C$DW$84, DW_AT_TI_begin_line(0x163)
    1203                    .dwattr $C$DW$84, DW_AT_TI_begin_column(0x25)
MSP430 Assembler PC v21.6.1 Tue Dec 20 13:59:32 2022

Copyright (c) 2003-2018 Texas Instruments Incorporated
Momentary_Switch.asm                                                 PAGE   23

    1204                    .dwattr $C$DW$84, DW_AT_decl_file("C:/ti/ccs1110/ccs/tools/compiler/ti-cgt-msp430_21.6.1.LTS/i
    1205                    .dwattr $C$DW$84, DW_AT_decl_line(0x163)
    1206                    .dwattr $C$DW$84, DW_AT_decl_column(0x25)
    1207                    .dwattr $C$DW$84, DW_AT_TI_max_frame_size(0x04)
    1208                    .dwpsn  file "C:/ti/ccs1110/ccs/tools/compiler/ti-cgt-msp430_21.6.1.LTS/include/_defs.h",line 
    1209            
    1210                    .dwfde $C$DW$CIE, __isnormalf
    1211            $C$DW$85        .dwtag  DW_TAG_formal_parameter
    1212                    .dwattr $C$DW$85, DW_AT_name("f")
    1213                    .dwattr $C$DW$85, DW_AT_TI_symbol_name("f")
    1214                    .dwattr $C$DW$85, DW_AT_type(*$C$DW$T$16)
    1215                    .dwattr $C$DW$85, DW_AT_location[DW_OP_reg12 DW_OP_piece 2 DW_OP_reg13 DW_OP_piece 2]
    1216            
    1217            
    1218            ;*****************************************************************************
    1219            ;* FUNCTION NAME: __isnormalf                                                *
    1220            ;*                                                                           *
    1221            ;*   Regs Modified     : SP,SR,r12,r13,r15                                   *
    1222            ;*   Regs Used         : SP,SR,r12,r13,r15                                   *
    1223            ;*   Local Frame Size  : 0 Args + 0 Auto + 0 Save = 0 byte                   *
    1224            ;*****************************************************************************
    1225 000000       __isnormalf:
    1226            ;* --------------------------------------------------------------------------*
    1227                    .dwcfi  cfa_offset, 4
    1228                    .dwcfi  save_reg_to_mem, 16, -4
    1229            ;* r12   assigned to $O$S1
    1230                    .dwpsn  file "C:/ti/ccs1110/ccs/tools/compiler/ti-cgt-msp430_21.6.1.LTS/include/_defs.h",line 
    1231 000000 430C          MOV.W     #0,r12                ; [] |356| 
    1232 000002 0DCF          MOVA      r13,r15               ; [] |356| 
    1233 000004 1946          RPT #7 || RRUX.W r15 ; [] |356| 
         000006 100F 
    1234 000008 B03F          BIT.W     #255,r15              ; [] |356| 
         00000a 00FF 
    1235 00000c 2406          JEQ       $C$L8                 ; [] |356| 
    1236                                                      ; [] |356| 
    1237            ;* --------------------------------------------------------------------------*
    1238 00000e F03D          AND.W     #32640,r13            ; [] |356| 
         000010 7F80 
    1239 000012 903D          CMP.W     #32640,r13            ; [] |356| 
         000014 7F80 
    1240 000016 2401          JEQ       $C$L8                 ; [] |356| 
    1241                                                      ; [] |356| 
    1242            ;* --------------------------------------------------------------------------*
    1243 000018 431C          MOV.W     #1,r12                ; [] |356| 
    1244            ;* --------------------------------------------------------------------------*
    1245 00001a       $C$L8:    
    1246                    .dwpsn  file "C:/ti/ccs1110/ccs/tools/compiler/ti-cgt-msp430_21.6.1.LTS/include/_defs.h",line 
    1247            $C$DW$86        .dwtag  DW_TAG_TI_branch
    1248                    .dwattr $C$DW$86, DW_AT_low_pc(0x00)
    1249                    .dwattr $C$DW$86, DW_AT_TI_return
    1250            
    1251 00001a 0110          RETA      ; [] 
    1252                    ; [] 
    1253                    .dwattr $C$DW$84, DW_AT_TI_end_file("C:/ti/ccs1110/ccs/tools/compiler/ti-cgt-msp430_21.6.1.LTS
    1254                    .dwattr $C$DW$84, DW_AT_TI_end_line(0x165)
MSP430 Assembler PC v21.6.1 Tue Dec 20 13:59:32 2022

Copyright (c) 2003-2018 Texas Instruments Incorporated
Momentary_Switch.asm                                                 PAGE   24

    1255                    .dwattr $C$DW$84, DW_AT_TI_end_column(0x2f)
    1256                    .dwendentry
    1257                    .dwendtag $C$DW$84
    1258            
    1259 000000               .sect   ".text:__isnormal"
    1260                    .clink
    1261                    .global __isnormal
    1262            
    1263            $C$DW$87        .dwtag  DW_TAG_subprogram
    1264                    .dwattr $C$DW$87, DW_AT_name("__isnormal")
    1265                    .dwattr $C$DW$87, DW_AT_low_pc(__isnormal)
    1266                    .dwattr $C$DW$87, DW_AT_high_pc(0x00)
    1267                    .dwattr $C$DW$87, DW_AT_TI_symbol_name("__isnormal")
    1268                    .dwattr $C$DW$87, DW_AT_external
    1269                    .dwattr $C$DW$87, DW_AT_type(*$C$DW$T$10)
    1270                    .dwattr $C$DW$87, DW_AT_TI_begin_file("C:/ti/ccs1110/ccs/tools/compiler/ti-cgt-msp430_21.6.1.L
    1271                    .dwattr $C$DW$87, DW_AT_TI_begin_line(0x15f)
    1272                    .dwattr $C$DW$87, DW_AT_TI_begin_column(0x25)
    1273                    .dwattr $C$DW$87, DW_AT_decl_file("C:/ti/ccs1110/ccs/tools/compiler/ti-cgt-msp430_21.6.1.LTS/i
    1274                    .dwattr $C$DW$87, DW_AT_decl_line(0x15f)
    1275                    .dwattr $C$DW$87, DW_AT_decl_column(0x25)
    1276                    .dwattr $C$DW$87, DW_AT_TI_max_frame_size(0x18)
    1277                    .dwpsn  file "C:/ti/ccs1110/ccs/tools/compiler/ti-cgt-msp430_21.6.1.LTS/include/_defs.h",line 
    1278            
    1279                    .dwfde $C$DW$CIE, __isnormal
    1280            $C$DW$88        .dwtag  DW_TAG_formal_parameter
    1281                    .dwattr $C$DW$88, DW_AT_name("d")
    1282                    .dwattr $C$DW$88, DW_AT_TI_symbol_name("d")
    1283                    .dwattr $C$DW$88, DW_AT_type(*$C$DW$T$17)
    1284                    .dwattr $C$DW$88, DW_AT_location[DW_OP_reg12 DW_OP_piece 2 DW_OP_reg13 DW_OP_piece 2 DW_OP_reg
    1285            
    1286            
    1287            ;*****************************************************************************
    1288            ;* FUNCTION NAME: __isnormal                                                 *
    1289            ;*                                                                           *
    1290            ;*   Regs Modified     : SP,SR,r6,r7,r8,r9,r10,r11,r12,r13,r14,r15           *
    1291            ;*   Regs Used         : SP,SR,r6,r7,r8,r9,r10,r11,r12,r13,r14,r15           *
    1292            ;*   Local Frame Size  : 0 Args + 0 Auto + 20 Save = 20 byte                 *
    1293            ;*****************************************************************************
    1294 000000       __isnormal:
    1295            ;* --------------------------------------------------------------------------*
    1296                    .dwcfi  cfa_offset, 4
    1297                    .dwcfi  save_reg_to_mem, 16, -4
    1298 000000 144A          PUSHM.A   #5,r10                ; [] 
    1299                    .dwcfi  save_reg_to_mem, 10, -8
    1300                    .dwcfi  save_reg_to_mem, 9, -12
    1301                    .dwcfi  save_reg_to_mem, 8, -16
    1302                    .dwcfi  save_reg_to_mem, 7, -20
    1303                    .dwcfi  save_reg_to_mem, 6, -24
    1304                    .dwcfi  cfa_offset, 24
    1305            ;* r6    assigned to $O$S1
    1306            ;* r12   assigned to d
    1307            $C$DW$89        .dwtag  DW_TAG_variable
    1308                    .dwattr $C$DW$89, DW_AT_name("d")
    1309                    .dwattr $C$DW$89, DW_AT_TI_symbol_name("d")
MSP430 Assembler PC v21.6.1 Tue Dec 20 13:59:32 2022

Copyright (c) 2003-2018 Texas Instruments Incorporated
Momentary_Switch.asm                                                 PAGE   25

    1310                    .dwattr $C$DW$89, DW_AT_type(*$C$DW$T$17)
    1311                    .dwattr $C$DW$89, DW_AT_location[DW_OP_reg12 DW_OP_piece 2 DW_OP_reg13 DW_OP_piece 2 DW_OP_reg
    1312            
    1313 000002 0FC7          MOVA      r15,r7                ; [] |352| 
    1314                    .dwpsn  file "C:/ti/ccs1110/ccs/tools/compiler/ti-cgt-msp430_21.6.1.LTS/include/_defs.h",line 
    1315 000004 4306          MOV.W     #0,r6                 ; [] |352| 
    1316 000006 0CC8          MOVA      r12,r8                ; [] |352| 
    1317 000008 0DC9          MOVA      r13,r9                ; [] |352| 
    1318 00000a 0ECA          MOVA      r14,r10               ; [] |352| 
    1319 00000c 07CB          MOVA      r7,r11                ; [] |352| 
    1320 00000e 403C          MOV.W     #52,r12               ; [] |352| 
         000010 0034 
    1321            $C$DW$90        .dwtag  DW_TAG_TI_branch
    1322                    .dwattr $C$DW$90, DW_AT_low_pc(0x00)
    1323                    .dwattr $C$DW$90, DW_AT_name("__mspabi_srlll")
    1324                    .dwattr $C$DW$90, DW_AT_TI_call
    1325            
    1326 000012 13B0!         CALLA     #__mspabi_srlll       ; [] |352| 
         000014 0000 
    1327                                                      ; [] |352| 
    1328 000016 F03C          AND.W     #2047,r12             ; [] |352| 
         000018 07FF 
    1329 00001a F30D          AND.W     #0,r13                ; [] |352| 
    1330 00001c F30E          AND.W     #0,r14                ; [] |352| 
    1331 00001e F30F          AND.W     #0,r15                ; [] |352| 
    1332 000020 930F          TST.W     r15                   ; [] |352| 
    1333 000022 2006          JNE       $C$L9                 ; [] |352| 
    1334                                                      ; [] |352| 
    1335            ;* --------------------------------------------------------------------------*
    1336 000024 930E          TST.W     r14                   ; [] |352| 
    1337 000026 2004          JNE       $C$L9                 ; [] |352| 
    1338                                                      ; [] |352| 
    1339            ;* --------------------------------------------------------------------------*
    1340 000028 930D          TST.W     r13                   ; [] |352| 
    1341 00002a 2002          JNE       $C$L9                 ; [] |352| 
    1342                                                      ; [] |352| 
    1343            ;* --------------------------------------------------------------------------*
    1344 00002c 930C          TST.W     r12                   ; [] |352| 
    1345 00002e 2406          JEQ       $C$L10                ; [] |352| 
    1346                                                      ; [] |352| 
    1347            ;* --------------------------------------------------------------------------*
    1348 000030       $C$L9:    
    1349 000030 F037          AND.W     #32752,r7             ; [] |352| 
         000032 7FF0 
    1350 000034 9037          CMP.W     #32752,r7             ; [] |352| 
         000036 7FF0 
    1351 000038 2401          JEQ       $C$L10                ; [] |352| 
    1352                                                      ; [] |352| 
    1353            ;* --------------------------------------------------------------------------*
    1354 00003a 4316          MOV.W     #1,r6                 ; [] |352| 
    1355            ;* --------------------------------------------------------------------------*
    1356 00003c       $C$L10:    
    1357 00003c 06CC          MOVA      r6,r12                ; [] |352| 
    1358                    .dwpsn  file "C:/ti/ccs1110/ccs/tools/compiler/ti-cgt-msp430_21.6.1.LTS/include/_defs.h",line 
    1359 00003e 1646          POPM.A    #5,r10                ; [] 
MSP430 Assembler PC v21.6.1 Tue Dec 20 13:59:32 2022

Copyright (c) 2003-2018 Texas Instruments Incorporated
Momentary_Switch.asm                                                 PAGE   26

    1360                    .dwcfi  restore_reg, 6
    1361                    .dwcfi  restore_reg, 7
    1362                    .dwcfi  restore_reg, 8
    1363                    .dwcfi  restore_reg, 9
    1364                    .dwcfi  restore_reg, 10
    1365                    .dwcfi  cfa_offset, 4
    1366            $C$DW$91        .dwtag  DW_TAG_TI_branch
    1367                    .dwattr $C$DW$91, DW_AT_low_pc(0x00)
    1368                    .dwattr $C$DW$91, DW_AT_TI_return
    1369            
    1370 000040 0110          RETA      ; [] 
    1371                    ; [] 
    1372                    .dwattr $C$DW$87, DW_AT_TI_end_file("C:/ti/ccs1110/ccs/tools/compiler/ti-cgt-msp430_21.6.1.LTS
    1373                    .dwattr $C$DW$87, DW_AT_TI_end_line(0x161)
    1374                    .dwattr $C$DW$87, DW_AT_TI_end_column(0x30)
    1375                    .dwendentry
    1376                    .dwendtag $C$DW$87
    1377            
    1378 000000               .sect   ".text:__isnanl"
    1379                    .clink
    1380                    .global __isnanl
    1381            
    1382            $C$DW$92        .dwtag  DW_TAG_subprogram
    1383                    .dwattr $C$DW$92, DW_AT_name("__isnanl")
    1384                    .dwattr $C$DW$92, DW_AT_low_pc(__isnanl)
    1385                    .dwattr $C$DW$92, DW_AT_high_pc(0x00)
    1386                    .dwattr $C$DW$92, DW_AT_TI_symbol_name("__isnanl")
    1387                    .dwattr $C$DW$92, DW_AT_external
    1388                    .dwattr $C$DW$92, DW_AT_type(*$C$DW$T$10)
    1389                    .dwattr $C$DW$92, DW_AT_TI_begin_file("C:/ti/ccs1110/ccs/tools/compiler/ti-cgt-msp430_21.6.1.L
    1390                    .dwattr $C$DW$92, DW_AT_TI_begin_line(0x15b)
    1391                    .dwattr $C$DW$92, DW_AT_TI_begin_column(0x25)
    1392                    .dwattr $C$DW$92, DW_AT_decl_file("C:/ti/ccs1110/ccs/tools/compiler/ti-cgt-msp430_21.6.1.LTS/i
    1393                    .dwattr $C$DW$92, DW_AT_decl_line(0x15b)
    1394                    .dwattr $C$DW$92, DW_AT_decl_column(0x25)
    1395                    .dwattr $C$DW$92, DW_AT_TI_max_frame_size(0x08)
    1396                    .dwpsn  file "C:/ti/ccs1110/ccs/tools/compiler/ti-cgt-msp430_21.6.1.LTS/include/_defs.h",line 
    1397            
    1398                    .dwfde $C$DW$CIE, __isnanl
    1399            $C$DW$93        .dwtag  DW_TAG_formal_parameter
    1400                    .dwattr $C$DW$93, DW_AT_name("e")
    1401                    .dwattr $C$DW$93, DW_AT_TI_symbol_name("e")
    1402                    .dwattr $C$DW$93, DW_AT_type(*$C$DW$T$18)
    1403                    .dwattr $C$DW$93, DW_AT_location[DW_OP_reg12 DW_OP_piece 2 DW_OP_reg13 DW_OP_piece 2 DW_OP_reg
    1404            
    1405            
    1406            ;*****************************************************************************
    1407            ;* FUNCTION NAME: __isnanl                                                   *
    1408            ;*                                                                           *
    1409            ;*   Regs Modified     : SP,SR,r10,r11,r12,r13,r14,r15                       *
    1410            ;*   Regs Used         : SP,SR,r10,r11,r12,r13,r14,r15                       *
    1411            ;*   Local Frame Size  : 0 Args + 0 Auto + 4 Save = 4 byte                   *
    1412            ;*****************************************************************************
    1413 000000       __isnanl:
    1414            ;* --------------------------------------------------------------------------*
MSP430 Assembler PC v21.6.1 Tue Dec 20 13:59:32 2022

Copyright (c) 2003-2018 Texas Instruments Incorporated
Momentary_Switch.asm                                                 PAGE   27

    1415                    .dwcfi  cfa_offset, 4
    1416                    .dwcfi  save_reg_to_mem, 16, -4
    1417 000000 140A          PUSHM.A   #1,r10                ; [] 
    1418                    .dwcfi  save_reg_to_mem, 10, -8
    1419                    .dwcfi  cfa_offset, 8
    1420            ;* r11   assigned to $O$S1
    1421                    .dwpsn  file "C:/ti/ccs1110/ccs/tools/compiler/ti-cgt-msp430_21.6.1.LTS/include/_defs.h",line 
    1422 000002 430B          MOV.W     #0,r11                ; [] |348| 
    1423 000004 0FCA          MOVA      r15,r10               ; [] |348| 
    1424 000006 F03A          AND.W     #32752,r10            ; [] |348| 
         000008 7FF0 
    1425 00000a 903A          CMP.W     #32752,r10            ; [] |348| 
         00000c 7FF0 
    1426 00000e 200E          JNE       $C$L12                ; [] |348| 
    1427                                                      ; [] |348| 
    1428            ;* --------------------------------------------------------------------------*
    1429 000010 F33C          AND.W     #65535,r12            ; [] |348| 
    1430 000012 F33D          AND.W     #65535,r13            ; [] |348| 
    1431 000014 F33E          AND.W     #65535,r14            ; [] |348| 
    1432 000016 F03F          AND.W     #15,r15               ; [] |348| 
         000018 000F 
    1433 00001a 930F          TST.W     r15                   ; [] |348| 
    1434 00001c 2006          JNE       $C$L11                ; [] |348| 
    1435                                                      ; [] |348| 
    1436            ;* --------------------------------------------------------------------------*
    1437 00001e 930E          TST.W     r14                   ; [] |348| 
    1438 000020 2004          JNE       $C$L11                ; [] |348| 
    1439                                                      ; [] |348| 
    1440            ;* --------------------------------------------------------------------------*
    1441 000022 930D          TST.W     r13                   ; [] |348| 
    1442 000024 2002          JNE       $C$L11                ; [] |348| 
    1443                                                      ; [] |348| 
    1444            ;* --------------------------------------------------------------------------*
    1445 000026 930C          TST.W     r12                   ; [] |348| 
    1446 000028 2401          JEQ       $C$L12                ; [] |348| 
    1447                                                      ; [] |348| 
    1448            ;* --------------------------------------------------------------------------*
    1449 00002a       $C$L11:    
    1450 00002a 431B          MOV.W     #1,r11                ; [] |348| 
    1451            ;* --------------------------------------------------------------------------*
    1452 00002c       $C$L12:    
    1453 00002c 0BCC          MOVA      r11,r12               ; [] |348| 
    1454                    .dwpsn  file "C:/ti/ccs1110/ccs/tools/compiler/ti-cgt-msp430_21.6.1.LTS/include/_defs.h",line 
    1455 00002e 160A          POPM.A    #1,r10                ; [] 
    1456                    .dwcfi  restore_reg, 10
    1457                    .dwcfi  cfa_offset, 4
    1458            $C$DW$94        .dwtag  DW_TAG_TI_branch
    1459                    .dwattr $C$DW$94, DW_AT_low_pc(0x00)
    1460                    .dwattr $C$DW$94, DW_AT_TI_return
    1461            
    1462 000030 0110          RETA      ; [] 
    1463                    ; [] 
    1464                    .dwattr $C$DW$92, DW_AT_TI_end_file("C:/ti/ccs1110/ccs/tools/compiler/ti-cgt-msp430_21.6.1.LTS
    1465                    .dwattr $C$DW$92, DW_AT_TI_end_line(0x15d)
    1466                    .dwattr $C$DW$92, DW_AT_TI_end_column(0x30)
MSP430 Assembler PC v21.6.1 Tue Dec 20 13:59:32 2022

Copyright (c) 2003-2018 Texas Instruments Incorporated
Momentary_Switch.asm                                                 PAGE   28

    1467                    .dwendentry
    1468                    .dwendtag $C$DW$92
    1469            
    1470 000000               .sect   ".text:__isnanf"
    1471                    .clink
    1472                    .global __isnanf
    1473            
    1474            $C$DW$95        .dwtag  DW_TAG_subprogram
    1475                    .dwattr $C$DW$95, DW_AT_name("__isnanf")
    1476                    .dwattr $C$DW$95, DW_AT_low_pc(__isnanf)
    1477                    .dwattr $C$DW$95, DW_AT_high_pc(0x00)
    1478                    .dwattr $C$DW$95, DW_AT_TI_symbol_name("__isnanf")
    1479                    .dwattr $C$DW$95, DW_AT_external
    1480                    .dwattr $C$DW$95, DW_AT_type(*$C$DW$T$10)
    1481                    .dwattr $C$DW$95, DW_AT_TI_begin_file("C:/ti/ccs1110/ccs/tools/compiler/ti-cgt-msp430_21.6.1.L
    1482                    .dwattr $C$DW$95, DW_AT_TI_begin_line(0x158)
    1483                    .dwattr $C$DW$95, DW_AT_TI_begin_column(0x25)
    1484                    .dwattr $C$DW$95, DW_AT_decl_file("C:/ti/ccs1110/ccs/tools/compiler/ti-cgt-msp430_21.6.1.LTS/i
    1485                    .dwattr $C$DW$95, DW_AT_decl_line(0x158)
    1486                    .dwattr $C$DW$95, DW_AT_decl_column(0x25)
    1487                    .dwattr $C$DW$95, DW_AT_TI_max_frame_size(0x04)
    1488                    .dwpsn  file "C:/ti/ccs1110/ccs/tools/compiler/ti-cgt-msp430_21.6.1.LTS/include/_defs.h",line 
    1489            
    1490                    .dwfde $C$DW$CIE, __isnanf
    1491            $C$DW$96        .dwtag  DW_TAG_formal_parameter
    1492                    .dwattr $C$DW$96, DW_AT_name("f")
    1493                    .dwattr $C$DW$96, DW_AT_TI_symbol_name("f")
    1494                    .dwattr $C$DW$96, DW_AT_type(*$C$DW$T$16)
    1495                    .dwattr $C$DW$96, DW_AT_location[DW_OP_reg12 DW_OP_piece 2 DW_OP_reg13 DW_OP_piece 2]
    1496            
    1497            
    1498            ;*****************************************************************************
    1499            ;* FUNCTION NAME: __isnanf                                                   *
    1500            ;*                                                                           *
    1501            ;*   Regs Modified     : SP,SR,r12,r13,r14,r15                               *
    1502            ;*   Regs Used         : SP,SR,r12,r13,r14,r15                               *
    1503            ;*   Local Frame Size  : 0 Args + 0 Auto + 0 Save = 0 byte                   *
    1504            ;*****************************************************************************
    1505 000000       __isnanf:
    1506            ;* --------------------------------------------------------------------------*
    1507                    .dwcfi  cfa_offset, 4
    1508                    .dwcfi  save_reg_to_mem, 16, -4
    1509            ;* r15   assigned to $O$S1
    1510                    .dwpsn  file "C:/ti/ccs1110/ccs/tools/compiler/ti-cgt-msp430_21.6.1.LTS/include/_defs.h",line 
    1511 000000 430F          MOV.W     #0,r15                ; [] |345| 
    1512 000002 0DCE          MOVA      r13,r14               ; [] |345| 
    1513 000004 F03E          AND.W     #32640,r14            ; [] |345| 
         000006 7F80 
    1514 000008 903E          CMP.W     #32640,r14            ; [] |345| 
         00000a 7F80 
    1515 00000c 2008          JNE       $C$L14                ; [] |345| 
    1516                                                      ; [] |345| 
    1517            ;* --------------------------------------------------------------------------*
    1518 00000e F33C          AND.W     #65535,r12            ; [] |345| 
    1519 000010 F03D          AND.W     #127,r13              ; [] |345| 
MSP430 Assembler PC v21.6.1 Tue Dec 20 13:59:32 2022

Copyright (c) 2003-2018 Texas Instruments Incorporated
Momentary_Switch.asm                                                 PAGE   29

         000012 007F 
    1520 000014 930D          TST.W     r13                   ; [] |345| 
    1521 000016 2002          JNE       $C$L13                ; [] |345| 
    1522                                                      ; [] |345| 
    1523            ;* --------------------------------------------------------------------------*
    1524 000018 930C          TST.W     r12                   ; [] |345| 
    1525 00001a 2401          JEQ       $C$L14                ; [] |345| 
    1526                                                      ; [] |345| 
    1527            ;* --------------------------------------------------------------------------*
    1528 00001c       $C$L13:    
    1529 00001c 431F          MOV.W     #1,r15                ; [] |345| 
    1530            ;* --------------------------------------------------------------------------*
    1531 00001e       $C$L14:    
    1532 00001e 0FCC          MOVA      r15,r12               ; [] |345| 
    1533                    .dwpsn  file "C:/ti/ccs1110/ccs/tools/compiler/ti-cgt-msp430_21.6.1.LTS/include/_defs.h",line 
    1534            $C$DW$97        .dwtag  DW_TAG_TI_branch
    1535                    .dwattr $C$DW$97, DW_AT_low_pc(0x00)
    1536                    .dwattr $C$DW$97, DW_AT_TI_return
    1537            
    1538 000020 0110          RETA      ; [] 
    1539                    ; [] 
    1540                    .dwattr $C$DW$95, DW_AT_TI_end_file("C:/ti/ccs1110/ccs/tools/compiler/ti-cgt-msp430_21.6.1.LTS
    1541                    .dwattr $C$DW$95, DW_AT_TI_end_line(0x15a)
    1542                    .dwattr $C$DW$95, DW_AT_TI_end_column(0x2e)
    1543                    .dwendentry
    1544                    .dwendtag $C$DW$95
    1545            
    1546 000000               .sect   ".text:__isnan"
    1547                    .clink
    1548                    .global __isnan
    1549            
    1550            $C$DW$98        .dwtag  DW_TAG_subprogram
    1551                    .dwattr $C$DW$98, DW_AT_name("__isnan")
    1552                    .dwattr $C$DW$98, DW_AT_low_pc(__isnan)
    1553                    .dwattr $C$DW$98, DW_AT_high_pc(0x00)
    1554                    .dwattr $C$DW$98, DW_AT_TI_symbol_name("__isnan")
    1555                    .dwattr $C$DW$98, DW_AT_external
    1556                    .dwattr $C$DW$98, DW_AT_type(*$C$DW$T$10)
    1557                    .dwattr $C$DW$98, DW_AT_TI_begin_file("C:/ti/ccs1110/ccs/tools/compiler/ti-cgt-msp430_21.6.1.L
    1558                    .dwattr $C$DW$98, DW_AT_TI_begin_line(0x155)
    1559                    .dwattr $C$DW$98, DW_AT_TI_begin_column(0x25)
    1560                    .dwattr $C$DW$98, DW_AT_decl_file("C:/ti/ccs1110/ccs/tools/compiler/ti-cgt-msp430_21.6.1.LTS/i
    1561                    .dwattr $C$DW$98, DW_AT_decl_line(0x155)
    1562                    .dwattr $C$DW$98, DW_AT_decl_column(0x25)
    1563                    .dwattr $C$DW$98, DW_AT_TI_max_frame_size(0x08)
    1564                    .dwpsn  file "C:/ti/ccs1110/ccs/tools/compiler/ti-cgt-msp430_21.6.1.LTS/include/_defs.h",line 
    1565            
    1566                    .dwfde $C$DW$CIE, __isnan
    1567            $C$DW$99        .dwtag  DW_TAG_formal_parameter
    1568                    .dwattr $C$DW$99, DW_AT_name("d")
    1569                    .dwattr $C$DW$99, DW_AT_TI_symbol_name("d")
    1570                    .dwattr $C$DW$99, DW_AT_type(*$C$DW$T$17)
    1571                    .dwattr $C$DW$99, DW_AT_location[DW_OP_reg12 DW_OP_piece 2 DW_OP_reg13 DW_OP_piece 2 DW_OP_reg
    1572            
    1573            
MSP430 Assembler PC v21.6.1 Tue Dec 20 13:59:32 2022

Copyright (c) 2003-2018 Texas Instruments Incorporated
Momentary_Switch.asm                                                 PAGE   30

    1574            ;*****************************************************************************
    1575            ;* FUNCTION NAME: __isnan                                                    *
    1576            ;*                                                                           *
    1577            ;*   Regs Modified     : SP,SR,r10,r11,r12,r13,r14,r15                       *
    1578            ;*   Regs Used         : SP,SR,r10,r11,r12,r13,r14,r15                       *
    1579            ;*   Local Frame Size  : 0 Args + 0 Auto + 4 Save = 4 byte                   *
    1580            ;*****************************************************************************
    1581 000000       __isnan:
    1582            ;* --------------------------------------------------------------------------*
    1583                    .dwcfi  cfa_offset, 4
    1584                    .dwcfi  save_reg_to_mem, 16, -4
    1585 000000 140A          PUSHM.A   #1,r10                ; [] 
    1586                    .dwcfi  save_reg_to_mem, 10, -8
    1587                    .dwcfi  cfa_offset, 8
    1588            ;* r11   assigned to $O$S1
    1589                    .dwpsn  file "C:/ti/ccs1110/ccs/tools/compiler/ti-cgt-msp430_21.6.1.LTS/include/_defs.h",line 
    1590 000002 430B          MOV.W     #0,r11                ; [] |342| 
    1591 000004 0FCA          MOVA      r15,r10               ; [] |342| 
    1592 000006 F03A          AND.W     #32752,r10            ; [] |342| 
         000008 7FF0 
    1593 00000a 903A          CMP.W     #32752,r10            ; [] |342| 
         00000c 7FF0 
    1594 00000e 200E          JNE       $C$L16                ; [] |342| 
    1595                                                      ; [] |342| 
    1596            ;* --------------------------------------------------------------------------*
    1597 000010 F33C          AND.W     #65535,r12            ; [] |342| 
    1598 000012 F33D          AND.W     #65535,r13            ; [] |342| 
    1599 000014 F33E          AND.W     #65535,r14            ; [] |342| 
    1600 000016 F03F          AND.W     #15,r15               ; [] |342| 
         000018 000F 
    1601 00001a 930F          TST.W     r15                   ; [] |342| 
    1602 00001c 2006          JNE       $C$L15                ; [] |342| 
    1603                                                      ; [] |342| 
    1604            ;* --------------------------------------------------------------------------*
    1605 00001e 930E          TST.W     r14                   ; [] |342| 
    1606 000020 2004          JNE       $C$L15                ; [] |342| 
    1607                                                      ; [] |342| 
    1608            ;* --------------------------------------------------------------------------*
    1609 000022 930D          TST.W     r13                   ; [] |342| 
    1610 000024 2002          JNE       $C$L15                ; [] |342| 
    1611                                                      ; [] |342| 
    1612            ;* --------------------------------------------------------------------------*
    1613 000026 930C          TST.W     r12                   ; [] |342| 
    1614 000028 2401          JEQ       $C$L16                ; [] |342| 
    1615                                                      ; [] |342| 
    1616            ;* --------------------------------------------------------------------------*
    1617 00002a       $C$L15:    
    1618 00002a 431B          MOV.W     #1,r11                ; [] |342| 
    1619            ;* --------------------------------------------------------------------------*
    1620 00002c       $C$L16:    
    1621 00002c 0BCC          MOVA      r11,r12               ; [] |342| 
    1622                    .dwpsn  file "C:/ti/ccs1110/ccs/tools/compiler/ti-cgt-msp430_21.6.1.LTS/include/_defs.h",line 
    1623 00002e 160A          POPM.A    #1,r10                ; [] 
    1624                    .dwcfi  restore_reg, 10
    1625                    .dwcfi  cfa_offset, 4
MSP430 Assembler PC v21.6.1 Tue Dec 20 13:59:32 2022

Copyright (c) 2003-2018 Texas Instruments Incorporated
Momentary_Switch.asm                                                 PAGE   31

    1626            $C$DW$100       .dwtag  DW_TAG_TI_branch
    1627                    .dwattr $C$DW$100, DW_AT_low_pc(0x00)
    1628                    .dwattr $C$DW$100, DW_AT_TI_return
    1629            
    1630 000030 0110          RETA      ; [] 
    1631                    ; [] 
    1632                    .dwattr $C$DW$98, DW_AT_TI_end_file("C:/ti/ccs1110/ccs/tools/compiler/ti-cgt-msp430_21.6.1.LTS
    1633                    .dwattr $C$DW$98, DW_AT_TI_end_line(0x157)
    1634                    .dwattr $C$DW$98, DW_AT_TI_end_column(0x2f)
    1635                    .dwendentry
    1636                    .dwendtag $C$DW$98
    1637            
    1638 000000               .sect   ".text:__isinfl"
    1639                    .clink
    1640                    .global __isinfl
    1641            
    1642            $C$DW$101       .dwtag  DW_TAG_subprogram
    1643                    .dwattr $C$DW$101, DW_AT_name("__isinfl")
    1644                    .dwattr $C$DW$101, DW_AT_low_pc(__isinfl)
    1645                    .dwattr $C$DW$101, DW_AT_high_pc(0x00)
    1646                    .dwattr $C$DW$101, DW_AT_TI_symbol_name("__isinfl")
    1647                    .dwattr $C$DW$101, DW_AT_external
    1648                    .dwattr $C$DW$101, DW_AT_type(*$C$DW$T$10)
    1649                    .dwattr $C$DW$101, DW_AT_TI_begin_file("C:/ti/ccs1110/ccs/tools/compiler/ti-cgt-msp430_21.6.1.
    1650                    .dwattr $C$DW$101, DW_AT_TI_begin_line(0x17a)
    1651                    .dwattr $C$DW$101, DW_AT_TI_begin_column(0x25)
    1652                    .dwattr $C$DW$101, DW_AT_decl_file("C:/ti/ccs1110/ccs/tools/compiler/ti-cgt-msp430_21.6.1.LTS/
    1653                    .dwattr $C$DW$101, DW_AT_decl_line(0x17a)
    1654                    .dwattr $C$DW$101, DW_AT_decl_column(0x25)
    1655                    .dwattr $C$DW$101, DW_AT_TI_max_frame_size(0x08)
    1656                    .dwpsn  file "C:/ti/ccs1110/ccs/tools/compiler/ti-cgt-msp430_21.6.1.LTS/include/_defs.h",line 
    1657            
    1658                    .dwfde $C$DW$CIE, __isinfl
    1659            $C$DW$102       .dwtag  DW_TAG_formal_parameter
    1660                    .dwattr $C$DW$102, DW_AT_name("e")
    1661                    .dwattr $C$DW$102, DW_AT_TI_symbol_name("e")
    1662                    .dwattr $C$DW$102, DW_AT_type(*$C$DW$T$18)
    1663                    .dwattr $C$DW$102, DW_AT_location[DW_OP_reg12 DW_OP_piece 2 DW_OP_reg13 DW_OP_piece 2 DW_OP_re
    1664            
    1665            
    1666            ;*****************************************************************************
    1667            ;* FUNCTION NAME: __isinfl                                                   *
    1668            ;*                                                                           *
    1669            ;*   Regs Modified     : SP,SR,r10,r11,r12,r13,r14,r15                       *
    1670            ;*   Regs Used         : SP,SR,r10,r11,r12,r13,r14,r15                       *
    1671            ;*   Local Frame Size  : 0 Args + 0 Auto + 4 Save = 4 byte                   *
    1672            ;*****************************************************************************
    1673 000000       __isinfl:
    1674            ;* --------------------------------------------------------------------------*
    1675                    .dwcfi  cfa_offset, 4
    1676                    .dwcfi  save_reg_to_mem, 16, -4
    1677 000000 140A          PUSHM.A   #1,r10                ; [] 
    1678                    .dwcfi  save_reg_to_mem, 10, -8
    1679                    .dwcfi  cfa_offset, 8
    1680            ;* r11   assigned to $O$S1
MSP430 Assembler PC v21.6.1 Tue Dec 20 13:59:32 2022

Copyright (c) 2003-2018 Texas Instruments Incorporated
Momentary_Switch.asm                                                 PAGE   32

    1681                    .dwpsn  file "C:/ti/ccs1110/ccs/tools/compiler/ti-cgt-msp430_21.6.1.LTS/include/_defs.h",line 
    1682 000002 430B          MOV.W     #0,r11                ; [] |379| 
    1683 000004 0FCA          MOVA      r15,r10               ; [] |379| 
    1684 000006 F03A          AND.W     #32752,r10            ; [] |379| 
         000008 7FF0 
    1685 00000a 903A          CMP.W     #32752,r10            ; [] |379| 
         00000c 7FF0 
    1686 00000e 200E          JNE       $C$L17                ; [] |379| 
    1687                                                      ; [] |379| 
    1688            ;* --------------------------------------------------------------------------*
    1689 000010 F33C          AND.W     #65535,r12            ; [] |379| 
    1690 000012 F33D          AND.W     #65535,r13            ; [] |379| 
    1691 000014 F33E          AND.W     #65535,r14            ; [] |379| 
    1692 000016 F03F          AND.W     #15,r15               ; [] |379| 
         000018 000F 
    1693 00001a 930F          TST.W     r15                   ; [] |379| 
    1694 00001c 2007          JNE       $C$L17                ; [] |379| 
    1695                                                      ; [] |379| 
    1696            ;* --------------------------------------------------------------------------*
    1697 00001e 930E          TST.W     r14                   ; [] |379| 
    1698 000020 2005          JNE       $C$L17                ; [] |379| 
    1699                                                      ; [] |379| 
    1700            ;* --------------------------------------------------------------------------*
    1701 000022 930D          TST.W     r13                   ; [] |379| 
    1702 000024 2003          JNE       $C$L17                ; [] |379| 
    1703                                                      ; [] |379| 
    1704            ;* --------------------------------------------------------------------------*
    1705 000026 930C          TST.W     r12                   ; [] |379| 
    1706 000028 2001          JNE       $C$L17                ; [] |379| 
    1707                                                      ; [] |379| 
    1708            ;* --------------------------------------------------------------------------*
    1709 00002a 431B          MOV.W     #1,r11                ; [] |379| 
    1710            ;* --------------------------------------------------------------------------*
    1711 00002c       $C$L17:    
    1712 00002c 0BCC          MOVA      r11,r12               ; [] |379| 
    1713                    .dwpsn  file "C:/ti/ccs1110/ccs/tools/compiler/ti-cgt-msp430_21.6.1.LTS/include/_defs.h",line 
    1714 00002e 160A          POPM.A    #1,r10                ; [] 
    1715                    .dwcfi  restore_reg, 10
    1716                    .dwcfi  cfa_offset, 4
    1717            $C$DW$103       .dwtag  DW_TAG_TI_branch
    1718                    .dwattr $C$DW$103, DW_AT_low_pc(0x00)
    1719                    .dwattr $C$DW$103, DW_AT_TI_return
    1720            
    1721 000030 0110          RETA      ; [] 
    1722                    ; [] 
    1723                    .dwattr $C$DW$101, DW_AT_TI_end_file("C:/ti/ccs1110/ccs/tools/compiler/ti-cgt-msp430_21.6.1.LT
    1724                    .dwattr $C$DW$101, DW_AT_TI_end_line(0x17b)
    1725                    .dwattr $C$DW$101, DW_AT_TI_end_column(0x4c)
    1726                    .dwendentry
    1727                    .dwendtag $C$DW$101
    1728            
    1729 000000               .sect   ".text:__isinff"
    1730                    .clink
    1731                    .global __isinff
    1732            
MSP430 Assembler PC v21.6.1 Tue Dec 20 13:59:32 2022

Copyright (c) 2003-2018 Texas Instruments Incorporated
Momentary_Switch.asm                                                 PAGE   33

    1733            $C$DW$104       .dwtag  DW_TAG_subprogram
    1734                    .dwattr $C$DW$104, DW_AT_name("__isinff")
    1735                    .dwattr $C$DW$104, DW_AT_low_pc(__isinff)
    1736                    .dwattr $C$DW$104, DW_AT_high_pc(0x00)
    1737                    .dwattr $C$DW$104, DW_AT_TI_symbol_name("__isinff")
    1738                    .dwattr $C$DW$104, DW_AT_external
    1739                    .dwattr $C$DW$104, DW_AT_type(*$C$DW$T$10)
    1740                    .dwattr $C$DW$104, DW_AT_TI_begin_file("C:/ti/ccs1110/ccs/tools/compiler/ti-cgt-msp430_21.6.1.
    1741                    .dwattr $C$DW$104, DW_AT_TI_begin_line(0x176)
    1742                    .dwattr $C$DW$104, DW_AT_TI_begin_column(0x25)
    1743                    .dwattr $C$DW$104, DW_AT_decl_file("C:/ti/ccs1110/ccs/tools/compiler/ti-cgt-msp430_21.6.1.LTS/
    1744                    .dwattr $C$DW$104, DW_AT_decl_line(0x176)
    1745                    .dwattr $C$DW$104, DW_AT_decl_column(0x25)
    1746                    .dwattr $C$DW$104, DW_AT_TI_max_frame_size(0x04)
    1747                    .dwpsn  file "C:/ti/ccs1110/ccs/tools/compiler/ti-cgt-msp430_21.6.1.LTS/include/_defs.h",line 
    1748            
    1749                    .dwfde $C$DW$CIE, __isinff
    1750            $C$DW$105       .dwtag  DW_TAG_formal_parameter
    1751                    .dwattr $C$DW$105, DW_AT_name("f")
    1752                    .dwattr $C$DW$105, DW_AT_TI_symbol_name("f")
    1753                    .dwattr $C$DW$105, DW_AT_type(*$C$DW$T$16)
    1754                    .dwattr $C$DW$105, DW_AT_location[DW_OP_reg12 DW_OP_piece 2 DW_OP_reg13 DW_OP_piece 2]
    1755            
    1756            
    1757            ;*****************************************************************************
    1758            ;* FUNCTION NAME: __isinff                                                   *
    1759            ;*                                                                           *
    1760            ;*   Regs Modified     : SP,SR,r12,r13,r14,r15                               *
    1761            ;*   Regs Used         : SP,SR,r12,r13,r14,r15                               *
    1762            ;*   Local Frame Size  : 0 Args + 0 Auto + 0 Save = 0 byte                   *
    1763            ;*****************************************************************************
    1764 000000       __isinff:
    1765            ;* --------------------------------------------------------------------------*
    1766                    .dwcfi  cfa_offset, 4
    1767                    .dwcfi  save_reg_to_mem, 16, -4
    1768            ;* r15   assigned to $O$S1
    1769                    .dwpsn  file "C:/ti/ccs1110/ccs/tools/compiler/ti-cgt-msp430_21.6.1.LTS/include/_defs.h",line 
    1770 000000 430F          MOV.W     #0,r15                ; [] |375| 
    1771 000002 0DCE          MOVA      r13,r14               ; [] |375| 
    1772 000004 F03E          AND.W     #32640,r14            ; [] |375| 
         000006 7F80 
    1773 000008 903E          CMP.W     #32640,r14            ; [] |375| 
         00000a 7F80 
    1774 00000c 2008          JNE       $C$L18                ; [] |375| 
    1775                                                      ; [] |375| 
    1776            ;* --------------------------------------------------------------------------*
    1777 00000e F33C          AND.W     #65535,r12            ; [] |375| 
    1778 000010 F03D          AND.W     #127,r13              ; [] |375| 
         000012 007F 
    1779 000014 930D          TST.W     r13                   ; [] |375| 
    1780 000016 2003          JNE       $C$L18                ; [] |375| 
    1781                                                      ; [] |375| 
    1782            ;* --------------------------------------------------------------------------*
    1783 000018 930C          TST.W     r12                   ; [] |375| 
    1784 00001a 2001          JNE       $C$L18                ; [] |375| 
MSP430 Assembler PC v21.6.1 Tue Dec 20 13:59:32 2022

Copyright (c) 2003-2018 Texas Instruments Incorporated
Momentary_Switch.asm                                                 PAGE   34

    1785                                                      ; [] |375| 
    1786            ;* --------------------------------------------------------------------------*
    1787 00001c 431F          MOV.W     #1,r15                ; [] |375| 
    1788            ;* --------------------------------------------------------------------------*
    1789 00001e       $C$L18:    
    1790 00001e 0FCC          MOVA      r15,r12               ; [] |375| 
    1791                    .dwpsn  file "C:/ti/ccs1110/ccs/tools/compiler/ti-cgt-msp430_21.6.1.LTS/include/_defs.h",line 
    1792            $C$DW$106       .dwtag  DW_TAG_TI_branch
    1793                    .dwattr $C$DW$106, DW_AT_low_pc(0x00)
    1794                    .dwattr $C$DW$106, DW_AT_TI_return
    1795            
    1796 000020 0110          RETA      ; [] 
    1797                    ; [] 
    1798                    .dwattr $C$DW$104, DW_AT_TI_end_file("C:/ti/ccs1110/ccs/tools/compiler/ti-cgt-msp430_21.6.1.LT
    1799                    .dwattr $C$DW$104, DW_AT_TI_end_line(0x177)
    1800                    .dwattr $C$DW$104, DW_AT_TI_end_column(0x48)
    1801                    .dwendentry
    1802                    .dwendtag $C$DW$104
    1803            
    1804 000000               .sect   ".text:__isinf"
    1805                    .clink
    1806                    .global __isinf
    1807            
    1808            $C$DW$107       .dwtag  DW_TAG_subprogram
    1809                    .dwattr $C$DW$107, DW_AT_name("__isinf")
    1810                    .dwattr $C$DW$107, DW_AT_low_pc(__isinf)
    1811                    .dwattr $C$DW$107, DW_AT_high_pc(0x00)
    1812                    .dwattr $C$DW$107, DW_AT_TI_symbol_name("__isinf")
    1813                    .dwattr $C$DW$107, DW_AT_external
    1814                    .dwattr $C$DW$107, DW_AT_type(*$C$DW$T$10)
    1815                    .dwattr $C$DW$107, DW_AT_TI_begin_file("C:/ti/ccs1110/ccs/tools/compiler/ti-cgt-msp430_21.6.1.
    1816                    .dwattr $C$DW$107, DW_AT_TI_begin_line(0x178)
    1817                    .dwattr $C$DW$107, DW_AT_TI_begin_column(0x25)
    1818                    .dwattr $C$DW$107, DW_AT_decl_file("C:/ti/ccs1110/ccs/tools/compiler/ti-cgt-msp430_21.6.1.LTS/
    1819                    .dwattr $C$DW$107, DW_AT_decl_line(0x178)
    1820                    .dwattr $C$DW$107, DW_AT_decl_column(0x25)
    1821                    .dwattr $C$DW$107, DW_AT_TI_max_frame_size(0x08)
    1822                    .dwpsn  file "C:/ti/ccs1110/ccs/tools/compiler/ti-cgt-msp430_21.6.1.LTS/include/_defs.h",line 
    1823            
    1824                    .dwfde $C$DW$CIE, __isinf
    1825            $C$DW$108       .dwtag  DW_TAG_formal_parameter
    1826                    .dwattr $C$DW$108, DW_AT_name("d")
    1827                    .dwattr $C$DW$108, DW_AT_TI_symbol_name("d")
    1828                    .dwattr $C$DW$108, DW_AT_type(*$C$DW$T$17)
    1829                    .dwattr $C$DW$108, DW_AT_location[DW_OP_reg12 DW_OP_piece 2 DW_OP_reg13 DW_OP_piece 2 DW_OP_re
    1830            
    1831            
    1832            ;*****************************************************************************
    1833            ;* FUNCTION NAME: __isinf                                                    *
    1834            ;*                                                                           *
    1835            ;*   Regs Modified     : SP,SR,r10,r11,r12,r13,r14,r15                       *
    1836            ;*   Regs Used         : SP,SR,r10,r11,r12,r13,r14,r15                       *
    1837            ;*   Local Frame Size  : 0 Args + 0 Auto + 4 Save = 4 byte                   *
    1838            ;*****************************************************************************
    1839 000000       __isinf:
MSP430 Assembler PC v21.6.1 Tue Dec 20 13:59:32 2022

Copyright (c) 2003-2018 Texas Instruments Incorporated
Momentary_Switch.asm                                                 PAGE   35

    1840            ;* --------------------------------------------------------------------------*
    1841                    .dwcfi  cfa_offset, 4
    1842                    .dwcfi  save_reg_to_mem, 16, -4
    1843 000000 140A          PUSHM.A   #1,r10                ; [] 
    1844                    .dwcfi  save_reg_to_mem, 10, -8
    1845                    .dwcfi  cfa_offset, 8
    1846            ;* r11   assigned to $O$S1
    1847                    .dwpsn  file "C:/ti/ccs1110/ccs/tools/compiler/ti-cgt-msp430_21.6.1.LTS/include/_defs.h",line 
    1848 000002 430B          MOV.W     #0,r11                ; [] |377| 
    1849 000004 0FCA          MOVA      r15,r10               ; [] |377| 
    1850 000006 F03A          AND.W     #32752,r10            ; [] |377| 
         000008 7FF0 
    1851 00000a 903A          CMP.W     #32752,r10            ; [] |377| 
         00000c 7FF0 
    1852 00000e 200E          JNE       $C$L19                ; [] |377| 
    1853                                                      ; [] |377| 
    1854            ;* --------------------------------------------------------------------------*
    1855 000010 F33C          AND.W     #65535,r12            ; [] |377| 
    1856 000012 F33D          AND.W     #65535,r13            ; [] |377| 
    1857 000014 F33E          AND.W     #65535,r14            ; [] |377| 
    1858 000016 F03F          AND.W     #15,r15               ; [] |377| 
         000018 000F 
    1859 00001a 930F          TST.W     r15                   ; [] |377| 
    1860 00001c 2007          JNE       $C$L19                ; [] |377| 
    1861                                                      ; [] |377| 
    1862            ;* --------------------------------------------------------------------------*
    1863 00001e 930E          TST.W     r14                   ; [] |377| 
    1864 000020 2005          JNE       $C$L19                ; [] |377| 
    1865                                                      ; [] |377| 
    1866            ;* --------------------------------------------------------------------------*
    1867 000022 930D          TST.W     r13                   ; [] |377| 
    1868 000024 2003          JNE       $C$L19                ; [] |377| 
    1869                                                      ; [] |377| 
    1870            ;* --------------------------------------------------------------------------*
    1871 000026 930C          TST.W     r12                   ; [] |377| 
    1872 000028 2001          JNE       $C$L19                ; [] |377| 
    1873                                                      ; [] |377| 
    1874            ;* --------------------------------------------------------------------------*
    1875 00002a 431B          MOV.W     #1,r11                ; [] |377| 
    1876            ;* --------------------------------------------------------------------------*
    1877 00002c       $C$L19:    
    1878 00002c 0BCC          MOVA      r11,r12               ; [] |377| 
    1879                    .dwpsn  file "C:/ti/ccs1110/ccs/tools/compiler/ti-cgt-msp430_21.6.1.LTS/include/_defs.h",line 
    1880 00002e 160A          POPM.A    #1,r10                ; [] 
    1881                    .dwcfi  restore_reg, 10
    1882                    .dwcfi  cfa_offset, 4
    1883            $C$DW$109       .dwtag  DW_TAG_TI_branch
    1884                    .dwattr $C$DW$109, DW_AT_low_pc(0x00)
    1885                    .dwattr $C$DW$109, DW_AT_TI_return
    1886            
    1887 000030 0110          RETA      ; [] 
    1888                    ; [] 
    1889                    .dwattr $C$DW$107, DW_AT_TI_end_file("C:/ti/ccs1110/ccs/tools/compiler/ti-cgt-msp430_21.6.1.LT
    1890                    .dwattr $C$DW$107, DW_AT_TI_end_line(0x179)
    1891                    .dwattr $C$DW$107, DW_AT_TI_end_column(0x4a)
MSP430 Assembler PC v21.6.1 Tue Dec 20 13:59:32 2022

Copyright (c) 2003-2018 Texas Instruments Incorporated
Momentary_Switch.asm                                                 PAGE   36

    1892                    .dwendentry
    1893                    .dwendtag $C$DW$107
    1894            
    1895 000000               .sect   ".text:__isfinitel"
    1896                    .clink
    1897                    .global __isfinitel
    1898            
    1899            $C$DW$110       .dwtag  DW_TAG_subprogram
    1900                    .dwattr $C$DW$110, DW_AT_name("__isfinitel")
    1901                    .dwattr $C$DW$110, DW_AT_low_pc(__isfinitel)
    1902                    .dwattr $C$DW$110, DW_AT_high_pc(0x00)
    1903                    .dwattr $C$DW$110, DW_AT_TI_symbol_name("__isfinitel")
    1904                    .dwattr $C$DW$110, DW_AT_external
    1905                    .dwattr $C$DW$110, DW_AT_type(*$C$DW$T$10)
    1906                    .dwattr $C$DW$110, DW_AT_TI_begin_file("C:/ti/ccs1110/ccs/tools/compiler/ti-cgt-msp430_21.6.1.
    1907                    .dwattr $C$DW$110, DW_AT_TI_begin_line(0x152)
    1908                    .dwattr $C$DW$110, DW_AT_TI_begin_column(0x25)
    1909                    .dwattr $C$DW$110, DW_AT_decl_file("C:/ti/ccs1110/ccs/tools/compiler/ti-cgt-msp430_21.6.1.LTS/
    1910                    .dwattr $C$DW$110, DW_AT_decl_line(0x152)
    1911                    .dwattr $C$DW$110, DW_AT_decl_column(0x25)
    1912                    .dwattr $C$DW$110, DW_AT_TI_max_frame_size(0x04)
    1913                    .dwpsn  file "C:/ti/ccs1110/ccs/tools/compiler/ti-cgt-msp430_21.6.1.LTS/include/_defs.h",line 
    1914            
    1915                    .dwfde $C$DW$CIE, __isfinitel
    1916            $C$DW$111       .dwtag  DW_TAG_formal_parameter
    1917                    .dwattr $C$DW$111, DW_AT_name("e")
    1918                    .dwattr $C$DW$111, DW_AT_TI_symbol_name("e")
    1919                    .dwattr $C$DW$111, DW_AT_type(*$C$DW$T$18)
    1920                    .dwattr $C$DW$111, DW_AT_location[DW_OP_reg12 DW_OP_piece 2 DW_OP_reg13 DW_OP_piece 2 DW_OP_re
    1921            
    1922            
    1923            ;*****************************************************************************
    1924            ;* FUNCTION NAME: __isfinitel                                                *
    1925            ;*                                                                           *
    1926            ;*   Regs Modified     : SP,SR,r12,r15                                       *
    1927            ;*   Regs Used         : SP,SR,r12,r15                                       *
    1928            ;*   Local Frame Size  : 0 Args + 0 Auto + 0 Save = 0 byte                   *
    1929            ;*****************************************************************************
    1930 000000       __isfinitel:
    1931            ;* --------------------------------------------------------------------------*
    1932                    .dwcfi  cfa_offset, 4
    1933                    .dwcfi  save_reg_to_mem, 16, -4
    1934                    .dwpsn  file "C:/ti/ccs1110/ccs/tools/compiler/ti-cgt-msp430_21.6.1.LTS/include/_defs.h",line 
    1935 000000 430C          MOV.W     #0,r12                ; [] |339| 
    1936 000002 F03F          AND.W     #32752,r15            ; [] |339| 
         000004 7FF0 
    1937 000006 903F          CMP.W     #32752,r15            ; [] |339| 
         000008 7FF0 
    1938 00000a 2401          JEQ       $C$L20                ; [] |339| 
    1939                                                      ; [] |339| 
    1940            ;* --------------------------------------------------------------------------*
    1941 00000c 431C          MOV.W     #1,r12                ; [] |339| 
    1942            ;* --------------------------------------------------------------------------*
    1943 00000e       $C$L20:    
    1944                    .dwpsn  file "C:/ti/ccs1110/ccs/tools/compiler/ti-cgt-msp430_21.6.1.LTS/include/_defs.h",line 
MSP430 Assembler PC v21.6.1 Tue Dec 20 13:59:32 2022

Copyright (c) 2003-2018 Texas Instruments Incorporated
Momentary_Switch.asm                                                 PAGE   37

    1945            $C$DW$112       .dwtag  DW_TAG_TI_branch
    1946                    .dwattr $C$DW$112, DW_AT_low_pc(0x00)
    1947                    .dwattr $C$DW$112, DW_AT_TI_return
    1948            
    1949 00000e 0110          RETA      ; [] 
    1950                    ; [] 
    1951                    .dwattr $C$DW$110, DW_AT_TI_end_file("C:/ti/ccs1110/ccs/tools/compiler/ti-cgt-msp430_21.6.1.LT
    1952                    .dwattr $C$DW$110, DW_AT_TI_end_line(0x153)
    1953                    .dwattr $C$DW$110, DW_AT_TI_end_column(0x2f)
    1954                    .dwendentry
    1955                    .dwendtag $C$DW$110
    1956            
    1957 000000               .sect   ".text:__isfinitef"
    1958                    .clink
    1959                    .global __isfinitef
    1960            
    1961            $C$DW$113       .dwtag  DW_TAG_subprogram
    1962                    .dwattr $C$DW$113, DW_AT_name("__isfinitef")
    1963                    .dwattr $C$DW$113, DW_AT_low_pc(__isfinitef)
    1964                    .dwattr $C$DW$113, DW_AT_high_pc(0x00)
    1965                    .dwattr $C$DW$113, DW_AT_TI_symbol_name("__isfinitef")
    1966                    .dwattr $C$DW$113, DW_AT_external
    1967                    .dwattr $C$DW$113, DW_AT_type(*$C$DW$T$10)
    1968                    .dwattr $C$DW$113, DW_AT_TI_begin_file("C:/ti/ccs1110/ccs/tools/compiler/ti-cgt-msp430_21.6.1.
    1969                    .dwattr $C$DW$113, DW_AT_TI_begin_line(0x150)
    1970                    .dwattr $C$DW$113, DW_AT_TI_begin_column(0x25)
    1971                    .dwattr $C$DW$113, DW_AT_decl_file("C:/ti/ccs1110/ccs/tools/compiler/ti-cgt-msp430_21.6.1.LTS/
    1972                    .dwattr $C$DW$113, DW_AT_decl_line(0x150)
    1973                    .dwattr $C$DW$113, DW_AT_decl_column(0x25)
    1974                    .dwattr $C$DW$113, DW_AT_TI_max_frame_size(0x04)
    1975                    .dwpsn  file "C:/ti/ccs1110/ccs/tools/compiler/ti-cgt-msp430_21.6.1.LTS/include/_defs.h",line 
    1976            
    1977                    .dwfde $C$DW$CIE, __isfinitef
    1978            $C$DW$114       .dwtag  DW_TAG_formal_parameter
    1979                    .dwattr $C$DW$114, DW_AT_name("f")
    1980                    .dwattr $C$DW$114, DW_AT_TI_symbol_name("f")
    1981                    .dwattr $C$DW$114, DW_AT_type(*$C$DW$T$16)
    1982                    .dwattr $C$DW$114, DW_AT_location[DW_OP_reg12 DW_OP_piece 2 DW_OP_reg13 DW_OP_piece 2]
    1983            
    1984            
    1985            ;*****************************************************************************
    1986            ;* FUNCTION NAME: __isfinitef                                                *
    1987            ;*                                                                           *
    1988            ;*   Regs Modified     : SP,SR,r12,r13                                       *
    1989            ;*   Regs Used         : SP,SR,r12,r13                                       *
    1990            ;*   Local Frame Size  : 0 Args + 0 Auto + 0 Save = 0 byte                   *
    1991            ;*****************************************************************************
    1992 000000       __isfinitef:
    1993            ;* --------------------------------------------------------------------------*
    1994                    .dwcfi  cfa_offset, 4
    1995                    .dwcfi  save_reg_to_mem, 16, -4
    1996                    .dwpsn  file "C:/ti/ccs1110/ccs/tools/compiler/ti-cgt-msp430_21.6.1.LTS/include/_defs.h",line 
    1997 000000 430C          MOV.W     #0,r12                ; [] |337| 
    1998 000002 F03D          AND.W     #32640,r13            ; [] |337| 
         000004 7F80 
MSP430 Assembler PC v21.6.1 Tue Dec 20 13:59:32 2022

Copyright (c) 2003-2018 Texas Instruments Incorporated
Momentary_Switch.asm                                                 PAGE   38

    1999 000006 903D          CMP.W     #32640,r13            ; [] |337| 
         000008 7F80 
    2000 00000a 2401          JEQ       $C$L21                ; [] |337| 
    2001                                                      ; [] |337| 
    2002            ;* --------------------------------------------------------------------------*
    2003 00000c 431C          MOV.W     #1,r12                ; [] |337| 
    2004            ;* --------------------------------------------------------------------------*
    2005 00000e       $C$L21:    
    2006                    .dwpsn  file "C:/ti/ccs1110/ccs/tools/compiler/ti-cgt-msp430_21.6.1.LTS/include/_defs.h",line 
    2007            $C$DW$115       .dwtag  DW_TAG_TI_branch
    2008                    .dwattr $C$DW$115, DW_AT_low_pc(0x00)
    2009                    .dwattr $C$DW$115, DW_AT_TI_return
    2010            
    2011 00000e 0110          RETA      ; [] 
    2012                    ; [] 
    2013                    .dwattr $C$DW$113, DW_AT_TI_end_file("C:/ti/ccs1110/ccs/tools/compiler/ti-cgt-msp430_21.6.1.LT
    2014                    .dwattr $C$DW$113, DW_AT_TI_end_line(0x151)
    2015                    .dwattr $C$DW$113, DW_AT_TI_end_column(0x2d)
    2016                    .dwendentry
    2017                    .dwendtag $C$DW$113
    2018            
    2019 000000               .sect   ".text:__isfinite"
    2020                    .clink
    2021                    .global __isfinite
    2022            
    2023            $C$DW$116       .dwtag  DW_TAG_subprogram
    2024                    .dwattr $C$DW$116, DW_AT_name("__isfinite")
    2025                    .dwattr $C$DW$116, DW_AT_low_pc(__isfinite)
    2026                    .dwattr $C$DW$116, DW_AT_high_pc(0x00)
    2027                    .dwattr $C$DW$116, DW_AT_TI_symbol_name("__isfinite")
    2028                    .dwattr $C$DW$116, DW_AT_external
    2029                    .dwattr $C$DW$116, DW_AT_type(*$C$DW$T$10)
    2030                    .dwattr $C$DW$116, DW_AT_TI_begin_file("C:/ti/ccs1110/ccs/tools/compiler/ti-cgt-msp430_21.6.1.
    2031                    .dwattr $C$DW$116, DW_AT_TI_begin_line(0x14e)
    2032                    .dwattr $C$DW$116, DW_AT_TI_begin_column(0x25)
    2033                    .dwattr $C$DW$116, DW_AT_decl_file("C:/ti/ccs1110/ccs/tools/compiler/ti-cgt-msp430_21.6.1.LTS/
    2034                    .dwattr $C$DW$116, DW_AT_decl_line(0x14e)
    2035                    .dwattr $C$DW$116, DW_AT_decl_column(0x25)
    2036                    .dwattr $C$DW$116, DW_AT_TI_max_frame_size(0x04)
    2037                    .dwpsn  file "C:/ti/ccs1110/ccs/tools/compiler/ti-cgt-msp430_21.6.1.LTS/include/_defs.h",line 
    2038            
    2039                    .dwfde $C$DW$CIE, __isfinite
    2040            $C$DW$117       .dwtag  DW_TAG_formal_parameter
    2041                    .dwattr $C$DW$117, DW_AT_name("d")
    2042                    .dwattr $C$DW$117, DW_AT_TI_symbol_name("d")
    2043                    .dwattr $C$DW$117, DW_AT_type(*$C$DW$T$17)
    2044                    .dwattr $C$DW$117, DW_AT_location[DW_OP_reg12 DW_OP_piece 2 DW_OP_reg13 DW_OP_piece 2 DW_OP_re
    2045            
    2046            
    2047            ;*****************************************************************************
    2048            ;* FUNCTION NAME: __isfinite                                                 *
    2049            ;*                                                                           *
    2050            ;*   Regs Modified     : SP,SR,r12,r15                                       *
    2051            ;*   Regs Used         : SP,SR,r12,r15                                       *
    2052            ;*   Local Frame Size  : 0 Args + 0 Auto + 0 Save = 0 byte                   *
MSP430 Assembler PC v21.6.1 Tue Dec 20 13:59:32 2022

Copyright (c) 2003-2018 Texas Instruments Incorporated
Momentary_Switch.asm                                                 PAGE   39

    2053            ;*****************************************************************************
    2054 000000       __isfinite:
    2055            ;* --------------------------------------------------------------------------*
    2056                    .dwcfi  cfa_offset, 4
    2057                    .dwcfi  save_reg_to_mem, 16, -4
    2058                    .dwpsn  file "C:/ti/ccs1110/ccs/tools/compiler/ti-cgt-msp430_21.6.1.LTS/include/_defs.h",line 
    2059 000000 430C          MOV.W     #0,r12                ; [] |335| 
    2060 000002 F03F          AND.W     #32752,r15            ; [] |335| 
         000004 7FF0 
    2061 000006 903F          CMP.W     #32752,r15            ; [] |335| 
         000008 7FF0 
    2062 00000a 2401          JEQ       $C$L22                ; [] |335| 
    2063                                                      ; [] |335| 
    2064            ;* --------------------------------------------------------------------------*
    2065 00000c 431C          MOV.W     #1,r12                ; [] |335| 
    2066            ;* --------------------------------------------------------------------------*
    2067 00000e       $C$L22:    
    2068                    .dwpsn  file "C:/ti/ccs1110/ccs/tools/compiler/ti-cgt-msp430_21.6.1.LTS/include/_defs.h",line 
    2069            $C$DW$118       .dwtag  DW_TAG_TI_branch
    2070                    .dwattr $C$DW$118, DW_AT_low_pc(0x00)
    2071                    .dwattr $C$DW$118, DW_AT_TI_return
    2072            
    2073 00000e 0110          RETA      ; [] 
    2074                    ; [] 
    2075                    .dwattr $C$DW$116, DW_AT_TI_end_file("C:/ti/ccs1110/ccs/tools/compiler/ti-cgt-msp430_21.6.1.LT
    2076                    .dwattr $C$DW$116, DW_AT_TI_end_line(0x14f)
    2077                    .dwattr $C$DW$116, DW_AT_TI_end_column(0x2e)
    2078                    .dwendentry
    2079                    .dwendtag $C$DW$116
    2080            
    2081 000000               .sect   ".text:__fpclassifyl"
    2082                    .clink
    2083                    .global __fpclassifyl
    2084            
    2085            $C$DW$119       .dwtag  DW_TAG_subprogram
    2086                    .dwattr $C$DW$119, DW_AT_name("__fpclassifyl")
    2087                    .dwattr $C$DW$119, DW_AT_low_pc(__fpclassifyl)
    2088                    .dwattr $C$DW$119, DW_AT_high_pc(0x00)
    2089                    .dwattr $C$DW$119, DW_AT_TI_symbol_name("__fpclassifyl")
    2090                    .dwattr $C$DW$119, DW_AT_external
    2091                    .dwattr $C$DW$119, DW_AT_type(*$C$DW$T$10)
    2092                    .dwattr $C$DW$119, DW_AT_TI_begin_file("C:/ti/ccs1110/ccs/tools/compiler/ti-cgt-msp430_21.6.1.
    2093                    .dwattr $C$DW$119, DW_AT_TI_begin_line(0x1ae)
    2094                    .dwattr $C$DW$119, DW_AT_TI_begin_column(0x25)
    2095                    .dwattr $C$DW$119, DW_AT_decl_file("C:/ti/ccs1110/ccs/tools/compiler/ti-cgt-msp430_21.6.1.LTS/
    2096                    .dwattr $C$DW$119, DW_AT_decl_line(0x1ae)
    2097                    .dwattr $C$DW$119, DW_AT_decl_column(0x25)
    2098                    .dwattr $C$DW$119, DW_AT_TI_max_frame_size(0x20)
    2099                    .dwpsn  file "C:/ti/ccs1110/ccs/tools/compiler/ti-cgt-msp430_21.6.1.LTS/include/_defs.h",line 
    2100            
    2101                    .dwfde $C$DW$CIE, __fpclassifyl
    2102            $C$DW$120       .dwtag  DW_TAG_formal_parameter
    2103                    .dwattr $C$DW$120, DW_AT_name("e")
    2104                    .dwattr $C$DW$120, DW_AT_TI_symbol_name("e")
    2105                    .dwattr $C$DW$120, DW_AT_type(*$C$DW$T$18)
MSP430 Assembler PC v21.6.1 Tue Dec 20 13:59:32 2022

Copyright (c) 2003-2018 Texas Instruments Incorporated
Momentary_Switch.asm                                                 PAGE   40

    2106                    .dwattr $C$DW$120, DW_AT_location[DW_OP_reg12 DW_OP_piece 2 DW_OP_reg13 DW_OP_piece 2 DW_OP_re
    2107            
    2108            
    2109            ;*****************************************************************************
    2110            ;* FUNCTION NAME: __fpclassifyl                                              *
    2111            ;*                                                                           *
    2112            ;*   Regs Modified     : SP,SR,r4,r5,r6,r7,r8,r9,r10,r11,r12,r13,r14,r15     *
    2113            ;*   Regs Used         : SP,SR,r4,r5,r6,r7,r8,r9,r10,r11,r12,r13,r14,r15     *
    2114            ;*   Local Frame Size  : 0 Args + 0 Auto + 28 Save = 28 byte                 *
    2115            ;*****************************************************************************
    2116 000000       __fpclassifyl:
    2117            ;* --------------------------------------------------------------------------*
    2118                    .dwcfi  cfa_offset, 4
    2119                    .dwcfi  save_reg_to_mem, 16, -4
    2120 000000 146A          PUSHM.A   #7,r10                ; [] 
    2121                    .dwcfi  save_reg_to_mem, 10, -8
    2122                    .dwcfi  save_reg_to_mem, 9, -12
    2123                    .dwcfi  save_reg_to_mem, 8, -16
    2124                    .dwcfi  save_reg_to_mem, 7, -20
    2125                    .dwcfi  save_reg_to_mem, 6, -24
    2126                    .dwcfi  save_reg_to_mem, 5, -28
    2127                    .dwcfi  save_reg_to_mem, 4, -32
    2128                    .dwcfi  cfa_offset, 32
    2129            ;* r4    assigned to e
    2130            $C$DW$121       .dwtag  DW_TAG_variable
    2131                    .dwattr $C$DW$121, DW_AT_name("e")
    2132                    .dwattr $C$DW$121, DW_AT_TI_symbol_name("e")
    2133                    .dwattr $C$DW$121, DW_AT_type(*$C$DW$T$18)
    2134                    .dwattr $C$DW$121, DW_AT_location[DW_OP_reg4 DW_OP_piece 2 DW_OP_reg5 DW_OP_piece 2 DW_OP_reg6
    2135            
    2136 000002 0CC4          MOVA      r12,r4                ; [] |431| 
    2137 000004 0DC5          MOVA      r13,r5                ; [] |431| 
    2138 000006 0EC6          MOVA      r14,r6                ; [] |431| 
    2139 000008 0FC7          MOVA      r15,r7                ; [] |431| 
    2140                    .dwpsn  file "C:/ti/ccs1110/ccs/tools/compiler/ti-cgt-msp430_21.6.1.LTS/include/_defs.h",line 
    2141 00000a F03F          AND.W     #32752,r15            ; [] |436| 
         00000c 7FF0 
    2142 00000e 903F          CMP.W     #32752,r15            ; [] |436| 
         000010 7FF0 
    2143 000012 2011          JNE       $C$L25                ; [] |436| 
    2144                                                      ; [] |436| 
    2145            ;* --------------------------------------------------------------------------*
    2146 000014 F334          AND.W     #65535,r4             ; [] |436| 
    2147 000016 F335          AND.W     #65535,r5             ; [] |436| 
    2148 000018 F336          AND.W     #65535,r6             ; [] |436| 
    2149 00001a F037          AND.W     #15,r7                ; [] |436| 
         00001c 000F 
    2150 00001e 9307          TST.W     r7                    ; [] |436| 
    2151 000020 2006          JNE       $C$L23                ; [] |436| 
    2152                                                      ; [] |436| 
    2153            ;* --------------------------------------------------------------------------*
    2154 000022 9306          TST.W     r6                    ; [] |436| 
    2155 000024 2004          JNE       $C$L23                ; [] |436| 
    2156                                                      ; [] |436| 
    2157            ;* --------------------------------------------------------------------------*
MSP430 Assembler PC v21.6.1 Tue Dec 20 13:59:32 2022

Copyright (c) 2003-2018 Texas Instruments Incorporated
Momentary_Switch.asm                                                 PAGE   41

    2158 000026 9305          TST.W     r5                    ; [] |436| 
    2159 000028 2002          JNE       $C$L23                ; [] |436| 
    2160                                                      ; [] |436| 
    2161            ;* --------------------------------------------------------------------------*
    2162 00002a 9304          TST.W     r4                    ; [] |436| 
    2163 00002c 2402          JEQ       $C$L24                ; [] |436| 
    2164                                                      ; [] |436| 
    2165            ;* --------------------------------------------------------------------------*
    2166 00002e       $C$L23:    
    2167 00002e 432C          MOV.W     #2,r12                ; [] |436| 
    2168 000030 3C2A          JMP       $C$L30                ; [] |436| 
    2169                                                      ; [] |436| 
    2170            ;* --------------------------------------------------------------------------*
    2171 000032       $C$L24:    
    2172 000032 431C          MOV.W     #1,r12                ; [] |436| 
    2173 000034 3C28          JMP       $C$L30                ; [] |436| 
    2174                                                      ; [] |436| 
    2175            ;* --------------------------------------------------------------------------*
    2176 000036       $C$L25:    
    2177 000036 04C8          MOVA      r4,r8                 ; [] |436| 
    2178 000038 05C9          MOVA      r5,r9                 ; [] |436| 
    2179 00003a 06CA          MOVA      r6,r10                ; [] |436| 
    2180 00003c 07CB          MOVA      r7,r11                ; [] |436| 
    2181 00003e 403C          MOV.W     #52,r12               ; [] |436| 
         000040 0034 
    2182            $C$DW$122       .dwtag  DW_TAG_TI_branch
    2183                    .dwattr $C$DW$122, DW_AT_low_pc(0x00)
    2184                    .dwattr $C$DW$122, DW_AT_name("__mspabi_srlll")
    2185                    .dwattr $C$DW$122, DW_AT_TI_call
    2186            
    2187 000042 13B0!         CALLA     #__mspabi_srlll       ; [] |436| 
         000044 0000 
    2188                                                      ; [] |436| 
    2189 000046 F03C          AND.W     #2047,r12             ; [] |436| 
         000048 07FF 
    2190 00004a F30D          AND.W     #0,r13                ; [] |436| 
    2191 00004c F30E          AND.W     #0,r14                ; [] |436| 
    2192 00004e F30F          AND.W     #0,r15                ; [] |436| 
    2193 000050 930F          TST.W     r15                   ; [] |436| 
    2194 000052 2006          JNE       $C$L26                ; [] |436| 
    2195                                                      ; [] |436| 
    2196            ;* --------------------------------------------------------------------------*
    2197 000054 930E          TST.W     r14                   ; [] |436| 
    2198 000056 2004          JNE       $C$L26                ; [] |436| 
    2199                                                      ; [] |436| 
    2200            ;* --------------------------------------------------------------------------*
    2201 000058 930D          TST.W     r13                   ; [] |436| 
    2202 00005a 2002          JNE       $C$L26                ; [] |436| 
    2203                                                      ; [] |436| 
    2204            ;* --------------------------------------------------------------------------*
    2205 00005c 930C          TST.W     r12                   ; [] |436| 
    2206 00005e 2402          JEQ       $C$L27                ; [] |436| 
    2207                                                      ; [] |436| 
    2208            ;* --------------------------------------------------------------------------*
    2209 000060       $C$L26:    
MSP430 Assembler PC v21.6.1 Tue Dec 20 13:59:32 2022

Copyright (c) 2003-2018 Texas Instruments Incorporated
Momentary_Switch.asm                                                 PAGE   42

    2210 000060 433C          MOV.W     #-1,r12               ; [] |436| 
    2211 000062 3C11          JMP       $C$L30                ; [] |436| 
    2212                                                      ; [] |436| 
    2213            ;* --------------------------------------------------------------------------*
    2214 000064       $C$L27:    
    2215 000064 F334          AND.W     #65535,r4             ; [] |436| 
    2216 000066 F335          AND.W     #65535,r5             ; [] |436| 
    2217 000068 F336          AND.W     #65535,r6             ; [] |436| 
    2218 00006a F037          AND.W     #15,r7                ; [] |436| 
         00006c 000F 
    2219 00006e 9307          TST.W     r7                    ; [] |436| 
    2220 000070 2006          JNE       $C$L28                ; [] |436| 
    2221                                                      ; [] |436| 
    2222            ;* --------------------------------------------------------------------------*
    2223 000072 9306          TST.W     r6                    ; [] |436| 
    2224 000074 2004          JNE       $C$L28                ; [] |436| 
    2225                                                      ; [] |436| 
    2226            ;* --------------------------------------------------------------------------*
    2227 000076 9305          TST.W     r5                    ; [] |436| 
    2228 000078 2002          JNE       $C$L28                ; [] |436| 
    2229                                                      ; [] |436| 
    2230            ;* --------------------------------------------------------------------------*
    2231 00007a 9304          TST.W     r4                    ; [] |436| 
    2232 00007c 2403          JEQ       $C$L29                ; [] |436| 
    2233                                                      ; [] |436| 
    2234            ;* --------------------------------------------------------------------------*
    2235 00007e       $C$L28:    
    2236 00007e 403C          MOV.W     #65534,r12            ; [] |436| 
         000080 FFFE 
    2237 000082 3C01          JMP       $C$L30                ; [] |436| 
    2238                                                      ; [] |436| 
    2239            ;* --------------------------------------------------------------------------*
    2240 000084       $C$L29:    
    2241 000084 430C          MOV.W     #0,r12                ; [] |436| 
    2242            ;* --------------------------------------------------------------------------*
    2243 000086       $C$L30:    
    2244                    .dwpsn  file "C:/ti/ccs1110/ccs/tools/compiler/ti-cgt-msp430_21.6.1.LTS/include/_defs.h",line 
    2245 000086 1664          POPM.A    #7,r10                ; [] 
    2246                    .dwcfi  restore_reg, 4
    2247                    .dwcfi  restore_reg, 5
    2248                    .dwcfi  restore_reg, 6
    2249                    .dwcfi  restore_reg, 7
    2250                    .dwcfi  restore_reg, 8
    2251                    .dwcfi  restore_reg, 9
    2252                    .dwcfi  restore_reg, 10
    2253                    .dwcfi  cfa_offset, 4
    2254            $C$DW$123       .dwtag  DW_TAG_TI_branch
    2255                    .dwattr $C$DW$123, DW_AT_low_pc(0x00)
    2256                    .dwattr $C$DW$123, DW_AT_TI_return
    2257            
    2258 000088 0110          RETA      ; [] 
    2259                    ; [] 
    2260                    .dwattr $C$DW$119, DW_AT_TI_end_file("C:/ti/ccs1110/ccs/tools/compiler/ti-cgt-msp430_21.6.1.LT
    2261                    .dwattr $C$DW$119, DW_AT_TI_end_line(0x1bd)
    2262                    .dwattr $C$DW$119, DW_AT_TI_end_column(0x01)
MSP430 Assembler PC v21.6.1 Tue Dec 20 13:59:32 2022

Copyright (c) 2003-2018 Texas Instruments Incorporated
Momentary_Switch.asm                                                 PAGE   43

    2263                    .dwendentry
    2264                    .dwendtag $C$DW$119
    2265            
    2266 000000               .sect   ".text:__fpclassifyf"
    2267                    .clink
    2268                    .global __fpclassifyf
    2269            
    2270            $C$DW$124       .dwtag  DW_TAG_subprogram
    2271                    .dwattr $C$DW$124, DW_AT_name("__fpclassifyf")
    2272                    .dwattr $C$DW$124, DW_AT_low_pc(__fpclassifyf)
    2273                    .dwattr $C$DW$124, DW_AT_high_pc(0x00)
    2274                    .dwattr $C$DW$124, DW_AT_TI_symbol_name("__fpclassifyf")
    2275                    .dwattr $C$DW$124, DW_AT_external
    2276                    .dwattr $C$DW$124, DW_AT_type(*$C$DW$T$10)
    2277                    .dwattr $C$DW$124, DW_AT_TI_begin_file("C:/ti/ccs1110/ccs/tools/compiler/ti-cgt-msp430_21.6.1.
    2278                    .dwattr $C$DW$124, DW_AT_TI_begin_line(0x18c)
    2279                    .dwattr $C$DW$124, DW_AT_TI_begin_column(0x25)
    2280                    .dwattr $C$DW$124, DW_AT_decl_file("C:/ti/ccs1110/ccs/tools/compiler/ti-cgt-msp430_21.6.1.LTS/
    2281                    .dwattr $C$DW$124, DW_AT_decl_line(0x18c)
    2282                    .dwattr $C$DW$124, DW_AT_decl_column(0x25)
    2283                    .dwattr $C$DW$124, DW_AT_TI_max_frame_size(0x04)
    2284                    .dwpsn  file "C:/ti/ccs1110/ccs/tools/compiler/ti-cgt-msp430_21.6.1.LTS/include/_defs.h",line 
    2285            
    2286                    .dwfde $C$DW$CIE, __fpclassifyf
    2287            $C$DW$125       .dwtag  DW_TAG_formal_parameter
    2288                    .dwattr $C$DW$125, DW_AT_name("f")
    2289                    .dwattr $C$DW$125, DW_AT_TI_symbol_name("f")
    2290                    .dwattr $C$DW$125, DW_AT_type(*$C$DW$T$16)
    2291                    .dwattr $C$DW$125, DW_AT_location[DW_OP_reg12 DW_OP_piece 2 DW_OP_reg13 DW_OP_piece 2]
    2292            
    2293            
    2294            ;*****************************************************************************
    2295            ;* FUNCTION NAME: __fpclassifyf                                              *
    2296            ;*                                                                           *
    2297            ;*   Regs Modified     : SP,SR,r12,r13,r15                                   *
    2298            ;*   Regs Used         : SP,SR,r12,r13,r15                                   *
    2299            ;*   Local Frame Size  : 0 Args + 0 Auto + 0 Save = 0 byte                   *
    2300            ;*****************************************************************************
    2301 000000       __fpclassifyf:
    2302            ;* --------------------------------------------------------------------------*
    2303                    .dwcfi  cfa_offset, 4
    2304                    .dwcfi  save_reg_to_mem, 16, -4
    2305                    .dwpsn  file "C:/ti/ccs1110/ccs/tools/compiler/ti-cgt-msp430_21.6.1.LTS/include/_defs.h",line 
    2306 000000 0DCF          MOVA      r13,r15               ; [] |402| 
    2307 000002 F03F          AND.W     #32640,r15            ; [] |402| 
         000004 7F80 
    2308 000006 903F          CMP.W     #32640,r15            ; [] |402| 
         000008 7F80 
    2309 00000a 200B          JNE       $C$L33                ; [] |402| 
    2310                                                      ; [] |402| 
    2311            ;* --------------------------------------------------------------------------*
    2312 00000c F33C          AND.W     #65535,r12            ; [] |402| 
    2313 00000e F03D          AND.W     #127,r13              ; [] |402| 
         000010 007F 
    2314 000012 930D          TST.W     r13                   ; [] |402| 
MSP430 Assembler PC v21.6.1 Tue Dec 20 13:59:32 2022

Copyright (c) 2003-2018 Texas Instruments Incorporated
Momentary_Switch.asm                                                 PAGE   44

    2315 000014 2002          JNE       $C$L31                ; [] |402| 
    2316                                                      ; [] |402| 
    2317            ;* --------------------------------------------------------------------------*
    2318 000016 930C          TST.W     r12                   ; [] |402| 
    2319 000018 2402          JEQ       $C$L32                ; [] |402| 
    2320                                                      ; [] |402| 
    2321            ;* --------------------------------------------------------------------------*
    2322 00001a       $C$L31:    
    2323 00001a 432C          MOV.W     #2,r12                ; [] |402| 
    2324 00001c 3C15          JMP       $C$L37                ; [] |402| 
    2325                                                      ; [] |402| 
    2326            ;* --------------------------------------------------------------------------*
    2327 00001e       $C$L32:    
    2328 00001e 431C          MOV.W     #1,r12                ; [] |402| 
    2329 000020 3C13          JMP       $C$L37                ; [] |402| 
    2330                                                      ; [] |402| 
    2331            ;* --------------------------------------------------------------------------*
    2332 000022       $C$L33:    
    2333 000022 0DCF          MOVA      r13,r15               ; [] |402| 
    2334 000024 1946          RPT #7 || RRUX.W r15 ; [] |402| 
         000026 100F 
    2335 000028 B03F          BIT.W     #255,r15              ; [] |402| 
         00002a 00FF 
    2336 00002c 2402          JEQ       $C$L34                ; [] |402| 
    2337                                                      ; [] |402| 
    2338            ;* --------------------------------------------------------------------------*
    2339 00002e 433C          MOV.W     #-1,r12               ; [] |402| 
    2340 000030 3C0B          JMP       $C$L37                ; [] |402| 
    2341                                                      ; [] |402| 
    2342            ;* --------------------------------------------------------------------------*
    2343 000032       $C$L34:    
    2344 000032 F33C          AND.W     #65535,r12            ; [] |402| 
    2345 000034 F03D          AND.W     #127,r13              ; [] |402| 
         000036 007F 
    2346 000038 930D          TST.W     r13                   ; [] |402| 
    2347 00003a 2002          JNE       $C$L35                ; [] |402| 
    2348                                                      ; [] |402| 
    2349            ;* --------------------------------------------------------------------------*
    2350 00003c 930C          TST.W     r12                   ; [] |402| 
    2351 00003e 2403          JEQ       $C$L36                ; [] |402| 
    2352                                                      ; [] |402| 
    2353            ;* --------------------------------------------------------------------------*
    2354 000040       $C$L35:    
    2355 000040 403C          MOV.W     #65534,r12            ; [] |402| 
         000042 FFFE 
    2356 000044 3C01          JMP       $C$L37                ; [] |402| 
    2357                                                      ; [] |402| 
    2358            ;* --------------------------------------------------------------------------*
    2359 000046       $C$L36:    
    2360 000046 430C          MOV.W     #0,r12                ; [] |402| 
    2361            ;* --------------------------------------------------------------------------*
    2362 000048       $C$L37:    
    2363                    .dwpsn  file "C:/ti/ccs1110/ccs/tools/compiler/ti-cgt-msp430_21.6.1.LTS/include/_defs.h",line 
    2364            $C$DW$126       .dwtag  DW_TAG_TI_branch
    2365                    .dwattr $C$DW$126, DW_AT_low_pc(0x00)
MSP430 Assembler PC v21.6.1 Tue Dec 20 13:59:32 2022

Copyright (c) 2003-2018 Texas Instruments Incorporated
Momentary_Switch.asm                                                 PAGE   45

    2366                    .dwattr $C$DW$126, DW_AT_TI_return
    2367            
    2368 000048 0110          RETA      ; [] 
    2369                    ; [] 
    2370                    .dwattr $C$DW$124, DW_AT_TI_end_file("C:/ti/ccs1110/ccs/tools/compiler/ti-cgt-msp430_21.6.1.LT
    2371                    .dwattr $C$DW$124, DW_AT_TI_end_line(0x19b)
    2372                    .dwattr $C$DW$124, DW_AT_TI_end_column(0x01)
    2373                    .dwendentry
    2374                    .dwendtag $C$DW$124
    2375            
    2376 000000               .sect   ".text:__fpclassify"
    2377                    .clink
    2378                    .global __fpclassify
    2379            
    2380            $C$DW$127       .dwtag  DW_TAG_subprogram
    2381                    .dwattr $C$DW$127, DW_AT_name("__fpclassify")
    2382                    .dwattr $C$DW$127, DW_AT_low_pc(__fpclassify)
    2383                    .dwattr $C$DW$127, DW_AT_high_pc(0x00)
    2384                    .dwattr $C$DW$127, DW_AT_TI_symbol_name("__fpclassify")
    2385                    .dwattr $C$DW$127, DW_AT_external
    2386                    .dwattr $C$DW$127, DW_AT_type(*$C$DW$T$10)
    2387                    .dwattr $C$DW$127, DW_AT_TI_begin_file("C:/ti/ccs1110/ccs/tools/compiler/ti-cgt-msp430_21.6.1.
    2388                    .dwattr $C$DW$127, DW_AT_TI_begin_line(0x19d)
    2389                    .dwattr $C$DW$127, DW_AT_TI_begin_column(0x25)
    2390                    .dwattr $C$DW$127, DW_AT_decl_file("C:/ti/ccs1110/ccs/tools/compiler/ti-cgt-msp430_21.6.1.LTS/
    2391                    .dwattr $C$DW$127, DW_AT_decl_line(0x19d)
    2392                    .dwattr $C$DW$127, DW_AT_decl_column(0x25)
    2393                    .dwattr $C$DW$127, DW_AT_TI_max_frame_size(0x20)
    2394                    .dwpsn  file "C:/ti/ccs1110/ccs/tools/compiler/ti-cgt-msp430_21.6.1.LTS/include/_defs.h",line 
    2395            
    2396                    .dwfde $C$DW$CIE, __fpclassify
    2397            $C$DW$128       .dwtag  DW_TAG_formal_parameter
    2398                    .dwattr $C$DW$128, DW_AT_name("d")
    2399                    .dwattr $C$DW$128, DW_AT_TI_symbol_name("d")
    2400                    .dwattr $C$DW$128, DW_AT_type(*$C$DW$T$17)
    2401                    .dwattr $C$DW$128, DW_AT_location[DW_OP_reg12 DW_OP_piece 2 DW_OP_reg13 DW_OP_piece 2 DW_OP_re
    2402            
    2403            
    2404            ;*****************************************************************************
    2405            ;* FUNCTION NAME: __fpclassify                                               *
    2406            ;*                                                                           *
    2407            ;*   Regs Modified     : SP,SR,r4,r5,r6,r7,r8,r9,r10,r11,r12,r13,r14,r15     *
    2408            ;*   Regs Used         : SP,SR,r4,r5,r6,r7,r8,r9,r10,r11,r12,r13,r14,r15     *
    2409            ;*   Local Frame Size  : 0 Args + 0 Auto + 28 Save = 28 byte                 *
    2410            ;*****************************************************************************
    2411 000000       __fpclassify:
    2412            ;* --------------------------------------------------------------------------*
    2413                    .dwcfi  cfa_offset, 4
    2414                    .dwcfi  save_reg_to_mem, 16, -4
    2415 000000 146A          PUSHM.A   #7,r10                ; [] 
    2416                    .dwcfi  save_reg_to_mem, 10, -8
    2417                    .dwcfi  save_reg_to_mem, 9, -12
    2418                    .dwcfi  save_reg_to_mem, 8, -16
    2419                    .dwcfi  save_reg_to_mem, 7, -20
    2420                    .dwcfi  save_reg_to_mem, 6, -24
MSP430 Assembler PC v21.6.1 Tue Dec 20 13:59:32 2022

Copyright (c) 2003-2018 Texas Instruments Incorporated
Momentary_Switch.asm                                                 PAGE   46

    2421                    .dwcfi  save_reg_to_mem, 5, -28
    2422                    .dwcfi  save_reg_to_mem, 4, -32
    2423                    .dwcfi  cfa_offset, 32
    2424            ;* r4    assigned to d
    2425            $C$DW$129       .dwtag  DW_TAG_variable
    2426                    .dwattr $C$DW$129, DW_AT_name("d")
    2427                    .dwattr $C$DW$129, DW_AT_TI_symbol_name("d")
    2428                    .dwattr $C$DW$129, DW_AT_type(*$C$DW$T$17)
    2429                    .dwattr $C$DW$129, DW_AT_location[DW_OP_reg4 DW_OP_piece 2 DW_OP_reg5 DW_OP_piece 2 DW_OP_reg6
    2430            
    2431 000002 0CC4          MOVA      r12,r4                ; [] |414| 
    2432 000004 0DC5          MOVA      r13,r5                ; [] |414| 
    2433 000006 0EC6          MOVA      r14,r6                ; [] |414| 
    2434 000008 0FC7          MOVA      r15,r7                ; [] |414| 
    2435                    .dwpsn  file "C:/ti/ccs1110/ccs/tools/compiler/ti-cgt-msp430_21.6.1.LTS/include/_defs.h",line 
    2436 00000a F03F          AND.W     #32752,r15            ; [] |419| 
         00000c 7FF0 
    2437 00000e 903F          CMP.W     #32752,r15            ; [] |419| 
         000010 7FF0 
    2438 000012 2011          JNE       $C$L40                ; [] |419| 
    2439                                                      ; [] |419| 
    2440            ;* --------------------------------------------------------------------------*
    2441 000014 F334          AND.W     #65535,r4             ; [] |419| 
    2442 000016 F335          AND.W     #65535,r5             ; [] |419| 
    2443 000018 F336          AND.W     #65535,r6             ; [] |419| 
    2444 00001a F037          AND.W     #15,r7                ; [] |419| 
         00001c 000F 
    2445 00001e 9307          TST.W     r7                    ; [] |419| 
    2446 000020 2006          JNE       $C$L38                ; [] |419| 
    2447                                                      ; [] |419| 
    2448            ;* --------------------------------------------------------------------------*
    2449 000022 9306          TST.W     r6                    ; [] |419| 
    2450 000024 2004          JNE       $C$L38                ; [] |419| 
    2451                                                      ; [] |419| 
    2452            ;* --------------------------------------------------------------------------*
    2453 000026 9305          TST.W     r5                    ; [] |419| 
    2454 000028 2002          JNE       $C$L38                ; [] |419| 
    2455                                                      ; [] |419| 
    2456            ;* --------------------------------------------------------------------------*
    2457 00002a 9304          TST.W     r4                    ; [] |419| 
    2458 00002c 2402          JEQ       $C$L39                ; [] |419| 
    2459                                                      ; [] |419| 
    2460            ;* --------------------------------------------------------------------------*
    2461 00002e       $C$L38:    
    2462 00002e 432C          MOV.W     #2,r12                ; [] |419| 
    2463 000030 3C2A          JMP       $C$L45                ; [] |419| 
    2464                                                      ; [] |419| 
    2465            ;* --------------------------------------------------------------------------*
    2466 000032       $C$L39:    
    2467 000032 431C          MOV.W     #1,r12                ; [] |419| 
    2468 000034 3C28          JMP       $C$L45                ; [] |419| 
    2469                                                      ; [] |419| 
    2470            ;* --------------------------------------------------------------------------*
    2471 000036       $C$L40:    
    2472 000036 04C8          MOVA      r4,r8                 ; [] |419| 
MSP430 Assembler PC v21.6.1 Tue Dec 20 13:59:32 2022

Copyright (c) 2003-2018 Texas Instruments Incorporated
Momentary_Switch.asm                                                 PAGE   47

    2473 000038 05C9          MOVA      r5,r9                 ; [] |419| 
    2474 00003a 06CA          MOVA      r6,r10                ; [] |419| 
    2475 00003c 07CB          MOVA      r7,r11                ; [] |419| 
    2476 00003e 403C          MOV.W     #52,r12               ; [] |419| 
         000040 0034 
    2477            $C$DW$130       .dwtag  DW_TAG_TI_branch
    2478                    .dwattr $C$DW$130, DW_AT_low_pc(0x00)
    2479                    .dwattr $C$DW$130, DW_AT_name("__mspabi_srlll")
    2480                    .dwattr $C$DW$130, DW_AT_TI_call
    2481            
    2482 000042 13B0!         CALLA     #__mspabi_srlll       ; [] |419| 
         000044 0000 
    2483                                                      ; [] |419| 
    2484 000046 F03C          AND.W     #2047,r12             ; [] |419| 
         000048 07FF 
    2485 00004a F30D          AND.W     #0,r13                ; [] |419| 
    2486 00004c F30E          AND.W     #0,r14                ; [] |419| 
    2487 00004e F30F          AND.W     #0,r15                ; [] |419| 
    2488 000050 930F          TST.W     r15                   ; [] |419| 
    2489 000052 2006          JNE       $C$L41                ; [] |419| 
    2490                                                      ; [] |419| 
    2491            ;* --------------------------------------------------------------------------*
    2492 000054 930E          TST.W     r14                   ; [] |419| 
    2493 000056 2004          JNE       $C$L41                ; [] |419| 
    2494                                                      ; [] |419| 
    2495            ;* --------------------------------------------------------------------------*
    2496 000058 930D          TST.W     r13                   ; [] |419| 
    2497 00005a 2002          JNE       $C$L41                ; [] |419| 
    2498                                                      ; [] |419| 
    2499            ;* --------------------------------------------------------------------------*
    2500 00005c 930C          TST.W     r12                   ; [] |419| 
    2501 00005e 2402          JEQ       $C$L42                ; [] |419| 
    2502                                                      ; [] |419| 
    2503            ;* --------------------------------------------------------------------------*
    2504 000060       $C$L41:    
    2505 000060 433C          MOV.W     #-1,r12               ; [] |419| 
    2506 000062 3C11          JMP       $C$L45                ; [] |419| 
    2507                                                      ; [] |419| 
    2508            ;* --------------------------------------------------------------------------*
    2509 000064       $C$L42:    
    2510 000064 F334          AND.W     #65535,r4             ; [] |419| 
    2511 000066 F335          AND.W     #65535,r5             ; [] |419| 
    2512 000068 F336          AND.W     #65535,r6             ; [] |419| 
    2513 00006a F037          AND.W     #15,r7                ; [] |419| 
         00006c 000F 
    2514 00006e 9307          TST.W     r7                    ; [] |419| 
    2515 000070 2006          JNE       $C$L43                ; [] |419| 
    2516                                                      ; [] |419| 
    2517            ;* --------------------------------------------------------------------------*
    2518 000072 9306          TST.W     r6                    ; [] |419| 
    2519 000074 2004          JNE       $C$L43                ; [] |419| 
    2520                                                      ; [] |419| 
    2521            ;* --------------------------------------------------------------------------*
    2522 000076 9305          TST.W     r5                    ; [] |419| 
    2523 000078 2002          JNE       $C$L43                ; [] |419| 
MSP430 Assembler PC v21.6.1 Tue Dec 20 13:59:32 2022

Copyright (c) 2003-2018 Texas Instruments Incorporated
Momentary_Switch.asm                                                 PAGE   48

    2524                                                      ; [] |419| 
    2525            ;* --------------------------------------------------------------------------*
    2526 00007a 9304          TST.W     r4                    ; [] |419| 
    2527 00007c 2403          JEQ       $C$L44                ; [] |419| 
    2528                                                      ; [] |419| 
    2529            ;* --------------------------------------------------------------------------*
    2530 00007e       $C$L43:    
    2531 00007e 403C          MOV.W     #65534,r12            ; [] |419| 
         000080 FFFE 
    2532 000082 3C01          JMP       $C$L45                ; [] |419| 
    2533                                                      ; [] |419| 
    2534            ;* --------------------------------------------------------------------------*
    2535 000084       $C$L44:    
    2536 000084 430C          MOV.W     #0,r12                ; [] |419| 
    2537            ;* --------------------------------------------------------------------------*
    2538 000086       $C$L45:    
    2539                    .dwpsn  file "C:/ti/ccs1110/ccs/tools/compiler/ti-cgt-msp430_21.6.1.LTS/include/_defs.h",line 
    2540 000086 1664          POPM.A    #7,r10                ; [] 
    2541                    .dwcfi  restore_reg, 4
    2542                    .dwcfi  restore_reg, 5
    2543                    .dwcfi  restore_reg, 6
    2544                    .dwcfi  restore_reg, 7
    2545                    .dwcfi  restore_reg, 8
    2546                    .dwcfi  restore_reg, 9
    2547                    .dwcfi  restore_reg, 10
    2548                    .dwcfi  cfa_offset, 4
    2549            $C$DW$131       .dwtag  DW_TAG_TI_branch
    2550                    .dwattr $C$DW$131, DW_AT_low_pc(0x00)
    2551                    .dwattr $C$DW$131, DW_AT_TI_return
    2552            
    2553 000088 0110          RETA      ; [] 
    2554                    ; [] 
    2555                    .dwattr $C$DW$127, DW_AT_TI_end_file("C:/ti/ccs1110/ccs/tools/compiler/ti-cgt-msp430_21.6.1.LT
    2556                    .dwattr $C$DW$127, DW_AT_TI_end_line(0x1ac)
    2557                    .dwattr $C$DW$127, DW_AT_TI_end_column(0x01)
    2558                    .dwendentry
    2559                    .dwendtag $C$DW$127
    2560            
    2561 000000               .sect   ".text:Momentary_Switch"
    2562                    .clink
    2563                    .global Momentary_Switch
    2564            
    2565            $C$DW$132       .dwtag  DW_TAG_subprogram
    2566                    .dwattr $C$DW$132, DW_AT_name("Momentary_Switch")
    2567                    .dwattr $C$DW$132, DW_AT_low_pc(Momentary_Switch)
    2568                    .dwattr $C$DW$132, DW_AT_high_pc(0x00)
    2569                    .dwattr $C$DW$132, DW_AT_TI_symbol_name("Momentary_Switch")
    2570                    .dwattr $C$DW$132, DW_AT_external
    2571                    .dwattr $C$DW$132, DW_AT_TI_begin_file("../src/Momentary_Switch.c")
    2572                    .dwattr $C$DW$132, DW_AT_TI_begin_line(0x7f)
    2573                    .dwattr $C$DW$132, DW_AT_TI_begin_column(0x06)
    2574                    .dwattr $C$DW$132, DW_AT_decl_file("../src/Momentary_Switch.c")
    2575                    .dwattr $C$DW$132, DW_AT_decl_line(0x7f)
    2576                    .dwattr $C$DW$132, DW_AT_decl_column(0x06)
    2577                    .dwattr $C$DW$132, DW_AT_TI_max_frame_size(0x0c)
MSP430 Assembler PC v21.6.1 Tue Dec 20 13:59:32 2022

Copyright (c) 2003-2018 Texas Instruments Incorporated
Momentary_Switch.asm                                                 PAGE   49

    2578                    .dwpsn  file "../src/Momentary_Switch.c",line 128,column 1,is_stmt,address Momentary_Switch,is
    2579            
    2580                    .dwfde $C$DW$CIE, Momentary_Switch
    2581            
    2582            ;*****************************************************************************
    2583            ;* FUNCTION NAME: Momentary_Switch                                           *
    2584            ;*                                                                           *
    2585            ;*   Regs Modified     : SP,SR,r9,r10,r11,r12,r13,r14,r15                    *
    2586            ;*   Regs Used         : SP,SR,r9,r10,r11,r12,r13,r14,r15                    *
    2587            ;*   Local Frame Size  : 0 Args + 0 Auto + 8 Save = 8 byte                   *
    2588            ;*****************************************************************************
    2589 000000       Momentary_Switch:
    2590            ;* --------------------------------------------------------------------------*
    2591                    .dwcfi  cfa_offset, 4
    2592                    .dwcfi  save_reg_to_mem, 16, -4
    2593 000000 141A          PUSHM.A   #2,r10                ; [] 
    2594                    .dwcfi  save_reg_to_mem, 10, -8
    2595                    .dwcfi  save_reg_to_mem, 9, -12
    2596                    .dwcfi  cfa_offset, 12
    2597                    .dwpsn  file "../src/Momentary_Switch.c",line 134,column 6,is_stmt,isa 0
    2598 000002 93C2          TST.B     &TSOF+0               ; [] |134| 
         000004 0000!
    2599 000006 243B          JEQ       $C$L49                ; [] |134| 
    2600                                                      ; [] |134| 
    2601            ;* --------------------------------------------------------------------------*
    2602                    .dwpsn  file "../src/Momentary_Switch.c",line 142,column 11,is_stmt,isa 0
    2603 000008 B3D2          BIT.B     #1,&PAIN_L+0          ; [] |142| 
         00000a 0000!
    2604 00000c 200E          JNE       $C$L46                ; [] |142| 
    2605                                                      ; [] |142| 
    2606            ;* --------------------------------------------------------------------------*
    2607 00000e 90B2          CMP.W     #6,&mode+0            ; [] |142| 
         000010 0006 
         000012 0000!
    2608 000014 200A          JNE       $C$L46                ; [] |142| 
    2609                                                      ; [] |142| 
    2610            ;* --------------------------------------------------------------------------*
    2611                    .dwpsn  file "../src/Momentary_Switch.c",line 144,column 8,is_stmt,isa 0
    2612 000016 90F2          CMP.B     #6,&commoTime+0       ; [] |144| 
         000018 0006 
         00001a 0000!
    2613 00001c 2037          JNE       $C$L50                ; [] |144| 
    2614                                                      ; [] |144| 
    2615            ;* --------------------------------------------------------------------------*
    2616                    .dwpsn  file "../src/Momentary_Switch.c",line 146,column 10,is_stmt,isa 0
    2617 00001e 40B2          MOV.W     #5,&mode+0            ; [] |146| 
         000020 0005 
         000022 0000!
    2618                    .dwpsn  file "../src/Momentary_Switch.c",line 147,column 10,is_stmt,isa 0
    2619 000024 43C2          MOV.B     #0,&wait3sec+0        ; [] |147| 
         000026 0000!
    2620 000028 3C31          JMP       $C$L50                ; [] |147| 
    2621                                                      ; [] |147| 
    2622            ;* --------------------------------------------------------------------------*
    2623 00002a       $C$L46:    
MSP430 Assembler PC v21.6.1 Tue Dec 20 13:59:32 2022

Copyright (c) 2003-2018 Texas Instruments Incorporated
Momentary_Switch.asm                                                 PAGE   50

    2624                    .dwpsn  file "../src/Momentary_Switch.c",line 152,column 11,is_stmt,isa 0
    2625 00002a B3D2          BIT.B     #1,&PAIN_L+0          ; [] |152| 
         00002c 0000!
    2626 00002e 2022          JNE       $C$L48                ; [] |152| 
    2627                                                      ; [] |152| 
    2628            ;* --------------------------------------------------------------------------*
    2629                    .dwpsn  file "../src/Momentary_Switch.c",line 158,column 11,is_stmt,isa 0
    2630 000030 93D2          CMP.B     #1,&wait3sec+0        ; [] |158| 
         000032 0000!
    2631 000034 202B          JNE       $C$L50                ; [] |158| 
    2632                                                      ; [] |158| 
    2633            ;* --------------------------------------------------------------------------*
    2634 000036 93D2          CMP.B     #1,&TSOF+0            ; [] |158| 
         000038 0000!
    2635 00003a 2028          JNE       $C$L50                ; [] |158| 
    2636                                                      ; [] |158| 
    2637            ;* --------------------------------------------------------------------------*
    2638                    .dwpsn  file "../src/Momentary_Switch.c",line 160,column 8,is_stmt,isa 0
    2639 00003c D0F2          OR.B      #16,&PAOUT_H+0        ; [] |160| 
         00003e 0010 
         000040 0000!
    2640                    .dwpsn  file "../src/Momentary_Switch.c",line 163,column 8,is_stmt,isa 0
    2641 000042 90F2          CMP.B     #12,&commoTime+0      ; [] |163| 
         000044 000C 
         000046 0000!
    2642 000048 2021          JNE       $C$L50                ; [] |163| 
    2643                                                      ; [] |163| 
    2644            ;* --------------------------------------------------------------------------*
    2645 00004a 90B2          CMP.W     #5,&mode+0            ; [] |163| 
         00004c 0005 
         00004e 0000!
    2646 000050 241D          JEQ       $C$L50                ; [] |163| 
    2647                                                      ; [] |163| 
    2648            ;* --------------------------------------------------------------------------*
    2649                    .dwpsn  file "../src/Momentary_Switch.c",line 166,column 11,is_stmt,isa 0
    2650 000052 90B2          CMP.W     #9,&mode+0            ; [] |166| 
         000054 0009 
         000056 0000!
    2651 000058 2409          JEQ       $C$L47                ; [] |166| 
    2652                                                      ; [] |166| 
    2653            ;* --------------------------------------------------------------------------*
    2654                    .dwpsn  file "../src/Momentary_Switch.c",line 174,column 13,is_stmt,isa 0
    2655 00005a 40B2          MOV.W     #9,&mode+0            ; [] |174| 
         00005c 0009 
         00005e 0000!
    2656                    .dwpsn  file "../src/Momentary_Switch.c",line 175,column 13,is_stmt,isa 0
    2657 000060 93E2          CMP.B     #2,&Soft_Off+0        ; [] |175| 
         000062 0000!
    2658 000064 2C13          JHS       $C$L50                ; [] |175| 
    2659                                                      ; [] |175| 
    2660            ;* --------------------------------------------------------------------------*
    2661                    .dwpsn  file "../src/Momentary_Switch.c",line 175,column 31,is_stmt,isa 0
    2662 000066 43D2          MOV.B     #1,&Soft_Off+0        ; [] |175| 
         000068 0000!
    2663 00006a 3C10          JMP       $C$L50                ; [] |175| 
MSP430 Assembler PC v21.6.1 Tue Dec 20 13:59:32 2022

Copyright (c) 2003-2018 Texas Instruments Incorporated
Momentary_Switch.asm                                                 PAGE   51

    2664                                                      ; [] |175| 
    2665            ;* --------------------------------------------------------------------------*
    2666 00006c       $C$L47:    
    2667                    .dwpsn  file "../src/Momentary_Switch.c",line 168,column 13,is_stmt,isa 0
    2668 00006c 40B2          MOV.W     #6,&mode+0            ; [] |168| 
         00006e 0006 
         000070 0000!
    2669 000072 3C0C          JMP       $C$L50                ; [] 
    2670                                                      ; [] 
    2671            ;* --------------------------------------------------------------------------*
    2672 000074       $C$L48:    
    2673                    .dwpsn  file "../src/Momentary_Switch.c",line 154,column 8,is_stmt,isa 0
    2674 000074 43C2          MOV.B     #0,&commoTime+0       ; [] |154| 
         000076 0000!
    2675                    .dwpsn  file "../src/Momentary_Switch.c",line 155,column 8,is_stmt,isa 0
    2676 000078 43C2          MOV.B     #0,&wait3sec+0        ; [] |155| 
         00007a 0000!
    2677 00007c 3C07          JMP       $C$L50                ; [] 
    2678                                                      ; [] 
    2679            ;* --------------------------------------------------------------------------*
    2680 00007e       $C$L49:    
    2681                    .dwpsn  file "../src/Momentary_Switch.c",line 137,column 8,is_stmt,isa 0
    2682 00007e 43C2          MOV.B     #0,&wait3sec+0        ; [] |137| 
         000080 0000!
    2683                    .dwpsn  file "../src/Momentary_Switch.c",line 138,column 8,is_stmt,isa 0
    2684 000082 40B2          MOV.W     #5,&mode+0            ; [] |138| 
         000084 0005 
         000086 0000!
    2685                    .dwpsn  file "../src/Momentary_Switch.c",line 139,column 8,is_stmt,isa 0
    2686 000088 43D2          MOV.B     #1,&TSOF+0            ; [] |139| 
         00008a 0000!
    2687            ;* --------------------------------------------------------------------------*
    2688 00008c       $C$L50:    
    2689                    .dwpsn  file "../src/Momentary_Switch.c",line 179,column 6,is_stmt,isa 0
    2690 00008c B3E2          BIT.B     #2,&PAIN_H+0          ; [] |179| 
         00008e 0000!
    2691 000090 2012          JNE       $C$L52                ; [] |179| 
    2692                                                      ; [] |179| 
    2693            ;* --------------------------------------------------------------------------*
    2694                    .dwpsn  file "../src/Momentary_Switch.c",line 182,column 8,is_stmt,isa 0
    2695 000092 90F2          CMP.B     #12,&commoTime2+0     ; [] |182| 
         000094 000C 
         000096 0000!
    2696 000098 205E          JNE       $C$L58                ; [] |182| 
    2697                                                      ; [] |182| 
    2698            ;* --------------------------------------------------------------------------*
    2699                    .dwpsn  file "../src/Momentary_Switch.c",line 184,column 10,is_stmt,isa 0
    2700 00009a 425F          MOV.B     &LCD_Options_Mode+0,r15 ; [] |184| 
         00009c 0000!
    2701 00009e D25F          OR.B      &go_to_LCD_Options+0,r15 ; [] |184| 
         0000a0 0000!
    2702 0000a2 934F          TST.B     r15                   ; [] |184| 
    2703 0000a4 2005          JNE       $C$L51                ; [] |184| 
    2704                                                      ; [] |184| 
    2705            ;* --------------------------------------------------------------------------*
MSP430 Assembler PC v21.6.1 Tue Dec 20 13:59:32 2022

Copyright (c) 2003-2018 Texas Instruments Incorporated
Momentary_Switch.asm                                                 PAGE   52

    2706                    .dwpsn  file "../src/Momentary_Switch.c",line 186,column 12,is_stmt,isa 0
    2707 0000a6 43D2          MOV.B     #1,&go_to_LCD_Options+0 ; [] |186| 
         0000a8 0000!
    2708                    .dwpsn  file "../src/Momentary_Switch.c",line 187,column 12,is_stmt,isa 0
    2709 0000aa 4382          MOV.W     #0,&option_digit+0    ; [] |187| 
         0000ac 0000!
    2710 0000ae 3C53          JMP       $C$L58                ; [] 
    2711                                                      ; [] 
    2712            ;* --------------------------------------------------------------------------*
    2713 0000b0       $C$L51:    
    2714                    .dwpsn  file "../src/Momentary_Switch.c",line 191,column 12,is_stmt,isa 0
    2715 0000b0 43C2          MOV.B     #0,&LCD_Options_Mode+0 ; [] |191| 
         0000b2 0000!
    2716 0000b4 3C50          JMP       $C$L58                ; [] |191| 
    2717                                                      ; [] |191| 
    2718            ;* --------------------------------------------------------------------------*
    2719 0000b6       $C$L52:    
    2720                    .dwpsn  file "../src/Momentary_Switch.c",line 195,column 11,is_stmt,isa 0
    2721 0000b6 B3E2          BIT.B     #2,&PAIN_H+0          ; [] |195| 
         0000b8 0000!
    2722 0000ba 244D          JEQ       $C$L58                ; [] |195| 
    2723                                                      ; [] |195| 
    2724            ;* --------------------------------------------------------------------------*
    2725 0000bc 93C2          TST.B     &LCD_Options_Mode+0   ; [] |195| 
         0000be 0000!
    2726 0000c0 204A          JNE       $C$L58                ; [] |195| 
    2727                                                      ; [] |195| 
    2728            ;* --------------------------------------------------------------------------*
    2729                    .dwpsn  file "../src/Momentary_Switch.c",line 197,column 8,is_stmt,isa 0
    2730 0000c2 93C2          TST.B     &commoTime2+0         ; [] |197| 
         0000c4 0000!
    2731 0000c6 2443          JEQ       $C$L57                ; [] |197| 
    2732                                                      ; [] |197| 
    2733            ;* --------------------------------------------------------------------------*
    2734 0000c8 90F2          CMP.B     #12,&commoTime2+0     ; [] |197| 
         0000ca 000C 
         0000cc 0000!
    2735 0000ce 2C3F          JHS       $C$L57                ; [] |197| 
    2736                                                      ; [] |197| 
    2737            ;* --------------------------------------------------------------------------*
    2738 0000d0 93C2          TST.B     &Page_changed+0       ; [] |197| 
         0000d2 0000!
    2739 0000d4 203C          JNE       $C$L57                ; [] |197| 
    2740                                                      ; [] |197| 
    2741            ;* --------------------------------------------------------------------------*
    2742                    .dwpsn  file "../src/Momentary_Switch.c",line 199,column 10,is_stmt,isa 0
    2743 0000d6 5392          ADD.W     #1,&LCD_page+0        ; [] |199| 
         0000d8 0000!
    2744 0000da 92A2          CMP.W     #4,&LCD_page+0        ; [] |199| 
         0000dc 0000!
    2745 0000de 3809          JL        $C$L54                ; [] |199| 
    2746                                                      ; [] |199| 
    2747            ;* --------------------------------------------------------------------------*
    2748 0000e0 9392          CMP.W     #1,&mode+0            ; [] |199| 
         0000e2 0000!
MSP430 Assembler PC v21.6.1 Tue Dec 20 13:59:32 2022

Copyright (c) 2003-2018 Texas Instruments Incorporated
Momentary_Switch.asm                                                 PAGE   53

    2749 0000e4 2403          JEQ       $C$L53                ; [] |199| 
    2750                                                      ; [] |199| 
    2751            ;* --------------------------------------------------------------------------*
    2752 0000e6 93A2          CMP.W     #2,&mode+0            ; [] |199| 
         0000e8 0000!
    2753 0000ea 200D          JNE       $C$L55                ; [] |199| 
    2754                                                      ; [] |199| 
    2755            ;* --------------------------------------------------------------------------*
    2756 0000ec       $C$L53:    
    2757 0000ec 93C2          TST.B     &Startup_Stage_Page+0 ; [] |199| 
         0000ee 0000!
    2758 0000f0 240A          JEQ       $C$L55                ; [] |199| 
    2759                                                      ; [] |199| 
    2760            ;* --------------------------------------------------------------------------*
    2761 0000f2       $C$L54:    
    2762                    .dwpsn  file "../src/Momentary_Switch.c",line 201,column 15,is_stmt,isa 0
    2763 0000f2 90B2          CMP.W     #5,&LCD_page+0        ; [] |201| 
         0000f4 0005 
         0000f6 0000!
    2764 0000f8 3808          JL        $C$L56                ; [] |201| 
    2765                                                      ; [] |201| 
    2766            ;* --------------------------------------------------------------------------*
    2767 0000fa 93C2          TST.B     &Startup_Stage_Page+0 ; [] |201| 
         0000fc 0000!
    2768 0000fe 2405          JEQ       $C$L56                ; [] |201| 
    2769                                                      ; [] |201| 
    2770            ;* --------------------------------------------------------------------------*
    2771                    .dwpsn  file "../src/Momentary_Switch.c",line 201,column 55,is_stmt,isa 0
    2772 000100 4382          MOV.W     #0,&LCD_page+0        ; [] |201| 
         000102 0000!
    2773 000104 3C02          JMP       $C$L56                ; [] |201| 
    2774                                                      ; [] |201| 
    2775            ;* --------------------------------------------------------------------------*
    2776 000106       $C$L55:    
    2777                    .dwpsn  file "../src/Momentary_Switch.c",line 200,column 96,is_stmt,isa 0
    2778 000106 4382          MOV.W     #0,&LCD_page+0        ; [] |200| 
         000108 0000!
    2779            ;* --------------------------------------------------------------------------*
    2780 00010a       $C$L56:    
    2781                    .dwpsn  file "../src/Momentary_Switch.c",line 202,column 10,is_stmt,isa 0
    2782 00010a 43C2          MOV.B     #0,&LCDline+0         ; [] |202| 
         00010c 0000!
    2783                    .dwpsn  file "../src/Momentary_Switch.c",line 203,column 10,is_stmt,isa 0
    2784 00010e 421C          MOV.W     &shutdown_time+0,r12  ; [] |203| 
         000110 0000!
    2785 000112 403D          MOV.W     #100,r13              ; [] |203| 
         000114 0064 
    2786            $C$DW$133       .dwtag  DW_TAG_TI_branch
    2787                    .dwattr $C$DW$133, DW_AT_low_pc(0x00)
    2788                    .dwattr $C$DW$133, DW_AT_name("__mspabi_divi")
    2789                    .dwattr $C$DW$133, DW_AT_TI_call
    2790            
    2791 000116 13B0!         CALLA     #__mspabi_divi        ; [] |203| 
         000118 0000 
    2792                                                      ; [] |203| 
MSP430 Assembler PC v21.6.1 Tue Dec 20 13:59:32 2022

Copyright (c) 2003-2018 Texas Instruments Incorporated
Momentary_Switch.asm                                                 PAGE   54

    2793 00011a 403D          MOV.W     #10,r13               ; [] |203| 
         00011c 000A 
    2794            $C$DW$134       .dwtag  DW_TAG_TI_branch
    2795                    .dwattr $C$DW$134, DW_AT_low_pc(0x00)
    2796                    .dwattr $C$DW$134, DW_AT_name("__mspabi_remi")
    2797                    .dwattr $C$DW$134, DW_AT_TI_call
    2798            
    2799 00011e 13B0!         CALLA     #__mspabi_remi        ; [] |203| 
         000120 0000 
    2800                                                      ; [] |203| 
    2801 000122 4E82          MOV.W     r14,&shutdown_time_hundred_minutes+0 ; [] |203| 
         000124 0000!
    2802                    .dwpsn  file "../src/Momentary_Switch.c",line 204,column 10,is_stmt,isa 0
    2803 000126 421C          MOV.W     &shutdown_time+0,r12  ; [] |204| 
         000128 0000!
    2804 00012a 403D          MOV.W     #10,r13               ; [] |204| 
         00012c 000A 
    2805            $C$DW$135       .dwtag  DW_TAG_TI_branch
    2806                    .dwattr $C$DW$135, DW_AT_low_pc(0x00)
    2807                    .dwattr $C$DW$135, DW_AT_name("__mspabi_divi")
    2808                    .dwattr $C$DW$135, DW_AT_TI_call
    2809            
    2810 00012e 13B0!         CALLA     #__mspabi_divi        ; [] |204| 
         000130 0000 
    2811                                                      ; [] |204| 
    2812 000132 403D          MOV.W     #10,r13               ; [] |204| 
         000134 000A 
    2813            $C$DW$136       .dwtag  DW_TAG_TI_branch
    2814                    .dwattr $C$DW$136, DW_AT_low_pc(0x00)
    2815                    .dwattr $C$DW$136, DW_AT_name("__mspabi_remi")
    2816                    .dwattr $C$DW$136, DW_AT_TI_call
    2817            
    2818 000136 13B0!         CALLA     #__mspabi_remi        ; [] |204| 
         000138 0000 
    2819                                                      ; [] |204| 
    2820 00013a 4E82          MOV.W     r14,&shutdown_time_ten_minutes+0 ; [] |204| 
         00013c 0000!
    2821                    .dwpsn  file "../src/Momentary_Switch.c",line 205,column 10,is_stmt,isa 0
    2822 00013e 421C          MOV.W     &shutdown_time+0,r12  ; [] |205| 
         000140 0000!
    2823 000142 403D          MOV.W     #10,r13               ; [] |205| 
         000144 000A 
    2824            $C$DW$137       .dwtag  DW_TAG_TI_branch
    2825                    .dwattr $C$DW$137, DW_AT_low_pc(0x00)
    2826                    .dwattr $C$DW$137, DW_AT_name("__mspabi_remi")
    2827                    .dwattr $C$DW$137, DW_AT_TI_call
    2828            
    2829 000146 13B0!         CALLA     #__mspabi_remi        ; [] |205| 
         000148 0000 
    2830                                                      ; [] |205| 
    2831 00014a 4E82          MOV.W     r14,&shutdown_time_one_minutes+0 ; [] |205| 
         00014c 0000!
    2832            ;* --------------------------------------------------------------------------*
    2833 00014e       $C$L57:    
    2834                    .dwpsn  file "../src/Momentary_Switch.c",line 207,column 8,is_stmt,isa 0
MSP430 Assembler PC v21.6.1 Tue Dec 20 13:59:32 2022

Copyright (c) 2003-2018 Texas Instruments Incorporated
Momentary_Switch.asm                                                 PAGE   55

    2835 00014e 43C2          MOV.B     #0,&Page_changed+0    ; [] |207| 
         000150 0000!
    2836                    .dwpsn  file "../src/Momentary_Switch.c",line 208,column 8,is_stmt,isa 0
    2837 000152 43C2          MOV.B     #0,&commoTime2+0      ; [] |208| 
         000154 0000!
    2838            ;* --------------------------------------------------------------------------*
    2839 000156       $C$L58:    
    2840                    .dwpsn  file "../src/Momentary_Switch.c",line 211,column 6,is_stmt,isa 0
    2841 000156 B3D2          BIT.B     #1,&PAIN_H+0          ; [] |211| 
         000158 0000!
    2842 00015a 2011          JNE       $C$L60                ; [] |211| 
    2843                                                      ; [] |211| 
    2844            ;* --------------------------------------------------------------------------*
    2845                    .dwpsn  file "../src/Momentary_Switch.c",line 214,column 8,is_stmt,isa 0
    2846 00015c 93D2          CMP.B     #1,&commoTime3+0      ; [] |214| 
         00015e 0000!
    2847 000160 2406          JEQ       $C$L59                ; [] |214| 
    2848                                                      ; [] |214| 
    2849            ;* --------------------------------------------------------------------------*
    2850                    .dwpsn  file "../src/Momentary_Switch.c",line 224,column 13,is_stmt,isa 0
    2851 000162 93E2          CMP.B     #2,&commoTime3+0      ; [] |224| 
         000164 0000!
    2852 000166 2810          JLO       $C$L61                ; [] |224| 
    2853                                                      ; [] |224| 
    2854            ;* --------------------------------------------------------------------------*
    2855                    .dwpsn  file "../src/Momentary_Switch.c",line 226,column 10,is_stmt,isa 0
    2856 000168 43E2          MOV.B     #2,&commoTime3+0      ; [] |226| 
         00016a 0000!
    2857 00016c 3C0D          JMP       $C$L61                ; [] |226| 
    2858                                                      ; [] |226| 
    2859            ;* --------------------------------------------------------------------------*
    2860 00016e       $C$L59:    
    2861                    .dwpsn  file "../src/Momentary_Switch.c",line 216,column 10,is_stmt,isa 0
    2862 00016e 43D2          MOV.B     #1,&Backlight_is_on+0 ; [] |216| 
         000170 0000!
    2863                    .dwpsn  file "../src/Momentary_Switch.c",line 218,column 10,is_stmt,isa 0
    2864 000172 B3D2          BIT.B     #1,&PAIN_L+0          ; [] |218| 
         000174 0000!
    2865 000176 2008          JNE       $C$L61                ; [] |218| 
    2866                                                      ; [] |218| 
    2867            ;* --------------------------------------------------------------------------*
    2868                    .dwpsn  file "../src/Momentary_Switch.c",line 221,column 11,is_stmt,isa 0
    2869            $C$DW$138       .dwtag  DW_TAG_TI_branch
    2870                    .dwattr $C$DW$138, DW_AT_low_pc(0x00)
    2871                    .dwattr $C$DW$138, DW_AT_name("LCD_init")
    2872                    .dwattr $C$DW$138, DW_AT_TI_call
    2873            
    2874 000178 13B0!         CALLA     #LCD_init             ; [] |221| 
         00017a 0000 
    2875                                                      ; [] |221| 
    2876 00017c 3C05          JMP       $C$L61                ; [] |221| 
    2877                                                      ; [] |221| 
    2878            ;* --------------------------------------------------------------------------*
    2879 00017e       $C$L60:    
    2880                    .dwpsn  file "../src/Momentary_Switch.c",line 229,column 11,is_stmt,isa 0
MSP430 Assembler PC v21.6.1 Tue Dec 20 13:59:32 2022

Copyright (c) 2003-2018 Texas Instruments Incorporated
Momentary_Switch.asm                                                 PAGE   56

    2881 00017e B3D2          BIT.B     #1,&PAIN_H+0          ; [] |229| 
         000180 0000!
    2882 000182 2402          JEQ       $C$L61                ; [] |229| 
    2883                                                      ; [] |229| 
    2884            ;* --------------------------------------------------------------------------*
    2885                    .dwpsn  file "../src/Momentary_Switch.c",line 231,column 8,is_stmt,isa 0
    2886 000184 43C2          MOV.B     #0,&commoTime3+0      ; [] |231| 
         000186 0000!
    2887            ;* --------------------------------------------------------------------------*
    2888 000188       $C$L61:    
    2889                    .dwpsn  file "../src/Momentary_Switch.c",line 234,column 6,is_stmt,isa 0
    2890 000188 93D2          CMP.B     #1,&Backlight_is_on+0 ; [] |234| 
         00018a 0000!
    2891 00018c 2019          JNE       $C$L65                ; [] |234| 
    2892                                                      ; [] |234| 
    2893            ;* --------------------------------------------------------------------------*
    2894                    .dwpsn  file "../src/Momentary_Switch.c",line 236,column 8,is_stmt,isa 0
    2895 00018e B3D2          BIT.B     #1,&PAIN_L+0          ; [] |236| 
         000190 0000!
    2896 000192 2403          JEQ       $C$L62                ; [] |236| 
    2897                                                      ; [] |236| 
    2898            ;* --------------------------------------------------------------------------*
    2899 000194 B3E2          BIT.B     #2,&PAIN_H+0          ; [] |236| 
         000196 0000!
    2900 000198 2002          JNE       $C$L63                ; [] |236| 
    2901                                                      ; [] |236| 
    2902            ;* --------------------------------------------------------------------------*
    2903 00019a       $C$L62:    
    2904                    .dwpsn  file "../src/Momentary_Switch.c",line 236,column 36,is_stmt,isa 0
    2905 00019a 43C2          MOV.B     #0,&Backlight_is_on_Time+0 ; [] |236| 
         00019c 0000!
    2906            ;* --------------------------------------------------------------------------*
    2907 00019e       $C$L63:    
    2908                    .dwpsn  file "../src/Momentary_Switch.c",line 237,column 8,is_stmt,isa 0
    2909 00019e 90F2          CMP.B     #81,&Backlight_is_on_Time+0 ; [] |237| 
         0001a0 0051 
         0001a2 0000!
    2910 0001a4 2C05          JHS       $C$L64                ; [] |237| 
    2911                                                      ; [] |237| 
    2912            ;* --------------------------------------------------------------------------*
    2913                    .dwpsn  file "../src/Momentary_Switch.c",line 243,column 13,is_stmt,isa 0
    2914 0001a6 C3D2          BIC.B     #1,&PAOUT_H+0         ; [] |243| 
         0001a8 0000!
    2915 0001aa 425F          MOV.B     &PAIN_H+0,r15         ; [] |243| 
         0001ac 0000!
    2916 0001ae 3C08          JMP       $C$L65                ; [] |243| 
    2917                                                      ; [] |243| 
    2918            ;* --------------------------------------------------------------------------*
    2919 0001b0       $C$L64:    
    2920                    .dwpsn  file "../src/Momentary_Switch.c",line 239,column 10,is_stmt,isa 0
    2921 0001b0 D3D2          OR.B      #1,&PAOUT_H+0         ; [] |239| 
         0001b2 0000!
    2922 0001b4 425F          MOV.B     &PAIN_H+0,r15         ; [] |239| 
         0001b6 0000!
    2923                    .dwpsn  file "../src/Momentary_Switch.c",line 240,column 10,is_stmt,isa 0
MSP430 Assembler PC v21.6.1 Tue Dec 20 13:59:32 2022

Copyright (c) 2003-2018 Texas Instruments Incorporated
Momentary_Switch.asm                                                 PAGE   57

    2924 0001b8 43C2          MOV.B     #0,&Backlight_is_on+0 ; [] |240| 
         0001ba 0000!
    2925                    .dwpsn  file "../src/Momentary_Switch.c",line 241,column 10,is_stmt,isa 0
    2926 0001bc 43C2          MOV.B     #0,&Backlight_is_on_Time+0 ; [] |241| 
         0001be 0000!
    2927            ;* --------------------------------------------------------------------------*
    2928 0001c0       $C$L65:    
    2929                    .dwpsn  file "../src/Momentary_Switch.c",line 246,column 6,is_stmt,isa 0
    2930 0001c0 93C2          TST.B     &go_to_LCD_Options+0  ; [] |246| 
         0001c2 0000!
    2931 0001c4 2515          JEQ       $C$L70                ; [] |246| 
    2932                                                      ; [] |246| 
    2933            ;* --------------------------------------------------------------------------*
    2934                    .dwpsn  file "../src/Momentary_Switch.c",line 248,column 8,is_stmt,isa 0
    2935 0001c6 43D2          MOV.B     #1,&LCD_Options_Mode+0 ; [] |248| 
         0001c8 0000!
    2936                    .dwpsn  file "../src/Momentary_Switch.c",line 249,column 8,is_stmt,isa 0
    2937 0001ca 43C2          MOV.B     #0,&LCD_Options_Page+0 ; [] |249| 
         0001cc 0000!
    2938                    .dwpsn  file "../src/Momentary_Switch.c",line 250,column 8,is_stmt,isa 0
    2939 0001ce 43C2          MOV.B     #0,&go_to_LCD_Options+0 ; [] |250| 
         0001d0 0000!
    2940                    .dwpsn  file "../src/Momentary_Switch.c",line 251,column 8,is_stmt,isa 0
    2941 0001d2 43C2          MOV.B     #0,&LCD_Option+0      ; [] |251| 
         0001d4 0000!
    2942                    .dwpsn  file "../src/Momentary_Switch.c",line 252,column 8,is_stmt,isa 0
    2943 0001d6 4382          MOV.W     #0,&option_digit+0    ; [] |252| 
         0001d8 0000!
    2944                    .dwpsn  file "../src/Momentary_Switch.c",line 253,column 8,is_stmt,isa 0
    2945 0001da 425F          MOV.B     &PDOUT_H+0,r15        ; [] |253| 
         0001dc 0000!
    2946 0001de F03F          AND.W     #65408,r15            ; [] |253| 
         0001e0 FF80 
    2947 0001e2 903F          CMP.W     #128,r15              ; [] |253| 
         0001e4 0080 
    2948 0001e6 2403          JEQ       $C$L66                ; [] |253| 
    2949                                                      ; [] |253| 
    2950            ;* --------------------------------------------------------------------------*
    2951                    .dwpsn  file "../src/Momentary_Switch.c",line 254,column 13,is_stmt,isa 0
    2952 0001e8 43C2          MOV.B     #0,&Auto_Hybrid_Option+0 ; [] |254| 
         0001ea 0000!
    2953 0001ec 3C02          JMP       $C$L67                ; [] |254| 
    2954                                                      ; [] |254| 
    2955            ;* --------------------------------------------------------------------------*
    2956 0001ee       $C$L66:    
    2957                    .dwpsn  file "../src/Momentary_Switch.c",line 253,column 32,is_stmt,isa 0
    2958 0001ee 43D2          MOV.B     #1,&Auto_Hybrid_Option+0 ; [] |253| 
         0001f0 0000!
    2959            ;* --------------------------------------------------------------------------*
    2960 0001f2       $C$L67:    
    2961                    .dwpsn  file "../src/Momentary_Switch.c",line 255,column 25,is_stmt,isa 0
    2962 0001f2 434F          MOV.B     #0,r15                ; [] |255| 
    2963 0001f4 90F2          CMP.B     #3,&Soft_Off+0        ; [] |255| 
         0001f6 0003 
         0001f8 0000!
MSP430 Assembler PC v21.6.1 Tue Dec 20 13:59:32 2022

Copyright (c) 2003-2018 Texas Instruments Incorporated
Momentary_Switch.asm                                                 PAGE   58

    2964 0001fa 2001          JNE       $C$L68                ; [] |255| 
    2965                                                      ; [] |255| 
    2966            ;* --------------------------------------------------------------------------*
    2967 0001fc 435F          MOV.B     #1,r15                ; [] |255| 
    2968            ;* --------------------------------------------------------------------------*
    2969 0001fe       $C$L68:    
    2970 0001fe 4FC2          MOV.B     r15,&Auto_Restart_Option+0 ; [] |255| 
         000200 0000!
    2971                    .dwpsn  file "../src/Momentary_Switch.c",line 257,column 8,is_stmt,isa 0
    2972 000202 421C          MOV.W     &Auto_restart_V+0,r12 ; [] |257| 
         000204 0000!
    2973 000206 421D          MOV.W     &Auto_restart_V+2,r13 ; [] |257| 
         000208 0002!
    2974            $C$DW$139       .dwtag  DW_TAG_TI_branch
    2975                    .dwattr $C$DW$139, DW_AT_low_pc(0x00)
    2976                    .dwattr $C$DW$139, DW_AT_name("__mspabi_fixfi")
    2977                    .dwattr $C$DW$139, DW_AT_TI_call
    2978            
    2979 00020a 13B0!         CALLA     #__mspabi_fixfi       ; [] |257| 
         00020c 0000 
    2980                                                      ; [] |257| 
    2981 00020e 403D          MOV.W     #10,r13               ; [] |257| 
         000210 000A 
    2982            $C$DW$140       .dwtag  DW_TAG_TI_branch
    2983                    .dwattr $C$DW$140, DW_AT_low_pc(0x00)
    2984                    .dwattr $C$DW$140, DW_AT_name("__mspabi_divi")
    2985                    .dwattr $C$DW$140, DW_AT_TI_call
    2986            
    2987 000212 13B0!         CALLA     #__mspabi_divi        ; [] |257| 
         000214 0000 
    2988                                                      ; [] |257| 
    2989 000216 403D          MOV.W     #10,r13               ; [] |257| 
         000218 000A 
    2990            $C$DW$141       .dwtag  DW_TAG_TI_branch
    2991                    .dwattr $C$DW$141, DW_AT_low_pc(0x00)
    2992                    .dwattr $C$DW$141, DW_AT_name("__mspabi_remi")
    2993                    .dwattr $C$DW$141, DW_AT_TI_call
    2994            
    2995 00021a 13B0!         CALLA     #__mspabi_remi        ; [] |257| 
         00021c 0000 
    2996                                                      ; [] |257| 
    2997 00021e 0ECC          MOVA      r14,r12               ; [] |257| 
    2998            $C$DW$142       .dwtag  DW_TAG_TI_branch
    2999                    .dwattr $C$DW$142, DW_AT_low_pc(0x00)
    3000                    .dwattr $C$DW$142, DW_AT_name("__mspabi_fltif")
    3001                    .dwattr $C$DW$142, DW_AT_TI_call
    3002            
    3003 000220 13B0!         CALLA     #__mspabi_fltif       ; [] |257| 
         000222 0000 
    3004                                                      ; [] |257| 
    3005 000224 4C82          MOV.W     r12,&Auto_restart_V_digit1+0 ; [] |257| 
         000226 0000!
    3006 000228 4D82          MOV.W     r13,&Auto_restart_V_digit1+2 ; [] |257| 
         00022a 0002!
    3007                    .dwpsn  file "../src/Momentary_Switch.c",line 258,column 8,is_stmt,isa 0
MSP430 Assembler PC v21.6.1 Tue Dec 20 13:59:32 2022

Copyright (c) 2003-2018 Texas Instruments Incorporated
Momentary_Switch.asm                                                 PAGE   59

    3008 00022c 421C          MOV.W     &Auto_restart_V+0,r12 ; [] |258| 
         00022e 0000!
    3009 000230 421D          MOV.W     &Auto_restart_V+2,r13 ; [] |258| 
         000232 0002!
    3010            $C$DW$143       .dwtag  DW_TAG_TI_branch
    3011                    .dwattr $C$DW$143, DW_AT_low_pc(0x00)
    3012                    .dwattr $C$DW$143, DW_AT_name("__mspabi_fixfi")
    3013                    .dwattr $C$DW$143, DW_AT_TI_call
    3014            
    3015 000234 13B0!         CALLA     #__mspabi_fixfi       ; [] |258| 
         000236 0000 
    3016                                                      ; [] |258| 
    3017 000238 403D          MOV.W     #10,r13               ; [] |258| 
         00023a 000A 
    3018            $C$DW$144       .dwtag  DW_TAG_TI_branch
    3019                    .dwattr $C$DW$144, DW_AT_low_pc(0x00)
    3020                    .dwattr $C$DW$144, DW_AT_name("__mspabi_remi")
    3021                    .dwattr $C$DW$144, DW_AT_TI_call
    3022            
    3023 00023c 13B0!         CALLA     #__mspabi_remi        ; [] |258| 
         00023e 0000 
    3024                                                      ; [] |258| 
    3025 000240 0ECC          MOVA      r14,r12               ; [] |258| 
    3026            $C$DW$145       .dwtag  DW_TAG_TI_branch
    3027                    .dwattr $C$DW$145, DW_AT_low_pc(0x00)
    3028                    .dwattr $C$DW$145, DW_AT_name("__mspabi_fltif")
    3029                    .dwattr $C$DW$145, DW_AT_TI_call
    3030            
    3031 000242 13B0!         CALLA     #__mspabi_fltif       ; [] |258| 
         000244 0000 
    3032                                                      ; [] |258| 
    3033 000246 4C82          MOV.W     r12,&Auto_restart_V_digit2+0 ; [] |258| 
         000248 0000!
    3034 00024a 4D82          MOV.W     r13,&Auto_restart_V_digit2+2 ; [] |258| 
         00024c 0002!
    3035                    .dwpsn  file "../src/Momentary_Switch.c",line 259,column 8,is_stmt,isa 0
    3036 00024e 421C          MOV.W     &Auto_restart_V+0,r12 ; [] |259| 
         000250 0000!
    3037 000252 421D          MOV.W     &Auto_restart_V+2,r13 ; [] |259| 
         000254 0002!
    3038 000256 430E          MOV.W     #0,r14                ; [] |259| 
    3039 000258 403F          MOV.W     #16672,r15            ; [] |259| 
         00025a 4120 
    3040            $C$DW$146       .dwtag  DW_TAG_TI_branch
    3041                    .dwattr $C$DW$146, DW_AT_low_pc(0x00)
    3042                    .dwattr $C$DW$146, DW_AT_name("__mspabi_mpyf")
    3043                    .dwattr $C$DW$146, DW_AT_TI_call
    3044            
    3045 00025c 13B0!         CALLA     #__mspabi_mpyf        ; [] |259| 
         00025e 0000 
    3046                                                      ; [] |259| 
    3047            $C$DW$147       .dwtag  DW_TAG_TI_branch
    3048                    .dwattr $C$DW$147, DW_AT_low_pc(0x00)
    3049                    .dwattr $C$DW$147, DW_AT_name("__mspabi_fixfi")
    3050                    .dwattr $C$DW$147, DW_AT_TI_call
MSP430 Assembler PC v21.6.1 Tue Dec 20 13:59:32 2022

Copyright (c) 2003-2018 Texas Instruments Incorporated
Momentary_Switch.asm                                                 PAGE   60

    3051            
    3052 000260 13B0!         CALLA     #__mspabi_fixfi       ; [] |259| 
         000262 0000 
    3053                                                      ; [] |259| 
    3054            ;* --------------------------------------------------------------------------*
    3055 000264 403D          MOV.W     #10,r13               ; [] |259| 
         000266 000A 
    3056            $C$DW$148       .dwtag  DW_TAG_TI_branch
    3057                    .dwattr $C$DW$148, DW_AT_low_pc(0x00)
    3058                    .dwattr $C$DW$148, DW_AT_name("__mspabi_remi")
    3059                    .dwattr $C$DW$148, DW_AT_TI_call
    3060            
    3061 000268 13B0!         CALLA     #__mspabi_remi        ; [] |259| 
         00026a 0000 
    3062                                                      ; [] |259| 
    3063 00026c 0ECC          MOVA      r14,r12               ; [] |259| 
    3064            $C$DW$149       .dwtag  DW_TAG_TI_branch
    3065                    .dwattr $C$DW$149, DW_AT_low_pc(0x00)
    3066                    .dwattr $C$DW$149, DW_AT_name("__mspabi_fltif")
    3067                    .dwattr $C$DW$149, DW_AT_TI_call
    3068            
    3069 00026e 13B0!         CALLA     #__mspabi_fltif       ; [] |259| 
         000270 0000 
    3070                                                      ; [] |259| 
    3071 000272 4C82          MOV.W     r12,&Auto_restart_V_digit3+0 ; [] |259| 
         000274 0000!
    3072 000276 4D82          MOV.W     r13,&Auto_restart_V_digit3+2 ; [] |259| 
         000278 0002!
    3073                    .dwpsn  file "../src/Momentary_Switch.c",line 260,column 8,is_stmt,isa 0
    3074 00027a 421C          MOV.W     &shutdown_power_level+0,r12 ; [] |260| 
         00027c 0000!
    3075 00027e 421D          MOV.W     &shutdown_power_level+2,r13 ; [] |260| 
         000280 0002!
    3076            $C$DW$150       .dwtag  DW_TAG_TI_branch
    3077                    .dwattr $C$DW$150, DW_AT_low_pc(0x00)
    3078                    .dwattr $C$DW$150, DW_AT_name("__mspabi_fixfi")
    3079                    .dwattr $C$DW$150, DW_AT_TI_call
    3080            
    3081 000282 13B0!         CALLA     #__mspabi_fixfi       ; [] |260| 
         000284 0000 
    3082                                                      ; [] |260| 
    3083 000286 403D          MOV.W     #10,r13               ; [] |260| 
         000288 000A 
    3084            $C$DW$151       .dwtag  DW_TAG_TI_branch
    3085                    .dwattr $C$DW$151, DW_AT_low_pc(0x00)
    3086                    .dwattr $C$DW$151, DW_AT_name("__mspabi_divi")
    3087                    .dwattr $C$DW$151, DW_AT_TI_call
    3088            
    3089 00028a 13B0!         CALLA     #__mspabi_divi        ; [] |260| 
         00028c 0000 
    3090                                                      ; [] |260| 
    3091 00028e 403D          MOV.W     #10,r13               ; [] |260| 
         000290 000A 
    3092            $C$DW$152       .dwtag  DW_TAG_TI_branch
    3093                    .dwattr $C$DW$152, DW_AT_low_pc(0x00)
MSP430 Assembler PC v21.6.1 Tue Dec 20 13:59:32 2022

Copyright (c) 2003-2018 Texas Instruments Incorporated
Momentary_Switch.asm                                                 PAGE   61

    3094                    .dwattr $C$DW$152, DW_AT_name("__mspabi_remi")
    3095                    .dwattr $C$DW$152, DW_AT_TI_call
    3096            
    3097 000292 13B0!         CALLA     #__mspabi_remi        ; [] |260| 
         000294 0000 
    3098                                                      ; [] |260| 
    3099 000296 0ECC          MOVA      r14,r12               ; [] |260| 
    3100            $C$DW$153       .dwtag  DW_TAG_TI_branch
    3101                    .dwattr $C$DW$153, DW_AT_low_pc(0x00)
    3102                    .dwattr $C$DW$153, DW_AT_name("__mspabi_fltif")
    3103                    .dwattr $C$DW$153, DW_AT_TI_call
    3104            
    3105 000298 13B0!         CALLA     #__mspabi_fltif       ; [] |260| 
         00029a 0000 
    3106                                                      ; [] |260| 
    3107 00029c 4C82          MOV.W     r12,&shutdown_power_level_digit1+0 ; [] |260| 
         00029e 0000!
    3108 0002a0 4D82          MOV.W     r13,&shutdown_power_level_digit1+2 ; [] |260| 
         0002a2 0002!
    3109                    .dwpsn  file "../src/Momentary_Switch.c",line 261,column 8,is_stmt,isa 0
    3110 0002a4 421C          MOV.W     &shutdown_power_level+0,r12 ; [] |261| 
         0002a6 0000!
    3111 0002a8 421D          MOV.W     &shutdown_power_level+2,r13 ; [] |261| 
         0002aa 0002!
    3112            $C$DW$154       .dwtag  DW_TAG_TI_branch
    3113                    .dwattr $C$DW$154, DW_AT_low_pc(0x00)
    3114                    .dwattr $C$DW$154, DW_AT_name("__mspabi_fixfi")
    3115                    .dwattr $C$DW$154, DW_AT_TI_call
    3116            
    3117 0002ac 13B0!         CALLA     #__mspabi_fixfi       ; [] |261| 
         0002ae 0000 
    3118                                                      ; [] |261| 
    3119 0002b0 403D          MOV.W     #10,r13               ; [] |261| 
         0002b2 000A 
    3120            $C$DW$155       .dwtag  DW_TAG_TI_branch
    3121                    .dwattr $C$DW$155, DW_AT_low_pc(0x00)
    3122                    .dwattr $C$DW$155, DW_AT_name("__mspabi_remi")
    3123                    .dwattr $C$DW$155, DW_AT_TI_call
    3124            
    3125 0002b4 13B0!         CALLA     #__mspabi_remi        ; [] |261| 
         0002b6 0000 
    3126                                                      ; [] |261| 
    3127 0002b8 0ECC          MOVA      r14,r12               ; [] |261| 
    3128            $C$DW$156       .dwtag  DW_TAG_TI_branch
    3129                    .dwattr $C$DW$156, DW_AT_low_pc(0x00)
    3130                    .dwattr $C$DW$156, DW_AT_name("__mspabi_fltif")
    3131                    .dwattr $C$DW$156, DW_AT_TI_call
    3132            
    3133 0002ba 13B0!         CALLA     #__mspabi_fltif       ; [] |261| 
         0002bc 0000 
    3134                                                      ; [] |261| 
    3135 0002be 4C82          MOV.W     r12,&shutdown_power_level_digit2+0 ; [] |261| 
         0002c0 0000!
    3136 0002c2 4D82          MOV.W     r13,&shutdown_power_level_digit2+2 ; [] |261| 
         0002c4 0002!
MSP430 Assembler PC v21.6.1 Tue Dec 20 13:59:32 2022

Copyright (c) 2003-2018 Texas Instruments Incorporated
Momentary_Switch.asm                                                 PAGE   62

    3137                    .dwpsn  file "../src/Momentary_Switch.c",line 262,column 8,is_stmt,isa 0
    3138 0002c6 421C          MOV.W     &shutdown_power_level+0,r12 ; [] |262| 
         0002c8 0000!
    3139 0002ca 421D          MOV.W     &shutdown_power_level+2,r13 ; [] |262| 
         0002cc 0002!
    3140 0002ce 430E          MOV.W     #0,r14                ; [] |262| 
    3141 0002d0 403F          MOV.W     #16672,r15            ; [] |262| 
         0002d2 4120 
    3142            $C$DW$157       .dwtag  DW_TAG_TI_branch
    3143                    .dwattr $C$DW$157, DW_AT_low_pc(0x00)
    3144                    .dwattr $C$DW$157, DW_AT_name("__mspabi_mpyf")
    3145                    .dwattr $C$DW$157, DW_AT_TI_call
    3146            
    3147 0002d4 13B0!         CALLA     #__mspabi_mpyf        ; [] |262| 
         0002d6 0000 
    3148                                                      ; [] |262| 
    3149            ;* --------------------------------------------------------------------------*
    3150            $C$DW$158       .dwtag  DW_TAG_TI_branch
    3151                    .dwattr $C$DW$158, DW_AT_low_pc(0x00)
    3152                    .dwattr $C$DW$158, DW_AT_name("__mspabi_fixfi")
    3153                    .dwattr $C$DW$158, DW_AT_TI_call
    3154            
    3155 0002d8 13B0!         CALLA     #__mspabi_fixfi       ; [] |262| 
         0002da 0000 
    3156                                                      ; [] |262| 
    3157 0002dc 403D          MOV.W     #10,r13               ; [] |262| 
         0002de 000A 
    3158            $C$DW$159       .dwtag  DW_TAG_TI_branch
    3159                    .dwattr $C$DW$159, DW_AT_low_pc(0x00)
    3160                    .dwattr $C$DW$159, DW_AT_name("__mspabi_remi")
    3161                    .dwattr $C$DW$159, DW_AT_TI_call
    3162            
    3163 0002e0 13B0!         CALLA     #__mspabi_remi        ; [] |262| 
         0002e2 0000 
    3164                                                      ; [] |262| 
    3165 0002e4 0ECC          MOVA      r14,r12               ; [] |262| 
    3166            $C$DW$160       .dwtag  DW_TAG_TI_branch
    3167                    .dwattr $C$DW$160, DW_AT_low_pc(0x00)
    3168                    .dwattr $C$DW$160, DW_AT_name("__mspabi_fltif")
    3169                    .dwattr $C$DW$160, DW_AT_TI_call
    3170            
    3171 0002e6 13B0!         CALLA     #__mspabi_fltif       ; [] |262| 
         0002e8 0000 
    3172                                                      ; [] |262| 
    3173 0002ea 4C82          MOV.W     r12,&shutdown_power_level_digit3+0 ; [] |262| 
         0002ec 0000!
    3174 0002ee 4D82          MOV.W     r13,&shutdown_power_level_digit3+2 ; [] |262| 
         0002f0 0002!
    3175                    .dwpsn  file "../src/Momentary_Switch.c",line 263,column 8,is_stmt,isa 0
    3176 0002f2 421C          MOV.W     &shutdown_time+0,r12  ; [] |263| 
         0002f4 0000!
    3177 0002f6 403D          MOV.W     #100,r13              ; [] |263| 
         0002f8 0064 
    3178            $C$DW$161       .dwtag  DW_TAG_TI_branch
    3179                    .dwattr $C$DW$161, DW_AT_low_pc(0x00)
MSP430 Assembler PC v21.6.1 Tue Dec 20 13:59:32 2022

Copyright (c) 2003-2018 Texas Instruments Incorporated
Momentary_Switch.asm                                                 PAGE   63

    3180                    .dwattr $C$DW$161, DW_AT_name("__mspabi_divi")
    3181                    .dwattr $C$DW$161, DW_AT_TI_call
    3182            
    3183 0002fa 13B0!         CALLA     #__mspabi_divi        ; [] |263| 
         0002fc 0000 
    3184                                                      ; [] |263| 
    3185 0002fe 403D          MOV.W     #10,r13               ; [] |263| 
         000300 000A 
    3186            $C$DW$162       .dwtag  DW_TAG_TI_branch
    3187                    .dwattr $C$DW$162, DW_AT_low_pc(0x00)
    3188                    .dwattr $C$DW$162, DW_AT_name("__mspabi_remi")
    3189                    .dwattr $C$DW$162, DW_AT_TI_call
    3190            
    3191 000302 13B0!         CALLA     #__mspabi_remi        ; [] |263| 
         000304 0000 
    3192                                                      ; [] |263| 
    3193 000306 4E82          MOV.W     r14,&shutdown_time_hundred_minutes+0 ; [] |263| 
         000308 0000!
    3194                    .dwpsn  file "../src/Momentary_Switch.c",line 264,column 8,is_stmt,isa 0
    3195 00030a 421C          MOV.W     &shutdown_time+0,r12  ; [] |264| 
         00030c 0000!
    3196 00030e 403D          MOV.W     #10,r13               ; [] |264| 
         000310 000A 
    3197            $C$DW$163       .dwtag  DW_TAG_TI_branch
    3198                    .dwattr $C$DW$163, DW_AT_low_pc(0x00)
    3199                    .dwattr $C$DW$163, DW_AT_name("__mspabi_divi")
    3200                    .dwattr $C$DW$163, DW_AT_TI_call
    3201            
    3202 000312 13B0!         CALLA     #__mspabi_divi        ; [] |264| 
         000314 0000 
    3203                                                      ; [] |264| 
    3204 000316 403D          MOV.W     #10,r13               ; [] |264| 
         000318 000A 
    3205            $C$DW$164       .dwtag  DW_TAG_TI_branch
    3206                    .dwattr $C$DW$164, DW_AT_low_pc(0x00)
    3207                    .dwattr $C$DW$164, DW_AT_name("__mspabi_remi")
    3208                    .dwattr $C$DW$164, DW_AT_TI_call
    3209            
    3210 00031a 13B0!         CALLA     #__mspabi_remi        ; [] |264| 
         00031c 0000 
    3211                                                      ; [] |264| 
    3212 00031e 4E82          MOV.W     r14,&shutdown_time_ten_minutes+0 ; [] |264| 
         000320 0000!
    3213                    .dwpsn  file "../src/Momentary_Switch.c",line 265,column 8,is_stmt,isa 0
    3214 000322 421C          MOV.W     &shutdown_time+0,r12  ; [] |265| 
         000324 0000!
    3215 000326 403D          MOV.W     #10,r13               ; [] |265| 
         000328 000A 
    3216            $C$DW$165       .dwtag  DW_TAG_TI_branch
    3217                    .dwattr $C$DW$165, DW_AT_low_pc(0x00)
    3218                    .dwattr $C$DW$165, DW_AT_name("__mspabi_remi")
    3219                    .dwattr $C$DW$165, DW_AT_TI_call
    3220            
    3221 00032a 13B0!         CALLA     #__mspabi_remi        ; [] |265| 
         00032c 0000 
MSP430 Assembler PC v21.6.1 Tue Dec 20 13:59:32 2022

Copyright (c) 2003-2018 Texas Instruments Incorporated
Momentary_Switch.asm                                                 PAGE   64

    3222                                                      ; [] |265| 
    3223 00032e 4E82          MOV.W     r14,&shutdown_time_one_minutes+0 ; [] |265| 
         000330 0000!
    3224                    .dwpsn  file "../src/Momentary_Switch.c",line 267,column 8,is_stmt,isa 0
    3225 000332 4292          MOV.W     &shutdown_time_hundred_minutes+0,&shutdown_time_hundred_minutes_temp+0 ; [] |267| 
         000334 0000!
         000336 0000!
    3226                    .dwpsn  file "../src/Momentary_Switch.c",line 268,column 8,is_stmt,isa 0
    3227 000338 4292          MOV.W     &shutdown_time_ten_minutes+0,&shutdown_time_ten_minutes_temp+0 ; [] |268| 
         00033a 0000!
         00033c 0000!
    3228                    .dwpsn  file "../src/Momentary_Switch.c",line 269,column 8,is_stmt,isa 0
    3229 00033e 4292          MOV.W     &shutdown_time_one_minutes+0,&shutdown_time_one_minutes_temp+0 ; [] |269| 
         000340 0000!
         000342 0000!
    3230                    .dwpsn  file "../src/Momentary_Switch.c",line 270,column 8,is_stmt,isa 0
    3231 000344 421C          MOV.W     &Auto_sleep_V+0,r12   ; [] |270| 
         000346 0000!
    3232 000348 421D          MOV.W     &Auto_sleep_V+2,r13   ; [] |270| 
         00034a 0002!
    3233            $C$DW$166       .dwtag  DW_TAG_TI_branch
    3234                    .dwattr $C$DW$166, DW_AT_low_pc(0x00)
    3235                    .dwattr $C$DW$166, DW_AT_name("__mspabi_fixfi")
    3236                    .dwattr $C$DW$166, DW_AT_TI_call
    3237            
    3238 00034c 13B0!         CALLA     #__mspabi_fixfi       ; [] |270| 
         00034e 0000 
    3239                                                      ; [] |270| 
    3240 000350 403D          MOV.W     #10,r13               ; [] |270| 
         000352 000A 
    3241            $C$DW$167       .dwtag  DW_TAG_TI_branch
    3242                    .dwattr $C$DW$167, DW_AT_low_pc(0x00)
    3243                    .dwattr $C$DW$167, DW_AT_name("__mspabi_divi")
    3244                    .dwattr $C$DW$167, DW_AT_TI_call
    3245            
    3246 000354 13B0!         CALLA     #__mspabi_divi        ; [] |270| 
         000356 0000 
    3247                                                      ; [] |270| 
    3248            ;* --------------------------------------------------------------------------*
    3249 000358 403D          MOV.W     #10,r13               ; [] |270| 
         00035a 000A 
    3250            $C$DW$168       .dwtag  DW_TAG_TI_branch
    3251                    .dwattr $C$DW$168, DW_AT_low_pc(0x00)
    3252                    .dwattr $C$DW$168, DW_AT_name("__mspabi_remi")
    3253                    .dwattr $C$DW$168, DW_AT_TI_call
    3254            
    3255 00035c 13B0!         CALLA     #__mspabi_remi        ; [] |270| 
         00035e 0000 
    3256                                                      ; [] |270| 
    3257 000360 0ECC          MOVA      r14,r12               ; [] |270| 
    3258            $C$DW$169       .dwtag  DW_TAG_TI_branch
    3259                    .dwattr $C$DW$169, DW_AT_low_pc(0x00)
    3260                    .dwattr $C$DW$169, DW_AT_name("__mspabi_fltif")
    3261                    .dwattr $C$DW$169, DW_AT_TI_call
    3262            
MSP430 Assembler PC v21.6.1 Tue Dec 20 13:59:32 2022

Copyright (c) 2003-2018 Texas Instruments Incorporated
Momentary_Switch.asm                                                 PAGE   65

    3263 000362 13B0!         CALLA     #__mspabi_fltif       ; [] |270| 
         000364 0000 
    3264                                                      ; [] |270| 
    3265 000366 4C82          MOV.W     r12,&Auto_sleep_V_digit1+0 ; [] |270| 
         000368 0000!
    3266 00036a 4D82          MOV.W     r13,&Auto_sleep_V_digit1+2 ; [] |270| 
         00036c 0002!
    3267                    .dwpsn  file "../src/Momentary_Switch.c",line 271,column 8,is_stmt,isa 0
    3268 00036e 421C          MOV.W     &Auto_sleep_V+0,r12   ; [] |271| 
         000370 0000!
    3269 000372 421D          MOV.W     &Auto_sleep_V+2,r13   ; [] |271| 
         000374 0002!
    3270            $C$DW$170       .dwtag  DW_TAG_TI_branch
    3271                    .dwattr $C$DW$170, DW_AT_low_pc(0x00)
    3272                    .dwattr $C$DW$170, DW_AT_name("__mspabi_fixfi")
    3273                    .dwattr $C$DW$170, DW_AT_TI_call
    3274            
    3275 000376 13B0!         CALLA     #__mspabi_fixfi       ; [] |271| 
         000378 0000 
    3276                                                      ; [] |271| 
    3277 00037a 403D          MOV.W     #10,r13               ; [] |271| 
         00037c 000A 
    3278            $C$DW$171       .dwtag  DW_TAG_TI_branch
    3279                    .dwattr $C$DW$171, DW_AT_low_pc(0x00)
    3280                    .dwattr $C$DW$171, DW_AT_name("__mspabi_remi")
    3281                    .dwattr $C$DW$171, DW_AT_TI_call
    3282            
    3283 00037e 13B0!         CALLA     #__mspabi_remi        ; [] |271| 
         000380 0000 
    3284                                                      ; [] |271| 
    3285 000382 0ECC          MOVA      r14,r12               ; [] |271| 
    3286            $C$DW$172       .dwtag  DW_TAG_TI_branch
    3287                    .dwattr $C$DW$172, DW_AT_low_pc(0x00)
    3288                    .dwattr $C$DW$172, DW_AT_name("__mspabi_fltif")
    3289                    .dwattr $C$DW$172, DW_AT_TI_call
    3290            
    3291 000384 13B0!         CALLA     #__mspabi_fltif       ; [] |271| 
         000386 0000 
    3292                                                      ; [] |271| 
