MSP430 Assembler PC v21.6.1 Tue Dec 20 13:46:02 2022

Copyright (c) 2003-2018 Texas Instruments Incorporated
Output_Voltage_Set.asm                                               PAGE    1

       1            ;******************************************************************************
       2            ;* MSP430 G3 C/C++ Codegen                                              PC v21.6.1.LTS *
       3            ;* Date/Time created: Tue Dec 20 13:46:01 2022                                *
       4            ;******************************************************************************
       5                    .compiler_opts --abi=eabi --diag_wrap=off --hll_source=on --mem_model:code=large --mem_model:d
       6            
       7            $C$DW$CU        .dwtag  DW_TAG_compile_unit
       8                    .dwattr $C$DW$CU, DW_AT_name("../src/Output_Voltage_Set.c")
       9                    .dwattr $C$DW$CU, DW_AT_producer("TI MSP430 G3 C/C++ Codegen PC v21.6.1.LTS Copyright (c) 2003
      10                    .dwattr $C$DW$CU, DW_AT_TI_version(0x01)
      11                    .dwattr $C$DW$CU, DW_AT_comp_dir("C:\Users\MCourson\workspace_v11\MZERO_HB50Board\Debug")
      12            $C$DW$1 .dwtag  DW_TAG_variable
      13                    .dwattr $C$DW$1, DW_AT_name("FCTL1")
      14                    .dwattr $C$DW$1, DW_AT_TI_symbol_name("FCTL1")
      15                    .dwattr $C$DW$1, DW_AT_type(*$C$DW$T$114)
      16                    .dwattr $C$DW$1, DW_AT_declaration
      17                    .dwattr $C$DW$1, DW_AT_external
      18                    .dwattr $C$DW$1, DW_AT_decl_file("C:\ti\ccs1110\ccs\ccs_base\msp430\include\msp430f5438a.h")
      19                    .dwattr $C$DW$1, DW_AT_decl_line(0x381)
      20                    .dwattr $C$DW$1, DW_AT_decl_column(0x01)
      21            
      22            $C$DW$2 .dwtag  DW_TAG_variable
      23                    .dwattr $C$DW$2, DW_AT_name("FCTL3")
      24                    .dwattr $C$DW$2, DW_AT_TI_symbol_name("FCTL3")
      25                    .dwattr $C$DW$2, DW_AT_type(*$C$DW$T$114)
      26                    .dwattr $C$DW$2, DW_AT_declaration
      27                    .dwattr $C$DW$2, DW_AT_external
      28                    .dwattr $C$DW$2, DW_AT_decl_file("C:\ti\ccs1110\ccs\ccs_base\msp430\include\msp430f5438a.h")
      29                    .dwattr $C$DW$2, DW_AT_decl_line(0x385)
      30                    .dwattr $C$DW$2, DW_AT_decl_column(0x01)
      31            
      32            $C$DW$3 .dwtag  DW_TAG_variable
      33                    .dwattr $C$DW$3, DW_AT_name("PDOUT_H")
      34                    .dwattr $C$DW$3, DW_AT_TI_symbol_name("PDOUT_H")
      35                    .dwattr $C$DW$3, DW_AT_type(*$C$DW$T$87)
      36                    .dwattr $C$DW$3, DW_AT_declaration
      37                    .dwattr $C$DW$3, DW_AT_external
      38                    .dwattr $C$DW$3, DW_AT_decl_file("C:\ti\ccs1110\ccs\ccs_base\msp430\include\msp430f5438a.h")
      39                    .dwattr $C$DW$3, DW_AT_decl_line(0x51e)
      40                    .dwattr $C$DW$3, DW_AT_decl_column(0x01)
      41            
      42            $C$DW$4 .dwtag  DW_TAG_variable
      43                    .dwattr $C$DW$4, DW_AT_name("PEOUT_H")
      44                    .dwattr $C$DW$4, DW_AT_TI_symbol_name("PEOUT_H")
      45                    .dwattr $C$DW$4, DW_AT_type(*$C$DW$T$87)
      46                    .dwattr $C$DW$4, DW_AT_declaration
      47                    .dwattr $C$DW$4, DW_AT_external
      48                    .dwattr $C$DW$4, DW_AT_decl_file("C:\ti\ccs1110\ccs\ccs_base\msp430\include\msp430f5438a.h")
      49                    .dwattr $C$DW$4, DW_AT_decl_line(0x551)
      50                    .dwattr $C$DW$4, DW_AT_decl_column(0x01)
      51            
      52            $C$DW$5 .dwtag  DW_TAG_variable
      53                    .dwattr $C$DW$5, DW_AT_name("WDTCTL")
      54                    .dwattr $C$DW$5, DW_AT_TI_symbol_name("WDTCTL")
      55                    .dwattr $C$DW$5, DW_AT_type(*$C$DW$T$114)
MSP430 Assembler PC v21.6.1 Tue Dec 20 13:46:02 2022

Copyright (c) 2003-2018 Texas Instruments Incorporated
Output_Voltage_Set.asm                                               PAGE    2

      56                    .dwattr $C$DW$5, DW_AT_declaration
      57                    .dwattr $C$DW$5, DW_AT_external
      58                    .dwattr $C$DW$5, DW_AT_decl_file("C:\ti\ccs1110\ccs\ccs_base\msp430\include\msp430f5438a.h")
      59                    .dwattr $C$DW$5, DW_AT_decl_line(0xe94)
      60                    .dwattr $C$DW$5, DW_AT_decl_column(0x01)
      61            
      62                    .global mode
      63                    .common mode,2,2
      64            $C$DW$6 .dwtag  DW_TAG_variable
      65                    .dwattr $C$DW$6, DW_AT_name("mode")
      66                    .dwattr $C$DW$6, DW_AT_TI_symbol_name("mode")
      67                    .dwattr $C$DW$6, DW_AT_location[DW_OP_addr mode]
      68                    .dwattr $C$DW$6, DW_AT_type(*$C$DW$T$54)
      69                    .dwattr $C$DW$6, DW_AT_external
      70                    .dwattr $C$DW$6, DW_AT_decl_file("C:/Users/MCourson/workspace_v11/MZERO_HB50Board/include/Main
      71                    .dwattr $C$DW$6, DW_AT_decl_line(0x65)
      72                    .dwattr $C$DW$6, DW_AT_decl_column(0x07)
      73            
      74                    .global FCState
      75                    .common FCState,2,2
      76            $C$DW$7 .dwtag  DW_TAG_variable
      77                    .dwattr $C$DW$7, DW_AT_name("FCState")
      78                    .dwattr $C$DW$7, DW_AT_TI_symbol_name("FCState")
      79                    .dwattr $C$DW$7, DW_AT_location[DW_OP_addr FCState]
      80                    .dwattr $C$DW$7, DW_AT_type(*$C$DW$T$56)
      81                    .dwattr $C$DW$7, DW_AT_external
      82                    .dwattr $C$DW$7, DW_AT_decl_file("C:/Users/MCourson/workspace_v11/MZERO_HB50Board/include/Main
      83                    .dwattr $C$DW$7, DW_AT_decl_line(0x6d)
      84                    .dwattr $C$DW$7, DW_AT_decl_column(0x0a)
      85            
      86                    .global msgstatus
      87                    .common msgstatus,2,2
      88            $C$DW$8 .dwtag  DW_TAG_variable
      89                    .dwattr $C$DW$8, DW_AT_name("msgstatus")
      90                    .dwattr $C$DW$8, DW_AT_TI_symbol_name("msgstatus")
      91                    .dwattr $C$DW$8, DW_AT_location[DW_OP_addr msgstatus]
      92                    .dwattr $C$DW$8, DW_AT_type(*$C$DW$T$58)
      93                    .dwattr $C$DW$8, DW_AT_external
      94                    .dwattr $C$DW$8, DW_AT_decl_file("C:/Users/MCourson/workspace_v11/MZERO_HB50Board/include/Main
      95                    .dwattr $C$DW$8, DW_AT_decl_line(0x7c)
      96                    .dwattr $C$DW$8, DW_AT_decl_column(0x0f)
      97            
      98                    .global status
      99                    .common status,2,2
     100            $C$DW$9 .dwtag  DW_TAG_variable
     101                    .dwattr $C$DW$9, DW_AT_name("status")
     102                    .dwattr $C$DW$9, DW_AT_TI_symbol_name("status")
     103                    .dwattr $C$DW$9, DW_AT_location[DW_OP_addr status]
     104                    .dwattr $C$DW$9, DW_AT_type(*$C$DW$T$60)
     105                    .dwattr $C$DW$9, DW_AT_external
     106                    .dwattr $C$DW$9, DW_AT_decl_file("C:/Users/MCourson/workspace_v11/MZERO_HB50Board/include/Main
     107                    .dwattr $C$DW$9, DW_AT_decl_line(0x83)
     108                    .dwattr $C$DW$9, DW_AT_decl_column(0x0e)
     109            
     110            $C$DW$10        .dwtag  DW_TAG_variable
MSP430 Assembler PC v21.6.1 Tue Dec 20 13:46:02 2022

Copyright (c) 2003-2018 Texas Instruments Incorporated
Output_Voltage_Set.asm                                               PAGE    3

     111                    .dwattr $C$DW$10, DW_AT_name("Vtmp")
     112                    .dwattr $C$DW$10, DW_AT_TI_symbol_name("Vtmp")
     113                    .dwattr $C$DW$10, DW_AT_type(*$C$DW$T$16)
     114                    .dwattr $C$DW$10, DW_AT_declaration
     115                    .dwattr $C$DW$10, DW_AT_external
     116                    .dwattr $C$DW$10, DW_AT_decl_file("../src/Output_Voltage_Set.c")
     117                    .dwattr $C$DW$10, DW_AT_decl_line(0x0e)
     118                    .dwattr $C$DW$10, DW_AT_decl_column(0x0e)
     119            
     120            $C$DW$11        .dwtag  DW_TAG_variable
     121                    .dwattr $C$DW$11, DW_AT_name("System_V")
     122                    .dwattr $C$DW$11, DW_AT_TI_symbol_name("System_V")
     123                    .dwattr $C$DW$11, DW_AT_type(*$C$DW$T$16)
     124                    .dwattr $C$DW$11, DW_AT_declaration
     125                    .dwattr $C$DW$11, DW_AT_external
     126                    .dwattr $C$DW$11, DW_AT_decl_file("../src/Output_Voltage_Set.c")
     127                    .dwattr $C$DW$11, DW_AT_decl_line(0x0f)
     128                    .dwattr $C$DW$11, DW_AT_decl_column(0x0e)
     129            
     130            $C$DW$12        .dwtag  DW_TAG_variable
     131                    .dwattr $C$DW$12, DW_AT_name("Output_volts")
     132                    .dwattr $C$DW$12, DW_AT_TI_symbol_name("Output_volts")
     133                    .dwattr $C$DW$12, DW_AT_type(*$C$DW$T$16)
     134                    .dwattr $C$DW$12, DW_AT_declaration
     135                    .dwattr $C$DW$12, DW_AT_external
     136                    .dwattr $C$DW$12, DW_AT_decl_file("../src/Output_Voltage_Set.c")
     137                    .dwattr $C$DW$12, DW_AT_decl_line(0x10)
     138                    .dwattr $C$DW$12, DW_AT_decl_column(0x0e)
     139            
     140                    .global Rdata0
     141                    .common Rdata0,1,1
     142            $C$DW$13        .dwtag  DW_TAG_variable
     143                    .dwattr $C$DW$13, DW_AT_name("Rdata0")
     144                    .dwattr $C$DW$13, DW_AT_TI_symbol_name("Rdata0")
     145                    .dwattr $C$DW$13, DW_AT_location[DW_OP_addr Rdata0]
     146                    .dwattr $C$DW$13, DW_AT_type(*$C$DW$T$24)
     147                    .dwattr $C$DW$13, DW_AT_external
     148                    .dwattr $C$DW$13, DW_AT_decl_file("../src/Output_Voltage_Set.c")
     149                    .dwattr $C$DW$13, DW_AT_decl_line(0x14)
     150                    .dwattr $C$DW$13, DW_AT_decl_column(0x09)
     151            
     152                    .global Rdata0_min
     153                    .common Rdata0_min,1,1
     154            $C$DW$14        .dwtag  DW_TAG_variable
     155                    .dwattr $C$DW$14, DW_AT_name("Rdata0_min")
     156                    .dwattr $C$DW$14, DW_AT_TI_symbol_name("Rdata0_min")
     157                    .dwattr $C$DW$14, DW_AT_location[DW_OP_addr Rdata0_min]
     158                    .dwattr $C$DW$14, DW_AT_type(*$C$DW$T$24)
     159                    .dwattr $C$DW$14, DW_AT_external
     160                    .dwattr $C$DW$14, DW_AT_decl_file("../src/Output_Voltage_Set.c")
     161                    .dwattr $C$DW$14, DW_AT_decl_line(0x15)
     162                    .dwattr $C$DW$14, DW_AT_decl_column(0x09)
     163            
     164                    .global Rdata0_max
     165                    .common Rdata0_max,1,1
MSP430 Assembler PC v21.6.1 Tue Dec 20 13:46:02 2022

Copyright (c) 2003-2018 Texas Instruments Incorporated
Output_Voltage_Set.asm                                               PAGE    4

     166            $C$DW$15        .dwtag  DW_TAG_variable
     167                    .dwattr $C$DW$15, DW_AT_name("Rdata0_max")
     168                    .dwattr $C$DW$15, DW_AT_TI_symbol_name("Rdata0_max")
     169                    .dwattr $C$DW$15, DW_AT_location[DW_OP_addr Rdata0_max]
     170                    .dwattr $C$DW$15, DW_AT_type(*$C$DW$T$24)
     171                    .dwattr $C$DW$15, DW_AT_external
     172                    .dwattr $C$DW$15, DW_AT_decl_file("../src/Output_Voltage_Set.c")
     173                    .dwattr $C$DW$15, DW_AT_decl_line(0x16)
     174                    .dwattr $C$DW$15, DW_AT_decl_column(0x09)
     175            
     176            $C$DW$16        .dwtag  DW_TAG_variable
     177                    .dwattr $C$DW$16, DW_AT_name("OutputV_Setpoint")
     178                    .dwattr $C$DW$16, DW_AT_TI_symbol_name("OutputV_Setpoint")
     179                    .dwattr $C$DW$16, DW_AT_type(*$C$DW$T$16)
     180                    .dwattr $C$DW$16, DW_AT_declaration
     181                    .dwattr $C$DW$16, DW_AT_external
     182                    .dwattr $C$DW$16, DW_AT_decl_file("../src/Output_Voltage_Set.c")
     183                    .dwattr $C$DW$16, DW_AT_decl_line(0x18)
     184                    .dwattr $C$DW$16, DW_AT_decl_column(0x0e)
     185            
     186            
     187            $C$DW$17        .dwtag  DW_TAG_subprogram
     188                    .dwattr $C$DW$17, DW_AT_name("__disable_interrupt")
     189                    .dwattr $C$DW$17, DW_AT_TI_symbol_name("__disable_interrupt")
     190                    .dwattr $C$DW$17, DW_AT_declaration
     191                    .dwattr $C$DW$17, DW_AT_external
     192                    .dwendtag $C$DW$17
     193            
     194            
     195            $C$DW$18        .dwtag  DW_TAG_subprogram
     196                    .dwattr $C$DW$18, DW_AT_name("__enable_interrupt")
     197                    .dwattr $C$DW$18, DW_AT_TI_symbol_name("__enable_interrupt")
     198                    .dwattr $C$DW$18, DW_AT_declaration
     199                    .dwattr $C$DW$18, DW_AT_external
     200                    .dwendtag $C$DW$18
     201            
     202            ;       C:\ti\ccs1110\ccs\tools\compiler\ti-cgt-msp430_21.6.1.LTS\bin\opt430.exe C:\\Users\\MCourson\\
     203 000000               .sect   ".text:setVout"
     204                    .clink
     205                    .global setVout
     206            
     207            $C$DW$19        .dwtag  DW_TAG_subprogram
     208                    .dwattr $C$DW$19, DW_AT_name("setVout")
     209                    .dwattr $C$DW$19, DW_AT_low_pc(setVout)
     210                    .dwattr $C$DW$19, DW_AT_high_pc(0x00)
     211                    .dwattr $C$DW$19, DW_AT_TI_symbol_name("setVout")
     212                    .dwattr $C$DW$19, DW_AT_external
     213                    .dwattr $C$DW$19, DW_AT_TI_begin_file("../src/Output_Voltage_Set.c")
     214                    .dwattr $C$DW$19, DW_AT_TI_begin_line(0x26)
     215                    .dwattr $C$DW$19, DW_AT_TI_begin_column(0x06)
     216                    .dwattr $C$DW$19, DW_AT_decl_file("../src/Output_Voltage_Set.c")
     217                    .dwattr $C$DW$19, DW_AT_decl_line(0x26)
     218                    .dwattr $C$DW$19, DW_AT_decl_column(0x06)
     219                    .dwattr $C$DW$19, DW_AT_TI_max_frame_size(0x26)
     220                    .dwpsn  file "../src/Output_Voltage_Set.c",line 39,column 1,is_stmt,address setVout,isa 0
MSP430 Assembler PC v21.6.1 Tue Dec 20 13:46:02 2022

Copyright (c) 2003-2018 Texas Instruments Incorporated
Output_Voltage_Set.asm                                               PAGE    5

     221            
     222                    .dwfde $C$DW$CIE, setVout
     223            $C$DW$20        .dwtag  DW_TAG_formal_parameter
     224                    .dwattr $C$DW$20, DW_AT_name("Vout")
     225                    .dwattr $C$DW$20, DW_AT_TI_symbol_name("Vout")
     226                    .dwattr $C$DW$20, DW_AT_type(*$C$DW$T$16)
     227                    .dwattr $C$DW$20, DW_AT_location[DW_OP_reg12 DW_OP_piece 2 DW_OP_reg13 DW_OP_piece 2]
     228            
     229            
     230            ;*****************************************************************************
     231            ;* FUNCTION NAME: setVout                                                    *
     232            ;*                                                                           *
     233            ;*   Regs Modified     : SP,SR,r4,r5,r6,r7,r8,r9,r10,r11,r12,r13,r14,r15     *
     234            ;*   Regs Used         : SP,SR,r4,r5,r6,r7,r8,r9,r10,r11,r12,r13,r14,r15     *
     235            ;*   Local Frame Size  : 0 Args + 6 Auto + 28 Save = 34 byte                 *
     236            ;*****************************************************************************
     237 000000       setVout:
     238            ;* --------------------------------------------------------------------------*
     239                    .dwcfi  cfa_offset, 4
     240                    .dwcfi  save_reg_to_mem, 16, -4
     241 000000 146A          PUSHM.A   #7,r10                ; [] 
     242                    .dwcfi  save_reg_to_mem, 10, -8
     243                    .dwcfi  save_reg_to_mem, 9, -12
     244                    .dwcfi  save_reg_to_mem, 8, -16
     245                    .dwcfi  save_reg_to_mem, 7, -20
     246                    .dwcfi  save_reg_to_mem, 6, -24
     247                    .dwcfi  save_reg_to_mem, 5, -28
     248                    .dwcfi  save_reg_to_mem, 4, -32
     249                    .dwcfi  cfa_offset, 32
     250 000002 00B1          SUBA      #6,SP                 ; [] 
         000004 0006 
     251                    .dwcfi  cfa_offset, 38
     252            $C$DW$21        .dwtag  DW_TAG_variable
     253                    .dwattr $C$DW$21, DW_AT_name("Vout")
     254                    .dwattr $C$DW$21, DW_AT_TI_symbol_name("Vout")
     255                    .dwattr $C$DW$21, DW_AT_type(*$C$DW$T$16)
     256                    .dwattr $C$DW$21, DW_AT_location[DW_OP_breg1 0]
     257            
     258            ;* r12   assigned to Rdata
     259            $C$DW$22        .dwtag  DW_TAG_variable
     260                    .dwattr $C$DW$22, DW_AT_name("Rdata")
     261                    .dwattr $C$DW$22, DW_AT_TI_symbol_name("Rdata")
     262                    .dwattr $C$DW$22, DW_AT_type(*$C$DW$T$24)
     263                    .dwattr $C$DW$22, DW_AT_location[DW_OP_reg12]
     264            
     265            ;* r9    assigned to Rtemp
     266            $C$DW$23        .dwtag  DW_TAG_variable
     267                    .dwattr $C$DW$23, DW_AT_name("Rtemp")
     268                    .dwattr $C$DW$23, DW_AT_TI_symbol_name("Rtemp")
     269                    .dwattr $C$DW$23, DW_AT_type(*$C$DW$T$16)
     270                    .dwattr $C$DW$23, DW_AT_location[DW_OP_reg9 DW_OP_piece 2 DW_OP_reg10 DW_OP_piece 2]
     271            
     272            ;* r15   assigned to z2
     273            $C$DW$24        .dwtag  DW_TAG_variable
     274                    .dwattr $C$DW$24, DW_AT_name("z2")
MSP430 Assembler PC v21.6.1 Tue Dec 20 13:46:02 2022

Copyright (c) 2003-2018 Texas Instruments Incorporated
Output_Voltage_Set.asm                                               PAGE    6

     275                    .dwattr $C$DW$24, DW_AT_TI_symbol_name("z2")
     276                    .dwattr $C$DW$24, DW_AT_type(*$C$DW$T$10)
     277                    .dwattr $C$DW$24, DW_AT_location[DW_OP_reg15]
     278            
     279            ;* r14   assigned to z3
     280            $C$DW$25        .dwtag  DW_TAG_variable
     281                    .dwattr $C$DW$25, DW_AT_name("z3")
     282                    .dwattr $C$DW$25, DW_AT_TI_symbol_name("z3")
     283                    .dwattr $C$DW$25, DW_AT_type(*$C$DW$T$11)
     284                    .dwattr $C$DW$25, DW_AT_location[DW_OP_reg14]
     285            
     286 000006 4C81          MOV.W     r12,0(SP)             ; [] 
         000008 0000 
     287 00000a 4D81          MOV.W     r13,2(SP)             ; [] 
         00000c 0002 
     288                    .dwpsn  file "../src/Output_Voltage_Set.c",line 41,column 3,is_stmt,isa 0
     289 00000e C3E2          BIC.B     #2,&PDOUT_H+0         ; [] |41| 
         000010 0000!
     290                    .dwpsn  file "../src/Output_Voltage_Set.c",line 46,column 3,is_stmt,isa 0
     291 000012 430C          MOV.W     #0,r12                ; [] |46| 
     292 000014 403D          MOV.W     #16256,r13            ; [] |46| 
         000016 3F80 
     293 000018 412E          MOV.W     0(SP),r14             ; [] 
     294 00001a 411F          MOV.W     2(SP),r15             ; [] 
         00001c 0002 
     295            $C$DW$26        .dwtag  DW_TAG_TI_branch
     296                    .dwattr $C$DW$26, DW_AT_low_pc(0x00)
     297                    .dwattr $C$DW$26, DW_AT_name("__mspabi_cmpf")
     298                    .dwattr $C$DW$26, DW_AT_TI_call
     299            
     300 00001e 13B0!         CALLA     #__mspabi_cmpf        ; [] |46| 
         000020 0000 
     301                                                      ; [] |46| 
     302 000022 930C          TST.W     r12                   ; [] |46| 
     303 000024 386B          JL        $C$L6                 ; [] |46| 
     304                                                      ; [] |46| 
     305            ;* --------------------------------------------------------------------------*
     306                    .dwpsn  file "../src/Output_Voltage_Set.c",line 76,column 5,is_stmt,isa 0
     307 000026 412C          MOV.W     0(SP),r12             ; [] 
     308 000028 411D          MOV.W     2(SP),r13             ; [] 
         00002a 0002 
     309 00002c 430E          MOV.W     #0,r14                ; [] |76| 
     310 00002e 403F          MOV.W     #16256,r15            ; [] |76| 
         000030 3F80 
     311            $C$DW$27        .dwtag  DW_TAG_TI_branch
     312                    .dwattr $C$DW$27, DW_AT_low_pc(0x00)
     313                    .dwattr $C$DW$27, DW_AT_name("__mspabi_cmpf")
     314                    .dwattr $C$DW$27, DW_AT_TI_call
     315            
     316 000032 13B0!         CALLA     #__mspabi_cmpf        ; [] |76| 
         000034 0000 
     317                                                      ; [] |76| 
     318 000036 930C          TST.W     r12                   ; [] |76| 
     319 000038 2411          JEQ       $C$L1                 ; [] |76| 
     320                                                      ; [] |76| 
MSP430 Assembler PC v21.6.1 Tue Dec 20 13:46:02 2022

Copyright (c) 2003-2018 Texas Instruments Incorporated
Output_Voltage_Set.asm                                               PAGE    7

     321            ;* --------------------------------------------------------------------------*
     322                    .dwpsn  file "../src/Output_Voltage_Set.c",line 92,column 10,is_stmt,isa 0
     323 00003a 430C          MOV.W     #0,r12                ; [] |92| 
     324 00003c 403D          MOV.W     #49024,r13            ; [] |92| 
         00003e BF80 
     325 000040 412E          MOV.W     0(SP),r14             ; [] 
     326 000042 411F          MOV.W     2(SP),r15             ; [] 
         000044 0002 
     327            $C$DW$28        .dwtag  DW_TAG_TI_branch
     328                    .dwattr $C$DW$28, DW_AT_low_pc(0x00)
     329                    .dwattr $C$DW$28, DW_AT_name("__mspabi_cmpf")
     330                    .dwattr $C$DW$28, DW_AT_TI_call
     331            
     332 000046 13B0!         CALLA     #__mspabi_cmpf        ; [] |92| 
         000048 0000 
     333                                                      ; [] |92| 
     334 00004a 930C          TST.W     r12                   ; [] |92| 
     335 00004c 3854          JL        $C$L5                 ; [] |92| 
     336                                                      ; [] |92| 
     337            ;* --------------------------------------------------------------------------*
     338 00004e 92D2          CMP.B     &Rdata0_max+0,&Rdata0+0 ; [] |92| 
         000050 0000!
         000052 0000!
     339 000054 2C50          JHS       $C$L5                 ; [] |92| 
     340                                                      ; [] |92| 
     341            ;* --------------------------------------------------------------------------*
     342                    .dwpsn  file "../src/Output_Voltage_Set.c",line 95,column 33,is_stmt,isa 0
     343 000056 53D2          ADD.B     #1,&Rdata0+0          ; [] |95| 
         000058 0000!
     344 00005a 3C4D          JMP       $C$L5                 ; [] |95| 
     345                                                      ; [] |95| 
     346            ;* --------------------------------------------------------------------------*
     347 00005c       $C$L1:    
     348                    .dwpsn  file "../src/Output_Voltage_Set.c",line 78,column 9,is_stmt,isa 0
     349 00005c 430C          MOV.W     #0,r12                ; [] |78| 
     350 00005e 430D          MOV.W     #0,r13                ; [] |78| 
     351 000060 421E          MOV.W     &Vtmp+0,r14           ; [] |78| 
         000062 0000!
     352 000064 421F          MOV.W     &Vtmp+2,r15           ; [] |78| 
         000066 0002!
     353            $C$DW$29        .dwtag  DW_TAG_TI_branch
     354                    .dwattr $C$DW$29, DW_AT_low_pc(0x00)
     355                    .dwattr $C$DW$29, DW_AT_name("__mspabi_cmpf")
     356                    .dwattr $C$DW$29, DW_AT_TI_call
     357            
     358 000068 13B0!         CALLA     #__mspabi_cmpf        ; [] |78| 
         00006a 0000 
     359                                                      ; [] |78| 
     360 00006c 930C          TST.W     r12                   ; [] |78| 
     361 00006e 380F          JL        $C$L2                 ; [] |78| 
     362                                                      ; [] |78| 
     363            ;* --------------------------------------------------------------------------*
     364                    .dwpsn  file "../src/Output_Voltage_Set.c",line 86,column 11,is_stmt,isa 0
     365 000070 421C          MOV.W     &Output_volts+0,r12   ; [] |86| 
         000072 0000!
MSP430 Assembler PC v21.6.1 Tue Dec 20 13:46:02 2022

Copyright (c) 2003-2018 Texas Instruments Incorporated
Output_Voltage_Set.asm                                               PAGE    8

     366 000074 421D          MOV.W     &Output_volts+2,r13   ; [] |86| 
         000076 0002!
     367 000078 421E          MOV.W     &System_V+0,r14       ; [] |86| 
         00007a 0000!
     368 00007c 421F          MOV.W     &System_V+2,r15       ; [] |86| 
         00007e 0002!
     369            $C$DW$30        .dwtag  DW_TAG_TI_branch
     370                    .dwattr $C$DW$30, DW_AT_low_pc(0x00)
     371                    .dwattr $C$DW$30, DW_AT_name("__mspabi_cmpf")
     372                    .dwattr $C$DW$30, DW_AT_TI_call
     373            
     374 000080 13B0!         CALLA     #__mspabi_cmpf        ; [] |86| 
         000082 0000 
     375                                                      ; [] |86| 
     376 000084 930C          TST.W     r12                   ; [] |86| 
     377 000086 342B          JGE       $C$L3                 ; [] |86| 
     378                                                      ; [] |86| 
     379            ;* --------------------------------------------------------------------------*
     380                    .dwpsn  file "../src/Output_Voltage_Set.c",line 87,column 14,is_stmt,isa 0
     381 000088 83D2          SUB.B     #1,&Rdata0+0          ; [] |87| 
         00008a 0000!
     382 00008c 3C28          JMP       $C$L3                 ; [] |87| 
     383                                                      ; [] |87| 
     384            ;* --------------------------------------------------------------------------*
     385 00008e       $C$L2:    
     386                    .dwpsn  file "../src/Output_Voltage_Set.c",line 80,column 11,is_stmt,isa 0
     387 00008e 421C          MOV.W     &Output_volts+0,r12   ; [] |80| 
         000090 0000!
     388 000092 421D          MOV.W     &Output_volts+2,r13   ; [] |80| 
         000094 0002!
     389            $C$DW$31        .dwtag  DW_TAG_TI_branch
     390                    .dwattr $C$DW$31, DW_AT_low_pc(0x00)
     391                    .dwattr $C$DW$31, DW_AT_name("__mspabi_cvtfd")
     392                    .dwattr $C$DW$31, DW_AT_TI_call
     393            
     394 000096 13B0!         CALLA     #__mspabi_cvtfd       ; [] |80| 
         000098 0000 
     395                                                      ; [] |80| 
     396 00009a 0CC4          MOVA      r12,r4                ; [] |80| 
     397 00009c 0DC5          MOVA      r13,r5                ; [] |80| 
     398 00009e 0EC6          MOVA      r14,r6                ; [] |80| 
     399 0000a0 0FC7          MOVA      r15,r7                ; [] |80| 
     400 0000a2 421C          MOV.W     &Vtmp+0,r12           ; [] |80| 
         0000a4 0000!
     401 0000a6 421D          MOV.W     &Vtmp+2,r13           ; [] |80| 
         0000a8 0002!
     402            $C$DW$32        .dwtag  DW_TAG_TI_branch
     403                    .dwattr $C$DW$32, DW_AT_low_pc(0x00)
     404                    .dwattr $C$DW$32, DW_AT_name("__mspabi_cvtfd")
     405                    .dwattr $C$DW$32, DW_AT_TI_call
     406            
     407 0000aa 13B0!         CALLA     #__mspabi_cvtfd       ; [] |80| 
         0000ac 0000 
     408                                                      ; [] |80| 
     409 0000ae 0CC8          MOVA      r12,r8                ; [] |80| 
MSP430 Assembler PC v21.6.1 Tue Dec 20 13:46:02 2022

Copyright (c) 2003-2018 Texas Instruments Incorporated
Output_Voltage_Set.asm                                               PAGE    9

     410 0000b0 0DC9          MOVA      r13,r9                ; [] |80| 
     411 0000b2 0ECA          MOVA      r14,r10               ; [] |80| 
     412 0000b4 0FCB          MOVA      r15,r11               ; [] |80| 
     413 0000b6 403C          MOV.W     #18350,r12            ; [] |80| 
         0000b8 47AE 
     414 0000ba 403D          MOV.W     #31457,r13            ; [] |80| 
         0000bc 7AE1 
     415 0000be 403E          MOV.W     #44564,r14            ; [] |80| 
         0000c0 AE14 
     416 0000c2 403F          MOV.W     #16367,r15            ; [] |80| 
         0000c4 3FEF 
     417            $C$DW$33        .dwtag  DW_TAG_TI_branch
     418                    .dwattr $C$DW$33, DW_AT_low_pc(0x00)
     419                    .dwattr $C$DW$33, DW_AT_name("__mspabi_mpyd")
     420                    .dwattr $C$DW$33, DW_AT_TI_call
     421            
     422 0000c6 13B0!         CALLA     #__mspabi_mpyd        ; [] |80| 
         0000c8 0000 
     423                                                      ; [] |80| 
     424 0000ca 04C8          MOVA      r4,r8                 ; [] |80| 
     425 0000cc 05C9          MOVA      r5,r9                 ; [] |80| 
     426 0000ce 06CA          MOVA      r6,r10                ; [] |80| 
     427 0000d0 07CB          MOVA      r7,r11                ; [] |80| 
     428            $C$DW$34        .dwtag  DW_TAG_TI_branch
     429                    .dwattr $C$DW$34, DW_AT_low_pc(0x00)
     430                    .dwattr $C$DW$34, DW_AT_name("__mspabi_cmpd")
     431                    .dwattr $C$DW$34, DW_AT_TI_call
     432            
     433 0000d2 13B0!         CALLA     #__mspabi_cmpd        ; [] |80| 
         0000d4 0000 
     434                                                      ; [] |80| 
     435 0000d6 930C          TST.W     r12                   ; [] |80| 
     436 0000d8 3402          JGE       $C$L3                 ; [] |80| 
     437                                                      ; [] |80| 
     438            ;* --------------------------------------------------------------------------*
     439                    .dwpsn  file "../src/Output_Voltage_Set.c",line 80,column 45,is_stmt,isa 0
     440 0000da 83D2          SUB.B     #1,&Rdata0+0          ; [] |80| 
         0000dc 0000!
     441            ;* --------------------------------------------------------------------------*
     442 0000de       $C$L3:    
     443                    .dwpsn  file "../src/Output_Voltage_Set.c",line 89,column 9,is_stmt,isa 0
     444 0000de 92D2          CMP.B     &Rdata0_min+0,&Rdata0+0 ; [] |89| 
         0000e0 0000!
         0000e2 0000!
     445 0000e4 2C03          JHS       $C$L4                 ; [] |89| 
     446                                                      ; [] |89| 
     447            ;* --------------------------------------------------------------------------*
     448                    .dwpsn  file "../src/Output_Voltage_Set.c",line 89,column 33,is_stmt,isa 0
     449 0000e6 42D2          MOV.B     &Rdata0_min+0,&Rdata0+0 ; [] |89| 
         0000e8 0000!
         0000ea 0000!
     450            ;* --------------------------------------------------------------------------*
     451 0000ec       $C$L4:    
     452                    .dwpsn  file "../src/Output_Voltage_Set.c",line 90,column 9,is_stmt,isa 0
     453 0000ec 93C2          TST.B     &Rdata0+0             ; [] |90| 
MSP430 Assembler PC v21.6.1 Tue Dec 20 13:46:02 2022

Copyright (c) 2003-2018 Texas Instruments Incorporated
Output_Voltage_Set.asm                                               PAGE   10

         0000ee 0000!
     454 0000f0 2002          JNE       $C$L5                 ; [] |90| 
     455                                                      ; [] |90| 
     456            ;* --------------------------------------------------------------------------*
     457                    .dwpsn  file "../src/Output_Voltage_Set.c",line 90,column 24,is_stmt,isa 0
     458 0000f2 43D2          MOV.B     #1,&Rdata0+0          ; [] |90| 
         0000f4 0000!
     459            ;* --------------------------------------------------------------------------*
     460 0000f6       $C$L5:    
     461                    .dwpsn  file "../src/Output_Voltage_Set.c",line 99,column 5,is_stmt,isa 0
     462 0000f6 425C          MOV.B     &Rdata0+0,r12         ; [] |99| 
         0000f8 0000!
     463 0000fa 3D54          JMP       $C$L14                ; [] |99| 
     464                                                      ; [] |99| 
     465            ;* --------------------------------------------------------------------------*
     466 0000fc       $C$L6:    
     467                    .dwpsn  file "../src/Output_Voltage_Set.c",line 51,column 5,is_stmt,isa 0
     468 0000fc 421C          MOV.W     &OutputV_Setpoint+0,r12 ; [] |51| 
         0000fe 0000!
     469 000100 421D          MOV.W     &OutputV_Setpoint+2,r13 ; [] |51| 
         000102 0002!
     470 000104 430E          MOV.W     #0,r14                ; [] |51| 
     471 000106 403F          MOV.W     #16816,r15            ; [] |51| 
         000108 41B0 
     472            $C$DW$35        .dwtag  DW_TAG_TI_branch
     473                    .dwattr $C$DW$35, DW_AT_low_pc(0x00)
     474                    .dwattr $C$DW$35, DW_AT_name("__mspabi_cmpf")
     475                    .dwattr $C$DW$35, DW_AT_TI_call
     476            
     477 00010a 13B0!         CALLA     #__mspabi_cmpf        ; [] |51| 
         00010c 0000 
     478                                                      ; [] |51| 
     479 00010e 930C          TST.W     r12                   ; [] |51| 
     480 000110 3891          JL        $C$L7                 ; [] |51| 
     481                                                      ; [] |51| 
     482            ;* --------------------------------------------------------------------------*
     483                    .dwpsn  file "../src/Output_Voltage_Set.c",line 55,column 10,is_stmt,isa 0
     484 000112 430C          MOV.W     #0,r12                ; [] |55| 
     485 000114 403D          MOV.W     #16816,r13            ; [] |55| 
         000116 41B0 
     486 000118 421E          MOV.W     &OutputV_Setpoint+0,r14 ; [] |55| 
         00011a 0000!
     487 00011c 421F          MOV.W     &OutputV_Setpoint+2,r15 ; [] |55| 
         00011e 0002!
     488            $C$DW$36        .dwtag  DW_TAG_TI_branch
     489                    .dwattr $C$DW$36, DW_AT_low_pc(0x00)
     490                    .dwattr $C$DW$36, DW_AT_name("__mspabi_cmpf")
     491                    .dwattr $C$DW$36, DW_AT_TI_call
     492            
     493 000120 13B0!         CALLA     #__mspabi_cmpf        ; [] |55| 
         000122 0000 
     494                                                      ; [] |55| 
     495 000124 930C          TST.W     r12                   ; [] |55| 
     496 000126 3509          JGE       $C$L8                 ; [] |55| 
     497                                                      ; [] |55| 
MSP430 Assembler PC v21.6.1 Tue Dec 20 13:46:02 2022

Copyright (c) 2003-2018 Texas Instruments Incorporated
Output_Voltage_Set.asm                                               PAGE   11

     498            ;* --------------------------------------------------------------------------*
     499                    .dwpsn  file "../src/Output_Voltage_Set.c",line 57,column 7,is_stmt,isa 0
     500 000128 412C          MOV.W     0(SP),r12             ; [] 
     501 00012a 411D          MOV.W     2(SP),r13             ; [] 
         00012c 0002 
     502            $C$DW$37        .dwtag  DW_TAG_TI_branch
     503                    .dwattr $C$DW$37, DW_AT_low_pc(0x00)
     504                    .dwattr $C$DW$37, DW_AT_name("__mspabi_cvtfd")
     505                    .dwattr $C$DW$37, DW_AT_TI_call
     506            
     507 00012e 13B0!         CALLA     #__mspabi_cvtfd       ; [] |57| 
         000130 0000 
     508                                                      ; [] |57| 
     509 000132 0CC8          MOVA      r12,r8                ; [] |57| 
     510 000134 0DC9          MOVA      r13,r9                ; [] |57| 
     511 000136 0ECA          MOVA      r14,r10               ; [] |57| 
     512 000138 0FCB          MOVA      r15,r11               ; [] |57| 
     513 00013a 403C          MOV.W     #5243,r12             ; [] |57| 
         00013c 147B 
     514 00013e 403D          MOV.W     #18350,r13            ; [] |57| 
         000140 47AE 
     515 000142 403E          MOV.W     #31457,r14            ; [] |57| 
         000144 7AE1 
     516 000146 403F          MOV.W     #49012,r15            ; [] |57| 
         000148 BF74 
     517            $C$DW$38        .dwtag  DW_TAG_TI_branch
     518                    .dwattr $C$DW$38, DW_AT_low_pc(0x00)
     519                    .dwattr $C$DW$38, DW_AT_name("__mspabi_mpyd")
     520                    .dwattr $C$DW$38, DW_AT_TI_call
     521            
     522 00014a 13B0!         CALLA     #__mspabi_mpyd        ; [] |57| 
         00014c 0000 
     523                                                      ; [] |57| 
     524 00014e 0CC8          MOVA      r12,r8                ; [] |57| 
     525 000150 0DC9          MOVA      r13,r9                ; [] |57| 
     526 000152 0ECA          MOVA      r14,r10               ; [] |57| 
     527 000154 0FC7          MOVA      r15,r7                ; [] |57| 
     528 000156 412C          MOV.W     0(SP),r12             ; [] 
     529 000158 411D          MOV.W     2(SP),r13             ; [] 
         00015a 0002 
     530            $C$DW$39        .dwtag  DW_TAG_TI_branch
     531                    .dwattr $C$DW$39, DW_AT_low_pc(0x00)
     532                    .dwattr $C$DW$39, DW_AT_name("__mspabi_cvtfd")
     533                    .dwattr $C$DW$39, DW_AT_TI_call
     534            
     535 00015c 13B0!         CALLA     #__mspabi_cvtfd       ; [] |57| 
         00015e 0000 
     536                                                      ; [] |57| 
     537 000160 07CB          MOVA      r7,r11                ; [] |57| 
     538            $C$DW$40        .dwtag  DW_TAG_TI_branch
     539                    .dwattr $C$DW$40, DW_AT_low_pc(0x00)
     540                    .dwattr $C$DW$40, DW_AT_name("__mspabi_mpyd")
     541                    .dwattr $C$DW$40, DW_AT_TI_call
     542            
     543 000162 13B0!         CALLA     #__mspabi_mpyd        ; [] |57| 
MSP430 Assembler PC v21.6.1 Tue Dec 20 13:46:02 2022

Copyright (c) 2003-2018 Texas Instruments Incorporated
Output_Voltage_Set.asm                                               PAGE   12

         000164 0000 
     544                                                      ; [] |57| 
     545 000166 0CC8          MOVA      r12,r8                ; [] |57| 
     546 000168 0DC9          MOVA      r13,r9                ; [] |57| 
     547 00016a 0ECA          MOVA      r14,r10               ; [] |57| 
     548 00016c 0FC7          MOVA      r15,r7                ; [] |57| 
     549 00016e 412C          MOV.W     0(SP),r12             ; [] 
     550 000170 411D          MOV.W     2(SP),r13             ; [] 
         000172 0002 
     551            $C$DW$41        .dwtag  DW_TAG_TI_branch
     552                    .dwattr $C$DW$41, DW_AT_low_pc(0x00)
     553                    .dwattr $C$DW$41, DW_AT_name("__mspabi_cvtfd")
     554                    .dwattr $C$DW$41, DW_AT_TI_call
     555            
     556 000174 13B0!         CALLA     #__mspabi_cvtfd       ; [] |57| 
         000176 0000 
     557                                                      ; [] |57| 
     558 000178 07CB          MOVA      r7,r11                ; [] |57| 
     559            $C$DW$42        .dwtag  DW_TAG_TI_branch
     560                    .dwattr $C$DW$42, DW_AT_low_pc(0x00)
     561                    .dwattr $C$DW$42, DW_AT_name("__mspabi_mpyd")
     562                    .dwattr $C$DW$42, DW_AT_TI_call
     563            
     564 00017a 13B0!         CALLA     #__mspabi_mpyd        ; [] |57| 
         00017c 0000 
     565                                                      ; [] |57| 
     566 00017e 0CC4          MOVA      r12,r4                ; [] |57| 
     567 000180 0DC5          MOVA      r13,r5                ; [] |57| 
     568 000182 0EC6          MOVA      r14,r6                ; [] |57| 
     569 000184 0FC7          MOVA      r15,r7                ; [] |57| 
     570 000186 412C          MOV.W     0(SP),r12             ; [] 
     571 000188 411D          MOV.W     2(SP),r13             ; [] 
         00018a 0002 
     572            $C$DW$43        .dwtag  DW_TAG_TI_branch
     573                    .dwattr $C$DW$43, DW_AT_low_pc(0x00)
     574                    .dwattr $C$DW$43, DW_AT_name("__mspabi_cvtfd")
     575                    .dwattr $C$DW$43, DW_AT_TI_call
     576            
     577 00018c 13B0!         CALLA     #__mspabi_cvtfd       ; [] |57| 
         00018e 0000 
     578                                                      ; [] |57| 
     579 000190 0CC8          MOVA      r12,r8                ; [] |57| 
     580 000192 0DC9          MOVA      r13,r9                ; [] |57| 
     581 000194 0ECA          MOVA      r14,r10               ; [] |57| 
     582 000196 0FCB          MOVA      r15,r11               ; [] |57| 
     583 000198 403C          MOV.W     #60188,r12            ; [] |57| 
         00019a EB1C 
     584 00019c 403D          MOV.W     #14050,r13            ; [] |57| 
         00019e 36E2 
     585 0001a0 403E          MOV.W     #49178,r14            ; [] |57| 
         0001a2 C01A 
     586 0001a4 403F          MOV.W     #16355,r15            ; [] |57| 
         0001a6 3FE3 
     587            $C$DW$44        .dwtag  DW_TAG_TI_branch
     588                    .dwattr $C$DW$44, DW_AT_low_pc(0x00)
MSP430 Assembler PC v21.6.1 Tue Dec 20 13:46:02 2022

Copyright (c) 2003-2018 Texas Instruments Incorporated
Output_Voltage_Set.asm                                               PAGE   13

     589                    .dwattr $C$DW$44, DW_AT_name("__mspabi_mpyd")
     590                    .dwattr $C$DW$44, DW_AT_TI_call
     591            
     592 0001a8 13B0!         CALLA     #__mspabi_mpyd        ; [] |57| 
         0001aa 0000 
     593                                                      ; [] |57| 
     594            ;* --------------------------------------------------------------------------*
     595 0001ac 0CC8          MOVA      r12,r8                ; [] |57| 
     596 0001ae 0DC9          MOVA      r13,r9                ; [] |57| 
     597 0001b0 0ECA          MOVA      r14,r10               ; [] |57| 
     598 0001b2 4F81          MOV.W     r15,4(SP)             ; [] 
         0001b4 0004 
     599 0001b6 412C          MOV.W     0(SP),r12             ; [] 
     600 0001b8 411D          MOV.W     2(SP),r13             ; [] 
         0001ba 0002 
     601            $C$DW$45        .dwtag  DW_TAG_TI_branch
     602                    .dwattr $C$DW$45, DW_AT_low_pc(0x00)
     603                    .dwattr $C$DW$45, DW_AT_name("__mspabi_cvtfd")
     604                    .dwattr $C$DW$45, DW_AT_TI_call
     605            
     606 0001bc 13B0!         CALLA     #__mspabi_cvtfd       ; [] |57| 
         0001be 0000 
     607                                                      ; [] |57| 
     608 0001c0 411B          MOV.W     4(SP),r11             ; [] 
         0001c2 0004 
     609            $C$DW$46        .dwtag  DW_TAG_TI_branch
     610                    .dwattr $C$DW$46, DW_AT_low_pc(0x00)
     611                    .dwattr $C$DW$46, DW_AT_name("__mspabi_mpyd")
     612                    .dwattr $C$DW$46, DW_AT_TI_call
     613            
     614 0001c4 13B0!         CALLA     #__mspabi_mpyd        ; [] |57| 
         0001c6 0000 
     615                                                      ; [] |57| 
     616 0001c8 04C8          MOVA      r4,r8                 ; [] |57| 
     617 0001ca 05C9          MOVA      r5,r9                 ; [] |57| 
     618 0001cc 06CA          MOVA      r6,r10                ; [] |57| 
     619 0001ce 07CB          MOVA      r7,r11                ; [] |57| 
     620            $C$DW$47        .dwtag  DW_TAG_TI_branch
     621                    .dwattr $C$DW$47, DW_AT_low_pc(0x00)
     622                    .dwattr $C$DW$47, DW_AT_name("__mspabi_addd")
     623                    .dwattr $C$DW$47, DW_AT_TI_call
     624            
     625 0001d0 13B0!         CALLA     #__mspabi_addd        ; [] |57| 
         0001d2 0000 
     626                                                      ; [] |57| 
     627 0001d4 0CC4          MOVA      r12,r4                ; [] |57| 
     628 0001d6 0DC5          MOVA      r13,r5                ; [] |57| 
     629 0001d8 0EC6          MOVA      r14,r6                ; [] |57| 
     630 0001da 0FC7          MOVA      r15,r7                ; [] |57| 
     631 0001dc 412C          MOV.W     0(SP),r12             ; [] 
     632 0001de 411D          MOV.W     2(SP),r13             ; [] 
         0001e0 0002 
     633            $C$DW$48        .dwtag  DW_TAG_TI_branch
     634                    .dwattr $C$DW$48, DW_AT_low_pc(0x00)
     635                    .dwattr $C$DW$48, DW_AT_name("__mspabi_cvtfd")
MSP430 Assembler PC v21.6.1 Tue Dec 20 13:46:02 2022

Copyright (c) 2003-2018 Texas Instruments Incorporated
Output_Voltage_Set.asm                                               PAGE   14

     636                    .dwattr $C$DW$48, DW_AT_TI_call
     637            
     638 0001e2 13B0!         CALLA     #__mspabi_cvtfd       ; [] |57| 
         0001e4 0000 
     639                                                      ; [] |57| 
     640 0001e6 0CC8          MOVA      r12,r8                ; [] |57| 
     641 0001e8 0DC9          MOVA      r13,r9                ; [] |57| 
     642 0001ea 0ECA          MOVA      r14,r10               ; [] |57| 
     643 0001ec 0FCB          MOVA      r15,r11               ; [] |57| 
     644 0001ee 403C          MOV.W     #46137,r12            ; [] |57| 
         0001f0 B439 
     645 0001f2 403D          MOV.W     #30408,r13            ; [] |57| 
         0001f4 76C8 
     646 0001f6 403E          MOV.W     #49086,r14            ; [] |57| 
         0001f8 BFBE 
     647 0001fa 403F          MOV.W     #49209,r15            ; [] |57| 
         0001fc C039 
     648            $C$DW$49        .dwtag  DW_TAG_TI_branch
     649                    .dwattr $C$DW$49, DW_AT_low_pc(0x00)
     650                    .dwattr $C$DW$49, DW_AT_name("__mspabi_mpyd")
     651                    .dwattr $C$DW$49, DW_AT_TI_call
     652            
     653 0001fe 13B0!         CALLA     #__mspabi_mpyd        ; [] |57| 
         000200 0000 
     654                                                      ; [] |57| 
     655 000202 04C8          MOVA      r4,r8                 ; [] |57| 
     656 000204 05C9          MOVA      r5,r9                 ; [] |57| 
     657 000206 06CA          MOVA      r6,r10                ; [] |57| 
     658 000208 07CB          MOVA      r7,r11                ; [] |57| 
     659            $C$DW$50        .dwtag  DW_TAG_TI_branch
     660                    .dwattr $C$DW$50, DW_AT_low_pc(0x00)
     661                    .dwattr $C$DW$50, DW_AT_name("__mspabi_addd")
     662                    .dwattr $C$DW$50, DW_AT_TI_call
     663            
     664 00020a 13B0!         CALLA     #__mspabi_addd        ; [] |57| 
         00020c 0000 
     665                                                      ; [] |57| 
     666 00020e 0CC8          MOVA      r12,r8                ; [] |57| 
     667 000210 0DC9          MOVA      r13,r9                ; [] |57| 
     668 000212 0ECA          MOVA      r14,r10               ; [] |57| 
     669 000214 0FCB          MOVA      r15,r11               ; [] |57| 
     670 000216 403C          MOV.W     #62915,r12            ; [] |57| 
         000218 F5C3 
     671 00021a 403D          MOV.W     #23592,r13            ; [] |57| 
         00021c 5C28 
     672 00021e 403E          MOV.W     #34447,r14            ; [] |57| 
         000220 868F 
     673 000222 403F          MOV.W     #16503,r15            ; [] |57| 
         000224 4077 
     674            $C$DW$51        .dwtag  DW_TAG_TI_branch
     675                    .dwattr $C$DW$51, DW_AT_low_pc(0x00)
     676                    .dwattr $C$DW$51, DW_AT_name("__mspabi_addd")
     677                    .dwattr $C$DW$51, DW_AT_TI_call
     678            
     679 000226 13B0!         CALLA     #__mspabi_addd        ; [] |57| 
MSP430 Assembler PC v21.6.1 Tue Dec 20 13:46:02 2022

Copyright (c) 2003-2018 Texas Instruments Incorporated
Output_Voltage_Set.asm                                               PAGE   15

         000228 0000 
     680                                                      ; [] |57| 
     681            $C$DW$52        .dwtag  DW_TAG_TI_branch
     682                    .dwattr $C$DW$52, DW_AT_low_pc(0x00)
     683                    .dwattr $C$DW$52, DW_AT_name("__mspabi_cvtdf")
     684                    .dwattr $C$DW$52, DW_AT_TI_call
     685            
     686 00022a 13B0!         CALLA     #__mspabi_cvtdf       ; [] |57| 
         00022c 0000 
     687                                                      ; [] |57| 
     688 00022e 0CC9          MOVA      r12,r9                ; [] |57| 
     689 000230 0DCA          MOVA      r13,r10               ; [] |57| 
     690 000232 3C83          JMP       $C$L8                 ; [] |57| 
     691                                                      ; [] |57| 
     692            ;* --------------------------------------------------------------------------*
     693 000234       $C$L7:    
     694                    .dwpsn  file "../src/Output_Voltage_Set.c",line 53,column 7,is_stmt,isa 0
     695 000234 412C          MOV.W     0(SP),r12             ; [] 
     696 000236 411D          MOV.W     2(SP),r13             ; [] 
         000238 0002 
     697            $C$DW$53        .dwtag  DW_TAG_TI_branch
     698                    .dwattr $C$DW$53, DW_AT_low_pc(0x00)
     699                    .dwattr $C$DW$53, DW_AT_name("__mspabi_cvtfd")
     700                    .dwattr $C$DW$53, DW_AT_TI_call
     701            
     702 00023a 13B0!         CALLA     #__mspabi_cvtfd       ; [] |53| 
         00023c 0000 
     703                                                      ; [] |53| 
     704 00023e 0CC8          MOVA      r12,r8                ; [] |53| 
     705 000240 0DC9          MOVA      r13,r9                ; [] |53| 
     706 000242 0ECA          MOVA      r14,r10               ; [] |53| 
     707 000244 0FCB          MOVA      r15,r11               ; [] |53| 
     708 000246 403C          MOV.W     #55994,r12            ; [] |53| 
         000248 DABA 
     709 00024a 403D          MOV.W     #64906,r13            ; [] |53| 
         00024c FD8A 
     710 00024e 403E          MOV.W     #63333,r14            ; [] |53| 
         000250 F765 
     711 000252 403F          MOV.W     #49092,r15            ; [] |53| 
         000254 BFC4 
     712            $C$DW$54        .dwtag  DW_TAG_TI_branch
     713                    .dwattr $C$DW$54, DW_AT_low_pc(0x00)
     714                    .dwattr $C$DW$54, DW_AT_name("__mspabi_mpyd")
     715                    .dwattr $C$DW$54, DW_AT_TI_call
     716            
     717 000256 13B0!         CALLA     #__mspabi_mpyd        ; [] |53| 
         000258 0000 
     718                                                      ; [] |53| 
     719 00025a 0CC8          MOVA      r12,r8                ; [] |53| 
     720 00025c 0DC9          MOVA      r13,r9                ; [] |53| 
     721 00025e 0ECA          MOVA      r14,r10               ; [] |53| 
     722 000260 0FC7          MOVA      r15,r7                ; [] |53| 
     723 000262 412C          MOV.W     0(SP),r12             ; [] 
     724 000264 411D          MOV.W     2(SP),r13             ; [] 
         000266 0002 
MSP430 Assembler PC v21.6.1 Tue Dec 20 13:46:02 2022

Copyright (c) 2003-2018 Texas Instruments Incorporated
Output_Voltage_Set.asm                                               PAGE   16

     725            $C$DW$55        .dwtag  DW_TAG_TI_branch
     726                    .dwattr $C$DW$55, DW_AT_low_pc(0x00)
     727                    .dwattr $C$DW$55, DW_AT_name("__mspabi_cvtfd")
     728                    .dwattr $C$DW$55, DW_AT_TI_call
     729            
     730 000268 13B0!         CALLA     #__mspabi_cvtfd       ; [] |53| 
         00026a 0000 
     731                                                      ; [] |53| 
     732 00026c 07CB          MOVA      r7,r11                ; [] |53| 
     733            $C$DW$56        .dwtag  DW_TAG_TI_branch
     734                    .dwattr $C$DW$56, DW_AT_low_pc(0x00)
     735                    .dwattr $C$DW$56, DW_AT_name("__mspabi_mpyd")
     736                    .dwattr $C$DW$56, DW_AT_TI_call
     737            
     738 00026e 13B0!         CALLA     #__mspabi_mpyd        ; [] |53| 
         000270 0000 
     739                                                      ; [] |53| 
     740 000272 0CC8          MOVA      r12,r8                ; [] |53| 
     741 000274 0DC9          MOVA      r13,r9                ; [] |53| 
     742 000276 0ECA          MOVA      r14,r10               ; [] |53| 
     743 000278 0FC7          MOVA      r15,r7                ; [] |53| 
     744 00027a 412C          MOV.W     0(SP),r12             ; [] 
     745 00027c 411D          MOV.W     2(SP),r13             ; [] 
         00027e 0002 
     746            $C$DW$57        .dwtag  DW_TAG_TI_branch
     747                    .dwattr $C$DW$57, DW_AT_low_pc(0x00)
     748                    .dwattr $C$DW$57, DW_AT_name("__mspabi_cvtfd")
     749                    .dwattr $C$DW$57, DW_AT_TI_call
     750            
     751 000280 13B0!         CALLA     #__mspabi_cvtfd       ; [] |53| 
         000282 0000 
     752                                                      ; [] |53| 
     753 000284 07CB          MOVA      r7,r11                ; [] |53| 
     754            $C$DW$58        .dwtag  DW_TAG_TI_branch
     755                    .dwattr $C$DW$58, DW_AT_low_pc(0x00)
     756                    .dwattr $C$DW$58, DW_AT_name("__mspabi_mpyd")
     757                    .dwattr $C$DW$58, DW_AT_TI_call
     758            
     759 000286 13B0!         CALLA     #__mspabi_mpyd        ; [] |53| 
         000288 0000 
     760                                                      ; [] |53| 
     761 00028a 0CC4          MOVA      r12,r4                ; [] |53| 
     762 00028c 0DC5          MOVA      r13,r5                ; [] |53| 
     763 00028e 0EC6          MOVA      r14,r6                ; [] |53| 
     764 000290 0FC7          MOVA      r15,r7                ; [] |53| 
     765 000292 412C          MOV.W     0(SP),r12             ; [] 
     766 000294 411D          MOV.W     2(SP),r13             ; [] 
         000296 0002 
     767            $C$DW$59        .dwtag  DW_TAG_TI_branch
     768                    .dwattr $C$DW$59, DW_AT_low_pc(0x00)
     769                    .dwattr $C$DW$59, DW_AT_name("__mspabi_cvtfd")
     770                    .dwattr $C$DW$59, DW_AT_TI_call
     771            
     772 000298 13B0!         CALLA     #__mspabi_cvtfd       ; [] |53| 
         00029a 0000 
MSP430 Assembler PC v21.6.1 Tue Dec 20 13:46:02 2022

Copyright (c) 2003-2018 Texas Instruments Incorporated
Output_Voltage_Set.asm                                               PAGE   17

     773                                                      ; [] |53| 
     774 00029c 0CC8          MOVA      r12,r8                ; [] |53| 
     775 00029e 0DC9          MOVA      r13,r9                ; [] |53| 
     776 0002a0 0ECA          MOVA      r14,r10               ; [] |53| 
     777 0002a2 0FCB          MOVA      r15,r11               ; [] |53| 
     778 0002a4 403C          MOV.W     #42572,r12            ; [] |53| 
         0002a6 A64C 
     779 0002a8 403D          MOV.W     #17930,r13            ; [] |53| 
         0002aa 460A 
     780 0002ac 403E          MOV.W     #13605,r14            ; [] |53| 
         0002ae 3525 
     781 0002b0 403F          MOV.W     #16419,r15            ; [] |53| 
         0002b2 4023 
     782            $C$DW$60        .dwtag  DW_TAG_TI_branch
     783                    .dwattr $C$DW$60, DW_AT_low_pc(0x00)
     784                    .dwattr $C$DW$60, DW_AT_name("__mspabi_mpyd")
     785                    .dwattr $C$DW$60, DW_AT_TI_call
     786            
     787 0002b4 13B0!         CALLA     #__mspabi_mpyd        ; [] |53| 
         0002b6 0000 
     788                                                      ; [] |53| 
     789            ;* --------------------------------------------------------------------------*
     790 0002b8 0CC8          MOVA      r12,r8                ; [] |53| 
     791 0002ba 0DC9          MOVA      r13,r9                ; [] |53| 
     792 0002bc 0ECA          MOVA      r14,r10               ; [] |53| 
     793 0002be 4F81          MOV.W     r15,4(SP)             ; [] 
         0002c0 0004 
     794 0002c2 412C          MOV.W     0(SP),r12             ; [] 
     795 0002c4 411D          MOV.W     2(SP),r13             ; [] 
         0002c6 0002 
     796            $C$DW$61        .dwtag  DW_TAG_TI_branch
     797                    .dwattr $C$DW$61, DW_AT_low_pc(0x00)
     798                    .dwattr $C$DW$61, DW_AT_name("__mspabi_cvtfd")
     799                    .dwattr $C$DW$61, DW_AT_TI_call
     800            
     801 0002c8 13B0!         CALLA     #__mspabi_cvtfd       ; [] |53| 
         0002ca 0000 
     802                                                      ; [] |53| 
     803 0002cc 411B          MOV.W     4(SP),r11             ; [] 
         0002ce 0004 
     804            $C$DW$62        .dwtag  DW_TAG_TI_branch
     805                    .dwattr $C$DW$62, DW_AT_low_pc(0x00)
     806                    .dwattr $C$DW$62, DW_AT_name("__mspabi_mpyd")
     807                    .dwattr $C$DW$62, DW_AT_TI_call
     808            
     809 0002d0 13B0!         CALLA     #__mspabi_mpyd        ; [] |53| 
         0002d2 0000 
     810                                                      ; [] |53| 
     811 0002d4 04C8          MOVA      r4,r8                 ; [] |53| 
     812 0002d6 05C9          MOVA      r5,r9                 ; [] |53| 
     813 0002d8 06CA          MOVA      r6,r10                ; [] |53| 
     814 0002da 07CB          MOVA      r7,r11                ; [] |53| 
     815            $C$DW$63        .dwtag  DW_TAG_TI_branch
     816                    .dwattr $C$DW$63, DW_AT_low_pc(0x00)
     817                    .dwattr $C$DW$63, DW_AT_name("__mspabi_addd")
MSP430 Assembler PC v21.6.1 Tue Dec 20 13:46:02 2022

Copyright (c) 2003-2018 Texas Instruments Incorporated
Output_Voltage_Set.asm                                               PAGE   18

     818                    .dwattr $C$DW$63, DW_AT_TI_call
     819            
     820 0002dc 13B0!         CALLA     #__mspabi_addd        ; [] |53| 
         0002de 0000 
     821                                                      ; [] |53| 
     822 0002e0 0CC4          MOVA      r12,r4                ; [] |53| 
     823 0002e2 0DC5          MOVA      r13,r5                ; [] |53| 
     824 0002e4 0EC6          MOVA      r14,r6                ; [] |53| 
     825 0002e6 0FC7          MOVA      r15,r7                ; [] |53| 
     826 0002e8 412C          MOV.W     0(SP),r12             ; [] 
     827 0002ea 411D          MOV.W     2(SP),r13             ; [] 
         0002ec 0002 
     828            $C$DW$64        .dwtag  DW_TAG_TI_branch
     829                    .dwattr $C$DW$64, DW_AT_low_pc(0x00)
     830                    .dwattr $C$DW$64, DW_AT_name("__mspabi_cvtfd")
     831                    .dwattr $C$DW$64, DW_AT_TI_call
     832            
     833 0002ee 13B0!         CALLA     #__mspabi_cvtfd       ; [] |53| 
         0002f0 0000 
     834                                                      ; [] |53| 
     835 0002f2 0CC8          MOVA      r12,r8                ; [] |53| 
     836 0002f4 0DC9          MOVA      r13,r9                ; [] |53| 
     837 0002f6 0ECA          MOVA      r14,r10               ; [] |53| 
     838 0002f8 0FCB          MOVA      r15,r11               ; [] |53| 
     839 0002fa 403C          MOV.W     #10486,r12            ; [] |53| 
         0002fc 28F6 
     840 0002fe 403D          MOV.W     #36700,r13            ; [] |53| 
         000300 8F5C 
     841 000302 403E          MOV.W     #30146,r14            ; [] |53| 
         000304 75C2 
     842 000306 403F          MOV.W     #49256,r15            ; [] |53| 
         000308 C068 
     843            $C$DW$65        .dwtag  DW_TAG_TI_branch
     844                    .dwattr $C$DW$65, DW_AT_low_pc(0x00)
     845                    .dwattr $C$DW$65, DW_AT_name("__mspabi_mpyd")
     846                    .dwattr $C$DW$65, DW_AT_TI_call
     847            
     848 00030a 13B0!         CALLA     #__mspabi_mpyd        ; [] |53| 
         00030c 0000 
     849                                                      ; [] |53| 
     850 00030e 04C8          MOVA      r4,r8                 ; [] |53| 
     851 000310 05C9          MOVA      r5,r9                 ; [] |53| 
     852 000312 06CA          MOVA      r6,r10                ; [] |53| 
     853 000314 07CB          MOVA      r7,r11                ; [] |53| 
     854            $C$DW$66        .dwtag  DW_TAG_TI_branch
     855                    .dwattr $C$DW$66, DW_AT_low_pc(0x00)
     856                    .dwattr $C$DW$66, DW_AT_name("__mspabi_addd")
     857                    .dwattr $C$DW$66, DW_AT_TI_call
     858            
     859 000316 13B0!         CALLA     #__mspabi_addd        ; [] |53| 
         000318 0000 
     860                                                      ; [] |53| 
     861 00031a 0CC8          MOVA      r12,r8                ; [] |53| 
     862 00031c 0DC9          MOVA      r13,r9                ; [] |53| 
     863 00031e 0ECA          MOVA      r14,r10               ; [] |53| 
MSP430 Assembler PC v21.6.1 Tue Dec 20 13:46:02 2022

Copyright (c) 2003-2018 Texas Instruments Incorporated
Output_Voltage_Set.asm                                               PAGE   19

     864 000320 0FCB          MOVA      r15,r11               ; [] |53| 
     865 000322 430C          MOV.W     #0,r12                ; [] |53| 
     866 000324 430D          MOV.W     #0,r13                ; [] |53| 
     867 000326 403E          MOV.W     #47616,r14            ; [] |53| 
         000328 BA00 
     868 00032a 403F          MOV.W     #16534,r15            ; [] |53| 
         00032c 4096 
     869            $C$DW$67        .dwtag  DW_TAG_TI_branch
     870                    .dwattr $C$DW$67, DW_AT_low_pc(0x00)
     871                    .dwattr $C$DW$67, DW_AT_name("__mspabi_addd")
     872                    .dwattr $C$DW$67, DW_AT_TI_call
     873            
     874 00032e 13B0!         CALLA     #__mspabi_addd        ; [] |53| 
         000330 0000 
     875                                                      ; [] |53| 
     876            $C$DW$68        .dwtag  DW_TAG_TI_branch
     877                    .dwattr $C$DW$68, DW_AT_low_pc(0x00)
     878                    .dwattr $C$DW$68, DW_AT_name("__mspabi_cvtdf")
     879                    .dwattr $C$DW$68, DW_AT_TI_call
     880            
     881 000332 13B0!         CALLA     #__mspabi_cvtdf       ; [] |53| 
         000334 0000 
     882                                                      ; [] |53| 
     883 000336 0CC9          MOVA      r12,r9                ; [] |53| 
     884 000338 0DCA          MOVA      r13,r10               ; [] |53| 
     885            ;* --------------------------------------------------------------------------*
     886 00033a       $C$L8:    
     887                    .dwpsn  file "../src/Output_Voltage_Set.c",line 60,column 5,is_stmt,isa 0
     888 00033a 430C          MOV.W     #0,r12                ; [] |60| 
     889 00033c 403D          MOV.W     #17279,r13            ; [] |60| 
         00033e 437F 
     890 000340 09CE          MOVA      r9,r14                ; [] |60| 
     891 000342 0ACF          MOVA      r10,r15               ; [] |60| 
     892            $C$DW$69        .dwtag  DW_TAG_TI_branch
     893                    .dwattr $C$DW$69, DW_AT_low_pc(0x00)
     894                    .dwattr $C$DW$69, DW_AT_name("__mspabi_cmpf")
     895                    .dwattr $C$DW$69, DW_AT_TI_call
     896            
     897 000344 13B0!         CALLA     #__mspabi_cmpf        ; [] |60| 
         000346 0000 
     898                                                      ; [] |60| 
     899 000348 930C          TST.W     r12                   ; [] |60| 
     900 00034a 3403          JGE       $C$L9                 ; [] |60| 
     901                                                      ; [] |60| 
     902            ;* --------------------------------------------------------------------------*
     903                    .dwpsn  file "../src/Output_Voltage_Set.c",line 60,column 20,is_stmt,isa 0
     904 00034c 4309          MOV.W     #0,r9                 ; [] |60| 
     905 00034e 403A          MOV.W     #17279,r10            ; [] |60| 
         000350 437F 
     906            ;* --------------------------------------------------------------------------*
     907 000352       $C$L9:    
     908                    .dwpsn  file "../src/Output_Voltage_Set.c",line 61,column 5,is_stmt,isa 0
     909 000352 09CC          MOVA      r9,r12                ; [] |61| 
     910 000354 0ACD          MOVA      r10,r13               ; [] |61| 
     911 000356 430E          MOV.W     #0,r14                ; [] |61| 
MSP430 Assembler PC v21.6.1 Tue Dec 20 13:46:02 2022

Copyright (c) 2003-2018 Texas Instruments Incorporated
Output_Voltage_Set.asm                                               PAGE   20

     912 000358 403F          MOV.W     #16256,r15            ; [] |61| 
         00035a 3F80 
     913            $C$DW$70        .dwtag  DW_TAG_TI_branch
     914                    .dwattr $C$DW$70, DW_AT_low_pc(0x00)
     915                    .dwattr $C$DW$70, DW_AT_name("__mspabi_cmpf")
     916                    .dwattr $C$DW$70, DW_AT_TI_call
     917            
     918 00035c 13B0!         CALLA     #__mspabi_cmpf        ; [] |61| 
         00035e 0000 
     919                                                      ; [] |61| 
     920 000360 930C          TST.W     r12                   ; [] |61| 
     921 000362 3403          JGE       $C$L10                ; [] |61| 
     922                                                      ; [] |61| 
     923            ;* --------------------------------------------------------------------------*
     924                    .dwpsn  file "../src/Output_Voltage_Set.c",line 61,column 18,is_stmt,isa 0
     925 000364 4309          MOV.W     #0,r9                 ; [] |61| 
     926 000366 403A          MOV.W     #16256,r10            ; [] |61| 
         000368 3F80 
     927            ;* --------------------------------------------------------------------------*
     928 00036a       $C$L10:    
     929                    .dwpsn  file "../src/Output_Voltage_Set.c",line 62,column 9,is_stmt,isa 0
     930 00036a 09CC          MOVA      r9,r12                ; [] |62| 
     931 00036c 0ACD          MOVA      r10,r13               ; [] |62| 
     932            $C$DW$71        .dwtag  DW_TAG_TI_branch
     933                    .dwattr $C$DW$71, DW_AT_low_pc(0x00)
     934                    .dwattr $C$DW$71, DW_AT_name("__mspabi_fixfi")
     935                    .dwattr $C$DW$71, DW_AT_TI_call
     936            
     937 00036e 13B0!         CALLA     #__mspabi_fixfi       ; [] |62| 
         000370 0000 
     938                                                      ; [] |62| 
     939 000372 4C4C          MOV.B     r12,r12               ; [] |62| 
     940                    .dwpsn  file "../src/Output_Voltage_Set.c",line 64,column 5,is_stmt,isa 0
     941 000374 4CC2          MOV.B     r12,&Rdata0+0         ; [] |64| 
         000376 0000!
     942                    .dwpsn  file "../src/Output_Voltage_Set.c",line 66,column 5,is_stmt,isa 0
     943 000378 907C          CMP.B     #11,r12               ; [] |66| 
         00037a 000B 
     944 00037c 2C03          JHS       $C$L11                ; [] |66| 
     945                                                      ; [] |66| 
     946            ;* --------------------------------------------------------------------------*
     947                    .dwpsn  file "../src/Output_Voltage_Set.c",line 67,column 10,is_stmt,isa 0
     948 00037e 43D2          MOV.B     #1,&Rdata0_min+0      ; [] |67| 
         000380 0000!
     949 000382 3C05          JMP       $C$L12                ; [] |67| 
     950                                                      ; [] |67| 
     951            ;* --------------------------------------------------------------------------*
     952 000384       $C$L11:    
     953                    .dwpsn  file "../src/Output_Voltage_Set.c",line 66,column 19,is_stmt,isa 0
     954 000384 0CCF          MOVA      r12,r15               ; [] |66| 
     955 000386 807F          SUB.B     #10,r15               ; [] |66| 
         000388 000A 
     956 00038a 4FC2          MOV.B     r15,&Rdata0_min+0     ; [] |66| 
         00038c 0000!
     957            ;* --------------------------------------------------------------------------*
MSP430 Assembler PC v21.6.1 Tue Dec 20 13:46:02 2022

Copyright (c) 2003-2018 Texas Instruments Incorporated
Output_Voltage_Set.asm                                               PAGE   21

     958 00038e       $C$L12:    
     959                    .dwpsn  file "../src/Output_Voltage_Set.c",line 68,column 5,is_stmt,isa 0
     960 00038e 907C          CMP.B     #245,r12              ; [] |68| 
         000390 00F5 
     961 000392 2803          JLO       $C$L13                ; [] |68| 
     962                                                      ; [] |68| 
     963            ;* --------------------------------------------------------------------------*
     964                    .dwpsn  file "../src/Output_Voltage_Set.c",line 69,column 10,is_stmt,isa 0
     965 000394 43F2          MOV.B     #255,&Rdata0_max+0    ; [] |69| 
         000396 0000!
     966 000398 3C05          JMP       $C$L14                ; [] |69| 
     967                                                      ; [] |69| 
     968            ;* --------------------------------------------------------------------------*
     969 00039a       $C$L13:    
     970                    .dwpsn  file "../src/Output_Voltage_Set.c",line 68,column 20,is_stmt,isa 0
     971 00039a 0CCF          MOVA      r12,r15               ; [] |68| 
     972 00039c 507F          ADD.B     #10,r15               ; [] |68| 
         00039e 000A 
     973 0003a0 4FC2          MOV.B     r15,&Rdata0_max+0     ; [] |68| 
         0003a2 0000!
     974            ;* --------------------------------------------------------------------------*
     975 0003a4       $C$L14:    
     976                    .dwpsn  file "../src/Output_Voltage_Set.c",line 106,column 7,is_stmt,isa 0
     977 0003a4 403E          MOV.W     #128,r14              ; [] |106| 
         0003a6 0080 
     978                    .dwpsn  file "../src/Output_Voltage_Set.c",line 107,column 16,is_stmt,isa 0
     979 0003a8 430F          MOV.W     #0,r15                ; [] |107| 
     980 0003aa 923F          CMP.W     #8,r15                ; [] |107| 
     981 0003ac 340F          JGE       $C$L18                ; [] |107| 
     982                                                      ; [] |107| 
     983            ;* --------------------------------------------------------------------------*
     984            ;*   BEGIN LOOP $C$L15
     985            ;*
     986            ;*   Loop source line                : 107
     987            ;*   Loop closing brace source line  : 120
     988            ;*   Known Minimum Trip Count        : 1
     989            ;*   Known Maximum Trip Count        : 4294967295
     990            ;*   Known Max Trip Count Factor     : 1
     991            ;* --------------------------------------------------------------------------*
     992 0003ae       $C$L15:    
     993                    .dwpsn  file "../src/Output_Voltage_Set.c",line 109,column 9,is_stmt,isa 0
     994 0003ae BE4C          BIT.B     r14,r12               ; [] |109| 
     995 0003b0 2003          JNE       $C$L16                ; [] |109| 
     996                                                      ; [] |109| 
     997            ;* --------------------------------------------------------------------------*
     998                    .dwpsn  file "../src/Output_Voltage_Set.c",line 115,column 11,is_stmt,isa 0
     999 0003b2 C3E2          BIC.B     #2,&PEOUT_H+0         ; [] |115| 
         0003b4 0000!
    1000 0003b6 3C02          JMP       $C$L17                ; [] |115| 
    1001                                                      ; [] |115| 
    1002            ;* --------------------------------------------------------------------------*
    1003 0003b8       $C$L16:    
    1004                    .dwpsn  file "../src/Output_Voltage_Set.c",line 111,column 13,is_stmt,isa 0
    1005 0003b8 D3E2          OR.B      #2,&PEOUT_H+0         ; [] |111| 
         0003ba 0000!
MSP430 Assembler PC v21.6.1 Tue Dec 20 13:46:02 2022

Copyright (c) 2003-2018 Texas Instruments Incorporated
Output_Voltage_Set.asm                                               PAGE   22

    1006            ;* --------------------------------------------------------------------------*
    1007 0003bc       $C$L17:    
    1008                    .dwpsn  file "../src/Output_Voltage_Set.c",line 117,column 9,is_stmt,isa 0
    1009 0003bc C2F2          BIC.B     #8,&PEOUT_H+0         ; [] |117| 
         0003be 0000!
    1010                    .dwpsn  file "../src/Output_Voltage_Set.c",line 118,column 9,is_stmt,isa 0
    1011 0003c0 D2F2          OR.B      #8,&PEOUT_H+0         ; [] |118| 
         0003c2 0000!
    1012                    .dwpsn  file "../src/Output_Voltage_Set.c",line 119,column 9,is_stmt,isa 0
    1013 0003c4 035E          RRUM.W    #1,r14                ; [] |119| 
    1014                    .dwpsn  file "../src/Output_Voltage_Set.c",line 107,column 21,is_stmt,isa 0
    1015 0003c6 531F          ADD.W     #1,r15                ; [] |107| 
    1016 0003c8 923F          CMP.W     #8,r15                ; [] |107| 
    1017 0003ca 3BF1          JL        $C$L15                ; [] |107| 
    1018                                                      ; [] |107| 
    1019            ;* --------------------------------------------------------------------------*
    1020 0003cc       $C$L18:    
    1021                    .dwpsn  file "../src/Output_Voltage_Set.c",line 122,column 3,is_stmt,isa 0
    1022 0003cc D3E2          OR.B      #2,&PDOUT_H+0         ; [] |122| 
         0003ce 0000!
    1023                    .dwpsn  file "../src/Output_Voltage_Set.c",line 123,column 1,is_stmt,isa 0
    1024 0003d0 00A1          ADDA      #6,SP                 ; [] 
         0003d2 0006 
    1025                    .dwcfi  cfa_offset, 32
    1026 0003d4 1664          POPM.A    #7,r10                ; [] 
    1027                    .dwcfi  restore_reg, 4
    1028                    .dwcfi  restore_reg, 5
    1029                    .dwcfi  restore_reg, 6
    1030                    .dwcfi  restore_reg, 7
    1031                    .dwcfi  restore_reg, 8
    1032                    .dwcfi  restore_reg, 9
    1033                    .dwcfi  restore_reg, 10
    1034                    .dwcfi  cfa_offset, 4
    1035            $C$DW$72        .dwtag  DW_TAG_TI_branch
    1036                    .dwattr $C$DW$72, DW_AT_low_pc(0x00)
    1037                    .dwattr $C$DW$72, DW_AT_TI_return
    1038            
    1039 0003d6 0110          RETA      ; [] 
    1040                    ; [] 
    1041                    .dwattr $C$DW$19, DW_AT_TI_end_file("../src/Output_Voltage_Set.c")
    1042                    .dwattr $C$DW$19, DW_AT_TI_end_line(0x7b)
    1043                    .dwattr $C$DW$19, DW_AT_TI_end_column(0x01)
    1044                    .dwendentry
    1045                    .dwendtag $C$DW$19
    1046            
    1047 000000               .sect   ".text:setOutVoltage"
    1048                    .clink
    1049                    .global setOutVoltage
    1050            
    1051            $C$DW$73        .dwtag  DW_TAG_subprogram
    1052                    .dwattr $C$DW$73, DW_AT_name("setOutVoltage")
    1053                    .dwattr $C$DW$73, DW_AT_low_pc(setOutVoltage)
    1054                    .dwattr $C$DW$73, DW_AT_high_pc(0x00)
    1055                    .dwattr $C$DW$73, DW_AT_TI_symbol_name("setOutVoltage")
    1056                    .dwattr $C$DW$73, DW_AT_external
MSP430 Assembler PC v21.6.1 Tue Dec 20 13:46:02 2022

Copyright (c) 2003-2018 Texas Instruments Incorporated
Output_Voltage_Set.asm                                               PAGE   23

    1057                    .dwattr $C$DW$73, DW_AT_TI_begin_file("../src/Output_Voltage_Set.c")
    1058                    .dwattr $C$DW$73, DW_AT_TI_begin_line(0x7e)
    1059                    .dwattr $C$DW$73, DW_AT_TI_begin_column(0x06)
    1060                    .dwattr $C$DW$73, DW_AT_decl_file("../src/Output_Voltage_Set.c")
    1061                    .dwattr $C$DW$73, DW_AT_decl_line(0x7e)
    1062                    .dwattr $C$DW$73, DW_AT_decl_column(0x06)
    1063                    .dwattr $C$DW$73, DW_AT_TI_max_frame_size(0x208)
    1064                    .dwpsn  file "../src/Output_Voltage_Set.c",line 127,column 1,is_stmt,address setOutVoltage,isa
    1065            
    1066                    .dwfde $C$DW$CIE, setOutVoltage
    1067            $C$DW$74        .dwtag  DW_TAG_formal_parameter
    1068                    .dwattr $C$DW$74, DW_AT_name("sov1")
    1069                    .dwattr $C$DW$74, DW_AT_TI_symbol_name("sov1")
    1070                    .dwattr $C$DW$74, DW_AT_type(*$C$DW$T$11)
    1071                    .dwattr $C$DW$74, DW_AT_location[DW_OP_reg12]
    1072            
    1073            $C$DW$75        .dwtag  DW_TAG_formal_parameter
    1074                    .dwattr $C$DW$75, DW_AT_name("sov2")
    1075                    .dwattr $C$DW$75, DW_AT_TI_symbol_name("sov2")
    1076                    .dwattr $C$DW$75, DW_AT_type(*$C$DW$T$11)
    1077                    .dwattr $C$DW$75, DW_AT_location[DW_OP_reg13]
    1078            
    1079            
    1080            ;*****************************************************************************
    1081            ;* FUNCTION NAME: setOutVoltage                                              *
    1082            ;*                                                                           *
    1083            ;*   Regs Modified     : SP,SR,r10,r11,r12,r13,r14,r15                       *
    1084            ;*   Regs Used         : SP,SR,r10,r11,r12,r13,r14,r15                       *
    1085            ;*   Local Frame Size  : 0 Args + 512 Auto + 4 Save = 516 byte               *
    1086            ;*****************************************************************************
    1087 000000       setOutVoltage:
    1088            ;* --------------------------------------------------------------------------*
    1089                    .dwcfi  cfa_offset, 4
    1090                    .dwcfi  save_reg_to_mem, 16, -4
    1091 000000 140A          PUSHM.A   #1,r10                ; [] 
    1092                    .dwcfi  save_reg_to_mem, 10, -8
    1093                    .dwcfi  cfa_offset, 8
    1094 000002 00B1          SUBA      #512,SP               ; [] 
         000004 0200 
    1095                    .dwcfi  cfa_offset, 520
    1096            $C$DW$76        .dwtag  DW_TAG_variable
    1097                    .dwattr $C$DW$76, DW_AT_name("T")
    1098                    .dwattr $C$DW$76, DW_AT_TI_symbol_name("T")
    1099                    .dwattr $C$DW$76, DW_AT_type(*$C$DW$T$115)
    1100                    .dwattr $C$DW$76, DW_AT_location[DW_OP_breg1 0]
    1101            
    1102            ;* r12   assigned to sov1
    1103            $C$DW$77        .dwtag  DW_TAG_variable
    1104                    .dwattr $C$DW$77, DW_AT_name("sov1")
    1105                    .dwattr $C$DW$77, DW_AT_TI_symbol_name("sov1")
    1106                    .dwattr $C$DW$77, DW_AT_type(*$C$DW$T$11)
    1107                    .dwattr $C$DW$77, DW_AT_location[DW_OP_reg12]
    1108            
    1109            ;* r13   assigned to sov2
    1110            $C$DW$78        .dwtag  DW_TAG_variable
MSP430 Assembler PC v21.6.1 Tue Dec 20 13:46:02 2022

Copyright (c) 2003-2018 Texas Instruments Incorporated
Output_Voltage_Set.asm                                               PAGE   24

    1111                    .dwattr $C$DW$78, DW_AT_name("sov2")
    1112                    .dwattr $C$DW$78, DW_AT_TI_symbol_name("sov2")
    1113                    .dwattr $C$DW$78, DW_AT_type(*$C$DW$T$11)
    1114                    .dwattr $C$DW$78, DW_AT_location[DW_OP_reg13]
    1115            
    1116            ;* r14   assigned to i
    1117            $C$DW$79        .dwtag  DW_TAG_variable
    1118                    .dwattr $C$DW$79, DW_AT_name("i")
    1119                    .dwattr $C$DW$79, DW_AT_TI_symbol_name("i")
    1120                    .dwattr $C$DW$79, DW_AT_type(*$C$DW$T$11)
    1121                    .dwattr $C$DW$79, DW_AT_location[DW_OP_reg14]
    1122            
    1123            ;* r15   assigned to ROptr
    1124            $C$DW$80        .dwtag  DW_TAG_variable
    1125                    .dwattr $C$DW$80, DW_AT_name("ROptr")
    1126                    .dwattr $C$DW$80, DW_AT_TI_symbol_name("ROptr")
    1127                    .dwattr $C$DW$80, DW_AT_type(*$C$DW$T$113)
    1128                    .dwattr $C$DW$80, DW_AT_location[DW_OP_reg15]
    1129            
    1130                    .dwpsn  file "../src/Output_Voltage_Set.c",line 131,column 3,is_stmt,isa 0
    1131 000006 40B2          MOV.W     #23168,&WDTCTL+0      ; [] |131| 
         000008 5A80 
         00000a 0000!
    1132                    .dwpsn  file "../src/Output_Voltage_Set.c",line 132,column 3,is_stmt,isa 0
    1133 00000c C232          DINT
    1134 00000e 4303          NOP      ; [] |132| 
    1135                    .dwpsn  file "../src/Output_Voltage_Set.c",line 137,column 3,is_stmt,isa 0
    1136 000010 403F          MOV.W     #34560,r15            ; [] |137| 
         000012 8700 
    1137                    .dwpsn  file "../src/Output_Voltage_Set.c",line 140,column 13,is_stmt,isa 0
    1138 000014 430E          MOV.W     #0,r14                ; [] |140| 
    1139 000016 903E          CMP.W     #256,r14              ; [] |140| 
         000018 0100 
    1140 00001a 2C0B          JHS       $C$L20                ; [] |140| 
    1141                                                      ; [] |140| 
    1142            ;* --------------------------------------------------------------------------*
    1143            ;*   BEGIN LOOP $C$L19
    1144            ;*
    1145            ;*   Loop source line                : 140
    1146            ;*   Loop closing brace source line  : 143
    1147            ;*   Known Minimum Trip Count        : 1
    1148            ;*   Known Maximum Trip Count        : 4294967295
    1149            ;*   Known Max Trip Count Factor     : 1
    1150            ;* --------------------------------------------------------------------------*
    1151 00001c       $C$L19:    
    1152                    .dwpsn  file "../src/Output_Voltage_Set.c",line 142,column 5,is_stmt,isa 0
    1153 00001c 01CB          MOVX.A    SP,r11                ; [] |142| 
    1154 00001e 0ECA          MOVA      r14,r10               ; [] |142| 
    1155 000020 025A          RLAM.W    #1,r10                ; [] |142| 
    1156 000022 4A0A          MOV.W     r10,r10               ; [] |142| 
    1157 000024 0BEA          ADDA      r11,r10               ; [] |142| 
    1158 000026 4FBA          MOV.W     @r15+,0(r10)          ; [] |142| 
         000028 0000 
    1159                    .dwpsn  file "../src/Output_Voltage_Set.c",line 140,column 20,is_stmt,isa 0
    1160 00002a 531E          ADD.W     #1,r14                ; [] |140| 
MSP430 Assembler PC v21.6.1 Tue Dec 20 13:46:02 2022

Copyright (c) 2003-2018 Texas Instruments Incorporated
Output_Voltage_Set.asm                                               PAGE   25

    1161 00002c 903E          CMP.W     #256,r14              ; [] |140| 
         00002e 0100 
    1162 000030 2BF5          JLO       $C$L19                ; [] |140| 
    1163                                                      ; [] |140| 
    1164            ;* --------------------------------------------------------------------------*
    1165 000032       $C$L20:    
    1166                    .dwpsn  file "../src/Output_Voltage_Set.c",line 148,column 3,is_stmt,isa 0
    1167 000032 40B2          MOV.W     #42240,&FCTL3+0       ; [] |148| 
         000034 A500 
         000036 0000!
    1168                    .dwpsn  file "../src/Output_Voltage_Set.c",line 149,column 3,is_stmt,isa 0
    1169 000038 40B2          MOV.W     #42242,&FCTL1+0       ; [] |149| 
         00003a A502 
         00003c 0000!
    1170                    .dwpsn  file "../src/Output_Voltage_Set.c",line 152,column 3,is_stmt,isa 0
    1171 00003e 403F          MOV.W     #34560,r15            ; [] |152| 
         000040 8700 
    1172 000042 438F          MOV.W     #0,0(r15)             ; [] |152| 
         000044 0000 
    1173                    .dwpsn  file "../src/Output_Voltage_Set.c",line 156,column 3,is_stmt,isa 0
    1174 000046 40B2          MOV.W     #42240,&FCTL3+0       ; [] |156| 
         000048 A500 
         00004a 0000!
    1175                    .dwpsn  file "../src/Output_Voltage_Set.c",line 157,column 3,is_stmt,isa 0
    1176 00004c 40B2          MOV.W     #42304,&FCTL1+0       ; [] |157| 
         00004e A540 
         000050 0000!
    1177                    .dwpsn  file "../src/Output_Voltage_Set.c",line 160,column 3,is_stmt,isa 0
    1178                    .dwpsn  file "../src/Output_Voltage_Set.c",line 162,column 3,is_stmt,isa 0
    1179 000052 03EF          ADDA      #2,r15                ; [] |162| 
    1180 000054 4C8F          MOV.W     r12,-2(r15)           ; [] |162| 
         000056 FFFE 
    1181                    .dwpsn  file "../src/Output_Voltage_Set.c",line 163,column 3,is_stmt,isa 0
    1182 000058 03EF          ADDA      #2,r15                ; [] |163| 
    1183 00005a 4D8F          MOV.W     r13,-2(r15)           ; [] |163| 
         00005c FFFE 
    1184                    .dwpsn  file "../src/Output_Voltage_Set.c",line 164,column 13,is_stmt,isa 0
    1185 00005e 432E          MOV.W     #2,r14                ; [] |164| 
    1186 000060 903E          CMP.W     #256,r14              ; [] |164| 
         000062 0100 
    1187 000064 2C0C          JHS       $C$L22                ; [] |164| 
    1188                                                      ; [] |164| 
    1189            ;* --------------------------------------------------------------------------*
    1190            ;*   BEGIN LOOP $C$L21
    1191            ;*
    1192            ;*   Loop source line                : 164
    1193            ;*   Loop closing brace source line  : 167
    1194            ;*   Known Minimum Trip Count        : 1
    1195            ;*   Known Maximum Trip Count        : 4294967295
    1196            ;*   Known Max Trip Count Factor     : 1
    1197            ;* --------------------------------------------------------------------------*
    1198 000066       $C$L21:    
    1199                    .dwpsn  file "../src/Output_Voltage_Set.c",line 166,column 5,is_stmt,isa 0
    1200 000066 01CD          MOVX.A    SP,r13                ; [] |166| 
    1201 000068 0ECC          MOVA      r14,r12               ; [] |166| 
MSP430 Assembler PC v21.6.1 Tue Dec 20 13:46:02 2022

Copyright (c) 2003-2018 Texas Instruments Incorporated
Output_Voltage_Set.asm                                               PAGE   26

    1202 00006a 025C          RLAM.W    #1,r12                ; [] |166| 
    1203 00006c 4C0C          MOV.W     r12,r12               ; [] |166| 
    1204 00006e 0DEC          ADDA      r13,r12               ; [] |166| 
    1205 000070 03EF          ADDA      #2,r15                ; [] |166| 
    1206 000072 4CAF          MOV.W     @r12,-2(r15)          ; [] |166| 
         000074 FFFE 
    1207                    .dwpsn  file "../src/Output_Voltage_Set.c",line 164,column 20,is_stmt,isa 0
    1208 000076 531E          ADD.W     #1,r14                ; [] |164| 
    1209 000078 903E          CMP.W     #256,r14              ; [] |164| 
         00007a 0100 
    1210 00007c 2BF4          JLO       $C$L21                ; [] |164| 
    1211                                                      ; [] |164| 
    1212            ;* --------------------------------------------------------------------------*
    1213 00007e       $C$L22:    
    1214                    .dwpsn  file "../src/Output_Voltage_Set.c",line 169,column 3,is_stmt,isa 0
    1215 00007e 40B2          MOV.W     #42240,&FCTL1+0       ; [] |169| 
         000080 A500 
         000082 0000!
    1216                    .dwpsn  file "../src/Output_Voltage_Set.c",line 170,column 3,is_stmt,isa 0
    1217 000084 40B2          MOV.W     #42256,&FCTL3+0       ; [] |170| 
         000086 A510 
         000088 0000!
    1218                    .dwpsn  file "../src/Output_Voltage_Set.c",line 172,column 3,is_stmt,isa 0
    1219 00008a 40B2          MOV.W     #23048,&WDTCTL+0      ; [] |172| 
         00008c 5A08 
         00008e 0000!
    1220                    .dwpsn  file "../src/Output_Voltage_Set.c",line 176,column 3,is_stmt,isa 0
    1221 000090 4303          NOP
    1222 000092 D232          EINT
    1223 000094 4303          NOP      ; [] |176| 
    1224                    .dwpsn  file "../src/Output_Voltage_Set.c",line 179,column 1,is_stmt,isa 0
    1225 000096 00A1          ADDA      #512,SP               ; [] 
         000098 0200 
    1226                    .dwcfi  cfa_offset, 8
    1227 00009a 160A          POPM.A    #1,r10                ; [] 
    1228                    .dwcfi  restore_reg, 10
    1229                    .dwcfi  cfa_offset, 4
    1230            $C$DW$81        .dwtag  DW_TAG_TI_branch
    1231                    .dwattr $C$DW$81, DW_AT_low_pc(0x00)
    1232                    .dwattr $C$DW$81, DW_AT_TI_return
    1233            
    1234 00009c 0110          RETA      ; [] 
    1235                    ; [] 
    1236                    .dwattr $C$DW$73, DW_AT_TI_end_file("../src/Output_Voltage_Set.c")
    1237                    .dwattr $C$DW$73, DW_AT_TI_end_line(0xb3)
    1238                    .dwattr $C$DW$73, DW_AT_TI_end_column(0x01)
    1239                    .dwendentry
    1240                    .dwendtag $C$DW$73
    1241            
    1242 000000               .sect   ".text:__signbitl"
    1243                    .clink
    1244                    .global __signbitl
    1245            
    1246            $C$DW$82        .dwtag  DW_TAG_subprogram
    1247                    .dwattr $C$DW$82, DW_AT_name("__signbitl")
MSP430 Assembler PC v21.6.1 Tue Dec 20 13:46:02 2022

Copyright (c) 2003-2018 Texas Instruments Incorporated
Output_Voltage_Set.asm                                               PAGE   27

    1248                    .dwattr $C$DW$82, DW_AT_low_pc(__signbitl)
    1249                    .dwattr $C$DW$82, DW_AT_high_pc(0x00)
    1250                    .dwattr $C$DW$82, DW_AT_TI_symbol_name("__signbitl")
    1251                    .dwattr $C$DW$82, DW_AT_external
    1252                    .dwattr $C$DW$82, DW_AT_type(*$C$DW$T$10)
    1253                    .dwattr $C$DW$82, DW_AT_TI_begin_file("C:/ti/ccs1110/ccs/tools/compiler/ti-cgt-msp430_21.6.1.L
    1254                    .dwattr $C$DW$82, DW_AT_TI_begin_line(0x16f)
    1255                    .dwattr $C$DW$82, DW_AT_TI_begin_column(0x25)
    1256                    .dwattr $C$DW$82, DW_AT_decl_file("C:/ti/ccs1110/ccs/tools/compiler/ti-cgt-msp430_21.6.1.LTS/i
    1257                    .dwattr $C$DW$82, DW_AT_decl_line(0x16f)
    1258                    .dwattr $C$DW$82, DW_AT_decl_column(0x25)
    1259                    .dwattr $C$DW$82, DW_AT_TI_max_frame_size(0x04)
    1260                    .dwpsn  file "C:/ti/ccs1110/ccs/tools/compiler/ti-cgt-msp430_21.6.1.LTS/include/_defs.h",line 
    1261            
    1262                    .dwfde $C$DW$CIE, __signbitl
    1263            $C$DW$83        .dwtag  DW_TAG_formal_parameter
    1264                    .dwattr $C$DW$83, DW_AT_name("e")
    1265                    .dwattr $C$DW$83, DW_AT_TI_symbol_name("e")
    1266                    .dwattr $C$DW$83, DW_AT_type(*$C$DW$T$18)
    1267                    .dwattr $C$DW$83, DW_AT_location[DW_OP_reg12 DW_OP_piece 2 DW_OP_reg13 DW_OP_piece 2 DW_OP_reg
    1268            
    1269            
    1270            ;*****************************************************************************
    1271            ;* FUNCTION NAME: __signbitl                                                 *
    1272            ;*                                                                           *
    1273            ;*   Regs Modified     : SP,SR,r11,r12,r13,r14,r15                           *
    1274            ;*   Regs Used         : SP,SR,r11,r12,r13,r14,r15                           *
    1275            ;*   Local Frame Size  : 0 Args + 0 Auto + 0 Save = 0 byte                   *
    1276            ;*****************************************************************************
    1277 000000       __signbitl:
    1278            ;* --------------------------------------------------------------------------*
    1279                    .dwcfi  cfa_offset, 4
    1280                    .dwcfi  save_reg_to_mem, 16, -4
    1281                    .dwpsn  file "C:/ti/ccs1110/ccs/tools/compiler/ti-cgt-msp430_21.6.1.LTS/include/_defs.h",line 
    1282 000000 430B          MOV.W     #0,r11                ; [] |368| 
    1283 000002 F30C          AND.W     #0,r12                ; [] |368| 
    1284 000004 F30D          AND.W     #0,r13                ; [] |368| 
    1285 000006 F30E          AND.W     #0,r14                ; [] |368| 
    1286 000008 F03F          AND.W     #32768,r15            ; [] |368| 
         00000a 8000 
    1287 00000c 930F          TST.W     r15                   ; [] |368| 
    1288 00000e 2006          JNE       $C$L23                ; [] |368| 
    1289                                                      ; [] |368| 
    1290            ;* --------------------------------------------------------------------------*
    1291 000010 930E          TST.W     r14                   ; [] |368| 
    1292 000012 2004          JNE       $C$L23                ; [] |368| 
    1293                                                      ; [] |368| 
    1294            ;* --------------------------------------------------------------------------*
    1295 000014 930D          TST.W     r13                   ; [] |368| 
    1296 000016 2002          JNE       $C$L23                ; [] |368| 
    1297                                                      ; [] |368| 
    1298            ;* --------------------------------------------------------------------------*
    1299 000018 930C          TST.W     r12                   ; [] |368| 
    1300 00001a 2401          JEQ       $C$L24                ; [] |368| 
    1301                                                      ; [] |368| 
MSP430 Assembler PC v21.6.1 Tue Dec 20 13:46:02 2022

Copyright (c) 2003-2018 Texas Instruments Incorporated
Output_Voltage_Set.asm                                               PAGE   28

    1302            ;* --------------------------------------------------------------------------*
    1303 00001c       $C$L23:    
    1304 00001c 431B          MOV.W     #1,r11                ; [] |368| 
    1305            ;* --------------------------------------------------------------------------*
    1306 00001e       $C$L24:    
    1307 00001e 0BCC          MOVA      r11,r12               ; [] |368| 
    1308                    .dwpsn  file "C:/ti/ccs1110/ccs/tools/compiler/ti-cgt-msp430_21.6.1.LTS/include/_defs.h",line 
    1309            $C$DW$84        .dwtag  DW_TAG_TI_branch
    1310                    .dwattr $C$DW$84, DW_AT_low_pc(0x00)
    1311                    .dwattr $C$DW$84, DW_AT_TI_return
    1312            
    1313 000020 0110          RETA      ; [] 
    1314                    ; [] 
    1315                    .dwattr $C$DW$82, DW_AT_TI_end_file("C:/ti/ccs1110/ccs/tools/compiler/ti-cgt-msp430_21.6.1.LTS
    1316                    .dwattr $C$DW$82, DW_AT_TI_end_line(0x170)
    1317                    .dwattr $C$DW$82, DW_AT_TI_end_column(0x2b)
    1318                    .dwendentry
    1319                    .dwendtag $C$DW$82
    1320            
    1321 000000               .sect   ".text:__signbitf"
    1322                    .clink
    1323                    .global __signbitf
    1324            
    1325            $C$DW$85        .dwtag  DW_TAG_subprogram
    1326                    .dwattr $C$DW$85, DW_AT_name("__signbitf")
    1327                    .dwattr $C$DW$85, DW_AT_low_pc(__signbitf)
    1328                    .dwattr $C$DW$85, DW_AT_high_pc(0x00)
    1329                    .dwattr $C$DW$85, DW_AT_TI_symbol_name("__signbitf")
    1330                    .dwattr $C$DW$85, DW_AT_external
    1331                    .dwattr $C$DW$85, DW_AT_type(*$C$DW$T$10)
    1332                    .dwattr $C$DW$85, DW_AT_TI_begin_file("C:/ti/ccs1110/ccs/tools/compiler/ti-cgt-msp430_21.6.1.L
    1333                    .dwattr $C$DW$85, DW_AT_TI_begin_line(0x16d)
    1334                    .dwattr $C$DW$85, DW_AT_TI_begin_column(0x25)
    1335                    .dwattr $C$DW$85, DW_AT_decl_file("C:/ti/ccs1110/ccs/tools/compiler/ti-cgt-msp430_21.6.1.LTS/i
    1336                    .dwattr $C$DW$85, DW_AT_decl_line(0x16d)
    1337                    .dwattr $C$DW$85, DW_AT_decl_column(0x25)
    1338                    .dwattr $C$DW$85, DW_AT_TI_max_frame_size(0x04)
    1339                    .dwpsn  file "C:/ti/ccs1110/ccs/tools/compiler/ti-cgt-msp430_21.6.1.LTS/include/_defs.h",line 
    1340            
    1341                    .dwfde $C$DW$CIE, __signbitf
    1342            $C$DW$86        .dwtag  DW_TAG_formal_parameter
    1343                    .dwattr $C$DW$86, DW_AT_name("f")
    1344                    .dwattr $C$DW$86, DW_AT_TI_symbol_name("f")
    1345                    .dwattr $C$DW$86, DW_AT_type(*$C$DW$T$16)
    1346                    .dwattr $C$DW$86, DW_AT_location[DW_OP_reg12 DW_OP_piece 2 DW_OP_reg13 DW_OP_piece 2]
    1347            
    1348            
    1349            ;*****************************************************************************
    1350            ;* FUNCTION NAME: __signbitf                                                 *
    1351            ;*                                                                           *
    1352            ;*   Regs Modified     : SP,SR,r12                                           *
    1353            ;*   Regs Used         : SP,SR,r12,r13                                       *
    1354            ;*   Local Frame Size  : 0 Args + 0 Auto + 0 Save = 0 byte                   *
    1355            ;*****************************************************************************
    1356 000000       __signbitf:
MSP430 Assembler PC v21.6.1 Tue Dec 20 13:46:02 2022

Copyright (c) 2003-2018 Texas Instruments Incorporated
Output_Voltage_Set.asm                                               PAGE   29

    1357            ;* --------------------------------------------------------------------------*
    1358                    .dwcfi  cfa_offset, 4
    1359                    .dwcfi  save_reg_to_mem, 16, -4
    1360                    .dwpsn  file "C:/ti/ccs1110/ccs/tools/compiler/ti-cgt-msp430_21.6.1.LTS/include/_defs.h",line 
    1361 000000 430C          MOV.W     #0,r12                ; [] |366| 
    1362 000002 930D          TST.W     r13                   ; [] |366| 
    1363 000004 3401          JGE       $C$L25                ; [] |366| 
    1364                                                      ; [] |366| 
    1365            ;* --------------------------------------------------------------------------*
    1366 000006 431C          MOV.W     #1,r12                ; [] |366| 
    1367            ;* --------------------------------------------------------------------------*
    1368 000008       $C$L25:    
    1369                    .dwpsn  file "C:/ti/ccs1110/ccs/tools/compiler/ti-cgt-msp430_21.6.1.LTS/include/_defs.h",line 
    1370            $C$DW$87        .dwtag  DW_TAG_TI_branch
    1371                    .dwattr $C$DW$87, DW_AT_low_pc(0x00)
    1372                    .dwattr $C$DW$87, DW_AT_TI_return
    1373            
    1374 000008 0110          RETA      ; [] 
    1375                    ; [] 
    1376                    .dwattr $C$DW$85, DW_AT_TI_end_file("C:/ti/ccs1110/ccs/tools/compiler/ti-cgt-msp430_21.6.1.LTS
    1377                    .dwattr $C$DW$85, DW_AT_TI_end_line(0x16e)
    1378                    .dwattr $C$DW$85, DW_AT_TI_end_column(0x29)
    1379                    .dwendentry
    1380                    .dwendtag $C$DW$85
    1381            
    1382 000000               .sect   ".text:__signbit"
    1383                    .clink
    1384                    .global __signbit
    1385            
    1386            $C$DW$88        .dwtag  DW_TAG_subprogram
    1387                    .dwattr $C$DW$88, DW_AT_name("__signbit")
    1388                    .dwattr $C$DW$88, DW_AT_low_pc(__signbit)
    1389                    .dwattr $C$DW$88, DW_AT_high_pc(0x00)
    1390                    .dwattr $C$DW$88, DW_AT_TI_symbol_name("__signbit")
    1391                    .dwattr $C$DW$88, DW_AT_external
    1392                    .dwattr $C$DW$88, DW_AT_type(*$C$DW$T$10)
    1393                    .dwattr $C$DW$88, DW_AT_TI_begin_file("C:/ti/ccs1110/ccs/tools/compiler/ti-cgt-msp430_21.6.1.L
    1394                    .dwattr $C$DW$88, DW_AT_TI_begin_line(0x16b)
    1395                    .dwattr $C$DW$88, DW_AT_TI_begin_column(0x25)
    1396                    .dwattr $C$DW$88, DW_AT_decl_file("C:/ti/ccs1110/ccs/tools/compiler/ti-cgt-msp430_21.6.1.LTS/i
    1397                    .dwattr $C$DW$88, DW_AT_decl_line(0x16b)
    1398                    .dwattr $C$DW$88, DW_AT_decl_column(0x25)
    1399                    .dwattr $C$DW$88, DW_AT_TI_max_frame_size(0x04)
    1400                    .dwpsn  file "C:/ti/ccs1110/ccs/tools/compiler/ti-cgt-msp430_21.6.1.LTS/include/_defs.h",line 
    1401            
    1402                    .dwfde $C$DW$CIE, __signbit
    1403            $C$DW$89        .dwtag  DW_TAG_formal_parameter
    1404                    .dwattr $C$DW$89, DW_AT_name("d")
    1405                    .dwattr $C$DW$89, DW_AT_TI_symbol_name("d")
    1406                    .dwattr $C$DW$89, DW_AT_type(*$C$DW$T$17)
    1407                    .dwattr $C$DW$89, DW_AT_location[DW_OP_reg12 DW_OP_piece 2 DW_OP_reg13 DW_OP_piece 2 DW_OP_reg
    1408            
    1409            
    1410            ;*****************************************************************************
    1411            ;* FUNCTION NAME: __signbit                                                  *
MSP430 Assembler PC v21.6.1 Tue Dec 20 13:46:02 2022

Copyright (c) 2003-2018 Texas Instruments Incorporated
Output_Voltage_Set.asm                                               PAGE   30

    1412            ;*                                                                           *
    1413            ;*   Regs Modified     : SP,SR,r11,r12,r13,r14,r15                           *
    1414            ;*   Regs Used         : SP,SR,r11,r12,r13,r14,r15                           *
    1415            ;*   Local Frame Size  : 0 Args + 0 Auto + 0 Save = 0 byte                   *
    1416            ;*****************************************************************************
    1417 000000       __signbit:
    1418            ;* --------------------------------------------------------------------------*
    1419                    .dwcfi  cfa_offset, 4
    1420                    .dwcfi  save_reg_to_mem, 16, -4
    1421                    .dwpsn  file "C:/ti/ccs1110/ccs/tools/compiler/ti-cgt-msp430_21.6.1.LTS/include/_defs.h",line 
    1422 000000 430B          MOV.W     #0,r11                ; [] |364| 
    1423 000002 F30C          AND.W     #0,r12                ; [] |364| 
    1424 000004 F30D          AND.W     #0,r13                ; [] |364| 
    1425 000006 F30E          AND.W     #0,r14                ; [] |364| 
    1426 000008 F03F          AND.W     #32768,r15            ; [] |364| 
         00000a 8000 
    1427 00000c 930F          TST.W     r15                   ; [] |364| 
    1428 00000e 2006          JNE       $C$L26                ; [] |364| 
    1429                                                      ; [] |364| 
    1430            ;* --------------------------------------------------------------------------*
    1431 000010 930E          TST.W     r14                   ; [] |364| 
    1432 000012 2004          JNE       $C$L26                ; [] |364| 
    1433                                                      ; [] |364| 
    1434            ;* --------------------------------------------------------------------------*
    1435 000014 930D          TST.W     r13                   ; [] |364| 
    1436 000016 2002          JNE       $C$L26                ; [] |364| 
    1437                                                      ; [] |364| 
    1438            ;* --------------------------------------------------------------------------*
    1439 000018 930C          TST.W     r12                   ; [] |364| 
    1440 00001a 2401          JEQ       $C$L27                ; [] |364| 
    1441                                                      ; [] |364| 
    1442            ;* --------------------------------------------------------------------------*
    1443 00001c       $C$L26:    
    1444 00001c 431B          MOV.W     #1,r11                ; [] |364| 
    1445            ;* --------------------------------------------------------------------------*
    1446 00001e       $C$L27:    
    1447 00001e 0BCC          MOVA      r11,r12               ; [] |364| 
    1448                    .dwpsn  file "C:/ti/ccs1110/ccs/tools/compiler/ti-cgt-msp430_21.6.1.LTS/include/_defs.h",line 
    1449            $C$DW$90        .dwtag  DW_TAG_TI_branch
    1450                    .dwattr $C$DW$90, DW_AT_low_pc(0x00)
    1451                    .dwattr $C$DW$90, DW_AT_TI_return
    1452            
    1453 000020 0110          RETA      ; [] 
    1454                    ; [] 
    1455                    .dwattr $C$DW$88, DW_AT_TI_end_file("C:/ti/ccs1110/ccs/tools/compiler/ti-cgt-msp430_21.6.1.LTS
    1456                    .dwattr $C$DW$88, DW_AT_TI_end_line(0x16c)
    1457                    .dwattr $C$DW$88, DW_AT_TI_end_column(0x2a)
    1458                    .dwendentry
    1459                    .dwendtag $C$DW$88
    1460            
    1461 000000               .sect   ".text:__isnormall"
    1462                    .clink
    1463                    .global __isnormall
    1464            
    1465            $C$DW$91        .dwtag  DW_TAG_subprogram
MSP430 Assembler PC v21.6.1 Tue Dec 20 13:46:02 2022

Copyright (c) 2003-2018 Texas Instruments Incorporated
Output_Voltage_Set.asm                                               PAGE   31

    1466                    .dwattr $C$DW$91, DW_AT_name("__isnormall")
    1467                    .dwattr $C$DW$91, DW_AT_low_pc(__isnormall)
    1468                    .dwattr $C$DW$91, DW_AT_high_pc(0x00)
    1469                    .dwattr $C$DW$91, DW_AT_TI_symbol_name("__isnormall")
    1470                    .dwattr $C$DW$91, DW_AT_external
    1471                    .dwattr $C$DW$91, DW_AT_type(*$C$DW$T$10)
    1472                    .dwattr $C$DW$91, DW_AT_TI_begin_file("C:/ti/ccs1110/ccs/tools/compiler/ti-cgt-msp430_21.6.1.L
    1473                    .dwattr $C$DW$91, DW_AT_TI_begin_line(0x167)
    1474                    .dwattr $C$DW$91, DW_AT_TI_begin_column(0x25)
    1475                    .dwattr $C$DW$91, DW_AT_decl_file("C:/ti/ccs1110/ccs/tools/compiler/ti-cgt-msp430_21.6.1.LTS/i
    1476                    .dwattr $C$DW$91, DW_AT_decl_line(0x167)
    1477                    .dwattr $C$DW$91, DW_AT_decl_column(0x25)
    1478                    .dwattr $C$DW$91, DW_AT_TI_max_frame_size(0x18)
    1479                    .dwpsn  file "C:/ti/ccs1110/ccs/tools/compiler/ti-cgt-msp430_21.6.1.LTS/include/_defs.h",line 
    1480            
    1481                    .dwfde $C$DW$CIE, __isnormall
    1482            $C$DW$92        .dwtag  DW_TAG_formal_parameter
    1483                    .dwattr $C$DW$92, DW_AT_name("e")
    1484                    .dwattr $C$DW$92, DW_AT_TI_symbol_name("e")
    1485                    .dwattr $C$DW$92, DW_AT_type(*$C$DW$T$18)
    1486                    .dwattr $C$DW$92, DW_AT_location[DW_OP_reg12 DW_OP_piece 2 DW_OP_reg13 DW_OP_piece 2 DW_OP_reg
    1487            
    1488            
    1489            ;*****************************************************************************
    1490            ;* FUNCTION NAME: __isnormall                                                *
    1491            ;*                                                                           *
    1492            ;*   Regs Modified     : SP,SR,r6,r7,r8,r9,r10,r11,r12,r13,r14,r15           *
    1493            ;*   Regs Used         : SP,SR,r6,r7,r8,r9,r10,r11,r12,r13,r14,r15           *
    1494            ;*   Local Frame Size  : 0 Args + 0 Auto + 20 Save = 20 byte                 *
    1495            ;*****************************************************************************
    1496 000000       __isnormall:
    1497            ;* --------------------------------------------------------------------------*
    1498                    .dwcfi  cfa_offset, 4
    1499                    .dwcfi  save_reg_to_mem, 16, -4
    1500 000000 144A          PUSHM.A   #5,r10                ; [] 
    1501                    .dwcfi  save_reg_to_mem, 10, -8
    1502                    .dwcfi  save_reg_to_mem, 9, -12
    1503                    .dwcfi  save_reg_to_mem, 8, -16
    1504                    .dwcfi  save_reg_to_mem, 7, -20
    1505                    .dwcfi  save_reg_to_mem, 6, -24
    1506                    .dwcfi  cfa_offset, 24
    1507            ;* r6    assigned to $O$S1
    1508            ;* r12   assigned to e
    1509            $C$DW$93        .dwtag  DW_TAG_variable
    1510                    .dwattr $C$DW$93, DW_AT_name("e")
    1511                    .dwattr $C$DW$93, DW_AT_TI_symbol_name("e")
    1512                    .dwattr $C$DW$93, DW_AT_type(*$C$DW$T$18)
    1513                    .dwattr $C$DW$93, DW_AT_location[DW_OP_reg12 DW_OP_piece 2 DW_OP_reg13 DW_OP_piece 2 DW_OP_reg
    1514            
    1515 000002 0FC7          MOVA      r15,r7                ; [] |360| 
    1516                    .dwpsn  file "C:/ti/ccs1110/ccs/tools/compiler/ti-cgt-msp430_21.6.1.LTS/include/_defs.h",line 
    1517 000004 4306          MOV.W     #0,r6                 ; [] |360| 
    1518 000006 0CC8          MOVA      r12,r8                ; [] |360| 
    1519 000008 0DC9          MOVA      r13,r9                ; [] |360| 
    1520 00000a 0ECA          MOVA      r14,r10               ; [] |360| 
MSP430 Assembler PC v21.6.1 Tue Dec 20 13:46:02 2022

Copyright (c) 2003-2018 Texas Instruments Incorporated
Output_Voltage_Set.asm                                               PAGE   32

    1521 00000c 07CB          MOVA      r7,r11                ; [] |360| 
    1522 00000e 403C          MOV.W     #52,r12               ; [] |360| 
         000010 0034 
    1523            $C$DW$94        .dwtag  DW_TAG_TI_branch
    1524                    .dwattr $C$DW$94, DW_AT_low_pc(0x00)
    1525                    .dwattr $C$DW$94, DW_AT_name("__mspabi_srlll")
    1526                    .dwattr $C$DW$94, DW_AT_TI_call
    1527            
    1528 000012 13B0!         CALLA     #__mspabi_srlll       ; [] |360| 
         000014 0000 
    1529                                                      ; [] |360| 
    1530 000016 F03C          AND.W     #2047,r12             ; [] |360| 
         000018 07FF 
    1531 00001a F30D          AND.W     #0,r13                ; [] |360| 
    1532 00001c F30E          AND.W     #0,r14                ; [] |360| 
    1533 00001e F30F          AND.W     #0,r15                ; [] |360| 
    1534 000020 930F          TST.W     r15                   ; [] |360| 
    1535 000022 2006          JNE       $C$L28                ; [] |360| 
    1536                                                      ; [] |360| 
    1537            ;* --------------------------------------------------------------------------*
    1538 000024 930E          TST.W     r14                   ; [] |360| 
    1539 000026 2004          JNE       $C$L28                ; [] |360| 
    1540                                                      ; [] |360| 
    1541            ;* --------------------------------------------------------------------------*
    1542 000028 930D          TST.W     r13                   ; [] |360| 
    1543 00002a 2002          JNE       $C$L28                ; [] |360| 
    1544                                                      ; [] |360| 
    1545            ;* --------------------------------------------------------------------------*
    1546 00002c 930C          TST.W     r12                   ; [] |360| 
    1547 00002e 2406          JEQ       $C$L29                ; [] |360| 
    1548                                                      ; [] |360| 
    1549            ;* --------------------------------------------------------------------------*
    1550 000030       $C$L28:    
    1551 000030 F037          AND.W     #32752,r7             ; [] |360| 
         000032 7FF0 
    1552 000034 9037          CMP.W     #32752,r7             ; [] |360| 
         000036 7FF0 
    1553 000038 2401          JEQ       $C$L29                ; [] |360| 
    1554                                                      ; [] |360| 
    1555            ;* --------------------------------------------------------------------------*
    1556 00003a 4316          MOV.W     #1,r6                 ; [] |360| 
    1557            ;* --------------------------------------------------------------------------*
    1558 00003c       $C$L29:    
    1559 00003c 06CC          MOVA      r6,r12                ; [] |360| 
    1560                    .dwpsn  file "C:/ti/ccs1110/ccs/tools/compiler/ti-cgt-msp430_21.6.1.LTS/include/_defs.h",line 
    1561 00003e 1646          POPM.A    #5,r10                ; [] 
    1562                    .dwcfi  restore_reg, 6
    1563                    .dwcfi  restore_reg, 7
    1564                    .dwcfi  restore_reg, 8
    1565                    .dwcfi  restore_reg, 9
    1566                    .dwcfi  restore_reg, 10
    1567                    .dwcfi  cfa_offset, 4
    1568            $C$DW$95        .dwtag  DW_TAG_TI_branch
    1569                    .dwattr $C$DW$95, DW_AT_low_pc(0x00)
    1570                    .dwattr $C$DW$95, DW_AT_TI_return
MSP430 Assembler PC v21.6.1 Tue Dec 20 13:46:02 2022

Copyright (c) 2003-2018 Texas Instruments Incorporated
Output_Voltage_Set.asm                                               PAGE   33

    1571            
    1572 000040 0110          RETA      ; [] 
    1573                    ; [] 
    1574                    .dwattr $C$DW$91, DW_AT_TI_end_file("C:/ti/ccs1110/ccs/tools/compiler/ti-cgt-msp430_21.6.1.LTS
    1575                    .dwattr $C$DW$91, DW_AT_TI_end_line(0x169)
    1576                    .dwattr $C$DW$91, DW_AT_TI_end_column(0x31)
    1577                    .dwendentry
    1578                    .dwendtag $C$DW$91
    1579            
    1580 000000               .sect   ".text:__isnormalf"
    1581                    .clink
    1582                    .global __isnormalf
    1583            
    1584            $C$DW$96        .dwtag  DW_TAG_subprogram
    1585                    .dwattr $C$DW$96, DW_AT_name("__isnormalf")
    1586                    .dwattr $C$DW$96, DW_AT_low_pc(__isnormalf)
    1587                    .dwattr $C$DW$96, DW_AT_high_pc(0x00)
    1588                    .dwattr $C$DW$96, DW_AT_TI_symbol_name("__isnormalf")
    1589                    .dwattr $C$DW$96, DW_AT_external
    1590                    .dwattr $C$DW$96, DW_AT_type(*$C$DW$T$10)
    1591                    .dwattr $C$DW$96, DW_AT_TI_begin_file("C:/ti/ccs1110/ccs/tools/compiler/ti-cgt-msp430_21.6.1.L
    1592                    .dwattr $C$DW$96, DW_AT_TI_begin_line(0x163)
    1593                    .dwattr $C$DW$96, DW_AT_TI_begin_column(0x25)
    1594                    .dwattr $C$DW$96, DW_AT_decl_file("C:/ti/ccs1110/ccs/tools/compiler/ti-cgt-msp430_21.6.1.LTS/i
    1595                    .dwattr $C$DW$96, DW_AT_decl_line(0x163)
    1596                    .dwattr $C$DW$96, DW_AT_decl_column(0x25)
    1597                    .dwattr $C$DW$96, DW_AT_TI_max_frame_size(0x04)
    1598                    .dwpsn  file "C:/ti/ccs1110/ccs/tools/compiler/ti-cgt-msp430_21.6.1.LTS/include/_defs.h",line 
    1599            
    1600                    .dwfde $C$DW$CIE, __isnormalf
    1601            $C$DW$97        .dwtag  DW_TAG_formal_parameter
    1602                    .dwattr $C$DW$97, DW_AT_name("f")
    1603                    .dwattr $C$DW$97, DW_AT_TI_symbol_name("f")
    1604                    .dwattr $C$DW$97, DW_AT_type(*$C$DW$T$16)
    1605                    .dwattr $C$DW$97, DW_AT_location[DW_OP_reg12 DW_OP_piece 2 DW_OP_reg13 DW_OP_piece 2]
    1606            
    1607            
    1608            ;*****************************************************************************
    1609            ;* FUNCTION NAME: __isnormalf                                                *
    1610            ;*                                                                           *
    1611            ;*   Regs Modified     : SP,SR,r12,r13,r15                                   *
    1612            ;*   Regs Used         : SP,SR,r12,r13,r15                                   *
    1613            ;*   Local Frame Size  : 0 Args + 0 Auto + 0 Save = 0 byte                   *
    1614            ;*****************************************************************************
    1615 000000       __isnormalf:
    1616            ;* --------------------------------------------------------------------------*
    1617                    .dwcfi  cfa_offset, 4
    1618                    .dwcfi  save_reg_to_mem, 16, -4
    1619            ;* r12   assigned to $O$S1
    1620                    .dwpsn  file "C:/ti/ccs1110/ccs/tools/compiler/ti-cgt-msp430_21.6.1.LTS/include/_defs.h",line 
    1621 000000 430C          MOV.W     #0,r12                ; [] |356| 
    1622 000002 0DCF          MOVA      r13,r15               ; [] |356| 
    1623 000004 1946          RPT #7 || RRUX.W r15 ; [] |356| 
         000006 100F 
    1624 000008 B03F          BIT.W     #255,r15              ; [] |356| 
MSP430 Assembler PC v21.6.1 Tue Dec 20 13:46:02 2022

Copyright (c) 2003-2018 Texas Instruments Incorporated
Output_Voltage_Set.asm                                               PAGE   34

         00000a 00FF 
    1625 00000c 2406          JEQ       $C$L30                ; [] |356| 
    1626                                                      ; [] |356| 
    1627            ;* --------------------------------------------------------------------------*
    1628 00000e F03D          AND.W     #32640,r13            ; [] |356| 
         000010 7F80 
    1629 000012 903D          CMP.W     #32640,r13            ; [] |356| 
         000014 7F80 
    1630 000016 2401          JEQ       $C$L30                ; [] |356| 
    1631                                                      ; [] |356| 
    1632            ;* --------------------------------------------------------------------------*
    1633 000018 431C          MOV.W     #1,r12                ; [] |356| 
    1634            ;* --------------------------------------------------------------------------*
    1635 00001a       $C$L30:    
    1636                    .dwpsn  file "C:/ti/ccs1110/ccs/tools/compiler/ti-cgt-msp430_21.6.1.LTS/include/_defs.h",line 
    1637            $C$DW$98        .dwtag  DW_TAG_TI_branch
    1638                    .dwattr $C$DW$98, DW_AT_low_pc(0x00)
    1639                    .dwattr $C$DW$98, DW_AT_TI_return
    1640            
    1641 00001a 0110          RETA      ; [] 
    1642                    ; [] 
    1643                    .dwattr $C$DW$96, DW_AT_TI_end_file("C:/ti/ccs1110/ccs/tools/compiler/ti-cgt-msp430_21.6.1.LTS
    1644                    .dwattr $C$DW$96, DW_AT_TI_end_line(0x165)
    1645                    .dwattr $C$DW$96, DW_AT_TI_end_column(0x2f)
    1646                    .dwendentry
    1647                    .dwendtag $C$DW$96
    1648            
    1649 000000               .sect   ".text:__isnormal"
    1650                    .clink
    1651                    .global __isnormal
    1652            
    1653            $C$DW$99        .dwtag  DW_TAG_subprogram
    1654                    .dwattr $C$DW$99, DW_AT_name("__isnormal")
    1655                    .dwattr $C$DW$99, DW_AT_low_pc(__isnormal)
    1656                    .dwattr $C$DW$99, DW_AT_high_pc(0x00)
    1657                    .dwattr $C$DW$99, DW_AT_TI_symbol_name("__isnormal")
    1658                    .dwattr $C$DW$99, DW_AT_external
    1659                    .dwattr $C$DW$99, DW_AT_type(*$C$DW$T$10)
    1660                    .dwattr $C$DW$99, DW_AT_TI_begin_file("C:/ti/ccs1110/ccs/tools/compiler/ti-cgt-msp430_21.6.1.L
    1661                    .dwattr $C$DW$99, DW_AT_TI_begin_line(0x15f)
    1662                    .dwattr $C$DW$99, DW_AT_TI_begin_column(0x25)
    1663                    .dwattr $C$DW$99, DW_AT_decl_file("C:/ti/ccs1110/ccs/tools/compiler/ti-cgt-msp430_21.6.1.LTS/i
    1664                    .dwattr $C$DW$99, DW_AT_decl_line(0x15f)
    1665                    .dwattr $C$DW$99, DW_AT_decl_column(0x25)
    1666                    .dwattr $C$DW$99, DW_AT_TI_max_frame_size(0x18)
    1667                    .dwpsn  file "C:/ti/ccs1110/ccs/tools/compiler/ti-cgt-msp430_21.6.1.LTS/include/_defs.h",line 
    1668            
    1669                    .dwfde $C$DW$CIE, __isnormal
    1670            $C$DW$100       .dwtag  DW_TAG_formal_parameter
    1671                    .dwattr $C$DW$100, DW_AT_name("d")
    1672                    .dwattr $C$DW$100, DW_AT_TI_symbol_name("d")
    1673                    .dwattr $C$DW$100, DW_AT_type(*$C$DW$T$17)
    1674                    .dwattr $C$DW$100, DW_AT_location[DW_OP_reg12 DW_OP_piece 2 DW_OP_reg13 DW_OP_piece 2 DW_OP_re
    1675            
    1676            
MSP430 Assembler PC v21.6.1 Tue Dec 20 13:46:02 2022

Copyright (c) 2003-2018 Texas Instruments Incorporated
Output_Voltage_Set.asm                                               PAGE   35

    1677            ;*****************************************************************************
    1678            ;* FUNCTION NAME: __isnormal                                                 *
    1679            ;*                                                                           *
    1680            ;*   Regs Modified     : SP,SR,r6,r7,r8,r9,r10,r11,r12,r13,r14,r15           *
    1681            ;*   Regs Used         : SP,SR,r6,r7,r8,r9,r10,r11,r12,r13,r14,r15           *
    1682            ;*   Local Frame Size  : 0 Args + 0 Auto + 20 Save = 20 byte                 *
    1683            ;*****************************************************************************
    1684 000000       __isnormal:
    1685            ;* --------------------------------------------------------------------------*
    1686                    .dwcfi  cfa_offset, 4
    1687                    .dwcfi  save_reg_to_mem, 16, -4
    1688 000000 144A          PUSHM.A   #5,r10                ; [] 
    1689                    .dwcfi  save_reg_to_mem, 10, -8
    1690                    .dwcfi  save_reg_to_mem, 9, -12
    1691                    .dwcfi  save_reg_to_mem, 8, -16
    1692                    .dwcfi  save_reg_to_mem, 7, -20
    1693                    .dwcfi  save_reg_to_mem, 6, -24
    1694                    .dwcfi  cfa_offset, 24
    1695            ;* r6    assigned to $O$S1
    1696            ;* r12   assigned to d
    1697            $C$DW$101       .dwtag  DW_TAG_variable
    1698                    .dwattr $C$DW$101, DW_AT_name("d")
    1699                    .dwattr $C$DW$101, DW_AT_TI_symbol_name("d")
    1700                    .dwattr $C$DW$101, DW_AT_type(*$C$DW$T$17)
    1701                    .dwattr $C$DW$101, DW_AT_location[DW_OP_reg12 DW_OP_piece 2 DW_OP_reg13 DW_OP_piece 2 DW_OP_re
    1702            
    1703 000002 0FC7          MOVA      r15,r7                ; [] |352| 
    1704                    .dwpsn  file "C:/ti/ccs1110/ccs/tools/compiler/ti-cgt-msp430_21.6.1.LTS/include/_defs.h",line 
    1705 000004 4306          MOV.W     #0,r6                 ; [] |352| 
    1706 000006 0CC8          MOVA      r12,r8                ; [] |352| 
    1707 000008 0DC9          MOVA      r13,r9                ; [] |352| 
    1708 00000a 0ECA          MOVA      r14,r10               ; [] |352| 
    1709 00000c 07CB          MOVA      r7,r11                ; [] |352| 
    1710 00000e 403C          MOV.W     #52,r12               ; [] |352| 
         000010 0034 
    1711            $C$DW$102       .dwtag  DW_TAG_TI_branch
    1712                    .dwattr $C$DW$102, DW_AT_low_pc(0x00)
    1713                    .dwattr $C$DW$102, DW_AT_name("__mspabi_srlll")
    1714                    .dwattr $C$DW$102, DW_AT_TI_call
    1715            
    1716 000012 13B0!         CALLA     #__mspabi_srlll       ; [] |352| 
         000014 0000 
    1717                                                      ; [] |352| 
    1718 000016 F03C          AND.W     #2047,r12             ; [] |352| 
         000018 07FF 
    1719 00001a F30D          AND.W     #0,r13                ; [] |352| 
    1720 00001c F30E          AND.W     #0,r14                ; [] |352| 
    1721 00001e F30F          AND.W     #0,r15                ; [] |352| 
    1722 000020 930F          TST.W     r15                   ; [] |352| 
    1723 000022 2006          JNE       $C$L31                ; [] |352| 
    1724                                                      ; [] |352| 
    1725            ;* --------------------------------------------------------------------------*
    1726 000024 930E          TST.W     r14                   ; [] |352| 
    1727 000026 2004          JNE       $C$L31                ; [] |352| 
    1728                                                      ; [] |352| 
MSP430 Assembler PC v21.6.1 Tue Dec 20 13:46:02 2022

Copyright (c) 2003-2018 Texas Instruments Incorporated
Output_Voltage_Set.asm                                               PAGE   36

    1729            ;* --------------------------------------------------------------------------*
    1730 000028 930D          TST.W     r13                   ; [] |352| 
    1731 00002a 2002          JNE       $C$L31                ; [] |352| 
    1732                                                      ; [] |352| 
    1733            ;* --------------------------------------------------------------------------*
    1734 00002c 930C          TST.W     r12                   ; [] |352| 
    1735 00002e 2406          JEQ       $C$L32                ; [] |352| 
    1736                                                      ; [] |352| 
    1737            ;* --------------------------------------------------------------------------*
    1738 000030       $C$L31:    
    1739 000030 F037          AND.W     #32752,r7             ; [] |352| 
         000032 7FF0 
    1740 000034 9037          CMP.W     #32752,r7             ; [] |352| 
         000036 7FF0 
    1741 000038 2401          JEQ       $C$L32                ; [] |352| 
    1742                                                      ; [] |352| 
    1743            ;* --------------------------------------------------------------------------*
    1744 00003a 4316          MOV.W     #1,r6                 ; [] |352| 
    1745            ;* --------------------------------------------------------------------------*
    1746 00003c       $C$L32:    
    1747 00003c 06CC          MOVA      r6,r12                ; [] |352| 
    1748                    .dwpsn  file "C:/ti/ccs1110/ccs/tools/compiler/ti-cgt-msp430_21.6.1.LTS/include/_defs.h",line 
    1749 00003e 1646          POPM.A    #5,r10                ; [] 
    1750                    .dwcfi  restore_reg, 6
    1751                    .dwcfi  restore_reg, 7
    1752                    .dwcfi  restore_reg, 8
    1753                    .dwcfi  restore_reg, 9
    1754                    .dwcfi  restore_reg, 10
    1755                    .dwcfi  cfa_offset, 4
    1756            $C$DW$103       .dwtag  DW_TAG_TI_branch
    1757                    .dwattr $C$DW$103, DW_AT_low_pc(0x00)
    1758                    .dwattr $C$DW$103, DW_AT_TI_return
    1759            
    1760 000040 0110          RETA      ; [] 
    1761                    ; [] 
    1762                    .dwattr $C$DW$99, DW_AT_TI_end_file("C:/ti/ccs1110/ccs/tools/compiler/ti-cgt-msp430_21.6.1.LTS
    1763                    .dwattr $C$DW$99, DW_AT_TI_end_line(0x161)
    1764                    .dwattr $C$DW$99, DW_AT_TI_end_column(0x30)
    1765                    .dwendentry
    1766                    .dwendtag $C$DW$99
    1767            
    1768 000000               .sect   ".text:__isnanl"
    1769                    .clink
    1770                    .global __isnanl
    1771            
    1772            $C$DW$104       .dwtag  DW_TAG_subprogram
    1773                    .dwattr $C$DW$104, DW_AT_name("__isnanl")
    1774                    .dwattr $C$DW$104, DW_AT_low_pc(__isnanl)
    1775                    .dwattr $C$DW$104, DW_AT_high_pc(0x00)
    1776                    .dwattr $C$DW$104, DW_AT_TI_symbol_name("__isnanl")
    1777                    .dwattr $C$DW$104, DW_AT_external
    1778                    .dwattr $C$DW$104, DW_AT_type(*$C$DW$T$10)
    1779                    .dwattr $C$DW$104, DW_AT_TI_begin_file("C:/ti/ccs1110/ccs/tools/compiler/ti-cgt-msp430_21.6.1.
    1780                    .dwattr $C$DW$104, DW_AT_TI_begin_line(0x15b)
    1781                    .dwattr $C$DW$104, DW_AT_TI_begin_column(0x25)
MSP430 Assembler PC v21.6.1 Tue Dec 20 13:46:02 2022

Copyright (c) 2003-2018 Texas Instruments Incorporated
Output_Voltage_Set.asm                                               PAGE   37

    1782                    .dwattr $C$DW$104, DW_AT_decl_file("C:/ti/ccs1110/ccs/tools/compiler/ti-cgt-msp430_21.6.1.LTS/
    1783                    .dwattr $C$DW$104, DW_AT_decl_line(0x15b)
    1784                    .dwattr $C$DW$104, DW_AT_decl_column(0x25)
    1785                    .dwattr $C$DW$104, DW_AT_TI_max_frame_size(0x08)
    1786                    .dwpsn  file "C:/ti/ccs1110/ccs/tools/compiler/ti-cgt-msp430_21.6.1.LTS/include/_defs.h",line 
    1787            
    1788                    .dwfde $C$DW$CIE, __isnanl
    1789            $C$DW$105       .dwtag  DW_TAG_formal_parameter
    1790                    .dwattr $C$DW$105, DW_AT_name("e")
    1791                    .dwattr $C$DW$105, DW_AT_TI_symbol_name("e")
    1792                    .dwattr $C$DW$105, DW_AT_type(*$C$DW$T$18)
    1793                    .dwattr $C$DW$105, DW_AT_location[DW_OP_reg12 DW_OP_piece 2 DW_OP_reg13 DW_OP_piece 2 DW_OP_re
    1794            
    1795            
    1796            ;*****************************************************************************
    1797            ;* FUNCTION NAME: __isnanl                                                   *
    1798            ;*                                                                           *
    1799            ;*   Regs Modified     : SP,SR,r10,r11,r12,r13,r14,r15                       *
    1800            ;*   Regs Used         : SP,SR,r10,r11,r12,r13,r14,r15                       *
    1801            ;*   Local Frame Size  : 0 Args + 0 Auto + 4 Save = 4 byte                   *
    1802            ;*****************************************************************************
    1803 000000       __isnanl:
    1804            ;* --------------------------------------------------------------------------*
    1805                    .dwcfi  cfa_offset, 4
    1806                    .dwcfi  save_reg_to_mem, 16, -4
    1807 000000 140A          PUSHM.A   #1,r10                ; [] 
    1808                    .dwcfi  save_reg_to_mem, 10, -8
    1809                    .dwcfi  cfa_offset, 8
    1810            ;* r11   assigned to $O$S1
    1811                    .dwpsn  file "C:/ti/ccs1110/ccs/tools/compiler/ti-cgt-msp430_21.6.1.LTS/include/_defs.h",line 
    1812 000002 430B          MOV.W     #0,r11                ; [] |348| 
    1813 000004 0FCA          MOVA      r15,r10               ; [] |348| 
    1814 000006 F03A          AND.W     #32752,r10            ; [] |348| 
         000008 7FF0 
    1815 00000a 903A          CMP.W     #32752,r10            ; [] |348| 
         00000c 7FF0 
    1816 00000e 200E          JNE       $C$L34                ; [] |348| 
    1817                                                      ; [] |348| 
    1818            ;* --------------------------------------------------------------------------*
    1819 000010 F33C          AND.W     #65535,r12            ; [] |348| 
    1820 000012 F33D          AND.W     #65535,r13            ; [] |348| 
    1821 000014 F33E          AND.W     #65535,r14            ; [] |348| 
    1822 000016 F03F          AND.W     #15,r15               ; [] |348| 
         000018 000F 
    1823 00001a 930F          TST.W     r15                   ; [] |348| 
    1824 00001c 2006          JNE       $C$L33                ; [] |348| 
    1825                                                      ; [] |348| 
    1826            ;* --------------------------------------------------------------------------*
    1827 00001e 930E          TST.W     r14                   ; [] |348| 
    1828 000020 2004          JNE       $C$L33                ; [] |348| 
    1829                                                      ; [] |348| 
    1830            ;* --------------------------------------------------------------------------*
    1831 000022 930D          TST.W     r13                   ; [] |348| 
    1832 000024 2002          JNE       $C$L33                ; [] |348| 
    1833                                                      ; [] |348| 
MSP430 Assembler PC v21.6.1 Tue Dec 20 13:46:02 2022

Copyright (c) 2003-2018 Texas Instruments Incorporated
Output_Voltage_Set.asm                                               PAGE   38

    1834            ;* --------------------------------------------------------------------------*
    1835 000026 930C          TST.W     r12                   ; [] |348| 
    1836 000028 2401          JEQ       $C$L34                ; [] |348| 
    1837                                                      ; [] |348| 
    1838            ;* --------------------------------------------------------------------------*
    1839 00002a       $C$L33:    
    1840 00002a 431B          MOV.W     #1,r11                ; [] |348| 
    1841            ;* --------------------------------------------------------------------------*
    1842 00002c       $C$L34:    
    1843 00002c 0BCC          MOVA      r11,r12               ; [] |348| 
    1844                    .dwpsn  file "C:/ti/ccs1110/ccs/tools/compiler/ti-cgt-msp430_21.6.1.LTS/include/_defs.h",line 
    1845 00002e 160A          POPM.A    #1,r10                ; [] 
    1846                    .dwcfi  restore_reg, 10
    1847                    .dwcfi  cfa_offset, 4
    1848            $C$DW$106       .dwtag  DW_TAG_TI_branch
    1849                    .dwattr $C$DW$106, DW_AT_low_pc(0x00)
    1850                    .dwattr $C$DW$106, DW_AT_TI_return
    1851            
    1852 000030 0110          RETA      ; [] 
    1853                    ; [] 
    1854                    .dwattr $C$DW$104, DW_AT_TI_end_file("C:/ti/ccs1110/ccs/tools/compiler/ti-cgt-msp430_21.6.1.LT
    1855                    .dwattr $C$DW$104, DW_AT_TI_end_line(0x15d)
    1856                    .dwattr $C$DW$104, DW_AT_TI_end_column(0x30)
    1857                    .dwendentry
    1858                    .dwendtag $C$DW$104
    1859            
    1860 000000               .sect   ".text:__isnanf"
    1861                    .clink
    1862                    .global __isnanf
    1863            
    1864            $C$DW$107       .dwtag  DW_TAG_subprogram
    1865                    .dwattr $C$DW$107, DW_AT_name("__isnanf")
    1866                    .dwattr $C$DW$107, DW_AT_low_pc(__isnanf)
    1867                    .dwattr $C$DW$107, DW_AT_high_pc(0x00)
    1868                    .dwattr $C$DW$107, DW_AT_TI_symbol_name("__isnanf")
    1869                    .dwattr $C$DW$107, DW_AT_external
    1870                    .dwattr $C$DW$107, DW_AT_type(*$C$DW$T$10)
    1871                    .dwattr $C$DW$107, DW_AT_TI_begin_file("C:/ti/ccs1110/ccs/tools/compiler/ti-cgt-msp430_21.6.1.
    1872                    .dwattr $C$DW$107, DW_AT_TI_begin_line(0x158)
    1873                    .dwattr $C$DW$107, DW_AT_TI_begin_column(0x25)
    1874                    .dwattr $C$DW$107, DW_AT_decl_file("C:/ti/ccs1110/ccs/tools/compiler/ti-cgt-msp430_21.6.1.LTS/
    1875                    .dwattr $C$DW$107, DW_AT_decl_line(0x158)
    1876                    .dwattr $C$DW$107, DW_AT_decl_column(0x25)
    1877                    .dwattr $C$DW$107, DW_AT_TI_max_frame_size(0x04)
    1878                    .dwpsn  file "C:/ti/ccs1110/ccs/tools/compiler/ti-cgt-msp430_21.6.1.LTS/include/_defs.h",line 
    1879            
    1880                    .dwfde $C$DW$CIE, __isnanf
    1881            $C$DW$108       .dwtag  DW_TAG_formal_parameter
    1882                    .dwattr $C$DW$108, DW_AT_name("f")
    1883                    .dwattr $C$DW$108, DW_AT_TI_symbol_name("f")
    1884                    .dwattr $C$DW$108, DW_AT_type(*$C$DW$T$16)
    1885                    .dwattr $C$DW$108, DW_AT_location[DW_OP_reg12 DW_OP_piece 2 DW_OP_reg13 DW_OP_piece 2]
    1886            
    1887            
    1888            ;*****************************************************************************
MSP430 Assembler PC v21.6.1 Tue Dec 20 13:46:02 2022

Copyright (c) 2003-2018 Texas Instruments Incorporated
Output_Voltage_Set.asm                                               PAGE   39

    1889            ;* FUNCTION NAME: __isnanf                                                   *
    1890            ;*                                                                           *
    1891            ;*   Regs Modified     : SP,SR,r12,r13,r14,r15                               *
    1892            ;*   Regs Used         : SP,SR,r12,r13,r14,r15                               *
    1893            ;*   Local Frame Size  : 0 Args + 0 Auto + 0 Save = 0 byte                   *
    1894            ;*****************************************************************************
    1895 000000       __isnanf:
    1896            ;* --------------------------------------------------------------------------*
    1897                    .dwcfi  cfa_offset, 4
    1898                    .dwcfi  save_reg_to_mem, 16, -4
    1899            ;* r15   assigned to $O$S1
    1900                    .dwpsn  file "C:/ti/ccs1110/ccs/tools/compiler/ti-cgt-msp430_21.6.1.LTS/include/_defs.h",line 
    1901 000000 430F          MOV.W     #0,r15                ; [] |345| 
    1902 000002 0DCE          MOVA      r13,r14               ; [] |345| 
    1903 000004 F03E          AND.W     #32640,r14            ; [] |345| 
         000006 7F80 
    1904 000008 903E          CMP.W     #32640,r14            ; [] |345| 
         00000a 7F80 
    1905 00000c 2008          JNE       $C$L36                ; [] |345| 
    1906                                                      ; [] |345| 
    1907            ;* --------------------------------------------------------------------------*
    1908 00000e F33C          AND.W     #65535,r12            ; [] |345| 
    1909 000010 F03D          AND.W     #127,r13              ; [] |345| 
         000012 007F 
    1910 000014 930D          TST.W     r13                   ; [] |345| 
    1911 000016 2002          JNE       $C$L35                ; [] |345| 
    1912                                                      ; [] |345| 
    1913            ;* --------------------------------------------------------------------------*
    1914 000018 930C          TST.W     r12                   ; [] |345| 
    1915 00001a 2401          JEQ       $C$L36                ; [] |345| 
    1916                                                      ; [] |345| 
    1917            ;* --------------------------------------------------------------------------*
    1918 00001c       $C$L35:    
    1919 00001c 431F          MOV.W     #1,r15                ; [] |345| 
    1920            ;* --------------------------------------------------------------------------*
    1921 00001e       $C$L36:    
    1922 00001e 0FCC          MOVA      r15,r12               ; [] |345| 
    1923                    .dwpsn  file "C:/ti/ccs1110/ccs/tools/compiler/ti-cgt-msp430_21.6.1.LTS/include/_defs.h",line 
    1924            $C$DW$109       .dwtag  DW_TAG_TI_branch
    1925                    .dwattr $C$DW$109, DW_AT_low_pc(0x00)
    1926                    .dwattr $C$DW$109, DW_AT_TI_return
    1927            
    1928 000020 0110          RETA      ; [] 
    1929                    ; [] 
    1930                    .dwattr $C$DW$107, DW_AT_TI_end_file("C:/ti/ccs1110/ccs/tools/compiler/ti-cgt-msp430_21.6.1.LT
    1931                    .dwattr $C$DW$107, DW_AT_TI_end_line(0x15a)
    1932                    .dwattr $C$DW$107, DW_AT_TI_end_column(0x2e)
    1933                    .dwendentry
    1934                    .dwendtag $C$DW$107
    1935            
    1936 000000               .sect   ".text:__isnan"
    1937                    .clink
    1938                    .global __isnan
    1939            
    1940            $C$DW$110       .dwtag  DW_TAG_subprogram
MSP430 Assembler PC v21.6.1 Tue Dec 20 13:46:02 2022

Copyright (c) 2003-2018 Texas Instruments Incorporated
Output_Voltage_Set.asm                                               PAGE   40

    1941                    .dwattr $C$DW$110, DW_AT_name("__isnan")
    1942                    .dwattr $C$DW$110, DW_AT_low_pc(__isnan)
    1943                    .dwattr $C$DW$110, DW_AT_high_pc(0x00)
    1944                    .dwattr $C$DW$110, DW_AT_TI_symbol_name("__isnan")
    1945                    .dwattr $C$DW$110, DW_AT_external
    1946                    .dwattr $C$DW$110, DW_AT_type(*$C$DW$T$10)
    1947                    .dwattr $C$DW$110, DW_AT_TI_begin_file("C:/ti/ccs1110/ccs/tools/compiler/ti-cgt-msp430_21.6.1.
    1948                    .dwattr $C$DW$110, DW_AT_TI_begin_line(0x155)
    1949                    .dwattr $C$DW$110, DW_AT_TI_begin_column(0x25)
    1950                    .dwattr $C$DW$110, DW_AT_decl_file("C:/ti/ccs1110/ccs/tools/compiler/ti-cgt-msp430_21.6.1.LTS/
    1951                    .dwattr $C$DW$110, DW_AT_decl_line(0x155)
    1952                    .dwattr $C$DW$110, DW_AT_decl_column(0x25)
    1953                    .dwattr $C$DW$110, DW_AT_TI_max_frame_size(0x08)
    1954                    .dwpsn  file "C:/ti/ccs1110/ccs/tools/compiler/ti-cgt-msp430_21.6.1.LTS/include/_defs.h",line 
    1955            
    1956                    .dwfde $C$DW$CIE, __isnan
    1957            $C$DW$111       .dwtag  DW_TAG_formal_parameter
    1958                    .dwattr $C$DW$111, DW_AT_name("d")
    1959                    .dwattr $C$DW$111, DW_AT_TI_symbol_name("d")
    1960                    .dwattr $C$DW$111, DW_AT_type(*$C$DW$T$17)
    1961                    .dwattr $C$DW$111, DW_AT_location[DW_OP_reg12 DW_OP_piece 2 DW_OP_reg13 DW_OP_piece 2 DW_OP_re
    1962            
    1963            
    1964            ;*****************************************************************************
    1965            ;* FUNCTION NAME: __isnan                                                    *
    1966            ;*                                                                           *
    1967            ;*   Regs Modified     : SP,SR,r10,r11,r12,r13,r14,r15                       *
    1968            ;*   Regs Used         : SP,SR,r10,r11,r12,r13,r14,r15                       *
    1969            ;*   Local Frame Size  : 0 Args + 0 Auto + 4 Save = 4 byte                   *
    1970            ;*****************************************************************************
    1971 000000       __isnan:
    1972            ;* --------------------------------------------------------------------------*
    1973                    .dwcfi  cfa_offset, 4
    1974                    .dwcfi  save_reg_to_mem, 16, -4
    1975 000000 140A          PUSHM.A   #1,r10                ; [] 
    1976                    .dwcfi  save_reg_to_mem, 10, -8
    1977                    .dwcfi  cfa_offset, 8
    1978            ;* r11   assigned to $O$S1
    1979                    .dwpsn  file "C:/ti/ccs1110/ccs/tools/compiler/ti-cgt-msp430_21.6.1.LTS/include/_defs.h",line 
    1980 000002 430B          MOV.W     #0,r11                ; [] |342| 
    1981 000004 0FCA          MOVA      r15,r10               ; [] |342| 
    1982 000006 F03A          AND.W     #32752,r10            ; [] |342| 
         000008 7FF0 
    1983 00000a 903A          CMP.W     #32752,r10            ; [] |342| 
         00000c 7FF0 
    1984 00000e 200E          JNE       $C$L38                ; [] |342| 
    1985                                                      ; [] |342| 
    1986            ;* --------------------------------------------------------------------------*
    1987 000010 F33C          AND.W     #65535,r12            ; [] |342| 
    1988 000012 F33D          AND.W     #65535,r13            ; [] |342| 
    1989 000014 F33E          AND.W     #65535,r14            ; [] |342| 
    1990 000016 F03F          AND.W     #15,r15               ; [] |342| 
         000018 000F 
    1991 00001a 930F          TST.W     r15                   ; [] |342| 
    1992 00001c 2006          JNE       $C$L37                ; [] |342| 
MSP430 Assembler PC v21.6.1 Tue Dec 20 13:46:02 2022

Copyright (c) 2003-2018 Texas Instruments Incorporated
Output_Voltage_Set.asm                                               PAGE   41

    1993                                                      ; [] |342| 
    1994            ;* --------------------------------------------------------------------------*
    1995 00001e 930E          TST.W     r14                   ; [] |342| 
    1996 000020 2004          JNE       $C$L37                ; [] |342| 
    1997                                                      ; [] |342| 
    1998            ;* --------------------------------------------------------------------------*
    1999 000022 930D          TST.W     r13                   ; [] |342| 
    2000 000024 2002          JNE       $C$L37                ; [] |342| 
    2001                                                      ; [] |342| 
    2002            ;* --------------------------------------------------------------------------*
    2003 000026 930C          TST.W     r12                   ; [] |342| 
    2004 000028 2401          JEQ       $C$L38                ; [] |342| 
    2005                                                      ; [] |342| 
    2006            ;* --------------------------------------------------------------------------*
    2007 00002a       $C$L37:    
    2008 00002a 431B          MOV.W     #1,r11                ; [] |342| 
    2009            ;* --------------------------------------------------------------------------*
    2010 00002c       $C$L38:    
    2011 00002c 0BCC          MOVA      r11,r12               ; [] |342| 
    2012                    .dwpsn  file "C:/ti/ccs1110/ccs/tools/compiler/ti-cgt-msp430_21.6.1.LTS/include/_defs.h",line 
    2013 00002e 160A          POPM.A    #1,r10                ; [] 
    2014                    .dwcfi  restore_reg, 10
    2015                    .dwcfi  cfa_offset, 4
    2016            $C$DW$112       .dwtag  DW_TAG_TI_branch
    2017                    .dwattr $C$DW$112, DW_AT_low_pc(0x00)
    2018                    .dwattr $C$DW$112, DW_AT_TI_return
    2019            
    2020 000030 0110          RETA      ; [] 
    2021                    ; [] 
    2022                    .dwattr $C$DW$110, DW_AT_TI_end_file("C:/ti/ccs1110/ccs/tools/compiler/ti-cgt-msp430_21.6.1.LT
    2023                    .dwattr $C$DW$110, DW_AT_TI_end_line(0x157)
    2024                    .dwattr $C$DW$110, DW_AT_TI_end_column(0x2f)
    2025                    .dwendentry
    2026                    .dwendtag $C$DW$110
    2027            
    2028 000000               .sect   ".text:__isinfl"
    2029                    .clink
    2030                    .global __isinfl
    2031            
    2032            $C$DW$113       .dwtag  DW_TAG_subprogram
    2033                    .dwattr $C$DW$113, DW_AT_name("__isinfl")
    2034                    .dwattr $C$DW$113, DW_AT_low_pc(__isinfl)
    2035                    .dwattr $C$DW$113, DW_AT_high_pc(0x00)
    2036                    .dwattr $C$DW$113, DW_AT_TI_symbol_name("__isinfl")
    2037                    .dwattr $C$DW$113, DW_AT_external
    2038                    .dwattr $C$DW$113, DW_AT_type(*$C$DW$T$10)
    2039                    .dwattr $C$DW$113, DW_AT_TI_begin_file("C:/ti/ccs1110/ccs/tools/compiler/ti-cgt-msp430_21.6.1.
    2040                    .dwattr $C$DW$113, DW_AT_TI_begin_line(0x17a)
    2041                    .dwattr $C$DW$113, DW_AT_TI_begin_column(0x25)
    2042                    .dwattr $C$DW$113, DW_AT_decl_file("C:/ti/ccs1110/ccs/tools/compiler/ti-cgt-msp430_21.6.1.LTS/
    2043                    .dwattr $C$DW$113, DW_AT_decl_line(0x17a)
    2044                    .dwattr $C$DW$113, DW_AT_decl_column(0x25)
    2045                    .dwattr $C$DW$113, DW_AT_TI_max_frame_size(0x08)
    2046                    .dwpsn  file "C:/ti/ccs1110/ccs/tools/compiler/ti-cgt-msp430_21.6.1.LTS/include/_defs.h",line 
    2047            
MSP430 Assembler PC v21.6.1 Tue Dec 20 13:46:02 2022

Copyright (c) 2003-2018 Texas Instruments Incorporated
Output_Voltage_Set.asm                                               PAGE   42

    2048                    .dwfde $C$DW$CIE, __isinfl
    2049            $C$DW$114       .dwtag  DW_TAG_formal_parameter
    2050                    .dwattr $C$DW$114, DW_AT_name("e")
    2051                    .dwattr $C$DW$114, DW_AT_TI_symbol_name("e")
    2052                    .dwattr $C$DW$114, DW_AT_type(*$C$DW$T$18)
    2053                    .dwattr $C$DW$114, DW_AT_location[DW_OP_reg12 DW_OP_piece 2 DW_OP_reg13 DW_OP_piece 2 DW_OP_re
    2054            
    2055            
    2056            ;*****************************************************************************
    2057            ;* FUNCTION NAME: __isinfl                                                   *
    2058            ;*                                                                           *
    2059            ;*   Regs Modified     : SP,SR,r10,r11,r12,r13,r14,r15                       *
    2060            ;*   Regs Used         : SP,SR,r10,r11,r12,r13,r14,r15                       *
    2061            ;*   Local Frame Size  : 0 Args + 0 Auto + 4 Save = 4 byte                   *
    2062            ;*****************************************************************************
    2063 000000       __isinfl:
    2064            ;* --------------------------------------------------------------------------*
    2065                    .dwcfi  cfa_offset, 4
    2066                    .dwcfi  save_reg_to_mem, 16, -4
    2067 000000 140A          PUSHM.A   #1,r10                ; [] 
    2068                    .dwcfi  save_reg_to_mem, 10, -8
    2069                    .dwcfi  cfa_offset, 8
    2070            ;* r11   assigned to $O$S1
    2071                    .dwpsn  file "C:/ti/ccs1110/ccs/tools/compiler/ti-cgt-msp430_21.6.1.LTS/include/_defs.h",line 
    2072 000002 430B          MOV.W     #0,r11                ; [] |379| 
    2073 000004 0FCA          MOVA      r15,r10               ; [] |379| 
    2074 000006 F03A          AND.W     #32752,r10            ; [] |379| 
         000008 7FF0 
    2075 00000a 903A          CMP.W     #32752,r10            ; [] |379| 
         00000c 7FF0 
    2076 00000e 200E          JNE       $C$L39                ; [] |379| 
    2077                                                      ; [] |379| 
    2078            ;* --------------------------------------------------------------------------*
    2079 000010 F33C          AND.W     #65535,r12            ; [] |379| 
    2080 000012 F33D          AND.W     #65535,r13            ; [] |379| 
    2081 000014 F33E          AND.W     #65535,r14            ; [] |379| 
    2082 000016 F03F          AND.W     #15,r15               ; [] |379| 
         000018 000F 
    2083 00001a 930F          TST.W     r15                   ; [] |379| 
    2084 00001c 2007          JNE       $C$L39                ; [] |379| 
    2085                                                      ; [] |379| 
    2086            ;* --------------------------------------------------------------------------*
    2087 00001e 930E          TST.W     r14                   ; [] |379| 
    2088 000020 2005          JNE       $C$L39                ; [] |379| 
    2089                                                      ; [] |379| 
    2090            ;* --------------------------------------------------------------------------*
    2091 000022 930D          TST.W     r13                   ; [] |379| 
    2092 000024 2003          JNE       $C$L39                ; [] |379| 
    2093                                                      ; [] |379| 
    2094            ;* --------------------------------------------------------------------------*
    2095 000026 930C          TST.W     r12                   ; [] |379| 
    2096 000028 2001          JNE       $C$L39                ; [] |379| 
    2097                                                      ; [] |379| 
    2098            ;* --------------------------------------------------------------------------*
    2099 00002a 431B          MOV.W     #1,r11                ; [] |379| 
MSP430 Assembler PC v21.6.1 Tue Dec 20 13:46:02 2022

Copyright (c) 2003-2018 Texas Instruments Incorporated
Output_Voltage_Set.asm                                               PAGE   43

    2100            ;* --------------------------------------------------------------------------*
    2101 00002c       $C$L39:    
    2102 00002c 0BCC          MOVA      r11,r12               ; [] |379| 
    2103                    .dwpsn  file "C:/ti/ccs1110/ccs/tools/compiler/ti-cgt-msp430_21.6.1.LTS/include/_defs.h",line 
    2104 00002e 160A          POPM.A    #1,r10                ; [] 
    2105                    .dwcfi  restore_reg, 10
    2106                    .dwcfi  cfa_offset, 4
    2107            $C$DW$115       .dwtag  DW_TAG_TI_branch
    2108                    .dwattr $C$DW$115, DW_AT_low_pc(0x00)
    2109                    .dwattr $C$DW$115, DW_AT_TI_return
    2110            
    2111 000030 0110          RETA      ; [] 
    2112                    ; [] 
    2113                    .dwattr $C$DW$113, DW_AT_TI_end_file("C:/ti/ccs1110/ccs/tools/compiler/ti-cgt-msp430_21.6.1.LT
    2114                    .dwattr $C$DW$113, DW_AT_TI_end_line(0x17b)
    2115                    .dwattr $C$DW$113, DW_AT_TI_end_column(0x4c)
    2116                    .dwendentry
    2117                    .dwendtag $C$DW$113
    2118            
    2119 000000               .sect   ".text:__isinff"
    2120                    .clink
    2121                    .global __isinff
    2122            
    2123            $C$DW$116       .dwtag  DW_TAG_subprogram
    2124                    .dwattr $C$DW$116, DW_AT_name("__isinff")
    2125                    .dwattr $C$DW$116, DW_AT_low_pc(__isinff)
    2126                    .dwattr $C$DW$116, DW_AT_high_pc(0x00)
    2127                    .dwattr $C$DW$116, DW_AT_TI_symbol_name("__isinff")
    2128                    .dwattr $C$DW$116, DW_AT_external
    2129                    .dwattr $C$DW$116, DW_AT_type(*$C$DW$T$10)
    2130                    .dwattr $C$DW$116, DW_AT_TI_begin_file("C:/ti/ccs1110/ccs/tools/compiler/ti-cgt-msp430_21.6.1.
    2131                    .dwattr $C$DW$116, DW_AT_TI_begin_line(0x176)
    2132                    .dwattr $C$DW$116, DW_AT_TI_begin_column(0x25)
    2133                    .dwattr $C$DW$116, DW_AT_decl_file("C:/ti/ccs1110/ccs/tools/compiler/ti-cgt-msp430_21.6.1.LTS/
    2134                    .dwattr $C$DW$116, DW_AT_decl_line(0x176)
    2135                    .dwattr $C$DW$116, DW_AT_decl_column(0x25)
    2136                    .dwattr $C$DW$116, DW_AT_TI_max_frame_size(0x04)
    2137                    .dwpsn  file "C:/ti/ccs1110/ccs/tools/compiler/ti-cgt-msp430_21.6.1.LTS/include/_defs.h",line 
    2138            
    2139                    .dwfde $C$DW$CIE, __isinff
    2140            $C$DW$117       .dwtag  DW_TAG_formal_parameter
    2141                    .dwattr $C$DW$117, DW_AT_name("f")
    2142                    .dwattr $C$DW$117, DW_AT_TI_symbol_name("f")
    2143                    .dwattr $C$DW$117, DW_AT_type(*$C$DW$T$16)
    2144                    .dwattr $C$DW$117, DW_AT_location[DW_OP_reg12 DW_OP_piece 2 DW_OP_reg13 DW_OP_piece 2]
    2145            
    2146            
    2147            ;*****************************************************************************
    2148            ;* FUNCTION NAME: __isinff                                                   *
    2149            ;*                                                                           *
    2150            ;*   Regs Modified     : SP,SR,r12,r13,r14,r15                               *
    2151            ;*   Regs Used         : SP,SR,r12,r13,r14,r15                               *
    2152            ;*   Local Frame Size  : 0 Args + 0 Auto + 0 Save = 0 byte                   *
    2153            ;*****************************************************************************
    2154 000000       __isinff:
MSP430 Assembler PC v21.6.1 Tue Dec 20 13:46:02 2022

Copyright (c) 2003-2018 Texas Instruments Incorporated
Output_Voltage_Set.asm                                               PAGE   44

    2155            ;* --------------------------------------------------------------------------*
    2156                    .dwcfi  cfa_offset, 4
    2157                    .dwcfi  save_reg_to_mem, 16, -4
    2158            ;* r15   assigned to $O$S1
    2159                    .dwpsn  file "C:/ti/ccs1110/ccs/tools/compiler/ti-cgt-msp430_21.6.1.LTS/include/_defs.h",line 
    2160 000000 430F          MOV.W     #0,r15                ; [] |375| 
    2161 000002 0DCE          MOVA      r13,r14               ; [] |375| 
    2162 000004 F03E          AND.W     #32640,r14            ; [] |375| 
         000006 7F80 
    2163 000008 903E          CMP.W     #32640,r14            ; [] |375| 
         00000a 7F80 
    2164 00000c 2008          JNE       $C$L40                ; [] |375| 
    2165                                                      ; [] |375| 
    2166            ;* --------------------------------------------------------------------------*
    2167 00000e F33C          AND.W     #65535,r12            ; [] |375| 
    2168 000010 F03D          AND.W     #127,r13              ; [] |375| 
         000012 007F 
    2169 000014 930D          TST.W     r13                   ; [] |375| 
    2170 000016 2003          JNE       $C$L40                ; [] |375| 
    2171                                                      ; [] |375| 
    2172            ;* --------------------------------------------------------------------------*
    2173 000018 930C          TST.W     r12                   ; [] |375| 
    2174 00001a 2001          JNE       $C$L40                ; [] |375| 
    2175                                                      ; [] |375| 
    2176            ;* --------------------------------------------------------------------------*
    2177 00001c 431F          MOV.W     #1,r15                ; [] |375| 
    2178            ;* --------------------------------------------------------------------------*
    2179 00001e       $C$L40:    
    2180 00001e 0FCC          MOVA      r15,r12               ; [] |375| 
    2181                    .dwpsn  file "C:/ti/ccs1110/ccs/tools/compiler/ti-cgt-msp430_21.6.1.LTS/include/_defs.h",line 
    2182            $C$DW$118       .dwtag  DW_TAG_TI_branch
    2183                    .dwattr $C$DW$118, DW_AT_low_pc(0x00)
    2184                    .dwattr $C$DW$118, DW_AT_TI_return
    2185            
    2186 000020 0110          RETA      ; [] 
    2187                    ; [] 
    2188                    .dwattr $C$DW$116, DW_AT_TI_end_file("C:/ti/ccs1110/ccs/tools/compiler/ti-cgt-msp430_21.6.1.LT
    2189                    .dwattr $C$DW$116, DW_AT_TI_end_line(0x177)
    2190                    .dwattr $C$DW$116, DW_AT_TI_end_column(0x48)
    2191                    .dwendentry
    2192                    .dwendtag $C$DW$116
    2193            
    2194 000000               .sect   ".text:__isinf"
    2195                    .clink
    2196                    .global __isinf
    2197            
    2198            $C$DW$119       .dwtag  DW_TAG_subprogram
    2199                    .dwattr $C$DW$119, DW_AT_name("__isinf")
    2200                    .dwattr $C$DW$119, DW_AT_low_pc(__isinf)
    2201                    .dwattr $C$DW$119, DW_AT_high_pc(0x00)
    2202                    .dwattr $C$DW$119, DW_AT_TI_symbol_name("__isinf")
    2203                    .dwattr $C$DW$119, DW_AT_external
    2204                    .dwattr $C$DW$119, DW_AT_type(*$C$DW$T$10)
    2205                    .dwattr $C$DW$119, DW_AT_TI_begin_file("C:/ti/ccs1110/ccs/tools/compiler/ti-cgt-msp430_21.6.1.
    2206                    .dwattr $C$DW$119, DW_AT_TI_begin_line(0x178)
MSP430 Assembler PC v21.6.1 Tue Dec 20 13:46:02 2022

Copyright (c) 2003-2018 Texas Instruments Incorporated
Output_Voltage_Set.asm                                               PAGE   45

    2207                    .dwattr $C$DW$119, DW_AT_TI_begin_column(0x25)
    2208                    .dwattr $C$DW$119, DW_AT_decl_file("C:/ti/ccs1110/ccs/tools/compiler/ti-cgt-msp430_21.6.1.LTS/
    2209                    .dwattr $C$DW$119, DW_AT_decl_line(0x178)
    2210                    .dwattr $C$DW$119, DW_AT_decl_column(0x25)
    2211                    .dwattr $C$DW$119, DW_AT_TI_max_frame_size(0x08)
    2212                    .dwpsn  file "C:/ti/ccs1110/ccs/tools/compiler/ti-cgt-msp430_21.6.1.LTS/include/_defs.h",line 
    2213            
    2214                    .dwfde $C$DW$CIE, __isinf
    2215            $C$DW$120       .dwtag  DW_TAG_formal_parameter
    2216                    .dwattr $C$DW$120, DW_AT_name("d")
    2217                    .dwattr $C$DW$120, DW_AT_TI_symbol_name("d")
    2218                    .dwattr $C$DW$120, DW_AT_type(*$C$DW$T$17)
    2219                    .dwattr $C$DW$120, DW_AT_location[DW_OP_reg12 DW_OP_piece 2 DW_OP_reg13 DW_OP_piece 2 DW_OP_re
    2220            
    2221            
    2222            ;*****************************************************************************
    2223            ;* FUNCTION NAME: __isinf                                                    *
    2224            ;*                                                                           *
    2225            ;*   Regs Modified     : SP,SR,r10,r11,r12,r13,r14,r15                       *
    2226            ;*   Regs Used         : SP,SR,r10,r11,r12,r13,r14,r15                       *
    2227            ;*   Local Frame Size  : 0 Args + 0 Auto + 4 Save = 4 byte                   *
    2228            ;*****************************************************************************
    2229 000000       __isinf:
    2230            ;* --------------------------------------------------------------------------*
    2231                    .dwcfi  cfa_offset, 4
    2232                    .dwcfi  save_reg_to_mem, 16, -4
    2233 000000 140A          PUSHM.A   #1,r10                ; [] 
    2234                    .dwcfi  save_reg_to_mem, 10, -8
    2235                    .dwcfi  cfa_offset, 8
    2236            ;* r11   assigned to $O$S1
    2237                    .dwpsn  file "C:/ti/ccs1110/ccs/tools/compiler/ti-cgt-msp430_21.6.1.LTS/include/_defs.h",line 
    2238 000002 430B          MOV.W     #0,r11                ; [] |377| 
    2239 000004 0FCA          MOVA      r15,r10               ; [] |377| 
    2240 000006 F03A          AND.W     #32752,r10            ; [] |377| 
         000008 7FF0 
    2241 00000a 903A          CMP.W     #32752,r10            ; [] |377| 
         00000c 7FF0 
    2242 00000e 200E          JNE       $C$L41                ; [] |377| 
    2243                                                      ; [] |377| 
    2244            ;* --------------------------------------------------------------------------*
    2245 000010 F33C          AND.W     #65535,r12            ; [] |377| 
    2246 000012 F33D          AND.W     #65535,r13            ; [] |377| 
    2247 000014 F33E          AND.W     #65535,r14            ; [] |377| 
    2248 000016 F03F          AND.W     #15,r15               ; [] |377| 
         000018 000F 
    2249 00001a 930F          TST.W     r15                   ; [] |377| 
    2250 00001c 2007          JNE       $C$L41                ; [] |377| 
    2251                                                      ; [] |377| 
    2252            ;* --------------------------------------------------------------------------*
    2253 00001e 930E          TST.W     r14                   ; [] |377| 
    2254 000020 2005          JNE       $C$L41                ; [] |377| 
    2255                                                      ; [] |377| 
    2256            ;* --------------------------------------------------------------------------*
    2257 000022 930D          TST.W     r13                   ; [] |377| 
    2258 000024 2003          JNE       $C$L41                ; [] |377| 
MSP430 Assembler PC v21.6.1 Tue Dec 20 13:46:02 2022

Copyright (c) 2003-2018 Texas Instruments Incorporated
Output_Voltage_Set.asm                                               PAGE   46

    2259                                                      ; [] |377| 
    2260            ;* --------------------------------------------------------------------------*
    2261 000026 930C          TST.W     r12                   ; [] |377| 
    2262 000028 2001          JNE       $C$L41                ; [] |377| 
    2263                                                      ; [] |377| 
    2264            ;* --------------------------------------------------------------------------*
    2265 00002a 431B          MOV.W     #1,r11                ; [] |377| 
    2266            ;* --------------------------------------------------------------------------*
    2267 00002c       $C$L41:    
    2268 00002c 0BCC          MOVA      r11,r12               ; [] |377| 
    2269                    .dwpsn  file "C:/ti/ccs1110/ccs/tools/compiler/ti-cgt-msp430_21.6.1.LTS/include/_defs.h",line 
    2270 00002e 160A          POPM.A    #1,r10                ; [] 
    2271                    .dwcfi  restore_reg, 10
    2272                    .dwcfi  cfa_offset, 4
    2273            $C$DW$121       .dwtag  DW_TAG_TI_branch
    2274                    .dwattr $C$DW$121, DW_AT_low_pc(0x00)
    2275                    .dwattr $C$DW$121, DW_AT_TI_return
    2276            
    2277 000030 0110          RETA      ; [] 
    2278                    ; [] 
    2279                    .dwattr $C$DW$119, DW_AT_TI_end_file("C:/ti/ccs1110/ccs/tools/compiler/ti-cgt-msp430_21.6.1.LT
    2280                    .dwattr $C$DW$119, DW_AT_TI_end_line(0x179)
    2281                    .dwattr $C$DW$119, DW_AT_TI_end_column(0x4a)
    2282                    .dwendentry
    2283                    .dwendtag $C$DW$119
    2284            
    2285 000000               .sect   ".text:__isfinitel"
    2286                    .clink
    2287                    .global __isfinitel
    2288            
    2289            $C$DW$122       .dwtag  DW_TAG_subprogram
    2290                    .dwattr $C$DW$122, DW_AT_name("__isfinitel")
    2291                    .dwattr $C$DW$122, DW_AT_low_pc(__isfinitel)
    2292                    .dwattr $C$DW$122, DW_AT_high_pc(0x00)
    2293                    .dwattr $C$DW$122, DW_AT_TI_symbol_name("__isfinitel")
    2294                    .dwattr $C$DW$122, DW_AT_external
    2295                    .dwattr $C$DW$122, DW_AT_type(*$C$DW$T$10)
    2296                    .dwattr $C$DW$122, DW_AT_TI_begin_file("C:/ti/ccs1110/ccs/tools/compiler/ti-cgt-msp430_21.6.1.
    2297                    .dwattr $C$DW$122, DW_AT_TI_begin_line(0x152)
    2298                    .dwattr $C$DW$122, DW_AT_TI_begin_column(0x25)
    2299                    .dwattr $C$DW$122, DW_AT_decl_file("C:/ti/ccs1110/ccs/tools/compiler/ti-cgt-msp430_21.6.1.LTS/
    2300                    .dwattr $C$DW$122, DW_AT_decl_line(0x152)
    2301                    .dwattr $C$DW$122, DW_AT_decl_column(0x25)
    2302                    .dwattr $C$DW$122, DW_AT_TI_max_frame_size(0x04)
    2303                    .dwpsn  file "C:/ti/ccs1110/ccs/tools/compiler/ti-cgt-msp430_21.6.1.LTS/include/_defs.h",line 
    2304            
    2305                    .dwfde $C$DW$CIE, __isfinitel
    2306            $C$DW$123       .dwtag  DW_TAG_formal_parameter
    2307                    .dwattr $C$DW$123, DW_AT_name("e")
    2308                    .dwattr $C$DW$123, DW_AT_TI_symbol_name("e")
    2309                    .dwattr $C$DW$123, DW_AT_type(*$C$DW$T$18)
    2310                    .dwattr $C$DW$123, DW_AT_location[DW_OP_reg12 DW_OP_piece 2 DW_OP_reg13 DW_OP_piece 2 DW_OP_re
    2311            
    2312            
    2313            ;*****************************************************************************
MSP430 Assembler PC v21.6.1 Tue Dec 20 13:46:02 2022

Copyright (c) 2003-2018 Texas Instruments Incorporated
Output_Voltage_Set.asm                                               PAGE   47

    2314            ;* FUNCTION NAME: __isfinitel                                                *
    2315            ;*                                                                           *
    2316            ;*   Regs Modified     : SP,SR,r12,r15                                       *
    2317            ;*   Regs Used         : SP,SR,r12,r15                                       *
    2318            ;*   Local Frame Size  : 0 Args + 0 Auto + 0 Save = 0 byte                   *
    2319            ;*****************************************************************************
    2320 000000       __isfinitel:
    2321            ;* --------------------------------------------------------------------------*
    2322                    .dwcfi  cfa_offset, 4
    2323                    .dwcfi  save_reg_to_mem, 16, -4
    2324                    .dwpsn  file "C:/ti/ccs1110/ccs/tools/compiler/ti-cgt-msp430_21.6.1.LTS/include/_defs.h",line 
    2325 000000 430C          MOV.W     #0,r12                ; [] |339| 
    2326 000002 F03F          AND.W     #32752,r15            ; [] |339| 
         000004 7FF0 
    2327 000006 903F          CMP.W     #32752,r15            ; [] |339| 
         000008 7FF0 
    2328 00000a 2401          JEQ       $C$L42                ; [] |339| 
    2329                                                      ; [] |339| 
    2330            ;* --------------------------------------------------------------------------*
    2331 00000c 431C          MOV.W     #1,r12                ; [] |339| 
    2332            ;* --------------------------------------------------------------------------*
    2333 00000e       $C$L42:    
    2334                    .dwpsn  file "C:/ti/ccs1110/ccs/tools/compiler/ti-cgt-msp430_21.6.1.LTS/include/_defs.h",line 
    2335            $C$DW$124       .dwtag  DW_TAG_TI_branch
    2336                    .dwattr $C$DW$124, DW_AT_low_pc(0x00)
    2337                    .dwattr $C$DW$124, DW_AT_TI_return
    2338            
    2339 00000e 0110          RETA      ; [] 
    2340                    ; [] 
    2341                    .dwattr $C$DW$122, DW_AT_TI_end_file("C:/ti/ccs1110/ccs/tools/compiler/ti-cgt-msp430_21.6.1.LT
    2342                    .dwattr $C$DW$122, DW_AT_TI_end_line(0x153)
    2343                    .dwattr $C$DW$122, DW_AT_TI_end_column(0x2f)
    2344                    .dwendentry
    2345                    .dwendtag $C$DW$122
    2346            
    2347 000000               .sect   ".text:__isfinitef"
    2348                    .clink
    2349                    .global __isfinitef
    2350            
    2351            $C$DW$125       .dwtag  DW_TAG_subprogram
    2352                    .dwattr $C$DW$125, DW_AT_name("__isfinitef")
    2353                    .dwattr $C$DW$125, DW_AT_low_pc(__isfinitef)
    2354                    .dwattr $C$DW$125, DW_AT_high_pc(0x00)
    2355                    .dwattr $C$DW$125, DW_AT_TI_symbol_name("__isfinitef")
    2356                    .dwattr $C$DW$125, DW_AT_external
    2357                    .dwattr $C$DW$125, DW_AT_type(*$C$DW$T$10)
    2358                    .dwattr $C$DW$125, DW_AT_TI_begin_file("C:/ti/ccs1110/ccs/tools/compiler/ti-cgt-msp430_21.6.1.
    2359                    .dwattr $C$DW$125, DW_AT_TI_begin_line(0x150)
    2360                    .dwattr $C$DW$125, DW_AT_TI_begin_column(0x25)
    2361                    .dwattr $C$DW$125, DW_AT_decl_file("C:/ti/ccs1110/ccs/tools/compiler/ti-cgt-msp430_21.6.1.LTS/
    2362                    .dwattr $C$DW$125, DW_AT_decl_line(0x150)
    2363                    .dwattr $C$DW$125, DW_AT_decl_column(0x25)
    2364                    .dwattr $C$DW$125, DW_AT_TI_max_frame_size(0x04)
    2365                    .dwpsn  file "C:/ti/ccs1110/ccs/tools/compiler/ti-cgt-msp430_21.6.1.LTS/include/_defs.h",line 
    2366            
MSP430 Assembler PC v21.6.1 Tue Dec 20 13:46:02 2022

Copyright (c) 2003-2018 Texas Instruments Incorporated
Output_Voltage_Set.asm                                               PAGE   48

    2367                    .dwfde $C$DW$CIE, __isfinitef
    2368            $C$DW$126       .dwtag  DW_TAG_formal_parameter
    2369                    .dwattr $C$DW$126, DW_AT_name("f")
    2370                    .dwattr $C$DW$126, DW_AT_TI_symbol_name("f")
    2371                    .dwattr $C$DW$126, DW_AT_type(*$C$DW$T$16)
    2372                    .dwattr $C$DW$126, DW_AT_location[DW_OP_reg12 DW_OP_piece 2 DW_OP_reg13 DW_OP_piece 2]
    2373            
    2374            
    2375            ;*****************************************************************************
    2376            ;* FUNCTION NAME: __isfinitef                                                *
    2377            ;*                                                                           *
    2378            ;*   Regs Modified     : SP,SR,r12,r13                                       *
    2379            ;*   Regs Used         : SP,SR,r12,r13                                       *
    2380            ;*   Local Frame Size  : 0 Args + 0 Auto + 0 Save = 0 byte                   *
    2381            ;*****************************************************************************
    2382 000000       __isfinitef:
    2383            ;* --------------------------------------------------------------------------*
    2384                    .dwcfi  cfa_offset, 4
    2385                    .dwcfi  save_reg_to_mem, 16, -4
    2386                    .dwpsn  file "C:/ti/ccs1110/ccs/tools/compiler/ti-cgt-msp430_21.6.1.LTS/include/_defs.h",line 
    2387 000000 430C          MOV.W     #0,r12                ; [] |337| 
    2388 000002 F03D          AND.W     #32640,r13            ; [] |337| 
         000004 7F80 
    2389 000006 903D          CMP.W     #32640,r13            ; [] |337| 
         000008 7F80 
    2390 00000a 2401          JEQ       $C$L43                ; [] |337| 
    2391                                                      ; [] |337| 
    2392            ;* --------------------------------------------------------------------------*
    2393 00000c 431C          MOV.W     #1,r12                ; [] |337| 
    2394            ;* --------------------------------------------------------------------------*
    2395 00000e       $C$L43:    
    2396                    .dwpsn  file "C:/ti/ccs1110/ccs/tools/compiler/ti-cgt-msp430_21.6.1.LTS/include/_defs.h",line 
    2397            $C$DW$127       .dwtag  DW_TAG_TI_branch
    2398                    .dwattr $C$DW$127, DW_AT_low_pc(0x00)
    2399                    .dwattr $C$DW$127, DW_AT_TI_return
    2400            
    2401 00000e 0110          RETA      ; [] 
    2402                    ; [] 
    2403                    .dwattr $C$DW$125, DW_AT_TI_end_file("C:/ti/ccs1110/ccs/tools/compiler/ti-cgt-msp430_21.6.1.LT
    2404                    .dwattr $C$DW$125, DW_AT_TI_end_line(0x151)
    2405                    .dwattr $C$DW$125, DW_AT_TI_end_column(0x2d)
    2406                    .dwendentry
    2407                    .dwendtag $C$DW$125
    2408            
    2409 000000               .sect   ".text:__isfinite"
    2410                    .clink
    2411                    .global __isfinite
    2412            
    2413            $C$DW$128       .dwtag  DW_TAG_subprogram
    2414                    .dwattr $C$DW$128, DW_AT_name("__isfinite")
    2415                    .dwattr $C$DW$128, DW_AT_low_pc(__isfinite)
    2416                    .dwattr $C$DW$128, DW_AT_high_pc(0x00)
    2417                    .dwattr $C$DW$128, DW_AT_TI_symbol_name("__isfinite")
    2418                    .dwattr $C$DW$128, DW_AT_external
    2419                    .dwattr $C$DW$128, DW_AT_type(*$C$DW$T$10)
MSP430 Assembler PC v21.6.1 Tue Dec 20 13:46:02 2022

Copyright (c) 2003-2018 Texas Instruments Incorporated
Output_Voltage_Set.asm                                               PAGE   49

    2420                    .dwattr $C$DW$128, DW_AT_TI_begin_file("C:/ti/ccs1110/ccs/tools/compiler/ti-cgt-msp430_21.6.1.
    2421                    .dwattr $C$DW$128, DW_AT_TI_begin_line(0x14e)
    2422                    .dwattr $C$DW$128, DW_AT_TI_begin_column(0x25)
    2423                    .dwattr $C$DW$128, DW_AT_decl_file("C:/ti/ccs1110/ccs/tools/compiler/ti-cgt-msp430_21.6.1.LTS/
    2424                    .dwattr $C$DW$128, DW_AT_decl_line(0x14e)
    2425                    .dwattr $C$DW$128, DW_AT_decl_column(0x25)
    2426                    .dwattr $C$DW$128, DW_AT_TI_max_frame_size(0x04)
    2427                    .dwpsn  file "C:/ti/ccs1110/ccs/tools/compiler/ti-cgt-msp430_21.6.1.LTS/include/_defs.h",line 
    2428            
    2429                    .dwfde $C$DW$CIE, __isfinite
    2430            $C$DW$129       .dwtag  DW_TAG_formal_parameter
    2431                    .dwattr $C$DW$129, DW_AT_name("d")
    2432                    .dwattr $C$DW$129, DW_AT_TI_symbol_name("d")
    2433                    .dwattr $C$DW$129, DW_AT_type(*$C$DW$T$17)
    2434                    .dwattr $C$DW$129, DW_AT_location[DW_OP_reg12 DW_OP_piece 2 DW_OP_reg13 DW_OP_piece 2 DW_OP_re
    2435            
    2436            
    2437            ;*****************************************************************************
    2438            ;* FUNCTION NAME: __isfinite                                                 *
    2439            ;*                                                                           *
    2440            ;*   Regs Modified     : SP,SR,r12,r15                                       *
    2441            ;*   Regs Used         : SP,SR,r12,r15                                       *
    2442            ;*   Local Frame Size  : 0 Args + 0 Auto + 0 Save = 0 byte                   *
    2443            ;*****************************************************************************
    2444 000000       __isfinite:
    2445            ;* --------------------------------------------------------------------------*
    2446                    .dwcfi  cfa_offset, 4
    2447                    .dwcfi  save_reg_to_mem, 16, -4
    2448                    .dwpsn  file "C:/ti/ccs1110/ccs/tools/compiler/ti-cgt-msp430_21.6.1.LTS/include/_defs.h",line 
    2449 000000 430C          MOV.W     #0,r12                ; [] |335| 
    2450 000002 F03F          AND.W     #32752,r15            ; [] |335| 
         000004 7FF0 
    2451 000006 903F          CMP.W     #32752,r15            ; [] |335| 
         000008 7FF0 
    2452 00000a 2401          JEQ       $C$L44                ; [] |335| 
    2453                                                      ; [] |335| 
    2454            ;* --------------------------------------------------------------------------*
    2455 00000c 431C          MOV.W     #1,r12                ; [] |335| 
    2456            ;* --------------------------------------------------------------------------*
    2457 00000e       $C$L44:    
    2458                    .dwpsn  file "C:/ti/ccs1110/ccs/tools/compiler/ti-cgt-msp430_21.6.1.LTS/include/_defs.h",line 
    2459            $C$DW$130       .dwtag  DW_TAG_TI_branch
    2460                    .dwattr $C$DW$130, DW_AT_low_pc(0x00)
    2461                    .dwattr $C$DW$130, DW_AT_TI_return
    2462            
    2463 00000e 0110          RETA      ; [] 
    2464                    ; [] 
    2465                    .dwattr $C$DW$128, DW_AT_TI_end_file("C:/ti/ccs1110/ccs/tools/compiler/ti-cgt-msp430_21.6.1.LT
    2466                    .dwattr $C$DW$128, DW_AT_TI_end_line(0x14f)
    2467                    .dwattr $C$DW$128, DW_AT_TI_end_column(0x2e)
    2468                    .dwendentry
    2469                    .dwendtag $C$DW$128
    2470            
    2471 000000               .sect   ".text:__fpclassifyl"
    2472                    .clink
MSP430 Assembler PC v21.6.1 Tue Dec 20 13:46:02 2022

Copyright (c) 2003-2018 Texas Instruments Incorporated
Output_Voltage_Set.asm                                               PAGE   50

    2473                    .global __fpclassifyl
    2474            
    2475            $C$DW$131       .dwtag  DW_TAG_subprogram
    2476                    .dwattr $C$DW$131, DW_AT_name("__fpclassifyl")
    2477                    .dwattr $C$DW$131, DW_AT_low_pc(__fpclassifyl)
    2478                    .dwattr $C$DW$131, DW_AT_high_pc(0x00)
    2479                    .dwattr $C$DW$131, DW_AT_TI_symbol_name("__fpclassifyl")
    2480                    .dwattr $C$DW$131, DW_AT_external
    2481                    .dwattr $C$DW$131, DW_AT_type(*$C$DW$T$10)
    2482                    .dwattr $C$DW$131, DW_AT_TI_begin_file("C:/ti/ccs1110/ccs/tools/compiler/ti-cgt-msp430_21.6.1.
    2483                    .dwattr $C$DW$131, DW_AT_TI_begin_line(0x1ae)
    2484                    .dwattr $C$DW$131, DW_AT_TI_begin_column(0x25)
    2485                    .dwattr $C$DW$131, DW_AT_decl_file("C:/ti/ccs1110/ccs/tools/compiler/ti-cgt-msp430_21.6.1.LTS/
    2486                    .dwattr $C$DW$131, DW_AT_decl_line(0x1ae)
    2487                    .dwattr $C$DW$131, DW_AT_decl_column(0x25)
    2488                    .dwattr $C$DW$131, DW_AT_TI_max_frame_size(0x20)
    2489                    .dwpsn  file "C:/ti/ccs1110/ccs/tools/compiler/ti-cgt-msp430_21.6.1.LTS/include/_defs.h",line 
    2490            
    2491                    .dwfde $C$DW$CIE, __fpclassifyl
    2492            $C$DW$132       .dwtag  DW_TAG_formal_parameter
    2493                    .dwattr $C$DW$132, DW_AT_name("e")
    2494                    .dwattr $C$DW$132, DW_AT_TI_symbol_name("e")
    2495                    .dwattr $C$DW$132, DW_AT_type(*$C$DW$T$18)
    2496                    .dwattr $C$DW$132, DW_AT_location[DW_OP_reg12 DW_OP_piece 2 DW_OP_reg13 DW_OP_piece 2 DW_OP_re
    2497            
    2498            
    2499            ;*****************************************************************************
    2500            ;* FUNCTION NAME: __fpclassifyl                                              *
    2501            ;*                                                                           *
    2502            ;*   Regs Modified     : SP,SR,r4,r5,r6,r7,r8,r9,r10,r11,r12,r13,r14,r15     *
    2503            ;*   Regs Used         : SP,SR,r4,r5,r6,r7,r8,r9,r10,r11,r12,r13,r14,r15     *
    2504            ;*   Local Frame Size  : 0 Args + 0 Auto + 28 Save = 28 byte                 *
    2505            ;*****************************************************************************
    2506 000000       __fpclassifyl:
    2507            ;* --------------------------------------------------------------------------*
    2508                    .dwcfi  cfa_offset, 4
    2509                    .dwcfi  save_reg_to_mem, 16, -4
    2510 000000 146A          PUSHM.A   #7,r10                ; [] 
    2511                    .dwcfi  save_reg_to_mem, 10, -8
    2512                    .dwcfi  save_reg_to_mem, 9, -12
    2513                    .dwcfi  save_reg_to_mem, 8, -16
    2514                    .dwcfi  save_reg_to_mem, 7, -20
    2515                    .dwcfi  save_reg_to_mem, 6, -24
    2516                    .dwcfi  save_reg_to_mem, 5, -28
    2517                    .dwcfi  save_reg_to_mem, 4, -32
    2518                    .dwcfi  cfa_offset, 32
    2519            ;* r4    assigned to e
    2520            $C$DW$133       .dwtag  DW_TAG_variable
    2521                    .dwattr $C$DW$133, DW_AT_name("e")
    2522                    .dwattr $C$DW$133, DW_AT_TI_symbol_name("e")
    2523                    .dwattr $C$DW$133, DW_AT_type(*$C$DW$T$18)
    2524                    .dwattr $C$DW$133, DW_AT_location[DW_OP_reg4 DW_OP_piece 2 DW_OP_reg5 DW_OP_piece 2 DW_OP_reg6
    2525            
    2526 000002 0CC4          MOVA      r12,r4                ; [] |431| 
    2527 000004 0DC5          MOVA      r13,r5                ; [] |431| 
MSP430 Assembler PC v21.6.1 Tue Dec 20 13:46:02 2022

Copyright (c) 2003-2018 Texas Instruments Incorporated
Output_Voltage_Set.asm                                               PAGE   51

    2528 000006 0EC6          MOVA      r14,r6                ; [] |431| 
    2529 000008 0FC7          MOVA      r15,r7                ; [] |431| 
    2530                    .dwpsn  file "C:/ti/ccs1110/ccs/tools/compiler/ti-cgt-msp430_21.6.1.LTS/include/_defs.h",line 
    2531 00000a F03F          AND.W     #32752,r15            ; [] |436| 
         00000c 7FF0 
    2532 00000e 903F          CMP.W     #32752,r15            ; [] |436| 
         000010 7FF0 
    2533 000012 2011          JNE       $C$L47                ; [] |436| 
    2534                                                      ; [] |436| 
    2535            ;* --------------------------------------------------------------------------*
    2536 000014 F334          AND.W     #65535,r4             ; [] |436| 
    2537 000016 F335          AND.W     #65535,r5             ; [] |436| 
    2538 000018 F336          AND.W     #65535,r6             ; [] |436| 
    2539 00001a F037          AND.W     #15,r7                ; [] |436| 
         00001c 000F 
    2540 00001e 9307          TST.W     r7                    ; [] |436| 
    2541 000020 2006          JNE       $C$L45                ; [] |436| 
    2542                                                      ; [] |436| 
    2543            ;* --------------------------------------------------------------------------*
    2544 000022 9306          TST.W     r6                    ; [] |436| 
    2545 000024 2004          JNE       $C$L45                ; [] |436| 
    2546                                                      ; [] |436| 
    2547            ;* --------------------------------------------------------------------------*
    2548 000026 9305          TST.W     r5                    ; [] |436| 
    2549 000028 2002          JNE       $C$L45                ; [] |436| 
    2550                                                      ; [] |436| 
    2551            ;* --------------------------------------------------------------------------*
    2552 00002a 9304          TST.W     r4                    ; [] |436| 
    2553 00002c 2402          JEQ       $C$L46                ; [] |436| 
    2554                                                      ; [] |436| 
    2555            ;* --------------------------------------------------------------------------*
    2556 00002e       $C$L45:    
    2557 00002e 432C          MOV.W     #2,r12                ; [] |436| 
    2558 000030 3C2A          JMP       $C$L52                ; [] |436| 
    2559                                                      ; [] |436| 
    2560            ;* --------------------------------------------------------------------------*
    2561 000032       $C$L46:    
    2562 000032 431C          MOV.W     #1,r12                ; [] |436| 
    2563 000034 3C28          JMP       $C$L52                ; [] |436| 
    2564                                                      ; [] |436| 
    2565            ;* --------------------------------------------------------------------------*
    2566 000036       $C$L47:    
    2567 000036 04C8          MOVA      r4,r8                 ; [] |436| 
    2568 000038 05C9          MOVA      r5,r9                 ; [] |436| 
    2569 00003a 06CA          MOVA      r6,r10                ; [] |436| 
    2570 00003c 07CB          MOVA      r7,r11                ; [] |436| 
    2571 00003e 403C          MOV.W     #52,r12               ; [] |436| 
         000040 0034 
    2572            $C$DW$134       .dwtag  DW_TAG_TI_branch
    2573                    .dwattr $C$DW$134, DW_AT_low_pc(0x00)
    2574                    .dwattr $C$DW$134, DW_AT_name("__mspabi_srlll")
    2575                    .dwattr $C$DW$134, DW_AT_TI_call
    2576            
    2577 000042 13B0!         CALLA     #__mspabi_srlll       ; [] |436| 
         000044 0000 
MSP430 Assembler PC v21.6.1 Tue Dec 20 13:46:02 2022

Copyright (c) 2003-2018 Texas Instruments Incorporated
Output_Voltage_Set.asm                                               PAGE   52

    2578                                                      ; [] |436| 
    2579 000046 F03C          AND.W     #2047,r12             ; [] |436| 
         000048 07FF 
    2580 00004a F30D          AND.W     #0,r13                ; [] |436| 
    2581 00004c F30E          AND.W     #0,r14                ; [] |436| 
    2582 00004e F30F          AND.W     #0,r15                ; [] |436| 
    2583 000050 930F          TST.W     r15                   ; [] |436| 
    2584 000052 2006          JNE       $C$L48                ; [] |436| 
    2585                                                      ; [] |436| 
    2586            ;* --------------------------------------------------------------------------*
    2587 000054 930E          TST.W     r14                   ; [] |436| 
    2588 000056 2004          JNE       $C$L48                ; [] |436| 
    2589                                                      ; [] |436| 
    2590            ;* --------------------------------------------------------------------------*
    2591 000058 930D          TST.W     r13                   ; [] |436| 
    2592 00005a 2002          JNE       $C$L48                ; [] |436| 
    2593                                                      ; [] |436| 
    2594            ;* --------------------------------------------------------------------------*
    2595 00005c 930C          TST.W     r12                   ; [] |436| 
    2596 00005e 2402          JEQ       $C$L49                ; [] |436| 
    2597                                                      ; [] |436| 
    2598            ;* --------------------------------------------------------------------------*
    2599 000060       $C$L48:    
    2600 000060 433C          MOV.W     #-1,r12               ; [] |436| 
    2601 000062 3C11          JMP       $C$L52                ; [] |436| 
    2602                                                      ; [] |436| 
    2603            ;* --------------------------------------------------------------------------*
    2604 000064       $C$L49:    
    2605 000064 F334          AND.W     #65535,r4             ; [] |436| 
    2606 000066 F335          AND.W     #65535,r5             ; [] |436| 
    2607 000068 F336          AND.W     #65535,r6             ; [] |436| 
    2608 00006a F037          AND.W     #15,r7                ; [] |436| 
         00006c 000F 
    2609 00006e 9307          TST.W     r7                    ; [] |436| 
    2610 000070 2006          JNE       $C$L50                ; [] |436| 
    2611                                                      ; [] |436| 
    2612            ;* --------------------------------------------------------------------------*
    2613 000072 9306          TST.W     r6                    ; [] |436| 
    2614 000074 2004          JNE       $C$L50                ; [] |436| 
    2615                                                      ; [] |436| 
    2616            ;* --------------------------------------------------------------------------*
    2617 000076 9305          TST.W     r5                    ; [] |436| 
    2618 000078 2002          JNE       $C$L50                ; [] |436| 
    2619                                                      ; [] |436| 
    2620            ;* --------------------------------------------------------------------------*
    2621 00007a 9304          TST.W     r4                    ; [] |436| 
    2622 00007c 2403          JEQ       $C$L51                ; [] |436| 
    2623                                                      ; [] |436| 
    2624            ;* --------------------------------------------------------------------------*
    2625 00007e       $C$L50:    
    2626 00007e 403C          MOV.W     #65534,r12            ; [] |436| 
         000080 FFFE 
    2627 000082 3C01          JMP       $C$L52                ; [] |436| 
    2628                                                      ; [] |436| 
    2629            ;* --------------------------------------------------------------------------*
MSP430 Assembler PC v21.6.1 Tue Dec 20 13:46:02 2022

Copyright (c) 2003-2018 Texas Instruments Incorporated
Output_Voltage_Set.asm                                               PAGE   53

    2630 000084       $C$L51:    
    2631 000084 430C          MOV.W     #0,r12                ; [] |436| 
    2632            ;* --------------------------------------------------------------------------*
    2633 000086       $C$L52:    
    2634                    .dwpsn  file "C:/ti/ccs1110/ccs/tools/compiler/ti-cgt-msp430_21.6.1.LTS/include/_defs.h",line 
    2635 000086 1664          POPM.A    #7,r10                ; [] 
    2636                    .dwcfi  restore_reg, 4
    2637                    .dwcfi  restore_reg, 5
    2638                    .dwcfi  restore_reg, 6
    2639                    .dwcfi  restore_reg, 7
    2640                    .dwcfi  restore_reg, 8
    2641                    .dwcfi  restore_reg, 9
    2642                    .dwcfi  restore_reg, 10
    2643                    .dwcfi  cfa_offset, 4
    2644            $C$DW$135       .dwtag  DW_TAG_TI_branch
    2645                    .dwattr $C$DW$135, DW_AT_low_pc(0x00)
    2646                    .dwattr $C$DW$135, DW_AT_TI_return
    2647            
    2648 000088 0110          RETA      ; [] 
    2649                    ; [] 
    2650                    .dwattr $C$DW$131, DW_AT_TI_end_file("C:/ti/ccs1110/ccs/tools/compiler/ti-cgt-msp430_21.6.1.LT
    2651                    .dwattr $C$DW$131, DW_AT_TI_end_line(0x1bd)
    2652                    .dwattr $C$DW$131, DW_AT_TI_end_column(0x01)
    2653                    .dwendentry
    2654                    .dwendtag $C$DW$131
    2655            
    2656 000000               .sect   ".text:__fpclassifyf"
    2657                    .clink
    2658                    .global __fpclassifyf
    2659            
    2660            $C$DW$136       .dwtag  DW_TAG_subprogram
    2661                    .dwattr $C$DW$136, DW_AT_name("__fpclassifyf")
    2662                    .dwattr $C$DW$136, DW_AT_low_pc(__fpclassifyf)
    2663                    .dwattr $C$DW$136, DW_AT_high_pc(0x00)
    2664                    .dwattr $C$DW$136, DW_AT_TI_symbol_name("__fpclassifyf")
    2665                    .dwattr $C$DW$136, DW_AT_external
    2666                    .dwattr $C$DW$136, DW_AT_type(*$C$DW$T$10)
    2667                    .dwattr $C$DW$136, DW_AT_TI_begin_file("C:/ti/ccs1110/ccs/tools/compiler/ti-cgt-msp430_21.6.1.
    2668                    .dwattr $C$DW$136, DW_AT_TI_begin_line(0x18c)
    2669                    .dwattr $C$DW$136, DW_AT_TI_begin_column(0x25)
    2670                    .dwattr $C$DW$136, DW_AT_decl_file("C:/ti/ccs1110/ccs/tools/compiler/ti-cgt-msp430_21.6.1.LTS/
    2671                    .dwattr $C$DW$136, DW_AT_decl_line(0x18c)
    2672                    .dwattr $C$DW$136, DW_AT_decl_column(0x25)
    2673                    .dwattr $C$DW$136, DW_AT_TI_max_frame_size(0x04)
    2674                    .dwpsn  file "C:/ti/ccs1110/ccs/tools/compiler/ti-cgt-msp430_21.6.1.LTS/include/_defs.h",line 
    2675            
    2676                    .dwfde $C$DW$CIE, __fpclassifyf
    2677            $C$DW$137       .dwtag  DW_TAG_formal_parameter
    2678                    .dwattr $C$DW$137, DW_AT_name("f")
    2679                    .dwattr $C$DW$137, DW_AT_TI_symbol_name("f")
    2680                    .dwattr $C$DW$137, DW_AT_type(*$C$DW$T$16)
    2681                    .dwattr $C$DW$137, DW_AT_location[DW_OP_reg12 DW_OP_piece 2 DW_OP_reg13 DW_OP_piece 2]
    2682            
    2683            
    2684            ;*****************************************************************************
MSP430 Assembler PC v21.6.1 Tue Dec 20 13:46:02 2022

Copyright (c) 2003-2018 Texas Instruments Incorporated
Output_Voltage_Set.asm                                               PAGE   54

    2685            ;* FUNCTION NAME: __fpclassifyf                                              *
    2686            ;*                                                                           *
    2687            ;*   Regs Modified     : SP,SR,r12,r13,r15                                   *
    2688            ;*   Regs Used         : SP,SR,r12,r13,r15                                   *
    2689            ;*   Local Frame Size  : 0 Args + 0 Auto + 0 Save = 0 byte                   *
    2690            ;*****************************************************************************
    2691 000000       __fpclassifyf:
    2692            ;* --------------------------------------------------------------------------*
    2693                    .dwcfi  cfa_offset, 4
    2694                    .dwcfi  save_reg_to_mem, 16, -4
    2695                    .dwpsn  file "C:/ti/ccs1110/ccs/tools/compiler/ti-cgt-msp430_21.6.1.LTS/include/_defs.h",line 
    2696 000000 0DCF          MOVA      r13,r15               ; [] |402| 
    2697 000002 F03F          AND.W     #32640,r15            ; [] |402| 
         000004 7F80 
    2698 000006 903F          CMP.W     #32640,r15            ; [] |402| 
         000008 7F80 
    2699 00000a 200B          JNE       $C$L55                ; [] |402| 
    2700                                                      ; [] |402| 
    2701            ;* --------------------------------------------------------------------------*
    2702 00000c F33C          AND.W     #65535,r12            ; [] |402| 
    2703 00000e F03D          AND.W     #127,r13              ; [] |402| 
         000010 007F 
    2704 000012 930D          TST.W     r13                   ; [] |402| 
    2705 000014 2002          JNE       $C$L53                ; [] |402| 
    2706                                                      ; [] |402| 
    2707            ;* --------------------------------------------------------------------------*
    2708 000016 930C          TST.W     r12                   ; [] |402| 
    2709 000018 2402          JEQ       $C$L54                ; [] |402| 
    2710                                                      ; [] |402| 
    2711            ;* --------------------------------------------------------------------------*
    2712 00001a       $C$L53:    
    2713 00001a 432C          MOV.W     #2,r12                ; [] |402| 
    2714 00001c 3C15          JMP       $C$L59                ; [] |402| 
    2715                                                      ; [] |402| 
    2716            ;* --------------------------------------------------------------------------*
    2717 00001e       $C$L54:    
    2718 00001e 431C          MOV.W     #1,r12                ; [] |402| 
    2719 000020 3C13          JMP       $C$L59                ; [] |402| 
    2720                                                      ; [] |402| 
    2721            ;* --------------------------------------------------------------------------*
    2722 000022       $C$L55:    
    2723 000022 0DCF          MOVA      r13,r15               ; [] |402| 
    2724 000024 1946          RPT #7 || RRUX.W r15 ; [] |402| 
         000026 100F 
    2725 000028 B03F          BIT.W     #255,r15              ; [] |402| 
         00002a 00FF 
    2726 00002c 2402          JEQ       $C$L56                ; [] |402| 
    2727                                                      ; [] |402| 
    2728            ;* --------------------------------------------------------------------------*
    2729 00002e 433C          MOV.W     #-1,r12               ; [] |402| 
    2730 000030 3C0B          JMP       $C$L59                ; [] |402| 
    2731                                                      ; [] |402| 
    2732            ;* --------------------------------------------------------------------------*
    2733 000032       $C$L56:    
    2734 000032 F33C          AND.W     #65535,r12            ; [] |402| 
MSP430 Assembler PC v21.6.1 Tue Dec 20 13:46:02 2022

Copyright (c) 2003-2018 Texas Instruments Incorporated
Output_Voltage_Set.asm                                               PAGE   55

    2735 000034 F03D          AND.W     #127,r13              ; [] |402| 
         000036 007F 
    2736 000038 930D          TST.W     r13                   ; [] |402| 
    2737 00003a 2002          JNE       $C$L57                ; [] |402| 
    2738                                                      ; [] |402| 
    2739            ;* --------------------------------------------------------------------------*
    2740 00003c 930C          TST.W     r12                   ; [] |402| 
    2741 00003e 2403          JEQ       $C$L58                ; [] |402| 
    2742                                                      ; [] |402| 
    2743            ;* --------------------------------------------------------------------------*
    2744 000040       $C$L57:    
    2745 000040 403C          MOV.W     #65534,r12            ; [] |402| 
         000042 FFFE 
    2746 000044 3C01          JMP       $C$L59                ; [] |402| 
    2747                                                      ; [] |402| 
    2748            ;* --------------------------------------------------------------------------*
    2749 000046       $C$L58:    
    2750 000046 430C          MOV.W     #0,r12                ; [] |402| 
    2751            ;* --------------------------------------------------------------------------*
    2752 000048       $C$L59:    
    2753                    .dwpsn  file "C:/ti/ccs1110/ccs/tools/compiler/ti-cgt-msp430_21.6.1.LTS/include/_defs.h",line 
    2754            $C$DW$138       .dwtag  DW_TAG_TI_branch
    2755                    .dwattr $C$DW$138, DW_AT_low_pc(0x00)
    2756                    .dwattr $C$DW$138, DW_AT_TI_return
    2757            
    2758 000048 0110          RETA      ; [] 
    2759                    ; [] 
    2760                    .dwattr $C$DW$136, DW_AT_TI_end_file("C:/ti/ccs1110/ccs/tools/compiler/ti-cgt-msp430_21.6.1.LT
    2761                    .dwattr $C$DW$136, DW_AT_TI_end_line(0x19b)
    2762                    .dwattr $C$DW$136, DW_AT_TI_end_column(0x01)
    2763                    .dwendentry
    2764                    .dwendtag $C$DW$136
    2765            
    2766 000000               .sect   ".text:__fpclassify"
    2767                    .clink
    2768                    .global __fpclassify
    2769            
    2770            $C$DW$139       .dwtag  DW_TAG_subprogram
    2771                    .dwattr $C$DW$139, DW_AT_name("__fpclassify")
    2772                    .dwattr $C$DW$139, DW_AT_low_pc(__fpclassify)
    2773                    .dwattr $C$DW$139, DW_AT_high_pc(0x00)
    2774                    .dwattr $C$DW$139, DW_AT_TI_symbol_name("__fpclassify")
    2775                    .dwattr $C$DW$139, DW_AT_external
    2776                    .dwattr $C$DW$139, DW_AT_type(*$C$DW$T$10)
    2777                    .dwattr $C$DW$139, DW_AT_TI_begin_file("C:/ti/ccs1110/ccs/tools/compiler/ti-cgt-msp430_21.6.1.
    2778                    .dwattr $C$DW$139, DW_AT_TI_begin_line(0x19d)
    2779                    .dwattr $C$DW$139, DW_AT_TI_begin_column(0x25)
    2780                    .dwattr $C$DW$139, DW_AT_decl_file("C:/ti/ccs1110/ccs/tools/compiler/ti-cgt-msp430_21.6.1.LTS/
    2781                    .dwattr $C$DW$139, DW_AT_decl_line(0x19d)
    2782                    .dwattr $C$DW$139, DW_AT_decl_column(0x25)
    2783                    .dwattr $C$DW$139, DW_AT_TI_max_frame_size(0x20)
    2784                    .dwpsn  file "C:/ti/ccs1110/ccs/tools/compiler/ti-cgt-msp430_21.6.1.LTS/include/_defs.h",line 
    2785            
    2786                    .dwfde $C$DW$CIE, __fpclassify
    2787            $C$DW$140       .dwtag  DW_TAG_formal_parameter
MSP430 Assembler PC v21.6.1 Tue Dec 20 13:46:02 2022

Copyright (c) 2003-2018 Texas Instruments Incorporated
Output_Voltage_Set.asm                                               PAGE   56

    2788                    .dwattr $C$DW$140, DW_AT_name("d")
    2789                    .dwattr $C$DW$140, DW_AT_TI_symbol_name("d")
    2790                    .dwattr $C$DW$140, DW_AT_type(*$C$DW$T$17)
    2791                    .dwattr $C$DW$140, DW_AT_location[DW_OP_reg12 DW_OP_piece 2 DW_OP_reg13 DW_OP_piece 2 DW_OP_re
    2792            
    2793            
    2794            ;*****************************************************************************
    2795            ;* FUNCTION NAME: __fpclassify                                               *
    2796            ;*                                                                           *
    2797            ;*   Regs Modified     : SP,SR,r4,r5,r6,r7,r8,r9,r10,r11,r12,r13,r14,r15     *
    2798            ;*   Regs Used         : SP,SR,r4,r5,r6,r7,r8,r9,r10,r11,r12,r13,r14,r15     *
    2799            ;*   Local Frame Size  : 0 Args + 0 Auto + 28 Save = 28 byte                 *
    2800            ;*****************************************************************************
    2801 000000       __fpclassify:
    2802            ;* --------------------------------------------------------------------------*
    2803                    .dwcfi  cfa_offset, 4
    2804                    .dwcfi  save_reg_to_mem, 16, -4
    2805 000000 146A          PUSHM.A   #7,r10                ; [] 
    2806                    .dwcfi  save_reg_to_mem, 10, -8
    2807                    .dwcfi  save_reg_to_mem, 9, -12
    2808                    .dwcfi  save_reg_to_mem, 8, -16
    2809                    .dwcfi  save_reg_to_mem, 7, -20
    2810                    .dwcfi  save_reg_to_mem, 6, -24
    2811                    .dwcfi  save_reg_to_mem, 5, -28
    2812                    .dwcfi  save_reg_to_mem, 4, -32
    2813                    .dwcfi  cfa_offset, 32
    2814            ;* r4    assigned to d
    2815            $C$DW$141       .dwtag  DW_TAG_variable
    2816                    .dwattr $C$DW$141, DW_AT_name("d")
    2817                    .dwattr $C$DW$141, DW_AT_TI_symbol_name("d")
    2818                    .dwattr $C$DW$141, DW_AT_type(*$C$DW$T$17)
    2819                    .dwattr $C$DW$141, DW_AT_location[DW_OP_reg4 DW_OP_piece 2 DW_OP_reg5 DW_OP_piece 2 DW_OP_reg6
    2820            
    2821 000002 0CC4          MOVA      r12,r4                ; [] |414| 
    2822 000004 0DC5          MOVA      r13,r5                ; [] |414| 
    2823 000006 0EC6          MOVA      r14,r6                ; [] |414| 
    2824 000008 0FC7          MOVA      r15,r7                ; [] |414| 
    2825                    .dwpsn  file "C:/ti/ccs1110/ccs/tools/compiler/ti-cgt-msp430_21.6.1.LTS/include/_defs.h",line 
    2826 00000a F03F          AND.W     #32752,r15            ; [] |419| 
         00000c 7FF0 
    2827 00000e 903F          CMP.W     #32752,r15            ; [] |419| 
         000010 7FF0 
    2828 000012 2011          JNE       $C$L62                ; [] |419| 
    2829                                                      ; [] |419| 
    2830            ;* --------------------------------------------------------------------------*
    2831 000014 F334          AND.W     #65535,r4             ; [] |419| 
    2832 000016 F335          AND.W     #65535,r5             ; [] |419| 
    2833 000018 F336          AND.W     #65535,r6             ; [] |419| 
    2834 00001a F037          AND.W     #15,r7                ; [] |419| 
         00001c 000F 
    2835 00001e 9307          TST.W     r7                    ; [] |419| 
    2836 000020 2006          JNE       $C$L60                ; [] |419| 
    2837                                                      ; [] |419| 
    2838            ;* --------------------------------------------------------------------------*
    2839 000022 9306          TST.W     r6                    ; [] |419| 
MSP430 Assembler PC v21.6.1 Tue Dec 20 13:46:02 2022

Copyright (c) 2003-2018 Texas Instruments Incorporated
Output_Voltage_Set.asm                                               PAGE   57

    2840 000024 2004          JNE       $C$L60                ; [] |419| 
    2841                                                      ; [] |419| 
    2842            ;* --------------------------------------------------------------------------*
    2843 000026 9305          TST.W     r5                    ; [] |419| 
    2844 000028 2002          JNE       $C$L60                ; [] |419| 
    2845                                                      ; [] |419| 
    2846            ;* --------------------------------------------------------------------------*
    2847 00002a 9304          TST.W     r4                    ; [] |419| 
    2848 00002c 2402          JEQ       $C$L61                ; [] |419| 
    2849                                                      ; [] |419| 
    2850            ;* --------------------------------------------------------------------------*
    2851 00002e       $C$L60:    
    2852 00002e 432C          MOV.W     #2,r12                ; [] |419| 
    2853 000030 3C2A          JMP       $C$L67                ; [] |419| 
    2854                                                      ; [] |419| 
    2855            ;* --------------------------------------------------------------------------*
    2856 000032       $C$L61:    
    2857 000032 431C          MOV.W     #1,r12                ; [] |419| 
    2858 000034 3C28          JMP       $C$L67                ; [] |419| 
    2859                                                      ; [] |419| 
    2860            ;* --------------------------------------------------------------------------*
    2861 000036       $C$L62:    
    2862 000036 04C8          MOVA      r4,r8                 ; [] |419| 
    2863 000038 05C9          MOVA      r5,r9                 ; [] |419| 
    2864 00003a 06CA          MOVA      r6,r10                ; [] |419| 
    2865 00003c 07CB          MOVA      r7,r11                ; [] |419| 
    2866 00003e 403C          MOV.W     #52,r12               ; [] |419| 
         000040 0034 
    2867            $C$DW$142       .dwtag  DW_TAG_TI_branch
    2868                    .dwattr $C$DW$142, DW_AT_low_pc(0x00)
    2869                    .dwattr $C$DW$142, DW_AT_name("__mspabi_srlll")
    2870                    .dwattr $C$DW$142, DW_AT_TI_call
    2871            
    2872 000042 13B0!         CALLA     #__mspabi_srlll       ; [] |419| 
         000044 0000 
    2873                                                      ; [] |419| 
    2874 000046 F03C          AND.W     #2047,r12             ; [] |419| 
         000048 07FF 
    2875 00004a F30D          AND.W     #0,r13                ; [] |419| 
    2876 00004c F30E          AND.W     #0,r14                ; [] |419| 
    2877 00004e F30F          AND.W     #0,r15                ; [] |419| 
    2878 000050 930F          TST.W     r15                   ; [] |419| 
    2879 000052 2006          JNE       $C$L63                ; [] |419| 
    2880                                                      ; [] |419| 
    2881            ;* --------------------------------------------------------------------------*
    2882 000054 930E          TST.W     r14                   ; [] |419| 
    2883 000056 2004          JNE       $C$L63                ; [] |419| 
    2884                                                      ; [] |419| 
    2885            ;* --------------------------------------------------------------------------*
    2886 000058 930D          TST.W     r13                   ; [] |419| 
    2887 00005a 2002          JNE       $C$L63                ; [] |419| 
    2888                                                      ; [] |419| 
    2889            ;* --------------------------------------------------------------------------*
    2890 00005c 930C          TST.W     r12                   ; [] |419| 
    2891 00005e 2402          JEQ       $C$L64                ; [] |419| 
MSP430 Assembler PC v21.6.1 Tue Dec 20 13:46:02 2022

Copyright (c) 2003-2018 Texas Instruments Incorporated
Output_Voltage_Set.asm                                               PAGE   58

    2892                                                      ; [] |419| 
    2893            ;* --------------------------------------------------------------------------*
    2894 000060       $C$L63:    
    2895 000060 433C          MOV.W     #-1,r12               ; [] |419| 
    2896 000062 3C11          JMP       $C$L67                ; [] |419| 
    2897                                                      ; [] |419| 
    2898            ;* --------------------------------------------------------------------------*
    2899 000064       $C$L64:    
    2900 000064 F334          AND.W     #65535,r4             ; [] |419| 
    2901 000066 F335          AND.W     #65535,r5             ; [] |419| 
    2902 000068 F336          AND.W     #65535,r6             ; [] |419| 
    2903 00006a F037          AND.W     #15,r7                ; [] |419| 
         00006c 000F 
    2904 00006e 9307          TST.W     r7                    ; [] |419| 
    2905 000070 2006          JNE       $C$L65                ; [] |419| 
    2906                                                      ; [] |419| 
    2907            ;* --------------------------------------------------------------------------*
    2908 000072 9306          TST.W     r6                    ; [] |419| 
    2909 000074 2004          JNE       $C$L65                ; [] |419| 
    2910                                                      ; [] |419| 
    2911            ;* --------------------------------------------------------------------------*
    2912 000076 9305          TST.W     r5                    ; [] |419| 
    2913 000078 2002          JNE       $C$L65                ; [] |419| 
    2914                                                      ; [] |419| 
    2915            ;* --------------------------------------------------------------------------*
    2916 00007a 9304          TST.W     r4                    ; [] |419| 
    2917 00007c 2403          JEQ       $C$L66                ; [] |419| 
    2918                                                      ; [] |419| 
    2919            ;* --------------------------------------------------------------------------*
    2920 00007e       $C$L65:    
    2921 00007e 403C          MOV.W     #65534,r12            ; [] |419| 
         000080 FFFE 
    2922 000082 3C01          JMP       $C$L67                ; [] |419| 
    2923                                                      ; [] |419| 
    2924            ;* --------------------------------------------------------------------------*
    2925 000084       $C$L66:    
    2926 000084 430C          MOV.W     #0,r12                ; [] |419| 
    2927            ;* --------------------------------------------------------------------------*
    2928 000086       $C$L67:    
    2929                    .dwpsn  file "C:/ti/ccs1110/ccs/tools/compiler/ti-cgt-msp430_21.6.1.LTS/include/_defs.h",line 
    2930 000086 1664          POPM.A    #7,r10                ; [] 
    2931                    .dwcfi  restore_reg, 4
    2932                    .dwcfi  restore_reg, 5
    2933                    .dwcfi  restore_reg, 6
    2934                    .dwcfi  restore_reg, 7
    2935                    .dwcfi  restore_reg, 8
    2936                    .dwcfi  restore_reg, 9
    2937                    .dwcfi  restore_reg, 10
    2938                    .dwcfi  cfa_offset, 4
    2939            $C$DW$143       .dwtag  DW_TAG_TI_branch
    2940                    .dwattr $C$DW$143, DW_AT_low_pc(0x00)
    2941                    .dwattr $C$DW$143, DW_AT_TI_return
    2942            
    2943 000088 0110          RETA      ; [] 
    2944                    ; [] 
MSP430 Assembler PC v21.6.1 Tue Dec 20 13:46:02 2022

Copyright (c) 2003-2018 Texas Instruments Incorporated
Output_Voltage_Set.asm                                               PAGE   59

    2945                    .dwattr $C$DW$139, DW_AT_TI_end_file("C:/ti/ccs1110/ccs/tools/compiler/ti-cgt-msp430_21.6.1.LT
    2946                    .dwattr $C$DW$139, DW_AT_TI_end_line(0x1ac)
    2947                    .dwattr $C$DW$139, DW_AT_TI_end_column(0x01)
    2948                    .dwendentry
    2949                    .dwendtag $C$DW$139
    2950            
    2951            ;*****************************************************************************
    2952            ;* UNDEFINED EXTERNAL REFERENCES                                             *
    2953            ;*****************************************************************************
    2954                    .global FCTL1
    2955                    .global FCTL3
    2956                    .global PDOUT_H
    2957                    .global PEOUT_H
    2958                    .global WDTCTL
    2959                    .global Vtmp
    2960                    .global System_V
    2961                    .global Output_volts
    2962                    .global OutputV_Setpoint
    2963                    .global __mspabi_cmpf
    2964                    .global __mspabi_cvtfd
    2965                    .global __mspabi_mpyd
    2966                    .global __mspabi_cmpd
    2967                    .global __mspabi_addd
    2968                    .global __mspabi_cvtdf
    2969                    .global __mspabi_fixfi
    2970                    .global __mspabi_srlll
    2971            ;*****************************************************************************
    2972            ;* SECTION GROUPS                                                            *
    2973            ;*****************************************************************************
    2974                    .group    "__fpclassify", 1
    2975                    .gmember  ".text:__fpclassify"
    2976                    .endgroup
    2977                    .group    "__fpclassifyf", 1
    2978                    .gmember  ".text:__fpclassifyf"
    2979                    .endgroup
    2980                    .group    "__fpclassifyl", 1
    2981                    .gmember  ".text:__fpclassifyl"
    2982                    .endgroup
    2983                    .group    "__isfinite", 1
    2984                    .gmember  ".text:__isfinite"
    2985                    .endgroup
    2986                    .group    "__isfinitef", 1
    2987                    .gmember  ".text:__isfinitef"
    2988                    .endgroup
    2989                    .group    "__isfinitel", 1
    2990                    .gmember  ".text:__isfinitel"
    2991                    .endgroup
    2992                    .group    "__isinf", 1
    2993                    .gmember  ".text:__isinf"
    2994                    .endgroup
    2995                    .group    "__isinff", 1
    2996                    .gmember  ".text:__isinff"
    2997                    .endgroup
    2998                    .group    "__isinfl", 1
    2999                    .gmember  ".text:__isinfl"
MSP430 Assembler PC v21.6.1 Tue Dec 20 13:46:02 2022

Copyright (c) 2003-2018 Texas Instruments Incorporated
Output_Voltage_Set.asm                                               PAGE   60

    3000                    .endgroup
    3001                    .group    "__isnan", 1
    3002                    .gmember  ".text:__isnan"
    3003                    .endgroup
    3004                    .group    "__isnanf", 1
    3005                    .gmember  ".text:__isnanf"
    3006                    .endgroup
    3007                    .group    "__isnanl", 1
    3008                    .gmember  ".text:__isnanl"
    3009                    .endgroup
    3010                    .group    "__isnormal", 1
    3011                    .gmember  ".text:__isnormal"
    3012                    .endgroup
    3013                    .group    "__isnormalf", 1
    3014                    .gmember  ".text:__isnormalf"
    3015                    .endgroup
    3016                    .group    "__isnormall", 1
    3017                    .gmember  ".text:__isnormall"
    3018                    .endgroup
    3019                    .group    "__signbit", 1
    3020                    .gmember  ".text:__signbit"
    3021                    .endgroup
    3022                    .group    "__signbitf", 1
    3023                    .gmember  ".text:__signbitf"
    3024                    .endgroup
    3025                    .group    "__signbitl", 1
    3026                    .gmember  ".text:__signbitl"
    3027                    .endgroup
    3028            
    3029            
    3030            ;******************************************************************************
    3031            ;* BUILD ATTRIBUTES                                                           *
    3032            ;******************************************************************************
    3033                    .battr "TI", Tag_File, 1, Tag_LPM_INFO(1)
    3034                    .battr "TI", Tag_File, 1, Tag_PORTS_INIT_INFO("012345678901ABCDEFGHIJ0000000000001111110000000
    3035                    .battr "TI", Tag_File, 1, Tag_LEA_INFO(1)
    3036                    .battr "TI", Tag_File, 1, Tag_HW_MPY32_INFO(2)
    3037                    .battr "TI", Tag_File, 1, Tag_HW_MPY_ISR_INFO(1)
    3038                    .battr "TI", Tag_File, 1, Tag_HW_MPY_INLINE_INFO(1)
    3039                    .battr "mspabi", Tag_File, 1, Tag_enum_size(2)
    3040            
    3041            ;******************************************************************************
    3042            ;* TYPE INFORMATION                                                           *
    3043            ;******************************************************************************
    3044            
    3045            $C$DW$T$53      .dwtag  DW_TAG_enumeration_type
    3046                    .dwattr $C$DW$T$53, DW_AT_byte_size(0x02)
    3047            $C$DW$144       .dwtag  DW_TAG_enumerator
    3048                    .dwattr $C$DW$144, DW_AT_name("WarmUp")
    3049                    .dwattr $C$DW$144, DW_AT_const_value(0x00)
    3050                    .dwattr $C$DW$144, DW_AT_decl_file("C:/Users/MCourson/workspace_v11/MZERO_HB50Board/include/Ma
    3051                    .dwattr $C$DW$144, DW_AT_decl_line(0x59)
    3052                    .dwattr $C$DW$144, DW_AT_decl_column(0x05)
    3053            
    3054            $C$DW$145       .dwtag  DW_TAG_enumerator
MSP430 Assembler PC v21.6.1 Tue Dec 20 13:46:02 2022

Copyright (c) 2003-2018 Texas Instruments Incorporated
Output_Voltage_Set.asm                                               PAGE   61

    3055                    .dwattr $C$DW$145, DW_AT_name("Startup")
    3056                    .dwattr $C$DW$145, DW_AT_const_value(0x01)
    3057                    .dwattr $C$DW$145, DW_AT_decl_file("C:/Users/MCourson/workspace_v11/MZERO_HB50Board/include/Ma
    3058                    .dwattr $C$DW$145, DW_AT_decl_line(0x5a)
    3059                    .dwattr $C$DW$145, DW_AT_decl_column(0x05)
    3060            
    3061            $C$DW$146       .dwtag  DW_TAG_enumerator
    3062                    .dwattr $C$DW$146, DW_AT_name("Normal_Run")
    3063                    .dwattr $C$DW$146, DW_AT_const_value(0x02)
    3064                    .dwattr $C$DW$146, DW_AT_decl_file("C:/Users/MCourson/workspace_v11/MZERO_HB50Board/include/Ma
    3065                    .dwattr $C$DW$146, DW_AT_decl_line(0x5b)
    3066                    .dwattr $C$DW$146, DW_AT_decl_column(0x05)
    3067            
    3068            $C$DW$147       .dwtag  DW_TAG_enumerator
    3069                    .dwattr $C$DW$147, DW_AT_name("Standby")
    3070                    .dwattr $C$DW$147, DW_AT_const_value(0x03)
    3071                    .dwattr $C$DW$147, DW_AT_decl_file("C:/Users/MCourson/workspace_v11/MZERO_HB50Board/include/Ma
    3072                    .dwattr $C$DW$147, DW_AT_decl_line(0x5c)
    3073                    .dwattr $C$DW$147, DW_AT_decl_column(0x05)
    3074            
    3075            $C$DW$148       .dwtag  DW_TAG_enumerator
    3076                    .dwattr $C$DW$148, DW_AT_name("ShutDown")
    3077                    .dwattr $C$DW$148, DW_AT_const_value(0x04)
    3078                    .dwattr $C$DW$148, DW_AT_decl_file("C:/Users/MCourson/workspace_v11/MZERO_HB50Board/include/Ma
    3079                    .dwattr $C$DW$148, DW_AT_decl_line(0x5d)
    3080                    .dwattr $C$DW$148, DW_AT_decl_column(0x05)
    3081            
    3082            $C$DW$149       .dwtag  DW_TAG_enumerator
    3083                    .dwattr $C$DW$149, DW_AT_name("Self_Test")
    3084                    .dwattr $C$DW$149, DW_AT_const_value(0x05)
    3085                    .dwattr $C$DW$149, DW_AT_decl_file("C:/Users/MCourson/workspace_v11/MZERO_HB50Board/include/Ma
    3086                    .dwattr $C$DW$149, DW_AT_decl_line(0x5e)
    3087                    .dwattr $C$DW$149, DW_AT_decl_column(0x05)
    3088            
    3089            $C$DW$150       .dwtag  DW_TAG_enumerator
    3090                    .dwattr $C$DW$150, DW_AT_name("Sleep")
    3091                    .dwattr $C$DW$150, DW_AT_const_value(0x06)
    3092                    .dwattr $C$DW$150, DW_AT_decl_file("C:/Users/MCourson/workspace_v11/MZERO_HB50Board/include/Ma
    3093                    .dwattr $C$DW$150, DW_AT_decl_line(0x5f)
    3094                    .dwattr $C$DW$150, DW_AT_decl_column(0x05)
    3095            
    3096            $C$DW$151       .dwtag  DW_TAG_enumerator
    3097                    .dwattr $C$DW$151, DW_AT_name("Fault")
    3098                    .dwattr $C$DW$151, DW_AT_const_value(0x07)
    3099                    .dwattr $C$DW$151, DW_AT_decl_file("C:/Users/MCourson/workspace_v11/MZERO_HB50Board/include/Ma
    3100                    .dwattr $C$DW$151, DW_AT_decl_line(0x60)
    3101                    .dwattr $C$DW$151, DW_AT_decl_column(0x05)
    3102            
    3103            $C$DW$152       .dwtag  DW_TAG_enumerator
    3104                    .dwattr $C$DW$152, DW_AT_name("Wait")
    3105                    .dwattr $C$DW$152, DW_AT_const_value(0x08)
    3106                    .dwattr $C$DW$152, DW_AT_decl_file("C:/Users/MCourson/workspace_v11/MZERO_HB50Board/include/Ma
    3107                    .dwattr $C$DW$152, DW_AT_decl_line(0x61)
    3108                    .dwattr $C$DW$152, DW_AT_decl_column(0x05)
    3109            
MSP430 Assembler PC v21.6.1 Tue Dec 20 13:46:02 2022

Copyright (c) 2003-2018 Texas Instruments Incorporated
Output_Voltage_Set.asm                                               PAGE   62

    3110            $C$DW$153       .dwtag  DW_TAG_enumerator
    3111                    .dwattr $C$DW$153, DW_AT_name("Cool_down")
    3112                    .dwattr $C$DW$153, DW_AT_const_value(0x09)
    3113                    .dwattr $C$DW$153, DW_AT_decl_file("C:/Users/MCourson/workspace_v11/MZERO_HB50Board/include/Ma
    3114                    .dwattr $C$DW$153, DW_AT_decl_line(0x62)
    3115                    .dwattr $C$DW$153, DW_AT_decl_column(0x05)
    3116            
    3117                    .dwattr $C$DW$T$53, DW_AT_decl_file("C:/Users/MCourson/workspace_v11/MZERO_HB50Board/include/M
    3118                    .dwattr $C$DW$T$53, DW_AT_decl_line(0x58)
    3119                    .dwattr $C$DW$T$53, DW_AT_decl_column(0x0e)
    3120                    .dwendtag $C$DW$T$53
    3121            
    3122            $C$DW$T$54      .dwtag  DW_TAG_typedef
    3123                    .dwattr $C$DW$T$54, DW_AT_name("State")
    3124                    .dwattr $C$DW$T$54, DW_AT_type(*$C$DW$T$53)
    3125                    .dwattr $C$DW$T$54, DW_AT_language(DW_LANG_C)
    3126                    .dwattr $C$DW$T$54, DW_AT_decl_file("C:/Users/MCourson/workspace_v11/MZERO_HB50Board/include/M
    3127                    .dwattr $C$DW$T$54, DW_AT_decl_line(0x63)
    3128                    .dwattr $C$DW$T$54, DW_AT_decl_column(0x03)
    3129            
    3130            
    3131            $C$DW$T$55      .dwtag  DW_TAG_enumeration_type
    3132                    .dwattr $C$DW$T$55, DW_AT_byte_size(0x02)
    3133            $C$DW$154       .dwtag  DW_TAG_enumerator
    3134                    .dwattr $C$DW$154, DW_AT_name("COLD")
    3135                    .dwattr $C$DW$154, DW_AT_const_value(0x00)
    3136                    .dwattr $C$DW$154, DW_AT_decl_file("C:/Users/MCourson/workspace_v11/MZERO_HB50Board/include/Ma
    3137                    .dwattr $C$DW$154, DW_AT_decl_line(0x68)
    3138                    .dwattr $C$DW$154, DW_AT_decl_column(0x05)
    3139            
    3140            $C$DW$155       .dwtag  DW_TAG_enumerator
    3141                    .dwattr $C$DW$155, DW_AT_name("WARM")
    3142                    .dwattr $C$DW$155, DW_AT_const_value(0x01)
    3143                    .dwattr $C$DW$155, DW_AT_decl_file("C:/Users/MCourson/workspace_v11/MZERO_HB50Board/include/Ma
    3144                    .dwattr $C$DW$155, DW_AT_decl_line(0x69)
    3145                    .dwattr $C$DW$155, DW_AT_decl_column(0x05)
    3146            
    3147            $C$DW$156       .dwtag  DW_TAG_enumerator
    3148                    .dwattr $C$DW$156, DW_AT_name("OPERATIONAL")
    3149                    .dwattr $C$DW$156, DW_AT_const_value(0x02)
    3150                    .dwattr $C$DW$156, DW_AT_decl_file("C:/Users/MCourson/workspace_v11/MZERO_HB50Board/include/Ma
    3151                    .dwattr $C$DW$156, DW_AT_decl_line(0x6a)
    3152                    .dwattr $C$DW$156, DW_AT_decl_column(0x05)
    3153            
    3154                    .dwattr $C$DW$T$55, DW_AT_decl_file("C:/Users/MCourson/workspace_v11/MZERO_HB50Board/include/M
    3155                    .dwattr $C$DW$T$55, DW_AT_decl_line(0x67)
    3156                    .dwattr $C$DW$T$55, DW_AT_decl_column(0x0e)
    3157                    .dwendtag $C$DW$T$55
    3158            
    3159            $C$DW$T$56      .dwtag  DW_TAG_typedef
    3160                    .dwattr $C$DW$T$56, DW_AT_name("SetState")
    3161                    .dwattr $C$DW$T$56, DW_AT_type(*$C$DW$T$55)
    3162                    .dwattr $C$DW$T$56, DW_AT_language(DW_LANG_C)
    3163                    .dwattr $C$DW$T$56, DW_AT_decl_file("C:/Users/MCourson/workspace_v11/MZERO_HB50Board/include/M
    3164                    .dwattr $C$DW$T$56, DW_AT_decl_line(0x6b)
MSP430 Assembler PC v21.6.1 Tue Dec 20 13:46:02 2022

Copyright (c) 2003-2018 Texas Instruments Incorporated
Output_Voltage_Set.asm                                               PAGE   63

    3165                    .dwattr $C$DW$T$56, DW_AT_decl_column(0x03)
    3166            
    3167            
    3168            $C$DW$T$57      .dwtag  DW_TAG_enumeration_type
    3169                    .dwattr $C$DW$T$57, DW_AT_byte_size(0x02)
    3170            $C$DW$157       .dwtag  DW_TAG_enumerator
    3171                    .dwattr $C$DW$157, DW_AT_name("none")
    3172                    .dwattr $C$DW$157, DW_AT_const_value(0x00)
    3173                    .dwattr $C$DW$157, DW_AT_decl_file("C:/Users/MCourson/workspace_v11/MZERO_HB50Board/include/Ma
    3174                    .dwattr $C$DW$157, DW_AT_decl_line(0x70)
    3175                    .dwattr $C$DW$157, DW_AT_decl_column(0x05)
    3176            
    3177            $C$DW$158       .dwtag  DW_TAG_enumerator
    3178                    .dwattr $C$DW$158, DW_AT_name("size")
    3179                    .dwattr $C$DW$158, DW_AT_const_value(0x01)
    3180                    .dwattr $C$DW$158, DW_AT_decl_file("C:/Users/MCourson/workspace_v11/MZERO_HB50Board/include/Ma
    3181                    .dwattr $C$DW$158, DW_AT_decl_line(0x71)
    3182                    .dwattr $C$DW$158, DW_AT_decl_column(0x05)
    3183            
    3184            $C$DW$159       .dwtag  DW_TAG_enumerator
    3185                    .dwattr $C$DW$159, DW_AT_name("cmnd")
    3186                    .dwattr $C$DW$159, DW_AT_const_value(0x02)
    3187                    .dwattr $C$DW$159, DW_AT_decl_file("C:/Users/MCourson/workspace_v11/MZERO_HB50Board/include/Ma
    3188                    .dwattr $C$DW$159, DW_AT_decl_line(0x72)
    3189                    .dwattr $C$DW$159, DW_AT_decl_column(0x05)
    3190            
    3191            $C$DW$160       .dwtag  DW_TAG_enumerator
    3192                    .dwattr $C$DW$160, DW_AT_name("dataln")
    3193                    .dwattr $C$DW$160, DW_AT_const_value(0x03)
    3194                    .dwattr $C$DW$160, DW_AT_decl_file("C:/Users/MCourson/workspace_v11/MZERO_HB50Board/include/Ma
    3195                    .dwattr $C$DW$160, DW_AT_decl_line(0x73)
    3196                    .dwattr $C$DW$160, DW_AT_decl_column(0x05)
    3197            
    3198            $C$DW$161       .dwtag  DW_TAG_enumerator
    3199                    .dwattr $C$DW$161, DW_AT_name("chksum")
    3200                    .dwattr $C$DW$161, DW_AT_const_value(0x04)
    3201                    .dwattr $C$DW$161, DW_AT_decl_file("C:/Users/MCourson/workspace_v11/MZERO_HB50Board/include/Ma
    3202                    .dwattr $C$DW$161, DW_AT_decl_line(0x74)
    3203                    .dwattr $C$DW$161, DW_AT_decl_column(0x05)
    3204            
    3205            $C$DW$162       .dwtag  DW_TAG_enumerator
    3206                    .dwattr $C$DW$162, DW_AT_name("crc1")
    3207                    .dwattr $C$DW$162, DW_AT_const_value(0x05)
    3208                    .dwattr $C$DW$162, DW_AT_decl_file("C:/Users/MCourson/workspace_v11/MZERO_HB50Board/include/Ma
    3209                    .dwattr $C$DW$162, DW_AT_decl_line(0x75)
    3210                    .dwattr $C$DW$162, DW_AT_decl_column(0x05)
    3211            
    3212            $C$DW$163       .dwtag  DW_TAG_enumerator
    3213                    .dwattr $C$DW$163, DW_AT_name("crc2")
    3214                    .dwattr $C$DW$163, DW_AT_const_value(0x06)
    3215                    .dwattr $C$DW$163, DW_AT_decl_file("C:/Users/MCourson/workspace_v11/MZERO_HB50Board/include/Ma
    3216                    .dwattr $C$DW$163, DW_AT_decl_line(0x76)
    3217                    .dwattr $C$DW$163, DW_AT_decl_column(0x05)
    3218            
    3219            $C$DW$164       .dwtag  DW_TAG_enumerator
MSP430 Assembler PC v21.6.1 Tue Dec 20 13:46:02 2022

Copyright (c) 2003-2018 Texas Instruments Incorporated
Output_Voltage_Set.asm                                               PAGE   64

    3220                    .dwattr $C$DW$164, DW_AT_name("ack")
    3221                    .dwattr $C$DW$164, DW_AT_const_value(0x07)
    3222                    .dwattr $C$DW$164, DW_AT_decl_file("C:/Users/MCourson/workspace_v11/MZERO_HB50Board/include/Ma
    3223                    .dwattr $C$DW$164, DW_AT_decl_line(0x77)
    3224                    .dwattr $C$DW$164, DW_AT_decl_column(0x05)
    3225            
    3226            $C$DW$165       .dwtag  DW_TAG_enumerator
    3227                    .dwattr $C$DW$165, DW_AT_name("var")
    3228                    .dwattr $C$DW$165, DW_AT_const_value(0x08)
    3229                    .dwattr $C$DW$165, DW_AT_decl_file("C:/Users/MCourson/workspace_v11/MZERO_HB50Board/include/Ma
    3230                    .dwattr $C$DW$165, DW_AT_decl_line(0x78)
    3231                    .dwattr $C$DW$165, DW_AT_decl_column(0x05)
    3232            
    3233            $C$DW$166       .dwtag  DW_TAG_enumerator
    3234                    .dwattr $C$DW$166, DW_AT_name("UGmsg")
    3235                    .dwattr $C$DW$166, DW_AT_const_value(0x09)
    3236                    .dwattr $C$DW$166, DW_AT_decl_file("C:/Users/MCourson/workspace_v11/MZERO_HB50Board/include/Ma
    3237                    .dwattr $C$DW$166, DW_AT_decl_line(0x79)
    3238                    .dwattr $C$DW$166, DW_AT_decl_column(0x05)
    3239            
    3240                    .dwattr $C$DW$T$57, DW_AT_decl_file("C:/Users/MCourson/workspace_v11/MZERO_HB50Board/include/M
    3241                    .dwattr $C$DW$T$57, DW_AT_decl_line(0x6f)
    3242                    .dwattr $C$DW$T$57, DW_AT_decl_column(0x0e)
    3243                    .dwendtag $C$DW$T$57
    3244            
    3245            $C$DW$T$58      .dwtag  DW_TAG_typedef
    3246                    .dwattr $C$DW$T$58, DW_AT_name("MessageFields")
    3247                    .dwattr $C$DW$T$58, DW_AT_type(*$C$DW$T$57)
    3248                    .dwattr $C$DW$T$58, DW_AT_language(DW_LANG_C)
    3249                    .dwattr $C$DW$T$58, DW_AT_decl_file("C:/Users/MCourson/workspace_v11/MZERO_HB50Board/include/M
    3250                    .dwattr $C$DW$T$58, DW_AT_decl_line(0x7a)
    3251                    .dwattr $C$DW$T$58, DW_AT_decl_column(0x03)
    3252            
    3253            
    3254            $C$DW$T$59      .dwtag  DW_TAG_enumeration_type
    3255                    .dwattr $C$DW$T$59, DW_AT_byte_size(0x02)
    3256            $C$DW$167       .dwtag  DW_TAG_enumerator
    3257                    .dwattr $C$DW$167, DW_AT_name("init")
    3258                    .dwattr $C$DW$167, DW_AT_const_value(0x00)
    3259                    .dwattr $C$DW$167, DW_AT_decl_file("C:/Users/MCourson/workspace_v11/MZERO_HB50Board/include/Ma
    3260                    .dwattr $C$DW$167, DW_AT_decl_line(0x80)
    3261                    .dwattr $C$DW$167, DW_AT_decl_column(0x05)
    3262            
    3263            $C$DW$168       .dwtag  DW_TAG_enumerator
    3264                    .dwattr $C$DW$168, DW_AT_name("running")
    3265                    .dwattr $C$DW$168, DW_AT_const_value(0x01)
    3266                    .dwattr $C$DW$168, DW_AT_decl_file("C:/Users/MCourson/workspace_v11/MZERO_HB50Board/include/Ma
    3267                    .dwattr $C$DW$168, DW_AT_decl_line(0x80)
    3268                    .dwattr $C$DW$168, DW_AT_decl_column(0x0b)
    3269            
    3270            $C$DW$169       .dwtag  DW_TAG_enumerator
    3271                    .dwattr $C$DW$169, DW_AT_name("wait")
    3272                    .dwattr $C$DW$169, DW_AT_const_value(0x02)
    3273                    .dwattr $C$DW$169, DW_AT_decl_file("C:/Users/MCourson/workspace_v11/MZERO_HB50Board/include/Ma
    3274                    .dwattr $C$DW$169, DW_AT_decl_line(0x80)
MSP430 Assembler PC v21.6.1 Tue Dec 20 13:46:02 2022

Copyright (c) 2003-2018 Texas Instruments Incorporated
Output_Voltage_Set.asm                                               PAGE   65

    3275                    .dwattr $C$DW$169, DW_AT_decl_column(0x14)
    3276            
    3277                    .dwattr $C$DW$T$59, DW_AT_decl_file("C:/Users/MCourson/workspace_v11/MZERO_HB50Board/include/M
    3278                    .dwattr $C$DW$T$59, DW_AT_decl_line(0x7f)
    3279                    .dwattr $C$DW$T$59, DW_AT_decl_column(0x01)
    3280                    .dwendtag $C$DW$T$59
    3281            
    3282            $C$DW$T$60      .dwtag  DW_TAG_typedef
    3283                    .dwattr $C$DW$T$60, DW_AT_name("StatusFields")
    3284                    .dwattr $C$DW$T$60, DW_AT_type(*$C$DW$T$59)
    3285                    .dwattr $C$DW$T$60, DW_AT_language(DW_LANG_C)
    3286                    .dwattr $C$DW$T$60, DW_AT_decl_file("C:/Users/MCourson/workspace_v11/MZERO_HB50Board/include/M
    3287                    .dwattr $C$DW$T$60, DW_AT_decl_line(0x81)
    3288                    .dwattr $C$DW$T$60, DW_AT_decl_column(0x03)
    3289            
    3290            
    3291            $C$DW$T$22      .dwtag  DW_TAG_structure_type
    3292                    .dwattr $C$DW$T$22, DW_AT_byte_size(0x10)
    3293            $C$DW$170       .dwtag  DW_TAG_member
    3294                    .dwattr $C$DW$170, DW_AT_type(*$C$DW$T$14)
    3295                    .dwattr $C$DW$170, DW_AT_name("__max_align1")
    3296                    .dwattr $C$DW$170, DW_AT_TI_symbol_name("__max_align1")
    3297                    .dwattr $C$DW$170, DW_AT_data_member_location[DW_OP_plus_uconst 0x0]
    3298                    .dwattr $C$DW$170, DW_AT_accessibility(DW_ACCESS_public)
    3299                    .dwattr $C$DW$170, DW_AT_decl_file("C:/ti/ccs1110/ccs/tools/compiler/ti-cgt-msp430_21.6.1.LTS/
    3300                    .dwattr $C$DW$170, DW_AT_decl_line(0x7b)
    3301                    .dwattr $C$DW$170, DW_AT_decl_column(0x0c)
    3302            
    3303            $C$DW$171       .dwtag  DW_TAG_member
    3304                    .dwattr $C$DW$171, DW_AT_type(*$C$DW$T$18)
    3305                    .dwattr $C$DW$171, DW_AT_name("__max_align2")
    3306                    .dwattr $C$DW$171, DW_AT_TI_symbol_name("__max_align2")
    3307                    .dwattr $C$DW$171, DW_AT_data_member_location[DW_OP_plus_uconst 0x8]
    3308                    .dwattr $C$DW$171, DW_AT_accessibility(DW_ACCESS_public)
    3309                    .dwattr $C$DW$171, DW_AT_decl_file("C:/ti/ccs1110/ccs/tools/compiler/ti-cgt-msp430_21.6.1.LTS/
    3310                    .dwattr $C$DW$171, DW_AT_decl_line(0x7c)
    3311                    .dwattr $C$DW$171, DW_AT_decl_column(0x0e)
    3312            
    3313                    .dwattr $C$DW$T$22, DW_AT_decl_file("C:/ti/ccs1110/ccs/tools/compiler/ti-cgt-msp430_21.6.1.LTS
    3314                    .dwattr $C$DW$T$22, DW_AT_decl_line(0x7a)
    3315                    .dwattr $C$DW$T$22, DW_AT_decl_column(0x10)
    3316                    .dwendtag $C$DW$T$22
    3317            
    3318            $C$DW$T$61      .dwtag  DW_TAG_typedef
    3319                    .dwattr $C$DW$T$61, DW_AT_name("__max_align_t")
    3320                    .dwattr $C$DW$T$61, DW_AT_type(*$C$DW$T$22)
    3321                    .dwattr $C$DW$T$61, DW_AT_language(DW_LANG_C)
    3322                    .dwattr $C$DW$T$61, DW_AT_decl_file("C:/ti/ccs1110/ccs/tools/compiler/ti-cgt-msp430_21.6.1.LTS
    3323                    .dwattr $C$DW$T$61, DW_AT_decl_line(0x7d)
    3324                    .dwattr $C$DW$T$61, DW_AT_decl_column(0x03)
    3325            
    3326            
    3327            $C$DW$T$25      .dwtag  DW_TAG_structure_type
    3328                    .dwattr $C$DW$T$25, DW_AT_name("ADC12_A_configureMemoryParam")
    3329                    .dwattr $C$DW$T$25, DW_AT_byte_size(0x05)
MSP430 Assembler PC v21.6.1 Tue Dec 20 13:46:02 2022

Copyright (c) 2003-2018 Texas Instruments Incorporated
Output_Voltage_Set.asm                                               PAGE   66

    3330            $C$DW$172       .dwtag  DW_TAG_member
    3331                    .dwattr $C$DW$172, DW_AT_type(*$C$DW$T$24)
    3332                    .dwattr $C$DW$172, DW_AT_name("memoryBufferControlIndex")
    3333                    .dwattr $C$DW$172, DW_AT_TI_symbol_name("memoryBufferControlIndex")
    3334                    .dwattr $C$DW$172, DW_AT_data_member_location[DW_OP_plus_uconst 0x0]
