MSP430 Assembler PC v21.6.1 Tue Dec 20 13:46:05 2022

Copyright (c) 2003-2018 Texas Instruments Incorporated
pumps.asm                                                            PAGE    1

       1            ;******************************************************************************
       2            ;* MSP430 G3 C/C++ Codegen                                              PC v21.6.1.LTS *
       3            ;* Date/Time created: Tue Dec 20 13:46:05 2022                                *
       4            ;******************************************************************************
       5                    .compiler_opts --abi=eabi --diag_wrap=off --hll_source=on --mem_model:code=large --mem_model:d
       6            
       7            $C$DW$CU        .dwtag  DW_TAG_compile_unit
       8                    .dwattr $C$DW$CU, DW_AT_name("../src/pumps.c")
       9                    .dwattr $C$DW$CU, DW_AT_producer("TI MSP430 G3 C/C++ Codegen PC v21.6.1.LTS Copyright (c) 2003
      10                    .dwattr $C$DW$CU, DW_AT_TI_version(0x01)
      11                    .dwattr $C$DW$CU, DW_AT_comp_dir("C:\Users\MCourson\workspace_v11\MZERO_HB50Board\Debug")
      12            $C$DW$1 .dwtag  DW_TAG_variable
      13                    .dwattr $C$DW$1, DW_AT_name("TA0CCR3")
      14                    .dwattr $C$DW$1, DW_AT_TI_symbol_name("TA0CCR3")
      15                    .dwattr $C$DW$1, DW_AT_type(*$C$DW$T$111)
      16                    .dwattr $C$DW$1, DW_AT_declaration
      17                    .dwattr $C$DW$1, DW_AT_external
      18                    .dwattr $C$DW$1, DW_AT_decl_file("C:\ti\ccs1110\ccs\ccs_base\msp430\include\msp430f5438a.h")
      19                    .dwattr $C$DW$1, DW_AT_decl_line(0x943)
      20                    .dwattr $C$DW$1, DW_AT_decl_column(0x01)
      21            
      22            $C$DW$2 .dwtag  DW_TAG_variable
      23                    .dwattr $C$DW$2, DW_AT_name("TA0CCR4")
      24                    .dwattr $C$DW$2, DW_AT_TI_symbol_name("TA0CCR4")
      25                    .dwattr $C$DW$2, DW_AT_type(*$C$DW$T$111)
      26                    .dwattr $C$DW$2, DW_AT_declaration
      27                    .dwattr $C$DW$2, DW_AT_external
      28                    .dwattr $C$DW$2, DW_AT_decl_file("C:\ti\ccs1110\ccs\ccs_base\msp430\include\msp430f5438a.h")
      29                    .dwattr $C$DW$2, DW_AT_decl_line(0x944)
      30                    .dwattr $C$DW$2, DW_AT_decl_column(0x01)
      31            
      32            $C$DW$3 .dwtag  DW_TAG_variable
      33                    .dwattr $C$DW$3, DW_AT_name("TB0CCR3")
      34                    .dwattr $C$DW$3, DW_AT_TI_symbol_name("TB0CCR3")
      35                    .dwattr $C$DW$3, DW_AT_type(*$C$DW$T$111)
      36                    .dwattr $C$DW$3, DW_AT_declaration
      37                    .dwattr $C$DW$3, DW_AT_external
      38                    .dwattr $C$DW$3, DW_AT_decl_file("C:\ti\ccs1110\ccs\ccs_base\msp430\include\msp430f5438a.h")
      39                    .dwattr $C$DW$3, DW_AT_decl_line(0x9e4)
      40                    .dwattr $C$DW$3, DW_AT_decl_column(0x01)
      41            
      42                    .global mode
      43                    .common mode,2,2
      44            $C$DW$4 .dwtag  DW_TAG_variable
      45                    .dwattr $C$DW$4, DW_AT_name("mode")
      46                    .dwattr $C$DW$4, DW_AT_TI_symbol_name("mode")
      47                    .dwattr $C$DW$4, DW_AT_location[DW_OP_addr mode]
      48                    .dwattr $C$DW$4, DW_AT_type(*$C$DW$T$54)
      49                    .dwattr $C$DW$4, DW_AT_external
      50                    .dwattr $C$DW$4, DW_AT_decl_file("C:/Users/MCourson/workspace_v11/MZERO_HB50Board/include/Main
      51                    .dwattr $C$DW$4, DW_AT_decl_line(0x65)
      52                    .dwattr $C$DW$4, DW_AT_decl_column(0x07)
      53            
      54                    .global FCState
      55                    .common FCState,2,2
MSP430 Assembler PC v21.6.1 Tue Dec 20 13:46:05 2022

Copyright (c) 2003-2018 Texas Instruments Incorporated
pumps.asm                                                            PAGE    2

      56            $C$DW$5 .dwtag  DW_TAG_variable
      57                    .dwattr $C$DW$5, DW_AT_name("FCState")
      58                    .dwattr $C$DW$5, DW_AT_TI_symbol_name("FCState")
      59                    .dwattr $C$DW$5, DW_AT_location[DW_OP_addr FCState]
      60                    .dwattr $C$DW$5, DW_AT_type(*$C$DW$T$56)
      61                    .dwattr $C$DW$5, DW_AT_external
      62                    .dwattr $C$DW$5, DW_AT_decl_file("C:/Users/MCourson/workspace_v11/MZERO_HB50Board/include/Main
      63                    .dwattr $C$DW$5, DW_AT_decl_line(0x6d)
      64                    .dwattr $C$DW$5, DW_AT_decl_column(0x0a)
      65            
      66                    .global msgstatus
      67                    .common msgstatus,2,2
      68            $C$DW$6 .dwtag  DW_TAG_variable
      69                    .dwattr $C$DW$6, DW_AT_name("msgstatus")
      70                    .dwattr $C$DW$6, DW_AT_TI_symbol_name("msgstatus")
      71                    .dwattr $C$DW$6, DW_AT_location[DW_OP_addr msgstatus]
      72                    .dwattr $C$DW$6, DW_AT_type(*$C$DW$T$58)
      73                    .dwattr $C$DW$6, DW_AT_external
      74                    .dwattr $C$DW$6, DW_AT_decl_file("C:/Users/MCourson/workspace_v11/MZERO_HB50Board/include/Main
      75                    .dwattr $C$DW$6, DW_AT_decl_line(0x7c)
      76                    .dwattr $C$DW$6, DW_AT_decl_column(0x0f)
      77            
      78                    .global status
      79                    .common status,2,2
      80            $C$DW$7 .dwtag  DW_TAG_variable
      81                    .dwattr $C$DW$7, DW_AT_name("status")
      82                    .dwattr $C$DW$7, DW_AT_TI_symbol_name("status")
      83                    .dwattr $C$DW$7, DW_AT_location[DW_OP_addr status]
      84                    .dwattr $C$DW$7, DW_AT_type(*$C$DW$T$60)
      85                    .dwattr $C$DW$7, DW_AT_external
      86                    .dwattr $C$DW$7, DW_AT_decl_file("C:/Users/MCourson/workspace_v11/MZERO_HB50Board/include/Main
      87                    .dwattr $C$DW$7, DW_AT_decl_line(0x83)
      88                    .dwattr $C$DW$7, DW_AT_decl_column(0x0e)
      89            
      90                    .global main_fuel_flow_GUI
      91 000000               .data
      92                    .align  2
      93                    .elfsym main_fuel_flow_GUI,SYM_SIZE(2)
      94 000000       main_fuel_flow_GUI:
      95 000000 0000          .bits           0,16
      96                                    ; main_fuel_flow_GUI @ 0
      97            
      98            $C$DW$8 .dwtag  DW_TAG_variable
      99                    .dwattr $C$DW$8, DW_AT_name("main_fuel_flow_GUI")
     100                    .dwattr $C$DW$8, DW_AT_TI_symbol_name("main_fuel_flow_GUI")
     101                    .dwattr $C$DW$8, DW_AT_location[DW_OP_addr main_fuel_flow_GUI]
     102                    .dwattr $C$DW$8, DW_AT_type(*$C$DW$T$10)
     103                    .dwattr $C$DW$8, DW_AT_external
     104                    .dwattr $C$DW$8, DW_AT_decl_file("../src/pumps.c")
     105                    .dwattr $C$DW$8, DW_AT_decl_line(0x18)
     106                    .dwattr $C$DW$8, DW_AT_decl_column(0x05)
     107            
     108                    .global FP_Methanol_flow_GUI
     109 000002               .data
     110                    .align  2
MSP430 Assembler PC v21.6.1 Tue Dec 20 13:46:05 2022

Copyright (c) 2003-2018 Texas Instruments Incorporated
pumps.asm                                                            PAGE    3

     111                    .elfsym FP_Methanol_flow_GUI,SYM_SIZE(2)
     112 000002       FP_Methanol_flow_GUI:
     113 000002 0000          .bits           0,16
     114                                    ; FP_Methanol_flow_GUI @ 0
     115            
     116            $C$DW$9 .dwtag  DW_TAG_variable
     117                    .dwattr $C$DW$9, DW_AT_name("FP_Methanol_flow_GUI")
     118                    .dwattr $C$DW$9, DW_AT_TI_symbol_name("FP_Methanol_flow_GUI")
     119                    .dwattr $C$DW$9, DW_AT_location[DW_OP_addr FP_Methanol_flow_GUI]
     120                    .dwattr $C$DW$9, DW_AT_type(*$C$DW$T$10)
     121                    .dwattr $C$DW$9, DW_AT_external
     122                    .dwattr $C$DW$9, DW_AT_decl_file("../src/pumps.c")
     123                    .dwattr $C$DW$9, DW_AT_decl_line(0x19)
     124                    .dwattr $C$DW$9, DW_AT_decl_column(0x05)
     125            
     126                    .global FP_Water_flow_GUI
     127 000004               .data
     128                    .align  2
     129                    .elfsym FP_Water_flow_GUI,SYM_SIZE(2)
     130 000004       FP_Water_flow_GUI:
     131 000004 0000          .bits           0,16
     132                                    ; FP_Water_flow_GUI @ 0
     133            
     134            $C$DW$10        .dwtag  DW_TAG_variable
     135                    .dwattr $C$DW$10, DW_AT_name("FP_Water_flow_GUI")
     136                    .dwattr $C$DW$10, DW_AT_TI_symbol_name("FP_Water_flow_GUI")
     137                    .dwattr $C$DW$10, DW_AT_location[DW_OP_addr FP_Water_flow_GUI]
     138                    .dwattr $C$DW$10, DW_AT_type(*$C$DW$T$10)
     139                    .dwattr $C$DW$10, DW_AT_external
     140                    .dwattr $C$DW$10, DW_AT_decl_file("../src/pumps.c")
     141                    .dwattr $C$DW$10, DW_AT_decl_line(0x1a)
     142                    .dwattr $C$DW$10, DW_AT_decl_column(0x05)
     143            
     144                    .global FC_Burner_Methanol_flow_GUI
     145 000006               .data
     146                    .align  2
     147                    .elfsym FC_Burner_Methanol_flow_GUI,SYM_SIZE(2)
     148 000006       FC_Burner_Methanol_flow_GUI:
     149 000006 0000          .bits           0,16
     150                                    ; FC_Burner_Methanol_flow_GUI @ 0
     151            
     152            $C$DW$11        .dwtag  DW_TAG_variable
     153                    .dwattr $C$DW$11, DW_AT_name("FC_Burner_Methanol_flow_GUI")
     154                    .dwattr $C$DW$11, DW_AT_TI_symbol_name("FC_Burner_Methanol_flow_GUI")
     155                    .dwattr $C$DW$11, DW_AT_location[DW_OP_addr FC_Burner_Methanol_flow_GUI]
     156                    .dwattr $C$DW$11, DW_AT_type(*$C$DW$T$10)
     157                    .dwattr $C$DW$11, DW_AT_external
     158                    .dwattr $C$DW$11, DW_AT_decl_file("../src/pumps.c")
     159                    .dwattr $C$DW$11, DW_AT_decl_line(0x1b)
     160                    .dwattr $C$DW$11, DW_AT_decl_column(0x05)
     161            
     162                    .global Tank_Methanol_flow_GUI
     163 000008               .data
     164                    .align  2
     165                    .elfsym Tank_Methanol_flow_GUI,SYM_SIZE(2)
MSP430 Assembler PC v21.6.1 Tue Dec 20 13:46:05 2022

Copyright (c) 2003-2018 Texas Instruments Incorporated
pumps.asm                                                            PAGE    4

     166 000008       Tank_Methanol_flow_GUI:
     167 000008 0000          .bits           0,16
     168                                    ; Tank_Methanol_flow_GUI @ 0
     169            
     170            $C$DW$12        .dwtag  DW_TAG_variable
     171                    .dwattr $C$DW$12, DW_AT_name("Tank_Methanol_flow_GUI")
     172                    .dwattr $C$DW$12, DW_AT_TI_symbol_name("Tank_Methanol_flow_GUI")
     173                    .dwattr $C$DW$12, DW_AT_location[DW_OP_addr Tank_Methanol_flow_GUI]
     174                    .dwattr $C$DW$12, DW_AT_type(*$C$DW$T$10)
     175                    .dwattr $C$DW$12, DW_AT_external
     176                    .dwattr $C$DW$12, DW_AT_decl_file("../src/pumps.c")
     177                    .dwattr $C$DW$12, DW_AT_decl_line(0x1c)
     178                    .dwattr $C$DW$12, DW_AT_decl_column(0x05)
     179            
     180            $C$DW$13        .dwtag  DW_TAG_variable
     181                    .dwattr $C$DW$13, DW_AT_name("PUMP1_cal")
     182                    .dwattr $C$DW$13, DW_AT_TI_symbol_name("PUMP1_cal")
     183                    .dwattr $C$DW$13, DW_AT_type(*$C$DW$T$16)
     184                    .dwattr $C$DW$13, DW_AT_declaration
     185                    .dwattr $C$DW$13, DW_AT_external
     186                    .dwattr $C$DW$13, DW_AT_decl_file("../src/pumps.c")
     187                    .dwattr $C$DW$13, DW_AT_decl_line(0x29)
     188                    .dwattr $C$DW$13, DW_AT_decl_column(0x0e)
     189            
     190            $C$DW$14        .dwtag  DW_TAG_variable
     191                    .dwattr $C$DW$14, DW_AT_name("PUMP2_cal")
     192                    .dwattr $C$DW$14, DW_AT_TI_symbol_name("PUMP2_cal")
     193                    .dwattr $C$DW$14, DW_AT_type(*$C$DW$T$16)
     194                    .dwattr $C$DW$14, DW_AT_declaration
     195                    .dwattr $C$DW$14, DW_AT_external
     196                    .dwattr $C$DW$14, DW_AT_decl_file("../src/pumps.c")
     197                    .dwattr $C$DW$14, DW_AT_decl_line(0x2a)
     198                    .dwattr $C$DW$14, DW_AT_decl_column(0x0e)
     199            
     200            $C$DW$15        .dwtag  DW_TAG_variable
     201                    .dwattr $C$DW$15, DW_AT_name("PUMP3_cal")
     202                    .dwattr $C$DW$15, DW_AT_TI_symbol_name("PUMP3_cal")
     203                    .dwattr $C$DW$15, DW_AT_type(*$C$DW$T$16)
     204                    .dwattr $C$DW$15, DW_AT_declaration
     205                    .dwattr $C$DW$15, DW_AT_external
     206                    .dwattr $C$DW$15, DW_AT_decl_file("../src/pumps.c")
     207                    .dwattr $C$DW$15, DW_AT_decl_line(0x2b)
     208                    .dwattr $C$DW$15, DW_AT_decl_column(0x0e)
     209            
     210            $C$DW$16        .dwtag  DW_TAG_variable
     211                    .dwattr $C$DW$16, DW_AT_name("PUMP4_cal")
     212                    .dwattr $C$DW$16, DW_AT_TI_symbol_name("PUMP4_cal")
     213                    .dwattr $C$DW$16, DW_AT_type(*$C$DW$T$16)
     214                    .dwattr $C$DW$16, DW_AT_declaration
     215                    .dwattr $C$DW$16, DW_AT_external
     216                    .dwattr $C$DW$16, DW_AT_decl_file("../src/pumps.c")
     217                    .dwattr $C$DW$16, DW_AT_decl_line(0x2c)
     218                    .dwattr $C$DW$16, DW_AT_decl_column(0x0e)
     219            
     220            $C$DW$17        .dwtag  DW_TAG_variable
MSP430 Assembler PC v21.6.1 Tue Dec 20 13:46:05 2022

Copyright (c) 2003-2018 Texas Instruments Incorporated
pumps.asm                                                            PAGE    5

     221                    .dwattr $C$DW$17, DW_AT_name("Ambient_Temperature")
     222                    .dwattr $C$DW$17, DW_AT_TI_symbol_name("Ambient_Temperature")
     223                    .dwattr $C$DW$17, DW_AT_type(*$C$DW$T$16)
     224                    .dwattr $C$DW$17, DW_AT_declaration
     225                    .dwattr $C$DW$17, DW_AT_external
     226                    .dwattr $C$DW$17, DW_AT_decl_file("../src/pumps.c")
     227                    .dwattr $C$DW$17, DW_AT_decl_line(0x30)
     228                    .dwattr $C$DW$17, DW_AT_decl_column(0x0e)
     229            
     230            $C$DW$18        .dwtag  DW_TAG_variable
     231                    .dwattr $C$DW$18, DW_AT_name("system_calibration")
     232                    .dwattr $C$DW$18, DW_AT_TI_symbol_name("system_calibration")
     233                    .dwattr $C$DW$18, DW_AT_type(*$C$DW$T$24)
     234                    .dwattr $C$DW$18, DW_AT_declaration
     235                    .dwattr $C$DW$18, DW_AT_external
     236                    .dwattr $C$DW$18, DW_AT_decl_file("../src/pumps.c")
     237                    .dwattr $C$DW$18, DW_AT_decl_line(0x33)
     238                    .dwattr $C$DW$18, DW_AT_decl_column(0x10)
     239            
     240                    .global FP_Methanol_flow_gph
     241                    .common FP_Methanol_flow_gph,4,2
     242            $C$DW$19        .dwtag  DW_TAG_variable
     243                    .dwattr $C$DW$19, DW_AT_name("FP_Methanol_flow_gph")
     244                    .dwattr $C$DW$19, DW_AT_TI_symbol_name("FP_Methanol_flow_gph")
     245                    .dwattr $C$DW$19, DW_AT_location[DW_OP_addr FP_Methanol_flow_gph]
     246                    .dwattr $C$DW$19, DW_AT_type(*$C$DW$T$16)
     247                    .dwattr $C$DW$19, DW_AT_external
     248                    .dwattr $C$DW$19, DW_AT_decl_file("../src/pumps.c")
     249                    .dwattr $C$DW$19, DW_AT_decl_line(0x37)
     250                    .dwattr $C$DW$19, DW_AT_decl_column(0x07)
     251            
     252                    .global FP_Water_flow_gph
     253                    .common FP_Water_flow_gph,4,2
     254            $C$DW$20        .dwtag  DW_TAG_variable
     255                    .dwattr $C$DW$20, DW_AT_name("FP_Water_flow_gph")
     256                    .dwattr $C$DW$20, DW_AT_TI_symbol_name("FP_Water_flow_gph")
     257                    .dwattr $C$DW$20, DW_AT_location[DW_OP_addr FP_Water_flow_gph]
     258                    .dwattr $C$DW$20, DW_AT_type(*$C$DW$T$16)
     259                    .dwattr $C$DW$20, DW_AT_external
     260                    .dwattr $C$DW$20, DW_AT_decl_file("../src/pumps.c")
     261                    .dwattr $C$DW$20, DW_AT_decl_line(0x38)
     262                    .dwattr $C$DW$20, DW_AT_decl_column(0x07)
     263            
     264                    .global FC_Burner_Methanol_flow_gph
     265                    .common FC_Burner_Methanol_flow_gph,4,2
     266            $C$DW$21        .dwtag  DW_TAG_variable
     267                    .dwattr $C$DW$21, DW_AT_name("FC_Burner_Methanol_flow_gph")
     268                    .dwattr $C$DW$21, DW_AT_TI_symbol_name("FC_Burner_Methanol_flow_gph")
     269                    .dwattr $C$DW$21, DW_AT_location[DW_OP_addr FC_Burner_Methanol_flow_gph]
     270                    .dwattr $C$DW$21, DW_AT_type(*$C$DW$T$16)
     271                    .dwattr $C$DW$21, DW_AT_external
     272                    .dwattr $C$DW$21, DW_AT_decl_file("../src/pumps.c")
     273                    .dwattr $C$DW$21, DW_AT_decl_line(0x39)
     274                    .dwattr $C$DW$21, DW_AT_decl_column(0x07)
     275            
MSP430 Assembler PC v21.6.1 Tue Dec 20 13:46:05 2022

Copyright (c) 2003-2018 Texas Instruments Incorporated
pumps.asm                                                            PAGE    6

     276                    .global Tank_Methanol_flow_gph
     277                    .common Tank_Methanol_flow_gph,4,2
     278            $C$DW$22        .dwtag  DW_TAG_variable
     279                    .dwattr $C$DW$22, DW_AT_name("Tank_Methanol_flow_gph")
     280                    .dwattr $C$DW$22, DW_AT_TI_symbol_name("Tank_Methanol_flow_gph")
     281                    .dwattr $C$DW$22, DW_AT_location[DW_OP_addr Tank_Methanol_flow_gph]
     282                    .dwattr $C$DW$22, DW_AT_type(*$C$DW$T$16)
     283                    .dwattr $C$DW$22, DW_AT_external
     284                    .dwattr $C$DW$22, DW_AT_decl_file("../src/pumps.c")
     285                    .dwattr $C$DW$22, DW_AT_decl_line(0x3a)
     286                    .dwattr $C$DW$22, DW_AT_decl_column(0x07)
     287            
     288                    .global sum_dispensed
     289                    .common sum_dispensed,4,2
     290            $C$DW$23        .dwtag  DW_TAG_variable
     291                    .dwattr $C$DW$23, DW_AT_name("sum_dispensed")
     292                    .dwattr $C$DW$23, DW_AT_TI_symbol_name("sum_dispensed")
     293                    .dwattr $C$DW$23, DW_AT_location[DW_OP_addr sum_dispensed]
     294                    .dwattr $C$DW$23, DW_AT_type(*$C$DW$T$16)
     295                    .dwattr $C$DW$23, DW_AT_external
     296                    .dwattr $C$DW$23, DW_AT_decl_file("../src/pumps.c")
     297                    .dwattr $C$DW$23, DW_AT_decl_line(0x3b)
     298                    .dwattr $C$DW$23, DW_AT_decl_column(0x07)
     299            
     300                    .global FC_Burner_Methanol_flow
     301 00000a               .data
     302                    .align  2
     303                    .elfsym FC_Burner_Methanol_flow,SYM_SIZE(4)
     304 00000a       FC_Burner_Methanol_flow:
     305 00000a 0000          .float          $strtod("0x0p+0")               ; FC_Burner_Methanol_flow @ 0
         00000c 0000 
     306            
     307            $C$DW$24        .dwtag  DW_TAG_variable
     308                    .dwattr $C$DW$24, DW_AT_name("FC_Burner_Methanol_flow")
     309                    .dwattr $C$DW$24, DW_AT_TI_symbol_name("FC_Burner_Methanol_flow")
     310                    .dwattr $C$DW$24, DW_AT_location[DW_OP_addr FC_Burner_Methanol_flow]
     311                    .dwattr $C$DW$24, DW_AT_type(*$C$DW$T$16)
     312                    .dwattr $C$DW$24, DW_AT_external
     313                    .dwattr $C$DW$24, DW_AT_decl_file("../src/pumps.c")
     314                    .dwattr $C$DW$24, DW_AT_decl_line(0x3f)
     315                    .dwattr $C$DW$24, DW_AT_decl_column(0x07)
     316            
     317                    .global Tank_Methanol_flow
     318                    .common Tank_Methanol_flow,4,2
     319            $C$DW$25        .dwtag  DW_TAG_variable
     320                    .dwattr $C$DW$25, DW_AT_name("Tank_Methanol_flow")
     321                    .dwattr $C$DW$25, DW_AT_TI_symbol_name("Tank_Methanol_flow")
     322                    .dwattr $C$DW$25, DW_AT_location[DW_OP_addr Tank_Methanol_flow]
     323                    .dwattr $C$DW$25, DW_AT_type(*$C$DW$T$16)
     324                    .dwattr $C$DW$25, DW_AT_external
     325                    .dwattr $C$DW$25, DW_AT_decl_file("../src/pumps.c")
     326                    .dwattr $C$DW$25, DW_AT_decl_line(0x40)
     327                    .dwattr $C$DW$25, DW_AT_decl_column(0x07)
     328            
     329                    .global secondary_PumpDrv
MSP430 Assembler PC v21.6.1 Tue Dec 20 13:46:05 2022

Copyright (c) 2003-2018 Texas Instruments Incorporated
pumps.asm                                                            PAGE    7

     330                    .common secondary_PumpDrv,2,2
     331            $C$DW$26        .dwtag  DW_TAG_variable
     332                    .dwattr $C$DW$26, DW_AT_name("secondary_PumpDrv")
     333                    .dwattr $C$DW$26, DW_AT_TI_symbol_name("secondary_PumpDrv")
     334                    .dwattr $C$DW$26, DW_AT_location[DW_OP_addr secondary_PumpDrv]
     335                    .dwattr $C$DW$26, DW_AT_type(*$C$DW$T$10)
     336                    .dwattr $C$DW$26, DW_AT_external
     337                    .dwattr $C$DW$26, DW_AT_decl_file("../src/pumps.c")
     338                    .dwattr $C$DW$26, DW_AT_decl_line(0x41)
     339                    .dwattr $C$DW$26, DW_AT_decl_column(0x05)
     340            
     341                    .global TB0CCR1
     342                    .common TB0CCR1,2,2
     343            $C$DW$27        .dwtag  DW_TAG_variable
     344                    .dwattr $C$DW$27, DW_AT_name("TB0CCR1")
     345                    .dwattr $C$DW$27, DW_AT_TI_symbol_name("TB0CCR1")
     346                    .dwattr $C$DW$27, DW_AT_location[DW_OP_addr TB0CCR1]
     347                    .dwattr $C$DW$27, DW_AT_type(*$C$DW$T$122)
     348                    .dwattr $C$DW$27, DW_AT_external
     349                    .dwattr $C$DW$27, DW_AT_decl_file("../src/pumps.c")
     350                    .dwattr $C$DW$27, DW_AT_decl_line(0x42)
     351                    .dwattr $C$DW$27, DW_AT_decl_column(0x13)
     352            
     353            $C$DW$28        .dwtag  DW_TAG_variable
     354                    .dwattr $C$DW$28, DW_AT_name("FP_Methanol_flow")
     355                    .dwattr $C$DW$28, DW_AT_TI_symbol_name("FP_Methanol_flow")
     356                    .dwattr $C$DW$28, DW_AT_type(*$C$DW$T$16)
     357                    .dwattr $C$DW$28, DW_AT_declaration
     358                    .dwattr $C$DW$28, DW_AT_external
     359                    .dwattr $C$DW$28, DW_AT_decl_file("../src/pumps.c")
     360                    .dwattr $C$DW$28, DW_AT_decl_line(0x43)
     361                    .dwattr $C$DW$28, DW_AT_decl_column(0x0e)
     362            
     363            $C$DW$29        .dwtag  DW_TAG_variable
     364                    .dwattr $C$DW$29, DW_AT_name("FP_Water_flow")
     365                    .dwattr $C$DW$29, DW_AT_TI_symbol_name("FP_Water_flow")
     366                    .dwattr $C$DW$29, DW_AT_type(*$C$DW$T$16)
     367                    .dwattr $C$DW$29, DW_AT_declaration
     368                    .dwattr $C$DW$29, DW_AT_external
     369                    .dwattr $C$DW$29, DW_AT_decl_file("../src/pumps.c")
     370                    .dwattr $C$DW$29, DW_AT_decl_line(0x44)
     371                    .dwattr $C$DW$29, DW_AT_decl_column(0x0e)
     372            
     373                    .global sensordelay
     374 00000e               .data
     375                    .align  2
     376                    .elfsym sensordelay,SYM_SIZE(2)
     377 00000e       sensordelay:
     378 00000e 0000          .bits           0,16
     379                                    ; sensordelay @ 0
     380            
     381            $C$DW$30        .dwtag  DW_TAG_variable
     382                    .dwattr $C$DW$30, DW_AT_name("sensordelay")
     383                    .dwattr $C$DW$30, DW_AT_TI_symbol_name("sensordelay")
     384                    .dwattr $C$DW$30, DW_AT_location[DW_OP_addr sensordelay]
MSP430 Assembler PC v21.6.1 Tue Dec 20 13:46:05 2022

Copyright (c) 2003-2018 Texas Instruments Incorporated
pumps.asm                                                            PAGE    8

     385                    .dwattr $C$DW$30, DW_AT_type(*$C$DW$T$10)
     386                    .dwattr $C$DW$30, DW_AT_external
     387                    .dwattr $C$DW$30, DW_AT_decl_file("../src/pumps.c")
     388                    .dwattr $C$DW$30, DW_AT_decl_line(0x46)
     389                    .dwattr $C$DW$30, DW_AT_decl_column(0x05)
     390            
     391                    .global Fill_Tank_Timer
     392 000010               .data
     393                    .align  2
     394                    .elfsym Fill_Tank_Timer,SYM_SIZE(2)
     395 000010       Fill_Tank_Timer:
     396 000010 0000          .bits           0,16
     397                                    ; Fill_Tank_Timer @ 0
     398            
     399            $C$DW$31        .dwtag  DW_TAG_variable
     400                    .dwattr $C$DW$31, DW_AT_name("Fill_Tank_Timer")
     401                    .dwattr $C$DW$31, DW_AT_TI_symbol_name("Fill_Tank_Timer")
     402                    .dwattr $C$DW$31, DW_AT_location[DW_OP_addr Fill_Tank_Timer]
     403                    .dwattr $C$DW$31, DW_AT_type(*$C$DW$T$11)
     404                    .dwattr $C$DW$31, DW_AT_external
     405                    .dwattr $C$DW$31, DW_AT_decl_file("../src/pumps.c")
     406                    .dwattr $C$DW$31, DW_AT_decl_line(0x47)
     407                    .dwattr $C$DW$31, DW_AT_decl_column(0x0e)
     408            
     409                    .global Fill_Tank_Disabled_Timer
     410 000012               .data
     411                    .align  2
     412                    .elfsym Fill_Tank_Disabled_Timer,SYM_SIZE(4)
     413 000012       Fill_Tank_Disabled_Timer:
     414 000012 0000          .bits           0,32
         000014 0000 
     415                                    ; Fill_Tank_Disabled_Timer @ 0
     416            
     417            $C$DW$32        .dwtag  DW_TAG_variable
     418                    .dwattr $C$DW$32, DW_AT_name("Fill_Tank_Disabled_Timer")
     419                    .dwattr $C$DW$32, DW_AT_TI_symbol_name("Fill_Tank_Disabled_Timer")
     420                    .dwattr $C$DW$32, DW_AT_location[DW_OP_addr Fill_Tank_Disabled_Timer]
     421                    .dwattr $C$DW$32, DW_AT_type(*$C$DW$T$13)
     422                    .dwattr $C$DW$32, DW_AT_external
     423                    .dwattr $C$DW$32, DW_AT_decl_file("../src/pumps.c")
     424                    .dwattr $C$DW$32, DW_AT_decl_line(0x48)
     425                    .dwattr $C$DW$32, DW_AT_decl_column(0x0f)
     426            
     427                    .global Fill_Tank_Error_Count
     428 000016               .data
     429                    .align  2
     430                    .elfsym Fill_Tank_Error_Count,SYM_SIZE(2)
     431 000016       Fill_Tank_Error_Count:
     432 000016 0000          .bits           0,16
     433                                    ; Fill_Tank_Error_Count @ 0
     434            
     435            $C$DW$33        .dwtag  DW_TAG_variable
     436                    .dwattr $C$DW$33, DW_AT_name("Fill_Tank_Error_Count")
     437                    .dwattr $C$DW$33, DW_AT_TI_symbol_name("Fill_Tank_Error_Count")
     438                    .dwattr $C$DW$33, DW_AT_location[DW_OP_addr Fill_Tank_Error_Count]
MSP430 Assembler PC v21.6.1 Tue Dec 20 13:46:05 2022

Copyright (c) 2003-2018 Texas Instruments Incorporated
pumps.asm                                                            PAGE    9

     439                    .dwattr $C$DW$33, DW_AT_type(*$C$DW$T$10)
     440                    .dwattr $C$DW$33, DW_AT_external
     441                    .dwattr $C$DW$33, DW_AT_decl_file("../src/pumps.c")
     442                    .dwattr $C$DW$33, DW_AT_decl_line(0x49)
     443                    .dwattr $C$DW$33, DW_AT_decl_column(0x05)
     444            
     445                    .global Sensors_Working
     446 000018               .data
     447                    .align  1
     448                    .elfsym Sensors_Working,SYM_SIZE(1)
     449 000018       Sensors_Working:
     450 000018 0001          .bits           0x1,8
     451                                    ; Sensors_Working @ 0
     452            
     453            $C$DW$34        .dwtag  DW_TAG_variable
     454                    .dwattr $C$DW$34, DW_AT_name("Sensors_Working")
     455                    .dwattr $C$DW$34, DW_AT_TI_symbol_name("Sensors_Working")
     456                    .dwattr $C$DW$34, DW_AT_location[DW_OP_addr Sensors_Working]
     457                    .dwattr $C$DW$34, DW_AT_type(*$C$DW$T$24)
     458                    .dwattr $C$DW$34, DW_AT_external
     459                    .dwattr $C$DW$34, DW_AT_decl_file("../src/pumps.c")
     460                    .dwattr $C$DW$34, DW_AT_decl_line(0x4a)
     461                    .dwattr $C$DW$34, DW_AT_decl_column(0x09)
     462            
     463                    .global Tank_Empty_Count
     464 000019               .data
     465                    .align  1
     466                    .elfsym Tank_Empty_Count,SYM_SIZE(1)
     467 000019       Tank_Empty_Count:
     468 000018 0001          .bits           0,8
     469                                    ; Tank_Empty_Count @ 0
     470            
     471            $C$DW$35        .dwtag  DW_TAG_variable
     472                    .dwattr $C$DW$35, DW_AT_name("Tank_Empty_Count")
     473                    .dwattr $C$DW$35, DW_AT_TI_symbol_name("Tank_Empty_Count")
     474                    .dwattr $C$DW$35, DW_AT_location[DW_OP_addr Tank_Empty_Count]
     475                    .dwattr $C$DW$35, DW_AT_type(*$C$DW$T$24)
     476                    .dwattr $C$DW$35, DW_AT_external
     477                    .dwattr $C$DW$35, DW_AT_decl_file("../src/pumps.c")
     478                    .dwattr $C$DW$35, DW_AT_decl_line(0x4b)
     479                    .dwattr $C$DW$35, DW_AT_decl_column(0x09)
     480            
     481                    .global Tank_Full_Count
     482 00001a               .data
     483                    .align  1
     484                    .elfsym Tank_Full_Count,SYM_SIZE(1)
     485 00001a       Tank_Full_Count:
     486 00001a 0000          .bits           0,8
     487                                    ; Tank_Full_Count @ 0
     488            
     489            $C$DW$36        .dwtag  DW_TAG_variable
     490                    .dwattr $C$DW$36, DW_AT_name("Tank_Full_Count")
     491                    .dwattr $C$DW$36, DW_AT_TI_symbol_name("Tank_Full_Count")
     492                    .dwattr $C$DW$36, DW_AT_location[DW_OP_addr Tank_Full_Count]
     493                    .dwattr $C$DW$36, DW_AT_type(*$C$DW$T$24)
MSP430 Assembler PC v21.6.1 Tue Dec 20 13:46:05 2022

Copyright (c) 2003-2018 Texas Instruments Incorporated
pumps.asm                                                            PAGE   10

     494                    .dwattr $C$DW$36, DW_AT_external
     495                    .dwattr $C$DW$36, DW_AT_decl_file("../src/pumps.c")
     496                    .dwattr $C$DW$36, DW_AT_decl_line(0x4c)
     497                    .dwattr $C$DW$36, DW_AT_decl_column(0x09)
     498            
     499                    .global Sensor_Error_Count
     500 00001b               .data
     501                    .align  1
     502                    .elfsym Sensor_Error_Count,SYM_SIZE(1)
     503 00001b       Sensor_Error_Count:
     504 00001a 0000          .bits           0,8
     505                                    ; Sensor_Error_Count @ 0
     506            
     507            $C$DW$37        .dwtag  DW_TAG_variable
     508                    .dwattr $C$DW$37, DW_AT_name("Sensor_Error_Count")
     509                    .dwattr $C$DW$37, DW_AT_TI_symbol_name("Sensor_Error_Count")
     510                    .dwattr $C$DW$37, DW_AT_location[DW_OP_addr Sensor_Error_Count]
     511                    .dwattr $C$DW$37, DW_AT_type(*$C$DW$T$24)
     512                    .dwattr $C$DW$37, DW_AT_external
     513                    .dwattr $C$DW$37, DW_AT_decl_file("../src/pumps.c")
     514                    .dwattr $C$DW$37, DW_AT_decl_line(0x4d)
     515                    .dwattr $C$DW$37, DW_AT_decl_column(0x09)
     516            
     517                    .global First_Turn_On
     518 00001c               .data
     519                    .align  1
     520                    .elfsym First_Turn_On,SYM_SIZE(1)
     521 00001c       First_Turn_On:
     522 00001c 0001          .bits           0x1,8
     523                                    ; First_Turn_On @ 0
     524            
     525            $C$DW$38        .dwtag  DW_TAG_variable
     526                    .dwattr $C$DW$38, DW_AT_name("First_Turn_On")
     527                    .dwattr $C$DW$38, DW_AT_TI_symbol_name("First_Turn_On")
     528                    .dwattr $C$DW$38, DW_AT_location[DW_OP_addr First_Turn_On]
     529                    .dwattr $C$DW$38, DW_AT_type(*$C$DW$T$24)
     530                    .dwattr $C$DW$38, DW_AT_external
     531                    .dwattr $C$DW$38, DW_AT_decl_file("../src/pumps.c")
     532                    .dwattr $C$DW$38, DW_AT_decl_line(0x4e)
     533                    .dwattr $C$DW$38, DW_AT_decl_column(0x09)
     534            
     535                    .global off_time_counter1
     536 00001d               .data
     537                    .align  2
     538                    .elfsym off_time_counter1,SYM_SIZE(2)
     539 00001e       off_time_counter1:
     540 00001e 0000          .bits           0,16
     541                                    ; off_time_counter1 @ 0
     542            
     543            $C$DW$39        .dwtag  DW_TAG_variable
     544                    .dwattr $C$DW$39, DW_AT_name("off_time_counter1")
     545                    .dwattr $C$DW$39, DW_AT_TI_symbol_name("off_time_counter1")
     546                    .dwattr $C$DW$39, DW_AT_location[DW_OP_addr off_time_counter1]
     547                    .dwattr $C$DW$39, DW_AT_type(*$C$DW$T$10)
     548                    .dwattr $C$DW$39, DW_AT_external
MSP430 Assembler PC v21.6.1 Tue Dec 20 13:46:05 2022

Copyright (c) 2003-2018 Texas Instruments Incorporated
pumps.asm                                                            PAGE   11

     549                    .dwattr $C$DW$39, DW_AT_decl_file("../src/pumps.c")
     550                    .dwattr $C$DW$39, DW_AT_decl_line(0x54)
     551                    .dwattr $C$DW$39, DW_AT_decl_column(0x05)
     552            
     553                    .global off_time_1
     554 000020               .data
     555                    .align  2
     556                    .elfsym off_time_1,SYM_SIZE(2)
     557 000020       off_time_1:
     558 000020 0000          .bits           0,16
     559                                    ; off_time_1 @ 0
     560            
     561            $C$DW$40        .dwtag  DW_TAG_variable
     562                    .dwattr $C$DW$40, DW_AT_name("off_time_1")
     563                    .dwattr $C$DW$40, DW_AT_TI_symbol_name("off_time_1")
     564                    .dwattr $C$DW$40, DW_AT_location[DW_OP_addr off_time_1]
     565                    .dwattr $C$DW$40, DW_AT_type(*$C$DW$T$10)
     566                    .dwattr $C$DW$40, DW_AT_external
     567                    .dwattr $C$DW$40, DW_AT_decl_file("../src/pumps.c")
     568                    .dwattr $C$DW$40, DW_AT_decl_line(0x55)
     569                    .dwattr $C$DW$40, DW_AT_decl_column(0x05)
     570            
     571                    .global pulse_time_1
     572 000022               .data
     573                    .align  2
     574                    .elfsym pulse_time_1,SYM_SIZE(2)
     575 000022       pulse_time_1:
     576 000022 0000          .bits           0,16
     577                                    ; pulse_time_1 @ 0
     578            
     579            $C$DW$41        .dwtag  DW_TAG_variable
     580                    .dwattr $C$DW$41, DW_AT_name("pulse_time_1")
     581                    .dwattr $C$DW$41, DW_AT_TI_symbol_name("pulse_time_1")
     582                    .dwattr $C$DW$41, DW_AT_location[DW_OP_addr pulse_time_1]
     583                    .dwattr $C$DW$41, DW_AT_type(*$C$DW$T$10)
     584                    .dwattr $C$DW$41, DW_AT_external
     585                    .dwattr $C$DW$41, DW_AT_decl_file("../src/pumps.c")
     586                    .dwattr $C$DW$41, DW_AT_decl_line(0x56)
     587                    .dwattr $C$DW$41, DW_AT_decl_column(0x05)
     588            
     589                    .global pulse_count_1
     590 000024               .data
     591                    .align  2
     592                    .elfsym pulse_count_1,SYM_SIZE(2)
     593 000024       pulse_count_1:
     594 000024 0000          .bits           0,16
     595                                    ; pulse_count_1 @ 0
     596            
     597            $C$DW$42        .dwtag  DW_TAG_variable
     598                    .dwattr $C$DW$42, DW_AT_name("pulse_count_1")
     599                    .dwattr $C$DW$42, DW_AT_TI_symbol_name("pulse_count_1")
     600                    .dwattr $C$DW$42, DW_AT_location[DW_OP_addr pulse_count_1]
     601                    .dwattr $C$DW$42, DW_AT_type(*$C$DW$T$10)
     602                    .dwattr $C$DW$42, DW_AT_external
     603                    .dwattr $C$DW$42, DW_AT_decl_file("../src/pumps.c")
MSP430 Assembler PC v21.6.1 Tue Dec 20 13:46:05 2022

Copyright (c) 2003-2018 Texas Instruments Incorporated
pumps.asm                                                            PAGE   12

     604                    .dwattr $C$DW$42, DW_AT_decl_line(0x57)
     605                    .dwattr $C$DW$42, DW_AT_decl_column(0x05)
     606            
     607                    .global on_time_counter1
     608 000026               .data
     609                    .align  2
     610                    .elfsym on_time_counter1,SYM_SIZE(2)
     611 000026       on_time_counter1:
     612 000026 0000          .bits           0,16
     613                                    ; on_time_counter1 @ 0
     614            
     615            $C$DW$43        .dwtag  DW_TAG_variable
     616                    .dwattr $C$DW$43, DW_AT_name("on_time_counter1")
     617                    .dwattr $C$DW$43, DW_AT_TI_symbol_name("on_time_counter1")
     618                    .dwattr $C$DW$43, DW_AT_location[DW_OP_addr on_time_counter1]
     619                    .dwattr $C$DW$43, DW_AT_type(*$C$DW$T$10)
     620                    .dwattr $C$DW$43, DW_AT_external
     621                    .dwattr $C$DW$43, DW_AT_decl_file("../src/pumps.c")
     622                    .dwattr $C$DW$43, DW_AT_decl_line(0x58)
     623                    .dwattr $C$DW$43, DW_AT_decl_column(0x05)
     624            
     625                    .global off_time_counter2
     626 000028               .data
     627                    .align  2
     628                    .elfsym off_time_counter2,SYM_SIZE(2)
     629 000028       off_time_counter2:
     630 000028 0000          .bits           0,16
     631                                    ; off_time_counter2 @ 0
     632            
     633            $C$DW$44        .dwtag  DW_TAG_variable
     634                    .dwattr $C$DW$44, DW_AT_name("off_time_counter2")
     635                    .dwattr $C$DW$44, DW_AT_TI_symbol_name("off_time_counter2")
     636                    .dwattr $C$DW$44, DW_AT_location[DW_OP_addr off_time_counter2]
     637                    .dwattr $C$DW$44, DW_AT_type(*$C$DW$T$10)
     638                    .dwattr $C$DW$44, DW_AT_external
     639                    .dwattr $C$DW$44, DW_AT_decl_file("../src/pumps.c")
     640                    .dwattr $C$DW$44, DW_AT_decl_line(0x5a)
     641                    .dwattr $C$DW$44, DW_AT_decl_column(0x05)
     642            
     643                    .global off_time_2
     644 00002a               .data
     645                    .align  2
     646                    .elfsym off_time_2,SYM_SIZE(2)
     647 00002a       off_time_2:
     648 00002a 0000          .bits           0,16
     649                                    ; off_time_2 @ 0
     650            
     651            $C$DW$45        .dwtag  DW_TAG_variable
     652                    .dwattr $C$DW$45, DW_AT_name("off_time_2")
     653                    .dwattr $C$DW$45, DW_AT_TI_symbol_name("off_time_2")
     654                    .dwattr $C$DW$45, DW_AT_location[DW_OP_addr off_time_2]
     655                    .dwattr $C$DW$45, DW_AT_type(*$C$DW$T$10)
     656                    .dwattr $C$DW$45, DW_AT_external
     657                    .dwattr $C$DW$45, DW_AT_decl_file("../src/pumps.c")
     658                    .dwattr $C$DW$45, DW_AT_decl_line(0x5b)
MSP430 Assembler PC v21.6.1 Tue Dec 20 13:46:05 2022

Copyright (c) 2003-2018 Texas Instruments Incorporated
pumps.asm                                                            PAGE   13

     659                    .dwattr $C$DW$45, DW_AT_decl_column(0x05)
     660            
     661                    .global pulse_time_2
     662 00002c               .data
     663                    .align  2
     664                    .elfsym pulse_time_2,SYM_SIZE(2)
     665 00002c       pulse_time_2:
     666 00002c 0000          .bits           0,16
     667                                    ; pulse_time_2 @ 0
     668            
     669            $C$DW$46        .dwtag  DW_TAG_variable
     670                    .dwattr $C$DW$46, DW_AT_name("pulse_time_2")
     671                    .dwattr $C$DW$46, DW_AT_TI_symbol_name("pulse_time_2")
     672                    .dwattr $C$DW$46, DW_AT_location[DW_OP_addr pulse_time_2]
     673                    .dwattr $C$DW$46, DW_AT_type(*$C$DW$T$10)
     674                    .dwattr $C$DW$46, DW_AT_external
     675                    .dwattr $C$DW$46, DW_AT_decl_file("../src/pumps.c")
     676                    .dwattr $C$DW$46, DW_AT_decl_line(0x5c)
     677                    .dwattr $C$DW$46, DW_AT_decl_column(0x05)
     678            
     679                    .global pulse_count_2
     680 00002e               .data
     681                    .align  2
     682                    .elfsym pulse_count_2,SYM_SIZE(2)
     683 00002e       pulse_count_2:
     684 00002e 0000          .bits           0,16
     685                                    ; pulse_count_2 @ 0
     686            
     687            $C$DW$47        .dwtag  DW_TAG_variable
     688                    .dwattr $C$DW$47, DW_AT_name("pulse_count_2")
     689                    .dwattr $C$DW$47, DW_AT_TI_symbol_name("pulse_count_2")
     690                    .dwattr $C$DW$47, DW_AT_location[DW_OP_addr pulse_count_2]
     691                    .dwattr $C$DW$47, DW_AT_type(*$C$DW$T$10)
     692                    .dwattr $C$DW$47, DW_AT_external
     693                    .dwattr $C$DW$47, DW_AT_decl_file("../src/pumps.c")
     694                    .dwattr $C$DW$47, DW_AT_decl_line(0x5d)
     695                    .dwattr $C$DW$47, DW_AT_decl_column(0x05)
     696            
     697                    .global on_time_counter2
     698 000030               .data
     699                    .align  2
     700                    .elfsym on_time_counter2,SYM_SIZE(2)
     701 000030       on_time_counter2:
     702 000030 0000          .bits           0,16
     703                                    ; on_time_counter2 @ 0
     704            
     705            $C$DW$48        .dwtag  DW_TAG_variable
     706                    .dwattr $C$DW$48, DW_AT_name("on_time_counter2")
     707                    .dwattr $C$DW$48, DW_AT_TI_symbol_name("on_time_counter2")
     708                    .dwattr $C$DW$48, DW_AT_location[DW_OP_addr on_time_counter2]
     709                    .dwattr $C$DW$48, DW_AT_type(*$C$DW$T$10)
     710                    .dwattr $C$DW$48, DW_AT_external
     711                    .dwattr $C$DW$48, DW_AT_decl_file("../src/pumps.c")
     712                    .dwattr $C$DW$48, DW_AT_decl_line(0x5e)
     713                    .dwattr $C$DW$48, DW_AT_decl_column(0x05)
MSP430 Assembler PC v21.6.1 Tue Dec 20 13:46:05 2022

Copyright (c) 2003-2018 Texas Instruments Incorporated
pumps.asm                                                            PAGE   14

     714            
     715                    .global off_time_counter3
     716 000032               .data
     717                    .align  2
     718                    .elfsym off_time_counter3,SYM_SIZE(2)
     719 000032       off_time_counter3:
     720 000032 0000          .bits           0,16
     721                                    ; off_time_counter3 @ 0
     722            
     723            $C$DW$49        .dwtag  DW_TAG_variable
     724                    .dwattr $C$DW$49, DW_AT_name("off_time_counter3")
     725                    .dwattr $C$DW$49, DW_AT_TI_symbol_name("off_time_counter3")
     726                    .dwattr $C$DW$49, DW_AT_location[DW_OP_addr off_time_counter3]
     727                    .dwattr $C$DW$49, DW_AT_type(*$C$DW$T$10)
     728                    .dwattr $C$DW$49, DW_AT_external
     729                    .dwattr $C$DW$49, DW_AT_decl_file("../src/pumps.c")
     730                    .dwattr $C$DW$49, DW_AT_decl_line(0x60)
     731                    .dwattr $C$DW$49, DW_AT_decl_column(0x05)
     732            
     733                    .global off_time_3
     734 000034               .data
     735                    .align  2
     736                    .elfsym off_time_3,SYM_SIZE(2)
     737 000034       off_time_3:
     738 000034 0000          .bits           0,16
     739                                    ; off_time_3 @ 0
     740            
     741            $C$DW$50        .dwtag  DW_TAG_variable
     742                    .dwattr $C$DW$50, DW_AT_name("off_time_3")
     743                    .dwattr $C$DW$50, DW_AT_TI_symbol_name("off_time_3")
     744                    .dwattr $C$DW$50, DW_AT_location[DW_OP_addr off_time_3]
     745                    .dwattr $C$DW$50, DW_AT_type(*$C$DW$T$10)
     746                    .dwattr $C$DW$50, DW_AT_external
     747                    .dwattr $C$DW$50, DW_AT_decl_file("../src/pumps.c")
     748                    .dwattr $C$DW$50, DW_AT_decl_line(0x61)
     749                    .dwattr $C$DW$50, DW_AT_decl_column(0x05)
     750            
     751                    .global pulse_time_3
     752 000036               .data
     753                    .align  2
     754                    .elfsym pulse_time_3,SYM_SIZE(2)
     755 000036       pulse_time_3:
     756 000036 0000          .bits           0,16
     757                                    ; pulse_time_3 @ 0
     758            
     759            $C$DW$51        .dwtag  DW_TAG_variable
     760                    .dwattr $C$DW$51, DW_AT_name("pulse_time_3")
     761                    .dwattr $C$DW$51, DW_AT_TI_symbol_name("pulse_time_3")
     762                    .dwattr $C$DW$51, DW_AT_location[DW_OP_addr pulse_time_3]
     763                    .dwattr $C$DW$51, DW_AT_type(*$C$DW$T$10)
     764                    .dwattr $C$DW$51, DW_AT_external
     765                    .dwattr $C$DW$51, DW_AT_decl_file("../src/pumps.c")
     766                    .dwattr $C$DW$51, DW_AT_decl_line(0x62)
     767                    .dwattr $C$DW$51, DW_AT_decl_column(0x05)
     768            
MSP430 Assembler PC v21.6.1 Tue Dec 20 13:46:05 2022

Copyright (c) 2003-2018 Texas Instruments Incorporated
pumps.asm                                                            PAGE   15

     769                    .global pulse_count_3
     770 000038               .data
     771                    .align  2
     772                    .elfsym pulse_count_3,SYM_SIZE(2)
     773 000038       pulse_count_3:
     774 000038 0000          .bits           0,16
     775                                    ; pulse_count_3 @ 0
     776            
     777            $C$DW$52        .dwtag  DW_TAG_variable
     778                    .dwattr $C$DW$52, DW_AT_name("pulse_count_3")
     779                    .dwattr $C$DW$52, DW_AT_TI_symbol_name("pulse_count_3")
     780                    .dwattr $C$DW$52, DW_AT_location[DW_OP_addr pulse_count_3]
     781                    .dwattr $C$DW$52, DW_AT_type(*$C$DW$T$10)
     782                    .dwattr $C$DW$52, DW_AT_external
     783                    .dwattr $C$DW$52, DW_AT_decl_file("../src/pumps.c")
     784                    .dwattr $C$DW$52, DW_AT_decl_line(0x63)
     785                    .dwattr $C$DW$52, DW_AT_decl_column(0x05)
     786            
     787                    .global on_time_counter3
     788 00003a               .data
     789                    .align  2
     790                    .elfsym on_time_counter3,SYM_SIZE(2)
     791 00003a       on_time_counter3:
     792 00003a 0000          .bits           0,16
     793                                    ; on_time_counter3 @ 0
     794            
     795            $C$DW$53        .dwtag  DW_TAG_variable
     796                    .dwattr $C$DW$53, DW_AT_name("on_time_counter3")
     797                    .dwattr $C$DW$53, DW_AT_TI_symbol_name("on_time_counter3")
     798                    .dwattr $C$DW$53, DW_AT_location[DW_OP_addr on_time_counter3]
     799                    .dwattr $C$DW$53, DW_AT_type(*$C$DW$T$10)
     800                    .dwattr $C$DW$53, DW_AT_external
     801                    .dwattr $C$DW$53, DW_AT_decl_file("../src/pumps.c")
     802                    .dwattr $C$DW$53, DW_AT_decl_line(0x64)
     803                    .dwattr $C$DW$53, DW_AT_decl_column(0x05)
     804            
     805                    .global off_time_counter4
     806 00003c               .data
     807                    .align  2
     808                    .elfsym off_time_counter4,SYM_SIZE(2)
     809 00003c       off_time_counter4:
     810 00003c 0000          .bits           0,16
     811                                    ; off_time_counter4 @ 0
     812            
     813            $C$DW$54        .dwtag  DW_TAG_variable
     814                    .dwattr $C$DW$54, DW_AT_name("off_time_counter4")
     815                    .dwattr $C$DW$54, DW_AT_TI_symbol_name("off_time_counter4")
     816                    .dwattr $C$DW$54, DW_AT_location[DW_OP_addr off_time_counter4]
     817                    .dwattr $C$DW$54, DW_AT_type(*$C$DW$T$10)
     818                    .dwattr $C$DW$54, DW_AT_external
     819                    .dwattr $C$DW$54, DW_AT_decl_file("../src/pumps.c")
     820                    .dwattr $C$DW$54, DW_AT_decl_line(0x66)
     821                    .dwattr $C$DW$54, DW_AT_decl_column(0x05)
     822            
     823                    .global off_time_4
MSP430 Assembler PC v21.6.1 Tue Dec 20 13:46:05 2022

Copyright (c) 2003-2018 Texas Instruments Incorporated
pumps.asm                                                            PAGE   16

     824 00003e               .data
     825                    .align  2
     826                    .elfsym off_time_4,SYM_SIZE(2)
     827 00003e       off_time_4:
     828 00003e 0000          .bits           0,16
     829                                    ; off_time_4 @ 0
     830            
     831            $C$DW$55        .dwtag  DW_TAG_variable
     832                    .dwattr $C$DW$55, DW_AT_name("off_time_4")
     833                    .dwattr $C$DW$55, DW_AT_TI_symbol_name("off_time_4")
     834                    .dwattr $C$DW$55, DW_AT_location[DW_OP_addr off_time_4]
     835                    .dwattr $C$DW$55, DW_AT_type(*$C$DW$T$10)
     836                    .dwattr $C$DW$55, DW_AT_external
     837                    .dwattr $C$DW$55, DW_AT_decl_file("../src/pumps.c")
     838                    .dwattr $C$DW$55, DW_AT_decl_line(0x67)
     839                    .dwattr $C$DW$55, DW_AT_decl_column(0x05)
     840            
     841                    .global pulse_time_4
     842 000040               .data
     843                    .align  2
     844                    .elfsym pulse_time_4,SYM_SIZE(2)
     845 000040       pulse_time_4:
     846 000040 0000          .bits           0,16
     847                                    ; pulse_time_4 @ 0
     848            
     849            $C$DW$56        .dwtag  DW_TAG_variable
     850                    .dwattr $C$DW$56, DW_AT_name("pulse_time_4")
     851                    .dwattr $C$DW$56, DW_AT_TI_symbol_name("pulse_time_4")
     852                    .dwattr $C$DW$56, DW_AT_location[DW_OP_addr pulse_time_4]
     853                    .dwattr $C$DW$56, DW_AT_type(*$C$DW$T$10)
     854                    .dwattr $C$DW$56, DW_AT_external
     855                    .dwattr $C$DW$56, DW_AT_decl_file("../src/pumps.c")
     856                    .dwattr $C$DW$56, DW_AT_decl_line(0x68)
     857                    .dwattr $C$DW$56, DW_AT_decl_column(0x05)
     858            
     859                    .global pulse_count_4
     860 000042               .data
     861                    .align  2
     862                    .elfsym pulse_count_4,SYM_SIZE(2)
     863 000042       pulse_count_4:
     864 000042 0000          .bits           0,16
     865                                    ; pulse_count_4 @ 0
     866            
     867            $C$DW$57        .dwtag  DW_TAG_variable
     868                    .dwattr $C$DW$57, DW_AT_name("pulse_count_4")
     869                    .dwattr $C$DW$57, DW_AT_TI_symbol_name("pulse_count_4")
     870                    .dwattr $C$DW$57, DW_AT_location[DW_OP_addr pulse_count_4]
     871                    .dwattr $C$DW$57, DW_AT_type(*$C$DW$T$10)
     872                    .dwattr $C$DW$57, DW_AT_external
     873                    .dwattr $C$DW$57, DW_AT_decl_file("../src/pumps.c")
     874                    .dwattr $C$DW$57, DW_AT_decl_line(0x69)
     875                    .dwattr $C$DW$57, DW_AT_decl_column(0x05)
     876            
     877                    .global on_time_counter4
     878 000044               .data
MSP430 Assembler PC v21.6.1 Tue Dec 20 13:46:05 2022

Copyright (c) 2003-2018 Texas Instruments Incorporated
pumps.asm                                                            PAGE   17

     879                    .align  2
     880                    .elfsym on_time_counter4,SYM_SIZE(2)
     881 000044       on_time_counter4:
     882 000044 0000          .bits           0,16
     883                                    ; on_time_counter4 @ 0
     884            
     885            $C$DW$58        .dwtag  DW_TAG_variable
     886                    .dwattr $C$DW$58, DW_AT_name("on_time_counter4")
     887                    .dwattr $C$DW$58, DW_AT_TI_symbol_name("on_time_counter4")
     888                    .dwattr $C$DW$58, DW_AT_location[DW_OP_addr on_time_counter4]
     889                    .dwattr $C$DW$58, DW_AT_type(*$C$DW$T$10)
     890                    .dwattr $C$DW$58, DW_AT_external
     891                    .dwattr $C$DW$58, DW_AT_decl_file("../src/pumps.c")
     892                    .dwattr $C$DW$58, DW_AT_decl_line(0x6a)
     893                    .dwattr $C$DW$58, DW_AT_decl_column(0x05)
     894            
     895            ;       C:\ti\ccs1110\ccs\tools\compiler\ti-cgt-msp430_21.6.1.LTS\bin\opt430.exe C:\\Users\\MCourson\\
     896 000000               .sect   ".text:__signbitl"
     897                    .clink
     898                    .global __signbitl
     899            
     900            $C$DW$59        .dwtag  DW_TAG_subprogram
     901                    .dwattr $C$DW$59, DW_AT_name("__signbitl")
     902                    .dwattr $C$DW$59, DW_AT_low_pc(__signbitl)
     903                    .dwattr $C$DW$59, DW_AT_high_pc(0x00)
     904                    .dwattr $C$DW$59, DW_AT_TI_symbol_name("__signbitl")
     905                    .dwattr $C$DW$59, DW_AT_external
     906                    .dwattr $C$DW$59, DW_AT_type(*$C$DW$T$10)
     907                    .dwattr $C$DW$59, DW_AT_TI_begin_file("C:/ti/ccs1110/ccs/tools/compiler/ti-cgt-msp430_21.6.1.L
     908                    .dwattr $C$DW$59, DW_AT_TI_begin_line(0x16f)
     909                    .dwattr $C$DW$59, DW_AT_TI_begin_column(0x25)
     910                    .dwattr $C$DW$59, DW_AT_decl_file("C:/ti/ccs1110/ccs/tools/compiler/ti-cgt-msp430_21.6.1.LTS/i
     911                    .dwattr $C$DW$59, DW_AT_decl_line(0x16f)
     912                    .dwattr $C$DW$59, DW_AT_decl_column(0x25)
     913                    .dwattr $C$DW$59, DW_AT_TI_max_frame_size(0x04)
     914                    .dwpsn  file "C:/ti/ccs1110/ccs/tools/compiler/ti-cgt-msp430_21.6.1.LTS/include/_defs.h",line 
     915            
     916                    .dwfde $C$DW$CIE, __signbitl
     917            $C$DW$60        .dwtag  DW_TAG_formal_parameter
     918                    .dwattr $C$DW$60, DW_AT_name("e")
     919                    .dwattr $C$DW$60, DW_AT_TI_symbol_name("e")
     920                    .dwattr $C$DW$60, DW_AT_type(*$C$DW$T$18)
     921                    .dwattr $C$DW$60, DW_AT_location[DW_OP_reg12 DW_OP_piece 2 DW_OP_reg13 DW_OP_piece 2 DW_OP_reg
     922            
     923            
     924            ;*****************************************************************************
     925            ;* FUNCTION NAME: __signbitl                                                 *
     926            ;*                                                                           *
     927            ;*   Regs Modified     : SP,SR,r11,r12,r13,r14,r15                           *
     928            ;*   Regs Used         : SP,SR,r11,r12,r13,r14,r15                           *
     929            ;*   Local Frame Size  : 0 Args + 0 Auto + 0 Save = 0 byte                   *
     930            ;*****************************************************************************
     931 000000       __signbitl:
     932            ;* --------------------------------------------------------------------------*
     933                    .dwcfi  cfa_offset, 4
MSP430 Assembler PC v21.6.1 Tue Dec 20 13:46:05 2022

Copyright (c) 2003-2018 Texas Instruments Incorporated
pumps.asm                                                            PAGE   18

     934                    .dwcfi  save_reg_to_mem, 16, -4
     935                    .dwpsn  file "C:/ti/ccs1110/ccs/tools/compiler/ti-cgt-msp430_21.6.1.LTS/include/_defs.h",line 
     936 000000 430B          MOV.W     #0,r11                ; [] |368| 
     937 000002 F30C          AND.W     #0,r12                ; [] |368| 
     938 000004 F30D          AND.W     #0,r13                ; [] |368| 
     939 000006 F30E          AND.W     #0,r14                ; [] |368| 
     940 000008 F03F          AND.W     #32768,r15            ; [] |368| 
         00000a 8000 
     941 00000c 930F          TST.W     r15                   ; [] |368| 
     942 00000e 2006          JNE       $C$L1                 ; [] |368| 
     943                                                      ; [] |368| 
     944            ;* --------------------------------------------------------------------------*
     945 000010 930E          TST.W     r14                   ; [] |368| 
     946 000012 2004          JNE       $C$L1                 ; [] |368| 
     947                                                      ; [] |368| 
     948            ;* --------------------------------------------------------------------------*
     949 000014 930D          TST.W     r13                   ; [] |368| 
     950 000016 2002          JNE       $C$L1                 ; [] |368| 
     951                                                      ; [] |368| 
     952            ;* --------------------------------------------------------------------------*
     953 000018 930C          TST.W     r12                   ; [] |368| 
     954 00001a 2401          JEQ       $C$L2                 ; [] |368| 
     955                                                      ; [] |368| 
     956            ;* --------------------------------------------------------------------------*
     957 00001c       $C$L1:    
     958 00001c 431B          MOV.W     #1,r11                ; [] |368| 
     959            ;* --------------------------------------------------------------------------*
     960 00001e       $C$L2:    
     961 00001e 0BCC          MOVA      r11,r12               ; [] |368| 
     962                    .dwpsn  file "C:/ti/ccs1110/ccs/tools/compiler/ti-cgt-msp430_21.6.1.LTS/include/_defs.h",line 
     963            $C$DW$61        .dwtag  DW_TAG_TI_branch
     964                    .dwattr $C$DW$61, DW_AT_low_pc(0x00)
     965                    .dwattr $C$DW$61, DW_AT_TI_return
     966            
     967 000020 0110          RETA      ; [] 
     968                    ; [] 
     969                    .dwattr $C$DW$59, DW_AT_TI_end_file("C:/ti/ccs1110/ccs/tools/compiler/ti-cgt-msp430_21.6.1.LTS
     970                    .dwattr $C$DW$59, DW_AT_TI_end_line(0x170)
     971                    .dwattr $C$DW$59, DW_AT_TI_end_column(0x2b)
     972                    .dwendentry
     973                    .dwendtag $C$DW$59
     974            
     975 000000               .sect   ".text:__signbitf"
     976                    .clink
     977                    .global __signbitf
     978            
     979            $C$DW$62        .dwtag  DW_TAG_subprogram
     980                    .dwattr $C$DW$62, DW_AT_name("__signbitf")
     981                    .dwattr $C$DW$62, DW_AT_low_pc(__signbitf)
     982                    .dwattr $C$DW$62, DW_AT_high_pc(0x00)
     983                    .dwattr $C$DW$62, DW_AT_TI_symbol_name("__signbitf")
     984                    .dwattr $C$DW$62, DW_AT_external
     985                    .dwattr $C$DW$62, DW_AT_type(*$C$DW$T$10)
     986                    .dwattr $C$DW$62, DW_AT_TI_begin_file("C:/ti/ccs1110/ccs/tools/compiler/ti-cgt-msp430_21.6.1.L
     987                    .dwattr $C$DW$62, DW_AT_TI_begin_line(0x16d)
MSP430 Assembler PC v21.6.1 Tue Dec 20 13:46:05 2022

Copyright (c) 2003-2018 Texas Instruments Incorporated
pumps.asm                                                            PAGE   19

     988                    .dwattr $C$DW$62, DW_AT_TI_begin_column(0x25)
     989                    .dwattr $C$DW$62, DW_AT_decl_file("C:/ti/ccs1110/ccs/tools/compiler/ti-cgt-msp430_21.6.1.LTS/i
     990                    .dwattr $C$DW$62, DW_AT_decl_line(0x16d)
     991                    .dwattr $C$DW$62, DW_AT_decl_column(0x25)
     992                    .dwattr $C$DW$62, DW_AT_TI_max_frame_size(0x04)
     993                    .dwpsn  file "C:/ti/ccs1110/ccs/tools/compiler/ti-cgt-msp430_21.6.1.LTS/include/_defs.h",line 
     994            
     995                    .dwfde $C$DW$CIE, __signbitf
     996            $C$DW$63        .dwtag  DW_TAG_formal_parameter
     997                    .dwattr $C$DW$63, DW_AT_name("f")
     998                    .dwattr $C$DW$63, DW_AT_TI_symbol_name("f")
     999                    .dwattr $C$DW$63, DW_AT_type(*$C$DW$T$16)
    1000                    .dwattr $C$DW$63, DW_AT_location[DW_OP_reg12 DW_OP_piece 2 DW_OP_reg13 DW_OP_piece 2]
    1001            
    1002            
    1003            ;*****************************************************************************
    1004            ;* FUNCTION NAME: __signbitf                                                 *
    1005            ;*                                                                           *
    1006            ;*   Regs Modified     : SP,SR,r12                                           *
    1007            ;*   Regs Used         : SP,SR,r12,r13                                       *
    1008            ;*   Local Frame Size  : 0 Args + 0 Auto + 0 Save = 0 byte                   *
    1009            ;*****************************************************************************
    1010 000000       __signbitf:
    1011            ;* --------------------------------------------------------------------------*
    1012                    .dwcfi  cfa_offset, 4
    1013                    .dwcfi  save_reg_to_mem, 16, -4
    1014                    .dwpsn  file "C:/ti/ccs1110/ccs/tools/compiler/ti-cgt-msp430_21.6.1.LTS/include/_defs.h",line 
    1015 000000 430C          MOV.W     #0,r12                ; [] |366| 
    1016 000002 930D          TST.W     r13                   ; [] |366| 
    1017 000004 3401          JGE       $C$L3                 ; [] |366| 
    1018                                                      ; [] |366| 
    1019            ;* --------------------------------------------------------------------------*
    1020 000006 431C          MOV.W     #1,r12                ; [] |366| 
    1021            ;* --------------------------------------------------------------------------*
    1022 000008       $C$L3:    
    1023                    .dwpsn  file "C:/ti/ccs1110/ccs/tools/compiler/ti-cgt-msp430_21.6.1.LTS/include/_defs.h",line 
    1024            $C$DW$64        .dwtag  DW_TAG_TI_branch
    1025                    .dwattr $C$DW$64, DW_AT_low_pc(0x00)
    1026                    .dwattr $C$DW$64, DW_AT_TI_return
    1027            
    1028 000008 0110          RETA      ; [] 
    1029                    ; [] 
    1030                    .dwattr $C$DW$62, DW_AT_TI_end_file("C:/ti/ccs1110/ccs/tools/compiler/ti-cgt-msp430_21.6.1.LTS
    1031                    .dwattr $C$DW$62, DW_AT_TI_end_line(0x16e)
    1032                    .dwattr $C$DW$62, DW_AT_TI_end_column(0x29)
    1033                    .dwendentry
    1034                    .dwendtag $C$DW$62
    1035            
    1036 000000               .sect   ".text:__signbit"
    1037                    .clink
    1038                    .global __signbit
    1039            
    1040            $C$DW$65        .dwtag  DW_TAG_subprogram
    1041                    .dwattr $C$DW$65, DW_AT_name("__signbit")
    1042                    .dwattr $C$DW$65, DW_AT_low_pc(__signbit)
MSP430 Assembler PC v21.6.1 Tue Dec 20 13:46:05 2022

Copyright (c) 2003-2018 Texas Instruments Incorporated
pumps.asm                                                            PAGE   20

    1043                    .dwattr $C$DW$65, DW_AT_high_pc(0x00)
    1044                    .dwattr $C$DW$65, DW_AT_TI_symbol_name("__signbit")
    1045                    .dwattr $C$DW$65, DW_AT_external
    1046                    .dwattr $C$DW$65, DW_AT_type(*$C$DW$T$10)
    1047                    .dwattr $C$DW$65, DW_AT_TI_begin_file("C:/ti/ccs1110/ccs/tools/compiler/ti-cgt-msp430_21.6.1.L
    1048                    .dwattr $C$DW$65, DW_AT_TI_begin_line(0x16b)
    1049                    .dwattr $C$DW$65, DW_AT_TI_begin_column(0x25)
    1050                    .dwattr $C$DW$65, DW_AT_decl_file("C:/ti/ccs1110/ccs/tools/compiler/ti-cgt-msp430_21.6.1.LTS/i
    1051                    .dwattr $C$DW$65, DW_AT_decl_line(0x16b)
    1052                    .dwattr $C$DW$65, DW_AT_decl_column(0x25)
    1053                    .dwattr $C$DW$65, DW_AT_TI_max_frame_size(0x04)
    1054                    .dwpsn  file "C:/ti/ccs1110/ccs/tools/compiler/ti-cgt-msp430_21.6.1.LTS/include/_defs.h",line 
    1055            
    1056                    .dwfde $C$DW$CIE, __signbit
    1057            $C$DW$66        .dwtag  DW_TAG_formal_parameter
    1058                    .dwattr $C$DW$66, DW_AT_name("d")
    1059                    .dwattr $C$DW$66, DW_AT_TI_symbol_name("d")
    1060                    .dwattr $C$DW$66, DW_AT_type(*$C$DW$T$17)
    1061                    .dwattr $C$DW$66, DW_AT_location[DW_OP_reg12 DW_OP_piece 2 DW_OP_reg13 DW_OP_piece 2 DW_OP_reg
    1062            
    1063            
    1064            ;*****************************************************************************
    1065            ;* FUNCTION NAME: __signbit                                                  *
    1066            ;*                                                                           *
    1067            ;*   Regs Modified     : SP,SR,r11,r12,r13,r14,r15                           *
    1068            ;*   Regs Used         : SP,SR,r11,r12,r13,r14,r15                           *
    1069            ;*   Local Frame Size  : 0 Args + 0 Auto + 0 Save = 0 byte                   *
    1070            ;*****************************************************************************
    1071 000000       __signbit:
    1072            ;* --------------------------------------------------------------------------*
    1073                    .dwcfi  cfa_offset, 4
    1074                    .dwcfi  save_reg_to_mem, 16, -4
    1075                    .dwpsn  file "C:/ti/ccs1110/ccs/tools/compiler/ti-cgt-msp430_21.6.1.LTS/include/_defs.h",line 
    1076 000000 430B          MOV.W     #0,r11                ; [] |364| 
    1077 000002 F30C          AND.W     #0,r12                ; [] |364| 
    1078 000004 F30D          AND.W     #0,r13                ; [] |364| 
    1079 000006 F30E          AND.W     #0,r14                ; [] |364| 
    1080 000008 F03F          AND.W     #32768,r15            ; [] |364| 
         00000a 8000 
    1081 00000c 930F          TST.W     r15                   ; [] |364| 
    1082 00000e 2006          JNE       $C$L4                 ; [] |364| 
    1083                                                      ; [] |364| 
    1084            ;* --------------------------------------------------------------------------*
    1085 000010 930E          TST.W     r14                   ; [] |364| 
    1086 000012 2004          JNE       $C$L4                 ; [] |364| 
    1087                                                      ; [] |364| 
    1088            ;* --------------------------------------------------------------------------*
    1089 000014 930D          TST.W     r13                   ; [] |364| 
    1090 000016 2002          JNE       $C$L4                 ; [] |364| 
    1091                                                      ; [] |364| 
    1092            ;* --------------------------------------------------------------------------*
    1093 000018 930C          TST.W     r12                   ; [] |364| 
    1094 00001a 2401          JEQ       $C$L5                 ; [] |364| 
    1095                                                      ; [] |364| 
    1096            ;* --------------------------------------------------------------------------*
MSP430 Assembler PC v21.6.1 Tue Dec 20 13:46:05 2022

Copyright (c) 2003-2018 Texas Instruments Incorporated
pumps.asm                                                            PAGE   21

    1097 00001c       $C$L4:    
    1098 00001c 431B          MOV.W     #1,r11                ; [] |364| 
    1099            ;* --------------------------------------------------------------------------*
    1100 00001e       $C$L5:    
    1101 00001e 0BCC          MOVA      r11,r12               ; [] |364| 
    1102                    .dwpsn  file "C:/ti/ccs1110/ccs/tools/compiler/ti-cgt-msp430_21.6.1.LTS/include/_defs.h",line 
    1103            $C$DW$67        .dwtag  DW_TAG_TI_branch
    1104                    .dwattr $C$DW$67, DW_AT_low_pc(0x00)
    1105                    .dwattr $C$DW$67, DW_AT_TI_return
    1106            
    1107 000020 0110          RETA      ; [] 
    1108                    ; [] 
    1109                    .dwattr $C$DW$65, DW_AT_TI_end_file("C:/ti/ccs1110/ccs/tools/compiler/ti-cgt-msp430_21.6.1.LTS
    1110                    .dwattr $C$DW$65, DW_AT_TI_end_line(0x16c)
    1111                    .dwattr $C$DW$65, DW_AT_TI_end_column(0x2a)
    1112                    .dwendentry
    1113                    .dwendtag $C$DW$65
    1114            
    1115 000000               .sect   ".text:__isnormall"
    1116                    .clink
    1117                    .global __isnormall
    1118            
    1119            $C$DW$68        .dwtag  DW_TAG_subprogram
    1120                    .dwattr $C$DW$68, DW_AT_name("__isnormall")
    1121                    .dwattr $C$DW$68, DW_AT_low_pc(__isnormall)
    1122                    .dwattr $C$DW$68, DW_AT_high_pc(0x00)
    1123                    .dwattr $C$DW$68, DW_AT_TI_symbol_name("__isnormall")
    1124                    .dwattr $C$DW$68, DW_AT_external
    1125                    .dwattr $C$DW$68, DW_AT_type(*$C$DW$T$10)
    1126                    .dwattr $C$DW$68, DW_AT_TI_begin_file("C:/ti/ccs1110/ccs/tools/compiler/ti-cgt-msp430_21.6.1.L
    1127                    .dwattr $C$DW$68, DW_AT_TI_begin_line(0x167)
    1128                    .dwattr $C$DW$68, DW_AT_TI_begin_column(0x25)
    1129                    .dwattr $C$DW$68, DW_AT_decl_file("C:/ti/ccs1110/ccs/tools/compiler/ti-cgt-msp430_21.6.1.LTS/i
    1130                    .dwattr $C$DW$68, DW_AT_decl_line(0x167)
    1131                    .dwattr $C$DW$68, DW_AT_decl_column(0x25)
    1132                    .dwattr $C$DW$68, DW_AT_TI_max_frame_size(0x18)
    1133                    .dwpsn  file "C:/ti/ccs1110/ccs/tools/compiler/ti-cgt-msp430_21.6.1.LTS/include/_defs.h",line 
    1134            
    1135                    .dwfde $C$DW$CIE, __isnormall
    1136            $C$DW$69        .dwtag  DW_TAG_formal_parameter
    1137                    .dwattr $C$DW$69, DW_AT_name("e")
    1138                    .dwattr $C$DW$69, DW_AT_TI_symbol_name("e")
    1139                    .dwattr $C$DW$69, DW_AT_type(*$C$DW$T$18)
    1140                    .dwattr $C$DW$69, DW_AT_location[DW_OP_reg12 DW_OP_piece 2 DW_OP_reg13 DW_OP_piece 2 DW_OP_reg
    1141            
    1142            
    1143            ;*****************************************************************************
    1144            ;* FUNCTION NAME: __isnormall                                                *
    1145            ;*                                                                           *
    1146            ;*   Regs Modified     : SP,SR,r6,r7,r8,r9,r10,r11,r12,r13,r14,r15           *
    1147            ;*   Regs Used         : SP,SR,r6,r7,r8,r9,r10,r11,r12,r13,r14,r15           *
    1148            ;*   Local Frame Size  : 0 Args + 0 Auto + 20 Save = 20 byte                 *
    1149            ;*****************************************************************************
    1150 000000       __isnormall:
    1151            ;* --------------------------------------------------------------------------*
MSP430 Assembler PC v21.6.1 Tue Dec 20 13:46:05 2022

Copyright (c) 2003-2018 Texas Instruments Incorporated
pumps.asm                                                            PAGE   22

    1152                    .dwcfi  cfa_offset, 4
    1153                    .dwcfi  save_reg_to_mem, 16, -4
    1154 000000 144A          PUSHM.A   #5,r10                ; [] 
    1155                    .dwcfi  save_reg_to_mem, 10, -8
    1156                    .dwcfi  save_reg_to_mem, 9, -12
    1157                    .dwcfi  save_reg_to_mem, 8, -16
    1158                    .dwcfi  save_reg_to_mem, 7, -20
    1159                    .dwcfi  save_reg_to_mem, 6, -24
    1160                    .dwcfi  cfa_offset, 24
    1161            ;* r6    assigned to $O$S1
    1162            ;* r12   assigned to e
    1163            $C$DW$70        .dwtag  DW_TAG_variable
    1164                    .dwattr $C$DW$70, DW_AT_name("e")
    1165                    .dwattr $C$DW$70, DW_AT_TI_symbol_name("e")
    1166                    .dwattr $C$DW$70, DW_AT_type(*$C$DW$T$18)
    1167                    .dwattr $C$DW$70, DW_AT_location[DW_OP_reg12 DW_OP_piece 2 DW_OP_reg13 DW_OP_piece 2 DW_OP_reg
    1168            
    1169 000002 0FC7          MOVA      r15,r7                ; [] |360| 
    1170                    .dwpsn  file "C:/ti/ccs1110/ccs/tools/compiler/ti-cgt-msp430_21.6.1.LTS/include/_defs.h",line 
    1171 000004 4306          MOV.W     #0,r6                 ; [] |360| 
    1172 000006 0CC8          MOVA      r12,r8                ; [] |360| 
    1173 000008 0DC9          MOVA      r13,r9                ; [] |360| 
    1174 00000a 0ECA          MOVA      r14,r10               ; [] |360| 
    1175 00000c 07CB          MOVA      r7,r11                ; [] |360| 
    1176 00000e 403C          MOV.W     #52,r12               ; [] |360| 
         000010 0034 
    1177            $C$DW$71        .dwtag  DW_TAG_TI_branch
    1178                    .dwattr $C$DW$71, DW_AT_low_pc(0x00)
    1179                    .dwattr $C$DW$71, DW_AT_name("__mspabi_srlll")
    1180                    .dwattr $C$DW$71, DW_AT_TI_call
    1181            
    1182 000012 13B0!         CALLA     #__mspabi_srlll       ; [] |360| 
         000014 0000 
    1183                                                      ; [] |360| 
    1184 000016 F03C          AND.W     #2047,r12             ; [] |360| 
         000018 07FF 
    1185 00001a F30D          AND.W     #0,r13                ; [] |360| 
    1186 00001c F30E          AND.W     #0,r14                ; [] |360| 
    1187 00001e F30F          AND.W     #0,r15                ; [] |360| 
    1188 000020 930F          TST.W     r15                   ; [] |360| 
    1189 000022 2006          JNE       $C$L6                 ; [] |360| 
    1190                                                      ; [] |360| 
    1191            ;* --------------------------------------------------------------------------*
    1192 000024 930E          TST.W     r14                   ; [] |360| 
    1193 000026 2004          JNE       $C$L6                 ; [] |360| 
    1194                                                      ; [] |360| 
    1195            ;* --------------------------------------------------------------------------*
    1196 000028 930D          TST.W     r13                   ; [] |360| 
    1197 00002a 2002          JNE       $C$L6                 ; [] |360| 
    1198                                                      ; [] |360| 
    1199            ;* --------------------------------------------------------------------------*
    1200 00002c 930C          TST.W     r12                   ; [] |360| 
    1201 00002e 2406          JEQ       $C$L7                 ; [] |360| 
    1202                                                      ; [] |360| 
    1203            ;* --------------------------------------------------------------------------*
MSP430 Assembler PC v21.6.1 Tue Dec 20 13:46:05 2022

Copyright (c) 2003-2018 Texas Instruments Incorporated
pumps.asm                                                            PAGE   23

    1204 000030       $C$L6:    
    1205 000030 F037          AND.W     #32752,r7             ; [] |360| 
         000032 7FF0 
    1206 000034 9037          CMP.W     #32752,r7             ; [] |360| 
         000036 7FF0 
    1207 000038 2401          JEQ       $C$L7                 ; [] |360| 
    1208                                                      ; [] |360| 
    1209            ;* --------------------------------------------------------------------------*
    1210 00003a 4316          MOV.W     #1,r6                 ; [] |360| 
    1211            ;* --------------------------------------------------------------------------*
    1212 00003c       $C$L7:    
    1213 00003c 06CC          MOVA      r6,r12                ; [] |360| 
    1214                    .dwpsn  file "C:/ti/ccs1110/ccs/tools/compiler/ti-cgt-msp430_21.6.1.LTS/include/_defs.h",line 
    1215 00003e 1646          POPM.A    #5,r10                ; [] 
    1216                    .dwcfi  restore_reg, 6
    1217                    .dwcfi  restore_reg, 7
    1218                    .dwcfi  restore_reg, 8
    1219                    .dwcfi  restore_reg, 9
    1220                    .dwcfi  restore_reg, 10
    1221                    .dwcfi  cfa_offset, 4
    1222            $C$DW$72        .dwtag  DW_TAG_TI_branch
    1223                    .dwattr $C$DW$72, DW_AT_low_pc(0x00)
    1224                    .dwattr $C$DW$72, DW_AT_TI_return
    1225            
    1226 000040 0110          RETA      ; [] 
    1227                    ; [] 
    1228                    .dwattr $C$DW$68, DW_AT_TI_end_file("C:/ti/ccs1110/ccs/tools/compiler/ti-cgt-msp430_21.6.1.LTS
    1229                    .dwattr $C$DW$68, DW_AT_TI_end_line(0x169)
    1230                    .dwattr $C$DW$68, DW_AT_TI_end_column(0x31)
    1231                    .dwendentry
    1232                    .dwendtag $C$DW$68
    1233            
    1234 000000               .sect   ".text:__isnormalf"
    1235                    .clink
    1236                    .global __isnormalf
    1237            
    1238            $C$DW$73        .dwtag  DW_TAG_subprogram
    1239                    .dwattr $C$DW$73, DW_AT_name("__isnormalf")
    1240                    .dwattr $C$DW$73, DW_AT_low_pc(__isnormalf)
    1241                    .dwattr $C$DW$73, DW_AT_high_pc(0x00)
    1242                    .dwattr $C$DW$73, DW_AT_TI_symbol_name("__isnormalf")
    1243                    .dwattr $C$DW$73, DW_AT_external
    1244                    .dwattr $C$DW$73, DW_AT_type(*$C$DW$T$10)
    1245                    .dwattr $C$DW$73, DW_AT_TI_begin_file("C:/ti/ccs1110/ccs/tools/compiler/ti-cgt-msp430_21.6.1.L
    1246                    .dwattr $C$DW$73, DW_AT_TI_begin_line(0x163)
    1247                    .dwattr $C$DW$73, DW_AT_TI_begin_column(0x25)
    1248                    .dwattr $C$DW$73, DW_AT_decl_file("C:/ti/ccs1110/ccs/tools/compiler/ti-cgt-msp430_21.6.1.LTS/i
    1249                    .dwattr $C$DW$73, DW_AT_decl_line(0x163)
    1250                    .dwattr $C$DW$73, DW_AT_decl_column(0x25)
    1251                    .dwattr $C$DW$73, DW_AT_TI_max_frame_size(0x04)
    1252                    .dwpsn  file "C:/ti/ccs1110/ccs/tools/compiler/ti-cgt-msp430_21.6.1.LTS/include/_defs.h",line 
    1253            
    1254                    .dwfde $C$DW$CIE, __isnormalf
    1255            $C$DW$74        .dwtag  DW_TAG_formal_parameter
    1256                    .dwattr $C$DW$74, DW_AT_name("f")
MSP430 Assembler PC v21.6.1 Tue Dec 20 13:46:05 2022

Copyright (c) 2003-2018 Texas Instruments Incorporated
pumps.asm                                                            PAGE   24

    1257                    .dwattr $C$DW$74, DW_AT_TI_symbol_name("f")
    1258                    .dwattr $C$DW$74, DW_AT_type(*$C$DW$T$16)
    1259                    .dwattr $C$DW$74, DW_AT_location[DW_OP_reg12 DW_OP_piece 2 DW_OP_reg13 DW_OP_piece 2]
    1260            
    1261            
    1262            ;*****************************************************************************
    1263            ;* FUNCTION NAME: __isnormalf                                                *
    1264            ;*                                                                           *
    1265            ;*   Regs Modified     : SP,SR,r12,r13,r15                                   *
    1266            ;*   Regs Used         : SP,SR,r12,r13,r15                                   *
    1267            ;*   Local Frame Size  : 0 Args + 0 Auto + 0 Save = 0 byte                   *
    1268            ;*****************************************************************************
    1269 000000       __isnormalf:
    1270            ;* --------------------------------------------------------------------------*
    1271                    .dwcfi  cfa_offset, 4
    1272                    .dwcfi  save_reg_to_mem, 16, -4
    1273            ;* r12   assigned to $O$S1
    1274                    .dwpsn  file "C:/ti/ccs1110/ccs/tools/compiler/ti-cgt-msp430_21.6.1.LTS/include/_defs.h",line 
    1275 000000 430C          MOV.W     #0,r12                ; [] |356| 
    1276 000002 0DCF          MOVA      r13,r15               ; [] |356| 
    1277 000004 1946          RPT #7 || RRUX.W r15 ; [] |356| 
         000006 100F 
    1278 000008 B03F          BIT.W     #255,r15              ; [] |356| 
         00000a 00FF 
    1279 00000c 2406          JEQ       $C$L8                 ; [] |356| 
    1280                                                      ; [] |356| 
    1281            ;* --------------------------------------------------------------------------*
    1282 00000e F03D          AND.W     #32640,r13            ; [] |356| 
         000010 7F80 
    1283 000012 903D          CMP.W     #32640,r13            ; [] |356| 
         000014 7F80 
    1284 000016 2401          JEQ       $C$L8                 ; [] |356| 
    1285                                                      ; [] |356| 
    1286            ;* --------------------------------------------------------------------------*
    1287 000018 431C          MOV.W     #1,r12                ; [] |356| 
    1288            ;* --------------------------------------------------------------------------*
    1289 00001a       $C$L8:    
    1290                    .dwpsn  file "C:/ti/ccs1110/ccs/tools/compiler/ti-cgt-msp430_21.6.1.LTS/include/_defs.h",line 
    1291            $C$DW$75        .dwtag  DW_TAG_TI_branch
    1292                    .dwattr $C$DW$75, DW_AT_low_pc(0x00)
    1293                    .dwattr $C$DW$75, DW_AT_TI_return
    1294            
    1295 00001a 0110          RETA      ; [] 
    1296                    ; [] 
    1297                    .dwattr $C$DW$73, DW_AT_TI_end_file("C:/ti/ccs1110/ccs/tools/compiler/ti-cgt-msp430_21.6.1.LTS
    1298                    .dwattr $C$DW$73, DW_AT_TI_end_line(0x165)
    1299                    .dwattr $C$DW$73, DW_AT_TI_end_column(0x2f)
    1300                    .dwendentry
    1301                    .dwendtag $C$DW$73
    1302            
    1303 000000               .sect   ".text:__isnormal"
    1304                    .clink
    1305                    .global __isnormal
    1306            
    1307            $C$DW$76        .dwtag  DW_TAG_subprogram
MSP430 Assembler PC v21.6.1 Tue Dec 20 13:46:05 2022

Copyright (c) 2003-2018 Texas Instruments Incorporated
pumps.asm                                                            PAGE   25

    1308                    .dwattr $C$DW$76, DW_AT_name("__isnormal")
    1309                    .dwattr $C$DW$76, DW_AT_low_pc(__isnormal)
    1310                    .dwattr $C$DW$76, DW_AT_high_pc(0x00)
    1311                    .dwattr $C$DW$76, DW_AT_TI_symbol_name("__isnormal")
    1312                    .dwattr $C$DW$76, DW_AT_external
    1313                    .dwattr $C$DW$76, DW_AT_type(*$C$DW$T$10)
    1314                    .dwattr $C$DW$76, DW_AT_TI_begin_file("C:/ti/ccs1110/ccs/tools/compiler/ti-cgt-msp430_21.6.1.L
    1315                    .dwattr $C$DW$76, DW_AT_TI_begin_line(0x15f)
    1316                    .dwattr $C$DW$76, DW_AT_TI_begin_column(0x25)
    1317                    .dwattr $C$DW$76, DW_AT_decl_file("C:/ti/ccs1110/ccs/tools/compiler/ti-cgt-msp430_21.6.1.LTS/i
    1318                    .dwattr $C$DW$76, DW_AT_decl_line(0x15f)
    1319                    .dwattr $C$DW$76, DW_AT_decl_column(0x25)
    1320                    .dwattr $C$DW$76, DW_AT_TI_max_frame_size(0x18)
    1321                    .dwpsn  file "C:/ti/ccs1110/ccs/tools/compiler/ti-cgt-msp430_21.6.1.LTS/include/_defs.h",line 
    1322            
    1323                    .dwfde $C$DW$CIE, __isnormal
    1324            $C$DW$77        .dwtag  DW_TAG_formal_parameter
    1325                    .dwattr $C$DW$77, DW_AT_name("d")
    1326                    .dwattr $C$DW$77, DW_AT_TI_symbol_name("d")
    1327                    .dwattr $C$DW$77, DW_AT_type(*$C$DW$T$17)
    1328                    .dwattr $C$DW$77, DW_AT_location[DW_OP_reg12 DW_OP_piece 2 DW_OP_reg13 DW_OP_piece 2 DW_OP_reg
    1329            
    1330            
    1331            ;*****************************************************************************
    1332            ;* FUNCTION NAME: __isnormal                                                 *
    1333            ;*                                                                           *
    1334            ;*   Regs Modified     : SP,SR,r6,r7,r8,r9,r10,r11,r12,r13,r14,r15           *
    1335            ;*   Regs Used         : SP,SR,r6,r7,r8,r9,r10,r11,r12,r13,r14,r15           *
    1336            ;*   Local Frame Size  : 0 Args + 0 Auto + 20 Save = 20 byte                 *
    1337            ;*****************************************************************************
    1338 000000       __isnormal:
    1339            ;* --------------------------------------------------------------------------*
    1340                    .dwcfi  cfa_offset, 4
    1341                    .dwcfi  save_reg_to_mem, 16, -4
    1342 000000 144A          PUSHM.A   #5,r10                ; [] 
    1343                    .dwcfi  save_reg_to_mem, 10, -8
    1344                    .dwcfi  save_reg_to_mem, 9, -12
    1345                    .dwcfi  save_reg_to_mem, 8, -16
    1346                    .dwcfi  save_reg_to_mem, 7, -20
    1347                    .dwcfi  save_reg_to_mem, 6, -24
    1348                    .dwcfi  cfa_offset, 24
    1349            ;* r6    assigned to $O$S1
    1350            ;* r12   assigned to d
    1351            $C$DW$78        .dwtag  DW_TAG_variable
    1352                    .dwattr $C$DW$78, DW_AT_name("d")
    1353                    .dwattr $C$DW$78, DW_AT_TI_symbol_name("d")
    1354                    .dwattr $C$DW$78, DW_AT_type(*$C$DW$T$17)
    1355                    .dwattr $C$DW$78, DW_AT_location[DW_OP_reg12 DW_OP_piece 2 DW_OP_reg13 DW_OP_piece 2 DW_OP_reg
    1356            
    1357 000002 0FC7          MOVA      r15,r7                ; [] |352| 
    1358                    .dwpsn  file "C:/ti/ccs1110/ccs/tools/compiler/ti-cgt-msp430_21.6.1.LTS/include/_defs.h",line 
    1359 000004 4306          MOV.W     #0,r6                 ; [] |352| 
    1360 000006 0CC8          MOVA      r12,r8                ; [] |352| 
    1361 000008 0DC9          MOVA      r13,r9                ; [] |352| 
    1362 00000a 0ECA          MOVA      r14,r10               ; [] |352| 
MSP430 Assembler PC v21.6.1 Tue Dec 20 13:46:05 2022

Copyright (c) 2003-2018 Texas Instruments Incorporated
pumps.asm                                                            PAGE   26

    1363 00000c 07CB          MOVA      r7,r11                ; [] |352| 
    1364 00000e 403C          MOV.W     #52,r12               ; [] |352| 
         000010 0034 
    1365            $C$DW$79        .dwtag  DW_TAG_TI_branch
    1366                    .dwattr $C$DW$79, DW_AT_low_pc(0x00)
    1367                    .dwattr $C$DW$79, DW_AT_name("__mspabi_srlll")
    1368                    .dwattr $C$DW$79, DW_AT_TI_call
    1369            
    1370 000012 13B0!         CALLA     #__mspabi_srlll       ; [] |352| 
         000014 0000 
    1371                                                      ; [] |352| 
    1372 000016 F03C          AND.W     #2047,r12             ; [] |352| 
         000018 07FF 
    1373 00001a F30D          AND.W     #0,r13                ; [] |352| 
    1374 00001c F30E          AND.W     #0,r14                ; [] |352| 
    1375 00001e F30F          AND.W     #0,r15                ; [] |352| 
    1376 000020 930F          TST.W     r15                   ; [] |352| 
    1377 000022 2006          JNE       $C$L9                 ; [] |352| 
    1378                                                      ; [] |352| 
    1379            ;* --------------------------------------------------------------------------*
    1380 000024 930E          TST.W     r14                   ; [] |352| 
    1381 000026 2004          JNE       $C$L9                 ; [] |352| 
    1382                                                      ; [] |352| 
    1383            ;* --------------------------------------------------------------------------*
    1384 000028 930D          TST.W     r13                   ; [] |352| 
    1385 00002a 2002          JNE       $C$L9                 ; [] |352| 
    1386                                                      ; [] |352| 
    1387            ;* --------------------------------------------------------------------------*
    1388 00002c 930C          TST.W     r12                   ; [] |352| 
    1389 00002e 2406          JEQ       $C$L10                ; [] |352| 
    1390                                                      ; [] |352| 
    1391            ;* --------------------------------------------------------------------------*
    1392 000030       $C$L9:    
    1393 000030 F037          AND.W     #32752,r7             ; [] |352| 
         000032 7FF0 
    1394 000034 9037          CMP.W     #32752,r7             ; [] |352| 
         000036 7FF0 
    1395 000038 2401          JEQ       $C$L10                ; [] |352| 
    1396                                                      ; [] |352| 
    1397            ;* --------------------------------------------------------------------------*
    1398 00003a 4316          MOV.W     #1,r6                 ; [] |352| 
    1399            ;* --------------------------------------------------------------------------*
    1400 00003c       $C$L10:    
    1401 00003c 06CC          MOVA      r6,r12                ; [] |352| 
    1402                    .dwpsn  file "C:/ti/ccs1110/ccs/tools/compiler/ti-cgt-msp430_21.6.1.LTS/include/_defs.h",line 
    1403 00003e 1646          POPM.A    #5,r10                ; [] 
    1404                    .dwcfi  restore_reg, 6
    1405                    .dwcfi  restore_reg, 7
    1406                    .dwcfi  restore_reg, 8
    1407                    .dwcfi  restore_reg, 9
    1408                    .dwcfi  restore_reg, 10
    1409                    .dwcfi  cfa_offset, 4
    1410            $C$DW$80        .dwtag  DW_TAG_TI_branch
    1411                    .dwattr $C$DW$80, DW_AT_low_pc(0x00)
    1412                    .dwattr $C$DW$80, DW_AT_TI_return
MSP430 Assembler PC v21.6.1 Tue Dec 20 13:46:05 2022

Copyright (c) 2003-2018 Texas Instruments Incorporated
pumps.asm                                                            PAGE   27

    1413            
    1414 000040 0110          RETA      ; [] 
    1415                    ; [] 
    1416                    .dwattr $C$DW$76, DW_AT_TI_end_file("C:/ti/ccs1110/ccs/tools/compiler/ti-cgt-msp430_21.6.1.LTS
    1417                    .dwattr $C$DW$76, DW_AT_TI_end_line(0x161)
    1418                    .dwattr $C$DW$76, DW_AT_TI_end_column(0x30)
    1419                    .dwendentry
    1420                    .dwendtag $C$DW$76
    1421            
    1422 000000               .sect   ".text:__isnanl"
    1423                    .clink
    1424                    .global __isnanl
    1425            
    1426            $C$DW$81        .dwtag  DW_TAG_subprogram
    1427                    .dwattr $C$DW$81, DW_AT_name("__isnanl")
    1428                    .dwattr $C$DW$81, DW_AT_low_pc(__isnanl)
    1429                    .dwattr $C$DW$81, DW_AT_high_pc(0x00)
    1430                    .dwattr $C$DW$81, DW_AT_TI_symbol_name("__isnanl")
    1431                    .dwattr $C$DW$81, DW_AT_external
    1432                    .dwattr $C$DW$81, DW_AT_type(*$C$DW$T$10)
    1433                    .dwattr $C$DW$81, DW_AT_TI_begin_file("C:/ti/ccs1110/ccs/tools/compiler/ti-cgt-msp430_21.6.1.L
    1434                    .dwattr $C$DW$81, DW_AT_TI_begin_line(0x15b)
    1435                    .dwattr $C$DW$81, DW_AT_TI_begin_column(0x25)
    1436                    .dwattr $C$DW$81, DW_AT_decl_file("C:/ti/ccs1110/ccs/tools/compiler/ti-cgt-msp430_21.6.1.LTS/i
    1437                    .dwattr $C$DW$81, DW_AT_decl_line(0x15b)
    1438                    .dwattr $C$DW$81, DW_AT_decl_column(0x25)
    1439                    .dwattr $C$DW$81, DW_AT_TI_max_frame_size(0x08)
    1440                    .dwpsn  file "C:/ti/ccs1110/ccs/tools/compiler/ti-cgt-msp430_21.6.1.LTS/include/_defs.h",line 
    1441            
    1442                    .dwfde $C$DW$CIE, __isnanl
    1443            $C$DW$82        .dwtag  DW_TAG_formal_parameter
    1444                    .dwattr $C$DW$82, DW_AT_name("e")
    1445                    .dwattr $C$DW$82, DW_AT_TI_symbol_name("e")
    1446                    .dwattr $C$DW$82, DW_AT_type(*$C$DW$T$18)
    1447                    .dwattr $C$DW$82, DW_AT_location[DW_OP_reg12 DW_OP_piece 2 DW_OP_reg13 DW_OP_piece 2 DW_OP_reg
    1448            
    1449            
    1450            ;*****************************************************************************
    1451            ;* FUNCTION NAME: __isnanl                                                   *
    1452            ;*                                                                           *
    1453            ;*   Regs Modified     : SP,SR,r10,r11,r12,r13,r14,r15                       *
    1454            ;*   Regs Used         : SP,SR,r10,r11,r12,r13,r14,r15                       *
    1455            ;*   Local Frame Size  : 0 Args + 0 Auto + 4 Save = 4 byte                   *
    1456            ;*****************************************************************************
    1457 000000       __isnanl:
    1458            ;* --------------------------------------------------------------------------*
    1459                    .dwcfi  cfa_offset, 4
    1460                    .dwcfi  save_reg_to_mem, 16, -4
    1461 000000 140A          PUSHM.A   #1,r10                ; [] 
    1462                    .dwcfi  save_reg_to_mem, 10, -8
    1463                    .dwcfi  cfa_offset, 8
    1464            ;* r11   assigned to $O$S1
    1465                    .dwpsn  file "C:/ti/ccs1110/ccs/tools/compiler/ti-cgt-msp430_21.6.1.LTS/include/_defs.h",line 
    1466 000002 430B          MOV.W     #0,r11                ; [] |348| 
    1467 000004 0FCA          MOVA      r15,r10               ; [] |348| 
MSP430 Assembler PC v21.6.1 Tue Dec 20 13:46:05 2022

Copyright (c) 2003-2018 Texas Instruments Incorporated
pumps.asm                                                            PAGE   28

    1468 000006 F03A          AND.W     #32752,r10            ; [] |348| 
         000008 7FF0 
    1469 00000a 903A          CMP.W     #32752,r10            ; [] |348| 
         00000c 7FF0 
    1470 00000e 200E          JNE       $C$L12                ; [] |348| 
    1471                                                      ; [] |348| 
    1472            ;* --------------------------------------------------------------------------*
    1473 000010 F33C          AND.W     #65535,r12            ; [] |348| 
    1474 000012 F33D          AND.W     #65535,r13            ; [] |348| 
    1475 000014 F33E          AND.W     #65535,r14            ; [] |348| 
    1476 000016 F03F          AND.W     #15,r15               ; [] |348| 
         000018 000F 
    1477 00001a 930F          TST.W     r15                   ; [] |348| 
    1478 00001c 2006          JNE       $C$L11                ; [] |348| 
    1479                                                      ; [] |348| 
    1480            ;* --------------------------------------------------------------------------*
    1481 00001e 930E          TST.W     r14                   ; [] |348| 
    1482 000020 2004          JNE       $C$L11                ; [] |348| 
    1483                                                      ; [] |348| 
    1484            ;* --------------------------------------------------------------------------*
    1485 000022 930D          TST.W     r13                   ; [] |348| 
    1486 000024 2002          JNE       $C$L11                ; [] |348| 
    1487                                                      ; [] |348| 
    1488            ;* --------------------------------------------------------------------------*
    1489 000026 930C          TST.W     r12                   ; [] |348| 
    1490 000028 2401          JEQ       $C$L12                ; [] |348| 
    1491                                                      ; [] |348| 
    1492            ;* --------------------------------------------------------------------------*
    1493 00002a       $C$L11:    
    1494 00002a 431B          MOV.W     #1,r11                ; [] |348| 
    1495            ;* --------------------------------------------------------------------------*
    1496 00002c       $C$L12:    
    1497 00002c 0BCC          MOVA      r11,r12               ; [] |348| 
    1498                    .dwpsn  file "C:/ti/ccs1110/ccs/tools/compiler/ti-cgt-msp430_21.6.1.LTS/include/_defs.h",line 
    1499 00002e 160A          POPM.A    #1,r10                ; [] 
    1500                    .dwcfi  restore_reg, 10
    1501                    .dwcfi  cfa_offset, 4
    1502            $C$DW$83        .dwtag  DW_TAG_TI_branch
    1503                    .dwattr $C$DW$83, DW_AT_low_pc(0x00)
    1504                    .dwattr $C$DW$83, DW_AT_TI_return
    1505            
    1506 000030 0110          RETA      ; [] 
    1507                    ; [] 
    1508                    .dwattr $C$DW$81, DW_AT_TI_end_file("C:/ti/ccs1110/ccs/tools/compiler/ti-cgt-msp430_21.6.1.LTS
    1509                    .dwattr $C$DW$81, DW_AT_TI_end_line(0x15d)
    1510                    .dwattr $C$DW$81, DW_AT_TI_end_column(0x30)
    1511                    .dwendentry
    1512                    .dwendtag $C$DW$81
    1513            
    1514 000000               .sect   ".text:__isnanf"
    1515                    .clink
    1516                    .global __isnanf
    1517            
    1518            $C$DW$84        .dwtag  DW_TAG_subprogram
    1519                    .dwattr $C$DW$84, DW_AT_name("__isnanf")
MSP430 Assembler PC v21.6.1 Tue Dec 20 13:46:05 2022

Copyright (c) 2003-2018 Texas Instruments Incorporated
pumps.asm                                                            PAGE   29

    1520                    .dwattr $C$DW$84, DW_AT_low_pc(__isnanf)
    1521                    .dwattr $C$DW$84, DW_AT_high_pc(0x00)
    1522                    .dwattr $C$DW$84, DW_AT_TI_symbol_name("__isnanf")
    1523                    .dwattr $C$DW$84, DW_AT_external
    1524                    .dwattr $C$DW$84, DW_AT_type(*$C$DW$T$10)
    1525                    .dwattr $C$DW$84, DW_AT_TI_begin_file("C:/ti/ccs1110/ccs/tools/compiler/ti-cgt-msp430_21.6.1.L
    1526                    .dwattr $C$DW$84, DW_AT_TI_begin_line(0x158)
    1527                    .dwattr $C$DW$84, DW_AT_TI_begin_column(0x25)
    1528                    .dwattr $C$DW$84, DW_AT_decl_file("C:/ti/ccs1110/ccs/tools/compiler/ti-cgt-msp430_21.6.1.LTS/i
    1529                    .dwattr $C$DW$84, DW_AT_decl_line(0x158)
    1530                    .dwattr $C$DW$84, DW_AT_decl_column(0x25)
    1531                    .dwattr $C$DW$84, DW_AT_TI_max_frame_size(0x04)
    1532                    .dwpsn  file "C:/ti/ccs1110/ccs/tools/compiler/ti-cgt-msp430_21.6.1.LTS/include/_defs.h",line 
    1533            
    1534                    .dwfde $C$DW$CIE, __isnanf
    1535            $C$DW$85        .dwtag  DW_TAG_formal_parameter
    1536                    .dwattr $C$DW$85, DW_AT_name("f")
    1537                    .dwattr $C$DW$85, DW_AT_TI_symbol_name("f")
    1538                    .dwattr $C$DW$85, DW_AT_type(*$C$DW$T$16)
    1539                    .dwattr $C$DW$85, DW_AT_location[DW_OP_reg12 DW_OP_piece 2 DW_OP_reg13 DW_OP_piece 2]
    1540            
    1541            
    1542            ;*****************************************************************************
    1543            ;* FUNCTION NAME: __isnanf                                                   *
    1544            ;*                                                                           *
    1545            ;*   Regs Modified     : SP,SR,r12,r13,r14,r15                               *
    1546            ;*   Regs Used         : SP,SR,r12,r13,r14,r15                               *
    1547            ;*   Local Frame Size  : 0 Args + 0 Auto + 0 Save = 0 byte                   *
    1548            ;*****************************************************************************
    1549 000000       __isnanf:
    1550            ;* --------------------------------------------------------------------------*
    1551                    .dwcfi  cfa_offset, 4
    1552                    .dwcfi  save_reg_to_mem, 16, -4
    1553            ;* r15   assigned to $O$S1
    1554                    .dwpsn  file "C:/ti/ccs1110/ccs/tools/compiler/ti-cgt-msp430_21.6.1.LTS/include/_defs.h",line 
    1555 000000 430F          MOV.W     #0,r15                ; [] |345| 
    1556 000002 0DCE          MOVA      r13,r14               ; [] |345| 
    1557 000004 F03E          AND.W     #32640,r14            ; [] |345| 
         000006 7F80 
    1558 000008 903E          CMP.W     #32640,r14            ; [] |345| 
         00000a 7F80 
    1559 00000c 2008          JNE       $C$L14                ; [] |345| 
    1560                                                      ; [] |345| 
    1561            ;* --------------------------------------------------------------------------*
    1562 00000e F33C          AND.W     #65535,r12            ; [] |345| 
    1563 000010 F03D          AND.W     #127,r13              ; [] |345| 
         000012 007F 
    1564 000014 930D          TST.W     r13                   ; [] |345| 
    1565 000016 2002          JNE       $C$L13                ; [] |345| 
    1566                                                      ; [] |345| 
    1567            ;* --------------------------------------------------------------------------*
    1568 000018 930C          TST.W     r12                   ; [] |345| 
    1569 00001a 2401          JEQ       $C$L14                ; [] |345| 
    1570                                                      ; [] |345| 
    1571            ;* --------------------------------------------------------------------------*
MSP430 Assembler PC v21.6.1 Tue Dec 20 13:46:05 2022

Copyright (c) 2003-2018 Texas Instruments Incorporated
pumps.asm                                                            PAGE   30

    1572 00001c       $C$L13:    
    1573 00001c 431F          MOV.W     #1,r15                ; [] |345| 
    1574            ;* --------------------------------------------------------------------------*
    1575 00001e       $C$L14:    
    1576 00001e 0FCC          MOVA      r15,r12               ; [] |345| 
    1577                    .dwpsn  file "C:/ti/ccs1110/ccs/tools/compiler/ti-cgt-msp430_21.6.1.LTS/include/_defs.h",line 
    1578            $C$DW$86        .dwtag  DW_TAG_TI_branch
    1579                    .dwattr $C$DW$86, DW_AT_low_pc(0x00)
    1580                    .dwattr $C$DW$86, DW_AT_TI_return
    1581            
    1582 000020 0110          RETA      ; [] 
    1583                    ; [] 
    1584                    .dwattr $C$DW$84, DW_AT_TI_end_file("C:/ti/ccs1110/ccs/tools/compiler/ti-cgt-msp430_21.6.1.LTS
    1585                    .dwattr $C$DW$84, DW_AT_TI_end_line(0x15a)
    1586                    .dwattr $C$DW$84, DW_AT_TI_end_column(0x2e)
    1587                    .dwendentry
    1588                    .dwendtag $C$DW$84
    1589            
    1590 000000               .sect   ".text:__isnan"
    1591                    .clink
    1592                    .global __isnan
    1593            
    1594            $C$DW$87        .dwtag  DW_TAG_subprogram
    1595                    .dwattr $C$DW$87, DW_AT_name("__isnan")
    1596                    .dwattr $C$DW$87, DW_AT_low_pc(__isnan)
    1597                    .dwattr $C$DW$87, DW_AT_high_pc(0x00)
    1598                    .dwattr $C$DW$87, DW_AT_TI_symbol_name("__isnan")
    1599                    .dwattr $C$DW$87, DW_AT_external
    1600                    .dwattr $C$DW$87, DW_AT_type(*$C$DW$T$10)
    1601                    .dwattr $C$DW$87, DW_AT_TI_begin_file("C:/ti/ccs1110/ccs/tools/compiler/ti-cgt-msp430_21.6.1.L
    1602                    .dwattr $C$DW$87, DW_AT_TI_begin_line(0x155)
    1603                    .dwattr $C$DW$87, DW_AT_TI_begin_column(0x25)
    1604                    .dwattr $C$DW$87, DW_AT_decl_file("C:/ti/ccs1110/ccs/tools/compiler/ti-cgt-msp430_21.6.1.LTS/i
    1605                    .dwattr $C$DW$87, DW_AT_decl_line(0x155)
    1606                    .dwattr $C$DW$87, DW_AT_decl_column(0x25)
    1607                    .dwattr $C$DW$87, DW_AT_TI_max_frame_size(0x08)
    1608                    .dwpsn  file "C:/ti/ccs1110/ccs/tools/compiler/ti-cgt-msp430_21.6.1.LTS/include/_defs.h",line 
    1609            
    1610                    .dwfde $C$DW$CIE, __isnan
    1611            $C$DW$88        .dwtag  DW_TAG_formal_parameter
    1612                    .dwattr $C$DW$88, DW_AT_name("d")
    1613                    .dwattr $C$DW$88, DW_AT_TI_symbol_name("d")
    1614                    .dwattr $C$DW$88, DW_AT_type(*$C$DW$T$17)
    1615                    .dwattr $C$DW$88, DW_AT_location[DW_OP_reg12 DW_OP_piece 2 DW_OP_reg13 DW_OP_piece 2 DW_OP_reg
    1616            
    1617            
    1618            ;*****************************************************************************
    1619            ;* FUNCTION NAME: __isnan                                                    *
    1620            ;*                                                                           *
    1621            ;*   Regs Modified     : SP,SR,r10,r11,r12,r13,r14,r15                       *
    1622            ;*   Regs Used         : SP,SR,r10,r11,r12,r13,r14,r15                       *
    1623            ;*   Local Frame Size  : 0 Args + 0 Auto + 4 Save = 4 byte                   *
    1624            ;*****************************************************************************
    1625 000000       __isnan:
    1626            ;* --------------------------------------------------------------------------*
MSP430 Assembler PC v21.6.1 Tue Dec 20 13:46:05 2022

Copyright (c) 2003-2018 Texas Instruments Incorporated
pumps.asm                                                            PAGE   31

    1627                    .dwcfi  cfa_offset, 4
    1628                    .dwcfi  save_reg_to_mem, 16, -4
    1629 000000 140A          PUSHM.A   #1,r10                ; [] 
    1630                    .dwcfi  save_reg_to_mem, 10, -8
    1631                    .dwcfi  cfa_offset, 8
    1632            ;* r11   assigned to $O$S1
    1633                    .dwpsn  file "C:/ti/ccs1110/ccs/tools/compiler/ti-cgt-msp430_21.6.1.LTS/include/_defs.h",line 
    1634 000002 430B          MOV.W     #0,r11                ; [] |342| 
    1635 000004 0FCA          MOVA      r15,r10               ; [] |342| 
    1636 000006 F03A          AND.W     #32752,r10            ; [] |342| 
         000008 7FF0 
    1637 00000a 903A          CMP.W     #32752,r10            ; [] |342| 
         00000c 7FF0 
    1638 00000e 200E          JNE       $C$L16                ; [] |342| 
    1639                                                      ; [] |342| 
    1640            ;* --------------------------------------------------------------------------*
    1641 000010 F33C          AND.W     #65535,r12            ; [] |342| 
    1642 000012 F33D          AND.W     #65535,r13            ; [] |342| 
    1643 000014 F33E          AND.W     #65535,r14            ; [] |342| 
    1644 000016 F03F          AND.W     #15,r15               ; [] |342| 
         000018 000F 
    1645 00001a 930F          TST.W     r15                   ; [] |342| 
    1646 00001c 2006          JNE       $C$L15                ; [] |342| 
    1647                                                      ; [] |342| 
    1648            ;* --------------------------------------------------------------------------*
    1649 00001e 930E          TST.W     r14                   ; [] |342| 
    1650 000020 2004          JNE       $C$L15                ; [] |342| 
    1651                                                      ; [] |342| 
    1652            ;* --------------------------------------------------------------------------*
    1653 000022 930D          TST.W     r13                   ; [] |342| 
    1654 000024 2002          JNE       $C$L15                ; [] |342| 
    1655                                                      ; [] |342| 
    1656            ;* --------------------------------------------------------------------------*
    1657 000026 930C          TST.W     r12                   ; [] |342| 
    1658 000028 2401          JEQ       $C$L16                ; [] |342| 
    1659                                                      ; [] |342| 
    1660            ;* --------------------------------------------------------------------------*
    1661 00002a       $C$L15:    
    1662 00002a 431B          MOV.W     #1,r11                ; [] |342| 
    1663            ;* --------------------------------------------------------------------------*
    1664 00002c       $C$L16:    
    1665 00002c 0BCC          MOVA      r11,r12               ; [] |342| 
    1666                    .dwpsn  file "C:/ti/ccs1110/ccs/tools/compiler/ti-cgt-msp430_21.6.1.LTS/include/_defs.h",line 
    1667 00002e 160A          POPM.A    #1,r10                ; [] 
    1668                    .dwcfi  restore_reg, 10
    1669                    .dwcfi  cfa_offset, 4
    1670            $C$DW$89        .dwtag  DW_TAG_TI_branch
    1671                    .dwattr $C$DW$89, DW_AT_low_pc(0x00)
    1672                    .dwattr $C$DW$89, DW_AT_TI_return
    1673            
    1674 000030 0110          RETA      ; [] 
    1675                    ; [] 
    1676                    .dwattr $C$DW$87, DW_AT_TI_end_file("C:/ti/ccs1110/ccs/tools/compiler/ti-cgt-msp430_21.6.1.LTS
    1677                    .dwattr $C$DW$87, DW_AT_TI_end_line(0x157)
    1678                    .dwattr $C$DW$87, DW_AT_TI_end_column(0x2f)
MSP430 Assembler PC v21.6.1 Tue Dec 20 13:46:05 2022

Copyright (c) 2003-2018 Texas Instruments Incorporated
pumps.asm                                                            PAGE   32

    1679                    .dwendentry
    1680                    .dwendtag $C$DW$87
    1681            
    1682 000000               .sect   ".text:__isinfl"
    1683                    .clink
    1684                    .global __isinfl
    1685            
    1686            $C$DW$90        .dwtag  DW_TAG_subprogram
    1687                    .dwattr $C$DW$90, DW_AT_name("__isinfl")
    1688                    .dwattr $C$DW$90, DW_AT_low_pc(__isinfl)
    1689                    .dwattr $C$DW$90, DW_AT_high_pc(0x00)
    1690                    .dwattr $C$DW$90, DW_AT_TI_symbol_name("__isinfl")
    1691                    .dwattr $C$DW$90, DW_AT_external
    1692                    .dwattr $C$DW$90, DW_AT_type(*$C$DW$T$10)
    1693                    .dwattr $C$DW$90, DW_AT_TI_begin_file("C:/ti/ccs1110/ccs/tools/compiler/ti-cgt-msp430_21.6.1.L
    1694                    .dwattr $C$DW$90, DW_AT_TI_begin_line(0x17a)
    1695                    .dwattr $C$DW$90, DW_AT_TI_begin_column(0x25)
    1696                    .dwattr $C$DW$90, DW_AT_decl_file("C:/ti/ccs1110/ccs/tools/compiler/ti-cgt-msp430_21.6.1.LTS/i
    1697                    .dwattr $C$DW$90, DW_AT_decl_line(0x17a)
    1698                    .dwattr $C$DW$90, DW_AT_decl_column(0x25)
    1699                    .dwattr $C$DW$90, DW_AT_TI_max_frame_size(0x08)
    1700                    .dwpsn  file "C:/ti/ccs1110/ccs/tools/compiler/ti-cgt-msp430_21.6.1.LTS/include/_defs.h",line 
    1701            
    1702                    .dwfde $C$DW$CIE, __isinfl
    1703            $C$DW$91        .dwtag  DW_TAG_formal_parameter
    1704                    .dwattr $C$DW$91, DW_AT_name("e")
    1705                    .dwattr $C$DW$91, DW_AT_TI_symbol_name("e")
    1706                    .dwattr $C$DW$91, DW_AT_type(*$C$DW$T$18)
    1707                    .dwattr $C$DW$91, DW_AT_location[DW_OP_reg12 DW_OP_piece 2 DW_OP_reg13 DW_OP_piece 2 DW_OP_reg
    1708            
    1709            
    1710            ;*****************************************************************************
    1711            ;* FUNCTION NAME: __isinfl                                                   *
    1712            ;*                                                                           *
    1713            ;*   Regs Modified     : SP,SR,r10,r11,r12,r13,r14,r15                       *
    1714            ;*   Regs Used         : SP,SR,r10,r11,r12,r13,r14,r15                       *
    1715            ;*   Local Frame Size  : 0 Args + 0 Auto + 4 Save = 4 byte                   *
    1716            ;*****************************************************************************
    1717 000000       __isinfl:
    1718            ;* --------------------------------------------------------------------------*
    1719                    .dwcfi  cfa_offset, 4
    1720                    .dwcfi  save_reg_to_mem, 16, -4
    1721 000000 140A          PUSHM.A   #1,r10                ; [] 
    1722                    .dwcfi  save_reg_to_mem, 10, -8
    1723                    .dwcfi  cfa_offset, 8
    1724            ;* r11   assigned to $O$S1
    1725                    .dwpsn  file "C:/ti/ccs1110/ccs/tools/compiler/ti-cgt-msp430_21.6.1.LTS/include/_defs.h",line 
    1726 000002 430B          MOV.W     #0,r11                ; [] |379| 
    1727 000004 0FCA          MOVA      r15,r10               ; [] |379| 
    1728 000006 F03A          AND.W     #32752,r10            ; [] |379| 
         000008 7FF0 
    1729 00000a 903A          CMP.W     #32752,r10            ; [] |379| 
         00000c 7FF0 
    1730 00000e 200E          JNE       $C$L17                ; [] |379| 
    1731                                                      ; [] |379| 
MSP430 Assembler PC v21.6.1 Tue Dec 20 13:46:05 2022

Copyright (c) 2003-2018 Texas Instruments Incorporated
pumps.asm                                                            PAGE   33

    1732            ;* --------------------------------------------------------------------------*
    1733 000010 F33C          AND.W     #65535,r12            ; [] |379| 
    1734 000012 F33D          AND.W     #65535,r13            ; [] |379| 
    1735 000014 F33E          AND.W     #65535,r14            ; [] |379| 
    1736 000016 F03F          AND.W     #15,r15               ; [] |379| 
         000018 000F 
    1737 00001a 930F          TST.W     r15                   ; [] |379| 
    1738 00001c 2007          JNE       $C$L17                ; [] |379| 
    1739                                                      ; [] |379| 
    1740            ;* --------------------------------------------------------------------------*
    1741 00001e 930E          TST.W     r14                   ; [] |379| 
    1742 000020 2005          JNE       $C$L17                ; [] |379| 
    1743                                                      ; [] |379| 
    1744            ;* --------------------------------------------------------------------------*
    1745 000022 930D          TST.W     r13                   ; [] |379| 
    1746 000024 2003          JNE       $C$L17                ; [] |379| 
    1747                                                      ; [] |379| 
    1748            ;* --------------------------------------------------------------------------*
    1749 000026 930C          TST.W     r12                   ; [] |379| 
    1750 000028 2001          JNE       $C$L17                ; [] |379| 
    1751                                                      ; [] |379| 
    1752            ;* --------------------------------------------------------------------------*
    1753 00002a 431B          MOV.W     #1,r11                ; [] |379| 
    1754            ;* --------------------------------------------------------------------------*
    1755 00002c       $C$L17:    
    1756 00002c 0BCC          MOVA      r11,r12               ; [] |379| 
    1757                    .dwpsn  file "C:/ti/ccs1110/ccs/tools/compiler/ti-cgt-msp430_21.6.1.LTS/include/_defs.h",line 
    1758 00002e 160A          POPM.A    #1,r10                ; [] 
    1759                    .dwcfi  restore_reg, 10
    1760                    .dwcfi  cfa_offset, 4
    1761            $C$DW$92        .dwtag  DW_TAG_TI_branch
    1762                    .dwattr $C$DW$92, DW_AT_low_pc(0x00)
    1763                    .dwattr $C$DW$92, DW_AT_TI_return
    1764            
    1765 000030 0110          RETA      ; [] 
    1766                    ; [] 
    1767                    .dwattr $C$DW$90, DW_AT_TI_end_file("C:/ti/ccs1110/ccs/tools/compiler/ti-cgt-msp430_21.6.1.LTS
    1768                    .dwattr $C$DW$90, DW_AT_TI_end_line(0x17b)
    1769                    .dwattr $C$DW$90, DW_AT_TI_end_column(0x4c)
    1770                    .dwendentry
    1771                    .dwendtag $C$DW$90
    1772            
    1773 000000               .sect   ".text:__isinff"
    1774                    .clink
    1775                    .global __isinff
    1776            
    1777            $C$DW$93        .dwtag  DW_TAG_subprogram
    1778                    .dwattr $C$DW$93, DW_AT_name("__isinff")
    1779                    .dwattr $C$DW$93, DW_AT_low_pc(__isinff)
    1780                    .dwattr $C$DW$93, DW_AT_high_pc(0x00)
    1781                    .dwattr $C$DW$93, DW_AT_TI_symbol_name("__isinff")
    1782                    .dwattr $C$DW$93, DW_AT_external
    1783                    .dwattr $C$DW$93, DW_AT_type(*$C$DW$T$10)
    1784                    .dwattr $C$DW$93, DW_AT_TI_begin_file("C:/ti/ccs1110/ccs/tools/compiler/ti-cgt-msp430_21.6.1.L
    1785                    .dwattr $C$DW$93, DW_AT_TI_begin_line(0x176)
MSP430 Assembler PC v21.6.1 Tue Dec 20 13:46:05 2022

Copyright (c) 2003-2018 Texas Instruments Incorporated
pumps.asm                                                            PAGE   34

    1786                    .dwattr $C$DW$93, DW_AT_TI_begin_column(0x25)
    1787                    .dwattr $C$DW$93, DW_AT_decl_file("C:/ti/ccs1110/ccs/tools/compiler/ti-cgt-msp430_21.6.1.LTS/i
    1788                    .dwattr $C$DW$93, DW_AT_decl_line(0x176)
    1789                    .dwattr $C$DW$93, DW_AT_decl_column(0x25)
    1790                    .dwattr $C$DW$93, DW_AT_TI_max_frame_size(0x04)
    1791                    .dwpsn  file "C:/ti/ccs1110/ccs/tools/compiler/ti-cgt-msp430_21.6.1.LTS/include/_defs.h",line 
    1792            
    1793                    .dwfde $C$DW$CIE, __isinff
    1794            $C$DW$94        .dwtag  DW_TAG_formal_parameter
    1795                    .dwattr $C$DW$94, DW_AT_name("f")
    1796                    .dwattr $C$DW$94, DW_AT_TI_symbol_name("f")
    1797                    .dwattr $C$DW$94, DW_AT_type(*$C$DW$T$16)
    1798                    .dwattr $C$DW$94, DW_AT_location[DW_OP_reg12 DW_OP_piece 2 DW_OP_reg13 DW_OP_piece 2]
    1799            
    1800            
    1801            ;*****************************************************************************
    1802            ;* FUNCTION NAME: __isinff                                                   *
    1803            ;*                                                                           *
    1804            ;*   Regs Modified     : SP,SR,r12,r13,r14,r15                               *
    1805            ;*   Regs Used         : SP,SR,r12,r13,r14,r15                               *
    1806            ;*   Local Frame Size  : 0 Args + 0 Auto + 0 Save = 0 byte                   *
    1807            ;*****************************************************************************
    1808 000000       __isinff:
    1809            ;* --------------------------------------------------------------------------*
    1810                    .dwcfi  cfa_offset, 4
    1811                    .dwcfi  save_reg_to_mem, 16, -4
    1812            ;* r15   assigned to $O$S1
    1813                    .dwpsn  file "C:/ti/ccs1110/ccs/tools/compiler/ti-cgt-msp430_21.6.1.LTS/include/_defs.h",line 
    1814 000000 430F          MOV.W     #0,r15                ; [] |375| 
    1815 000002 0DCE          MOVA      r13,r14               ; [] |375| 
    1816 000004 F03E          AND.W     #32640,r14            ; [] |375| 
         000006 7F80 
    1817 000008 903E          CMP.W     #32640,r14            ; [] |375| 
         00000a 7F80 
    1818 00000c 2008          JNE       $C$L18                ; [] |375| 
    1819                                                      ; [] |375| 
    1820            ;* --------------------------------------------------------------------------*
    1821 00000e F33C          AND.W     #65535,r12            ; [] |375| 
    1822 000010 F03D          AND.W     #127,r13              ; [] |375| 
         000012 007F 
    1823 000014 930D          TST.W     r13                   ; [] |375| 
    1824 000016 2003          JNE       $C$L18                ; [] |375| 
    1825                                                      ; [] |375| 
    1826            ;* --------------------------------------------------------------------------*
    1827 000018 930C          TST.W     r12                   ; [] |375| 
    1828 00001a 2001          JNE       $C$L18                ; [] |375| 
    1829                                                      ; [] |375| 
    1830            ;* --------------------------------------------------------------------------*
    1831 00001c 431F          MOV.W     #1,r15                ; [] |375| 
    1832            ;* --------------------------------------------------------------------------*
    1833 00001e       $C$L18:    
    1834 00001e 0FCC          MOVA      r15,r12               ; [] |375| 
    1835                    .dwpsn  file "C:/ti/ccs1110/ccs/tools/compiler/ti-cgt-msp430_21.6.1.LTS/include/_defs.h",line 
    1836            $C$DW$95        .dwtag  DW_TAG_TI_branch
    1837                    .dwattr $C$DW$95, DW_AT_low_pc(0x00)
MSP430 Assembler PC v21.6.1 Tue Dec 20 13:46:05 2022

Copyright (c) 2003-2018 Texas Instruments Incorporated
pumps.asm                                                            PAGE   35

    1838                    .dwattr $C$DW$95, DW_AT_TI_return
    1839            
    1840 000020 0110          RETA      ; [] 
    1841                    ; [] 
    1842                    .dwattr $C$DW$93, DW_AT_TI_end_file("C:/ti/ccs1110/ccs/tools/compiler/ti-cgt-msp430_21.6.1.LTS
    1843                    .dwattr $C$DW$93, DW_AT_TI_end_line(0x177)
    1844                    .dwattr $C$DW$93, DW_AT_TI_end_column(0x48)
    1845                    .dwendentry
    1846                    .dwendtag $C$DW$93
    1847            
    1848 000000               .sect   ".text:__isinf"
    1849                    .clink
    1850                    .global __isinf
    1851            
    1852            $C$DW$96        .dwtag  DW_TAG_subprogram
    1853                    .dwattr $C$DW$96, DW_AT_name("__isinf")
    1854                    .dwattr $C$DW$96, DW_AT_low_pc(__isinf)
    1855                    .dwattr $C$DW$96, DW_AT_high_pc(0x00)
    1856                    .dwattr $C$DW$96, DW_AT_TI_symbol_name("__isinf")
    1857                    .dwattr $C$DW$96, DW_AT_external
    1858                    .dwattr $C$DW$96, DW_AT_type(*$C$DW$T$10)
    1859                    .dwattr $C$DW$96, DW_AT_TI_begin_file("C:/ti/ccs1110/ccs/tools/compiler/ti-cgt-msp430_21.6.1.L
    1860                    .dwattr $C$DW$96, DW_AT_TI_begin_line(0x178)
    1861                    .dwattr $C$DW$96, DW_AT_TI_begin_column(0x25)
    1862                    .dwattr $C$DW$96, DW_AT_decl_file("C:/ti/ccs1110/ccs/tools/compiler/ti-cgt-msp430_21.6.1.LTS/i
    1863                    .dwattr $C$DW$96, DW_AT_decl_line(0x178)
    1864                    .dwattr $C$DW$96, DW_AT_decl_column(0x25)
    1865                    .dwattr $C$DW$96, DW_AT_TI_max_frame_size(0x08)
    1866                    .dwpsn  file "C:/ti/ccs1110/ccs/tools/compiler/ti-cgt-msp430_21.6.1.LTS/include/_defs.h",line 
    1867            
    1868                    .dwfde $C$DW$CIE, __isinf
    1869            $C$DW$97        .dwtag  DW_TAG_formal_parameter
    1870                    .dwattr $C$DW$97, DW_AT_name("d")
    1871                    .dwattr $C$DW$97, DW_AT_TI_symbol_name("d")
    1872                    .dwattr $C$DW$97, DW_AT_type(*$C$DW$T$17)
    1873                    .dwattr $C$DW$97, DW_AT_location[DW_OP_reg12 DW_OP_piece 2 DW_OP_reg13 DW_OP_piece 2 DW_OP_reg
    1874            
    1875            
    1876            ;*****************************************************************************
    1877            ;* FUNCTION NAME: __isinf                                                    *
    1878            ;*                                                                           *
    1879            ;*   Regs Modified     : SP,SR,r10,r11,r12,r13,r14,r15                       *
    1880            ;*   Regs Used         : SP,SR,r10,r11,r12,r13,r14,r15                       *
    1881            ;*   Local Frame Size  : 0 Args + 0 Auto + 4 Save = 4 byte                   *
    1882            ;*****************************************************************************
    1883 000000       __isinf:
    1884            ;* --------------------------------------------------------------------------*
    1885                    .dwcfi  cfa_offset, 4
    1886                    .dwcfi  save_reg_to_mem, 16, -4
    1887 000000 140A          PUSHM.A   #1,r10                ; [] 
    1888                    .dwcfi  save_reg_to_mem, 10, -8
    1889                    .dwcfi  cfa_offset, 8
    1890            ;* r11   assigned to $O$S1
    1891                    .dwpsn  file "C:/ti/ccs1110/ccs/tools/compiler/ti-cgt-msp430_21.6.1.LTS/include/_defs.h",line 
    1892 000002 430B          MOV.W     #0,r11                ; [] |377| 
MSP430 Assembler PC v21.6.1 Tue Dec 20 13:46:05 2022

Copyright (c) 2003-2018 Texas Instruments Incorporated
pumps.asm                                                            PAGE   36

    1893 000004 0FCA          MOVA      r15,r10               ; [] |377| 
    1894 000006 F03A          AND.W     #32752,r10            ; [] |377| 
         000008 7FF0 
    1895 00000a 903A          CMP.W     #32752,r10            ; [] |377| 
         00000c 7FF0 
    1896 00000e 200E          JNE       $C$L19                ; [] |377| 
    1897                                                      ; [] |377| 
    1898            ;* --------------------------------------------------------------------------*
    1899 000010 F33C          AND.W     #65535,r12            ; [] |377| 
    1900 000012 F33D          AND.W     #65535,r13            ; [] |377| 
    1901 000014 F33E          AND.W     #65535,r14            ; [] |377| 
    1902 000016 F03F          AND.W     #15,r15               ; [] |377| 
         000018 000F 
    1903 00001a 930F          TST.W     r15                   ; [] |377| 
    1904 00001c 2007          JNE       $C$L19                ; [] |377| 
    1905                                                      ; [] |377| 
    1906            ;* --------------------------------------------------------------------------*
    1907 00001e 930E          TST.W     r14                   ; [] |377| 
    1908 000020 2005          JNE       $C$L19                ; [] |377| 
    1909                                                      ; [] |377| 
    1910            ;* --------------------------------------------------------------------------*
    1911 000022 930D          TST.W     r13                   ; [] |377| 
    1912 000024 2003          JNE       $C$L19                ; [] |377| 
    1913                                                      ; [] |377| 
    1914            ;* --------------------------------------------------------------------------*
    1915 000026 930C          TST.W     r12                   ; [] |377| 
    1916 000028 2001          JNE       $C$L19                ; [] |377| 
    1917                                                      ; [] |377| 
    1918            ;* --------------------------------------------------------------------------*
    1919 00002a 431B          MOV.W     #1,r11                ; [] |377| 
    1920            ;* --------------------------------------------------------------------------*
    1921 00002c       $C$L19:    
    1922 00002c 0BCC          MOVA      r11,r12               ; [] |377| 
    1923                    .dwpsn  file "C:/ti/ccs1110/ccs/tools/compiler/ti-cgt-msp430_21.6.1.LTS/include/_defs.h",line 
    1924 00002e 160A          POPM.A    #1,r10                ; [] 
    1925                    .dwcfi  restore_reg, 10
    1926                    .dwcfi  cfa_offset, 4
    1927            $C$DW$98        .dwtag  DW_TAG_TI_branch
    1928                    .dwattr $C$DW$98, DW_AT_low_pc(0x00)
    1929                    .dwattr $C$DW$98, DW_AT_TI_return
    1930            
    1931 000030 0110          RETA      ; [] 
    1932                    ; [] 
    1933                    .dwattr $C$DW$96, DW_AT_TI_end_file("C:/ti/ccs1110/ccs/tools/compiler/ti-cgt-msp430_21.6.1.LTS
    1934                    .dwattr $C$DW$96, DW_AT_TI_end_line(0x179)
    1935                    .dwattr $C$DW$96, DW_AT_TI_end_column(0x4a)
    1936                    .dwendentry
    1937                    .dwendtag $C$DW$96
    1938            
    1939 000000               .sect   ".text:__isfinitel"
    1940                    .clink
    1941                    .global __isfinitel
    1942            
    1943            $C$DW$99        .dwtag  DW_TAG_subprogram
    1944                    .dwattr $C$DW$99, DW_AT_name("__isfinitel")
MSP430 Assembler PC v21.6.1 Tue Dec 20 13:46:05 2022

Copyright (c) 2003-2018 Texas Instruments Incorporated
pumps.asm                                                            PAGE   37

    1945                    .dwattr $C$DW$99, DW_AT_low_pc(__isfinitel)
    1946                    .dwattr $C$DW$99, DW_AT_high_pc(0x00)
    1947                    .dwattr $C$DW$99, DW_AT_TI_symbol_name("__isfinitel")
    1948                    .dwattr $C$DW$99, DW_AT_external
    1949                    .dwattr $C$DW$99, DW_AT_type(*$C$DW$T$10)
    1950                    .dwattr $C$DW$99, DW_AT_TI_begin_file("C:/ti/ccs1110/ccs/tools/compiler/ti-cgt-msp430_21.6.1.L
    1951                    .dwattr $C$DW$99, DW_AT_TI_begin_line(0x152)
    1952                    .dwattr $C$DW$99, DW_AT_TI_begin_column(0x25)
    1953                    .dwattr $C$DW$99, DW_AT_decl_file("C:/ti/ccs1110/ccs/tools/compiler/ti-cgt-msp430_21.6.1.LTS/i
    1954                    .dwattr $C$DW$99, DW_AT_decl_line(0x152)
    1955                    .dwattr $C$DW$99, DW_AT_decl_column(0x25)
    1956                    .dwattr $C$DW$99, DW_AT_TI_max_frame_size(0x04)
    1957                    .dwpsn  file "C:/ti/ccs1110/ccs/tools/compiler/ti-cgt-msp430_21.6.1.LTS/include/_defs.h",line 
    1958            
    1959                    .dwfde $C$DW$CIE, __isfinitel
    1960            $C$DW$100       .dwtag  DW_TAG_formal_parameter
    1961                    .dwattr $C$DW$100, DW_AT_name("e")
    1962                    .dwattr $C$DW$100, DW_AT_TI_symbol_name("e")
    1963                    .dwattr $C$DW$100, DW_AT_type(*$C$DW$T$18)
    1964                    .dwattr $C$DW$100, DW_AT_location[DW_OP_reg12 DW_OP_piece 2 DW_OP_reg13 DW_OP_piece 2 DW_OP_re
    1965            
    1966            
    1967            ;*****************************************************************************
    1968            ;* FUNCTION NAME: __isfinitel                                                *
    1969            ;*                                                                           *
    1970            ;*   Regs Modified     : SP,SR,r12,r15                                       *
    1971            ;*   Regs Used         : SP,SR,r12,r15                                       *
    1972            ;*   Local Frame Size  : 0 Args + 0 Auto + 0 Save = 0 byte                   *
    1973            ;*****************************************************************************
    1974 000000       __isfinitel:
    1975            ;* --------------------------------------------------------------------------*
    1976                    .dwcfi  cfa_offset, 4
    1977                    .dwcfi  save_reg_to_mem, 16, -4
    1978                    .dwpsn  file "C:/ti/ccs1110/ccs/tools/compiler/ti-cgt-msp430_21.6.1.LTS/include/_defs.h",line 
    1979 000000 430C          MOV.W     #0,r12                ; [] |339| 
    1980 000002 F03F          AND.W     #32752,r15            ; [] |339| 
         000004 7FF0 
    1981 000006 903F          CMP.W     #32752,r15            ; [] |339| 
         000008 7FF0 
    1982 00000a 2401          JEQ       $C$L20                ; [] |339| 
    1983                                                      ; [] |339| 
    1984            ;* --------------------------------------------------------------------------*
    1985 00000c 431C          MOV.W     #1,r12                ; [] |339| 
    1986            ;* --------------------------------------------------------------------------*
    1987 00000e       $C$L20:    
    1988                    .dwpsn  file "C:/ti/ccs1110/ccs/tools/compiler/ti-cgt-msp430_21.6.1.LTS/include/_defs.h",line 
    1989            $C$DW$101       .dwtag  DW_TAG_TI_branch
    1990                    .dwattr $C$DW$101, DW_AT_low_pc(0x00)
    1991                    .dwattr $C$DW$101, DW_AT_TI_return
    1992            
    1993 00000e 0110          RETA      ; [] 
    1994                    ; [] 
    1995                    .dwattr $C$DW$99, DW_AT_TI_end_file("C:/ti/ccs1110/ccs/tools/compiler/ti-cgt-msp430_21.6.1.LTS
    1996                    .dwattr $C$DW$99, DW_AT_TI_end_line(0x153)
    1997                    .dwattr $C$DW$99, DW_AT_TI_end_column(0x2f)
MSP430 Assembler PC v21.6.1 Tue Dec 20 13:46:05 2022

Copyright (c) 2003-2018 Texas Instruments Incorporated
pumps.asm                                                            PAGE   38

    1998                    .dwendentry
    1999                    .dwendtag $C$DW$99
    2000            
    2001 000000               .sect   ".text:__isfinitef"
    2002                    .clink
    2003                    .global __isfinitef
    2004            
    2005            $C$DW$102       .dwtag  DW_TAG_subprogram
    2006                    .dwattr $C$DW$102, DW_AT_name("__isfinitef")
    2007                    .dwattr $C$DW$102, DW_AT_low_pc(__isfinitef)
    2008                    .dwattr $C$DW$102, DW_AT_high_pc(0x00)
    2009                    .dwattr $C$DW$102, DW_AT_TI_symbol_name("__isfinitef")
    2010                    .dwattr $C$DW$102, DW_AT_external
    2011                    .dwattr $C$DW$102, DW_AT_type(*$C$DW$T$10)
    2012                    .dwattr $C$DW$102, DW_AT_TI_begin_file("C:/ti/ccs1110/ccs/tools/compiler/ti-cgt-msp430_21.6.1.
    2013                    .dwattr $C$DW$102, DW_AT_TI_begin_line(0x150)
    2014                    .dwattr $C$DW$102, DW_AT_TI_begin_column(0x25)
    2015                    .dwattr $C$DW$102, DW_AT_decl_file("C:/ti/ccs1110/ccs/tools/compiler/ti-cgt-msp430_21.6.1.LTS/
    2016                    .dwattr $C$DW$102, DW_AT_decl_line(0x150)
    2017                    .dwattr $C$DW$102, DW_AT_decl_column(0x25)
    2018                    .dwattr $C$DW$102, DW_AT_TI_max_frame_size(0x04)
    2019                    .dwpsn  file "C:/ti/ccs1110/ccs/tools/compiler/ti-cgt-msp430_21.6.1.LTS/include/_defs.h",line 
    2020            
    2021                    .dwfde $C$DW$CIE, __isfinitef
    2022            $C$DW$103       .dwtag  DW_TAG_formal_parameter
    2023                    .dwattr $C$DW$103, DW_AT_name("f")
    2024                    .dwattr $C$DW$103, DW_AT_TI_symbol_name("f")
    2025                    .dwattr $C$DW$103, DW_AT_type(*$C$DW$T$16)
    2026                    .dwattr $C$DW$103, DW_AT_location[DW_OP_reg12 DW_OP_piece 2 DW_OP_reg13 DW_OP_piece 2]
    2027            
    2028            
    2029            ;*****************************************************************************
    2030            ;* FUNCTION NAME: __isfinitef                                                *
    2031            ;*                                                                           *
    2032            ;*   Regs Modified     : SP,SR,r12,r13                                       *
    2033            ;*   Regs Used         : SP,SR,r12,r13                                       *
    2034            ;*   Local Frame Size  : 0 Args + 0 Auto + 0 Save = 0 byte                   *
    2035            ;*****************************************************************************
    2036 000000       __isfinitef:
    2037            ;* --------------------------------------------------------------------------*
    2038                    .dwcfi  cfa_offset, 4
    2039                    .dwcfi  save_reg_to_mem, 16, -4
    2040                    .dwpsn  file "C:/ti/ccs1110/ccs/tools/compiler/ti-cgt-msp430_21.6.1.LTS/include/_defs.h",line 
    2041 000000 430C          MOV.W     #0,r12                ; [] |337| 
    2042 000002 F03D          AND.W     #32640,r13            ; [] |337| 
         000004 7F80 
    2043 000006 903D          CMP.W     #32640,r13            ; [] |337| 
         000008 7F80 
    2044 00000a 2401          JEQ       $C$L21                ; [] |337| 
    2045                                                      ; [] |337| 
    2046            ;* --------------------------------------------------------------------------*
    2047 00000c 431C          MOV.W     #1,r12                ; [] |337| 
    2048            ;* --------------------------------------------------------------------------*
    2049 00000e       $C$L21:    
    2050                    .dwpsn  file "C:/ti/ccs1110/ccs/tools/compiler/ti-cgt-msp430_21.6.1.LTS/include/_defs.h",line 
MSP430 Assembler PC v21.6.1 Tue Dec 20 13:46:05 2022

Copyright (c) 2003-2018 Texas Instruments Incorporated
pumps.asm                                                            PAGE   39

    2051            $C$DW$104       .dwtag  DW_TAG_TI_branch
    2052                    .dwattr $C$DW$104, DW_AT_low_pc(0x00)
    2053                    .dwattr $C$DW$104, DW_AT_TI_return
    2054            
    2055 00000e 0110          RETA      ; [] 
    2056                    ; [] 
    2057                    .dwattr $C$DW$102, DW_AT_TI_end_file("C:/ti/ccs1110/ccs/tools/compiler/ti-cgt-msp430_21.6.1.LT
    2058                    .dwattr $C$DW$102, DW_AT_TI_end_line(0x151)
    2059                    .dwattr $C$DW$102, DW_AT_TI_end_column(0x2d)
    2060                    .dwendentry
    2061                    .dwendtag $C$DW$102
    2062            
    2063 000000               .sect   ".text:__isfinite"
    2064                    .clink
    2065                    .global __isfinite
    2066            
    2067            $C$DW$105       .dwtag  DW_TAG_subprogram
    2068                    .dwattr $C$DW$105, DW_AT_name("__isfinite")
    2069                    .dwattr $C$DW$105, DW_AT_low_pc(__isfinite)
    2070                    .dwattr $C$DW$105, DW_AT_high_pc(0x00)
    2071                    .dwattr $C$DW$105, DW_AT_TI_symbol_name("__isfinite")
    2072                    .dwattr $C$DW$105, DW_AT_external
    2073                    .dwattr $C$DW$105, DW_AT_type(*$C$DW$T$10)
    2074                    .dwattr $C$DW$105, DW_AT_TI_begin_file("C:/ti/ccs1110/ccs/tools/compiler/ti-cgt-msp430_21.6.1.
    2075                    .dwattr $C$DW$105, DW_AT_TI_begin_line(0x14e)
    2076                    .dwattr $C$DW$105, DW_AT_TI_begin_column(0x25)
    2077                    .dwattr $C$DW$105, DW_AT_decl_file("C:/ti/ccs1110/ccs/tools/compiler/ti-cgt-msp430_21.6.1.LTS/
    2078                    .dwattr $C$DW$105, DW_AT_decl_line(0x14e)
    2079                    .dwattr $C$DW$105, DW_AT_decl_column(0x25)
    2080                    .dwattr $C$DW$105, DW_AT_TI_max_frame_size(0x04)
    2081                    .dwpsn  file "C:/ti/ccs1110/ccs/tools/compiler/ti-cgt-msp430_21.6.1.LTS/include/_defs.h",line 
    2082            
    2083                    .dwfde $C$DW$CIE, __isfinite
    2084            $C$DW$106       .dwtag  DW_TAG_formal_parameter
    2085                    .dwattr $C$DW$106, DW_AT_name("d")
    2086                    .dwattr $C$DW$106, DW_AT_TI_symbol_name("d")
    2087                    .dwattr $C$DW$106, DW_AT_type(*$C$DW$T$17)
    2088                    .dwattr $C$DW$106, DW_AT_location[DW_OP_reg12 DW_OP_piece 2 DW_OP_reg13 DW_OP_piece 2 DW_OP_re
    2089            
    2090            
    2091            ;*****************************************************************************
    2092            ;* FUNCTION NAME: __isfinite                                                 *
    2093            ;*                                                                           *
    2094            ;*   Regs Modified     : SP,SR,r12,r15                                       *
    2095            ;*   Regs Used         : SP,SR,r12,r15                                       *
    2096            ;*   Local Frame Size  : 0 Args + 0 Auto + 0 Save = 0 byte                   *
    2097            ;*****************************************************************************
    2098 000000       __isfinite:
    2099            ;* --------------------------------------------------------------------------*
    2100                    .dwcfi  cfa_offset, 4
    2101                    .dwcfi  save_reg_to_mem, 16, -4
    2102                    .dwpsn  file "C:/ti/ccs1110/ccs/tools/compiler/ti-cgt-msp430_21.6.1.LTS/include/_defs.h",line 
    2103 000000 430C          MOV.W     #0,r12                ; [] |335| 
    2104 000002 F03F          AND.W     #32752,r15            ; [] |335| 
         000004 7FF0 
MSP430 Assembler PC v21.6.1 Tue Dec 20 13:46:05 2022

Copyright (c) 2003-2018 Texas Instruments Incorporated
pumps.asm                                                            PAGE   40

    2105 000006 903F          CMP.W     #32752,r15            ; [] |335| 
         000008 7FF0 
    2106 00000a 2401          JEQ       $C$L22                ; [] |335| 
    2107                                                      ; [] |335| 
    2108            ;* --------------------------------------------------------------------------*
    2109 00000c 431C          MOV.W     #1,r12                ; [] |335| 
    2110            ;* --------------------------------------------------------------------------*
    2111 00000e       $C$L22:    
    2112                    .dwpsn  file "C:/ti/ccs1110/ccs/tools/compiler/ti-cgt-msp430_21.6.1.LTS/include/_defs.h",line 
    2113            $C$DW$107       .dwtag  DW_TAG_TI_branch
    2114                    .dwattr $C$DW$107, DW_AT_low_pc(0x00)
    2115                    .dwattr $C$DW$107, DW_AT_TI_return
    2116            
    2117 00000e 0110          RETA      ; [] 
    2118                    ; [] 
    2119                    .dwattr $C$DW$105, DW_AT_TI_end_file("C:/ti/ccs1110/ccs/tools/compiler/ti-cgt-msp430_21.6.1.LT
    2120                    .dwattr $C$DW$105, DW_AT_TI_end_line(0x14f)
    2121                    .dwattr $C$DW$105, DW_AT_TI_end_column(0x2e)
    2122                    .dwendentry
    2123                    .dwendtag $C$DW$105
    2124            
    2125 000000               .sect   ".text:__fpclassifyl"
    2126                    .clink
    2127                    .global __fpclassifyl
    2128            
    2129            $C$DW$108       .dwtag  DW_TAG_subprogram
    2130                    .dwattr $C$DW$108, DW_AT_name("__fpclassifyl")
    2131                    .dwattr $C$DW$108, DW_AT_low_pc(__fpclassifyl)
    2132                    .dwattr $C$DW$108, DW_AT_high_pc(0x00)
    2133                    .dwattr $C$DW$108, DW_AT_TI_symbol_name("__fpclassifyl")
    2134                    .dwattr $C$DW$108, DW_AT_external
    2135                    .dwattr $C$DW$108, DW_AT_type(*$C$DW$T$10)
    2136                    .dwattr $C$DW$108, DW_AT_TI_begin_file("C:/ti/ccs1110/ccs/tools/compiler/ti-cgt-msp430_21.6.1.
    2137                    .dwattr $C$DW$108, DW_AT_TI_begin_line(0x1ae)
    2138                    .dwattr $C$DW$108, DW_AT_TI_begin_column(0x25)
    2139                    .dwattr $C$DW$108, DW_AT_decl_file("C:/ti/ccs1110/ccs/tools/compiler/ti-cgt-msp430_21.6.1.LTS/
    2140                    .dwattr $C$DW$108, DW_AT_decl_line(0x1ae)
    2141                    .dwattr $C$DW$108, DW_AT_decl_column(0x25)
    2142                    .dwattr $C$DW$108, DW_AT_TI_max_frame_size(0x20)
    2143                    .dwpsn  file "C:/ti/ccs1110/ccs/tools/compiler/ti-cgt-msp430_21.6.1.LTS/include/_defs.h",line 
    2144            
    2145                    .dwfde $C$DW$CIE, __fpclassifyl
    2146            $C$DW$109       .dwtag  DW_TAG_formal_parameter
    2147                    .dwattr $C$DW$109, DW_AT_name("e")
    2148                    .dwattr $C$DW$109, DW_AT_TI_symbol_name("e")
    2149                    .dwattr $C$DW$109, DW_AT_type(*$C$DW$T$18)
    2150                    .dwattr $C$DW$109, DW_AT_location[DW_OP_reg12 DW_OP_piece 2 DW_OP_reg13 DW_OP_piece 2 DW_OP_re
    2151            
    2152            
    2153            ;*****************************************************************************
    2154            ;* FUNCTION NAME: __fpclassifyl                                              *
    2155            ;*                                                                           *
    2156            ;*   Regs Modified     : SP,SR,r4,r5,r6,r7,r8,r9,r10,r11,r12,r13,r14,r15     *
    2157            ;*   Regs Used         : SP,SR,r4,r5,r6,r7,r8,r9,r10,r11,r12,r13,r14,r15     *
    2158            ;*   Local Frame Size  : 0 Args + 0 Auto + 28 Save = 28 byte                 *
MSP430 Assembler PC v21.6.1 Tue Dec 20 13:46:05 2022

Copyright (c) 2003-2018 Texas Instruments Incorporated
pumps.asm                                                            PAGE   41

    2159            ;*****************************************************************************
    2160 000000       __fpclassifyl:
    2161            ;* --------------------------------------------------------------------------*
    2162                    .dwcfi  cfa_offset, 4
    2163                    .dwcfi  save_reg_to_mem, 16, -4
    2164 000000 146A          PUSHM.A   #7,r10                ; [] 
    2165                    .dwcfi  save_reg_to_mem, 10, -8
    2166                    .dwcfi  save_reg_to_mem, 9, -12
    2167                    .dwcfi  save_reg_to_mem, 8, -16
    2168                    .dwcfi  save_reg_to_mem, 7, -20
    2169                    .dwcfi  save_reg_to_mem, 6, -24
    2170                    .dwcfi  save_reg_to_mem, 5, -28
    2171                    .dwcfi  save_reg_to_mem, 4, -32
    2172                    .dwcfi  cfa_offset, 32
    2173            ;* r4    assigned to e
    2174            $C$DW$110       .dwtag  DW_TAG_variable
    2175                    .dwattr $C$DW$110, DW_AT_name("e")
    2176                    .dwattr $C$DW$110, DW_AT_TI_symbol_name("e")
    2177                    .dwattr $C$DW$110, DW_AT_type(*$C$DW$T$18)
    2178                    .dwattr $C$DW$110, DW_AT_location[DW_OP_reg4 DW_OP_piece 2 DW_OP_reg5 DW_OP_piece 2 DW_OP_reg6
    2179            
    2180 000002 0CC4          MOVA      r12,r4                ; [] |431| 
    2181 000004 0DC5          MOVA      r13,r5                ; [] |431| 
    2182 000006 0EC6          MOVA      r14,r6                ; [] |431| 
    2183 000008 0FC7          MOVA      r15,r7                ; [] |431| 
    2184                    .dwpsn  file "C:/ti/ccs1110/ccs/tools/compiler/ti-cgt-msp430_21.6.1.LTS/include/_defs.h",line 
    2185 00000a F03F          AND.W     #32752,r15            ; [] |436| 
         00000c 7FF0 
    2186 00000e 903F          CMP.W     #32752,r15            ; [] |436| 
         000010 7FF0 
    2187 000012 2011          JNE       $C$L25                ; [] |436| 
    2188                                                      ; [] |436| 
    2189            ;* --------------------------------------------------------------------------*
    2190 000014 F334          AND.W     #65535,r4             ; [] |436| 
    2191 000016 F335          AND.W     #65535,r5             ; [] |436| 
    2192 000018 F336          AND.W     #65535,r6             ; [] |436| 
    2193 00001a F037          AND.W     #15,r7                ; [] |436| 
         00001c 000F 
    2194 00001e 9307          TST.W     r7                    ; [] |436| 
    2195 000020 2006          JNE       $C$L23                ; [] |436| 
    2196                                                      ; [] |436| 
    2197            ;* --------------------------------------------------------------------------*
    2198 000022 9306          TST.W     r6                    ; [] |436| 
    2199 000024 2004          JNE       $C$L23                ; [] |436| 
    2200                                                      ; [] |436| 
    2201            ;* --------------------------------------------------------------------------*
    2202 000026 9305          TST.W     r5                    ; [] |436| 
    2203 000028 2002          JNE       $C$L23                ; [] |436| 
    2204                                                      ; [] |436| 
    2205            ;* --------------------------------------------------------------------------*
    2206 00002a 9304          TST.W     r4                    ; [] |436| 
    2207 00002c 2402          JEQ       $C$L24                ; [] |436| 
    2208                                                      ; [] |436| 
    2209            ;* --------------------------------------------------------------------------*
    2210 00002e       $C$L23:    
MSP430 Assembler PC v21.6.1 Tue Dec 20 13:46:05 2022

Copyright (c) 2003-2018 Texas Instruments Incorporated
pumps.asm                                                            PAGE   42

    2211 00002e 432C          MOV.W     #2,r12                ; [] |436| 
    2212 000030 3C2A          JMP       $C$L30                ; [] |436| 
    2213                                                      ; [] |436| 
    2214            ;* --------------------------------------------------------------------------*
    2215 000032       $C$L24:    
    2216 000032 431C          MOV.W     #1,r12                ; [] |436| 
    2217 000034 3C28          JMP       $C$L30                ; [] |436| 
    2218                                                      ; [] |436| 
    2219            ;* --------------------------------------------------------------------------*
    2220 000036       $C$L25:    
    2221 000036 04C8          MOVA      r4,r8                 ; [] |436| 
    2222 000038 05C9          MOVA      r5,r9                 ; [] |436| 
    2223 00003a 06CA          MOVA      r6,r10                ; [] |436| 
    2224 00003c 07CB          MOVA      r7,r11                ; [] |436| 
    2225 00003e 403C          MOV.W     #52,r12               ; [] |436| 
         000040 0034 
    2226            $C$DW$111       .dwtag  DW_TAG_TI_branch
    2227                    .dwattr $C$DW$111, DW_AT_low_pc(0x00)
    2228                    .dwattr $C$DW$111, DW_AT_name("__mspabi_srlll")
    2229                    .dwattr $C$DW$111, DW_AT_TI_call
    2230            
    2231 000042 13B0!         CALLA     #__mspabi_srlll       ; [] |436| 
         000044 0000 
    2232                                                      ; [] |436| 
    2233 000046 F03C          AND.W     #2047,r12             ; [] |436| 
         000048 07FF 
    2234 00004a F30D          AND.W     #0,r13                ; [] |436| 
    2235 00004c F30E          AND.W     #0,r14                ; [] |436| 
    2236 00004e F30F          AND.W     #0,r15                ; [] |436| 
    2237 000050 930F          TST.W     r15                   ; [] |436| 
    2238 000052 2006          JNE       $C$L26                ; [] |436| 
    2239                                                      ; [] |436| 
    2240            ;* --------------------------------------------------------------------------*
    2241 000054 930E          TST.W     r14                   ; [] |436| 
    2242 000056 2004          JNE       $C$L26                ; [] |436| 
    2243                                                      ; [] |436| 
    2244            ;* --------------------------------------------------------------------------*
    2245 000058 930D          TST.W     r13                   ; [] |436| 
    2246 00005a 2002          JNE       $C$L26                ; [] |436| 
    2247                                                      ; [] |436| 
    2248            ;* --------------------------------------------------------------------------*
    2249 00005c 930C          TST.W     r12                   ; [] |436| 
    2250 00005e 2402          JEQ       $C$L27                ; [] |436| 
    2251                                                      ; [] |436| 
    2252            ;* --------------------------------------------------------------------------*
    2253 000060       $C$L26:    
    2254 000060 433C          MOV.W     #-1,r12               ; [] |436| 
    2255 000062 3C11          JMP       $C$L30                ; [] |436| 
    2256                                                      ; [] |436| 
    2257            ;* --------------------------------------------------------------------------*
    2258 000064       $C$L27:    
    2259 000064 F334          AND.W     #65535,r4             ; [] |436| 
    2260 000066 F335          AND.W     #65535,r5             ; [] |436| 
    2261 000068 F336          AND.W     #65535,r6             ; [] |436| 
    2262 00006a F037          AND.W     #15,r7                ; [] |436| 
MSP430 Assembler PC v21.6.1 Tue Dec 20 13:46:05 2022

Copyright (c) 2003-2018 Texas Instruments Incorporated
pumps.asm                                                            PAGE   43

         00006c 000F 
    2263 00006e 9307          TST.W     r7                    ; [] |436| 
    2264 000070 2006          JNE       $C$L28                ; [] |436| 
    2265                                                      ; [] |436| 
    2266            ;* --------------------------------------------------------------------------*
    2267 000072 9306          TST.W     r6                    ; [] |436| 
    2268 000074 2004          JNE       $C$L28                ; [] |436| 
    2269                                                      ; [] |436| 
    2270            ;* --------------------------------------------------------------------------*
    2271 000076 9305          TST.W     r5                    ; [] |436| 
    2272 000078 2002          JNE       $C$L28                ; [] |436| 
    2273                                                      ; [] |436| 
    2274            ;* --------------------------------------------------------------------------*
    2275 00007a 9304          TST.W     r4                    ; [] |436| 
    2276 00007c 2403          JEQ       $C$L29                ; [] |436| 
    2277                                                      ; [] |436| 
    2278            ;* --------------------------------------------------------------------------*
    2279 00007e       $C$L28:    
    2280 00007e 403C          MOV.W     #65534,r12            ; [] |436| 
         000080 FFFE 
    2281 000082 3C01          JMP       $C$L30                ; [] |436| 
    2282                                                      ; [] |436| 
    2283            ;* --------------------------------------------------------------------------*
    2284 000084       $C$L29:    
    2285 000084 430C          MOV.W     #0,r12                ; [] |436| 
    2286            ;* --------------------------------------------------------------------------*
    2287 000086       $C$L30:    
    2288                    .dwpsn  file "C:/ti/ccs1110/ccs/tools/compiler/ti-cgt-msp430_21.6.1.LTS/include/_defs.h",line 
    2289 000086 1664          POPM.A    #7,r10                ; [] 
    2290                    .dwcfi  restore_reg, 4
    2291                    .dwcfi  restore_reg, 5
    2292                    .dwcfi  restore_reg, 6
    2293                    .dwcfi  restore_reg, 7
    2294                    .dwcfi  restore_reg, 8
    2295                    .dwcfi  restore_reg, 9
    2296                    .dwcfi  restore_reg, 10
    2297                    .dwcfi  cfa_offset, 4
    2298            $C$DW$112       .dwtag  DW_TAG_TI_branch
    2299                    .dwattr $C$DW$112, DW_AT_low_pc(0x00)
    2300                    .dwattr $C$DW$112, DW_AT_TI_return
    2301            
    2302 000088 0110          RETA      ; [] 
    2303                    ; [] 
    2304                    .dwattr $C$DW$108, DW_AT_TI_end_file("C:/ti/ccs1110/ccs/tools/compiler/ti-cgt-msp430_21.6.1.LT
    2305                    .dwattr $C$DW$108, DW_AT_TI_end_line(0x1bd)
    2306                    .dwattr $C$DW$108, DW_AT_TI_end_column(0x01)
    2307                    .dwendentry
    2308                    .dwendtag $C$DW$108
    2309            
    2310 000000               .sect   ".text:__fpclassifyf"
    2311                    .clink
    2312                    .global __fpclassifyf
    2313            
    2314            $C$DW$113       .dwtag  DW_TAG_subprogram
    2315                    .dwattr $C$DW$113, DW_AT_name("__fpclassifyf")
MSP430 Assembler PC v21.6.1 Tue Dec 20 13:46:05 2022

Copyright (c) 2003-2018 Texas Instruments Incorporated
pumps.asm                                                            PAGE   44

    2316                    .dwattr $C$DW$113, DW_AT_low_pc(__fpclassifyf)
    2317                    .dwattr $C$DW$113, DW_AT_high_pc(0x00)
    2318                    .dwattr $C$DW$113, DW_AT_TI_symbol_name("__fpclassifyf")
    2319                    .dwattr $C$DW$113, DW_AT_external
    2320                    .dwattr $C$DW$113, DW_AT_type(*$C$DW$T$10)
    2321                    .dwattr $C$DW$113, DW_AT_TI_begin_file("C:/ti/ccs1110/ccs/tools/compiler/ti-cgt-msp430_21.6.1.
    2322                    .dwattr $C$DW$113, DW_AT_TI_begin_line(0x18c)
    2323                    .dwattr $C$DW$113, DW_AT_TI_begin_column(0x25)
    2324                    .dwattr $C$DW$113, DW_AT_decl_file("C:/ti/ccs1110/ccs/tools/compiler/ti-cgt-msp430_21.6.1.LTS/
    2325                    .dwattr $C$DW$113, DW_AT_decl_line(0x18c)
    2326                    .dwattr $C$DW$113, DW_AT_decl_column(0x25)
    2327                    .dwattr $C$DW$113, DW_AT_TI_max_frame_size(0x04)
    2328                    .dwpsn  file "C:/ti/ccs1110/ccs/tools/compiler/ti-cgt-msp430_21.6.1.LTS/include/_defs.h",line 
    2329            
    2330                    .dwfde $C$DW$CIE, __fpclassifyf
    2331            $C$DW$114       .dwtag  DW_TAG_formal_parameter
    2332                    .dwattr $C$DW$114, DW_AT_name("f")
    2333                    .dwattr $C$DW$114, DW_AT_TI_symbol_name("f")
    2334                    .dwattr $C$DW$114, DW_AT_type(*$C$DW$T$16)
    2335                    .dwattr $C$DW$114, DW_AT_location[DW_OP_reg12 DW_OP_piece 2 DW_OP_reg13 DW_OP_piece 2]
    2336            
    2337            
    2338            ;*****************************************************************************
    2339            ;* FUNCTION NAME: __fpclassifyf                                              *
    2340            ;*                                                                           *
    2341            ;*   Regs Modified     : SP,SR,r12,r13,r15                                   *
    2342            ;*   Regs Used         : SP,SR,r12,r13,r15                                   *
    2343            ;*   Local Frame Size  : 0 Args + 0 Auto + 0 Save = 0 byte                   *
    2344            ;*****************************************************************************
    2345 000000       __fpclassifyf:
    2346            ;* --------------------------------------------------------------------------*
    2347                    .dwcfi  cfa_offset, 4
    2348                    .dwcfi  save_reg_to_mem, 16, -4
    2349                    .dwpsn  file "C:/ti/ccs1110/ccs/tools/compiler/ti-cgt-msp430_21.6.1.LTS/include/_defs.h",line 
    2350 000000 0DCF          MOVA      r13,r15               ; [] |402| 
    2351 000002 F03F          AND.W     #32640,r15            ; [] |402| 
         000004 7F80 
    2352 000006 903F          CMP.W     #32640,r15            ; [] |402| 
         000008 7F80 
    2353 00000a 200B          JNE       $C$L33                ; [] |402| 
    2354                                                      ; [] |402| 
    2355            ;* --------------------------------------------------------------------------*
    2356 00000c F33C          AND.W     #65535,r12            ; [] |402| 
    2357 00000e F03D          AND.W     #127,r13              ; [] |402| 
         000010 007F 
    2358 000012 930D          TST.W     r13                   ; [] |402| 
    2359 000014 2002          JNE       $C$L31                ; [] |402| 
    2360                                                      ; [] |402| 
    2361            ;* --------------------------------------------------------------------------*
    2362 000016 930C          TST.W     r12                   ; [] |402| 
    2363 000018 2402          JEQ       $C$L32                ; [] |402| 
    2364                                                      ; [] |402| 
    2365            ;* --------------------------------------------------------------------------*
    2366 00001a       $C$L31:    
    2367 00001a 432C          MOV.W     #2,r12                ; [] |402| 
MSP430 Assembler PC v21.6.1 Tue Dec 20 13:46:05 2022

Copyright (c) 2003-2018 Texas Instruments Incorporated
pumps.asm                                                            PAGE   45

    2368 00001c 3C15          JMP       $C$L37                ; [] |402| 
    2369                                                      ; [] |402| 
    2370            ;* --------------------------------------------------------------------------*
    2371 00001e       $C$L32:    
    2372 00001e 431C          MOV.W     #1,r12                ; [] |402| 
    2373 000020 3C13          JMP       $C$L37                ; [] |402| 
    2374                                                      ; [] |402| 
    2375            ;* --------------------------------------------------------------------------*
    2376 000022       $C$L33:    
    2377 000022 0DCF          MOVA      r13,r15               ; [] |402| 
    2378 000024 1946          RPT #7 || RRUX.W r15 ; [] |402| 
         000026 100F 
    2379 000028 B03F          BIT.W     #255,r15              ; [] |402| 
         00002a 00FF 
    2380 00002c 2402          JEQ       $C$L34                ; [] |402| 
    2381                                                      ; [] |402| 
    2382            ;* --------------------------------------------------------------------------*
    2383 00002e 433C          MOV.W     #-1,r12               ; [] |402| 
    2384 000030 3C0B          JMP       $C$L37                ; [] |402| 
    2385                                                      ; [] |402| 
    2386            ;* --------------------------------------------------------------------------*
    2387 000032       $C$L34:    
    2388 000032 F33C          AND.W     #65535,r12            ; [] |402| 
    2389 000034 F03D          AND.W     #127,r13              ; [] |402| 
         000036 007F 
    2390 000038 930D          TST.W     r13                   ; [] |402| 
    2391 00003a 2002          JNE       $C$L35                ; [] |402| 
    2392                                                      ; [] |402| 
    2393            ;* --------------------------------------------------------------------------*
    2394 00003c 930C          TST.W     r12                   ; [] |402| 
    2395 00003e 2403          JEQ       $C$L36                ; [] |402| 
    2396                                                      ; [] |402| 
    2397            ;* --------------------------------------------------------------------------*
    2398 000040       $C$L35:    
    2399 000040 403C          MOV.W     #65534,r12            ; [] |402| 
         000042 FFFE 
    2400 000044 3C01          JMP       $C$L37                ; [] |402| 
    2401                                                      ; [] |402| 
    2402            ;* --------------------------------------------------------------------------*
    2403 000046       $C$L36:    
    2404 000046 430C          MOV.W     #0,r12                ; [] |402| 
    2405            ;* --------------------------------------------------------------------------*
    2406 000048       $C$L37:    
    2407                    .dwpsn  file "C:/ti/ccs1110/ccs/tools/compiler/ti-cgt-msp430_21.6.1.LTS/include/_defs.h",line 
    2408            $C$DW$115       .dwtag  DW_TAG_TI_branch
    2409                    .dwattr $C$DW$115, DW_AT_low_pc(0x00)
    2410                    .dwattr $C$DW$115, DW_AT_TI_return
    2411            
    2412 000048 0110          RETA      ; [] 
    2413                    ; [] 
    2414                    .dwattr $C$DW$113, DW_AT_TI_end_file("C:/ti/ccs1110/ccs/tools/compiler/ti-cgt-msp430_21.6.1.LT
    2415                    .dwattr $C$DW$113, DW_AT_TI_end_line(0x19b)
    2416                    .dwattr $C$DW$113, DW_AT_TI_end_column(0x01)
    2417                    .dwendentry
    2418                    .dwendtag $C$DW$113
MSP430 Assembler PC v21.6.1 Tue Dec 20 13:46:05 2022

Copyright (c) 2003-2018 Texas Instruments Incorporated
pumps.asm                                                            PAGE   46

    2419            
    2420 000000               .sect   ".text:__fpclassify"
    2421                    .clink
    2422                    .global __fpclassify
    2423            
    2424            $C$DW$116       .dwtag  DW_TAG_subprogram
    2425                    .dwattr $C$DW$116, DW_AT_name("__fpclassify")
    2426                    .dwattr $C$DW$116, DW_AT_low_pc(__fpclassify)
    2427                    .dwattr $C$DW$116, DW_AT_high_pc(0x00)
    2428                    .dwattr $C$DW$116, DW_AT_TI_symbol_name("__fpclassify")
    2429                    .dwattr $C$DW$116, DW_AT_external
    2430                    .dwattr $C$DW$116, DW_AT_type(*$C$DW$T$10)
    2431                    .dwattr $C$DW$116, DW_AT_TI_begin_file("C:/ti/ccs1110/ccs/tools/compiler/ti-cgt-msp430_21.6.1.
    2432                    .dwattr $C$DW$116, DW_AT_TI_begin_line(0x19d)
    2433                    .dwattr $C$DW$116, DW_AT_TI_begin_column(0x25)
    2434                    .dwattr $C$DW$116, DW_AT_decl_file("C:/ti/ccs1110/ccs/tools/compiler/ti-cgt-msp430_21.6.1.LTS/
    2435                    .dwattr $C$DW$116, DW_AT_decl_line(0x19d)
    2436                    .dwattr $C$DW$116, DW_AT_decl_column(0x25)
    2437                    .dwattr $C$DW$116, DW_AT_TI_max_frame_size(0x20)
    2438                    .dwpsn  file "C:/ti/ccs1110/ccs/tools/compiler/ti-cgt-msp430_21.6.1.LTS/include/_defs.h",line 
    2439            
    2440                    .dwfde $C$DW$CIE, __fpclassify
    2441            $C$DW$117       .dwtag  DW_TAG_formal_parameter
    2442                    .dwattr $C$DW$117, DW_AT_name("d")
    2443                    .dwattr $C$DW$117, DW_AT_TI_symbol_name("d")
    2444                    .dwattr $C$DW$117, DW_AT_type(*$C$DW$T$17)
    2445                    .dwattr $C$DW$117, DW_AT_location[DW_OP_reg12 DW_OP_piece 2 DW_OP_reg13 DW_OP_piece 2 DW_OP_re
    2446            
    2447            
    2448            ;*****************************************************************************
    2449            ;* FUNCTION NAME: __fpclassify                                               *
    2450            ;*                                                                           *
    2451            ;*   Regs Modified     : SP,SR,r4,r5,r6,r7,r8,r9,r10,r11,r12,r13,r14,r15     *
    2452            ;*   Regs Used         : SP,SR,r4,r5,r6,r7,r8,r9,r10,r11,r12,r13,r14,r15     *
    2453            ;*   Local Frame Size  : 0 Args + 0 Auto + 28 Save = 28 byte                 *
    2454            ;*****************************************************************************
    2455 000000       __fpclassify:
    2456            ;* --------------------------------------------------------------------------*
    2457                    .dwcfi  cfa_offset, 4
    2458                    .dwcfi  save_reg_to_mem, 16, -4
    2459 000000 146A          PUSHM.A   #7,r10                ; [] 
    2460                    .dwcfi  save_reg_to_mem, 10, -8
    2461                    .dwcfi  save_reg_to_mem, 9, -12
    2462                    .dwcfi  save_reg_to_mem, 8, -16
    2463                    .dwcfi  save_reg_to_mem, 7, -20
    2464                    .dwcfi  save_reg_to_mem, 6, -24
    2465                    .dwcfi  save_reg_to_mem, 5, -28
    2466                    .dwcfi  save_reg_to_mem, 4, -32
    2467                    .dwcfi  cfa_offset, 32
    2468            ;* r4    assigned to d
    2469            $C$DW$118       .dwtag  DW_TAG_variable
    2470                    .dwattr $C$DW$118, DW_AT_name("d")
    2471                    .dwattr $C$DW$118, DW_AT_TI_symbol_name("d")
    2472                    .dwattr $C$DW$118, DW_AT_type(*$C$DW$T$17)
    2473                    .dwattr $C$DW$118, DW_AT_location[DW_OP_reg4 DW_OP_piece 2 DW_OP_reg5 DW_OP_piece 2 DW_OP_reg6
MSP430 Assembler PC v21.6.1 Tue Dec 20 13:46:05 2022

Copyright (c) 2003-2018 Texas Instruments Incorporated
pumps.asm                                                            PAGE   47

    2474            
    2475 000002 0CC4          MOVA      r12,r4                ; [] |414| 
    2476 000004 0DC5          MOVA      r13,r5                ; [] |414| 
    2477 000006 0EC6          MOVA      r14,r6                ; [] |414| 
    2478 000008 0FC7          MOVA      r15,r7                ; [] |414| 
    2479                    .dwpsn  file "C:/ti/ccs1110/ccs/tools/compiler/ti-cgt-msp430_21.6.1.LTS/include/_defs.h",line 
    2480 00000a F03F          AND.W     #32752,r15            ; [] |419| 
         00000c 7FF0 
    2481 00000e 903F          CMP.W     #32752,r15            ; [] |419| 
         000010 7FF0 
    2482 000012 2011          JNE       $C$L40                ; [] |419| 
    2483                                                      ; [] |419| 
    2484            ;* --------------------------------------------------------------------------*
    2485 000014 F334          AND.W     #65535,r4             ; [] |419| 
    2486 000016 F335          AND.W     #65535,r5             ; [] |419| 
    2487 000018 F336          AND.W     #65535,r6             ; [] |419| 
    2488 00001a F037          AND.W     #15,r7                ; [] |419| 
         00001c 000F 
    2489 00001e 9307          TST.W     r7                    ; [] |419| 
    2490 000020 2006          JNE       $C$L38                ; [] |419| 
    2491                                                      ; [] |419| 
    2492            ;* --------------------------------------------------------------------------*
    2493 000022 9306          TST.W     r6                    ; [] |419| 
    2494 000024 2004          JNE       $C$L38                ; [] |419| 
    2495                                                      ; [] |419| 
    2496            ;* --------------------------------------------------------------------------*
    2497 000026 9305          TST.W     r5                    ; [] |419| 
    2498 000028 2002          JNE       $C$L38                ; [] |419| 
    2499                                                      ; [] |419| 
    2500            ;* --------------------------------------------------------------------------*
    2501 00002a 9304          TST.W     r4                    ; [] |419| 
    2502 00002c 2402          JEQ       $C$L39                ; [] |419| 
    2503                                                      ; [] |419| 
    2504            ;* --------------------------------------------------------------------------*
    2505 00002e       $C$L38:    
    2506 00002e 432C          MOV.W     #2,r12                ; [] |419| 
    2507 000030 3C2A          JMP       $C$L45                ; [] |419| 
    2508                                                      ; [] |419| 
    2509            ;* --------------------------------------------------------------------------*
    2510 000032       $C$L39:    
    2511 000032 431C          MOV.W     #1,r12                ; [] |419| 
    2512 000034 3C28          JMP       $C$L45                ; [] |419| 
    2513                                                      ; [] |419| 
    2514            ;* --------------------------------------------------------------------------*
    2515 000036       $C$L40:    
    2516 000036 04C8          MOVA      r4,r8                 ; [] |419| 
    2517 000038 05C9          MOVA      r5,r9                 ; [] |419| 
    2518 00003a 06CA          MOVA      r6,r10                ; [] |419| 
    2519 00003c 07CB          MOVA      r7,r11                ; [] |419| 
    2520 00003e 403C          MOV.W     #52,r12               ; [] |419| 
         000040 0034 
    2521            $C$DW$119       .dwtag  DW_TAG_TI_branch
    2522                    .dwattr $C$DW$119, DW_AT_low_pc(0x00)
    2523                    .dwattr $C$DW$119, DW_AT_name("__mspabi_srlll")
    2524                    .dwattr $C$DW$119, DW_AT_TI_call
MSP430 Assembler PC v21.6.1 Tue Dec 20 13:46:05 2022

Copyright (c) 2003-2018 Texas Instruments Incorporated
pumps.asm                                                            PAGE   48

    2525            
    2526 000042 13B0!         CALLA     #__mspabi_srlll       ; [] |419| 
         000044 0000 
    2527                                                      ; [] |419| 
    2528 000046 F03C          AND.W     #2047,r12             ; [] |419| 
         000048 07FF 
    2529 00004a F30D          AND.W     #0,r13                ; [] |419| 
    2530 00004c F30E          AND.W     #0,r14                ; [] |419| 
    2531 00004e F30F          AND.W     #0,r15                ; [] |419| 
    2532 000050 930F          TST.W     r15                   ; [] |419| 
    2533 000052 2006          JNE       $C$L41                ; [] |419| 
    2534                                                      ; [] |419| 
    2535            ;* --------------------------------------------------------------------------*
    2536 000054 930E          TST.W     r14                   ; [] |419| 
    2537 000056 2004          JNE       $C$L41                ; [] |419| 
    2538                                                      ; [] |419| 
    2539            ;* --------------------------------------------------------------------------*
    2540 000058 930D          TST.W     r13                   ; [] |419| 
    2541 00005a 2002          JNE       $C$L41                ; [] |419| 
    2542                                                      ; [] |419| 
    2543            ;* --------------------------------------------------------------------------*
    2544 00005c 930C          TST.W     r12                   ; [] |419| 
    2545 00005e 2402          JEQ       $C$L42                ; [] |419| 
    2546                                                      ; [] |419| 
    2547            ;* --------------------------------------------------------------------------*
    2548 000060       $C$L41:    
    2549 000060 433C          MOV.W     #-1,r12               ; [] |419| 
    2550 000062 3C11          JMP       $C$L45                ; [] |419| 
    2551                                                      ; [] |419| 
    2552            ;* --------------------------------------------------------------------------*
    2553 000064       $C$L42:    
    2554 000064 F334          AND.W     #65535,r4             ; [] |419| 
    2555 000066 F335          AND.W     #65535,r5             ; [] |419| 
    2556 000068 F336          AND.W     #65535,r6             ; [] |419| 
    2557 00006a F037          AND.W     #15,r7                ; [] |419| 
         00006c 000F 
    2558 00006e 9307          TST.W     r7                    ; [] |419| 
    2559 000070 2006          JNE       $C$L43                ; [] |419| 
    2560                                                      ; [] |419| 
    2561            ;* --------------------------------------------------------------------------*
    2562 000072 9306          TST.W     r6                    ; [] |419| 
    2563 000074 2004          JNE       $C$L43                ; [] |419| 
    2564                                                      ; [] |419| 
    2565            ;* --------------------------------------------------------------------------*
    2566 000076 9305          TST.W     r5                    ; [] |419| 
    2567 000078 2002          JNE       $C$L43                ; [] |419| 
    2568                                                      ; [] |419| 
    2569            ;* --------------------------------------------------------------------------*
    2570 00007a 9304          TST.W     r4                    ; [] |419| 
    2571 00007c 2403          JEQ       $C$L44                ; [] |419| 
    2572                                                      ; [] |419| 
    2573            ;* --------------------------------------------------------------------------*
    2574 00007e       $C$L43:    
    2575 00007e 403C          MOV.W     #65534,r12            ; [] |419| 
         000080 FFFE 
MSP430 Assembler PC v21.6.1 Tue Dec 20 13:46:05 2022

Copyright (c) 2003-2018 Texas Instruments Incorporated
pumps.asm                                                            PAGE   49

    2576 000082 3C01          JMP       $C$L45                ; [] |419| 
    2577                                                      ; [] |419| 
    2578            ;* --------------------------------------------------------------------------*
    2579 000084       $C$L44:    
    2580 000084 430C          MOV.W     #0,r12                ; [] |419| 
    2581            ;* --------------------------------------------------------------------------*
    2582 000086       $C$L45:    
    2583                    .dwpsn  file "C:/ti/ccs1110/ccs/tools/compiler/ti-cgt-msp430_21.6.1.LTS/include/_defs.h",line 
    2584 000086 1664          POPM.A    #7,r10                ; [] 
    2585                    .dwcfi  restore_reg, 4
    2586                    .dwcfi  restore_reg, 5
    2587                    .dwcfi  restore_reg, 6
    2588                    .dwcfi  restore_reg, 7
    2589                    .dwcfi  restore_reg, 8
    2590                    .dwcfi  restore_reg, 9
    2591                    .dwcfi  restore_reg, 10
    2592                    .dwcfi  cfa_offset, 4
    2593            $C$DW$120       .dwtag  DW_TAG_TI_branch
    2594                    .dwattr $C$DW$120, DW_AT_low_pc(0x00)
    2595                    .dwattr $C$DW$120, DW_AT_TI_return
    2596            
    2597 000088 0110          RETA      ; [] 
    2598                    ; [] 
    2599                    .dwattr $C$DW$116, DW_AT_TI_end_file("C:/ti/ccs1110/ccs/tools/compiler/ti-cgt-msp430_21.6.1.LT
    2600                    .dwattr $C$DW$116, DW_AT_TI_end_line(0x1ac)
    2601                    .dwattr $C$DW$116, DW_AT_TI_end_column(0x01)
    2602                    .dwendentry
    2603                    .dwendtag $C$DW$116
    2604            
    2605 000000               .sect   ".text:Set_Fuel_Pumps"
    2606                    .clink
    2607                    .global Set_Fuel_Pumps
    2608            
    2609            $C$DW$121       .dwtag  DW_TAG_subprogram
    2610                    .dwattr $C$DW$121, DW_AT_name("Set_Fuel_Pumps")
    2611                    .dwattr $C$DW$121, DW_AT_low_pc(Set_Fuel_Pumps)
    2612                    .dwattr $C$DW$121, DW_AT_high_pc(0x00)
    2613                    .dwattr $C$DW$121, DW_AT_TI_symbol_name("Set_Fuel_Pumps")
    2614                    .dwattr $C$DW$121, DW_AT_external
    2615                    .dwattr $C$DW$121, DW_AT_TI_begin_file("../src/pumps.c")
    2616                    .dwattr $C$DW$121, DW_AT_TI_begin_line(0x71)
    2617                    .dwattr $C$DW$121, DW_AT_TI_begin_column(0x06)
    2618                    .dwattr $C$DW$121, DW_AT_decl_file("../src/pumps.c")
    2619                    .dwattr $C$DW$121, DW_AT_decl_line(0x71)
    2620                    .dwattr $C$DW$121, DW_AT_decl_column(0x06)
    2621                    .dwattr $C$DW$121, DW_AT_TI_max_frame_size(0x10)
    2622                    .dwpsn  file "../src/pumps.c",line 114,column 1,is_stmt,address Set_Fuel_Pumps,isa 0
    2623            
    2624                    .dwfde $C$DW$CIE, Set_Fuel_Pumps
    2625            
    2626            ;*****************************************************************************
    2627            ;* FUNCTION NAME: Set_Fuel_Pumps                                             *
    2628            ;*                                                                           *
    2629            ;*   Regs Modified     : SP,SR,r8,r9,r10,r11,r12,r13,r14,r15                 *
    2630            ;*   Regs Used         : SP,SR,r8,r9,r10,r11,r12,r13,r14,r15                 *
MSP430 Assembler PC v21.6.1 Tue Dec 20 13:46:05 2022

Copyright (c) 2003-2018 Texas Instruments Incorporated
pumps.asm                                                            PAGE   50

    2631            ;*   Local Frame Size  : 0 Args + 0 Auto + 12 Save = 12 byte                 *
    2632            ;*****************************************************************************
    2633 000000       Set_Fuel_Pumps:
    2634            ;* --------------------------------------------------------------------------*
    2635                    .dwcfi  cfa_offset, 4
    2636                    .dwcfi  save_reg_to_mem, 16, -4
    2637 000000 142A          PUSHM.A   #3,r10                ; [] 
    2638                    .dwcfi  save_reg_to_mem, 10, -8
    2639                    .dwcfi  save_reg_to_mem, 9, -12
    2640                    .dwcfi  save_reg_to_mem, 8, -16
    2641                    .dwcfi  cfa_offset, 16
    2642                    .dwpsn  file "../src/pumps.c",line 120,column 3,is_stmt,isa 0
    2643 000002 93C2          TST.B     &system_calibration+0 ; [] |120| 
         000004 0000!
    2644 000006 2062          JNE       $C$L51                ; [] |120| 
    2645                                                      ; [] |120| 
    2646            ;* --------------------------------------------------------------------------*
    2647                    .dwpsn  file "../src/pumps.c",line 163,column 5,is_stmt,isa 0
    2648 000008 421C          MOV.W     &FC_Burner_Methanol_flow+0,r12 ; [] |163| 
         00000a 0000!
    2649 00000c 421D          MOV.W     &FC_Burner_Methanol_flow+2,r13 ; [] |163| 
         00000e 0002!
    2650 000010 430E          MOV.W     #0,r14                ; [] |163| 
    2651 000012 403F          MOV.W     #16256,r15            ; [] |163| 
         000014 3F80 
    2652            $C$DW$122       .dwtag  DW_TAG_TI_branch
    2653                    .dwattr $C$DW$122, DW_AT_low_pc(0x00)
    2654                    .dwattr $C$DW$122, DW_AT_name("__mspabi_cmpf")
    2655                    .dwattr $C$DW$122, DW_AT_TI_call
    2656            
    2657 000016 13B0!         CALLA     #__mspabi_cmpf        ; [] |163| 
         000018 0000 
    2658                                                      ; [] |163| 
    2659 00001a 930C          TST.W     r12                   ; [] |163| 
    2660 00001c 3854          JL        $C$L50                ; [] |163| 
    2661                                                      ; [] |163| 
    2662            ;* --------------------------------------------------------------------------*
    2663                    .dwpsn  file "../src/pumps.c",line 168,column 13,is_stmt,isa 0
    2664 00001e 421C          MOV.W     &PUMP1_cal+0,r12      ; [] |168| 
         000020 0000!
    2665 000022 421D          MOV.W     &PUMP1_cal+2,r13      ; [] |168| 
         000024 0002!
    2666 000026 421E          MOV.W     &FC_Burner_Methanol_flow+0,r14 ; [] |168| 
         000028 0000!
    2667 00002a 421F          MOV.W     &FC_Burner_Methanol_flow+2,r15 ; [] |168| 
         00002c 0002!
    2668            $C$DW$123       .dwtag  DW_TAG_TI_branch
    2669                    .dwattr $C$DW$123, DW_AT_low_pc(0x00)
    2670                    .dwattr $C$DW$123, DW_AT_name("__mspabi_mpyf")
    2671                    .dwattr $C$DW$123, DW_AT_TI_call
    2672            
    2673 00002e 13B0!         CALLA     #__mspabi_mpyf        ; [] |168| 
         000030 0000 
    2674                                                      ; [] |168| 
    2675            $C$DW$124       .dwtag  DW_TAG_TI_branch
MSP430 Assembler PC v21.6.1 Tue Dec 20 13:46:05 2022

Copyright (c) 2003-2018 Texas Instruments Incorporated
pumps.asm                                                            PAGE   51

    2676                    .dwattr $C$DW$124, DW_AT_low_pc(0x00)
    2677                    .dwattr $C$DW$124, DW_AT_name("__mspabi_cvtfd")
    2678                    .dwattr $C$DW$124, DW_AT_TI_call
    2679            
    2680 000032 13B0!         CALLA     #__mspabi_cvtfd       ; [] |168| 
         000034 0000 
    2681                                                      ; [] |168| 
    2682 000036 4308          MOV.W     #0,r8                 ; [] |168| 
    2683 000038 4309          MOV.W     #0,r9                 ; [] |168| 
    2684 00003a 403A          MOV.W     #16384,r10            ; [] |168| 
         00003c 4000 
    2685 00003e 403B          MOV.W     #16527,r11            ; [] |168| 
         000040 408F 
    2686            $C$DW$125       .dwtag  DW_TAG_TI_branch
    2687                    .dwattr $C$DW$125, DW_AT_low_pc(0x00)
    2688                    .dwattr $C$DW$125, DW_AT_name("__mspabi_divd")
    2689                    .dwattr $C$DW$125, DW_AT_TI_call
    2690            
    2691 000042 13B0!         CALLA     #__mspabi_divd        ; [] |168| 
         000044 0000 
    2692                                                      ; [] |168| 
    2693 000046 0CC8          MOVA      r12,r8                ; [] |168| 
    2694 000048 0DC9          MOVA      r13,r9                ; [] |168| 
    2695 00004a 0ECA          MOVA      r14,r10               ; [] |168| 
    2696 00004c 0FCB          MOVA      r15,r11               ; [] |168| 
    2697 00004e 430C          MOV.W     #0,r12                ; [] |168| 
    2698 000050 430D          MOV.W     #0,r13                ; [] |168| 
    2699 000052 430E          MOV.W     #0,r14                ; [] |168| 
    2700 000054 403F          MOV.W     #16446,r15            ; [] |168| 
         000056 403E 
    2701            $C$DW$126       .dwtag  DW_TAG_TI_branch
    2702                    .dwattr $C$DW$126, DW_AT_low_pc(0x00)
    2703                    .dwattr $C$DW$126, DW_AT_name("__mspabi_subd")
    2704                    .dwattr $C$DW$126, DW_AT_TI_call
    2705            
    2706 000058 13B0!         CALLA     #__mspabi_subd        ; [] |168| 
         00005a 0000 
    2707                                                      ; [] |168| 
    2708 00005c 0CC8          MOVA      r12,r8                ; [] |168| 
    2709 00005e 0DC9          MOVA      r13,r9                ; [] |168| 
    2710 000060 0ECA          MOVA      r14,r10               ; [] |168| 
    2711 000062 0FCB          MOVA      r15,r11               ; [] |168| 
    2712 000064 430C          MOV.W     #0,r12                ; [] |168| 
    2713 000066 430D          MOV.W     #0,r13                ; [] |168| 
    2714 000068 430E          MOV.W     #0,r14                ; [] |168| 
    2715 00006a 403F          MOV.W     #16420,r15            ; [] |168| 
         00006c 4024 
    2716            $C$DW$127       .dwtag  DW_TAG_TI_branch
    2717                    .dwattr $C$DW$127, DW_AT_low_pc(0x00)
    2718                    .dwattr $C$DW$127, DW_AT_name("__mspabi_divd")
    2719                    .dwattr $C$DW$127, DW_AT_TI_call
    2720            
    2721 00006e 13B0!         CALLA     #__mspabi_divd        ; [] |168| 
         000070 0000 
    2722                                                      ; [] |168| 
MSP430 Assembler PC v21.6.1 Tue Dec 20 13:46:05 2022

Copyright (c) 2003-2018 Texas Instruments Incorporated
pumps.asm                                                            PAGE   52

    2723            $C$DW$128       .dwtag  DW_TAG_TI_branch
    2724                    .dwattr $C$DW$128, DW_AT_low_pc(0x00)
    2725                    .dwattr $C$DW$128, DW_AT_name("__mspabi_fixdi")
    2726                    .dwattr $C$DW$128, DW_AT_TI_call
    2727            
    2728 000072 13B0!         CALLA     #__mspabi_fixdi       ; [] |168| 
         000074 0000 
    2729                                                      ; [] |168| 
    2730 000076 4C82          MOV.W     r12,&off_time_1+0     ; [] |168| 
         000078 0000!
    2731                    .dwpsn  file "../src/pumps.c",line 172,column 13,is_stmt,isa 0
    2732 00007a 9292          CMP.W     &off_time_1+0,&off_time_counter1+0 ; [] |172| 
         00007c 0000!
         00007e 0000!
    2733 000080 3804          JL        $C$L46                ; [] |172| 
    2734                                                      ; [] |172| 
    2735            ;* --------------------------------------------------------------------------*
    2736                    .dwpsn  file "../src/pumps.c",line 178,column 17,is_stmt,isa 0
    2737 000082 40B2          MOV.W     #700,&TB0CCR1+0       ; [] |178| 
         000084 02BC 
         000086 0000!
    2738 000088 3C02          JMP       $C$L47                ; [] |178| 
    2739                                                      ; [] |178| 
    2740            ;* --------------------------------------------------------------------------*
    2741 00008a       $C$L46:    
    2742                    .dwpsn  file "../src/pumps.c",line 174,column 17,is_stmt,isa 0
    2743 00008a 4382          MOV.W     #0,&TB0CCR1+0         ; [] |174| 
         00008c 0000!
    2744            ;* --------------------------------------------------------------------------*
    2745 00008e       $C$L47:    
    2746                    .dwpsn  file "../src/pumps.c",line 180,column 13,is_stmt,isa 0
    2747 00008e 5392          ADD.W     #1,&off_time_counter1+0 ; [] |180| 
         000090 0000!
    2748                    .dwpsn  file "../src/pumps.c",line 184,column 17,is_stmt,isa 0
    2749 000092 430C          MOV.W     #0,r12                ; [] |184| 
    2750 000094 403D          MOV.W     #16752,r13            ; [] |184| 
         000096 4170 
    2751 000098 421E          MOV.W     &Ambient_Temperature+0,r14 ; [] |184| 
         00009a 0000!
    2752 00009c 421F          MOV.W     &Ambient_Temperature+2,r15 ; [] |184| 
         00009e 0002!
    2753            $C$DW$129       .dwtag  DW_TAG_TI_branch
    2754                    .dwattr $C$DW$129, DW_AT_low_pc(0x00)
    2755                    .dwattr $C$DW$129, DW_AT_name("__mspabi_cmpf")
    2756                    .dwattr $C$DW$129, DW_AT_TI_call
    2757            
    2758 0000a0 13B0!         CALLA     #__mspabi_cmpf        ; [] |184| 
         0000a2 0000 
    2759                                                      ; [] |184| 
    2760 0000a4 930C          TST.W     r12                   ; [] |184| 
    2761 0000a6 3803          JL        $C$L48                ; [] |184| 
    2762                                                      ; [] |184| 
    2763            ;* --------------------------------------------------------------------------*
    2764 0000a8 403F          MOV.W     #5,r15                ; [] |184| 
         0000aa 0005 
MSP430 Assembler PC v21.6.1 Tue Dec 20 13:46:05 2022

Copyright (c) 2003-2018 Texas Instruments Incorporated
pumps.asm                                                            PAGE   53

    2765 0000ac 3C02          JMP       $C$L49                ; [] |184| 
    2766                                                      ; [] |184| 
    2767            ;* --------------------------------------------------------------------------*
    2768 0000ae       $C$L48:    
    2769 0000ae 403F          MOV.W     #3,r15                ; [] |184| 
         0000b0 0003 
    2770            ;* --------------------------------------------------------------------------*
    2771 0000b2       $C$L49:    
    2772 0000b2 4F82          MOV.W     r15,&on_time_counter1+0 ; [] |184| 
         0000b4 0000!
    2773                    .dwpsn  file "../src/pumps.c",line 190,column 13,is_stmt,isa 0
    2774 0000b6 521F          ADD.W     &off_time_1+0,r15     ; [] |190| 
         0000b8 0000!
    2775 0000ba 9F82          CMP.W     r15,&off_time_counter1+0 ; [] |190| 
         0000bc 0000!
    2776 0000be 3851          JL        $C$L58                ; [] |190| 
    2777                                                      ; [] |190| 
    2778            ;* --------------------------------------------------------------------------*
    2779                    .dwpsn  file "../src/pumps.c",line 192,column 17,is_stmt,isa 0
    2780 0000c0 4382          MOV.W     #0,&off_time_counter1+0 ; [] |192| 
         0000c2 0000!
    2781 0000c4 3C4E          JMP       $C$L58                ; [] |192| 
    2782                                                      ; [] |192| 
    2783            ;* --------------------------------------------------------------------------*
    2784 0000c6       $C$L50:    
    2785                    .dwpsn  file "../src/pumps.c",line 163,column 40,is_stmt,isa 0
    2786 0000c6 4382          MOV.W     #0,&TB0CCR1+0         ; [] |163| 
         0000c8 0000!
    2787 0000ca 3C4B          JMP       $C$L58                ; [] 
    2788                                                      ; [] 
    2789            ;* --------------------------------------------------------------------------*
    2790 0000cc       $C$L51:    
    2791                    .dwpsn  file "../src/pumps.c",line 122,column 9,is_stmt,isa 0
    2792 0000cc 430C          MOV.W     #0,r12                ; [] |122| 
    2793 0000ce 403D          MOV.W     #16672,r13            ; [] |122| 
         0000d0 4120 
    2794 0000d2 421E          MOV.W     &FC_Burner_Methanol_flow+0,r14 ; [] |122| 
         0000d4 0000!
    2795 0000d6 421F          MOV.W     &FC_Burner_Methanol_flow+2,r15 ; [] |122| 
         0000d8 0002!
    2796            $C$DW$130       .dwtag  DW_TAG_TI_branch
    2797                    .dwattr $C$DW$130, DW_AT_low_pc(0x00)
    2798                    .dwattr $C$DW$130, DW_AT_name("__mspabi_cmpf")
    2799                    .dwattr $C$DW$130, DW_AT_TI_call
    2800            
    2801 0000da 13B0!         CALLA     #__mspabi_cmpf        ; [] |122| 
         0000dc 0000 
    2802                                                      ; [] |122| 
    2803 0000de 930C          TST.W     r12                   ; [] |122| 
    2804 0000e0 342A          JGE       $C$L54                ; [] |122| 
    2805                                                      ; [] |122| 
    2806            ;* --------------------------------------------------------------------------*
    2807                    .dwpsn  file "../src/pumps.c",line 124,column 13,is_stmt,isa 0
    2808 0000e2 421C          MOV.W     &FC_Burner_Methanol_flow+0,r12 ; [] |124| 
         0000e4 0000!
MSP430 Assembler PC v21.6.1 Tue Dec 20 13:46:05 2022

Copyright (c) 2003-2018 Texas Instruments Incorporated
pumps.asm                                                            PAGE   54

    2809 0000e6 421D          MOV.W     &FC_Burner_Methanol_flow+2,r13 ; [] |124| 
         0000e8 0002!
    2810            $C$DW$131       .dwtag  DW_TAG_TI_branch
    2811                    .dwattr $C$DW$131, DW_AT_low_pc(0x00)
    2812                    .dwattr $C$DW$131, DW_AT_name("__mspabi_fixfi")
    2813                    .dwattr $C$DW$131, DW_AT_TI_call
    2814            
    2815 0000ea 13B0!         CALLA     #__mspabi_fixfi       ; [] |124| 
         0000ec 0000 
    2816                                                      ; [] |124| 
    2817 0000ee 803C          SUB.W     #3,r12                ; [] |124| 
         0000f0 0003 
    2818 0000f2 4C82          MOV.W     r12,&off_time_1+0     ; [] |124| 
         0000f4 0000!
    2819                    .dwpsn  file "../src/pumps.c",line 126,column 13,is_stmt,isa 0
    2820 0000f6 9292          CMP.W     &off_time_1+0,&off_time_counter1+0 ; [] |126| 
         0000f8 0000!
         0000fa 0000!
    2821 0000fc 3808          JL        $C$L52                ; [] |126| 
    2822                                                      ; [] |126| 
    2823            ;* --------------------------------------------------------------------------*
    2824                    .dwpsn  file "../src/pumps.c",line 130,column 18,is_stmt,isa 0
    2825 0000fe 90B2          CMP.W     #500,&pulse_count_1+0 ; [] |130| 
         000100 01F4 
         000102 0000!
    2826 000104 3406          JGE       $C$L53                ; [] |130| 
    2827                                                      ; [] |130| 
    2828            ;* --------------------------------------------------------------------------*
    2829                    .dwpsn  file "../src/pumps.c",line 132,column 17,is_stmt,isa 0
    2830 000106 40B2          MOV.W     #700,&TB0CCR1+0       ; [] |132| 
         000108 02BC 
         00010a 0000!
    2831 00010c 3C02          JMP       $C$L53                ; [] |132| 
    2832                                                      ; [] |132| 
    2833            ;* --------------------------------------------------------------------------*
    2834 00010e       $C$L52:    
    2835                    .dwpsn  file "../src/pumps.c",line 128,column 17,is_stmt,isa 0
    2836 00010e 4382          MOV.W     #0,&TB0CCR1+0         ; [] |128| 
         000110 0000!
    2837            ;* --------------------------------------------------------------------------*
    2838 000112       $C$L53:    
    2839                    .dwpsn  file "../src/pumps.c",line 135,column 13,is_stmt,isa 0
    2840 000112 5392          ADD.W     #1,&off_time_counter1+0 ; [] |135| 
         000114 0000!
    2841                    .dwpsn  file "../src/pumps.c",line 136,column 13,is_stmt,isa 0
    2842 000116 403F          MOV.W     #3,r15                ; [] |136| 
         000118 0003 
    2843 00011a 521F          ADD.W     &off_time_1+0,r15     ; [] |136| 
         00011c 0000!
    2844 00011e 9F82          CMP.W     r15,&off_time_counter1+0 ; [] |136| 
         000120 0000!
    2845 000122 380D          JL        $C$L55                ; [] |136| 
    2846                                                      ; [] |136| 
    2847            ;* --------------------------------------------------------------------------*
    2848                    .dwpsn  file "../src/pumps.c",line 138,column 17,is_stmt,isa 0
MSP430 Assembler PC v21.6.1 Tue Dec 20 13:46:05 2022

Copyright (c) 2003-2018 Texas Instruments Incorporated
pumps.asm                                                            PAGE   55

    2849 000124 4382          MOV.W     #0,&off_time_counter1+0 ; [] |138| 
         000126 0000!
    2850                    .dwpsn  file "../src/pumps.c",line 139,column 17,is_stmt,isa 0
    2851 000128 90B2          CMP.W     #500,&pulse_count_1+0 ; [] |139| 
         00012a 01F4 
         00012c 0000!
    2852 00012e 3407          JGE       $C$L55                ; [] |139| 
    2853                                                      ; [] |139| 
    2854            ;* --------------------------------------------------------------------------*
    2855                    .dwpsn  file "../src/pumps.c",line 140,column 21,is_stmt,isa 0
    2856 000130 5392          ADD.W     #1,&pulse_count_1+0   ; [] |140| 
         000132 0000!
    2857 000134 3C04          JMP       $C$L55                ; [] |140| 
    2858                                                      ; [] |140| 
    2859            ;* --------------------------------------------------------------------------*
    2860 000136       $C$L54:    
    2861                    .dwpsn  file "../src/pumps.c",line 145,column 13,is_stmt,isa 0
    2862 000136 4382          MOV.W     #0,&TB0CCR1+0         ; [] |145| 
         000138 0000!
    2863                    .dwpsn  file "../src/pumps.c",line 146,column 13,is_stmt,isa 0
    2864 00013a 4382          MOV.W     #0,&pulse_count_1+0   ; [] |146| 
         00013c 0000!
    2865            ;* --------------------------------------------------------------------------*
    2866 00013e       $C$L55:    
    2867                    .dwpsn  file "../src/pumps.c",line 149,column 5,is_stmt,isa 0
    2868 00013e 90B2          CMP.W     #500,&pulse_count_1+0 ; [] |149| 
         000140 01F4 
         000142 0000!
    2869 000144 3802          JL        $C$L56                ; [] |149| 
    2870                                                      ; [] |149| 
    2871            ;* --------------------------------------------------------------------------*
    2872                    .dwpsn  file "../src/pumps.c",line 151,column 13,is_stmt,isa 0
    2873 000146 4382          MOV.W     #0,&TB0CCR1+0         ; [] |151| 
         000148 0000!
    2874            ;* --------------------------------------------------------------------------*
    2875 00014a       $C$L56:    
    2876                    .dwpsn  file "../src/pumps.c",line 154,column 9,is_stmt,isa 0
    2877 00014a 421F          MOV.W     &TB0CCR1+0,r15        ; [] |154| 
         00014c 0000!
    2878                    .dwpsn  file "../src/pumps.c",line 156,column 9,is_stmt,isa 0
    2879 00014e 90B2          CMP.W     #701,&TB0CCR1+0       ; [] |156| 
         000150 02BD 
         000152 0000!
    2880 000154 2803          JLO       $C$L57                ; [] |156| 
    2881                                                      ; [] |156| 
    2882            ;* --------------------------------------------------------------------------*
    2883                    .dwpsn  file "../src/pumps.c",line 157,column 13,is_stmt,isa 0
    2884 000156 40B2          MOV.W     #700,&TB0CCR1+0       ; [] |157| 
         000158 02BC 
         00015a 0000!
    2885            ;* --------------------------------------------------------------------------*
    2886 00015c       $C$L57:    
    2887                    .dwpsn  file "../src/pumps.c",line 158,column 9,is_stmt,isa 0
    2888 00015c 4292          MOV.W     &TB0CCR1+0,&TB0CCR1+0 ; [] |158| 
         00015e 0000!
MSP430 Assembler PC v21.6.1 Tue Dec 20 13:46:05 2022

Copyright (c) 2003-2018 Texas Instruments Incorporated
pumps.asm                                                            PAGE   56

         000160 0000!
    2889            ;* --------------------------------------------------------------------------*
    2890 000162       $C$L58:    
    2891                    .dwpsn  file "../src/pumps.c",line 197,column 3,is_stmt,isa 0
    2892 000162 93C2          TST.B     &system_calibration+0 ; [] |197| 
         000164 0000!
    2893 000166 2408          JEQ       $C$L59                ; [] |197| 
    2894                                                      ; [] |197| 
    2895            ;* --------------------------------------------------------------------------*
    2896                    .dwpsn  file "../src/pumps.c",line 197,column 27,is_stmt,isa 0
    2897 000168 421C          MOV.W     &off_time_1+0,r12     ; [] |197| 
         00016a 0000!
    2898            $C$DW$132       .dwtag  DW_TAG_TI_branch
    2899                    .dwattr $C$DW$132, DW_AT_low_pc(0x00)
    2900                    .dwattr $C$DW$132, DW_AT_name("__mspabi_fltif")
    2901                    .dwattr $C$DW$132, DW_AT_TI_call
    2902            
    2903 00016c 13B0!         CALLA     #__mspabi_fltif       ; [] |197| 
         00016e 0000 
    2904                                                      ; [] |197| 
    2905 000170 4C82          MOV.W     r12,&FC_Burner_Methanol_flow+0 ; [] |197| 
         000172 0000!
    2906 000174 4D82          MOV.W     r13,&FC_Burner_Methanol_flow+2 ; [] |197| 
         000176 0002!
    2907            ;* --------------------------------------------------------------------------*
    2908 000178       $C$L59:    
    2909                    .dwpsn  file "../src/pumps.c",line 199,column 3,is_stmt,isa 0
    2910 000178 421C          MOV.W     &FC_Burner_Methanol_flow+0,r12 ; [] |199| 
         00017a 0000!
    2911 00017c 421D          MOV.W     &FC_Burner_Methanol_flow+2,r13 ; [] |199| 
         00017e 0002!
    2912            $C$DW$133       .dwtag  DW_TAG_TI_branch
    2913                    .dwattr $C$DW$133, DW_AT_low_pc(0x00)
    2914                    .dwattr $C$DW$133, DW_AT_name("__mspabi_cvtfd")
    2915                    .dwattr $C$DW$133, DW_AT_TI_call
    2916            
    2917 000180 13B0!         CALLA     #__mspabi_cvtfd       ; [] |199| 
         000182 0000 
    2918                                                      ; [] |199| 
    2919 000184 0CC8          MOVA      r12,r8                ; [] |199| 
    2920 000186 0DC9          MOVA      r13,r9                ; [] |199| 
    2921 000188 0ECA          MOVA      r14,r10               ; [] |199| 
    2922 00018a 0FCB          MOVA      r15,r11               ; [] |199| 
    2923 00018c 403C          MOV.W     #54002,r12            ; [] |199| 
         00018e D2F2 
    2924 000190 403D          MOV.W     #25165,r13            ; [] |199| 
         000192 624D 
    2925 000194 403E          MOV.W     #22544,r14            ; [] |199| 
         000196 5810 
    2926 000198 403F          MOV.W     #16361,r15            ; [] |199| 
         00019a 3FE9 
    2927            $C$DW$134       .dwtag  DW_TAG_TI_branch
    2928                    .dwattr $C$DW$134, DW_AT_low_pc(0x00)
    2929                    .dwattr $C$DW$134, DW_AT_name("__mspabi_mpyd")
    2930                    .dwattr $C$DW$134, DW_AT_TI_call
MSP430 Assembler PC v21.6.1 Tue Dec 20 13:46:05 2022

Copyright (c) 2003-2018 Texas Instruments Incorporated
pumps.asm                                                            PAGE   57

    2931            
    2932 00019c 13B0!         CALLA     #__mspabi_mpyd        ; [] |199| 
         00019e 0000 
    2933                                                      ; [] |199| 
    2934            $C$DW$135       .dwtag  DW_TAG_TI_branch
    2935                    .dwattr $C$DW$135, DW_AT_low_pc(0x00)
    2936                    .dwattr $C$DW$135, DW_AT_name("__mspabi_cvtdf")
    2937                    .dwattr $C$DW$135, DW_AT_TI_call
    2938            
    2939 0001a0 13B0!         CALLA     #__mspabi_cvtdf       ; [] |199| 
         0001a2 0000 
    2940                                                      ; [] |199| 
    2941 0001a4 4C82          MOV.W     r12,&FC_Burner_Methanol_flow_gph+0 ; [] |199| 
         0001a6 0000!
    2942 0001a8 4D82          MOV.W     r13,&FC_Burner_Methanol_flow_gph+2 ; [] |199| 
         0001aa 0002!
    2943                    .dwpsn  file "../src/pumps.c",line 201,column 3,is_stmt,isa 0
    2944 0001ac 90B2          CMP.W     #10,&TB0CCR1+0        ; [] |201| 
         0001ae 000A 
         0001b0 0000!
    2945 0001b2 2C02          JHS       $C$L60                ; [] |201| 
    2946                                                      ; [] |201| 
    2947            ;* --------------------------------------------------------------------------*
    2948                    .dwpsn  file "../src/pumps.c",line 201,column 21,is_stmt,isa 0
    2949 0001b4 4382          MOV.W     #0,&TB0CCR1+0         ; [] |201| 
         0001b6 0000!
    2950            ;* --------------------------------------------------------------------------*
    2951 0001b8       $C$L60:    
    2952                    .dwpsn  file "../src/pumps.c",line 202,column 3,is_stmt,isa 0
    2953 0001b8 90B2          CMP.W     #701,&TB0CCR1+0       ; [] |202| 
         0001ba 02BD 
         0001bc 0000!
    2954 0001be 2803          JLO       $C$L61                ; [] |202| 
    2955                                                      ; [] |202| 
    2956            ;* --------------------------------------------------------------------------*
    2957                    .dwpsn  file "../src/pumps.c",line 202,column 22,is_stmt,isa 0
    2958 0001c0 40B2          MOV.W     #700,&TB0CCR1+0       ; [] |202| 
         0001c2 02BC 
         0001c4 0000!
    2959            ;* --------------------------------------------------------------------------*
    2960 0001c6       $C$L61:    
    2961                    .dwpsn  file "../src/pumps.c",line 203,column 3,is_stmt,isa 0
    2962 0001c6 4292          MOV.W     &TB0CCR1+0,&TB0CCR1+0 ; [] |203| 
         0001c8 0000!
         0001ca 0000!
    2963                    .dwpsn  file "../src/pumps.c",line 209,column 3,is_stmt,isa 0
    2964 0001cc 93C2          TST.B     &system_calibration+0 ; [] |209| 
         0001ce 0000!
    2965 0001d0 2062          JNE       $C$L67                ; [] |209| 
    2966                                                      ; [] |209| 
    2967            ;* --------------------------------------------------------------------------*
    2968                    .dwpsn  file "../src/pumps.c",line 246,column 5,is_stmt,isa 0
    2969 0001d2 421C          MOV.W     &Tank_Methanol_flow+0,r12 ; [] |246| 
         0001d4 0000!
    2970 0001d6 421D          MOV.W     &Tank_Methanol_flow+2,r13 ; [] |246| 
MSP430 Assembler PC v21.6.1 Tue Dec 20 13:46:05 2022

Copyright (c) 2003-2018 Texas Instruments Incorporated
pumps.asm                                                            PAGE   58

         0001d8 0002!
    2971 0001da 430E          MOV.W     #0,r14                ; [] |246| 
    2972 0001dc 403F          MOV.W     #16256,r15            ; [] |246| 
         0001de 3F80 
    2973            $C$DW$136       .dwtag  DW_TAG_TI_branch
    2974                    .dwattr $C$DW$136, DW_AT_low_pc(0x00)
    2975                    .dwattr $C$DW$136, DW_AT_name("__mspabi_cmpf")
    2976                    .dwattr $C$DW$136, DW_AT_TI_call
    2977            
    2978 0001e0 13B0!         CALLA     #__mspabi_cmpf        ; [] |246| 
         0001e2 0000 
    2979                                                      ; [] |246| 
    2980 0001e4 930C          TST.W     r12                   ; [] |246| 
    2981 0001e6 3854          JL        $C$L66                ; [] |246| 
    2982                                                      ; [] |246| 
    2983            ;* --------------------------------------------------------------------------*
    2984                    .dwpsn  file "../src/pumps.c",line 254,column 7,is_stmt,isa 0
    2985 0001e8 421C          MOV.W     &PUMP2_cal+0,r12      ; [] |254| 
         0001ea 0000!
    2986 0001ec 421D          MOV.W     &PUMP2_cal+2,r13      ; [] |254| 
         0001ee 0002!
    2987 0001f0 421E          MOV.W     &Tank_Methanol_flow+0,r14 ; [] |254| 
         0001f2 0000!
    2988 0001f4 421F          MOV.W     &Tank_Methanol_flow+2,r15 ; [] |254| 
         0001f6 0002!
    2989            $C$DW$137       .dwtag  DW_TAG_TI_branch
    2990                    .dwattr $C$DW$137, DW_AT_low_pc(0x00)
    2991                    .dwattr $C$DW$137, DW_AT_name("__mspabi_mpyf")
    2992                    .dwattr $C$DW$137, DW_AT_TI_call
    2993            
    2994 0001f8 13B0!         CALLA     #__mspabi_mpyf        ; [] |254| 
         0001fa 0000 
    2995                                                      ; [] |254| 
    2996            $C$DW$138       .dwtag  DW_TAG_TI_branch
    2997                    .dwattr $C$DW$138, DW_AT_low_pc(0x00)
    2998                    .dwattr $C$DW$138, DW_AT_name("__mspabi_cvtfd")
    2999                    .dwattr $C$DW$138, DW_AT_TI_call
    3000            
    3001 0001fc 13B0!         CALLA     #__mspabi_cvtfd       ; [] |254| 
         0001fe 0000 
    3002                                                      ; [] |254| 
    3003 000200 4308          MOV.W     #0,r8                 ; [] |254| 
    3004 000202 4309          MOV.W     #0,r9                 ; [] |254| 
    3005 000204 403A          MOV.W     #16384,r10            ; [] |254| 
         000206 4000 
    3006 000208 403B          MOV.W     #16527,r11            ; [] |254| 
         00020a 408F 
    3007            $C$DW$139       .dwtag  DW_TAG_TI_branch
    3008                    .dwattr $C$DW$139, DW_AT_low_pc(0x00)
    3009                    .dwattr $C$DW$139, DW_AT_name("__mspabi_divd")
    3010                    .dwattr $C$DW$139, DW_AT_TI_call
    3011            
    3012 00020c 13B0!         CALLA     #__mspabi_divd        ; [] |254| 
         00020e 0000 
    3013                                                      ; [] |254| 
MSP430 Assembler PC v21.6.1 Tue Dec 20 13:46:05 2022

Copyright (c) 2003-2018 Texas Instruments Incorporated
pumps.asm                                                            PAGE   59

    3014 000210 0CC8          MOVA      r12,r8                ; [] |254| 
    3015 000212 0DC9          MOVA      r13,r9                ; [] |254| 
    3016 000214 0ECA          MOVA      r14,r10               ; [] |254| 
    3017 000216 0FCB          MOVA      r15,r11               ; [] |254| 
    3018 000218 430C          MOV.W     #0,r12                ; [] |254| 
    3019 00021a 430D          MOV.W     #0,r13                ; [] |254| 
    3020 00021c 430E          MOV.W     #0,r14                ; [] |254| 
    3021 00021e 403F          MOV.W     #16446,r15            ; [] |254| 
         000220 403E 
    3022            $C$DW$140       .dwtag  DW_TAG_TI_branch
    3023                    .dwattr $C$DW$140, DW_AT_low_pc(0x00)
    3024                    .dwattr $C$DW$140, DW_AT_name("__mspabi_subd")
    3025                    .dwattr $C$DW$140, DW_AT_TI_call
    3026            
    3027 000222 13B0!         CALLA     #__mspabi_subd        ; [] |254| 
         000224 0000 
    3028                                                      ; [] |254| 
    3029 000226 0CC8          MOVA      r12,r8                ; [] |254| 
    3030 000228 0DC9          MOVA      r13,r9                ; [] |254| 
    3031 00022a 0ECA          MOVA      r14,r10               ; [] |254| 
    3032 00022c 0FCB          MOVA      r15,r11               ; [] |254| 
    3033 00022e 430C          MOV.W     #0,r12                ; [] |254| 
    3034 000230 430D          MOV.W     #0,r13                ; [] |254| 
    3035 000232 430E          MOV.W     #0,r14                ; [] |254| 
    3036 000234 403F          MOV.W     #16420,r15            ; [] |254| 
         000236 4024 
    3037            $C$DW$141       .dwtag  DW_TAG_TI_branch
    3038                    .dwattr $C$DW$141, DW_AT_low_pc(0x00)
    3039                    .dwattr $C$DW$141, DW_AT_name("__mspabi_divd")
    3040                    .dwattr $C$DW$141, DW_AT_TI_call
    3041            
    3042 000238 13B0!         CALLA     #__mspabi_divd        ; [] |254| 
         00023a 0000 
    3043                                                      ; [] |254| 
    3044            $C$DW$142       .dwtag  DW_TAG_TI_branch
    3045                    .dwattr $C$DW$142, DW_AT_low_pc(0x00)
    3046                    .dwattr $C$DW$142, DW_AT_name("__mspabi_fixdi")
    3047                    .dwattr $C$DW$142, DW_AT_TI_call
    3048            
    3049 00023c 13B0!         CALLA     #__mspabi_fixdi       ; [] |254| 
         00023e 0000 
    3050                                                      ; [] |254| 
    3051 000240 4C82          MOV.W     r12,&off_time_2+0     ; [] |254| 
         000242 0000!
    3052                    .dwpsn  file "../src/pumps.c",line 256,column 7,is_stmt,isa 0
    3053 000244 9292          CMP.W     &off_time_2+0,&off_time_counter2+0 ; [] |256| 
         000246 0000!
         000248 0000!
    3054 00024a 3804          JL        $C$L62                ; [] |256| 
    3055                                                      ; [] |256| 
    3056            ;* --------------------------------------------------------------------------*
    3057                    .dwpsn  file "../src/pumps.c",line 262,column 9,is_stmt,isa 0
    3058 00024c 40B2          MOV.W     #700,&TB0CCR1+0       ; [] |262| 
         00024e 02BC 
         000250 0000!
MSP430 Assembler PC v21.6.1 Tue Dec 20 13:46:05 2022

Copyright (c) 2003-2018 Texas Instruments Incorporated
pumps.asm                                                            PAGE   60

    3059 000252 3C02          JMP       $C$L63                ; [] |262| 
    3060                                                      ; [] |262| 
    3061            ;* --------------------------------------------------------------------------*
    3062 000254       $C$L62:    
    3063                    .dwpsn  file "../src/pumps.c",line 258,column 9,is_stmt,isa 0
    3064 000254 4382          MOV.W     #0,&TB0CCR1+0         ; [] |258| 
         000256 0000!
    3065            ;* --------------------------------------------------------------------------*
    3066 000258       $C$L63:    
    3067                    .dwpsn  file "../src/pumps.c",line 265,column 7,is_stmt,isa 0
    3068 000258 5392          ADD.W     #1,&off_time_counter2+0 ; [] |265| 
         00025a 0000!
    3069                    .dwpsn  file "../src/pumps.c",line 268,column 9,is_stmt,isa 0
    3070 00025c 430C          MOV.W     #0,r12                ; [] |268| 
    3071 00025e 403D          MOV.W     #16752,r13            ; [] |268| 
         000260 4170 
    3072 000262 421E          MOV.W     &Ambient_Temperature+0,r14 ; [] |268| 
         000264 0000!
    3073 000266 421F          MOV.W     &Ambient_Temperature+2,r15 ; [] |268| 
         000268 0002!
    3074            $C$DW$143       .dwtag  DW_TAG_TI_branch
    3075                    .dwattr $C$DW$143, DW_AT_low_pc(0x00)
    3076                    .dwattr $C$DW$143, DW_AT_name("__mspabi_cmpf")
    3077                    .dwattr $C$DW$143, DW_AT_TI_call
    3078            
    3079 00026a 13B0!         CALLA     #__mspabi_cmpf        ; [] |268| 
         00026c 0000 
    3080                                                      ; [] |268| 
    3081 00026e 930C          TST.W     r12                   ; [] |268| 
    3082 000270 3803          JL        $C$L64                ; [] |268| 
    3083                                                      ; [] |268| 
    3084            ;* --------------------------------------------------------------------------*
    3085 000272 403F          MOV.W     #5,r15                ; [] |268| 
         000274 0005 
    3086 000276 3C02          JMP       $C$L65                ; [] |268| 
    3087                                                      ; [] |268| 
    3088            ;* --------------------------------------------------------------------------*
    3089 000278       $C$L64:    
    3090 000278 403F          MOV.W     #3,r15                ; [] |268| 
         00027a 0003 
    3091            ;* --------------------------------------------------------------------------*
    3092 00027c       $C$L65:    
    3093 00027c 4F82          MOV.W     r15,&on_time_counter2+0 ; [] |268| 
         00027e 0000!
    3094                    .dwpsn  file "../src/pumps.c",line 273,column 7,is_stmt,isa 0
    3095 000280 521F          ADD.W     &off_time_2+0,r15     ; [] |273| 
         000282 0000!
    3096 000284 9F82          CMP.W     r15,&off_time_counter2+0 ; [] |273| 
         000286 0000!
    3097 000288 3851          JL        $C$L74                ; [] |273| 
    3098                                                      ; [] |273| 
    3099            ;* --------------------------------------------------------------------------*
    3100                    .dwpsn  file "../src/pumps.c",line 275,column 9,is_stmt,isa 0
    3101 00028a 4382          MOV.W     #0,&off_time_counter2+0 ; [] |275| 
         00028c 0000!
MSP430 Assembler PC v21.6.1 Tue Dec 20 13:46:05 2022

Copyright (c) 2003-2018 Texas Instruments Incorporated
pumps.asm                                                            PAGE   61

    3102 00028e 3C4E          JMP       $C$L74                ; [] |275| 
    3103                                                      ; [] |275| 
    3104            ;* --------------------------------------------------------------------------*
    3105 000290       $C$L66:    
    3106                    .dwpsn  file "../src/pumps.c",line 246,column 35,is_stmt,isa 0
    3107 000290 4382          MOV.W     #0,&TB0CCR1+0         ; [] |246| 
         000292 0000!
    3108 000294 3C4B          JMP       $C$L74                ; [] 
    3109                                                      ; [] 
    3110            ;* --------------------------------------------------------------------------*
    3111 000296       $C$L67:    
    3112                    .dwpsn  file "../src/pumps.c",line 211,column 5,is_stmt,isa 0
    3113 000296 430C          MOV.W     #0,r12                ; [] |211| 
    3114 000298 403D          MOV.W     #16672,r13            ; [] |211| 
         00029a 4120 
    3115 00029c 421E          MOV.W     &Tank_Methanol_flow+0,r14 ; [] |211| 
         00029e 0000!
    3116 0002a0 421F          MOV.W     &Tank_Methanol_flow+2,r15 ; [] |211| 
         0002a2 0002!
    3117            $C$DW$144       .dwtag  DW_TAG_TI_branch
    3118                    .dwattr $C$DW$144, DW_AT_low_pc(0x00)
    3119                    .dwattr $C$DW$144, DW_AT_name("__mspabi_cmpf")
    3120                    .dwattr $C$DW$144, DW_AT_TI_call
    3121            
    3122 0002a4 13B0!         CALLA     #__mspabi_cmpf        ; [] |211| 
         0002a6 0000 
    3123                                                      ; [] |211| 
    3124 0002a8 930C          TST.W     r12                   ; [] |211| 
    3125 0002aa 342A          JGE       $C$L70                ; [] |211| 
    3126                                                      ; [] |211| 
    3127            ;* --------------------------------------------------------------------------*
    3128                    .dwpsn  file "../src/pumps.c",line 213,column 7,is_stmt,isa 0
    3129 0002ac 421C          MOV.W     &Tank_Methanol_flow+0,r12 ; [] |213| 
         0002ae 0000!
    3130 0002b0 421D          MOV.W     &Tank_Methanol_flow+2,r13 ; [] |213| 
         0002b2 0002!
    3131            $C$DW$145       .dwtag  DW_TAG_TI_branch
    3132                    .dwattr $C$DW$145, DW_AT_low_pc(0x00)
    3133                    .dwattr $C$DW$145, DW_AT_name("__mspabi_fixfi")
    3134                    .dwattr $C$DW$145, DW_AT_TI_call
    3135            
    3136 0002b4 13B0!         CALLA     #__mspabi_fixfi       ; [] |213| 
         0002b6 0000 
    3137                                                      ; [] |213| 
    3138 0002b8 803C          SUB.W     #3,r12                ; [] |213| 
         0002ba 0003 
    3139 0002bc 4C82          MOV.W     r12,&off_time_2+0     ; [] |213| 
         0002be 0000!
    3140                    .dwpsn  file "../src/pumps.c",line 215,column 7,is_stmt,isa 0
    3141 0002c0 9292          CMP.W     &off_time_2+0,&off_time_counter2+0 ; [] |215| 
         0002c2 0000!
         0002c4 0000!
    3142 0002c6 3808          JL        $C$L68                ; [] |215| 
    3143                                                      ; [] |215| 
    3144            ;* --------------------------------------------------------------------------*
MSP430 Assembler PC v21.6.1 Tue Dec 20 13:46:05 2022

Copyright (c) 2003-2018 Texas Instruments Incorporated
pumps.asm                                                            PAGE   62

    3145                    .dwpsn  file "../src/pumps.c",line 219,column 12,is_stmt,isa 0
    3146 0002c8 90B2          CMP.W     #500,&pulse_count_2+0 ; [] |219| 
         0002ca 01F4 
         0002cc 0000!
    3147 0002ce 3406          JGE       $C$L69                ; [] |219| 
    3148                                                      ; [] |219| 
    3149            ;* --------------------------------------------------------------------------*
    3150                    .dwpsn  file "../src/pumps.c",line 221,column 9,is_stmt,isa 0
    3151 0002d0 40B2          MOV.W     #700,&TB0CCR1+0       ; [] |221| 
         0002d2 02BC 
         0002d4 0000!
    3152 0002d6 3C02          JMP       $C$L69                ; [] |221| 
    3153                                                      ; [] |221| 
    3154            ;* --------------------------------------------------------------------------*
    3155 0002d8       $C$L68:    
    3156                    .dwpsn  file "../src/pumps.c",line 217,column 9,is_stmt,isa 0
    3157 0002d8 4382          MOV.W     #0,&TB0CCR1+0         ; [] |217| 
         0002da 0000!
    3158            ;* --------------------------------------------------------------------------*
    3159 0002dc       $C$L69:    
    3160                    .dwpsn  file "../src/pumps.c",line 223,column 7,is_stmt,isa 0
    3161 0002dc 5392          ADD.W     #1,&off_time_counter2+0 ; [] |223| 
         0002de 0000!
    3162                    .dwpsn  file "../src/pumps.c",line 224,column 7,is_stmt,isa 0
    3163 0002e0 403F          MOV.W     #3,r15                ; [] |224| 
         0002e2 0003 
    3164 0002e4 521F          ADD.W     &off_time_2+0,r15     ; [] |224| 
         0002e6 0000!
    3165 0002e8 9F82          CMP.W     r15,&off_time_counter2+0 ; [] |224| 
         0002ea 0000!
    3166 0002ec 380D          JL        $C$L71                ; [] |224| 
    3167                                                      ; [] |224| 
    3168            ;* --------------------------------------------------------------------------*
    3169                    .dwpsn  file "../src/pumps.c",line 226,column 9,is_stmt,isa 0
    3170 0002ee 4382          MOV.W     #0,&off_time_counter2+0 ; [] |226| 
         0002f0 0000!
    3171                    .dwpsn  file "../src/pumps.c",line 227,column 9,is_stmt,isa 0
    3172 0002f2 90B2          CMP.W     #500,&pulse_count_2+0 ; [] |227| 
         0002f4 01F4 
         0002f6 0000!
    3173 0002f8 3407          JGE       $C$L71                ; [] |227| 
    3174                                                      ; [] |227| 
    3175            ;* --------------------------------------------------------------------------*
    3176                    .dwpsn  file "../src/pumps.c",line 227,column 33,is_stmt,isa 0
    3177 0002fa 5392          ADD.W     #1,&pulse_count_2+0   ; [] |227| 
         0002fc 0000!
    3178 0002fe 3C04          JMP       $C$L71                ; [] |227| 
    3179                                                      ; [] |227| 
    3180            ;* --------------------------------------------------------------------------*
    3181 000300       $C$L70:    
    3182                    .dwpsn  file "../src/pumps.c",line 232,column 7,is_stmt,isa 0
    3183 000300 4382          MOV.W     #0,&TB0CCR1+0         ; [] |232| 
         000302 0000!
    3184                    .dwpsn  file "../src/pumps.c",line 233,column 7,is_stmt,isa 0
    3185 000304 4382          MOV.W     #0,&pulse_count_2+0   ; [] |233| 
MSP430 Assembler PC v21.6.1 Tue Dec 20 13:46:05 2022

Copyright (c) 2003-2018 Texas Instruments Incorporated
pumps.asm                                                            PAGE   63

         000306 0000!
    3186            ;* --------------------------------------------------------------------------*
    3187 000308       $C$L71:    
    3188                    .dwpsn  file "../src/pumps.c",line 236,column 5,is_stmt,isa 0
    3189 000308 90B2          CMP.W     #500,&pulse_count_2+0 ; [] |236| 
         00030a 01F4 
         00030c 0000!
    3190 00030e 3802          JL        $C$L72                ; [] |236| 
    3191                                                      ; [] |236| 
    3192            ;* --------------------------------------------------------------------------*
    3193                    .dwpsn  file "../src/pumps.c",line 238,column 7,is_stmt,isa 0
    3194 000310 4382          MOV.W     #0,&TB0CCR1+0         ; [] |238| 
         000312 0000!
    3195            ;* --------------------------------------------------------------------------*
    3196 000314       $C$L72:    
    3197                    .dwpsn  file "../src/pumps.c",line 240,column 5,is_stmt,isa 0
    3198 000314 421F          MOV.W     &TB0CCR1+0,r15        ; [] |240| 
         000316 0000!
    3199                    .dwpsn  file "../src/pumps.c",line 241,column 5,is_stmt,isa 0
    3200 000318 90B2          CMP.W     #701,&TB0CCR1+0       ; [] |241| 
         00031a 02BD 
         00031c 0000!
    3201 00031e 2803          JLO       $C$L73                ; [] |241| 
    3202                                                      ; [] |241| 
    3203            ;* --------------------------------------------------------------------------*
    3204                    .dwpsn  file "../src/pumps.c",line 241,column 24,is_stmt,isa 0
    3205 000320 40B2          MOV.W     #700,&TB0CCR1+0       ; [] |241| 
         000322 02BC 
         000324 0000!
    3206            ;* --------------------------------------------------------------------------*
    3207 000326       $C$L73:    
    3208                    .dwpsn  file "../src/pumps.c",line 242,column 5,is_stmt,isa 0
    3209 000326 4292          MOV.W     &TB0CCR1+0,&TA0CCR3+0 ; [] |242| 
         000328 0000!
         00032a 0000!
    3210            ;* --------------------------------------------------------------------------*
    3211 00032c       $C$L74:    
    3212                    .dwpsn  file "../src/pumps.c",line 280,column 3,is_stmt,isa 0
    3213 00032c 93C2          TST.B     &system_calibration+0 ; [] |280| 
         00032e 0000!
    3214 000330 2408          JEQ       $C$L75                ; [] |280| 
    3215                                                      ; [] |280| 
    3216            ;* --------------------------------------------------------------------------*
    3217                    .dwpsn  file "../src/pumps.c",line 280,column 27,is_stmt,isa 0
    3218 000332 421C          MOV.W     &off_time_2+0,r12     ; [] |280| 
         000334 0000!
    3219            $C$DW$146       .dwtag  DW_TAG_TI_branch
    3220                    .dwattr $C$DW$146, DW_AT_low_pc(0x00)
    3221                    .dwattr $C$DW$146, DW_AT_name("__mspabi_fltif")
    3222                    .dwattr $C$DW$146, DW_AT_TI_call
    3223            
    3224 000336 13B0!         CALLA     #__mspabi_fltif       ; [] |280| 
         000338 0000 
    3225                                                      ; [] |280| 
    3226 00033a 4C82          MOV.W     r12,&Tank_Methanol_flow+0 ; [] |280| 
MSP430 Assembler PC v21.6.1 Tue Dec 20 13:46:05 2022

Copyright (c) 2003-2018 Texas Instruments Incorporated
pumps.asm                                                            PAGE   64

         00033c 0000!
    3227 00033e 4D82          MOV.W     r13,&Tank_Methanol_flow+2 ; [] |280| 
         000340 0002!
    3228            ;* --------------------------------------------------------------------------*
    3229 000342       $C$L75:    
    3230                    .dwpsn  file "../src/pumps.c",line 282,column 3,is_stmt,isa 0
    3231 000342 421C          MOV.W     &Tank_Methanol_flow+0,r12 ; [] |282| 
         000344 0000!
    3232 000346 421D          MOV.W     &Tank_Methanol_flow+2,r13 ; [] |282| 
         000348 0002!
    3233            $C$DW$147       .dwtag  DW_TAG_TI_branch
    3234                    .dwattr $C$DW$147, DW_AT_low_pc(0x00)
    3235                    .dwattr $C$DW$147, DW_AT_name("__mspabi_cvtfd")
    3236                    .dwattr $C$DW$147, DW_AT_TI_call
    3237            
    3238 00034a 13B0!         CALLA     #__mspabi_cvtfd       ; [] |282| 
         00034c 0000 
    3239                                                      ; [] |282| 
    3240 00034e 0CC8          MOVA      r12,r8                ; [] |282| 
    3241 000350 0DC9          MOVA      r13,r9                ; [] |282| 
    3242 000352 0ECA          MOVA      r14,r10               ; [] |282| 
    3243 000354 0FCB          MOVA      r15,r11               ; [] |282| 
    3244 000356 403C          MOV.W     #54002,r12            ; [] |282| 
         000358 D2F2 
    3245 00035a 403D          MOV.W     #25165,r13            ; [] |282| 
         00035c 624D 
    3246 00035e 403E          MOV.W     #22544,r14            ; [] |282| 
         000360 5810 
    3247 000362 403F          MOV.W     #16361,r15            ; [] |282| 
         000364 3FE9 
    3248            $C$DW$148       .dwtag  DW_TAG_TI_branch
    3249                    .dwattr $C$DW$148, DW_AT_low_pc(0x00)
    3250                    .dwattr $C$DW$148, DW_AT_name("__mspabi_mpyd")
    3251                    .dwattr $C$DW$148, DW_AT_TI_call
    3252            
    3253 000366 13B0!         CALLA     #__mspabi_mpyd        ; [] |282| 
         000368 0000 
    3254                                                      ; [] |282| 
    3255            $C$DW$149       .dwtag  DW_TAG_TI_branch
    3256                    .dwattr $C$DW$149, DW_AT_low_pc(0x00)
    3257                    .dwattr $C$DW$149, DW_AT_name("__mspabi_cvtdf")
    3258                    .dwattr $C$DW$149, DW_AT_TI_call
    3259            
    3260 00036a 13B0!         CALLA     #__mspabi_cvtdf       ; [] |282| 
         00036c 0000 
    3261                                                      ; [] |282| 
    3262 00036e 4C82          MOV.W     r12,&Tank_Methanol_flow_gph+0 ; [] |282| 
         000370 0000!
    3263 000372 4D82          MOV.W     r13,&Tank_Methanol_flow_gph+2 ; [] |282| 
         000374 0002!
    3264                    .dwpsn  file "../src/pumps.c",line 285,column 3,is_stmt,isa 0
    3265 000376 90B2          CMP.W     #10,&TB0CCR1+0        ; [] |285| 
         000378 000A 
         00037a 0000!
    3266 00037c 2C02          JHS       $C$L76                ; [] |285| 
MSP430 Assembler PC v21.6.1 Tue Dec 20 13:46:05 2022

Copyright (c) 2003-2018 Texas Instruments Incorporated
pumps.asm                                                            PAGE   65

    3267                                                      ; [] |285| 
    3268            ;* --------------------------------------------------------------------------*
    3269                    .dwpsn  file "../src/pumps.c",line 285,column 21,is_stmt,isa 0
    3270 00037e 4382          MOV.W     #0,&TB0CCR1+0         ; [] |285| 
         000380 0000!
    3271            ;* --------------------------------------------------------------------------*
    3272 000382       $C$L76:    
    3273                    .dwpsn  file "../src/pumps.c",line 286,column 3,is_stmt,isa 0
    3274 000382 90B2          CMP.W     #701,&TB0CCR1+0       ; [] |286| 
         000384 02BD 
         000386 0000!
    3275 000388 2803          JLO       $C$L77                ; [] |286| 
    3276                                                      ; [] |286| 
    3277            ;* --------------------------------------------------------------------------*
    3278                    .dwpsn  file "../src/pumps.c",line 286,column 22,is_stmt,isa 0
    3279 00038a 40B2          MOV.W     #700,&TB0CCR1+0       ; [] |286| 
         00038c 02BC 
         00038e 0000!
    3280            ;* --------------------------------------------------------------------------*
    3281 000390       $C$L77:    
    3282                    .dwpsn  file "../src/pumps.c",line 287,column 3,is_stmt,isa 0
    3283 000390 4292          MOV.W     &TB0CCR1+0,&TA0CCR3+0 ; [] |287| 
         000392 0000!
         000394 0000!
    3284                    .dwpsn  file "../src/pumps.c",line 294,column 3,is_stmt,isa 0
    3285 000396 93C2          TST.B     &system_calibration+0 ; [] |294| 
         000398 0000!
    3286 00039a 2062          JNE       $C$L83                ; [] |294| 
    3287                                                      ; [] |294| 
    3288            ;* --------------------------------------------------------------------------*
    3289                    .dwpsn  file "../src/pumps.c",line 331,column 5,is_stmt,isa 0
    3290 00039c 421C          MOV.W     &FP_Methanol_flow+0,r12 ; [] |331| 
         00039e 0000!
    3291 0003a0 421D          MOV.W     &FP_Methanol_flow+2,r13 ; [] |331| 
         0003a2 0002!
    3292 0003a4 430E          MOV.W     #0,r14                ; [] |331| 
    3293 0003a6 403F          MOV.W     #16256,r15            ; [] |331| 
         0003a8 3F80 
    3294            $C$DW$150       .dwtag  DW_TAG_TI_branch
    3295                    .dwattr $C$DW$150, DW_AT_low_pc(0x00)
    3296                    .dwattr $C$DW$150, DW_AT_name("__mspabi_cmpf")
    3297                    .dwattr $C$DW$150, DW_AT_TI_call
    3298            
    3299 0003aa 13B0!         CALLA     #__mspabi_cmpf        ; [] |331| 
         0003ac 0000 
    3300                                                      ; [] |331| 
    3301 0003ae 930C          TST.W     r12                   ; [] |331| 
    3302 0003b0 3854          JL        $C$L82                ; [] |331| 
    3303                                                      ; [] |331| 
    3304            ;* --------------------------------------------------------------------------*
    3305                    .dwpsn  file "../src/pumps.c",line 339,column 7,is_stmt,isa 0
    3306 0003b2 421C          MOV.W     &PUMP3_cal+0,r12      ; [] |339| 
         0003b4 0000!
    3307 0003b6 421D          MOV.W     &PUMP3_cal+2,r13      ; [] |339| 
         0003b8 0002!
MSP430 Assembler PC v21.6.1 Tue Dec 20 13:46:05 2022

Copyright (c) 2003-2018 Texas Instruments Incorporated
pumps.asm                                                            PAGE   66

    3308 0003ba 421E          MOV.W     &FP_Methanol_flow+0,r14 ; [] |339| 
         0003bc 0000!
    3309 0003be 421F          MOV.W     &FP_Methanol_flow+2,r15 ; [] |339| 
         0003c0 0002!
    3310            $C$DW$151       .dwtag  DW_TAG_TI_branch
    3311                    .dwattr $C$DW$151, DW_AT_low_pc(0x00)
    3312                    .dwattr $C$DW$151, DW_AT_name("__mspabi_mpyf")
    3313                    .dwattr $C$DW$151, DW_AT_TI_call
    3314            
    3315 0003c2 13B0!         CALLA     #__mspabi_mpyf        ; [] |339| 
         0003c4 0000 
    3316                                                      ; [] |339| 
    3317            $C$DW$152       .dwtag  DW_TAG_TI_branch
    3318                    .dwattr $C$DW$152, DW_AT_low_pc(0x00)
    3319                    .dwattr $C$DW$152, DW_AT_name("__mspabi_cvtfd")
    3320                    .dwattr $C$DW$152, DW_AT_TI_call
    3321            
    3322 0003c6 13B0!         CALLA     #__mspabi_cvtfd       ; [] |339| 
         0003c8 0000 
    3323                                                      ; [] |339| 
    3324 0003ca 4308          MOV.W     #0,r8                 ; [] |339| 
    3325 0003cc 4309          MOV.W     #0,r9                 ; [] |339| 
    3326 0003ce 403A          MOV.W     #16384,r10            ; [] |339| 
         0003d0 4000 
    3327 0003d2 403B          MOV.W     #16527,r11            ; [] |339| 
         0003d4 408F 
    3328            $C$DW$153       .dwtag  DW_TAG_TI_branch
    3329                    .dwattr $C$DW$153, DW_AT_low_pc(0x00)
    3330                    .dwattr $C$DW$153, DW_AT_name("__mspabi_divd")
    3331                    .dwattr $C$DW$153, DW_AT_TI_call
    3332            
    3333 0003d6 13B0!         CALLA     #__mspabi_divd        ; [] |339| 
         0003d8 0000 
    3334                                                      ; [] |339| 
    3335 0003da 0CC8          MOVA      r12,r8                ; [] |339| 
    3336 0003dc 0DC9          MOVA      r13,r9                ; [] |339| 
    3337 0003de 0ECA          MOVA      r14,r10               ; [] |339| 
    3338 0003e0 0FCB          MOVA      r15,r11               ; [] |339| 
    3339 0003e2 430C          MOV.W     #0,r12                ; [] |339| 
    3340 0003e4 430D          MOV.W     #0,r13                ; [] |339| 
    3341 0003e6 430E          MOV.W     #0,r14                ; [] |339| 
    3342 0003e8 403F          MOV.W     #16446,r15            ; [] |339| 
         0003ea 403E 
    3343            $C$DW$154       .dwtag  DW_TAG_TI_branch
    3344                    .dwattr $C$DW$154, DW_AT_low_pc(0x00)
    3345                    .dwattr $C$DW$154, DW_AT_name("__mspabi_subd")
    3346                    .dwattr $C$DW$154, DW_AT_TI_call
    3347            
    3348 0003ec 13B0!         CALLA     #__mspabi_subd        ; [] |339| 
         0003ee 0000 
    3349                                                      ; [] |339| 
    3350 0003f0 0CC8          MOVA      r12,r8                ; [] |339| 
    3351 0003f2 0DC9          MOVA      r13,r9                ; [] |339| 
    3352 0003f4 0ECA          MOVA      r14,r10               ; [] |339| 
    3353 0003f6 0FCB          MOVA      r15,r11               ; [] |339| 
MSP430 Assembler PC v21.6.1 Tue Dec 20 13:46:05 2022

Copyright (c) 2003-2018 Texas Instruments Incorporated
pumps.asm                                                            PAGE   67

    3354 0003f8 430C          MOV.W     #0,r12                ; [] |339| 
    3355 0003fa 430D          MOV.W     #0,r13                ; [] |339| 
    3356 0003fc 430E          MOV.W     #0,r14                ; [] |339| 
    3357 0003fe 403F          MOV.W     #16420,r15            ; [] |339| 
         000400 4024 
    3358            $C$DW$155       .dwtag  DW_TAG_TI_branch
    3359                    .dwattr $C$DW$155, DW_AT_low_pc(0x00)
