MSP430 Assembler PC v21.6.1 Tue Dec 20 14:07:36 2022

Copyright (c) 2003-2018 Texas Instruments Incorporated
start.asm                                                            PAGE    1

       1            ;******************************************************************************
       2            ;* MSP430 G3 C/C++ Codegen                                              PC v21.6.1.LTS *
       3            ;* Date/Time created: Tue Dec 20 14:07:36 2022                                *
       4            ;******************************************************************************
       5                    .compiler_opts --abi=eabi --diag_wrap=off --hll_source=on --mem_model:code=large --mem_model:d
       6            
       7            $C$DW$CU        .dwtag  DW_TAG_compile_unit
       8                    .dwattr $C$DW$CU, DW_AT_name("../src/start.c")
       9                    .dwattr $C$DW$CU, DW_AT_producer("TI MSP430 G3 C/C++ Codegen PC v21.6.1.LTS Copyright (c) 2003
      10                    .dwattr $C$DW$CU, DW_AT_TI_version(0x01)
      11                    .dwattr $C$DW$CU, DW_AT_comp_dir("C:\Users\MCourson\workspace_v11\MZERO_HB50Board\Debug")
      12            $C$DW$1 .dwtag  DW_TAG_variable
      13                    .dwattr $C$DW$1, DW_AT_name("PAOUT_H")
      14                    .dwattr $C$DW$1, DW_AT_TI_symbol_name("PAOUT_H")
      15                    .dwattr $C$DW$1, DW_AT_type(*$C$DW$T$94)
      16                    .dwattr $C$DW$1, DW_AT_declaration
      17                    .dwattr $C$DW$1, DW_AT_external
      18                    .dwattr $C$DW$1, DW_AT_decl_file("C:\ti\ccs1110\ccs\ccs_base\msp430\include\msp430f5438a.h")
      19                    .dwattr $C$DW$1, DW_AT_decl_line(0x45e)
      20                    .dwattr $C$DW$1, DW_AT_decl_column(0x01)
      21            
      22            $C$DW$2 .dwtag  DW_TAG_variable
      23                    .dwattr $C$DW$2, DW_AT_name("PBOUT_L")
      24                    .dwattr $C$DW$2, DW_AT_TI_symbol_name("PBOUT_L")
      25                    .dwattr $C$DW$2, DW_AT_type(*$C$DW$T$94)
      26                    .dwattr $C$DW$2, DW_AT_declaration
      27                    .dwattr $C$DW$2, DW_AT_external
      28                    .dwattr $C$DW$2, DW_AT_decl_file("C:\ti\ccs1110\ccs\ccs_base\msp430\include\msp430f5438a.h")
      29                    .dwattr $C$DW$2, DW_AT_decl_line(0x4b7)
      30                    .dwattr $C$DW$2, DW_AT_decl_column(0x01)
      31            
      32            $C$DW$3 .dwtag  DW_TAG_variable
      33                    .dwattr $C$DW$3, DW_AT_name("PCOUT_L")
      34                    .dwattr $C$DW$3, DW_AT_TI_symbol_name("PCOUT_L")
      35                    .dwattr $C$DW$3, DW_AT_type(*$C$DW$T$94)
      36                    .dwattr $C$DW$3, DW_AT_declaration
      37                    .dwattr $C$DW$3, DW_AT_external
      38                    .dwattr $C$DW$3, DW_AT_decl_file("C:\ti\ccs1110\ccs\ccs_base\msp430\include\msp430f5438a.h")
      39                    .dwattr $C$DW$3, DW_AT_decl_line(0x4ea)
      40                    .dwattr $C$DW$3, DW_AT_decl_column(0x01)
      41            
      42            $C$DW$4 .dwtag  DW_TAG_variable
      43                    .dwattr $C$DW$4, DW_AT_name("PDOUT_H")
      44                    .dwattr $C$DW$4, DW_AT_TI_symbol_name("PDOUT_H")
      45                    .dwattr $C$DW$4, DW_AT_type(*$C$DW$T$94)
      46                    .dwattr $C$DW$4, DW_AT_declaration
      47                    .dwattr $C$DW$4, DW_AT_external
      48                    .dwattr $C$DW$4, DW_AT_decl_file("C:\ti\ccs1110\ccs\ccs_base\msp430\include\msp430f5438a.h")
      49                    .dwattr $C$DW$4, DW_AT_decl_line(0x51e)
      50                    .dwattr $C$DW$4, DW_AT_decl_column(0x01)
      51            
      52            $C$DW$5 .dwtag  DW_TAG_variable
      53                    .dwattr $C$DW$5, DW_AT_name("PEOUT_L")
      54                    .dwattr $C$DW$5, DW_AT_TI_symbol_name("PEOUT_L")
      55                    .dwattr $C$DW$5, DW_AT_type(*$C$DW$T$94)
MSP430 Assembler PC v21.6.1 Tue Dec 20 14:07:36 2022

Copyright (c) 2003-2018 Texas Instruments Incorporated
start.asm                                                            PAGE    2

      56                    .dwattr $C$DW$5, DW_AT_declaration
      57                    .dwattr $C$DW$5, DW_AT_external
      58                    .dwattr $C$DW$5, DW_AT_decl_file("C:\ti\ccs1110\ccs\ccs_base\msp430\include\msp430f5438a.h")
      59                    .dwattr $C$DW$5, DW_AT_decl_line(0x550)
      60                    .dwattr $C$DW$5, DW_AT_decl_column(0x01)
      61            
      62            $C$DW$6 .dwtag  DW_TAG_variable
      63                    .dwattr $C$DW$6, DW_AT_name("TA0CCR3")
      64                    .dwattr $C$DW$6, DW_AT_TI_symbol_name("TA0CCR3")
      65                    .dwattr $C$DW$6, DW_AT_type(*$C$DW$T$123)
      66                    .dwattr $C$DW$6, DW_AT_declaration
      67                    .dwattr $C$DW$6, DW_AT_external
      68                    .dwattr $C$DW$6, DW_AT_decl_file("C:\ti\ccs1110\ccs\ccs_base\msp430\include\msp430f5438a.h")
      69                    .dwattr $C$DW$6, DW_AT_decl_line(0x943)
      70                    .dwattr $C$DW$6, DW_AT_decl_column(0x01)
      71            
      72            $C$DW$7 .dwtag  DW_TAG_variable
      73                    .dwattr $C$DW$7, DW_AT_name("TA0CCR4")
      74                    .dwattr $C$DW$7, DW_AT_TI_symbol_name("TA0CCR4")
      75                    .dwattr $C$DW$7, DW_AT_type(*$C$DW$T$123)
      76                    .dwattr $C$DW$7, DW_AT_declaration
      77                    .dwattr $C$DW$7, DW_AT_external
      78                    .dwattr $C$DW$7, DW_AT_decl_file("C:\ti\ccs1110\ccs\ccs_base\msp430\include\msp430f5438a.h")
      79                    .dwattr $C$DW$7, DW_AT_decl_line(0x944)
      80                    .dwattr $C$DW$7, DW_AT_decl_column(0x01)
      81            
      82            $C$DW$8 .dwtag  DW_TAG_variable
      83                    .dwattr $C$DW$8, DW_AT_name("TB0CCR1")
      84                    .dwattr $C$DW$8, DW_AT_TI_symbol_name("TB0CCR1")
      85                    .dwattr $C$DW$8, DW_AT_type(*$C$DW$T$123)
      86                    .dwattr $C$DW$8, DW_AT_declaration
      87                    .dwattr $C$DW$8, DW_AT_external
      88                    .dwattr $C$DW$8, DW_AT_decl_file("C:\ti\ccs1110\ccs\ccs_base\msp430\include\msp430f5438a.h")
      89                    .dwattr $C$DW$8, DW_AT_decl_line(0x9e2)
      90                    .dwattr $C$DW$8, DW_AT_decl_column(0x01)
      91            
      92            $C$DW$9 .dwtag  DW_TAG_variable
      93                    .dwattr $C$DW$9, DW_AT_name("TB0CCR2")
      94                    .dwattr $C$DW$9, DW_AT_TI_symbol_name("TB0CCR2")
      95                    .dwattr $C$DW$9, DW_AT_type(*$C$DW$T$123)
      96                    .dwattr $C$DW$9, DW_AT_declaration
      97                    .dwattr $C$DW$9, DW_AT_external
      98                    .dwattr $C$DW$9, DW_AT_decl_file("C:\ti\ccs1110\ccs\ccs_base\msp430\include\msp430f5438a.h")
      99                    .dwattr $C$DW$9, DW_AT_decl_line(0x9e3)
     100                    .dwattr $C$DW$9, DW_AT_decl_column(0x01)
     101            
     102            $C$DW$10        .dwtag  DW_TAG_variable
     103                    .dwattr $C$DW$10, DW_AT_name("TB0CCR3")
     104                    .dwattr $C$DW$10, DW_AT_TI_symbol_name("TB0CCR3")
     105                    .dwattr $C$DW$10, DW_AT_type(*$C$DW$T$123)
     106                    .dwattr $C$DW$10, DW_AT_declaration
     107                    .dwattr $C$DW$10, DW_AT_external
     108                    .dwattr $C$DW$10, DW_AT_decl_file("C:\ti\ccs1110\ccs\ccs_base\msp430\include\msp430f5438a.h")
     109                    .dwattr $C$DW$10, DW_AT_decl_line(0x9e4)
     110                    .dwattr $C$DW$10, DW_AT_decl_column(0x01)
MSP430 Assembler PC v21.6.1 Tue Dec 20 14:07:36 2022

Copyright (c) 2003-2018 Texas Instruments Incorporated
start.asm                                                            PAGE    3

     111            
     112            $C$DW$11        .dwtag  DW_TAG_variable
     113                    .dwattr $C$DW$11, DW_AT_name("TB0CCR4")
     114                    .dwattr $C$DW$11, DW_AT_TI_symbol_name("TB0CCR4")
     115                    .dwattr $C$DW$11, DW_AT_type(*$C$DW$T$123)
     116                    .dwattr $C$DW$11, DW_AT_declaration
     117                    .dwattr $C$DW$11, DW_AT_external
     118                    .dwattr $C$DW$11, DW_AT_decl_file("C:\ti\ccs1110\ccs\ccs_base\msp430\include\msp430f5438a.h")
     119                    .dwattr $C$DW$11, DW_AT_decl_line(0x9e5)
     120                    .dwattr $C$DW$11, DW_AT_decl_column(0x01)
     121            
     122            $C$DW$12        .dwtag  DW_TAG_variable
     123                    .dwattr $C$DW$12, DW_AT_name("TB0CCR6")
     124                    .dwattr $C$DW$12, DW_AT_TI_symbol_name("TB0CCR6")
     125                    .dwattr $C$DW$12, DW_AT_type(*$C$DW$T$123)
     126                    .dwattr $C$DW$12, DW_AT_declaration
     127                    .dwattr $C$DW$12, DW_AT_external
     128                    .dwattr $C$DW$12, DW_AT_decl_file("C:\ti\ccs1110\ccs\ccs_base\msp430\include\msp430f5438a.h")
     129                    .dwattr $C$DW$12, DW_AT_decl_line(0x9e7)
     130                    .dwattr $C$DW$12, DW_AT_decl_column(0x01)
     131            
     132                    .global mode
     133                    .common mode,2,2
     134            $C$DW$13        .dwtag  DW_TAG_variable
     135                    .dwattr $C$DW$13, DW_AT_name("mode")
     136                    .dwattr $C$DW$13, DW_AT_TI_symbol_name("mode")
     137                    .dwattr $C$DW$13, DW_AT_location[DW_OP_addr mode]
     138                    .dwattr $C$DW$13, DW_AT_type(*$C$DW$T$54)
     139                    .dwattr $C$DW$13, DW_AT_external
     140                    .dwattr $C$DW$13, DW_AT_decl_file("C:/Users/MCourson/workspace_v11/MZERO_HB50Board/include/Mai
     141                    .dwattr $C$DW$13, DW_AT_decl_line(0x65)
     142                    .dwattr $C$DW$13, DW_AT_decl_column(0x07)
     143            
     144                    .global FCState
     145                    .common FCState,2,2
     146            $C$DW$14        .dwtag  DW_TAG_variable
     147                    .dwattr $C$DW$14, DW_AT_name("FCState")
     148                    .dwattr $C$DW$14, DW_AT_TI_symbol_name("FCState")
     149                    .dwattr $C$DW$14, DW_AT_location[DW_OP_addr FCState]
     150                    .dwattr $C$DW$14, DW_AT_type(*$C$DW$T$56)
     151                    .dwattr $C$DW$14, DW_AT_external
     152                    .dwattr $C$DW$14, DW_AT_decl_file("C:/Users/MCourson/workspace_v11/MZERO_HB50Board/include/Mai
     153                    .dwattr $C$DW$14, DW_AT_decl_line(0x6d)
     154                    .dwattr $C$DW$14, DW_AT_decl_column(0x0a)
     155            
     156                    .global msgstatus
     157                    .common msgstatus,2,2
     158            $C$DW$15        .dwtag  DW_TAG_variable
     159                    .dwattr $C$DW$15, DW_AT_name("msgstatus")
     160                    .dwattr $C$DW$15, DW_AT_TI_symbol_name("msgstatus")
     161                    .dwattr $C$DW$15, DW_AT_location[DW_OP_addr msgstatus]
     162                    .dwattr $C$DW$15, DW_AT_type(*$C$DW$T$58)
     163                    .dwattr $C$DW$15, DW_AT_external
     164                    .dwattr $C$DW$15, DW_AT_decl_file("C:/Users/MCourson/workspace_v11/MZERO_HB50Board/include/Mai
     165                    .dwattr $C$DW$15, DW_AT_decl_line(0x7c)
MSP430 Assembler PC v21.6.1 Tue Dec 20 14:07:36 2022

Copyright (c) 2003-2018 Texas Instruments Incorporated
start.asm                                                            PAGE    4

     166                    .dwattr $C$DW$15, DW_AT_decl_column(0x0f)
     167            
     168                    .global status
     169                    .common status,2,2
     170            $C$DW$16        .dwtag  DW_TAG_variable
     171                    .dwattr $C$DW$16, DW_AT_name("status")
     172                    .dwattr $C$DW$16, DW_AT_TI_symbol_name("status")
     173                    .dwattr $C$DW$16, DW_AT_location[DW_OP_addr status]
     174                    .dwattr $C$DW$16, DW_AT_type(*$C$DW$T$60)
     175                    .dwattr $C$DW$16, DW_AT_external
     176                    .dwattr $C$DW$16, DW_AT_decl_file("C:/Users/MCourson/workspace_v11/MZERO_HB50Board/include/Mai
     177                    .dwattr $C$DW$16, DW_AT_decl_line(0x83)
     178                    .dwattr $C$DW$16, DW_AT_decl_column(0x0e)
     179            
     180            $C$DW$17        .dwtag  DW_TAG_variable
     181                    .dwattr $C$DW$17, DW_AT_name("burner_fuel")
     182                    .dwattr $C$DW$17, DW_AT_TI_symbol_name("burner_fuel")
     183                    .dwattr $C$DW$17, DW_AT_type(*$C$DW$T$24)
     184                    .dwattr $C$DW$17, DW_AT_declaration
     185                    .dwattr $C$DW$17, DW_AT_external
     186                    .dwattr $C$DW$17, DW_AT_decl_file("../src/start.c")
     187                    .dwattr $C$DW$17, DW_AT_decl_line(0x08)
     188                    .dwattr $C$DW$17, DW_AT_decl_column(0x10)
     189            
     190            $C$DW$18        .dwtag  DW_TAG_variable
     191                    .dwattr $C$DW$18, DW_AT_name("fm")
     192                    .dwattr $C$DW$18, DW_AT_TI_symbol_name("fm")
     193                    .dwattr $C$DW$18, DW_AT_type(*$C$DW$T$27)
     194                    .dwattr $C$DW$18, DW_AT_declaration
     195                    .dwattr $C$DW$18, DW_AT_external
     196                    .dwattr $C$DW$18, DW_AT_decl_file("../src/start.c")
     197                    .dwattr $C$DW$18, DW_AT_decl_line(0x0a)
     198                    .dwattr $C$DW$18, DW_AT_decl_column(0x11)
     199            
     200            $C$DW$19        .dwtag  DW_TAG_variable
     201                    .dwattr $C$DW$19, DW_AT_name("TC2_temp")
     202                    .dwattr $C$DW$19, DW_AT_TI_symbol_name("TC2_temp")
     203                    .dwattr $C$DW$19, DW_AT_type(*$C$DW$T$16)
     204                    .dwattr $C$DW$19, DW_AT_declaration
     205                    .dwattr $C$DW$19, DW_AT_external
     206                    .dwattr $C$DW$19, DW_AT_decl_file("../src/start.c")
     207                    .dwattr $C$DW$19, DW_AT_decl_line(0x0d)
     208                    .dwattr $C$DW$19, DW_AT_decl_column(0x0e)
     209            
     210            $C$DW$20        .dwtag  DW_TAG_variable
     211                    .dwattr $C$DW$20, DW_AT_name("TC1_temp")
     212                    .dwattr $C$DW$20, DW_AT_TI_symbol_name("TC1_temp")
     213                    .dwattr $C$DW$20, DW_AT_type(*$C$DW$T$16)
     214                    .dwattr $C$DW$20, DW_AT_declaration
     215                    .dwattr $C$DW$20, DW_AT_external
     216                    .dwattr $C$DW$20, DW_AT_decl_file("../src/start.c")
     217                    .dwattr $C$DW$20, DW_AT_decl_line(0x0e)
     218                    .dwattr $C$DW$20, DW_AT_decl_column(0x0e)
     219            
     220            $C$DW$21        .dwtag  DW_TAG_variable
MSP430 Assembler PC v21.6.1 Tue Dec 20 14:07:36 2022

Copyright (c) 2003-2018 Texas Instruments Incorporated
start.asm                                                            PAGE    5

     221                    .dwattr $C$DW$21, DW_AT_name("FC_burner_temp")
     222                    .dwattr $C$DW$21, DW_AT_TI_symbol_name("FC_burner_temp")
     223                    .dwattr $C$DW$21, DW_AT_type(*$C$DW$T$16)
     224                    .dwattr $C$DW$21, DW_AT_declaration
     225                    .dwattr $C$DW$21, DW_AT_external
     226                    .dwattr $C$DW$21, DW_AT_decl_file("../src/start.c")
     227                    .dwattr $C$DW$21, DW_AT_decl_line(0x0f)
     228                    .dwattr $C$DW$21, DW_AT_decl_column(0x0e)
     229            
     230            $C$DW$22        .dwtag  DW_TAG_variable
     231                    .dwattr $C$DW$22, DW_AT_name("ambient_temp")
     232                    .dwattr $C$DW$22, DW_AT_TI_symbol_name("ambient_temp")
     233                    .dwattr $C$DW$22, DW_AT_type(*$C$DW$T$16)
     234                    .dwattr $C$DW$22, DW_AT_declaration
     235                    .dwattr $C$DW$22, DW_AT_external
     236                    .dwattr $C$DW$22, DW_AT_decl_file("../src/start.c")
     237                    .dwattr $C$DW$22, DW_AT_decl_line(0x10)
     238                    .dwattr $C$DW$22, DW_AT_decl_column(0x0e)
     239            
     240            $C$DW$23        .dwtag  DW_TAG_variable
     241                    .dwattr $C$DW$23, DW_AT_name("FC_volts")
     242                    .dwattr $C$DW$23, DW_AT_TI_symbol_name("FC_volts")
     243                    .dwattr $C$DW$23, DW_AT_type(*$C$DW$T$16)
     244                    .dwattr $C$DW$23, DW_AT_declaration
     245                    .dwattr $C$DW$23, DW_AT_external
     246                    .dwattr $C$DW$23, DW_AT_decl_file("../src/start.c")
     247                    .dwattr $C$DW$23, DW_AT_decl_line(0x11)
     248                    .dwattr $C$DW$23, DW_AT_decl_column(0x0e)
     249            
     250            $C$DW$24        .dwtag  DW_TAG_variable
     251                    .dwattr $C$DW$24, DW_AT_name("Output_volts")
     252                    .dwattr $C$DW$24, DW_AT_TI_symbol_name("Output_volts")
     253                    .dwattr $C$DW$24, DW_AT_type(*$C$DW$T$16)
     254                    .dwattr $C$DW$24, DW_AT_declaration
     255                    .dwattr $C$DW$24, DW_AT_external
     256                    .dwattr $C$DW$24, DW_AT_decl_file("../src/start.c")
     257                    .dwattr $C$DW$24, DW_AT_decl_line(0x12)
     258                    .dwattr $C$DW$24, DW_AT_decl_column(0x0e)
     259            
     260            $C$DW$25        .dwtag  DW_TAG_variable
     261                    .dwattr $C$DW$25, DW_AT_name("CO_Batt_V")
     262                    .dwattr $C$DW$25, DW_AT_TI_symbol_name("CO_Batt_V")
     263                    .dwattr $C$DW$25, DW_AT_type(*$C$DW$T$16)
     264                    .dwattr $C$DW$25, DW_AT_declaration
     265                    .dwattr $C$DW$25, DW_AT_external
     266                    .dwattr $C$DW$25, DW_AT_decl_file("../src/start.c")
     267                    .dwattr $C$DW$25, DW_AT_decl_line(0x16)
     268                    .dwattr $C$DW$25, DW_AT_decl_column(0x0e)
     269            
     270            $C$DW$26        .dwtag  DW_TAG_variable
     271                    .dwattr $C$DW$26, DW_AT_name("FC_Current")
     272                    .dwattr $C$DW$26, DW_AT_TI_symbol_name("FC_Current")
     273                    .dwattr $C$DW$26, DW_AT_type(*$C$DW$T$16)
     274                    .dwattr $C$DW$26, DW_AT_declaration
     275                    .dwattr $C$DW$26, DW_AT_external
MSP430 Assembler PC v21.6.1 Tue Dec 20 14:07:36 2022

Copyright (c) 2003-2018 Texas Instruments Incorporated
start.asm                                                            PAGE    6

     276                    .dwattr $C$DW$26, DW_AT_decl_file("../src/start.c")
     277                    .dwattr $C$DW$26, DW_AT_decl_line(0x17)
     278                    .dwattr $C$DW$26, DW_AT_decl_column(0x0e)
     279            
     280            $C$DW$27        .dwtag  DW_TAG_variable
     281                    .dwattr $C$DW$27, DW_AT_name("Tset")
     282                    .dwattr $C$DW$27, DW_AT_TI_symbol_name("Tset")
     283                    .dwattr $C$DW$27, DW_AT_type(*$C$DW$T$48)
     284                    .dwattr $C$DW$27, DW_AT_declaration
     285                    .dwattr $C$DW$27, DW_AT_external
     286                    .dwattr $C$DW$27, DW_AT_decl_file("../src/start.c")
     287                    .dwattr $C$DW$27, DW_AT_decl_line(0x1a)
     288                    .dwattr $C$DW$27, DW_AT_decl_column(0x10)
     289            
     290            $C$DW$28        .dwtag  DW_TAG_variable
     291                    .dwattr $C$DW$28, DW_AT_name("load")
     292                    .dwattr $C$DW$28, DW_AT_TI_symbol_name("load")
     293                    .dwattr $C$DW$28, DW_AT_type(*$C$DW$T$24)
     294                    .dwattr $C$DW$28, DW_AT_declaration
     295                    .dwattr $C$DW$28, DW_AT_external
     296                    .dwattr $C$DW$28, DW_AT_decl_file("../src/start.c")
     297                    .dwattr $C$DW$28, DW_AT_decl_line(0x1b)
     298                    .dwattr $C$DW$28, DW_AT_decl_column(0x10)
     299            
     300            $C$DW$29        .dwtag  DW_TAG_variable
     301                    .dwattr $C$DW$29, DW_AT_name("main_fuel_flow")
     302                    .dwattr $C$DW$29, DW_AT_TI_symbol_name("main_fuel_flow")
     303                    .dwattr $C$DW$29, DW_AT_type(*$C$DW$T$16)
     304                    .dwattr $C$DW$29, DW_AT_declaration
     305                    .dwattr $C$DW$29, DW_AT_external
     306                    .dwattr $C$DW$29, DW_AT_decl_file("../src/start.c")
     307                    .dwattr $C$DW$29, DW_AT_decl_line(0x1d)
     308                    .dwattr $C$DW$29, DW_AT_decl_column(0x0e)
     309            
     310            $C$DW$30        .dwtag  DW_TAG_variable
     311                    .dwattr $C$DW$30, DW_AT_name("fc_run_temp")
     312                    .dwattr $C$DW$30, DW_AT_TI_symbol_name("fc_run_temp")
     313                    .dwattr $C$DW$30, DW_AT_type(*$C$DW$T$48)
     314                    .dwattr $C$DW$30, DW_AT_declaration
     315                    .dwattr $C$DW$30, DW_AT_external
     316                    .dwattr $C$DW$30, DW_AT_decl_file("../src/start.c")
     317                    .dwattr $C$DW$30, DW_AT_decl_line(0x1e)
     318                    .dwattr $C$DW$30, DW_AT_decl_column(0x10)
     319            
     320            $C$DW$31        .dwtag  DW_TAG_variable
     321                    .dwattr $C$DW$31, DW_AT_name("error_message")
     322                    .dwattr $C$DW$31, DW_AT_TI_symbol_name("error_message")
     323                    .dwattr $C$DW$31, DW_AT_type(*$C$DW$T$119)
     324                    .dwattr $C$DW$31, DW_AT_declaration
     325                    .dwattr $C$DW$31, DW_AT_external
     326                    .dwattr $C$DW$31, DW_AT_decl_file("../src/start.c")
     327                    .dwattr $C$DW$31, DW_AT_decl_line(0x22)
     328                    .dwattr $C$DW$31, DW_AT_decl_column(0x10)
     329            
     330            $C$DW$32        .dwtag  DW_TAG_variable
MSP430 Assembler PC v21.6.1 Tue Dec 20 14:07:36 2022

Copyright (c) 2003-2018 Texas Instruments Incorporated
start.asm                                                            PAGE    7

     331                    .dwattr $C$DW$32, DW_AT_name("FC_Dropout")
     332                    .dwattr $C$DW$32, DW_AT_TI_symbol_name("FC_Dropout")
     333                    .dwattr $C$DW$32, DW_AT_type(*$C$DW$T$48)
     334                    .dwattr $C$DW$32, DW_AT_declaration
     335                    .dwattr $C$DW$32, DW_AT_external
     336                    .dwattr $C$DW$32, DW_AT_decl_file("../src/start.c")
     337                    .dwattr $C$DW$32, DW_AT_decl_line(0x26)
     338                    .dwattr $C$DW$32, DW_AT_decl_column(0x10)
     339            
     340            $C$DW$33        .dwtag  DW_TAG_variable
     341                    .dwattr $C$DW$33, DW_AT_name("FC_power")
     342                    .dwattr $C$DW$33, DW_AT_TI_symbol_name("FC_power")
     343                    .dwattr $C$DW$33, DW_AT_type(*$C$DW$T$16)
     344                    .dwattr $C$DW$33, DW_AT_declaration
     345                    .dwattr $C$DW$33, DW_AT_external
     346                    .dwattr $C$DW$33, DW_AT_decl_file("../src/start.c")
     347                    .dwattr $C$DW$33, DW_AT_decl_line(0x27)
     348                    .dwattr $C$DW$33, DW_AT_decl_column(0x0e)
     349            
     350            $C$DW$34        .dwtag  DW_TAG_variable
     351                    .dwattr $C$DW$34, DW_AT_name("boost_fuel_flow")
     352                    .dwattr $C$DW$34, DW_AT_TI_symbol_name("boost_fuel_flow")
     353                    .dwattr $C$DW$34, DW_AT_type(*$C$DW$T$16)
     354                    .dwattr $C$DW$34, DW_AT_declaration
     355                    .dwattr $C$DW$34, DW_AT_external
     356                    .dwattr $C$DW$34, DW_AT_decl_file("../src/start.c")
     357                    .dwattr $C$DW$34, DW_AT_decl_line(0x28)
     358                    .dwattr $C$DW$34, DW_AT_decl_column(0x0e)
     359            
     360            $C$DW$35        .dwtag  DW_TAG_variable
     361                    .dwattr $C$DW$35, DW_AT_name("Stime")
     362                    .dwattr $C$DW$35, DW_AT_TI_symbol_name("Stime")
     363                    .dwattr $C$DW$35, DW_AT_type(*$C$DW$T$24)
     364                    .dwattr $C$DW$35, DW_AT_declaration
     365                    .dwattr $C$DW$35, DW_AT_external
     366                    .dwattr $C$DW$35, DW_AT_decl_file("../src/start.c")
     367                    .dwattr $C$DW$35, DW_AT_decl_line(0x2e)
     368                    .dwattr $C$DW$35, DW_AT_decl_column(0x10)
     369            
     370            $C$DW$36        .dwtag  DW_TAG_variable
     371                    .dwattr $C$DW$36, DW_AT_name("SwapCount")
     372                    .dwattr $C$DW$36, DW_AT_TI_symbol_name("SwapCount")
     373                    .dwattr $C$DW$36, DW_AT_type(*$C$DW$T$24)
     374                    .dwattr $C$DW$36, DW_AT_declaration
     375                    .dwattr $C$DW$36, DW_AT_external
     376                    .dwattr $C$DW$36, DW_AT_decl_file("../src/start.c")
     377                    .dwattr $C$DW$36, DW_AT_decl_line(0x34)
     378                    .dwattr $C$DW$36, DW_AT_decl_column(0x10)
     379            
     380            $C$DW$37        .dwtag  DW_TAG_variable
     381                    .dwattr $C$DW$37, DW_AT_name("shutdown_mode")
     382                    .dwattr $C$DW$37, DW_AT_TI_symbol_name("shutdown_mode")
     383                    .dwattr $C$DW$37, DW_AT_type(*$C$DW$T$24)
     384                    .dwattr $C$DW$37, DW_AT_declaration
     385                    .dwattr $C$DW$37, DW_AT_external
MSP430 Assembler PC v21.6.1 Tue Dec 20 14:07:36 2022

Copyright (c) 2003-2018 Texas Instruments Incorporated
start.asm                                                            PAGE    8

     386                    .dwattr $C$DW$37, DW_AT_decl_file("../src/start.c")
     387                    .dwattr $C$DW$37, DW_AT_decl_line(0x3f)
     388                    .dwattr $C$DW$37, DW_AT_decl_column(0x10)
     389            
     390            $C$DW$38        .dwtag  DW_TAG_variable
     391                    .dwattr $C$DW$38, DW_AT_name("Warming")
     392                    .dwattr $C$DW$38, DW_AT_TI_symbol_name("Warming")
     393                    .dwattr $C$DW$38, DW_AT_type(*$C$DW$T$24)
     394                    .dwattr $C$DW$38, DW_AT_declaration
     395                    .dwattr $C$DW$38, DW_AT_external
     396                    .dwattr $C$DW$38, DW_AT_decl_file("../src/start.c")
     397                    .dwattr $C$DW$38, DW_AT_decl_line(0x40)
     398                    .dwattr $C$DW$38, DW_AT_decl_column(0x10)
     399            
     400            $C$DW$39        .dwtag  DW_TAG_variable
     401                    .dwattr $C$DW$39, DW_AT_name("StartTime")
     402                    .dwattr $C$DW$39, DW_AT_TI_symbol_name("StartTime")
     403                    .dwattr $C$DW$39, DW_AT_type(*$C$DW$T$48)
     404                    .dwattr $C$DW$39, DW_AT_declaration
     405                    .dwattr $C$DW$39, DW_AT_external
     406                    .dwattr $C$DW$39, DW_AT_decl_file("../src/start.c")
     407                    .dwattr $C$DW$39, DW_AT_decl_line(0x42)
     408                    .dwattr $C$DW$39, DW_AT_decl_column(0x10)
     409            
     410            $C$DW$40        .dwtag  DW_TAG_variable
     411                    .dwattr $C$DW$40, DW_AT_name("Cold_Temp_Threshold")
     412                    .dwattr $C$DW$40, DW_AT_TI_symbol_name("Cold_Temp_Threshold")
     413                    .dwattr $C$DW$40, DW_AT_type(*$C$DW$T$48)
     414                    .dwattr $C$DW$40, DW_AT_declaration
     415                    .dwattr $C$DW$40, DW_AT_external
     416                    .dwattr $C$DW$40, DW_AT_decl_file("../src/start.c")
     417                    .dwattr $C$DW$40, DW_AT_decl_line(0x43)
     418                    .dwattr $C$DW$40, DW_AT_decl_column(0x10)
     419            
     420            $C$DW$41        .dwtag  DW_TAG_variable
     421                    .dwattr $C$DW$41, DW_AT_name("FP_Heating_Timer")
     422                    .dwattr $C$DW$41, DW_AT_TI_symbol_name("FP_Heating_Timer")
     423                    .dwattr $C$DW$41, DW_AT_type(*$C$DW$T$48)
     424                    .dwattr $C$DW$41, DW_AT_declaration
     425                    .dwattr $C$DW$41, DW_AT_external
     426                    .dwattr $C$DW$41, DW_AT_decl_file("../src/start.c")
     427                    .dwattr $C$DW$41, DW_AT_decl_line(0x44)
     428                    .dwattr $C$DW$41, DW_AT_decl_column(0x10)
     429            
     430            $C$DW$42        .dwtag  DW_TAG_variable
     431                    .dwattr $C$DW$42, DW_AT_name("CycleFlag")
     432                    .dwattr $C$DW$42, DW_AT_TI_symbol_name("CycleFlag")
     433                    .dwattr $C$DW$42, DW_AT_type(*$C$DW$T$48)
     434                    .dwattr $C$DW$42, DW_AT_declaration
     435                    .dwattr $C$DW$42, DW_AT_external
     436                    .dwattr $C$DW$42, DW_AT_decl_file("../src/start.c")
     437                    .dwattr $C$DW$42, DW_AT_decl_line(0x45)
     438                    .dwattr $C$DW$42, DW_AT_decl_column(0x10)
     439            
     440            $C$DW$43        .dwtag  DW_TAG_variable
MSP430 Assembler PC v21.6.1 Tue Dec 20 14:07:36 2022

Copyright (c) 2003-2018 Texas Instruments Incorporated
start.asm                                                            PAGE    9

     441                    .dwattr $C$DW$43, DW_AT_name("main_fuel_flow_GUI")
     442                    .dwattr $C$DW$43, DW_AT_TI_symbol_name("main_fuel_flow_GUI")
     443                    .dwattr $C$DW$43, DW_AT_type(*$C$DW$T$48)
     444                    .dwattr $C$DW$43, DW_AT_declaration
     445                    .dwattr $C$DW$43, DW_AT_external
     446                    .dwattr $C$DW$43, DW_AT_decl_file("../src/start.c")
     447                    .dwattr $C$DW$43, DW_AT_decl_line(0x46)
     448                    .dwattr $C$DW$43, DW_AT_decl_column(0x10)
     449            
     450            $C$DW$44        .dwtag  DW_TAG_variable
     451                    .dwattr $C$DW$44, DW_AT_name("FC_Burner_Methanol_flow_GUI")
     452                    .dwattr $C$DW$44, DW_AT_TI_symbol_name("FC_Burner_Methanol_flow_GUI")
     453                    .dwattr $C$DW$44, DW_AT_type(*$C$DW$T$48)
     454                    .dwattr $C$DW$44, DW_AT_declaration
     455                    .dwattr $C$DW$44, DW_AT_external
     456                    .dwattr $C$DW$44, DW_AT_decl_file("../src/start.c")
     457                    .dwattr $C$DW$44, DW_AT_decl_line(0x47)
     458                    .dwattr $C$DW$44, DW_AT_decl_column(0x10)
     459            
     460            $C$DW$45        .dwtag  DW_TAG_variable
     461                    .dwattr $C$DW$45, DW_AT_name("fc_run_temp_GUI")
     462                    .dwattr $C$DW$45, DW_AT_TI_symbol_name("fc_run_temp_GUI")
     463                    .dwattr $C$DW$45, DW_AT_type(*$C$DW$T$48)
     464                    .dwattr $C$DW$45, DW_AT_declaration
     465                    .dwattr $C$DW$45, DW_AT_external
     466                    .dwattr $C$DW$45, DW_AT_decl_file("../src/start.c")
     467                    .dwattr $C$DW$45, DW_AT_decl_line(0x48)
     468                    .dwattr $C$DW$45, DW_AT_decl_column(0x10)
     469            
     470            $C$DW$46        .dwtag  DW_TAG_variable
     471                    .dwattr $C$DW$46, DW_AT_name("OutputV_Setpoint")
     472                    .dwattr $C$DW$46, DW_AT_TI_symbol_name("OutputV_Setpoint")
     473                    .dwattr $C$DW$46, DW_AT_type(*$C$DW$T$16)
     474                    .dwattr $C$DW$46, DW_AT_declaration
     475                    .dwattr $C$DW$46, DW_AT_external
     476                    .dwattr $C$DW$46, DW_AT_decl_file("../src/start.c")
     477                    .dwattr $C$DW$46, DW_AT_decl_line(0x4a)
     478                    .dwattr $C$DW$46, DW_AT_decl_column(0x0e)
     479            
     480            $C$DW$47        .dwtag  DW_TAG_variable
     481                    .dwattr $C$DW$47, DW_AT_name("FP_Methanol_flow")
     482                    .dwattr $C$DW$47, DW_AT_TI_symbol_name("FP_Methanol_flow")
     483                    .dwattr $C$DW$47, DW_AT_type(*$C$DW$T$16)
     484                    .dwattr $C$DW$47, DW_AT_declaration
     485                    .dwattr $C$DW$47, DW_AT_external
     486                    .dwattr $C$DW$47, DW_AT_decl_file("../src/start.c")
     487                    .dwattr $C$DW$47, DW_AT_decl_line(0x4b)
     488                    .dwattr $C$DW$47, DW_AT_decl_column(0x0e)
     489            
     490            $C$DW$48        .dwtag  DW_TAG_variable
     491                    .dwattr $C$DW$48, DW_AT_name("FP_Water_flow")
     492                    .dwattr $C$DW$48, DW_AT_TI_symbol_name("FP_Water_flow")
     493                    .dwattr $C$DW$48, DW_AT_type(*$C$DW$T$16)
     494                    .dwattr $C$DW$48, DW_AT_declaration
     495                    .dwattr $C$DW$48, DW_AT_external
MSP430 Assembler PC v21.6.1 Tue Dec 20 14:07:36 2022

Copyright (c) 2003-2018 Texas Instruments Incorporated
start.asm                                                            PAGE   10

     496                    .dwattr $C$DW$48, DW_AT_decl_file("../src/start.c")
     497                    .dwattr $C$DW$48, DW_AT_decl_line(0x4c)
     498                    .dwattr $C$DW$48, DW_AT_decl_column(0x0e)
     499            
     500                    .global air
     501                    .common air,4,2
     502            $C$DW$49        .dwtag  DW_TAG_variable
     503                    .dwattr $C$DW$49, DW_AT_name("air")
     504                    .dwattr $C$DW$49, DW_AT_TI_symbol_name("air")
     505                    .dwattr $C$DW$49, DW_AT_location[DW_OP_addr air]
     506                    .dwattr $C$DW$49, DW_AT_type(*$C$DW$T$16)
     507                    .dwattr $C$DW$49, DW_AT_external
     508                    .dwattr $C$DW$49, DW_AT_decl_file("../src/start.c")
     509                    .dwattr $C$DW$49, DW_AT_decl_line(0x50)
     510                    .dwattr $C$DW$49, DW_AT_decl_column(0x07)
     511            
     512                    .global on_delay
     513                    .common on_delay,2,2
     514            $C$DW$50        .dwtag  DW_TAG_variable
     515                    .dwattr $C$DW$50, DW_AT_name("on_delay")
     516                    .dwattr $C$DW$50, DW_AT_TI_symbol_name("on_delay")
     517                    .dwattr $C$DW$50, DW_AT_location[DW_OP_addr on_delay]
     518                    .dwattr $C$DW$50, DW_AT_type(*$C$DW$T$48)
     519                    .dwattr $C$DW$50, DW_AT_external
     520                    .dwattr $C$DW$50, DW_AT_decl_file("../src/start.c")
     521                    .dwattr $C$DW$50, DW_AT_decl_line(0x52)
     522                    .dwattr $C$DW$50, DW_AT_decl_column(0x09)
     523            
     524                    .global heat_counter
     525                    .common heat_counter,4,2
     526            $C$DW$51        .dwtag  DW_TAG_variable
     527                    .dwattr $C$DW$51, DW_AT_name("heat_counter")
     528                    .dwattr $C$DW$51, DW_AT_TI_symbol_name("heat_counter")
     529                    .dwattr $C$DW$51, DW_AT_location[DW_OP_addr heat_counter]
     530                    .dwattr $C$DW$51, DW_AT_type(*$C$DW$T$13)
     531                    .dwattr $C$DW$51, DW_AT_external
     532                    .dwattr $C$DW$51, DW_AT_decl_file("../src/start.c")
     533                    .dwattr $C$DW$51, DW_AT_decl_line(0x53)
     534                    .dwattr $C$DW$51, DW_AT_decl_column(0x0f)
     535            
     536                    .global burner_flag
     537                    .common burner_flag,1,1
     538            $C$DW$52        .dwtag  DW_TAG_variable
     539                    .dwattr $C$DW$52, DW_AT_name("burner_flag")
     540                    .dwattr $C$DW$52, DW_AT_TI_symbol_name("burner_flag")
     541                    .dwattr $C$DW$52, DW_AT_location[DW_OP_addr burner_flag]
     542                    .dwattr $C$DW$52, DW_AT_type(*$C$DW$T$24)
     543                    .dwattr $C$DW$52, DW_AT_external
     544                    .dwattr $C$DW$52, DW_AT_decl_file("../src/start.c")
     545                    .dwattr $C$DW$52, DW_AT_decl_line(0x54)
     546                    .dwattr $C$DW$52, DW_AT_decl_column(0x09)
     547            
     548                    .global Start_temp
     549                    .common Start_temp,1,1
     550            $C$DW$53        .dwtag  DW_TAG_variable
MSP430 Assembler PC v21.6.1 Tue Dec 20 14:07:36 2022

Copyright (c) 2003-2018 Texas Instruments Incorporated
start.asm                                                            PAGE   11

     551                    .dwattr $C$DW$53, DW_AT_name("Start_temp")
     552                    .dwattr $C$DW$53, DW_AT_TI_symbol_name("Start_temp")
     553                    .dwattr $C$DW$53, DW_AT_location[DW_OP_addr Start_temp]
     554                    .dwattr $C$DW$53, DW_AT_type(*$C$DW$T$24)
     555                    .dwattr $C$DW$53, DW_AT_external
     556                    .dwattr $C$DW$53, DW_AT_decl_file("../src/start.c")
     557                    .dwattr $C$DW$53, DW_AT_decl_line(0x55)
     558                    .dwattr $C$DW$53, DW_AT_decl_column(0x09)
     559            
     560                    .global FPT_ME_Slip_setpoint
     561 000000               .data
     562                    .align  2
     563                    .elfsym FPT_ME_Slip_setpoint,SYM_SIZE(2)
     564 000000       FPT_ME_Slip_setpoint:
     565 000000 00C3          .bits           0xc3,16
     566                                    ; FPT_ME_Slip_setpoint @ 0
     567            
     568            $C$DW$54        .dwtag  DW_TAG_variable
     569                    .dwattr $C$DW$54, DW_AT_name("FPT_ME_Slip_setpoint")
     570                    .dwattr $C$DW$54, DW_AT_TI_symbol_name("FPT_ME_Slip_setpoint")
     571                    .dwattr $C$DW$54, DW_AT_location[DW_OP_addr FPT_ME_Slip_setpoint]
     572                    .dwattr $C$DW$54, DW_AT_type(*$C$DW$T$48)
     573                    .dwattr $C$DW$54, DW_AT_external
     574                    .dwattr $C$DW$54, DW_AT_decl_file("../src/start.c")
     575                    .dwattr $C$DW$54, DW_AT_decl_line(0x56)
     576                    .dwattr $C$DW$54, DW_AT_decl_column(0x09)
     577            
     578            $C$DW$55        .dwtag  DW_TAG_variable
     579                    .dwattr $C$DW$55, DW_AT_name("FC_Burner_Methanol_flow")
     580                    .dwattr $C$DW$55, DW_AT_TI_symbol_name("FC_Burner_Methanol_flow")
     581                    .dwattr $C$DW$55, DW_AT_type(*$C$DW$T$16)
     582                    .dwattr $C$DW$55, DW_AT_declaration
     583                    .dwattr $C$DW$55, DW_AT_external
     584                    .dwattr $C$DW$55, DW_AT_decl_file("../src/start.c")
     585                    .dwattr $C$DW$55, DW_AT_decl_line(0x59)
     586                    .dwattr $C$DW$55, DW_AT_decl_column(0x0e)
     587            
     588            $C$DW$56        .dwtag  DW_TAG_variable
     589                    .dwattr $C$DW$56, DW_AT_name("FC_R")
     590                    .dwattr $C$DW$56, DW_AT_TI_symbol_name("FC_R")
     591                    .dwattr $C$DW$56, DW_AT_type(*$C$DW$T$16)
     592                    .dwattr $C$DW$56, DW_AT_declaration
     593                    .dwattr $C$DW$56, DW_AT_external
     594                    .dwattr $C$DW$56, DW_AT_decl_file("../src/start.c")
     595                    .dwattr $C$DW$56, DW_AT_decl_line(0x5f)
     596                    .dwattr $C$DW$56, DW_AT_decl_column(0x0e)
     597            
     598            $C$DW$57        .dwtag  DW_TAG_variable
     599                    .dwattr $C$DW$57, DW_AT_name("FC_Burner_air")
     600                    .dwattr $C$DW$57, DW_AT_TI_symbol_name("FC_Burner_air")
     601                    .dwattr $C$DW$57, DW_AT_type(*$C$DW$T$16)
     602                    .dwattr $C$DW$57, DW_AT_declaration
     603                    .dwattr $C$DW$57, DW_AT_external
     604                    .dwattr $C$DW$57, DW_AT_decl_file("../src/start.c")
     605                    .dwattr $C$DW$57, DW_AT_decl_line(0x64)
MSP430 Assembler PC v21.6.1 Tue Dec 20 14:07:36 2022

Copyright (c) 2003-2018 Texas Instruments Incorporated
start.asm                                                            PAGE   12

     606                    .dwattr $C$DW$57, DW_AT_decl_column(0x0e)
     607            
     608                    .global pid
     609                    .common pid,1,1
     610            $C$DW$58        .dwtag  DW_TAG_variable
     611                    .dwattr $C$DW$58, DW_AT_name("pid")
     612                    .dwattr $C$DW$58, DW_AT_TI_symbol_name("pid")
     613                    .dwattr $C$DW$58, DW_AT_location[DW_OP_addr pid]
     614                    .dwattr $C$DW$58, DW_AT_type(*$C$DW$T$24)
     615                    .dwattr $C$DW$58, DW_AT_external
     616                    .dwattr $C$DW$58, DW_AT_decl_file("../src/start.c")
     617                    .dwattr $C$DW$58, DW_AT_decl_line(0x66)
     618                    .dwattr $C$DW$58, DW_AT_decl_column(0x09)
     619            
     620                    .global FP_Heating
     621 000002               .data
     622                    .align  1
     623                    .elfsym FP_Heating,SYM_SIZE(1)
     624 000002       FP_Heating:
     625 000002 0000          .bits           0,8
     626                                    ; FP_Heating @ 0
     627            
     628            $C$DW$59        .dwtag  DW_TAG_variable
     629                    .dwattr $C$DW$59, DW_AT_name("FP_Heating")
     630                    .dwattr $C$DW$59, DW_AT_TI_symbol_name("FP_Heating")
     631                    .dwattr $C$DW$59, DW_AT_location[DW_OP_addr FP_Heating]
     632                    .dwattr $C$DW$59, DW_AT_type(*$C$DW$T$24)
     633                    .dwattr $C$DW$59, DW_AT_external
     634                    .dwattr $C$DW$59, DW_AT_decl_file("../src/start.c")
     635                    .dwattr $C$DW$59, DW_AT_decl_line(0x67)
     636                    .dwattr $C$DW$59, DW_AT_decl_column(0x09)
     637            
     638                    .global FP_Burner_Ignite_Failure
     639                    .common FP_Burner_Ignite_Failure,1,1
     640            $C$DW$60        .dwtag  DW_TAG_variable
     641                    .dwattr $C$DW$60, DW_AT_name("FP_Burner_Ignite_Failure")
     642                    .dwattr $C$DW$60, DW_AT_TI_symbol_name("FP_Burner_Ignite_Failure")
     643                    .dwattr $C$DW$60, DW_AT_location[DW_OP_addr FP_Burner_Ignite_Failure]
     644                    .dwattr $C$DW$60, DW_AT_type(*$C$DW$T$24)
     645                    .dwattr $C$DW$60, DW_AT_external
     646                    .dwattr $C$DW$60, DW_AT_decl_file("../src/start.c")
     647                    .dwattr $C$DW$60, DW_AT_decl_line(0x68)
     648                    .dwattr $C$DW$60, DW_AT_decl_column(0x09)
     649            
     650                    .global FC_Burner_Ignite_Failure
     651                    .common FC_Burner_Ignite_Failure,1,1
     652            $C$DW$61        .dwtag  DW_TAG_variable
     653                    .dwattr $C$DW$61, DW_AT_name("FC_Burner_Ignite_Failure")
     654                    .dwattr $C$DW$61, DW_AT_TI_symbol_name("FC_Burner_Ignite_Failure")
     655                    .dwattr $C$DW$61, DW_AT_location[DW_OP_addr FC_Burner_Ignite_Failure]
     656                    .dwattr $C$DW$61, DW_AT_type(*$C$DW$T$24)
     657                    .dwattr $C$DW$61, DW_AT_external
     658                    .dwattr $C$DW$61, DW_AT_decl_file("../src/start.c")
     659                    .dwattr $C$DW$61, DW_AT_decl_line(0x69)
     660                    .dwattr $C$DW$61, DW_AT_decl_column(0x09)
MSP430 Assembler PC v21.6.1 Tue Dec 20 14:07:36 2022

Copyright (c) 2003-2018 Texas Instruments Incorporated
start.asm                                                            PAGE   13

     661            
     662                    .global FC_At_Temp
     663                    .common FC_At_Temp,1,1
     664            $C$DW$62        .dwtag  DW_TAG_variable
     665                    .dwattr $C$DW$62, DW_AT_name("FC_At_Temp")
     666                    .dwattr $C$DW$62, DW_AT_TI_symbol_name("FC_At_Temp")
     667                    .dwattr $C$DW$62, DW_AT_location[DW_OP_addr FC_At_Temp]
     668                    .dwattr $C$DW$62, DW_AT_type(*$C$DW$T$24)
     669                    .dwattr $C$DW$62, DW_AT_external
     670                    .dwattr $C$DW$62, DW_AT_decl_file("../src/start.c")
     671                    .dwattr $C$DW$62, DW_AT_decl_line(0x6a)
     672                    .dwattr $C$DW$62, DW_AT_decl_column(0x09)
     673            
     674                    .global FC_Burner_On
     675 000003               .data
     676                    .align  1
     677                    .elfsym FC_Burner_On,SYM_SIZE(1)
     678 000003       FC_Burner_On:
     679 000002 0000          .bits           0,8
     680                                    ; FC_Burner_On @ 0
     681            
     682            $C$DW$63        .dwtag  DW_TAG_variable
     683                    .dwattr $C$DW$63, DW_AT_name("FC_Burner_On")
     684                    .dwattr $C$DW$63, DW_AT_TI_symbol_name("FC_Burner_On")
     685                    .dwattr $C$DW$63, DW_AT_location[DW_OP_addr FC_Burner_On]
     686                    .dwattr $C$DW$63, DW_AT_type(*$C$DW$T$24)
     687                    .dwattr $C$DW$63, DW_AT_external
     688                    .dwattr $C$DW$63, DW_AT_decl_file("../src/start.c")
     689                    .dwattr $C$DW$63, DW_AT_decl_line(0x6b)
     690                    .dwattr $C$DW$63, DW_AT_decl_column(0x09)
     691            
     692                    .global Cold_Heater
     693                    .common Cold_Heater,2,2
     694            $C$DW$64        .dwtag  DW_TAG_variable
     695                    .dwattr $C$DW$64, DW_AT_name("Cold_Heater")
     696                    .dwattr $C$DW$64, DW_AT_TI_symbol_name("Cold_Heater")
     697                    .dwattr $C$DW$64, DW_AT_location[DW_OP_addr Cold_Heater]
     698                    .dwattr $C$DW$64, DW_AT_type(*$C$DW$T$27)
     699                    .dwattr $C$DW$64, DW_AT_external
     700                    .dwattr $C$DW$64, DW_AT_decl_file("../src/start.c")
     701                    .dwattr $C$DW$64, DW_AT_decl_line(0x6d)
     702                    .dwattr $C$DW$64, DW_AT_decl_column(0x0a)
     703            
     704                    .global iniStT
     705                    .common iniStT,2,2
     706            $C$DW$65        .dwtag  DW_TAG_variable
     707                    .dwattr $C$DW$65, DW_AT_name("iniStT")
     708                    .dwattr $C$DW$65, DW_AT_TI_symbol_name("iniStT")
     709                    .dwattr $C$DW$65, DW_AT_location[DW_OP_addr iniStT]
     710                    .dwattr $C$DW$65, DW_AT_type(*$C$DW$T$48)
     711                    .dwattr $C$DW$65, DW_AT_external
     712                    .dwattr $C$DW$65, DW_AT_decl_file("../src/start.c")
     713                    .dwattr $C$DW$65, DW_AT_decl_line(0x6f)
     714                    .dwattr $C$DW$65, DW_AT_decl_column(0x09)
     715            
MSP430 Assembler PC v21.6.1 Tue Dec 20 14:07:36 2022

Copyright (c) 2003-2018 Texas Instruments Incorporated
start.asm                                                            PAGE   14

     716                    .global aircnt
     717                    .common aircnt,2,2
     718            $C$DW$66        .dwtag  DW_TAG_variable
     719                    .dwattr $C$DW$66, DW_AT_name("aircnt")
     720                    .dwattr $C$DW$66, DW_AT_TI_symbol_name("aircnt")
     721                    .dwattr $C$DW$66, DW_AT_location[DW_OP_addr aircnt]
     722                    .dwattr $C$DW$66, DW_AT_type(*$C$DW$T$48)
     723                    .dwattr $C$DW$66, DW_AT_external
     724                    .dwattr $C$DW$66, DW_AT_decl_file("../src/start.c")
     725                    .dwattr $C$DW$66, DW_AT_decl_line(0x70)
     726                    .dwattr $C$DW$66, DW_AT_decl_column(0x09)
     727            
     728                    .global Pump_Startup
     729                    .common Pump_Startup,2,2
     730            $C$DW$67        .dwtag  DW_TAG_variable
     731                    .dwattr $C$DW$67, DW_AT_name("Pump_Startup")
     732                    .dwattr $C$DW$67, DW_AT_TI_symbol_name("Pump_Startup")
     733                    .dwattr $C$DW$67, DW_AT_location[DW_OP_addr Pump_Startup]
     734                    .dwattr $C$DW$67, DW_AT_type(*$C$DW$T$48)
     735                    .dwattr $C$DW$67, DW_AT_external
     736                    .dwattr $C$DW$67, DW_AT_decl_file("../src/start.c")
     737                    .dwattr $C$DW$67, DW_AT_decl_line(0x71)
     738                    .dwattr $C$DW$67, DW_AT_decl_column(0x09)
     739            
     740                    .global entered_burner_flag_6_timer
     741 000004               .data
     742                    .align  2
     743                    .elfsym entered_burner_flag_6_timer,SYM_SIZE(2)
     744 000004       entered_burner_flag_6_timer:
     745 000004 0000          .bits           0,16
     746                                    ; entered_burner_flag_6_timer @ 0
     747            
     748            $C$DW$68        .dwtag  DW_TAG_variable
     749                    .dwattr $C$DW$68, DW_AT_name("entered_burner_flag_6_timer")
     750                    .dwattr $C$DW$68, DW_AT_TI_symbol_name("entered_burner_flag_6_timer")
     751                    .dwattr $C$DW$68, DW_AT_location[DW_OP_addr entered_burner_flag_6_timer]
     752                    .dwattr $C$DW$68, DW_AT_type(*$C$DW$T$48)
     753                    .dwattr $C$DW$68, DW_AT_external
     754                    .dwattr $C$DW$68, DW_AT_decl_file("../src/start.c")
     755                    .dwattr $C$DW$68, DW_AT_decl_line(0x72)
     756                    .dwattr $C$DW$68, DW_AT_decl_column(0x09)
     757            
     758                    .global Pump_Off_Counter
     759                    .common Pump_Off_Counter,2,2
     760            $C$DW$69        .dwtag  DW_TAG_variable
     761                    .dwattr $C$DW$69, DW_AT_name("Pump_Off_Counter")
     762                    .dwattr $C$DW$69, DW_AT_TI_symbol_name("Pump_Off_Counter")
     763                    .dwattr $C$DW$69, DW_AT_location[DW_OP_addr Pump_Off_Counter]
     764                    .dwattr $C$DW$69, DW_AT_type(*$C$DW$T$48)
     765                    .dwattr $C$DW$69, DW_AT_external
     766                    .dwattr $C$DW$69, DW_AT_decl_file("../src/start.c")
     767                    .dwattr $C$DW$69, DW_AT_decl_line(0x73)
     768                    .dwattr $C$DW$69, DW_AT_decl_column(0x09)
     769            
     770                    .global fff
MSP430 Assembler PC v21.6.1 Tue Dec 20 14:07:36 2022

Copyright (c) 2003-2018 Texas Instruments Incorporated
start.asm                                                            PAGE   15

     771                    .common fff,2,2
     772            $C$DW$70        .dwtag  DW_TAG_variable
     773                    .dwattr $C$DW$70, DW_AT_name("fff")
     774                    .dwattr $C$DW$70, DW_AT_TI_symbol_name("fff")
     775                    .dwattr $C$DW$70, DW_AT_location[DW_OP_addr fff]
     776                    .dwattr $C$DW$70, DW_AT_type(*$C$DW$T$48)
     777                    .dwattr $C$DW$70, DW_AT_external
     778                    .dwattr $C$DW$70, DW_AT_decl_file("../src/start.c")
     779                    .dwattr $C$DW$70, DW_AT_decl_line(0x74)
     780                    .dwattr $C$DW$70, DW_AT_decl_column(0x09)
     781            
     782                    .global FP_Burner_Ignite_Failure_timer
     783                    .common FP_Burner_Ignite_Failure_timer,2,2
     784            $C$DW$71        .dwtag  DW_TAG_variable
     785                    .dwattr $C$DW$71, DW_AT_name("FP_Burner_Ignite_Failure_timer")
     786                    .dwattr $C$DW$71, DW_AT_TI_symbol_name("FP_Burner_Ignite_Failure_timer")
     787                    .dwattr $C$DW$71, DW_AT_location[DW_OP_addr FP_Burner_Ignite_Failure_timer]
     788                    .dwattr $C$DW$71, DW_AT_type(*$C$DW$T$48)
     789                    .dwattr $C$DW$71, DW_AT_external
     790                    .dwattr $C$DW$71, DW_AT_decl_file("../src/start.c")
     791                    .dwattr $C$DW$71, DW_AT_decl_line(0x75)
     792                    .dwattr $C$DW$71, DW_AT_decl_column(0x09)
     793            
     794                    .global FC_Burner_Ignite_Failure_timer
     795                    .common FC_Burner_Ignite_Failure_timer,2,2
     796            $C$DW$72        .dwtag  DW_TAG_variable
     797                    .dwattr $C$DW$72, DW_AT_name("FC_Burner_Ignite_Failure_timer")
     798                    .dwattr $C$DW$72, DW_AT_TI_symbol_name("FC_Burner_Ignite_Failure_timer")
     799                    .dwattr $C$DW$72, DW_AT_location[DW_OP_addr FC_Burner_Ignite_Failure_timer]
     800                    .dwattr $C$DW$72, DW_AT_type(*$C$DW$T$48)
     801                    .dwattr $C$DW$72, DW_AT_external
     802                    .dwattr $C$DW$72, DW_AT_decl_file("../src/start.c")
     803                    .dwattr $C$DW$72, DW_AT_decl_line(0x76)
     804                    .dwattr $C$DW$72, DW_AT_decl_column(0x09)
     805            
     806                    .global TC2err
     807                    .common TC2err,4,2
     808            $C$DW$73        .dwtag  DW_TAG_variable
     809                    .dwattr $C$DW$73, DW_AT_name("TC2err")
     810                    .dwattr $C$DW$73, DW_AT_TI_symbol_name("TC2err")
     811                    .dwattr $C$DW$73, DW_AT_location[DW_OP_addr TC2err]
     812                    .dwattr $C$DW$73, DW_AT_type(*$C$DW$T$16)
     813                    .dwattr $C$DW$73, DW_AT_external
     814                    .dwattr $C$DW$73, DW_AT_decl_file("../src/start.c")
     815                    .dwattr $C$DW$73, DW_AT_decl_line(0x78)
     816                    .dwattr $C$DW$73, DW_AT_decl_column(0x07)
     817            
     818                    .global TC2err1
     819                    .common TC2err1,4,2
     820            $C$DW$74        .dwtag  DW_TAG_variable
     821                    .dwattr $C$DW$74, DW_AT_name("TC2err1")
     822                    .dwattr $C$DW$74, DW_AT_TI_symbol_name("TC2err1")
     823                    .dwattr $C$DW$74, DW_AT_location[DW_OP_addr TC2err1]
     824                    .dwattr $C$DW$74, DW_AT_type(*$C$DW$T$16)
     825                    .dwattr $C$DW$74, DW_AT_external
MSP430 Assembler PC v21.6.1 Tue Dec 20 14:07:36 2022

Copyright (c) 2003-2018 Texas Instruments Incorporated
start.asm                                                            PAGE   16

     826                    .dwattr $C$DW$74, DW_AT_decl_file("../src/start.c")
     827                    .dwattr $C$DW$74, DW_AT_decl_line(0x78)
     828                    .dwattr $C$DW$74, DW_AT_decl_column(0x0f)
     829            
     830                    .global TC2err2
     831                    .common TC2err2,4,2
     832            $C$DW$75        .dwtag  DW_TAG_variable
     833                    .dwattr $C$DW$75, DW_AT_name("TC2err2")
     834                    .dwattr $C$DW$75, DW_AT_TI_symbol_name("TC2err2")
     835                    .dwattr $C$DW$75, DW_AT_location[DW_OP_addr TC2err2]
     836                    .dwattr $C$DW$75, DW_AT_type(*$C$DW$T$16)
     837                    .dwattr $C$DW$75, DW_AT_external
     838                    .dwattr $C$DW$75, DW_AT_decl_file("../src/start.c")
     839                    .dwattr $C$DW$75, DW_AT_decl_line(0x78)
     840                    .dwattr $C$DW$75, DW_AT_decl_column(0x18)
     841            
     842                    .global pterm
     843                    .common pterm,4,2
     844            $C$DW$76        .dwtag  DW_TAG_variable
     845                    .dwattr $C$DW$76, DW_AT_name("pterm")
     846                    .dwattr $C$DW$76, DW_AT_TI_symbol_name("pterm")
     847                    .dwattr $C$DW$76, DW_AT_location[DW_OP_addr pterm]
     848                    .dwattr $C$DW$76, DW_AT_type(*$C$DW$T$16)
     849                    .dwattr $C$DW$76, DW_AT_external
     850                    .dwattr $C$DW$76, DW_AT_decl_file("../src/start.c")
     851                    .dwattr $C$DW$76, DW_AT_decl_line(0x79)
     852                    .dwattr $C$DW$76, DW_AT_decl_column(0x07)
     853            
     854                    .global iterm
     855                    .common iterm,4,2
     856            $C$DW$77        .dwtag  DW_TAG_variable
     857                    .dwattr $C$DW$77, DW_AT_name("iterm")
     858                    .dwattr $C$DW$77, DW_AT_TI_symbol_name("iterm")
     859                    .dwattr $C$DW$77, DW_AT_location[DW_OP_addr iterm]
     860                    .dwattr $C$DW$77, DW_AT_type(*$C$DW$T$16)
     861                    .dwattr $C$DW$77, DW_AT_external
     862                    .dwattr $C$DW$77, DW_AT_decl_file("../src/start.c")
     863                    .dwattr $C$DW$77, DW_AT_decl_line(0x79)
     864                    .dwattr $C$DW$77, DW_AT_decl_column(0x0d)
     865            
     866                    .global dterm
     867                    .common dterm,4,2
     868            $C$DW$78        .dwtag  DW_TAG_variable
     869                    .dwattr $C$DW$78, DW_AT_name("dterm")
     870                    .dwattr $C$DW$78, DW_AT_TI_symbol_name("dterm")
     871                    .dwattr $C$DW$78, DW_AT_location[DW_OP_addr dterm]
     872                    .dwattr $C$DW$78, DW_AT_type(*$C$DW$T$16)
     873                    .dwattr $C$DW$78, DW_AT_external
     874                    .dwattr $C$DW$78, DW_AT_decl_file("../src/start.c")
     875                    .dwattr $C$DW$78, DW_AT_decl_line(0x79)
     876                    .dwattr $C$DW$78, DW_AT_decl_column(0x13)
     877            
     878                    .global Kp
     879                    .common Kp,4,2
     880            $C$DW$79        .dwtag  DW_TAG_variable
MSP430 Assembler PC v21.6.1 Tue Dec 20 14:07:36 2022

Copyright (c) 2003-2018 Texas Instruments Incorporated
start.asm                                                            PAGE   17

     881                    .dwattr $C$DW$79, DW_AT_name("Kp")
     882                    .dwattr $C$DW$79, DW_AT_TI_symbol_name("Kp")
     883                    .dwattr $C$DW$79, DW_AT_location[DW_OP_addr Kp]
     884                    .dwattr $C$DW$79, DW_AT_type(*$C$DW$T$16)
     885                    .dwattr $C$DW$79, DW_AT_external
     886                    .dwattr $C$DW$79, DW_AT_decl_file("../src/start.c")
     887                    .dwattr $C$DW$79, DW_AT_decl_line(0x7a)
     888                    .dwattr $C$DW$79, DW_AT_decl_column(0x07)
     889            
     890                    .global Ki
     891                    .common Ki,4,2
     892            $C$DW$80        .dwtag  DW_TAG_variable
     893                    .dwattr $C$DW$80, DW_AT_name("Ki")
     894                    .dwattr $C$DW$80, DW_AT_TI_symbol_name("Ki")
     895                    .dwattr $C$DW$80, DW_AT_location[DW_OP_addr Ki]
     896                    .dwattr $C$DW$80, DW_AT_type(*$C$DW$T$16)
     897                    .dwattr $C$DW$80, DW_AT_external
     898                    .dwattr $C$DW$80, DW_AT_decl_file("../src/start.c")
     899                    .dwattr $C$DW$80, DW_AT_decl_line(0x7a)
     900                    .dwattr $C$DW$80, DW_AT_decl_column(0x0a)
     901            
     902                    .global Kd
     903                    .common Kd,4,2
     904            $C$DW$81        .dwtag  DW_TAG_variable
     905                    .dwattr $C$DW$81, DW_AT_name("Kd")
     906                    .dwattr $C$DW$81, DW_AT_TI_symbol_name("Kd")
     907                    .dwattr $C$DW$81, DW_AT_location[DW_OP_addr Kd]
     908                    .dwattr $C$DW$81, DW_AT_type(*$C$DW$T$16)
     909                    .dwattr $C$DW$81, DW_AT_external
     910                    .dwattr $C$DW$81, DW_AT_decl_file("../src/start.c")
     911                    .dwattr $C$DW$81, DW_AT_decl_line(0x7a)
     912                    .dwattr $C$DW$81, DW_AT_decl_column(0x0d)
     913            
     914                    .global TC1_bf2_bf3
     915                    .common TC1_bf2_bf3,4,2
     916            $C$DW$82        .dwtag  DW_TAG_variable
     917                    .dwattr $C$DW$82, DW_AT_name("TC1_bf2_bf3")
     918                    .dwattr $C$DW$82, DW_AT_TI_symbol_name("TC1_bf2_bf3")
     919                    .dwattr $C$DW$82, DW_AT_location[DW_OP_addr TC1_bf2_bf3]
     920                    .dwattr $C$DW$82, DW_AT_type(*$C$DW$T$16)
     921                    .dwattr $C$DW$82, DW_AT_external
     922                    .dwattr $C$DW$82, DW_AT_decl_file("../src/start.c")
     923                    .dwattr $C$DW$82, DW_AT_decl_line(0x7b)
     924                    .dwattr $C$DW$82, DW_AT_decl_column(0x07)
     925            
     926                    .global maxPIDair
     927                    .common maxPIDair,4,2
     928            $C$DW$83        .dwtag  DW_TAG_variable
     929                    .dwattr $C$DW$83, DW_AT_name("maxPIDair")
     930                    .dwattr $C$DW$83, DW_AT_TI_symbol_name("maxPIDair")
     931                    .dwattr $C$DW$83, DW_AT_location[DW_OP_addr maxPIDair]
     932                    .dwattr $C$DW$83, DW_AT_type(*$C$DW$T$16)
     933                    .dwattr $C$DW$83, DW_AT_external
     934                    .dwattr $C$DW$83, DW_AT_decl_file("../src/start.c")
     935                    .dwattr $C$DW$83, DW_AT_decl_line(0x7c)
MSP430 Assembler PC v21.6.1 Tue Dec 20 14:07:36 2022

Copyright (c) 2003-2018 Texas Instruments Incorporated
start.asm                                                            PAGE   18

     936                    .dwattr $C$DW$83, DW_AT_decl_column(0x07)
     937            
     938                    .global FC_Current_old
     939                    .common FC_Current_old,4,2
     940            $C$DW$84        .dwtag  DW_TAG_variable
     941                    .dwattr $C$DW$84, DW_AT_name("FC_Current_old")
     942                    .dwattr $C$DW$84, DW_AT_TI_symbol_name("FC_Current_old")
     943                    .dwattr $C$DW$84, DW_AT_location[DW_OP_addr FC_Current_old]
     944                    .dwattr $C$DW$84, DW_AT_type(*$C$DW$T$16)
     945                    .dwattr $C$DW$84, DW_AT_external
     946                    .dwattr $C$DW$84, DW_AT_decl_file("../src/start.c")
     947                    .dwattr $C$DW$84, DW_AT_decl_line(0x7d)
     948                    .dwattr $C$DW$84, DW_AT_decl_column(0x07)
     949            
     950                    .global fcvt
     951                    .common fcvt,4,2
     952            $C$DW$85        .dwtag  DW_TAG_variable
     953                    .dwattr $C$DW$85, DW_AT_name("fcvt")
     954                    .dwattr $C$DW$85, DW_AT_TI_symbol_name("fcvt")
     955                    .dwattr $C$DW$85, DW_AT_location[DW_OP_addr fcvt]
     956                    .dwattr $C$DW$85, DW_AT_type(*$C$DW$T$16)
     957                    .dwattr $C$DW$85, DW_AT_external
     958                    .dwattr $C$DW$85, DW_AT_decl_file("../src/start.c")
     959                    .dwattr $C$DW$85, DW_AT_decl_line(0x7e)
     960                    .dwattr $C$DW$85, DW_AT_decl_column(0x07)
     961            
     962                    .global FP_Burner_Ignite_temp
     963                    .common FP_Burner_Ignite_temp,4,2
     964            $C$DW$86        .dwtag  DW_TAG_variable
     965                    .dwattr $C$DW$86, DW_AT_name("FP_Burner_Ignite_temp")
     966                    .dwattr $C$DW$86, DW_AT_TI_symbol_name("FP_Burner_Ignite_temp")
     967                    .dwattr $C$DW$86, DW_AT_location[DW_OP_addr FP_Burner_Ignite_temp]
     968                    .dwattr $C$DW$86, DW_AT_type(*$C$DW$T$16)
     969                    .dwattr $C$DW$86, DW_AT_external
     970                    .dwattr $C$DW$86, DW_AT_decl_file("../src/start.c")
     971                    .dwattr $C$DW$86, DW_AT_decl_line(0x7f)
     972                    .dwattr $C$DW$86, DW_AT_decl_column(0x07)
     973            
     974                    .global FC_Burner_Ignite_temp
     975                    .common FC_Burner_Ignite_temp,4,2
     976            $C$DW$87        .dwtag  DW_TAG_variable
     977                    .dwattr $C$DW$87, DW_AT_name("FC_Burner_Ignite_temp")
     978                    .dwattr $C$DW$87, DW_AT_TI_symbol_name("FC_Burner_Ignite_temp")
     979                    .dwattr $C$DW$87, DW_AT_location[DW_OP_addr FC_Burner_Ignite_temp]
     980                    .dwattr $C$DW$87, DW_AT_type(*$C$DW$T$16)
     981                    .dwattr $C$DW$87, DW_AT_external
     982                    .dwattr $C$DW$87, DW_AT_decl_file("../src/start.c")
     983                    .dwattr $C$DW$87, DW_AT_decl_line(0x80)
     984                    .dwattr $C$DW$87, DW_AT_decl_column(0x07)
     985            
     986                    .global main_fuel_flow_adj
     987 000006               .data
     988                    .align  2
     989                    .elfsym main_fuel_flow_adj,SYM_SIZE(4)
     990 000006       main_fuel_flow_adj:
MSP430 Assembler PC v21.6.1 Tue Dec 20 14:07:36 2022

Copyright (c) 2003-2018 Texas Instruments Incorporated
start.asm                                                            PAGE   19

     991 000006 0000          .float          $strtod("0x0p+0")               ; main_fuel_flow_adj @ 0
         000008 0000 
     992            
     993            $C$DW$88        .dwtag  DW_TAG_variable
     994                    .dwattr $C$DW$88, DW_AT_name("main_fuel_flow_adj")
     995                    .dwattr $C$DW$88, DW_AT_TI_symbol_name("main_fuel_flow_adj")
     996                    .dwattr $C$DW$88, DW_AT_location[DW_OP_addr main_fuel_flow_adj]
     997                    .dwattr $C$DW$88, DW_AT_type(*$C$DW$T$16)
     998                    .dwattr $C$DW$88, DW_AT_external
     999                    .dwattr $C$DW$88, DW_AT_decl_file("../src/start.c")
    1000                    .dwattr $C$DW$88, DW_AT_decl_line(0x81)
    1001                    .dwattr $C$DW$88, DW_AT_decl_column(0x07)
    1002            
    1003            $C$DW$89        .dwtag  DW_TAG_variable
    1004                    .dwattr $C$DW$89, DW_AT_name("Ambient_Temperature")
    1005                    .dwattr $C$DW$89, DW_AT_TI_symbol_name("Ambient_Temperature")
    1006                    .dwattr $C$DW$89, DW_AT_type(*$C$DW$T$16)
    1007                    .dwattr $C$DW$89, DW_AT_declaration
    1008                    .dwattr $C$DW$89, DW_AT_external
    1009                    .dwattr $C$DW$89, DW_AT_decl_file("../src/start.c")
    1010                    .dwattr $C$DW$89, DW_AT_decl_line(0x85)
    1011                    .dwattr $C$DW$89, DW_AT_decl_column(0x0e)
    1012            
    1013                    .global Transition_to_RunMode
    1014 00000a               .data
    1015                    .align  1
    1016                    .elfsym Transition_to_RunMode,SYM_SIZE(1)
    1017 00000a       Transition_to_RunMode:
    1018 00000a 0000          .bits           0,8
    1019                                    ; Transition_to_RunMode @ 0
    1020            
    1021            $C$DW$90        .dwtag  DW_TAG_variable
    1022                    .dwattr $C$DW$90, DW_AT_name("Transition_to_RunMode")
    1023                    .dwattr $C$DW$90, DW_AT_TI_symbol_name("Transition_to_RunMode")
    1024                    .dwattr $C$DW$90, DW_AT_location[DW_OP_addr Transition_to_RunMode]
    1025                    .dwattr $C$DW$90, DW_AT_type(*$C$DW$T$24)
    1026                    .dwattr $C$DW$90, DW_AT_external
    1027                    .dwattr $C$DW$90, DW_AT_decl_file("../src/start.c")
    1028                    .dwattr $C$DW$90, DW_AT_decl_line(0x8a)
    1029                    .dwattr $C$DW$90, DW_AT_decl_column(0x09)
    1030            
    1031                    .global FC_C
    1032                    .common FC_C,4,2
    1033            $C$DW$91        .dwtag  DW_TAG_variable
    1034                    .dwattr $C$DW$91, DW_AT_name("FC_C")
    1035                    .dwattr $C$DW$91, DW_AT_TI_symbol_name("FC_C")
    1036                    .dwattr $C$DW$91, DW_AT_location[DW_OP_addr FC_C]
    1037                    .dwattr $C$DW$91, DW_AT_type(*$C$DW$T$16)
    1038                    .dwattr $C$DW$91, DW_AT_external
    1039                    .dwattr $C$DW$91, DW_AT_decl_file("../src/start.c")
    1040                    .dwattr $C$DW$91, DW_AT_decl_line(0x8b)
    1041                    .dwattr $C$DW$91, DW_AT_decl_column(0x07)
    1042            
    1043                    .global load_on_temp
    1044 00000b               .data
MSP430 Assembler PC v21.6.1 Tue Dec 20 14:07:36 2022

Copyright (c) 2003-2018 Texas Instruments Incorporated
start.asm                                                            PAGE   20

    1045                    .align  2
    1046                    .elfsym load_on_temp,SYM_SIZE(4)
    1047 00000c       load_on_temp:
    1048 00000c 0000          .float          $strtod("0x1.18p+7")            ; load_on_temp @ 0
         00000e 430C 
    1049            
    1050            $C$DW$92        .dwtag  DW_TAG_variable
    1051                    .dwattr $C$DW$92, DW_AT_name("load_on_temp")
    1052                    .dwattr $C$DW$92, DW_AT_TI_symbol_name("load_on_temp")
    1053                    .dwattr $C$DW$92, DW_AT_location[DW_OP_addr load_on_temp]
    1054                    .dwattr $C$DW$92, DW_AT_type(*$C$DW$T$16)
    1055                    .dwattr $C$DW$92, DW_AT_external
    1056                    .dwattr $C$DW$92, DW_AT_decl_file("../src/start.c")
    1057                    .dwattr $C$DW$92, DW_AT_decl_line(0x8c)
    1058                    .dwattr $C$DW$92, DW_AT_decl_column(0x07)
    1059            
    1060            $C$DW$93        .dwtag  DW_TAG_variable
    1061                    .dwattr $C$DW$93, DW_AT_name("Transition_Counter")
    1062                    .dwattr $C$DW$93, DW_AT_TI_symbol_name("Transition_Counter")
    1063                    .dwattr $C$DW$93, DW_AT_type(*$C$DW$T$27)
    1064                    .dwattr $C$DW$93, DW_AT_declaration
    1065                    .dwattr $C$DW$93, DW_AT_external
    1066                    .dwattr $C$DW$93, DW_AT_decl_file("../src/start.c")
    1067                    .dwattr $C$DW$93, DW_AT_decl_line(0x8f)
    1068                    .dwattr $C$DW$93, DW_AT_decl_column(0x11)
    1069            
    1070            $C$DW$94        .dwtag  DW_TAG_variable
    1071                    .dwattr $C$DW$94, DW_AT_name("LCD_page")
    1072                    .dwattr $C$DW$94, DW_AT_TI_symbol_name("LCD_page")
    1073                    .dwattr $C$DW$94, DW_AT_type(*$C$DW$T$48)
    1074                    .dwattr $C$DW$94, DW_AT_declaration
    1075                    .dwattr $C$DW$94, DW_AT_external
    1076                    .dwattr $C$DW$94, DW_AT_decl_file("../src/start.c")
    1077                    .dwattr $C$DW$94, DW_AT_decl_line(0x91)
    1078                    .dwattr $C$DW$94, DW_AT_decl_column(0x10)
    1079            
    1080            $C$DW$95        .dwtag  DW_TAG_variable
    1081                    .dwattr $C$DW$95, DW_AT_name("secondary_PumpDrv")
    1082                    .dwattr $C$DW$95, DW_AT_TI_symbol_name("secondary_PumpDrv")
    1083                    .dwattr $C$DW$95, DW_AT_type(*$C$DW$T$48)
    1084                    .dwattr $C$DW$95, DW_AT_declaration
    1085                    .dwattr $C$DW$95, DW_AT_external
    1086                    .dwattr $C$DW$95, DW_AT_decl_file("../src/start.c")
    1087                    .dwattr $C$DW$95, DW_AT_decl_line(0x92)
    1088                    .dwattr $C$DW$95, DW_AT_decl_column(0x10)
    1089            
    1090            $C$DW$96        .dwtag  DW_TAG_variable
    1091                    .dwattr $C$DW$96, DW_AT_name("exhaust_fan_speed")
    1092                    .dwattr $C$DW$96, DW_AT_TI_symbol_name("exhaust_fan_speed")
    1093                    .dwattr $C$DW$96, DW_AT_type(*$C$DW$T$48)
    1094                    .dwattr $C$DW$96, DW_AT_declaration
    1095                    .dwattr $C$DW$96, DW_AT_external
    1096                    .dwattr $C$DW$96, DW_AT_decl_file("../src/start.c")
    1097                    .dwattr $C$DW$96, DW_AT_decl_line(0x94)
    1098                    .dwattr $C$DW$96, DW_AT_decl_column(0x10)
MSP430 Assembler PC v21.6.1 Tue Dec 20 14:07:36 2022

Copyright (c) 2003-2018 Texas Instruments Incorporated
start.asm                                                            PAGE   21

    1099            
    1100            $C$DW$97        .dwtag  DW_TAG_variable
    1101                    .dwattr $C$DW$97, DW_AT_name("System_V")
    1102                    .dwattr $C$DW$97, DW_AT_TI_symbol_name("System_V")
    1103                    .dwattr $C$DW$97, DW_AT_type(*$C$DW$T$16)
    1104                    .dwattr $C$DW$97, DW_AT_declaration
    1105                    .dwattr $C$DW$97, DW_AT_external
    1106                    .dwattr $C$DW$97, DW_AT_decl_file("../src/start.c")
    1107                    .dwattr $C$DW$97, DW_AT_decl_line(0x97)
    1108                    .dwattr $C$DW$97, DW_AT_decl_column(0x0e)
    1109            
    1110            $C$DW$98        .dwtag  DW_TAG_variable
    1111                    .dwattr $C$DW$98, DW_AT_name("Auto_restart_V")
    1112                    .dwattr $C$DW$98, DW_AT_TI_symbol_name("Auto_restart_V")
    1113                    .dwattr $C$DW$98, DW_AT_type(*$C$DW$T$16)
    1114                    .dwattr $C$DW$98, DW_AT_declaration
    1115                    .dwattr $C$DW$98, DW_AT_external
    1116                    .dwattr $C$DW$98, DW_AT_decl_file("../src/start.c")
    1117                    .dwattr $C$DW$98, DW_AT_decl_line(0x98)
    1118                    .dwattr $C$DW$98, DW_AT_decl_column(0x0e)
    1119            
    1120            $C$DW$99        .dwtag  DW_TAG_variable
    1121                    .dwattr $C$DW$99, DW_AT_name("Battery_V")
    1122                    .dwattr $C$DW$99, DW_AT_TI_symbol_name("Battery_V")
    1123                    .dwattr $C$DW$99, DW_AT_type(*$C$DW$T$16)
    1124                    .dwattr $C$DW$99, DW_AT_declaration
    1125                    .dwattr $C$DW$99, DW_AT_external
    1126                    .dwattr $C$DW$99, DW_AT_decl_file("../src/start.c")
    1127                    .dwattr $C$DW$99, DW_AT_decl_line(0x99)
    1128                    .dwattr $C$DW$99, DW_AT_decl_column(0x0e)
    1129            
    1130            $C$DW$100       .dwtag  DW_TAG_variable
    1131                    .dwattr $C$DW$100, DW_AT_name("Water_Tank_temp")
    1132                    .dwattr $C$DW$100, DW_AT_TI_symbol_name("Water_Tank_temp")
    1133                    .dwattr $C$DW$100, DW_AT_type(*$C$DW$T$16)
    1134                    .dwattr $C$DW$100, DW_AT_declaration
    1135                    .dwattr $C$DW$100, DW_AT_external
    1136                    .dwattr $C$DW$100, DW_AT_decl_file("../src/start.c")
    1137                    .dwattr $C$DW$100, DW_AT_decl_line(0x9a)
    1138                    .dwattr $C$DW$100, DW_AT_decl_column(0x0e)
    1139            
    1140            $C$DW$101       .dwtag  DW_TAG_variable
    1141                    .dwattr $C$DW$101, DW_AT_name("bool")
    1142                    .dwattr $C$DW$101, DW_AT_TI_symbol_name("b")
    1143                    .dwattr $C$DW$101, DW_AT_type(*$C$DW$T$16)
    1144                    .dwattr $C$DW$101, DW_AT_declaration
    1145                    .dwattr $C$DW$101, DW_AT_external
    1146                    .dwattr $C$DW$101, DW_AT_decl_file("../src/start.c")
    1147                    .dwattr $C$DW$101, DW_AT_decl_line(0x9b)
    1148                    .dwattr $C$DW$101, DW_AT_decl_column(0x0e)
    1149            
    1150            $C$DW$102       .dwtag  DW_TAG_variable
    1151                    .dwattr $C$DW$102, DW_AT_name("Vtmp")
    1152                    .dwattr $C$DW$102, DW_AT_TI_symbol_name("Vtmp")
    1153                    .dwattr $C$DW$102, DW_AT_type(*$C$DW$T$16)
MSP430 Assembler PC v21.6.1 Tue Dec 20 14:07:36 2022

Copyright (c) 2003-2018 Texas Instruments Incorporated
start.asm                                                            PAGE   22

    1154                    .dwattr $C$DW$102, DW_AT_declaration
    1155                    .dwattr $C$DW$102, DW_AT_external
    1156                    .dwattr $C$DW$102, DW_AT_decl_file("../src/start.c")
    1157                    .dwattr $C$DW$102, DW_AT_decl_line(0x9c)
    1158                    .dwattr $C$DW$102, DW_AT_decl_column(0x0e)
    1159            
    1160            $C$DW$103       .dwtag  DW_TAG_variable
    1161                    .dwattr $C$DW$103, DW_AT_name("H2_ADJ")
    1162                    .dwattr $C$DW$103, DW_AT_TI_symbol_name("H2_ADJ")
    1163                    .dwattr $C$DW$103, DW_AT_type(*$C$DW$T$16)
    1164                    .dwattr $C$DW$103, DW_AT_declaration
    1165                    .dwattr $C$DW$103, DW_AT_external
    1166                    .dwattr $C$DW$103, DW_AT_decl_file("../src/start.c")
    1167                    .dwattr $C$DW$103, DW_AT_decl_line(0x9f)
    1168                    .dwattr $C$DW$103, DW_AT_decl_column(0x0e)
    1169            
    1170            $C$DW$104       .dwtag  DW_TAG_variable
    1171                    .dwattr $C$DW$104, DW_AT_name("FCPerror_accumulated")
    1172                    .dwattr $C$DW$104, DW_AT_TI_symbol_name("FCPerror_accumulated")
    1173                    .dwattr $C$DW$104, DW_AT_type(*$C$DW$T$16)
    1174                    .dwattr $C$DW$104, DW_AT_declaration
    1175                    .dwattr $C$DW$104, DW_AT_external
    1176                    .dwattr $C$DW$104, DW_AT_decl_file("../src/start.c")
    1177                    .dwattr $C$DW$104, DW_AT_decl_line(0xa0)
    1178                    .dwattr $C$DW$104, DW_AT_decl_column(0x0e)
    1179            
    1180            
    1181            $C$DW$105       .dwtag  DW_TAG_subprogram
    1182                    .dwattr $C$DW$105, DW_AT_name("fmax")
    1183                    .dwattr $C$DW$105, DW_AT_TI_symbol_name("fmax")
    1184                    .dwattr $C$DW$105, DW_AT_type(*$C$DW$T$17)
    1185                    .dwattr $C$DW$105, DW_AT_declaration
    1186                    .dwattr $C$DW$105, DW_AT_external
    1187                    .dwattr $C$DW$105, DW_AT_decl_file("C:/ti/ccs1110/ccs/tools/compiler/ti-cgt-msp430_21.6.1.LTS/
    1188                    .dwattr $C$DW$105, DW_AT_decl_line(0x208)
    1189                    .dwattr $C$DW$105, DW_AT_decl_column(0x1a)
    1190            $C$DW$106       .dwtag  DW_TAG_formal_parameter
    1191                    .dwattr $C$DW$106, DW_AT_type(*$C$DW$T$17)
    1192            
    1193            $C$DW$107       .dwtag  DW_TAG_formal_parameter
    1194                    .dwattr $C$DW$107, DW_AT_type(*$C$DW$T$17)
    1195            
    1196                    .dwendtag $C$DW$105
    1197            
    1198            
    1199            $C$DW$108       .dwtag  DW_TAG_subprogram
    1200                    .dwattr $C$DW$108, DW_AT_name("fmin")
    1201                    .dwattr $C$DW$108, DW_AT_TI_symbol_name("fmin")
    1202                    .dwattr $C$DW$108, DW_AT_type(*$C$DW$T$17)
    1203                    .dwattr $C$DW$108, DW_AT_declaration
    1204                    .dwattr $C$DW$108, DW_AT_external
    1205                    .dwattr $C$DW$108, DW_AT_decl_file("C:/ti/ccs1110/ccs/tools/compiler/ti-cgt-msp430_21.6.1.LTS/
    1206                    .dwattr $C$DW$108, DW_AT_decl_line(0x20b)
    1207                    .dwattr $C$DW$108, DW_AT_decl_column(0x1a)
    1208            $C$DW$109       .dwtag  DW_TAG_formal_parameter
MSP430 Assembler PC v21.6.1 Tue Dec 20 14:07:36 2022

Copyright (c) 2003-2018 Texas Instruments Incorporated
start.asm                                                            PAGE   23

    1209                    .dwattr $C$DW$109, DW_AT_type(*$C$DW$T$17)
    1210            
    1211            $C$DW$110       .dwtag  DW_TAG_formal_parameter
    1212                    .dwattr $C$DW$110, DW_AT_type(*$C$DW$T$17)
    1213            
    1214                    .dwendtag $C$DW$108
    1215            
    1216            
    1217            $C$DW$111       .dwtag  DW_TAG_subprogram
    1218                    .dwattr $C$DW$111, DW_AT_name("setVout")
    1219                    .dwattr $C$DW$111, DW_AT_TI_symbol_name("setVout")
    1220                    .dwattr $C$DW$111, DW_AT_declaration
    1221                    .dwattr $C$DW$111, DW_AT_external
    1222                    .dwattr $C$DW$111, DW_AT_decl_file("../src/start.c")
    1223                    .dwattr $C$DW$111, DW_AT_decl_line(0xaa)
    1224                    .dwattr $C$DW$111, DW_AT_decl_column(0x0d)
    1225            $C$DW$112       .dwtag  DW_TAG_formal_parameter
    1226                    .dwattr $C$DW$112, DW_AT_type(*$C$DW$T$16)
    1227            
    1228                    .dwendtag $C$DW$111
    1229            
    1230            
    1231            $C$DW$113       .dwtag  DW_TAG_subprogram
    1232                    .dwattr $C$DW$113, DW_AT_name("LCD_init")
    1233                    .dwattr $C$DW$113, DW_AT_TI_symbol_name("LCD_init")
    1234                    .dwattr $C$DW$113, DW_AT_declaration
    1235                    .dwattr $C$DW$113, DW_AT_external
    1236                    .dwattr $C$DW$113, DW_AT_decl_file("../src/start.c")
    1237                    .dwattr $C$DW$113, DW_AT_decl_line(0xad)
    1238                    .dwattr $C$DW$113, DW_AT_decl_column(0x0d)
    1239                    .dwendtag $C$DW$113
    1240            
    1241            
    1242            $C$DW$114       .dwtag  DW_TAG_subprogram
    1243                    .dwattr $C$DW$114, DW_AT_name("calcs")
    1244                    .dwattr $C$DW$114, DW_AT_TI_symbol_name("calcs")
    1245                    .dwattr $C$DW$114, DW_AT_declaration
    1246                    .dwattr $C$DW$114, DW_AT_external
    1247                    .dwattr $C$DW$114, DW_AT_decl_file("../src/start.c")
    1248                    .dwattr $C$DW$114, DW_AT_decl_line(0xa6)
    1249                    .dwattr $C$DW$114, DW_AT_decl_column(0x0d)
    1250                    .dwendtag $C$DW$114
    1251            
    1252            
    1253            $C$DW$115       .dwtag  DW_TAG_subprogram
    1254                    .dwattr $C$DW$115, DW_AT_name("setLimits")
    1255                    .dwattr $C$DW$115, DW_AT_TI_symbol_name("setLimits")
    1256                    .dwattr $C$DW$115, DW_AT_declaration
    1257                    .dwattr $C$DW$115, DW_AT_external
    1258                    .dwattr $C$DW$115, DW_AT_decl_file("../src/start.c")
    1259                    .dwattr $C$DW$115, DW_AT_decl_line(0xab)
    1260                    .dwattr $C$DW$115, DW_AT_decl_column(0x0d)
    1261                    .dwendtag $C$DW$115
    1262            
    1263            
MSP430 Assembler PC v21.6.1 Tue Dec 20 14:07:36 2022

Copyright (c) 2003-2018 Texas Instruments Incorporated
start.asm                                                            PAGE   24

    1264            $C$DW$116       .dwtag  DW_TAG_subprogram
    1265                    .dwattr $C$DW$116, DW_AT_name("Set_Fuel_Pumps")
    1266                    .dwattr $C$DW$116, DW_AT_TI_symbol_name("Set_Fuel_Pumps")
    1267                    .dwattr $C$DW$116, DW_AT_declaration
    1268                    .dwattr $C$DW$116, DW_AT_external
    1269                    .dwattr $C$DW$116, DW_AT_decl_file("../src/start.c")
    1270                    .dwattr $C$DW$116, DW_AT_decl_line(0xa7)
    1271                    .dwattr $C$DW$116, DW_AT_decl_column(0x0d)
    1272                    .dwendtag $C$DW$116
    1273            
    1274            
    1275            $C$DW$117       .dwtag  DW_TAG_subprogram
    1276                    .dwattr $C$DW$117, DW_AT_name("Set_Air_Compressors")
    1277                    .dwattr $C$DW$117, DW_AT_TI_symbol_name("Set_Air_Compressors")
    1278                    .dwattr $C$DW$117, DW_AT_declaration
    1279                    .dwattr $C$DW$117, DW_AT_external
    1280                    .dwattr $C$DW$117, DW_AT_decl_file("../src/start.c")
    1281                    .dwattr $C$DW$117, DW_AT_decl_line(0xa5)
    1282                    .dwattr $C$DW$117, DW_AT_decl_column(0x0d)
    1283                    .dwendtag $C$DW$117
    1284            
    1285            
    1286            $C$DW$118       .dwtag  DW_TAG_subprogram
    1287                    .dwattr $C$DW$118, DW_AT_name("Set_FCSFan")
    1288                    .dwattr $C$DW$118, DW_AT_TI_symbol_name("Set_FCSFan")
    1289                    .dwattr $C$DW$118, DW_AT_declaration
    1290                    .dwattr $C$DW$118, DW_AT_external
    1291                    .dwattr $C$DW$118, DW_AT_decl_file("../src/start.c")
    1292                    .dwattr $C$DW$118, DW_AT_decl_line(0xa9)
    1293                    .dwattr $C$DW$118, DW_AT_decl_column(0x0d)
    1294            $C$DW$119       .dwtag  DW_TAG_formal_parameter
    1295                    .dwattr $C$DW$119, DW_AT_type(*$C$DW$T$48)
    1296            
    1297                    .dwendtag $C$DW$118
    1298            
    1299            
    1300            $C$DW$120       .dwtag  DW_TAG_subprogram
    1301                    .dwattr $C$DW$120, DW_AT_name("memset")
    1302                    .dwattr $C$DW$120, DW_AT_TI_symbol_name("memset")
    1303                    .dwattr $C$DW$120, DW_AT_type(*$C$DW$T$3)
    1304                    .dwattr $C$DW$120, DW_AT_declaration
    1305                    .dwattr $C$DW$120, DW_AT_external
    1306                    .dwattr $C$DW$120, DW_AT_decl_file("C:/ti/ccs1110/ccs/tools/compiler/ti-cgt-msp430_21.6.1.LTS/
    1307                    .dwattr $C$DW$120, DW_AT_decl_line(0x84)
    1308                    .dwattr $C$DW$120, DW_AT_decl_column(0x16)
    1309            $C$DW$121       .dwtag  DW_TAG_formal_parameter
    1310                    .dwattr $C$DW$121, DW_AT_type(*$C$DW$T$3)
    1311            
    1312            $C$DW$122       .dwtag  DW_TAG_formal_parameter
    1313                    .dwattr $C$DW$122, DW_AT_type(*$C$DW$T$10)
    1314            
    1315            $C$DW$123       .dwtag  DW_TAG_formal_parameter
    1316                    .dwattr $C$DW$123, DW_AT_type(*$C$DW$T$78)
    1317            
    1318                    .dwendtag $C$DW$120
MSP430 Assembler PC v21.6.1 Tue Dec 20 14:07:36 2022

Copyright (c) 2003-2018 Texas Instruments Incorporated
start.asm                                                            PAGE   25

    1319            
    1320            ;       C:\ti\ccs1110\ccs\tools\compiler\ti-cgt-msp430_21.6.1.LTS\bin\opt430.exe C:\\Users\\MCourson\\
    1321 000000               .sect   ".text:adjustHeating"
    1322                    .clink
    1323                    .global adjustHeating
    1324            
    1325            $C$DW$124       .dwtag  DW_TAG_subprogram
    1326                    .dwattr $C$DW$124, DW_AT_name("adjustHeating")
    1327                    .dwattr $C$DW$124, DW_AT_low_pc(adjustHeating)
    1328                    .dwattr $C$DW$124, DW_AT_high_pc(0x00)
    1329                    .dwattr $C$DW$124, DW_AT_TI_symbol_name("adjustHeating")
    1330                    .dwattr $C$DW$124, DW_AT_external
    1331                    .dwattr $C$DW$124, DW_AT_TI_begin_file("../src/start.c")
    1332                    .dwattr $C$DW$124, DW_AT_TI_begin_line(0x4f9)
    1333                    .dwattr $C$DW$124, DW_AT_TI_begin_column(0x06)
    1334                    .dwattr $C$DW$124, DW_AT_decl_file("../src/start.c")
    1335                    .dwattr $C$DW$124, DW_AT_decl_line(0x4f9)
    1336                    .dwattr $C$DW$124, DW_AT_decl_column(0x06)
    1337                    .dwattr $C$DW$124, DW_AT_TI_max_frame_size(0x20)
    1338                    .dwpsn  file "../src/start.c",line 1274,column 1,is_stmt,address adjustHeating,isa 0
    1339            
    1340                    .dwfde $C$DW$CIE, adjustHeating
    1341            
    1342            ;*****************************************************************************
    1343            ;* FUNCTION NAME: adjustHeating                                              *
    1344            ;*                                                                           *
    1345            ;*   Regs Modified     : SP,SR,r4,r5,r6,r7,r8,r9,r10,r11,r12,r13,r14,r15     *
    1346            ;*   Regs Used         : SP,SR,r4,r5,r6,r7,r8,r9,r10,r11,r12,r13,r14,r15     *
    1347            ;*   Local Frame Size  : 0 Args + 0 Auto + 28 Save = 28 byte                 *
    1348            ;*****************************************************************************
    1349 000000       adjustHeating:
    1350            ;* --------------------------------------------------------------------------*
    1351                    .dwcfi  cfa_offset, 4
    1352                    .dwcfi  save_reg_to_mem, 16, -4
    1353 000000 146A          PUSHM.A   #7,r10                ; [] 
    1354                    .dwcfi  save_reg_to_mem, 10, -8
    1355                    .dwcfi  save_reg_to_mem, 9, -12
    1356                    .dwcfi  save_reg_to_mem, 8, -16
    1357                    .dwcfi  save_reg_to_mem, 7, -20
    1358                    .dwcfi  save_reg_to_mem, 6, -24
    1359                    .dwcfi  save_reg_to_mem, 5, -28
    1360                    .dwcfi  save_reg_to_mem, 4, -32
    1361                    .dwcfi  cfa_offset, 32
    1362                    .dwpsn  file "../src/start.c",line 1275,column 5,is_stmt,isa 0
    1363 000002 43D2          MOV.B     #1,&burner_fuel+0     ; [] |1275| 
         000004 0000!
    1364                    .dwpsn  file "../src/start.c",line 1277,column 5,is_stmt,isa 0
    1365 000006 421C          MOV.W     &TC1_temp+0,r12       ; [] |1277| 
         000008 0000!
    1366 00000a 421D          MOV.W     &TC1_temp+2,r13       ; [] |1277| 
         00000c 0002!
    1367 00000e 430E          MOV.W     #0,r14                ; [] |1277| 
    1368 000010 403F          MOV.W     #17008,r15            ; [] |1277| 
         000012 4270 
    1369            $C$DW$125       .dwtag  DW_TAG_TI_branch
MSP430 Assembler PC v21.6.1 Tue Dec 20 14:07:36 2022

Copyright (c) 2003-2018 Texas Instruments Incorporated
start.asm                                                            PAGE   26

    1370                    .dwattr $C$DW$125, DW_AT_low_pc(0x00)
    1371                    .dwattr $C$DW$125, DW_AT_name("__mspabi_cmpf")
    1372                    .dwattr $C$DW$125, DW_AT_TI_call
    1373            
    1374 000014 13B0!         CALLA     #__mspabi_cmpf        ; [] |1277| 
         000016 0000 
    1375                                                      ; [] |1277| 
    1376 000018 930C          TST.W     r12                   ; [] |1277| 
    1377 00001a 380B          JL        $C$L1                 ; [] |1277| 
    1378                                                      ; [] |1277| 
    1379            ;* --------------------------------------------------------------------------*
    1380 00001c 421C          MOV.W     &TC2_temp+0,r12       ; [] |1277| 
         00001e 0000!
    1381 000020 421D          MOV.W     &TC2_temp+2,r13       ; [] |1277| 
         000022 0002!
    1382 000024 430E          MOV.W     #0,r14                ; [] |1277| 
    1383 000026 403F          MOV.W     #17008,r15            ; [] |1277| 
         000028 4270 
    1384            $C$DW$126       .dwtag  DW_TAG_TI_branch
    1385                    .dwattr $C$DW$126, DW_AT_low_pc(0x00)
    1386                    .dwattr $C$DW$126, DW_AT_name("__mspabi_cmpf")
    1387                    .dwattr $C$DW$126, DW_AT_TI_call
    1388            
    1389 00002a 13B0!         CALLA     #__mspabi_cmpf        ; [] |1277| 
         00002c 0000 
    1390                                                      ; [] |1277| 
    1391 00002e 930C          TST.W     r12                   ; [] |1277| 
    1392 000030 3420          JGE       $C$L2                 ; [] |1277| 
    1393                                                      ; [] |1277| 
    1394            ;* --------------------------------------------------------------------------*
    1395 000032       $C$L1:    
    1396 000032 93C2          TST.B     &SwapCount+0          ; [] |1277| 
         000034 0000!
    1397 000036 201D          JNE       $C$L2                 ; [] |1277| 
    1398                                                      ; [] |1277| 
    1399            ;* --------------------------------------------------------------------------*
    1400 000038 421C          MOV.W     &TC1_temp+0,r12       ; [] |1277| 
         00003a 0000!
    1401 00003c 421D          MOV.W     &TC1_temp+2,r13       ; [] |1277| 
         00003e 0002!
    1402 000040 430E          MOV.W     #0,r14                ; [] |1277| 
    1403 000042 403F          MOV.W     #17189,r15            ; [] |1277| 
         000044 4325 
    1404            $C$DW$127       .dwtag  DW_TAG_TI_branch
    1405                    .dwattr $C$DW$127, DW_AT_low_pc(0x00)
    1406                    .dwattr $C$DW$127, DW_AT_name("__mspabi_cmpf")
    1407                    .dwattr $C$DW$127, DW_AT_TI_call
    1408            
    1409 000046 13B0!         CALLA     #__mspabi_cmpf        ; [] |1277| 
         000048 0000 
    1410                                                      ; [] |1277| 
    1411 00004a 930C          TST.W     r12                   ; [] |1277| 
    1412 00004c 3412          JGE       $C$L2                 ; [] |1277| 
    1413                                                      ; [] |1277| 
    1414            ;* --------------------------------------------------------------------------*
MSP430 Assembler PC v21.6.1 Tue Dec 20 14:07:36 2022

Copyright (c) 2003-2018 Texas Instruments Incorporated
start.asm                                                            PAGE   27

    1415 00004e 421C          MOV.W     &TC2_temp+0,r12       ; [] |1277| 
         000050 0000!
    1416 000052 421D          MOV.W     &TC2_temp+2,r13       ; [] |1277| 
         000054 0002!
    1417 000056 430E          MOV.W     #0,r14                ; [] |1277| 
    1418 000058 403F          MOV.W     #17282,r15            ; [] |1277| 
         00005a 4382 
    1419            $C$DW$128       .dwtag  DW_TAG_TI_branch
    1420                    .dwattr $C$DW$128, DW_AT_low_pc(0x00)
    1421                    .dwattr $C$DW$128, DW_AT_name("__mspabi_cmpf")
    1422                    .dwattr $C$DW$128, DW_AT_TI_call
    1423            
    1424 00005c 13B0!         CALLA     #__mspabi_cmpf        ; [] |1277| 
         00005e 0000 
    1425                                                      ; [] |1277| 
    1426 000060 930C          TST.W     r12                   ; [] |1277| 
    1427 000062 3407          JGE       $C$L2                 ; [] |1277| 
    1428                                                      ; [] |1277| 
    1429            ;* --------------------------------------------------------------------------*
    1430                    .dwpsn  file "../src/start.c",line 1280,column 9,is_stmt,isa 0
    1431 000064 D0F2          OR.B      #16,&PCOUT_L+0        ; [] |1280| 
         000066 0010 
         000068 0000!
    1432                    .dwpsn  file "../src/start.c",line 1281,column 9,is_stmt,isa 0
    1433 00006a D0F2          OR.B      #128,&PBOUT_L+0       ; [] |1281| 
         00006c 0080 
         00006e 0000!
    1434 000070 3C06          JMP       $C$L3                 ; [] 
    1435                                                      ; [] 
    1436            ;* --------------------------------------------------------------------------*
    1437 000072       $C$L2:    
    1438                    .dwpsn  file "../src/start.c",line 1285,column 9,is_stmt,isa 0
    1439 000072 F0F2          AND.B     #239,&PCOUT_L+0       ; [] |1285| 
         000074 00EF 
         000076 0000!
    1440                    .dwpsn  file "../src/start.c",line 1286,column 9,is_stmt,isa 0
    1441 000078 F0F2          AND.B     #127,&PBOUT_L+0       ; [] |1286| 
         00007a 007F 
         00007c 0000!
    1442            ;* --------------------------------------------------------------------------*
    1443 00007e       $C$L3:    
    1444                    .dwpsn  file "../src/start.c",line 1289,column 5,is_stmt,isa 0
    1445 00007e 9382          TST.W     &Cold_Heater+0        ; [] |1289| 
         000080 0000!
    1446 000082 244E          JEQ       $C$L5                 ; [] |1289| 
    1447                                                      ; [] |1289| 
    1448            ;* --------------------------------------------------------------------------*
    1449 000084 421C          MOV.W     &FC_burner_temp+0,r12 ; [] |1289| 
         000086 0000!
    1450 000088 421D          MOV.W     &FC_burner_temp+2,r13 ; [] |1289| 
         00008a 0002!
    1451 00008c 430E          MOV.W     #0,r14                ; [] |1289| 
    1452 00008e 403F          MOV.W     #16800,r15            ; [] |1289| 
         000090 41A0 
    1453            $C$DW$129       .dwtag  DW_TAG_TI_branch
MSP430 Assembler PC v21.6.1 Tue Dec 20 14:07:36 2022

Copyright (c) 2003-2018 Texas Instruments Incorporated
start.asm                                                            PAGE   28

    1454                    .dwattr $C$DW$129, DW_AT_low_pc(0x00)
    1455                    .dwattr $C$DW$129, DW_AT_name("__mspabi_cmpf")
    1456                    .dwattr $C$DW$129, DW_AT_TI_call
    1457            
    1458 000092 13B0!         CALLA     #__mspabi_cmpf        ; [] |1289| 
         000094 0000 
    1459                                                      ; [] |1289| 
    1460 000096 930C          TST.W     r12                   ; [] |1289| 
    1461 000098 3443          JGE       $C$L5                 ; [] |1289| 
    1462                                                      ; [] |1289| 
    1463            ;* --------------------------------------------------------------------------*
    1464                    .dwpsn  file "../src/start.c",line 1291,column 9,is_stmt,isa 0
    1465 00009a 8392          SUB.W     #1,&Cold_Heater+0     ; [] |1291| 
         00009c 0000!
    1466                    .dwpsn  file "../src/start.c",line 1292,column 9,is_stmt,isa 0
    1467 00009e 421C          MOV.W     &FC_Burner_air+0,r12  ; [] |1292| 
         0000a0 0000!
    1468 0000a2 421D          MOV.W     &FC_Burner_air+2,r13  ; [] |1292| 
         0000a4 0002!
    1469 0000a6 430E          MOV.W     #0,r14                ; [] |1292| 
    1470 0000a8 403F          MOV.W     #16320,r15            ; [] |1292| 
         0000aa 3FC0 
    1471            $C$DW$130       .dwtag  DW_TAG_TI_branch
    1472                    .dwattr $C$DW$130, DW_AT_low_pc(0x00)
    1473                    .dwattr $C$DW$130, DW_AT_name("__mspabi_cmpf")
    1474                    .dwattr $C$DW$130, DW_AT_TI_call
    1475            
    1476 0000ac 13B0!         CALLA     #__mspabi_cmpf        ; [] |1292| 
         0000ae 0000 
    1477                                                      ; [] |1292| 
    1478 0000b0 930C          TST.W     r12                   ; [] |1292| 
    1479 0000b2 381B          JL        $C$L4                 ; [] |1292| 
    1480                                                      ; [] |1292| 
    1481            ;* --------------------------------------------------------------------------*
    1482                    .dwpsn  file "../src/start.c",line 1295,column 13,is_stmt,isa 0
    1483 0000b4 421C          MOV.W     &FC_Burner_air+0,r12  ; [] |1295| 
         0000b6 0000!
    1484 0000b8 421D          MOV.W     &FC_Burner_air+2,r13  ; [] |1295| 
         0000ba 0002!
    1485            $C$DW$131       .dwtag  DW_TAG_TI_branch
    1486                    .dwattr $C$DW$131, DW_AT_low_pc(0x00)
    1487                    .dwattr $C$DW$131, DW_AT_name("__mspabi_cvtfd")
    1488                    .dwattr $C$DW$131, DW_AT_TI_call
    1489            
    1490 0000bc 13B0!         CALLA     #__mspabi_cvtfd       ; [] |1295| 
         0000be 0000 
    1491                                                      ; [] |1295| 
    1492 0000c0 0CC8          MOVA      r12,r8                ; [] |1295| 
    1493 0000c2 0DC9          MOVA      r13,r9                ; [] |1295| 
    1494 0000c4 0ECA          MOVA      r14,r10               ; [] |1295| 
    1495 0000c6 0FCB          MOVA      r15,r11               ; [] |1295| 
    1496 0000c8 403C          MOV.W     #5243,r12             ; [] |1295| 
         0000ca 147B 
    1497 0000cc 403D          MOV.W     #18350,r13            ; [] |1295| 
         0000ce 47AE 
MSP430 Assembler PC v21.6.1 Tue Dec 20 14:07:36 2022

Copyright (c) 2003-2018 Texas Instruments Incorporated
start.asm                                                            PAGE   29

    1498 0000d0 403E          MOV.W     #31457,r14            ; [] |1295| 
         0000d2 7AE1 
    1499 0000d4 403F          MOV.W     #16244,r15            ; [] |1295| 
         0000d6 3F74 
    1500            $C$DW$132       .dwtag  DW_TAG_TI_branch
    1501                    .dwattr $C$DW$132, DW_AT_low_pc(0x00)
    1502                    .dwattr $C$DW$132, DW_AT_name("__mspabi_subd")
    1503                    .dwattr $C$DW$132, DW_AT_TI_call
    1504            
    1505 0000d8 13B0!         CALLA     #__mspabi_subd        ; [] |1295| 
         0000da 0000 
    1506                                                      ; [] |1295| 
    1507            $C$DW$133       .dwtag  DW_TAG_TI_branch
    1508                    .dwattr $C$DW$133, DW_AT_low_pc(0x00)
    1509                    .dwattr $C$DW$133, DW_AT_name("__mspabi_cvtdf")
    1510                    .dwattr $C$DW$133, DW_AT_TI_call
    1511            
    1512 0000dc 13B0!         CALLA     #__mspabi_cvtdf       ; [] |1295| 
         0000de 0000 
    1513                                                      ; [] |1295| 
    1514 0000e0 4C82          MOV.W     r12,&FC_Burner_air+0  ; [] |1295| 
         0000e2 0000!
    1515 0000e4 4D82          MOV.W     r13,&FC_Burner_air+2  ; [] |1295| 
         0000e6 0002!
    1516 0000e8 3CD0          JMP       $C$L16                ; [] |1295| 
    1517                                                      ; [] |1295| 
    1518            ;* --------------------------------------------------------------------------*
    1519 0000ea       $C$L4:    
    1520                    .dwpsn  file "../src/start.c",line 1293,column 13,is_stmt,isa 0
    1521 0000ea 421C          MOV.W     &FC_Burner_air+0,r12  ; [] |1293| 
         0000ec 0000!
    1522 0000ee 421D          MOV.W     &FC_Burner_air+2,r13  ; [] |1293| 
         0000f0 0002!
    1523            $C$DW$134       .dwtag  DW_TAG_TI_branch
    1524                    .dwattr $C$DW$134, DW_AT_low_pc(0x00)
    1525                    .dwattr $C$DW$134, DW_AT_name("__mspabi_cvtfd")
    1526                    .dwattr $C$DW$134, DW_AT_TI_call
    1527            
    1528 0000f2 13B0!         CALLA     #__mspabi_cvtfd       ; [] |1293| 
         0000f4 0000 
    1529                                                      ; [] |1293| 
    1530 0000f6 0CC8          MOVA      r12,r8                ; [] |1293| 
    1531 0000f8 0DC9          MOVA      r13,r9                ; [] |1293| 
    1532 0000fa 0ECA          MOVA      r14,r10               ; [] |1293| 
    1533 0000fc 0FCB          MOVA      r15,r11               ; [] |1293| 
    1534 0000fe 403C          MOV.W     #5243,r12             ; [] |1293| 
         000100 147B 
    1535 000102 403D          MOV.W     #18350,r13            ; [] |1293| 
         000104 47AE 
    1536 000106 403E          MOV.W     #31457,r14            ; [] |1293| 
         000108 7AE1 
    1537 00010a 403F          MOV.W     #16260,r15            ; [] |1293| 
         00010c 3F84 
    1538            $C$DW$135       .dwtag  DW_TAG_TI_branch
    1539                    .dwattr $C$DW$135, DW_AT_low_pc(0x00)
MSP430 Assembler PC v21.6.1 Tue Dec 20 14:07:36 2022

Copyright (c) 2003-2018 Texas Instruments Incorporated
start.asm                                                            PAGE   30

    1540                    .dwattr $C$DW$135, DW_AT_name("__mspabi_addd")
    1541                    .dwattr $C$DW$135, DW_AT_TI_call
    1542            
    1543 00010e 13B0!         CALLA     #__mspabi_addd        ; [] |1293| 
         000110 0000 
    1544                                                      ; [] |1293| 
    1545            $C$DW$136       .dwtag  DW_TAG_TI_branch
    1546                    .dwattr $C$DW$136, DW_AT_low_pc(0x00)
    1547                    .dwattr $C$DW$136, DW_AT_name("__mspabi_cvtdf")
    1548                    .dwattr $C$DW$136, DW_AT_TI_call
    1549            
    1550 000112 13B0!         CALLA     #__mspabi_cvtdf       ; [] |1293| 
         000114 0000 
    1551                                                      ; [] |1293| 
    1552 000116 4C82          MOV.W     r12,&FC_Burner_air+0  ; [] |1293| 
         000118 0000!
    1553 00011a 4D82          MOV.W     r13,&FC_Burner_air+2  ; [] |1293| 
         00011c 0002!
    1554 00011e 3CB5          JMP       $C$L16                ; [] 
    1555                                                      ; [] 
    1556            ;* --------------------------------------------------------------------------*
    1557 000120       $C$L5:    
    1558                    .dwpsn  file "../src/start.c",line 1299,column 9,is_stmt,isa 0
    1559 000120 4382          MOV.W     #0,&Cold_Heater+0     ; [] |1299| 
         000122 0000!
    1560                    .dwpsn  file "../src/start.c",line 1300,column 9,is_stmt,isa 0
    1561 000124 421C          MOV.W     &FC_Burner_Methanol_flow+0,r12 ; [] |1300| 
         000126 0000!
    1562 000128 421D          MOV.W     &FC_Burner_Methanol_flow+2,r13 ; [] |1300| 
         00012a 0002!
    1563 00012c 430E          MOV.W     #0,r14                ; [] |1300| 
    1564 00012e 403F          MOV.W     #16256,r15            ; [] |1300| 
         000130 3F80 
    1565            $C$DW$137       .dwtag  DW_TAG_TI_branch
    1566                    .dwattr $C$DW$137, DW_AT_low_pc(0x00)
    1567                    .dwattr $C$DW$137, DW_AT_name("__mspabi_cmpf")
    1568                    .dwattr $C$DW$137, DW_AT_TI_call
    1569            
    1570 000132 13B0!         CALLA     #__mspabi_cmpf        ; [] |1300| 
         000134 0000 
    1571                                                      ; [] |1300| 
    1572 000136 930C          TST.W     r12                   ; [] |1300| 
    1573 000138 3406          JGE       $C$L6                 ; [] |1300| 
    1574                                                      ; [] |1300| 
    1575            ;* --------------------------------------------------------------------------*
    1576                    .dwpsn  file "../src/start.c",line 1302,column 13,is_stmt,isa 0
    1577 00013a 4292          MOV.W     &FC_burner_temp+0,&FC_Burner_Ignite_temp+0 ; [] |1302| 
         00013c 0000!
         00013e 0000!
    1578 000140 4292          MOV.W     &FC_burner_temp+2,&FC_Burner_Ignite_temp+2 ; [] |1302| 
         000142 0002!
         000144 0002!
    1579            ;* --------------------------------------------------------------------------*
    1580 000146       $C$L6:    
    1581                    .dwpsn  file "../src/start.c",line 1305,column 9,is_stmt,isa 0
MSP430 Assembler PC v21.6.1 Tue Dec 20 14:07:36 2022

Copyright (c) 2003-2018 Texas Instruments Incorporated
start.asm                                                            PAGE   31

    1582 000146 93C2          TST.B     &FC_Burner_Ignite_Failure+0 ; [] |1305| 
         000148 0000!
    1583 00014a 205E          JNE       $C$L10                ; [] |1305| 
    1584                                                      ; [] |1305| 
    1585            ;* --------------------------------------------------------------------------*
    1586                    .dwpsn  file "../src/start.c",line 1318,column 14,is_stmt,isa 0
    1587 00014c 90B2          CMP.W     #500,&Pump_Startup+0  ; [] |1318| 
         00014e 01F4 
         000150 0000!
    1588 000152 382C          JL        $C$L8                 ; [] |1318| 
    1589                                                      ; [] |1318| 
    1590            ;* --------------------------------------------------------------------------*
    1591                    .dwpsn  file "../src/start.c",line 1332,column 13,is_stmt,isa 0
    1592 000154 430C          MOV.W     #0,r12                ; [] |1332| 
    1593 000156 403D          MOV.W     #16880,r13            ; [] |1332| 
         000158 41F0 
    1594 00015a 421E          MOV.W     &FC_Burner_Methanol_flow+0,r14 ; [] |1332| 
         00015c 0000!
    1595 00015e 421F          MOV.W     &FC_Burner_Methanol_flow+2,r15 ; [] |1332| 
         000160 0002!
    1596            $C$DW$138       .dwtag  DW_TAG_TI_branch
    1597                    .dwattr $C$DW$138, DW_AT_low_pc(0x00)
    1598                    .dwattr $C$DW$138, DW_AT_name("__mspabi_cmpf")
    1599                    .dwattr $C$DW$138, DW_AT_TI_call
    1600            
    1601 000162 13B0!         CALLA     #__mspabi_cmpf        ; [] |1332| 
         000164 0000 
    1602                                                      ; [] |1332| 
    1603 000166 930C          TST.W     r12                   ; [] |1332| 
    1604 000168 3806          JL        $C$L7                 ; [] |1332| 
    1605                                                      ; [] |1332| 
    1606            ;* --------------------------------------------------------------------------*
    1607                    .dwpsn  file "../src/start.c",line 1338,column 17,is_stmt,isa 0
    1608 00016a 4382          MOV.W     #0,&FC_Burner_Methanol_flow+0 ; [] |1338| 
         00016c 0000!
    1609 00016e 40B2          MOV.W     #16880,&FC_Burner_Methanol_flow+2 ; [] |1338| 
         000170 41F0 
         000172 0002!
    1610 000174 3C57          JMP       $C$L13                ; [] |1338| 
    1611                                                      ; [] |1338| 
    1612            ;* --------------------------------------------------------------------------*
    1613 000176       $C$L7:    
    1614                    .dwpsn  file "../src/start.c",line 1334,column 17,is_stmt,isa 0
    1615 000176 421C          MOV.W     &FC_Burner_Methanol_flow+0,r12 ; [] |1334| 
         000178 0000!
    1616 00017a 421D          MOV.W     &FC_Burner_Methanol_flow+2,r13 ; [] |1334| 
         00017c 0002!
    1617            $C$DW$139       .dwtag  DW_TAG_TI_branch
    1618                    .dwattr $C$DW$139, DW_AT_low_pc(0x00)
    1619                    .dwattr $C$DW$139, DW_AT_name("__mspabi_cvtfd")
    1620                    .dwattr $C$DW$139, DW_AT_TI_call
    1621            
    1622 00017e 13B0!         CALLA     #__mspabi_cvtfd       ; [] |1334| 
         000180 0000 
    1623                                                      ; [] |1334| 
MSP430 Assembler PC v21.6.1 Tue Dec 20 14:07:36 2022

Copyright (c) 2003-2018 Texas Instruments Incorporated
start.asm                                                            PAGE   32

    1624 000182 0CC8          MOVA      r12,r8                ; [] |1334| 
    1625 000184 0DC9          MOVA      r13,r9                ; [] |1334| 
    1626 000186 0ECA          MOVA      r14,r10               ; [] |1334| 
    1627 000188 0FCB          MOVA      r15,r11               ; [] |1334| 
    1628 00018a 403C          MOV.W     #39322,r12            ; [] |1334| 
         00018c 999A 
    1629 00018e 403D          MOV.W     #39321,r13            ; [] |1334| 
         000190 9999 
    1630 000192 403E          MOV.W     #39321,r14            ; [] |1334| 
         000194 9999 
    1631 000196 403F          MOV.W     #16329,r15            ; [] |1334| 
         000198 3FC9 
    1632            $C$DW$140       .dwtag  DW_TAG_TI_branch
    1633                    .dwattr $C$DW$140, DW_AT_low_pc(0x00)
    1634                    .dwattr $C$DW$140, DW_AT_name("__mspabi_subd")
    1635                    .dwattr $C$DW$140, DW_AT_TI_call
    1636            
    1637 00019a 13B0!         CALLA     #__mspabi_subd        ; [] |1334| 
         00019c 0000 
    1638                                                      ; [] |1334| 
    1639            $C$DW$141       .dwtag  DW_TAG_TI_branch
    1640                    .dwattr $C$DW$141, DW_AT_low_pc(0x00)
    1641                    .dwattr $C$DW$141, DW_AT_name("__mspabi_cvtdf")
    1642                    .dwattr $C$DW$141, DW_AT_TI_call
    1643            
    1644 00019e 13B0!         CALLA     #__mspabi_cvtdf       ; [] |1334| 
         0001a0 0000 
    1645                                                      ; [] |1334| 
    1646 0001a2 4C82          MOV.W     r12,&FC_Burner_Methanol_flow+0 ; [] |1334| 
         0001a4 0000!
    1647 0001a6 4D82          MOV.W     r13,&FC_Burner_Methanol_flow+2 ; [] |1334| 
         0001a8 0002!
    1648 0001aa 3C3C          JMP       $C$L13                ; [] 
    1649                                                      ; [] 
    1650            ;* --------------------------------------------------------------------------*
    1651 0001ac       $C$L8:    
    1652                    .dwpsn  file "../src/start.c",line 1320,column 13,is_stmt,isa 0
    1653 0001ac 5392          ADD.W     #1,&Pump_Startup+0    ; [] |1320| 
         0001ae 0000!
    1654                    .dwpsn  file "../src/start.c",line 1321,column 13,is_stmt,isa 0
    1655 0001b0 421C          MOV.W     &FC_Burner_Methanol_flow+0,r12 ; [] |1321| 
         0001b2 0000!
    1656 0001b4 421D          MOV.W     &FC_Burner_Methanol_flow+2,r13 ; [] |1321| 
         0001b6 0002!
    1657 0001b8 430E          MOV.W     #0,r14                ; [] |1321| 
    1658 0001ba 403F          MOV.W     #16880,r15            ; [] |1321| 
         0001bc 41F0 
    1659            $C$DW$142       .dwtag  DW_TAG_TI_branch
    1660                    .dwattr $C$DW$142, DW_AT_low_pc(0x00)
    1661                    .dwattr $C$DW$142, DW_AT_name("__mspabi_cmpf")
    1662                    .dwattr $C$DW$142, DW_AT_TI_call
    1663            
    1664 0001be 13B0!         CALLA     #__mspabi_cmpf        ; [] |1321| 
         0001c0 0000 
    1665                                                      ; [] |1321| 
MSP430 Assembler PC v21.6.1 Tue Dec 20 14:07:36 2022

Copyright (c) 2003-2018 Texas Instruments Incorporated
start.asm                                                            PAGE   33

    1666 0001c2 930C          TST.W     r12                   ; [] |1321| 
    1667 0001c4 3806          JL        $C$L9                 ; [] |1321| 
    1668                                                      ; [] |1321| 
    1669            ;* --------------------------------------------------------------------------*
    1670                    .dwpsn  file "../src/start.c",line 1327,column 17,is_stmt,isa 0
    1671 0001c6 4382          MOV.W     #0,&FC_Burner_Methanol_flow+0 ; [] |1327| 
         0001c8 0000!
    1672 0001ca 40B2          MOV.W     #16880,&FC_Burner_Methanol_flow+2 ; [] |1327| 
         0001cc 41F0 
         0001ce 0002!
    1673 0001d0 3C29          JMP       $C$L13                ; [] |1327| 
    1674                                                      ; [] |1327| 
    1675            ;* --------------------------------------------------------------------------*
    1676 0001d2       $C$L9:    
    1677                    .dwpsn  file "../src/start.c",line 1323,column 17,is_stmt,isa 0
    1678 0001d2 421C          MOV.W     &FC_Burner_Methanol_flow+0,r12 ; [] |1323| 
         0001d4 0000!
    1679 0001d6 421D          MOV.W     &FC_Burner_Methanol_flow+2,r13 ; [] |1323| 
         0001d8 0002!
    1680            $C$DW$143       .dwtag  DW_TAG_TI_branch
    1681                    .dwattr $C$DW$143, DW_AT_low_pc(0x00)
    1682                    .dwattr $C$DW$143, DW_AT_name("__mspabi_cvtfd")
    1683                    .dwattr $C$DW$143, DW_AT_TI_call
    1684            
    1685 0001da 13B0!         CALLA     #__mspabi_cvtfd       ; [] |1323| 
         0001dc 0000 
    1686                                                      ; [] |1323| 
    1687 0001de 0CC8          MOVA      r12,r8                ; [] |1323| 
    1688 0001e0 0DC9          MOVA      r13,r9                ; [] |1323| 
    1689 0001e2 0ECA          MOVA      r14,r10               ; [] |1323| 
    1690 0001e4 0FCB          MOVA      r15,r11               ; [] |1323| 
    1691 0001e6 403C          MOV.W     #39322,r12            ; [] |1323| 
         0001e8 999A 
    1692 0001ea 403D          MOV.W     #39321,r13            ; [] |1323| 
         0001ec 9999 
    1693 0001ee 403E          MOV.W     #39321,r14            ; [] |1323| 
         0001f0 9999 
    1694 0001f2 403F          MOV.W     #16329,r15            ; [] |1323| 
         0001f4 3FC9 
    1695            $C$DW$144       .dwtag  DW_TAG_TI_branch
    1696                    .dwattr $C$DW$144, DW_AT_low_pc(0x00)
    1697                    .dwattr $C$DW$144, DW_AT_name("__mspabi_addd")
    1698                    .dwattr $C$DW$144, DW_AT_TI_call
    1699            
    1700 0001f6 13B0!         CALLA     #__mspabi_addd        ; [] |1323| 
         0001f8 0000 
    1701                                                      ; [] |1323| 
    1702            $C$DW$145       .dwtag  DW_TAG_TI_branch
    1703                    .dwattr $C$DW$145, DW_AT_low_pc(0x00)
    1704                    .dwattr $C$DW$145, DW_AT_name("__mspabi_cvtdf")
    1705                    .dwattr $C$DW$145, DW_AT_TI_call
    1706            
    1707 0001fa 13B0!         CALLA     #__mspabi_cvtdf       ; [] |1323| 
         0001fc 0000 
    1708                                                      ; [] |1323| 
MSP430 Assembler PC v21.6.1 Tue Dec 20 14:07:36 2022

Copyright (c) 2003-2018 Texas Instruments Incorporated
start.asm                                                            PAGE   34

    1709 0001fe 4C82          MOV.W     r12,&FC_Burner_Methanol_flow+0 ; [] |1323| 
         000200 0000!
    1710 000202 4D82          MOV.W     r13,&FC_Burner_Methanol_flow+2 ; [] |1323| 
         000204 0002!
    1711 000206 3C0E          JMP       $C$L13                ; [] 
    1712                                                      ; [] 
    1713            ;* --------------------------------------------------------------------------*
    1714 000208       $C$L10:    
    1715                    .dwpsn  file "../src/start.c",line 1307,column 13,is_stmt,isa 0
    1716 000208 9392          CMP.W     #1,&Pump_Off_Counter+0 ; [] |1307| 
         00020a 0000!
    1717 00020c 3403          JGE       $C$L11                ; [] |1307| 
    1718                                                      ; [] |1307| 
    1719            ;* --------------------------------------------------------------------------*
    1720                    .dwpsn  file "../src/start.c",line 1313,column 17,is_stmt,isa 0
    1721 00020e 43C2          MOV.B     #0,&FC_Burner_Ignite_Failure+0 ; [] |1313| 
         000210 0000!
    1722 000212 3C02          JMP       $C$L12                ; [] |1313| 
    1723                                                      ; [] |1313| 
    1724            ;* --------------------------------------------------------------------------*
    1725 000214       $C$L11:    
    1726                    .dwpsn  file "../src/start.c",line 1309,column 17,is_stmt,isa 0
    1727 000214 8392          SUB.W     #1,&Pump_Off_Counter+0 ; [] |1309| 
         000216 0000!
    1728            ;* --------------------------------------------------------------------------*
    1729 000218       $C$L12:    
    1730                    .dwpsn  file "../src/start.c",line 1315,column 13,is_stmt,isa 0
    1731 000218 4382          MOV.W     #0,&FC_Burner_Methanol_flow+0 ; [] |1315| 
         00021a 0000!
    1732 00021c 4382          MOV.W     #0,&FC_Burner_Methanol_flow+2 ; [] |1315| 
         00021e 0002!
    1733                    .dwpsn  file "../src/start.c",line 1316,column 13,is_stmt,isa 0
    1734 000220 4382          MOV.W     #0,&Pump_Startup+0    ; [] |1316| 
         000222 0000!
    1735            ;* --------------------------------------------------------------------------*
    1736 000224       $C$L13:    
    1737                    .dwpsn  file "../src/start.c",line 1342,column 9,is_stmt,isa 0
    1738 000224 93C2          TST.B     &FC_Burner_Ignite_Failure+0 ; [] |1342| 
         000226 0000!
    1739 000228 2030          JNE       $C$L16                ; [] |1342| 
    1740                                                      ; [] |1342| 
    1741            ;* --------------------------------------------------------------------------*
    1742                    .dwpsn  file "../src/start.c",line 1344,column 13,is_stmt,isa 0
    1743 00022a 421C          MOV.W     &FC_burner_temp+0,r12 ; [] |1344| 
         00022c 0000!
    1744 00022e 421D          MOV.W     &FC_burner_temp+2,r13 ; [] |1344| 
         000230 0002!
    1745            $C$DW$146       .dwtag  DW_TAG_TI_branch
    1746                    .dwattr $C$DW$146, DW_AT_low_pc(0x00)
    1747                    .dwattr $C$DW$146, DW_AT_name("__mspabi_cvtfd")
    1748                    .dwattr $C$DW$146, DW_AT_TI_call
    1749            
    1750 000232 13B0!         CALLA     #__mspabi_cvtfd       ; [] |1344| 
         000234 0000 
    1751                                                      ; [] |1344| 
MSP430 Assembler PC v21.6.1 Tue Dec 20 14:07:36 2022

Copyright (c) 2003-2018 Texas Instruments Incorporated
start.asm                                                            PAGE   35

    1752 000236 0CC4          MOVA      r12,r4                ; [] |1344| 
    1753 000238 0DC5          MOVA      r13,r5                ; [] |1344| 
    1754 00023a 0EC6          MOVA      r14,r6                ; [] |1344| 
    1755 00023c 0FC7          MOVA      r15,r7                ; [] |1344| 
    1756 00023e 421C          MOV.W     &FC_Burner_Ignite_temp+0,r12 ; [] |1344| 
         000240 0000!
    1757 000242 421D          MOV.W     &FC_Burner_Ignite_temp+2,r13 ; [] |1344| 
         000244 0002!
    1758            $C$DW$147       .dwtag  DW_TAG_TI_branch
    1759                    .dwattr $C$DW$147, DW_AT_low_pc(0x00)
    1760                    .dwattr $C$DW$147, DW_AT_name("__mspabi_cvtfd")
    1761                    .dwattr $C$DW$147, DW_AT_TI_call
    1762            
    1763 000246 13B0!         CALLA     #__mspabi_cvtfd       ; [] |1344| 
         000248 0000 
    1764                                                      ; [] |1344| 
    1765 00024a 0CC8          MOVA      r12,r8                ; [] |1344| 
    1766 00024c 0DC9          MOVA      r13,r9                ; [] |1344| 
    1767 00024e 0ECA          MOVA      r14,r10               ; [] |1344| 
    1768 000250 0FCB          MOVA      r15,r11               ; [] |1344| 
    1769 000252 430C          MOV.W     #0,r12                ; [] |1344| 
    1770 000254 430D          MOV.W     #0,r13                ; [] |1344| 
    1771 000256 430E          MOV.W     #0,r14                ; [] |1344| 
    1772 000258 403F          MOV.W     #16404,r15            ; [] |1344| 
         00025a 4014 
    1773            $C$DW$148       .dwtag  DW_TAG_TI_branch
    1774                    .dwattr $C$DW$148, DW_AT_low_pc(0x00)
    1775                    .dwattr $C$DW$148, DW_AT_name("__mspabi_addd")
    1776                    .dwattr $C$DW$148, DW_AT_TI_call
    1777            
    1778 00025c 13B0!         CALLA     #__mspabi_addd        ; [] |1344| 
         00025e 0000 
    1779                                                      ; [] |1344| 
    1780 000260 04C8          MOVA      r4,r8                 ; [] |1344| 
    1781 000262 05C9          MOVA      r5,r9                 ; [] |1344| 
    1782 000264 06CA          MOVA      r6,r10                ; [] |1344| 
    1783 000266 07CB          MOVA      r7,r11                ; [] |1344| 
    1784            $C$DW$149       .dwtag  DW_TAG_TI_branch
    1785                    .dwattr $C$DW$149, DW_AT_low_pc(0x00)
    1786                    .dwattr $C$DW$149, DW_AT_name("__mspabi_cmpd")
    1787                    .dwattr $C$DW$149, DW_AT_TI_call
    1788            
    1789 000268 13B0!         CALLA     #__mspabi_cmpd        ; [] |1344| 
         00026a 0000 
    1790                                                      ; [] |1344| 
    1791 00026c 930C          TST.W     r12                   ; [] |1344| 
    1792 00026e 3402          JGE       $C$L14                ; [] |1344| 
    1793                                                      ; [] |1344| 
    1794            ;* --------------------------------------------------------------------------*
    1795                    .dwpsn  file "../src/start.c",line 1346,column 17,is_stmt,isa 0
    1796 000270 5392          ADD.W     #1,&FC_Burner_Ignite_Failure_timer+0 ; [] |1346| 
         000272 0000!
    1797            ;* --------------------------------------------------------------------------*
    1798 000274       $C$L14:    
    1799                    .dwpsn  file "../src/start.c",line 1348,column 13,is_stmt,isa 0
MSP430 Assembler PC v21.6.1 Tue Dec 20 14:07:36 2022

Copyright (c) 2003-2018 Texas Instruments Incorporated
start.asm                                                            PAGE   36

    1800 000274 90B2          CMP.W     #9001,&FC_Burner_Ignite_Failure_timer+0 ; [] |1348| 
         000276 2329 
         000278 0000!
    1801 00027a 3805          JL        $C$L15                ; [] |1348| 
    1802                                                      ; [] |1348| 
    1803            ;* --------------------------------------------------------------------------*
    1804                    .dwpsn  file "../src/start.c",line 1350,column 17,is_stmt,isa 0
    1805 00027c 43D2          MOV.B     #1,&FC_Burner_Ignite_Failure+0 ; [] |1350| 
         00027e 0000!
    1806                    .dwpsn  file "../src/start.c",line 1351,column 17,is_stmt,isa 0
    1807 000280 40B2          MOV.W     #3000,&Pump_Off_Counter+0 ; [] |1351| 
         000282 0BB8 
         000284 0000!
    1808            ;* --------------------------------------------------------------------------*
    1809 000286       $C$L15:    
    1810                    .dwpsn  file "../src/start.c",line 1354,column 13,is_stmt,isa 0
    1811 000286 4382          MOV.W     #0,&FC_Burner_Ignite_Failure_timer+0 ; [] |1354| 
         000288 0000!
    1812            ;* --------------------------------------------------------------------------*
    1813 00028a       $C$L16:    
    1814                    .dwpsn  file "../src/start.c",line 1358,column 5,is_stmt,isa 0
    1815 00028a 421C          MOV.W     &FC_Burner_air+0,r12  ; [] |1358| 
         00028c 0000!
    1816 00028e 421D          MOV.W     &FC_Burner_air+2,r13  ; [] |1358| 
         000290 0002!
    1817            $C$DW$150       .dwtag  DW_TAG_TI_branch
    1818                    .dwattr $C$DW$150, DW_AT_low_pc(0x00)
    1819                    .dwattr $C$DW$150, DW_AT_name("__mspabi_cvtfd")
    1820                    .dwattr $C$DW$150, DW_AT_TI_call
    1821            
    1822 000292 13B0!         CALLA     #__mspabi_cvtfd       ; [] |1358| 
         000294 0000 
    1823                                                      ; [] |1358| 
    1824 000296 0CC4          MOVA      r12,r4                ; [] |1358| 
    1825 000298 0DC5          MOVA      r13,r5                ; [] |1358| 
    1826 00029a 0EC6          MOVA      r14,r6                ; [] |1358| 
    1827 00029c 0FC7          MOVA      r15,r7                ; [] |1358| 
    1828 00029e 421C          MOV.W     &FC_Burner_Methanol_flow+0,r12 ; [] |1358| 
         0002a0 0000!
    1829 0002a2 421D          MOV.W     &FC_Burner_Methanol_flow+2,r13 ; [] |1358| 
         0002a4 0002!
    1830            $C$DW$151       .dwtag  DW_TAG_TI_branch
    1831                    .dwattr $C$DW$151, DW_AT_low_pc(0x00)
    1832                    .dwattr $C$DW$151, DW_AT_name("__mspabi_cvtfd")
    1833                    .dwattr $C$DW$151, DW_AT_TI_call
    1834            
    1835 0002a6 13B0!         CALLA     #__mspabi_cvtfd       ; [] |1358| 
         0002a8 0000 
    1836                                                      ; [] |1358| 
    1837 0002aa 0CC8          MOVA      r12,r8                ; [] |1358| 
    1838 0002ac 0DC9          MOVA      r13,r9                ; [] |1358| 
    1839 0002ae 0ECA          MOVA      r14,r10               ; [] |1358| 
    1840 0002b0 0FCB          MOVA      r15,r11               ; [] |1358| 
    1841 0002b2 403C          MOV.W     #65117,r12            ; [] |1358| 
         0002b4 FE5D 
MSP430 Assembler PC v21.6.1 Tue Dec 20 14:07:36 2022

Copyright (c) 2003-2018 Texas Instruments Incorporated
start.asm                                                            PAGE   37

    1842 0002b6 403D          MOV.W     #64067,r13            ; [] |1358| 
         0002b8 FA43 
    1843 0002ba 403E          MOV.W     #60397,r14            ; [] |1358| 
         0002bc EBED 
    1844 0002be 403F          MOV.W     #16304,r15            ; [] |1358| 
         0002c0 3FB0 
    1845            $C$DW$152       .dwtag  DW_TAG_TI_branch
    1846                    .dwattr $C$DW$152, DW_AT_low_pc(0x00)
    1847                    .dwattr $C$DW$152, DW_AT_name("__mspabi_mpyd")
    1848                    .dwattr $C$DW$152, DW_AT_TI_call
    1849            
    1850 0002c2 13B0!         CALLA     #__mspabi_mpyd        ; [] |1358| 
         0002c4 0000 
    1851                                                      ; [] |1358| 
    1852 0002c6 0CC8          MOVA      r12,r8                ; [] |1358| 
    1853 0002c8 0DC9          MOVA      r13,r9                ; [] |1358| 
    1854 0002ca 0ECA          MOVA      r14,r10               ; [] |1358| 
    1855 0002cc 0FCB          MOVA      r15,r11               ; [] |1358| 
    1856 0002ce 403C          MOV.W     #13107,r12            ; [] |1358| 
         0002d0 3333 
    1857 0002d2 403D          MOV.W     #13107,r13            ; [] |1358| 
         0002d4 3333 
    1858 0002d6 403E          MOV.W     #13107,r14            ; [] |1358| 
         0002d8 3333 
    1859 0002da 403F          MOV.W     #16371,r15            ; [] |1358| 
         0002dc 3FF3 
    1860            $C$DW$153       .dwtag  DW_TAG_TI_branch
    1861                    .dwattr $C$DW$153, DW_AT_low_pc(0x00)
    1862                    .dwattr $C$DW$153, DW_AT_name("__mspabi_mpyd")
    1863                    .dwattr $C$DW$153, DW_AT_TI_call
    1864            
    1865 0002de 13B0!         CALLA     #__mspabi_mpyd        ; [] |1358| 
         0002e0 0000 
    1866                                                      ; [] |1358| 
    1867 0002e2 04C8          MOVA      r4,r8                 ; [] |1358| 
    1868 0002e4 05C9          MOVA      r5,r9                 ; [] |1358| 
    1869 0002e6 06CA          MOVA      r6,r10                ; [] |1358| 
    1870 0002e8 07CB          MOVA      r7,r11                ; [] |1358| 
    1871            $C$DW$154       .dwtag  DW_TAG_TI_branch
    1872                    .dwattr $C$DW$154, DW_AT_low_pc(0x00)
    1873                    .dwattr $C$DW$154, DW_AT_name("__mspabi_cmpd")
    1874                    .dwattr $C$DW$154, DW_AT_TI_call
    1875            
    1876 0002ea 13B0!         CALLA     #__mspabi_cmpd        ; [] |1358| 
         0002ec 0000 
    1877                                                      ; [] |1358| 
    1878 0002ee 930C          TST.W     r12                   ; [] |1358| 
    1879 0002f0 381B          JL        $C$L17                ; [] |1358| 
    1880                                                      ; [] |1358| 
    1881            ;* --------------------------------------------------------------------------*
    1882                    .dwpsn  file "../src/start.c",line 1364,column 9,is_stmt,isa 0
    1883 0002f2 421C          MOV.W     &FC_Burner_air+0,r12  ; [] |1364| 
         0002f4 0000!
    1884 0002f6 421D          MOV.W     &FC_Burner_air+2,r13  ; [] |1364| 
         0002f8 0002!
MSP430 Assembler PC v21.6.1 Tue Dec 20 14:07:36 2022

Copyright (c) 2003-2018 Texas Instruments Incorporated
start.asm                                                            PAGE   38

    1885            $C$DW$155       .dwtag  DW_TAG_TI_branch
    1886                    .dwattr $C$DW$155, DW_AT_low_pc(0x00)
    1887                    .dwattr $C$DW$155, DW_AT_name("__mspabi_cvtfd")
    1888                    .dwattr $C$DW$155, DW_AT_TI_call
    1889            
    1890 0002fa 13B0!         CALLA     #__mspabi_cvtfd       ; [] |1364| 
         0002fc 0000 
    1891                                                      ; [] |1364| 
    1892 0002fe 0CC8          MOVA      r12,r8                ; [] |1364| 
    1893 000300 0DC9          MOVA      r13,r9                ; [] |1364| 
    1894 000302 0ECA          MOVA      r14,r10               ; [] |1364| 
    1895 000304 0FCB          MOVA      r15,r11               ; [] |1364| 
    1896 000306 403C          MOV.W     #5243,r12             ; [] |1364| 
         000308 147B 
    1897 00030a 403D          MOV.W     #18350,r13            ; [] |1364| 
         00030c 47AE 
    1898 00030e 403E          MOV.W     #31457,r14            ; [] |1364| 
         000310 7AE1 
    1899 000312 403F          MOV.W     #16244,r15            ; [] |1364| 
         000314 3F74 
    1900            $C$DW$156       .dwtag  DW_TAG_TI_branch
    1901                    .dwattr $C$DW$156, DW_AT_low_pc(0x00)
    1902                    .dwattr $C$DW$156, DW_AT_name("__mspabi_subd")
    1903                    .dwattr $C$DW$156, DW_AT_TI_call
    1904            
    1905 000316 13B0!         CALLA     #__mspabi_subd        ; [] |1364| 
         000318 0000 
    1906                                                      ; [] |1364| 
    1907            $C$DW$157       .dwtag  DW_TAG_TI_branch
    1908                    .dwattr $C$DW$157, DW_AT_low_pc(0x00)
    1909                    .dwattr $C$DW$157, DW_AT_name("__mspabi_cvtdf")
    1910                    .dwattr $C$DW$157, DW_AT_TI_call
    1911            
    1912 00031a 13B0!         CALLA     #__mspabi_cvtdf       ; [] |1364| 
         00031c 0000 
    1913                                                      ; [] |1364| 
    1914 00031e 4C82          MOV.W     r12,&FC_Burner_air+0  ; [] |1364| 
         000320 0000!
    1915 000322 4D82          MOV.W     r13,&FC_Burner_air+2  ; [] |1364| 
         000324 0002!
    1916 000326 3C1A          JMP       $C$L18                ; [] |1364| 
    1917                                                      ; [] |1364| 
    1918            ;* --------------------------------------------------------------------------*
    1919 000328       $C$L17:    
    1920                    .dwpsn  file "../src/start.c",line 1360,column 9,is_stmt,isa 0
    1921 000328 421C          MOV.W     &FC_Burner_air+0,r12  ; [] |1360| 
         00032a 0000!
    1922 00032c 421D          MOV.W     &FC_Burner_air+2,r13  ; [] |1360| 
         00032e 0002!
    1923            $C$DW$158       .dwtag  DW_TAG_TI_branch
    1924                    .dwattr $C$DW$158, DW_AT_low_pc(0x00)
    1925                    .dwattr $C$DW$158, DW_AT_name("__mspabi_cvtfd")
    1926                    .dwattr $C$DW$158, DW_AT_TI_call
    1927            
    1928 000330 13B0!         CALLA     #__mspabi_cvtfd       ; [] |1360| 
MSP430 Assembler PC v21.6.1 Tue Dec 20 14:07:36 2022

Copyright (c) 2003-2018 Texas Instruments Incorporated
start.asm                                                            PAGE   39

         000332 0000 
    1929                                                      ; [] |1360| 
    1930 000334 0CC8          MOVA      r12,r8                ; [] |1360| 
    1931 000336 0DC9          MOVA      r13,r9                ; [] |1360| 
    1932 000338 0ECA          MOVA      r14,r10               ; [] |1360| 
    1933 00033a 0FCB          MOVA      r15,r11               ; [] |1360| 
    1934 00033c 403C          MOV.W     #5243,r12             ; [] |1360| 
         00033e 147B 
    1935 000340 403D          MOV.W     #18350,r13            ; [] |1360| 
         000342 47AE 
    1936 000344 403E          MOV.W     #31457,r14            ; [] |1360| 
         000346 7AE1 
    1937 000348 403F          MOV.W     #16244,r15            ; [] |1360| 
         00034a 3F74 
    1938            $C$DW$159       .dwtag  DW_TAG_TI_branch
    1939                    .dwattr $C$DW$159, DW_AT_low_pc(0x00)
    1940                    .dwattr $C$DW$159, DW_AT_name("__mspabi_addd")
    1941                    .dwattr $C$DW$159, DW_AT_TI_call
    1942            
    1943 00034c 13B0!         CALLA     #__mspabi_addd        ; [] |1360| 
         00034e 0000 
    1944                                                      ; [] |1360| 
    1945            $C$DW$160       .dwtag  DW_TAG_TI_branch
    1946                    .dwattr $C$DW$160, DW_AT_low_pc(0x00)
    1947                    .dwattr $C$DW$160, DW_AT_name("__mspabi_cvtdf")
    1948                    .dwattr $C$DW$160, DW_AT_TI_call
    1949            
    1950 000350 13B0!         CALLA     #__mspabi_cvtdf       ; [] |1360| 
         000352 0000 
    1951                                                      ; [] |1360| 
    1952 000354 4C82          MOV.W     r12,&FC_Burner_air+0  ; [] |1360| 
         000356 0000!
    1953 000358 4D82          MOV.W     r13,&FC_Burner_air+2  ; [] |1360| 
         00035a 0002!
    1954            ;* --------------------------------------------------------------------------*
    1955 00035c       $C$L18:    
    1956                    .dwpsn  file "../src/start.c",line 1366,column 1,is_stmt,isa 0
    1957 00035c 1664          POPM.A    #7,r10                ; [] 
    1958                    .dwcfi  restore_reg, 4
    1959                    .dwcfi  restore_reg, 5
    1960                    .dwcfi  restore_reg, 6
    1961                    .dwcfi  restore_reg, 7
    1962                    .dwcfi  restore_reg, 8
    1963                    .dwcfi  restore_reg, 9
    1964                    .dwcfi  restore_reg, 10
    1965                    .dwcfi  cfa_offset, 4
    1966            $C$DW$161       .dwtag  DW_TAG_TI_branch
    1967                    .dwattr $C$DW$161, DW_AT_low_pc(0x00)
    1968                    .dwattr $C$DW$161, DW_AT_TI_return
    1969            
    1970 00035e 0110          RETA      ; [] 
    1971                    ; [] 
    1972                    .dwattr $C$DW$124, DW_AT_TI_end_file("../src/start.c")
    1973                    .dwattr $C$DW$124, DW_AT_TI_end_line(0x556)
    1974                    .dwattr $C$DW$124, DW_AT_TI_end_column(0x01)
MSP430 Assembler PC v21.6.1 Tue Dec 20 14:07:36 2022

Copyright (c) 2003-2018 Texas Instruments Incorporated
start.asm                                                            PAGE   40

    1975                    .dwendentry
    1976                    .dwendtag $C$DW$124
    1977            
    1978 000000               .sect   ".text:burnerMethAdjust"
    1979                    .clink
    1980                    .global burnerMethAdjust
    1981            
    1982            $C$DW$162       .dwtag  DW_TAG_subprogram
    1983                    .dwattr $C$DW$162, DW_AT_name("burnerMethAdjust")
    1984                    .dwattr $C$DW$162, DW_AT_low_pc(burnerMethAdjust)
    1985                    .dwattr $C$DW$162, DW_AT_high_pc(0x00)
    1986                    .dwattr $C$DW$162, DW_AT_TI_symbol_name("burnerMethAdjust")
    1987                    .dwattr $C$DW$162, DW_AT_external
    1988                    .dwattr $C$DW$162, DW_AT_TI_begin_file("../src/start.c")
    1989                    .dwattr $C$DW$162, DW_AT_TI_begin_line(0x48e)
    1990                    .dwattr $C$DW$162, DW_AT_TI_begin_column(0x06)
    1991                    .dwattr $C$DW$162, DW_AT_decl_file("../src/start.c")
    1992                    .dwattr $C$DW$162, DW_AT_decl_line(0x48e)
    1993                    .dwattr $C$DW$162, DW_AT_decl_column(0x06)
    1994                    .dwattr $C$DW$162, DW_AT_TI_max_frame_size(0x20)
    1995                    .dwpsn  file "../src/start.c",line 1167,column 1,is_stmt,address burnerMethAdjust,isa 0
    1996            
    1997                    .dwfde $C$DW$CIE, burnerMethAdjust
    1998            
    1999            ;*****************************************************************************
    2000            ;* FUNCTION NAME: burnerMethAdjust                                           *
    2001            ;*                                                                           *
    2002            ;*   Regs Modified     : SP,SR,r4,r5,r6,r7,r8,r9,r10,r11,r12,r13,r14,r15     *
    2003            ;*   Regs Used         : SP,SR,r4,r5,r6,r7,r8,r9,r10,r11,r12,r13,r14,r15     *
    2004            ;*   Local Frame Size  : 0 Args + 0 Auto + 28 Save = 28 byte                 *
    2005            ;*****************************************************************************
    2006 000000       burnerMethAdjust:
    2007            ;* --------------------------------------------------------------------------*
    2008                    .dwcfi  cfa_offset, 4
    2009                    .dwcfi  save_reg_to_mem, 16, -4
    2010 000000 146A          PUSHM.A   #7,r10                ; [] 
    2011                    .dwcfi  save_reg_to_mem, 10, -8
    2012                    .dwcfi  save_reg_to_mem, 9, -12
    2013                    .dwcfi  save_reg_to_mem, 8, -16
    2014                    .dwcfi  save_reg_to_mem, 7, -20
    2015                    .dwcfi  save_reg_to_mem, 6, -24
    2016                    .dwcfi  save_reg_to_mem, 5, -28
    2017                    .dwcfi  save_reg_to_mem, 4, -32
    2018                    .dwcfi  cfa_offset, 32
    2019                    .dwpsn  file "../src/start.c",line 1168,column 5,is_stmt,isa 0
    2020 000002 43D2          MOV.B     #1,&burner_fuel+0     ; [] |1168| 
         000004 0000!
    2021                    .dwpsn  file "../src/start.c",line 1170,column 5,is_stmt,isa 0
    2022 000006 421C          MOV.W     &FC_burner_temp+0,r12 ; [] |1170| 
         000008 0000!
    2023 00000a 421D          MOV.W     &FC_burner_temp+2,r13 ; [] |1170| 
         00000c 0002!
    2024 00000e 430E          MOV.W     #0,r14                ; [] |1170| 
    2025 000010 403F          MOV.W     #17008,r15            ; [] |1170| 
         000012 4270 
MSP430 Assembler PC v21.6.1 Tue Dec 20 14:07:36 2022

Copyright (c) 2003-2018 Texas Instruments Incorporated
start.asm                                                            PAGE   41

    2026            $C$DW$163       .dwtag  DW_TAG_TI_branch
    2027                    .dwattr $C$DW$163, DW_AT_low_pc(0x00)
    2028                    .dwattr $C$DW$163, DW_AT_name("__mspabi_cmpf")
    2029                    .dwattr $C$DW$163, DW_AT_TI_call
    2030            
    2031 000014 13B0!         CALLA     #__mspabi_cmpf        ; [] |1170| 
         000016 0000 
    2032                                                      ; [] |1170| 
    2033 000018 930C          TST.W     r12                   ; [] |1170| 
    2034 00001a 3807          JL        $C$L19                ; [] |1170| 
    2035                                                      ; [] |1170| 
    2036            ;* --------------------------------------------------------------------------*
    2037                    .dwpsn  file "../src/start.c",line 1177,column 9,is_stmt,isa 0
    2038 00001c F0F2          AND.B     #239,&PCOUT_L+0       ; [] |1177| 
         00001e 00EF 
         000020 0000!
    2039                    .dwpsn  file "../src/start.c",line 1178,column 9,is_stmt,isa 0
    2040 000022 F0F2          AND.B     #127,&PBOUT_L+0       ; [] |1178| 
         000024 007F 
         000026 0000!
    2041 000028 3C06          JMP       $C$L20                ; [] |1178| 
    2042                                                      ; [] |1178| 
    2043            ;* --------------------------------------------------------------------------*
    2044 00002a       $C$L19:    
    2045                    .dwpsn  file "../src/start.c",line 1172,column 9,is_stmt,isa 0
    2046 00002a D0F2          OR.B      #16,&PCOUT_L+0        ; [] |1172| 
         00002c 0010 
         00002e 0000!
    2047                    .dwpsn  file "../src/start.c",line 1173,column 9,is_stmt,isa 0
    2048 000030 D0F2          OR.B      #128,&PBOUT_L+0       ; [] |1173| 
         000032 0080 
         000034 0000!
    2049            ;* --------------------------------------------------------------------------*
    2050 000036       $C$L20:    
    2051                    .dwpsn  file "../src/start.c",line 1181,column 5,is_stmt,isa 0
    2052 000036 9382          TST.W     &Cold_Heater+0        ; [] |1181| 
         000038 0000!
    2053 00003a 244E          JEQ       $C$L22                ; [] |1181| 
    2054                                                      ; [] |1181| 
    2055            ;* --------------------------------------------------------------------------*
    2056 00003c 421C          MOV.W     &FC_burner_temp+0,r12 ; [] |1181| 
         00003e 0000!
    2057 000040 421D          MOV.W     &FC_burner_temp+2,r13 ; [] |1181| 
         000042 0002!
    2058 000044 430E          MOV.W     #0,r14                ; [] |1181| 
    2059 000046 403F          MOV.W     #16752,r15            ; [] |1181| 
         000048 4170 
    2060            $C$DW$164       .dwtag  DW_TAG_TI_branch
    2061                    .dwattr $C$DW$164, DW_AT_low_pc(0x00)
    2062                    .dwattr $C$DW$164, DW_AT_name("__mspabi_cmpf")
    2063                    .dwattr $C$DW$164, DW_AT_TI_call
    2064            
    2065 00004a 13B0!         CALLA     #__mspabi_cmpf        ; [] |1181| 
         00004c 0000 
    2066                                                      ; [] |1181| 
MSP430 Assembler PC v21.6.1 Tue Dec 20 14:07:36 2022

Copyright (c) 2003-2018 Texas Instruments Incorporated
start.asm                                                            PAGE   42

    2067 00004e 930C          TST.W     r12                   ; [] |1181| 
    2068 000050 3443          JGE       $C$L22                ; [] |1181| 
    2069                                                      ; [] |1181| 
    2070            ;* --------------------------------------------------------------------------*
    2071                    .dwpsn  file "../src/start.c",line 1183,column 9,is_stmt,isa 0
    2072 000052 8392          SUB.W     #1,&Cold_Heater+0     ; [] |1183| 
         000054 0000!
    2073                    .dwpsn  file "../src/start.c",line 1184,column 9,is_stmt,isa 0
    2074 000056 421C          MOV.W     &FC_Burner_air+0,r12  ; [] |1184| 
         000058 0000!
    2075 00005a 421D          MOV.W     &FC_Burner_air+2,r13  ; [] |1184| 
         00005c 0002!
    2076 00005e 430E          MOV.W     #0,r14                ; [] |1184| 
    2077 000060 403F          MOV.W     #16320,r15            ; [] |1184| 
         000062 3FC0 
    2078            $C$DW$165       .dwtag  DW_TAG_TI_branch
    2079                    .dwattr $C$DW$165, DW_AT_low_pc(0x00)
    2080                    .dwattr $C$DW$165, DW_AT_name("__mspabi_cmpf")
    2081                    .dwattr $C$DW$165, DW_AT_TI_call
    2082            
    2083 000064 13B0!         CALLA     #__mspabi_cmpf        ; [] |1184| 
         000066 0000 
    2084                                                      ; [] |1184| 
    2085 000068 930C          TST.W     r12                   ; [] |1184| 
    2086 00006a 381B          JL        $C$L21                ; [] |1184| 
    2087                                                      ; [] |1184| 
    2088            ;* --------------------------------------------------------------------------*
    2089                    .dwpsn  file "../src/start.c",line 1187,column 13,is_stmt,isa 0
    2090 00006c 421C          MOV.W     &FC_Burner_air+0,r12  ; [] |1187| 
         00006e 0000!
    2091 000070 421D          MOV.W     &FC_Burner_air+2,r13  ; [] |1187| 
         000072 0002!
    2092            $C$DW$166       .dwtag  DW_TAG_TI_branch
    2093                    .dwattr $C$DW$166, DW_AT_low_pc(0x00)
    2094                    .dwattr $C$DW$166, DW_AT_name("__mspabi_cvtfd")
    2095                    .dwattr $C$DW$166, DW_AT_TI_call
    2096            
    2097 000074 13B0!         CALLA     #__mspabi_cvtfd       ; [] |1187| 
         000076 0000 
    2098                                                      ; [] |1187| 
    2099 000078 0CC8          MOVA      r12,r8                ; [] |1187| 
    2100 00007a 0DC9          MOVA      r13,r9                ; [] |1187| 
    2101 00007c 0ECA          MOVA      r14,r10               ; [] |1187| 
    2102 00007e 0FCB          MOVA      r15,r11               ; [] |1187| 
    2103 000080 403C          MOV.W     #5243,r12             ; [] |1187| 
         000082 147B 
    2104 000084 403D          MOV.W     #18350,r13            ; [] |1187| 
         000086 47AE 
    2105 000088 403E          MOV.W     #31457,r14            ; [] |1187| 
         00008a 7AE1 
    2106 00008c 403F          MOV.W     #16244,r15            ; [] |1187| 
         00008e 3F74 
    2107            $C$DW$167       .dwtag  DW_TAG_TI_branch
    2108                    .dwattr $C$DW$167, DW_AT_low_pc(0x00)
    2109                    .dwattr $C$DW$167, DW_AT_name("__mspabi_subd")
MSP430 Assembler PC v21.6.1 Tue Dec 20 14:07:36 2022

Copyright (c) 2003-2018 Texas Instruments Incorporated
start.asm                                                            PAGE   43

    2110                    .dwattr $C$DW$167, DW_AT_TI_call
    2111            
    2112 000090 13B0!         CALLA     #__mspabi_subd        ; [] |1187| 
         000092 0000 
    2113                                                      ; [] |1187| 
    2114            $C$DW$168       .dwtag  DW_TAG_TI_branch
    2115                    .dwattr $C$DW$168, DW_AT_low_pc(0x00)
    2116                    .dwattr $C$DW$168, DW_AT_name("__mspabi_cvtdf")
    2117                    .dwattr $C$DW$168, DW_AT_TI_call
    2118            
    2119 000094 13B0!         CALLA     #__mspabi_cvtdf       ; [] |1187| 
         000096 0000 
    2120                                                      ; [] |1187| 
    2121 000098 4C82          MOV.W     r12,&FC_Burner_air+0  ; [] |1187| 
         00009a 0000!
    2122 00009c 4D82          MOV.W     r13,&FC_Burner_air+2  ; [] |1187| 
         00009e 0002!
    2123 0000a0 3DFE          JMP       $C$L43                ; [] |1187| 
    2124                                                      ; [] |1187| 
    2125            ;* --------------------------------------------------------------------------*
    2126 0000a2       $C$L21:    
    2127                    .dwpsn  file "../src/start.c",line 1185,column 13,is_stmt,isa 0
    2128 0000a2 421C          MOV.W     &FC_Burner_air+0,r12  ; [] |1185| 
         0000a4 0000!
    2129 0000a6 421D          MOV.W     &FC_Burner_air+2,r13  ; [] |1185| 
         0000a8 0002!
    2130            $C$DW$169       .dwtag  DW_TAG_TI_branch
    2131                    .dwattr $C$DW$169, DW_AT_low_pc(0x00)
    2132                    .dwattr $C$DW$169, DW_AT_name("__mspabi_cvtfd")
    2133                    .dwattr $C$DW$169, DW_AT_TI_call
    2134            
    2135 0000aa 13B0!         CALLA     #__mspabi_cvtfd       ; [] |1185| 
         0000ac 0000 
    2136                                                      ; [] |1185| 
    2137 0000ae 0CC8          MOVA      r12,r8                ; [] |1185| 
    2138 0000b0 0DC9          MOVA      r13,r9                ; [] |1185| 
    2139 0000b2 0ECA          MOVA      r14,r10               ; [] |1185| 
    2140 0000b4 0FCB          MOVA      r15,r11               ; [] |1185| 
    2141 0000b6 403C          MOV.W     #5243,r12             ; [] |1185| 
         0000b8 147B 
    2142 0000ba 403D          MOV.W     #18350,r13            ; [] |1185| 
         0000bc 47AE 
    2143 0000be 403E          MOV.W     #31457,r14            ; [] |1185| 
         0000c0 7AE1 
    2144 0000c2 403F          MOV.W     #16260,r15            ; [] |1185| 
         0000c4 3F84 
    2145            $C$DW$170       .dwtag  DW_TAG_TI_branch
    2146                    .dwattr $C$DW$170, DW_AT_low_pc(0x00)
    2147                    .dwattr $C$DW$170, DW_AT_name("__mspabi_addd")
    2148                    .dwattr $C$DW$170, DW_AT_TI_call
    2149            
    2150 0000c6 13B0!         CALLA     #__mspabi_addd        ; [] |1185| 
         0000c8 0000 
    2151                                                      ; [] |1185| 
    2152            $C$DW$171       .dwtag  DW_TAG_TI_branch
MSP430 Assembler PC v21.6.1 Tue Dec 20 14:07:36 2022

Copyright (c) 2003-2018 Texas Instruments Incorporated
start.asm                                                            PAGE   44

    2153                    .dwattr $C$DW$171, DW_AT_low_pc(0x00)
    2154                    .dwattr $C$DW$171, DW_AT_name("__mspabi_cvtdf")
    2155                    .dwattr $C$DW$171, DW_AT_TI_call
    2156            
    2157 0000ca 13B0!         CALLA     #__mspabi_cvtdf       ; [] |1185| 
         0000cc 0000 
    2158                                                      ; [] |1185| 
    2159 0000ce 4C82          MOV.W     r12,&FC_Burner_air+0  ; [] |1185| 
         0000d0 0000!
    2160 0000d2 4D82          MOV.W     r13,&FC_Burner_air+2  ; [] |1185| 
         0000d4 0002!
    2161 0000d6 3DE3          JMP       $C$L43                ; [] 
    2162                                                      ; [] 
    2163            ;* --------------------------------------------------------------------------*
    2164 0000d8       $C$L22:    
    2165                    .dwpsn  file "../src/start.c",line 1191,column 9,is_stmt,isa 0
    2166 0000d8 4382          MOV.W     #0,&Cold_Heater+0     ; [] |1191| 
         0000da 0000!
    2167                    .dwpsn  file "../src/start.c",line 1192,column 9,is_stmt,isa 0
    2168 0000dc 421C          MOV.W     &FC_Burner_Methanol_flow+0,r12 ; [] |1192| 
         0000de 0000!
    2169 0000e0 421D          MOV.W     &FC_Burner_Methanol_flow+2,r13 ; [] |1192| 
         0000e2 0002!
    2170 0000e4 430E          MOV.W     #0,r14                ; [] |1192| 
    2171 0000e6 403F          MOV.W     #16256,r15            ; [] |1192| 
         0000e8 3F80 
    2172            $C$DW$172       .dwtag  DW_TAG_TI_branch
    2173                    .dwattr $C$DW$172, DW_AT_low_pc(0x00)
    2174                    .dwattr $C$DW$172, DW_AT_name("__mspabi_cmpf")
    2175                    .dwattr $C$DW$172, DW_AT_TI_call
    2176            
    2177 0000ea 13B0!         CALLA     #__mspabi_cmpf        ; [] |1192| 
         0000ec 0000 
    2178                                                      ; [] |1192| 
    2179 0000ee 930C          TST.W     r12                   ; [] |1192| 
    2180 0000f0 3406          JGE       $C$L23                ; [] |1192| 
    2181                                                      ; [] |1192| 
    2182            ;* --------------------------------------------------------------------------*
    2183                    .dwpsn  file "../src/start.c",line 1193,column 13,is_stmt,isa 0
    2184 0000f2 4292          MOV.W     &FC_burner_temp+0,&FC_Burner_Ignite_temp+0 ; [] |1193| 
         0000f4 0000!
         0000f6 0000!
    2185 0000f8 4292          MOV.W     &FC_burner_temp+2,&FC_Burner_Ignite_temp+2 ; [] |1193| 
         0000fa 0002!
         0000fc 0002!
    2186            ;* --------------------------------------------------------------------------*
    2187 0000fe       $C$L23:    
    2188                    .dwpsn  file "../src/start.c",line 1195,column 9,is_stmt,isa 0
    2189 0000fe 93C2          TST.B     &FC_Burner_Ignite_Failure+0 ; [] |1195| 
         000100 0000!
    2190 000102 203D          JNE       $C$L27                ; [] |1195| 
    2191                                                      ; [] |1195| 
    2192            ;* --------------------------------------------------------------------------*
    2193                    .dwpsn  file "../src/start.c",line 1204,column 14,is_stmt,isa 0
    2194 000104 90B2          CMP.W     #500,&Pump_Startup+0  ; [] |1204| 
MSP430 Assembler PC v21.6.1 Tue Dec 20 14:07:36 2022

Copyright (c) 2003-2018 Texas Instruments Incorporated
start.asm                                                            PAGE   45

         000106 01F4 
         000108 0000!
    2195 00010a 3834          JL        $C$L26                ; [] |1204| 
    2196                                                      ; [] |1204| 
    2197            ;* --------------------------------------------------------------------------*
    2198                    .dwpsn  file "../src/start.c",line 1211,column 13,is_stmt,isa 0
    2199 00010c 93C2          TST.B     &FC_Burner_On+0       ; [] |1211| 
         00010e 0000!
    2200 000110 2018          JNE       $C$L24                ; [] |1211| 
    2201                                                      ; [] |1211| 
    2202            ;* --------------------------------------------------------------------------*
    2203 000112 430C          MOV.W     #0,r12                ; [] |1211| 
    2204 000114 403D          MOV.W     #17096,r13            ; [] |1211| 
         000116 42C8 
    2205 000118 421E          MOV.W     &TC1_temp+0,r14       ; [] |1211| 
         00011a 0000!
    2206 00011c 421F          MOV.W     &TC1_temp+2,r15       ; [] |1211| 
         00011e 0002!
    2207            $C$DW$173       .dwtag  DW_TAG_TI_branch
    2208                    .dwattr $C$DW$173, DW_AT_low_pc(0x00)
    2209                    .dwattr $C$DW$173, DW_AT_name("__mspabi_cmpf")
    2210                    .dwattr $C$DW$173, DW_AT_TI_call
    2211            
    2212 000120 13B0!         CALLA     #__mspabi_cmpf        ; [] |1211| 
         000122 0000 
    2213                                                      ; [] |1211| 
    2214 000124 930C          TST.W     r12                   ; [] |1211| 
    2215 000126 380D          JL        $C$L24                ; [] |1211| 
    2216                                                      ; [] |1211| 
    2217            ;* --------------------------------------------------------------------------*
    2218 000128 421C          MOV.W     &FC_burner_temp+0,r12 ; [] |1211| 
         00012a 0000!
    2219 00012c 421D          MOV.W     &FC_burner_temp+2,r13 ; [] |1211| 
         00012e 0002!
    2220 000130 430E          MOV.W     #0,r14                ; [] |1211| 
    2221 000132 403F          MOV.W     #17174,r15            ; [] |1211| 
         000134 4316 
    2222            $C$DW$174       .dwtag  DW_TAG_TI_branch
    2223                    .dwattr $C$DW$174, DW_AT_low_pc(0x00)
    2224                    .dwattr $C$DW$174, DW_AT_name("__mspabi_cmpf")
    2225                    .dwattr $C$DW$174, DW_AT_TI_call
    2226            
    2227 000136 13B0!         CALLA     #__mspabi_cmpf        ; [] |1211| 
         000138 0000 
    2228                                                      ; [] |1211| 
    2229 00013a 930C          TST.W     r12                   ; [] |1211| 
    2230 00013c 3402          JGE       $C$L24                ; [] |1211| 
    2231                                                      ; [] |1211| 
    2232            ;* --------------------------------------------------------------------------*
    2233                    .dwpsn  file "../src/start.c",line 1214,column 17,is_stmt,isa 0
    2234 00013e 43D2          MOV.B     #1,&FC_Burner_On+0    ; [] |1214| 
         000140 0000!
    2235            ;* --------------------------------------------------------------------------*
    2236 000142       $C$L24:    
    2237                    .dwpsn  file "../src/start.c",line 1216,column 13,is_stmt,isa 0
MSP430 Assembler PC v21.6.1 Tue Dec 20 14:07:36 2022

Copyright (c) 2003-2018 Texas Instruments Incorporated
start.asm                                                            PAGE   46

    2238 000142 430C          MOV.W     #0,r12                ; [] |1216| 
    2239 000144 403D          MOV.W     #17096,r13            ; [] |1216| 
         000146 42C8 
    2240 000148 421E          MOV.W     &TC1_temp+0,r14       ; [] |1216| 
         00014a 0000!
    2241 00014c 421F          MOV.W     &TC1_temp+2,r15       ; [] |1216| 
         00014e 0002!
    2242            $C$DW$175       .dwtag  DW_TAG_TI_branch
    2243                    .dwattr $C$DW$175, DW_AT_low_pc(0x00)
    2244                    .dwattr $C$DW$175, DW_AT_name("__mspabi_cmpf")
    2245                    .dwattr $C$DW$175, DW_AT_TI_call
    2246            
    2247 000150 13B0!         CALLA     #__mspabi_cmpf        ; [] |1216| 
         000152 0000 
    2248                                                      ; [] |1216| 
    2249 000154 930C          TST.W     r12                   ; [] |1216| 
    2250 000156 380B          JL        $C$L25                ; [] |1216| 
    2251                                                      ; [] |1216| 
    2252            ;* --------------------------------------------------------------------------*
    2253 000158 430C          MOV.W     #0,r12                ; [] |1216| 
    2254 00015a 403D          MOV.W     #17214,r13            ; [] |1216| 
         00015c 433E 
    2255 00015e 421E          MOV.W     &FC_burner_temp+0,r14 ; [] |1216| 
         000160 0000!
    2256 000162 421F          MOV.W     &FC_burner_temp+2,r15 ; [] |1216| 
         000164 0002!
    2257            $C$DW$176       .dwtag  DW_TAG_TI_branch
    2258                    .dwattr $C$DW$176, DW_AT_low_pc(0x00)
    2259                    .dwattr $C$DW$176, DW_AT_name("__mspabi_cmpf")
    2260                    .dwattr $C$DW$176, DW_AT_TI_call
    2261            
    2262 000166 13B0!         CALLA     #__mspabi_cmpf        ; [] |1216| 
         000168 0000 
    2263                                                      ; [] |1216| 
    2264 00016a 930C          TST.W     r12                   ; [] |1216| 
    2265 00016c 3416          JGE       $C$L30                ; [] |1216| 
    2266                                                      ; [] |1216| 
    2267            ;* --------------------------------------------------------------------------*
    2268 00016e       $C$L25:    
    2269                    .dwpsn  file "../src/start.c",line 1218,column 17,is_stmt,isa 0
    2270 00016e 43C2          MOV.B     #0,&FC_Burner_On+0    ; [] |1218| 
         000170 0000!
    2271 000172 3C13          JMP       $C$L30                ; [] |1218| 
    2272                                                      ; [] |1218| 
    2273            ;* --------------------------------------------------------------------------*
    2274 000174       $C$L26:    
    2275                    .dwpsn  file "../src/start.c",line 1206,column 13,is_stmt,isa 0
    2276 000174 5392          ADD.W     #1,&Pump_Startup+0    ; [] |1206| 
         000176 0000!
    2277                    .dwpsn  file "../src/start.c",line 1207,column 13,is_stmt,isa 0
    2278 000178 43D2          MOV.B     #1,&FC_Burner_On+0    ; [] |1207| 
         00017a 0000!
    2279 00017c 3C0E          JMP       $C$L30                ; [] 
    2280                                                      ; [] 
    2281            ;* --------------------------------------------------------------------------*
MSP430 Assembler PC v21.6.1 Tue Dec 20 14:07:36 2022

Copyright (c) 2003-2018 Texas Instruments Incorporated
start.asm                                                            PAGE   47

    2282 00017e       $C$L27:    
    2283                    .dwpsn  file "../src/start.c",line 1197,column 13,is_stmt,isa 0
    2284 00017e 9392          CMP.W     #1,&Pump_Off_Counter+0 ; [] |1197| 
         000180 0000!
    2285 000182 3403          JGE       $C$L28                ; [] |1197| 
    2286                                                      ; [] |1197| 
    2287            ;* --------------------------------------------------------------------------*
    2288                    .dwpsn  file "../src/start.c",line 1200,column 17,is_stmt,isa 0
    2289 000184 43C2          MOV.B     #0,&FC_Burner_Ignite_Failure+0 ; [] |1200| 
         000186 0000!
    2290 000188 3C02          JMP       $C$L29                ; [] |1200| 
    2291                                                      ; [] |1200| 
    2292            ;* --------------------------------------------------------------------------*
    2293 00018a       $C$L28:    
    2294                    .dwpsn  file "../src/start.c",line 1198,column 17,is_stmt,isa 0
    2295 00018a 8392          SUB.W     #1,&Pump_Off_Counter+0 ; [] |1198| 
         00018c 0000!
    2296            ;* --------------------------------------------------------------------------*
    2297 00018e       $C$L29:    
    2298                    .dwpsn  file "../src/start.c",line 1201,column 13,is_stmt,isa 0
    2299 00018e 4382          MOV.W     #0,&FC_Burner_Methanol_flow+0 ; [] |1201| 
         000190 0000!
    2300 000192 4382          MOV.W     #0,&FC_Burner_Methanol_flow+2 ; [] |1201| 
         000194 0002!
    2301                    .dwpsn  file "../src/start.c",line 1202,column 13,is_stmt,isa 0
    2302 000196 4382          MOV.W     #0,&Pump_Startup+0    ; [] |1202| 
         000198 0000!
    2303            ;* --------------------------------------------------------------------------*
    2304 00019a       $C$L30:    
    2305                    .dwpsn  file "../src/start.c",line 1222,column 9,is_stmt,isa 0
    2306 00019a 93C2          TST.B     &FC_Burner_On+0       ; [] |1222| 
         00019c 0000!
    2307 00019e 202A          JNE       $C$L32                ; [] |1222| 
    2308                                                      ; [] |1222| 
    2309            ;* --------------------------------------------------------------------------*
    2310                    .dwpsn  file "../src/start.c",line 1249,column 13,is_stmt,isa 0
    2311 0001a0 430C          MOV.W     #0,r12                ; [] |1249| 
    2312 0001a2 430D          MOV.W     #0,r13                ; [] |1249| 
    2313 0001a4 421E          MOV.W     &FC_Burner_Methanol_flow+0,r14 ; [] |1249| 
         0001a6 0000!
    2314 0001a8 421F          MOV.W     &FC_Burner_Methanol_flow+2,r15 ; [] |1249| 
         0001aa 0002!
    2315            $C$DW$177       .dwtag  DW_TAG_TI_branch
    2316                    .dwattr $C$DW$177, DW_AT_low_pc(0x00)
    2317                    .dwattr $C$DW$177, DW_AT_name("__mspabi_cmpf")
    2318                    .dwattr $C$DW$177, DW_AT_TI_call
    2319            
    2320 0001ac 13B0!         CALLA     #__mspabi_cmpf        ; [] |1249| 
         0001ae 0000 
    2321                                                      ; [] |1249| 
    2322 0001b0 930C          TST.W     r12                   ; [] |1249| 
    2323 0001b2 3805          JL        $C$L31                ; [] |1249| 
    2324                                                      ; [] |1249| 
    2325            ;* --------------------------------------------------------------------------*
    2326                    .dwpsn  file "../src/start.c",line 1252,column 17,is_stmt,isa 0
MSP430 Assembler PC v21.6.1 Tue Dec 20 14:07:36 2022

Copyright (c) 2003-2018 Texas Instruments Incorporated
start.asm                                                            PAGE   48

    2327 0001b4 4382          MOV.W     #0,&FC_Burner_Methanol_flow+0 ; [] |1252| 
         0001b6 0000!
    2328 0001b8 4382          MOV.W     #0,&FC_Burner_Methanol_flow+2 ; [] |1252| 
         0001ba 0002!
    2329 0001bc 3D32          JMP       $C$L40                ; [] |1252| 
    2330                                                      ; [] |1252| 
    2331            ;* --------------------------------------------------------------------------*
    2332 0001be       $C$L31:    
    2333                    .dwpsn  file "../src/start.c",line 1250,column 17,is_stmt,isa 0
    2334 0001be 421C          MOV.W     &FC_Burner_Methanol_flow+0,r12 ; [] |1250| 
         0001c0 0000!
    2335 0001c2 421D          MOV.W     &FC_Burner_Methanol_flow+2,r13 ; [] |1250| 
         0001c4 0002!
    2336            $C$DW$178       .dwtag  DW_TAG_TI_branch
    2337                    .dwattr $C$DW$178, DW_AT_low_pc(0x00)
    2338                    .dwattr $C$DW$178, DW_AT_name("__mspabi_cvtfd")
    2339                    .dwattr $C$DW$178, DW_AT_TI_call
    2340            
    2341 0001c6 13B0!         CALLA     #__mspabi_cvtfd       ; [] |1250| 
         0001c8 0000 
    2342                                                      ; [] |1250| 
    2343 0001ca 0CC8          MOVA      r12,r8                ; [] |1250| 
    2344 0001cc 0DC9          MOVA      r13,r9                ; [] |1250| 
    2345 0001ce 0ECA          MOVA      r14,r10               ; [] |1250| 
    2346 0001d0 0FCB          MOVA      r15,r11               ; [] |1250| 
    2347 0001d2 403C          MOV.W     #39322,r12            ; [] |1250| 
         0001d4 999A 
    2348 0001d6 403D          MOV.W     #39321,r13            ; [] |1250| 
         0001d8 9999 
    2349 0001da 403E          MOV.W     #39321,r14            ; [] |1250| 
         0001dc 9999 
    2350 0001de 403F          MOV.W     #16297,r15            ; [] |1250| 
         0001e0 3FA9 
    2351            $C$DW$179       .dwtag  DW_TAG_TI_branch
    2352                    .dwattr $C$DW$179, DW_AT_low_pc(0x00)
    2353                    .dwattr $C$DW$179, DW_AT_name("__mspabi_subd")
    2354                    .dwattr $C$DW$179, DW_AT_TI_call
    2355            
    2356 0001e2 13B0!         CALLA     #__mspabi_subd        ; [] |1250| 
         0001e4 0000 
    2357                                                      ; [] |1250| 
    2358            $C$DW$180       .dwtag  DW_TAG_TI_branch
    2359                    .dwattr $C$DW$180, DW_AT_low_pc(0x00)
    2360                    .dwattr $C$DW$180, DW_AT_name("__mspabi_cvtdf")
    2361                    .dwattr $C$DW$180, DW_AT_TI_call
    2362            
    2363 0001e6 13B0!         CALLA     #__mspabi_cvtdf       ; [] |1250| 
         0001e8 0000 
    2364                                                      ; [] |1250| 
    2365 0001ea 4C82          MOV.W     r12,&FC_Burner_Methanol_flow+0 ; [] |1250| 
         0001ec 0000!
    2366 0001ee 4D82          MOV.W     r13,&FC_Burner_Methanol_flow+2 ; [] |1250| 
         0001f0 0002!
    2367 0001f2 3D17          JMP       $C$L40                ; [] 
    2368                                                      ; [] 
MSP430 Assembler PC v21.6.1 Tue Dec 20 14:07:36 2022

Copyright (c) 2003-2018 Texas Instruments Incorporated
start.asm                                                            PAGE   49

    2369            ;* --------------------------------------------------------------------------*
    2370 0001f4       $C$L32:    
    2371                    .dwpsn  file "../src/start.c",line 1224,column 13,is_stmt,isa 0
    2372 0001f4 421C          MOV.W     &FC_burner_temp+0,r12 ; [] |1224| 
         0001f6 0000!
    2373 0001f8 421D          MOV.W     &FC_burner_temp+2,r13 ; [] |1224| 
         0001fa 0002!
    2374 0001fc 430E          MOV.W     #0,r14                ; [] |1224| 
    2375 0001fe 403F          MOV.W     #17008,r15            ; [] |1224| 
         000200 4270 
    2376            $C$DW$181       .dwtag  DW_TAG_TI_branch
    2377                    .dwattr $C$DW$181, DW_AT_low_pc(0x00)
    2378                    .dwattr $C$DW$181, DW_AT_name("__mspabi_cmpf")
    2379                    .dwattr $C$DW$181, DW_AT_TI_call
    2380            
    2381 000202 13B0!         CALLA     #__mspabi_cmpf        ; [] |1224| 
         000204 0000 
    2382                                                      ; [] |1224| 
    2383 000206 930C          TST.W     r12                   ; [] |1224| 
    2384 000208 3852          JL        $C$L35                ; [] |1224| 
    2385                                                      ; [] |1224| 
    2386            ;* --------------------------------------------------------------------------*
    2387                    .dwpsn  file "../src/start.c",line 1235,column 17,is_stmt,isa 0
    2388 00020a 430C          MOV.W     #0,r12                ; [] |1235| 
    2389 00020c 403D          MOV.W     #16936,r13            ; [] |1235| 
         00020e 4228 
    2390 000210 421E          MOV.W     &FC_Burner_Methanol_flow+0,r14 ; [] |1235| 
         000212 0000!
    2391 000214 421F          MOV.W     &FC_Burner_Methanol_flow+2,r15 ; [] |1235| 
         000216 0002!
    2392            $C$DW$182       .dwtag  DW_TAG_TI_branch
    2393                    .dwattr $C$DW$182, DW_AT_low_pc(0x00)
    2394                    .dwattr $C$DW$182, DW_AT_name("__mspabi_cmpf")
    2395                    .dwattr $C$DW$182, DW_AT_TI_call
    2396            
    2397 000218 13B0!         CALLA     #__mspabi_cmpf        ; [] |1235| 
         00021a 0000 
    2398                                                      ; [] |1235| 
    2399 00021c 930C          TST.W     r12                   ; [] |1235| 
    2400 00021e 382C          JL        $C$L34                ; [] |1235| 
    2401                                                      ; [] |1235| 
    2402            ;* --------------------------------------------------------------------------*
    2403                    .dwpsn  file "../src/start.c",line 1237,column 22,is_stmt,isa 0
    2404 000220 421C          MOV.W     &FC_Burner_Methanol_flow+0,r12 ; [] |1237| 
         000222 0000!
    2405 000224 421D          MOV.W     &FC_Burner_Methanol_flow+2,r13 ; [] |1237| 
         000226 0002!
    2406 000228 430E          MOV.W     #0,r14                ; [] |1237| 
    2407 00022a 403F          MOV.W     #16936,r15            ; [] |1237| 
         00022c 4228 
    2408            $C$DW$183       .dwtag  DW_TAG_TI_branch
    2409                    .dwattr $C$DW$183, DW_AT_low_pc(0x00)
    2410                    .dwattr $C$DW$183, DW_AT_name("__mspabi_cmpf")
    2411                    .dwattr $C$DW$183, DW_AT_TI_call
    2412            
MSP430 Assembler PC v21.6.1 Tue Dec 20 14:07:36 2022

Copyright (c) 2003-2018 Texas Instruments Incorporated
start.asm                                                            PAGE   50

    2413 00022e 13B0!         CALLA     #__mspabi_cmpf        ; [] |1237| 
         000230 0000 
    2414                                                      ; [] |1237| 
    2415 000232 930C          TST.W     r12                   ; [] |1237| 
    2416 000234 3806          JL        $C$L33                ; [] |1237| 
    2417                                                      ; [] |1237| 
    2418            ;* --------------------------------------------------------------------------*
    2419                    .dwpsn  file "../src/start.c",line 1240,column 21,is_stmt,isa 0
    2420 000236 4382          MOV.W     #0,&FC_Burner_Methanol_flow+0 ; [] |1240| 
         000238 0000!
    2421 00023a 40B2          MOV.W     #16936,&FC_Burner_Methanol_flow+2 ; [] |1240| 
         00023c 4228 
         00023e 0002!
    2422 000240 3C87          JMP       $C$L38                ; [] |1240| 
    2423                                                      ; [] |1240| 
    2424            ;* --------------------------------------------------------------------------*
    2425 000242       $C$L33:    
    2426                    .dwpsn  file "../src/start.c",line 1238,column 21,is_stmt,isa 0
    2427 000242 421C          MOV.W     &FC_Burner_Methanol_flow+0,r12 ; [] |1238| 
         000244 0000!
    2428 000246 421D          MOV.W     &FC_Burner_Methanol_flow+2,r13 ; [] |1238| 
         000248 0002!
    2429            $C$DW$184       .dwtag  DW_TAG_TI_branch
    2430                    .dwattr $C$DW$184, DW_AT_low_pc(0x00)
    2431                    .dwattr $C$DW$184, DW_AT_name("__mspabi_cvtfd")
    2432                    .dwattr $C$DW$184, DW_AT_TI_call
    2433            
    2434 00024a 13B0!         CALLA     #__mspabi_cvtfd       ; [] |1238| 
         00024c 0000 
    2435                                                      ; [] |1238| 
    2436 00024e 0CC8          MOVA      r12,r8                ; [] |1238| 
    2437 000250 0DC9          MOVA      r13,r9                ; [] |1238| 
    2438 000252 0ECA          MOVA      r14,r10               ; [] |1238| 
    2439 000254 0FCB          MOVA      r15,r11               ; [] |1238| 
    2440 000256 403C          MOV.W     #39322,r12            ; [] |1238| 
         000258 999A 
    2441 00025a 403D          MOV.W     #39321,r13            ; [] |1238| 
         00025c 9999 
    2442 00025e 403E          MOV.W     #39321,r14            ; [] |1238| 
         000260 9999 
    2443 000262 403F          MOV.W     #16297,r15            ; [] |1238| 
         000264 3FA9 
    2444            $C$DW$185       .dwtag  DW_TAG_TI_branch
    2445                    .dwattr $C$DW$185, DW_AT_low_pc(0x00)
    2446                    .dwattr $C$DW$185, DW_AT_name("__mspabi_addd")
    2447                    .dwattr $C$DW$185, DW_AT_TI_call
    2448            
    2449 000266 13B0!         CALLA     #__mspabi_addd        ; [] |1238| 
         000268 0000 
    2450                                                      ; [] |1238| 
    2451            $C$DW$186       .dwtag  DW_TAG_TI_branch
    2452                    .dwattr $C$DW$186, DW_AT_low_pc(0x00)
    2453                    .dwattr $C$DW$186, DW_AT_name("__mspabi_cvtdf")
    2454                    .dwattr $C$DW$186, DW_AT_TI_call
    2455            
MSP430 Assembler PC v21.6.1 Tue Dec 20 14:07:36 2022

Copyright (c) 2003-2018 Texas Instruments Incorporated
start.asm                                                            PAGE   51

    2456 00026a 13B0!         CALLA     #__mspabi_cvtdf       ; [] |1238| 
         00026c 0000 
    2457                                                      ; [] |1238| 
    2458 00026e 4C82          MOV.W     r12,&FC_Burner_Methanol_flow+0 ; [] |1238| 
         000270 0000!
    2459 000272 4D82          MOV.W     r13,&FC_Burner_Methanol_flow+2 ; [] |1238| 
         000274 0002!
    2460 000276 3C6C          JMP       $C$L38                ; [] 
    2461                                                      ; [] 
    2462            ;* --------------------------------------------------------------------------*
    2463 000278       $C$L34:    
    2464                    .dwpsn  file "../src/start.c",line 1236,column 21,is_stmt,isa 0
    2465 000278 421C          MOV.W     &FC_Burner_Methanol_flow+0,r12 ; [] |1236| 
         00027a 0000!
    2466 00027c 421D          MOV.W     &FC_Burner_Methanol_flow+2,r13 ; [] |1236| 
         00027e 0002!
    2467            $C$DW$187       .dwtag  DW_TAG_TI_branch
    2468                    .dwattr $C$DW$187, DW_AT_low_pc(0x00)
    2469                    .dwattr $C$DW$187, DW_AT_name("__mspabi_cvtfd")
    2470                    .dwattr $C$DW$187, DW_AT_TI_call
    2471            
    2472 000280 13B0!         CALLA     #__mspabi_cvtfd       ; [] |1236| 
         000282 0000 
    2473                                                      ; [] |1236| 
    2474 000284 0CC8          MOVA      r12,r8                ; [] |1236| 
    2475 000286 0DC9          MOVA      r13,r9                ; [] |1236| 
    2476 000288 0ECA          MOVA      r14,r10               ; [] |1236| 
    2477 00028a 0FCB          MOVA      r15,r11               ; [] |1236| 
    2478 00028c 403C          MOV.W     #39322,r12            ; [] |1236| 
         00028e 999A 
    2479 000290 403D          MOV.W     #39321,r13            ; [] |1236| 
         000292 9999 
    2480 000294 403E          MOV.W     #39321,r14            ; [] |1236| 
         000296 9999 
    2481 000298 403F          MOV.W     #16297,r15            ; [] |1236| 
         00029a 3FA9 
    2482            $C$DW$188       .dwtag  DW_TAG_TI_branch
    2483                    .dwattr $C$DW$188, DW_AT_low_pc(0x00)
    2484                    .dwattr $C$DW$188, DW_AT_name("__mspabi_subd")
    2485                    .dwattr $C$DW$188, DW_AT_TI_call
    2486            
    2487 00029c 13B0!         CALLA     #__mspabi_subd        ; [] |1236| 
         00029e 0000 
    2488                                                      ; [] |1236| 
    2489            $C$DW$189       .dwtag  DW_TAG_TI_branch
    2490                    .dwattr $C$DW$189, DW_AT_low_pc(0x00)
    2491                    .dwattr $C$DW$189, DW_AT_name("__mspabi_cvtdf")
    2492                    .dwattr $C$DW$189, DW_AT_TI_call
    2493            
    2494 0002a0 13B0!         CALLA     #__mspabi_cvtdf       ; [] |1236| 
         0002a2 0000 
    2495                                                      ; [] |1236| 
    2496 0002a4 4C82          MOV.W     r12,&FC_Burner_Methanol_flow+0 ; [] |1236| 
         0002a6 0000!
    2497 0002a8 4D82          MOV.W     r13,&FC_Burner_Methanol_flow+2 ; [] |1236| 
MSP430 Assembler PC v21.6.1 Tue Dec 20 14:07:36 2022

Copyright (c) 2003-2018 Texas Instruments Incorporated
start.asm                                                            PAGE   52

         0002aa 0002!
    2498 0002ac 3C51          JMP       $C$L38                ; [] 
    2499                                                      ; [] 
    2500            ;* --------------------------------------------------------------------------*
    2501 0002ae       $C$L35:    
    2502                    .dwpsn  file "../src/start.c",line 1226,column 17,is_stmt,isa 0
    2503 0002ae 430C          MOV.W     #0,r12                ; [] |1226| 
    2504 0002b0 403D          MOV.W     #16880,r13            ; [] |1226| 
         0002b2 41F0 
    2505 0002b4 421E          MOV.W     &FC_Burner_Methanol_flow+0,r14 ; [] |1226| 
         0002b6 0000!
    2506 0002b8 421F          MOV.W     &FC_Burner_Methanol_flow+2,r15 ; [] |1226| 
         0002ba 0002!
    2507            $C$DW$190       .dwtag  DW_TAG_TI_branch
    2508                    .dwattr $C$DW$190, DW_AT_low_pc(0x00)
    2509                    .dwattr $C$DW$190, DW_AT_name("__mspabi_cmpf")
    2510                    .dwattr $C$DW$190, DW_AT_TI_call
    2511            
    2512 0002bc 13B0!         CALLA     #__mspabi_cmpf        ; [] |1226| 
         0002be 0000 
    2513                                                      ; [] |1226| 
    2514 0002c0 930C          TST.W     r12                   ; [] |1226| 
    2515 0002c2 382C          JL        $C$L37                ; [] |1226| 
    2516                                                      ; [] |1226| 
    2517            ;* --------------------------------------------------------------------------*
    2518                    .dwpsn  file "../src/start.c",line 1228,column 22,is_stmt,isa 0
    2519 0002c4 421C          MOV.W     &FC_Burner_Methanol_flow+0,r12 ; [] |1228| 
         0002c6 0000!
    2520 0002c8 421D          MOV.W     &FC_Burner_Methanol_flow+2,r13 ; [] |1228| 
         0002ca 0002!
    2521 0002cc 430E          MOV.W     #0,r14                ; [] |1228| 
    2522 0002ce 403F          MOV.W     #16880,r15            ; [] |1228| 
         0002d0 41F0 
    2523            $C$DW$191       .dwtag  DW_TAG_TI_branch
    2524                    .dwattr $C$DW$191, DW_AT_low_pc(0x00)
    2525                    .dwattr $C$DW$191, DW_AT_name("__mspabi_cmpf")
    2526                    .dwattr $C$DW$191, DW_AT_TI_call
    2527            
    2528 0002d2 13B0!         CALLA     #__mspabi_cmpf        ; [] |1228| 
         0002d4 0000 
    2529                                                      ; [] |1228| 
    2530 0002d6 930C          TST.W     r12                   ; [] |1228| 
    2531 0002d8 3806          JL        $C$L36                ; [] |1228| 
    2532                                                      ; [] |1228| 
    2533            ;* --------------------------------------------------------------------------*
    2534                    .dwpsn  file "../src/start.c",line 1231,column 21,is_stmt,isa 0
    2535 0002da 4382          MOV.W     #0,&FC_Burner_Methanol_flow+0 ; [] |1231| 
         0002dc 0000!
    2536 0002de 40B2          MOV.W     #16880,&FC_Burner_Methanol_flow+2 ; [] |1231| 
         0002e0 41F0 
         0002e2 0002!
    2537 0002e4 3C35          JMP       $C$L38                ; [] |1231| 
    2538                                                      ; [] |1231| 
    2539            ;* --------------------------------------------------------------------------*
    2540 0002e6       $C$L36:    
MSP430 Assembler PC v21.6.1 Tue Dec 20 14:07:36 2022

Copyright (c) 2003-2018 Texas Instruments Incorporated
start.asm                                                            PAGE   53

    2541                    .dwpsn  file "../src/start.c",line 1229,column 21,is_stmt,isa 0
    2542 0002e6 421C          MOV.W     &FC_Burner_Methanol_flow+0,r12 ; [] |1229| 
         0002e8 0000!
    2543 0002ea 421D          MOV.W     &FC_Burner_Methanol_flow+2,r13 ; [] |1229| 
         0002ec 0002!
    2544            $C$DW$192       .dwtag  DW_TAG_TI_branch
    2545                    .dwattr $C$DW$192, DW_AT_low_pc(0x00)
    2546                    .dwattr $C$DW$192, DW_AT_name("__mspabi_cvtfd")
    2547                    .dwattr $C$DW$192, DW_AT_TI_call
    2548            
    2549 0002ee 13B0!         CALLA     #__mspabi_cvtfd       ; [] |1229| 
         0002f0 0000 
    2550                                                      ; [] |1229| 
    2551 0002f2 0CC8          MOVA      r12,r8                ; [] |1229| 
    2552 0002f4 0DC9          MOVA      r13,r9                ; [] |1229| 
    2553 0002f6 0ECA          MOVA      r14,r10               ; [] |1229| 
    2554 0002f8 0FCB          MOVA      r15,r11               ; [] |1229| 
    2555 0002fa 403C          MOV.W     #39322,r12            ; [] |1229| 
         0002fc 999A 
    2556 0002fe 403D          MOV.W     #39321,r13            ; [] |1229| 
         000300 9999 
    2557 000302 403E          MOV.W     #39321,r14            ; [] |1229| 
         000304 9999 
    2558 000306 403F          MOV.W     #16297,r15            ; [] |1229| 
         000308 3FA9 
    2559            $C$DW$193       .dwtag  DW_TAG_TI_branch
    2560                    .dwattr $C$DW$193, DW_AT_low_pc(0x00)
    2561                    .dwattr $C$DW$193, DW_AT_name("__mspabi_addd")
    2562                    .dwattr $C$DW$193, DW_AT_TI_call
    2563            
    2564 00030a 13B0!         CALLA     #__mspabi_addd        ; [] |1229| 
         00030c 0000 
    2565                                                      ; [] |1229| 
    2566            $C$DW$194       .dwtag  DW_TAG_TI_branch
    2567                    .dwattr $C$DW$194, DW_AT_low_pc(0x00)
    2568                    .dwattr $C$DW$194, DW_AT_name("__mspabi_cvtdf")
    2569                    .dwattr $C$DW$194, DW_AT_TI_call
    2570            
    2571 00030e 13B0!         CALLA     #__mspabi_cvtdf       ; [] |1229| 
         000310 0000 
    2572                                                      ; [] |1229| 
    2573 000312 4C82          MOV.W     r12,&FC_Burner_Methanol_flow+0 ; [] |1229| 
         000314 0000!
    2574 000316 4D82          MOV.W     r13,&FC_Burner_Methanol_flow+2 ; [] |1229| 
         000318 0002!
    2575 00031a 3C1A          JMP       $C$L38                ; [] 
    2576                                                      ; [] 
    2577            ;* --------------------------------------------------------------------------*
    2578 00031c       $C$L37:    
    2579                    .dwpsn  file "../src/start.c",line 1227,column 21,is_stmt,isa 0
    2580 00031c 421C          MOV.W     &FC_Burner_Methanol_flow+0,r12 ; [] |1227| 
         00031e 0000!
    2581 000320 421D          MOV.W     &FC_Burner_Methanol_flow+2,r13 ; [] |1227| 
         000322 0002!
    2582            $C$DW$195       .dwtag  DW_TAG_TI_branch
MSP430 Assembler PC v21.6.1 Tue Dec 20 14:07:36 2022

Copyright (c) 2003-2018 Texas Instruments Incorporated
start.asm                                                            PAGE   54

    2583                    .dwattr $C$DW$195, DW_AT_low_pc(0x00)
    2584                    .dwattr $C$DW$195, DW_AT_name("__mspabi_cvtfd")
    2585                    .dwattr $C$DW$195, DW_AT_TI_call
    2586            
    2587 000324 13B0!         CALLA     #__mspabi_cvtfd       ; [] |1227| 
         000326 0000 
    2588                                                      ; [] |1227| 
    2589 000328 0CC8          MOVA      r12,r8                ; [] |1227| 
    2590 00032a 0DC9          MOVA      r13,r9                ; [] |1227| 
    2591 00032c 0ECA          MOVA      r14,r10               ; [] |1227| 
    2592 00032e 0FCB          MOVA      r15,r11               ; [] |1227| 
    2593 000330 403C          MOV.W     #39322,r12            ; [] |1227| 
         000332 999A 
    2594 000334 403D          MOV.W     #39321,r13            ; [] |1227| 
         000336 9999 
    2595 000338 403E          MOV.W     #39321,r14            ; [] |1227| 
         00033a 9999 
    2596 00033c 403F          MOV.W     #16297,r15            ; [] |1227| 
         00033e 3FA9 
    2597            $C$DW$196       .dwtag  DW_TAG_TI_branch
    2598                    .dwattr $C$DW$196, DW_AT_low_pc(0x00)
    2599                    .dwattr $C$DW$196, DW_AT_name("__mspabi_subd")
    2600                    .dwattr $C$DW$196, DW_AT_TI_call
    2601            
    2602 000340 13B0!         CALLA     #__mspabi_subd        ; [] |1227| 
         000342 0000 
    2603                                                      ; [] |1227| 
    2604            $C$DW$197       .dwtag  DW_TAG_TI_branch
    2605                    .dwattr $C$DW$197, DW_AT_low_pc(0x00)
    2606                    .dwattr $C$DW$197, DW_AT_name("__mspabi_cvtdf")
    2607                    .dwattr $C$DW$197, DW_AT_TI_call
    2608            
    2609 000344 13B0!         CALLA     #__mspabi_cvtdf       ; [] |1227| 
         000346 0000 
    2610                                                      ; [] |1227| 
    2611 000348 4C82          MOV.W     r12,&FC_Burner_Methanol_flow+0 ; [] |1227| 
         00034a 0000!
    2612 00034c 4D82          MOV.W     r13,&FC_Burner_Methanol_flow+2 ; [] |1227| 
         00034e 0002!
    2613            ;* --------------------------------------------------------------------------*
    2614 000350       $C$L38:    
    2615                    .dwpsn  file "../src/start.c",line 1242,column 13,is_stmt,isa 0
    2616 000350 421C          MOV.W     &FC_Burner_air+0,r12  ; [] |1242| 
         000352 0000!
    2617 000354 421D          MOV.W     &FC_Burner_air+2,r13  ; [] |1242| 
         000356 0002!
    2618            $C$DW$198       .dwtag  DW_TAG_TI_branch
    2619                    .dwattr $C$DW$198, DW_AT_low_pc(0x00)
    2620                    .dwattr $C$DW$198, DW_AT_name("__mspabi_cvtfd")
    2621                    .dwattr $C$DW$198, DW_AT_TI_call
    2622            
    2623 000358 13B0!         CALLA     #__mspabi_cvtfd       ; [] |1242| 
         00035a 0000 
    2624                                                      ; [] |1242| 
    2625 00035c 0CC4          MOVA      r12,r4                ; [] |1242| 
MSP430 Assembler PC v21.6.1 Tue Dec 20 14:07:36 2022

Copyright (c) 2003-2018 Texas Instruments Incorporated
start.asm                                                            PAGE   55

    2626 00035e 0DC5          MOVA      r13,r5                ; [] |1242| 
    2627 000360 0EC6          MOVA      r14,r6                ; [] |1242| 
    2628 000362 0FC7          MOVA      r15,r7                ; [] |1242| 
    2629 000364 421C          MOV.W     &FC_Burner_Methanol_flow+0,r12 ; [] |1242| 
         000366 0000!
    2630 000368 421D          MOV.W     &FC_Burner_Methanol_flow+2,r13 ; [] |1242| 
         00036a 0002!
    2631            $C$DW$199       .dwtag  DW_TAG_TI_branch
    2632                    .dwattr $C$DW$199, DW_AT_low_pc(0x00)
    2633                    .dwattr $C$DW$199, DW_AT_name("__mspabi_cvtfd")
    2634                    .dwattr $C$DW$199, DW_AT_TI_call
    2635            
    2636 00036c 13B0!         CALLA     #__mspabi_cvtfd       ; [] |1242| 
         00036e 0000 
    2637                                                      ; [] |1242| 
    2638 000370 0CC8          MOVA      r12,r8                ; [] |1242| 
    2639 000372 0DC9          MOVA      r13,r9                ; [] |1242| 
    2640 000374 0ECA          MOVA      r14,r10               ; [] |1242| 
    2641 000376 0FCB          MOVA      r15,r11               ; [] |1242| 
    2642 000378 403C          MOV.W     #65117,r12            ; [] |1242| 
         00037a FE5D 
    2643 00037c 403D          MOV.W     #64067,r13            ; [] |1242| 
         00037e FA43 
    2644 000380 403E          MOV.W     #60397,r14            ; [] |1242| 
         000382 EBED 
    2645 000384 403F          MOV.W     #16304,r15            ; [] |1242| 
         000386 3FB0 
    2646            $C$DW$200       .dwtag  DW_TAG_TI_branch
    2647                    .dwattr $C$DW$200, DW_AT_low_pc(0x00)
    2648                    .dwattr $C$DW$200, DW_AT_name("__mspabi_mpyd")
    2649                    .dwattr $C$DW$200, DW_AT_TI_call
    2650            
    2651 000388 13B0!         CALLA     #__mspabi_mpyd        ; [] |1242| 
         00038a 0000 
    2652                                                      ; [] |1242| 
    2653 00038c 0CC8          MOVA      r12,r8                ; [] |1242| 
    2654 00038e 0DC9          MOVA      r13,r9                ; [] |1242| 
    2655 000390 0ECA          MOVA      r14,r10               ; [] |1242| 
    2656 000392 0FCB          MOVA      r15,r11               ; [] |1242| 
    2657 000394 403C          MOV.W     #13107,r12            ; [] |1242| 
         000396 3333 
    2658 000398 403D          MOV.W     #13107,r13            ; [] |1242| 
         00039a 3333 
    2659 00039c 403E          MOV.W     #13107,r14            ; [] |1242| 
         00039e 3333 
    2660 0003a0 403F          MOV.W     #16371,r15            ; [] |1242| 
         0003a2 3FF3 
    2661            $C$DW$201       .dwtag  DW_TAG_TI_branch
    2662                    .dwattr $C$DW$201, DW_AT_low_pc(0x00)
    2663                    .dwattr $C$DW$201, DW_AT_name("__mspabi_mpyd")
    2664                    .dwattr $C$DW$201, DW_AT_TI_call
    2665            
    2666 0003a4 13B0!         CALLA     #__mspabi_mpyd        ; [] |1242| 
         0003a6 0000 
    2667                                                      ; [] |1242| 
MSP430 Assembler PC v21.6.1 Tue Dec 20 14:07:36 2022

Copyright (c) 2003-2018 Texas Instruments Incorporated
start.asm                                                            PAGE   56

    2668 0003a8 04C8          MOVA      r4,r8                 ; [] |1242| 
    2669 0003aa 05C9          MOVA      r5,r9                 ; [] |1242| 
    2670 0003ac 06CA          MOVA      r6,r10                ; [] |1242| 
    2671 0003ae 07CB          MOVA      r7,r11                ; [] |1242| 
    2672            $C$DW$202       .dwtag  DW_TAG_TI_branch
    2673                    .dwattr $C$DW$202, DW_AT_low_pc(0x00)
    2674                    .dwattr $C$DW$202, DW_AT_name("__mspabi_cmpd")
    2675                    .dwattr $C$DW$202, DW_AT_TI_call
    2676            
    2677 0003b0 13B0!         CALLA     #__mspabi_cmpd        ; [] |1242| 
         0003b2 0000 
    2678                                                      ; [] |1242| 
    2679 0003b4 930C          TST.W     r12                   ; [] |1242| 
    2680 0003b6 381B          JL        $C$L39                ; [] |1242| 
    2681                                                      ; [] |1242| 
    2682            ;* --------------------------------------------------------------------------*
    2683                    .dwpsn  file "../src/start.c",line 1245,column 17,is_stmt,isa 0
    2684 0003b8 421C          MOV.W     &FC_Burner_air+0,r12  ; [] |1245| 
         0003ba 0000!
    2685 0003bc 421D          MOV.W     &FC_Burner_air+2,r13  ; [] |1245| 
         0003be 0002!
    2686            $C$DW$203       .dwtag  DW_TAG_TI_branch
    2687                    .dwattr $C$DW$203, DW_AT_low_pc(0x00)
    2688                    .dwattr $C$DW$203, DW_AT_name("__mspabi_cvtfd")
    2689                    .dwattr $C$DW$203, DW_AT_TI_call
    2690            
    2691 0003c0 13B0!         CALLA     #__mspabi_cvtfd       ; [] |1245| 
         0003c2 0000 
    2692                                                      ; [] |1245| 
    2693 0003c4 0CC8          MOVA      r12,r8                ; [] |1245| 
    2694 0003c6 0DC9          MOVA      r13,r9                ; [] |1245| 
    2695 0003c8 0ECA          MOVA      r14,r10               ; [] |1245| 
    2696 0003ca 0FCB          MOVA      r15,r11               ; [] |1245| 
    2697 0003cc 403C          MOV.W     #5243,r12             ; [] |1245| 
         0003ce 147B 
    2698 0003d0 403D          MOV.W     #18350,r13            ; [] |1245| 
         0003d2 47AE 
    2699 0003d4 403E          MOV.W     #31457,r14            ; [] |1245| 
         0003d6 7AE1 
    2700 0003d8 403F          MOV.W     #16244,r15            ; [] |1245| 
         0003da 3F74 
    2701            $C$DW$204       .dwtag  DW_TAG_TI_branch
    2702                    .dwattr $C$DW$204, DW_AT_low_pc(0x00)
    2703                    .dwattr $C$DW$204, DW_AT_name("__mspabi_subd")
    2704                    .dwattr $C$DW$204, DW_AT_TI_call
    2705            
    2706 0003dc 13B0!         CALLA     #__mspabi_subd        ; [] |1245| 
         0003de 0000 
    2707                                                      ; [] |1245| 
    2708            $C$DW$205       .dwtag  DW_TAG_TI_branch
    2709                    .dwattr $C$DW$205, DW_AT_low_pc(0x00)
    2710                    .dwattr $C$DW$205, DW_AT_name("__mspabi_cvtdf")
    2711                    .dwattr $C$DW$205, DW_AT_TI_call
    2712            
    2713 0003e0 13B0!         CALLA     #__mspabi_cvtdf       ; [] |1245| 
MSP430 Assembler PC v21.6.1 Tue Dec 20 14:07:36 2022

Copyright (c) 2003-2018 Texas Instruments Incorporated
start.asm                                                            PAGE   57

         0003e2 0000 
    2714                                                      ; [] |1245| 
    2715 0003e4 4C82          MOV.W     r12,&FC_Burner_air+0  ; [] |1245| 
         0003e6 0000!
    2716 0003e8 4D82          MOV.W     r13,&FC_Burner_air+2  ; [] |1245| 
         0003ea 0002!
    2717 0003ec 3C1A          JMP       $C$L40                ; [] |1245| 
    2718                                                      ; [] |1245| 
    2719            ;* --------------------------------------------------------------------------*
    2720 0003ee       $C$L39:    
    2721                    .dwpsn  file "../src/start.c",line 1243,column 17,is_stmt,isa 0
    2722 0003ee 421C          MOV.W     &FC_Burner_air+0,r12  ; [] |1243| 
         0003f0 0000!
    2723 0003f2 421D          MOV.W     &FC_Burner_air+2,r13  ; [] |1243| 
         0003f4 0002!
    2724            $C$DW$206       .dwtag  DW_TAG_TI_branch
    2725                    .dwattr $C$DW$206, DW_AT_low_pc(0x00)
    2726                    .dwattr $C$DW$206, DW_AT_name("__mspabi_cvtfd")
    2727                    .dwattr $C$DW$206, DW_AT_TI_call
    2728            
    2729 0003f6 13B0!         CALLA     #__mspabi_cvtfd       ; [] |1243| 
         0003f8 0000 
    2730                                                      ; [] |1243| 
    2731 0003fa 0CC8          MOVA      r12,r8                ; [] |1243| 
    2732 0003fc 0DC9          MOVA      r13,r9                ; [] |1243| 
    2733 0003fe 0ECA          MOVA      r14,r10               ; [] |1243| 
    2734 000400 0FCB          MOVA      r15,r11               ; [] |1243| 
    2735 000402 403C          MOV.W     #5243,r12             ; [] |1243| 
         000404 147B 
    2736 000406 403D          MOV.W     #18350,r13            ; [] |1243| 
         000408 47AE 
    2737 00040a 403E          MOV.W     #31457,r14            ; [] |1243| 
         00040c 7AE1 
    2738 00040e 403F          MOV.W     #16244,r15            ; [] |1243| 
         000410 3F74 
    2739            $C$DW$207       .dwtag  DW_TAG_TI_branch
    2740                    .dwattr $C$DW$207, DW_AT_low_pc(0x00)
    2741                    .dwattr $C$DW$207, DW_AT_name("__mspabi_addd")
    2742                    .dwattr $C$DW$207, DW_AT_TI_call
    2743            
    2744 000412 13B0!         CALLA     #__mspabi_addd        ; [] |1243| 
         000414 0000 
    2745                                                      ; [] |1243| 
    2746            $C$DW$208       .dwtag  DW_TAG_TI_branch
    2747                    .dwattr $C$DW$208, DW_AT_low_pc(0x00)
    2748                    .dwattr $C$DW$208, DW_AT_name("__mspabi_cvtdf")
    2749                    .dwattr $C$DW$208, DW_AT_TI_call
    2750            
    2751 000416 13B0!         CALLA     #__mspabi_cvtdf       ; [] |1243| 
         000418 0000 
    2752                                                      ; [] |1243| 
    2753 00041a 4C82          MOV.W     r12,&FC_Burner_air+0  ; [] |1243| 
         00041c 0000!
    2754 00041e 4D82          MOV.W     r13,&FC_Burner_air+2  ; [] |1243| 
         000420 0002!
MSP430 Assembler PC v21.6.1 Tue Dec 20 14:07:36 2022

Copyright (c) 2003-2018 Texas Instruments Incorporated
start.asm                                                            PAGE   58

    2755            ;* --------------------------------------------------------------------------*
    2756 000422       $C$L40:    
    2757                    .dwpsn  file "../src/start.c",line 1255,column 9,is_stmt,isa 0
    2758 000422 93C2          TST.B     &FC_Burner_Ignite_Failure+0 ; [] |1255| 
         000424 0000!
    2759 000426 203B          JNE       $C$L43                ; [] |1255| 
    2760                                                      ; [] |1255| 
    2761            ;* --------------------------------------------------------------------------*
    2762                    .dwpsn  file "../src/start.c",line 1257,column 13,is_stmt,isa 0
    2763 000428 421C          MOV.W     &FC_burner_temp+0,r12 ; [] |1257| 
         00042a 0000!
    2764 00042c 421D          MOV.W     &FC_burner_temp+2,r13 ; [] |1257| 
         00042e 0002!
    2765            $C$DW$209       .dwtag  DW_TAG_TI_branch
    2766                    .dwattr $C$DW$209, DW_AT_low_pc(0x00)
    2767                    .dwattr $C$DW$209, DW_AT_name("__mspabi_cvtfd")
    2768                    .dwattr $C$DW$209, DW_AT_TI_call
    2769            
    2770 000430 13B0!         CALLA     #__mspabi_cvtfd       ; [] |1257| 
         000432 0000 
    2771                                                      ; [] |1257| 
    2772 000434 0CC4          MOVA      r12,r4                ; [] |1257| 
    2773 000436 0DC5          MOVA      r13,r5                ; [] |1257| 
    2774 000438 0EC6          MOVA      r14,r6                ; [] |1257| 
    2775 00043a 0FC7          MOVA      r15,r7                ; [] |1257| 
    2776 00043c 421C          MOV.W     &FC_Burner_Ignite_temp+0,r12 ; [] |1257| 
         00043e 0000!
    2777 000440 421D          MOV.W     &FC_Burner_Ignite_temp+2,r13 ; [] |1257| 
         000442 0002!
    2778            $C$DW$210       .dwtag  DW_TAG_TI_branch
    2779                    .dwattr $C$DW$210, DW_AT_low_pc(0x00)
    2780                    .dwattr $C$DW$210, DW_AT_name("__mspabi_cvtfd")
    2781                    .dwattr $C$DW$210, DW_AT_TI_call
    2782            
    2783 000444 13B0!         CALLA     #__mspabi_cvtfd       ; [] |1257| 
         000446 0000 
    2784                                                      ; [] |1257| 
    2785 000448 0CC8          MOVA      r12,r8                ; [] |1257| 
    2786 00044a 0DC9          MOVA      r13,r9                ; [] |1257| 
    2787 00044c 0ECA          MOVA      r14,r10               ; [] |1257| 
    2788 00044e 0FCB          MOVA      r15,r11               ; [] |1257| 
    2789 000450 430C          MOV.W     #0,r12                ; [] |1257| 
    2790 000452 430D          MOV.W     #0,r13                ; [] |1257| 
    2791 000454 430E          MOV.W     #0,r14                ; [] |1257| 
    2792 000456 403F          MOV.W     #16404,r15            ; [] |1257| 
         000458 4014 
    2793            $C$DW$211       .dwtag  DW_TAG_TI_branch
    2794                    .dwattr $C$DW$211, DW_AT_low_pc(0x00)
    2795                    .dwattr $C$DW$211, DW_AT_name("__mspabi_addd")
    2796                    .dwattr $C$DW$211, DW_AT_TI_call
    2797            
    2798 00045a 13B0!         CALLA     #__mspabi_addd        ; [] |1257| 
         00045c 0000 
    2799                                                      ; [] |1257| 
    2800 00045e 04C8          MOVA      r4,r8                 ; [] |1257| 
MSP430 Assembler PC v21.6.1 Tue Dec 20 14:07:36 2022

Copyright (c) 2003-2018 Texas Instruments Incorporated
start.asm                                                            PAGE   59

    2801 000460 05C9          MOVA      r5,r9                 ; [] |1257| 
    2802 000462 06CA          MOVA      r6,r10                ; [] |1257| 
    2803 000464 07CB          MOVA      r7,r11                ; [] |1257| 
    2804            $C$DW$212       .dwtag  DW_TAG_TI_branch
    2805                    .dwattr $C$DW$212, DW_AT_low_pc(0x00)
    2806                    .dwattr $C$DW$212, DW_AT_name("__mspabi_cmpd")
    2807                    .dwattr $C$DW$212, DW_AT_TI_call
    2808            
    2809 000466 13B0!         CALLA     #__mspabi_cmpd        ; [] |1257| 
         000468 0000 
    2810                                                      ; [] |1257| 
    2811 00046a 930C          TST.W     r12                   ; [] |1257| 
    2812 00046c 340D          JGE       $C$L41                ; [] |1257| 
    2813                                                      ; [] |1257| 
    2814            ;* --------------------------------------------------------------------------*
    2815 00046e 421C          MOV.W     &FC_burner_temp+0,r12 ; [] |1257| 
         000470 0000!
    2816 000472 421D          MOV.W     &FC_burner_temp+2,r13 ; [] |1257| 
         000474 0002!
    2817 000476 430E          MOV.W     #0,r14                ; [] |1257| 
    2818 000478 403F          MOV.W     #17056,r15            ; [] |1257| 
         00047a 42A0 
    2819            $C$DW$213       .dwtag  DW_TAG_TI_branch
    2820                    .dwattr $C$DW$213, DW_AT_low_pc(0x00)
    2821                    .dwattr $C$DW$213, DW_AT_name("__mspabi_cmpf")
    2822                    .dwattr $C$DW$213, DW_AT_TI_call
    2823            
    2824 00047c 13B0!         CALLA     #__mspabi_cmpf        ; [] |1257| 
         00047e 0000 
    2825                                                      ; [] |1257| 
    2826 000480 930C          TST.W     r12                   ; [] |1257| 
    2827 000482 3402          JGE       $C$L41                ; [] |1257| 
    2828                                                      ; [] |1257| 
    2829            ;* --------------------------------------------------------------------------*
    2830                    .dwpsn  file "../src/start.c",line 1259,column 17,is_stmt,isa 0
    2831 000484 5392          ADD.W     #1,&FC_Burner_Ignite_Failure_timer+0 ; [] |1259| 
         000486 0000!
    2832            ;* --------------------------------------------------------------------------*
    2833 000488       $C$L41:    
    2834                    .dwpsn  file "../src/start.c",line 1261,column 13,is_stmt,isa 0
    2835 000488 90B2          CMP.W     #9001,&FC_Burner_Ignite_Failure_timer+0 ; [] |1261| 
         00048a 2329 
         00048c 0000!
    2836 00048e 3805          JL        $C$L42                ; [] |1261| 
    2837                                                      ; [] |1261| 
    2838            ;* --------------------------------------------------------------------------*
    2839                    .dwpsn  file "../src/start.c",line 1263,column 17,is_stmt,isa 0
    2840 000490 43D2          MOV.B     #1,&FC_Burner_Ignite_Failure+0 ; [] |1263| 
         000492 0000!
    2841                    .dwpsn  file "../src/start.c",line 1264,column 17,is_stmt,isa 0
    2842 000494 40B2          MOV.W     #3000,&Pump_Off_Counter+0 ; [] |1264| 
         000496 0BB8 
         000498 0000!
    2843            ;* --------------------------------------------------------------------------*
    2844 00049a       $C$L42:    
MSP430 Assembler PC v21.6.1 Tue Dec 20 14:07:36 2022

Copyright (c) 2003-2018 Texas Instruments Incorporated
start.asm                                                            PAGE   60

    2845                    .dwpsn  file "../src/start.c",line 1267,column 13,is_stmt,isa 0
    2846 00049a 4382          MOV.W     #0,&FC_Burner_Ignite_Failure_timer+0 ; [] |1267| 
         00049c 0000!
    2847            ;* --------------------------------------------------------------------------*
    2848 00049e       $C$L43:    
    2849                    .dwpsn  file "../src/start.c",line 1271,column 1,is_stmt,isa 0
    2850 00049e 1664          POPM.A    #7,r10                ; [] 
    2851                    .dwcfi  restore_reg, 4
    2852                    .dwcfi  restore_reg, 5
    2853                    .dwcfi  restore_reg, 6
    2854                    .dwcfi  restore_reg, 7
    2855                    .dwcfi  restore_reg, 8
    2856                    .dwcfi  restore_reg, 9
    2857                    .dwcfi  restore_reg, 10
    2858                    .dwcfi  cfa_offset, 4
    2859            $C$DW$214       .dwtag  DW_TAG_TI_branch
    2860                    .dwattr $C$DW$214, DW_AT_low_pc(0x00)
    2861                    .dwattr $C$DW$214, DW_AT_TI_return
    2862            
    2863 0004a0 0110          RETA      ; [] 
    2864                    ; [] 
    2865                    .dwattr $C$DW$162, DW_AT_TI_end_file("../src/start.c")
    2866                    .dwattr $C$DW$162, DW_AT_TI_end_line(0x4f7)
    2867                    .dwattr $C$DW$162, DW_AT_TI_end_column(0x01)
    2868                    .dwendentry
    2869                    .dwendtag $C$DW$162
    2870            
    2871 000000               .sect   ".text:initialCompState"
    2872                    .clink
    2873                    .global initialCompState
    2874            
    2875            $C$DW$215       .dwtag  DW_TAG_subprogram
    2876                    .dwattr $C$DW$215, DW_AT_name("initialCompState")
    2877                    .dwattr $C$DW$215, DW_AT_low_pc(initialCompState)
    2878                    .dwattr $C$DW$215, DW_AT_high_pc(0x00)
    2879                    .dwattr $C$DW$215, DW_AT_TI_symbol_name("initialCompState")
    2880                    .dwattr $C$DW$215, DW_AT_external
    2881                    .dwattr $C$DW$215, DW_AT_TI_begin_file("../src/start.c")
    2882                    .dwattr $C$DW$215, DW_AT_TI_begin_line(0x43a)
    2883                    .dwattr $C$DW$215, DW_AT_TI_begin_column(0x06)
    2884                    .dwattr $C$DW$215, DW_AT_decl_file("../src/start.c")
    2885                    .dwattr $C$DW$215, DW_AT_decl_line(0x43a)
    2886                    .dwattr $C$DW$215, DW_AT_decl_column(0x06)
    2887                    .dwattr $C$DW$215, DW_AT_TI_max_frame_size(0x04)
    2888                    .dwpsn  file "../src/start.c",line 1083,column 1,is_stmt,address initialCompState,isa 0
    2889            
    2890                    .dwfde $C$DW$CIE, initialCompState
    2891            
    2892            ;*****************************************************************************
    2893            ;* FUNCTION NAME: initialCompState                                           *
    2894            ;*                                                                           *
    2895            ;*   Regs Modified     : SP                                                  *
    2896            ;*   Regs Used         : SP                                                  *
    2897            ;*   Local Frame Size  : 0 Args + 0 Auto + 0 Save = 0 byte                   *
    2898            ;*****************************************************************************
MSP430 Assembler PC v21.6.1 Tue Dec 20 14:07:36 2022

Copyright (c) 2003-2018 Texas Instruments Incorporated
start.asm                                                            PAGE   61

    2899 000000       initialCompState:
    2900            ;* --------------------------------------------------------------------------*
    2901                    .dwcfi  cfa_offset, 4
    2902                    .dwcfi  save_reg_to_mem, 16, -4
    2903                    .dwpsn  file "../src/start.c",line 1084,column 5,is_stmt,isa 0
    2904 000000 4382          MOV.W     #0,&TB0CCR2+0         ; [] |1084| 
         000002 0000!
    2905                    .dwpsn  file "../src/start.c",line 1085,column 5,is_stmt,isa 0
    2906 000004 4382          MOV.W     #0,&TB0CCR4+0         ; [] |1085| 
         000006 0000!
    2907                    .dwpsn  file "../src/start.c",line 1086,column 5,is_stmt,isa 0
    2908 000008 4382          MOV.W     #0,&TB0CCR3+0         ; [] |1086| 
         00000a 0000!
    2909                    .dwpsn  file "../src/start.c",line 1087,column 5,is_stmt,isa 0
    2910 00000c 4382          MOV.W     #0,&TA0CCR4+0         ; [] |1087| 
         00000e 0000!
    2911                    .dwpsn  file "../src/start.c",line 1088,column 5,is_stmt,isa 0
    2912 000010 4382          MOV.W     #0,&TB0CCR1+0         ; [] |1088| 
         000012 0000!
    2913                    .dwpsn  file "../src/start.c",line 1089,column 5,is_stmt,isa 0
    2914 000014 4382          MOV.W     #0,&TA0CCR3+0         ; [] |1089| 
         000016 0000!
    2915                    .dwpsn  file "../src/start.c",line 1091,column 5,is_stmt,isa 0
    2916 000018 4382          MOV.W     #0,&main_fuel_flow+0  ; [] |1091| 
         00001a 0000!
    2917 00001c 4382          MOV.W     #0,&main_fuel_flow+2  ; [] |1091| 
         00001e 0002!
    2918                    .dwpsn  file "../src/start.c",line 1092,column 5,is_stmt,isa 0
    2919 000020 4382          MOV.W     #0,&Pump_Startup+0    ; [] |1092| 
         000022 0000!
    2920                    .dwpsn  file "../src/start.c",line 1093,column 5,is_stmt,isa 0
    2921 000024 4382          MOV.W     #0,&Pump_Off_Counter+0 ; [] |1093| 
         000026 0000!
    2922                    .dwpsn  file "../src/start.c",line 1094,column 5,is_stmt,isa 0
    2923 000028 4382          MOV.W     #0,&FC_Burner_Ignite_Failure_timer+0 ; [] |1094| 
         00002a 0000!
    2924                    .dwpsn  file "../src/start.c",line 1095,column 5,is_stmt,isa 0
    2925 00002c 4382          MOV.W     #0,&FC_Burner_Ignite_temp+0 ; [] |1095| 
         00002e 0000!
    2926 000030 4382          MOV.W     #0,&FC_Burner_Ignite_temp+2 ; [] |1095| 
         000032 0002!
    2927                    .dwpsn  file "../src/start.c",line 1096,column 5,is_stmt,isa 0
    2928 000034 43C2          MOV.B     #0,&FC_Burner_Ignite_Failure+0 ; [] |1096| 
         000036 0000!
    2929                    .dwpsn  file "../src/start.c",line 1097,column 5,is_stmt,isa 0
    2930 000038 4382          MOV.W     #0,&FP_Burner_Ignite_Failure_timer+0 ; [] |1097| 
         00003a 0000!
    2931                    .dwpsn  file "../src/start.c",line 1098,column 5,is_stmt,isa 0
    2932 00003c 4382          MOV.W     #0,&FP_Burner_Ignite_temp+0 ; [] |1098| 
         00003e 0000!
    2933 000040 4382          MOV.W     #0,&FP_Burner_Ignite_temp+2 ; [] |1098| 
         000042 0002!
    2934                    .dwpsn  file "../src/start.c",line 1099,column 5,is_stmt,isa 0
    2935 000044 43C2          MOV.B     #0,&FP_Burner_Ignite_Failure+0 ; [] |1099| 
         000046 0000!
MSP430 Assembler PC v21.6.1 Tue Dec 20 14:07:36 2022

Copyright (c) 2003-2018 Texas Instruments Incorporated
start.asm                                                            PAGE   62

    2936                    .dwpsn  file "../src/start.c",line 1101,column 5,is_stmt,isa 0
    2937 000048 43C2          MOV.B     #0,&FC_At_Temp+0      ; [] |1101| 
         00004a 0000!
    2938                    .dwpsn  file "../src/start.c",line 1102,column 1,is_stmt,isa 0
    2939            $C$DW$216       .dwtag  DW_TAG_TI_branch
    2940                    .dwattr $C$DW$216, DW_AT_low_pc(0x00)
    2941                    .dwattr $C$DW$216, DW_AT_TI_return
    2942            
    2943 00004c 0110          RETA      ; [] 
    2944                    ; [] 
    2945                    .dwattr $C$DW$215, DW_AT_TI_end_file("../src/start.c")
    2946                    .dwattr $C$DW$215, DW_AT_TI_end_line(0x44e)
    2947                    .dwattr $C$DW$215, DW_AT_TI_end_column(0x01)
    2948                    .dwendentry
    2949                    .dwendtag $C$DW$215
    2950            
    2951 000000               .sect   ".text:setStartTime"
    2952                    .clink
    2953                    .global setStartTime
    2954            
    2955            $C$DW$217       .dwtag  DW_TAG_subprogram
    2956                    .dwattr $C$DW$217, DW_AT_name("setStartTime")
    2957                    .dwattr $C$DW$217, DW_AT_low_pc(setStartTime)
    2958                    .dwattr $C$DW$217, DW_AT_high_pc(0x00)
    2959                    .dwattr $C$DW$217, DW_AT_TI_symbol_name("setStartTime")
    2960                    .dwattr $C$DW$217, DW_AT_external
    2961                    .dwattr $C$DW$217, DW_AT_TI_begin_file("../src/start.c")
    2962                    .dwattr $C$DW$217, DW_AT_TI_begin_line(0x595)
    2963                    .dwattr $C$DW$217, DW_AT_TI_begin_column(0x06)
    2964                    .dwattr $C$DW$217, DW_AT_decl_file("../src/start.c")
    2965                    .dwattr $C$DW$217, DW_AT_decl_line(0x595)
    2966                    .dwattr $C$DW$217, DW_AT_decl_column(0x06)
    2967                    .dwattr $C$DW$217, DW_AT_TI_max_frame_size(0x04)
    2968                    .dwpsn  file "../src/start.c",line 1430,column 1,is_stmt,address setStartTime,isa 0
    2969            
    2970                    .dwfde $C$DW$CIE, setStartTime
    2971            
    2972            ;*****************************************************************************
    2973            ;* FUNCTION NAME: setStartTime                                               *
    2974            ;*                                                                           *
    2975            ;*   Regs Modified     : SP                                                  *
    2976            ;*   Regs Used         : SP                                                  *
    2977            ;*   Local Frame Size  : 0 Args + 0 Auto + 0 Save = 0 byte                   *
    2978            ;*****************************************************************************
    2979 000000       setStartTime:
    2980            ;* --------------------------------------------------------------------------*
    2981                    .dwcfi  cfa_offset, 4
    2982                    .dwcfi  save_reg_to_mem, 16, -4
    2983                    .dwpsn  file "../src/start.c",line 1432,column 1,is_stmt,isa 0
    2984            $C$DW$218       .dwtag  DW_TAG_TI_branch
    2985                    .dwattr $C$DW$218, DW_AT_low_pc(0x00)
    2986                    .dwattr $C$DW$218, DW_AT_TI_return
    2987            
    2988 000000 0110          RETA      ; [] 
    2989                    ; [] 
MSP430 Assembler PC v21.6.1 Tue Dec 20 14:07:36 2022

Copyright (c) 2003-2018 Texas Instruments Incorporated
start.asm                                                            PAGE   63

    2990                    .dwattr $C$DW$217, DW_AT_TI_end_file("../src/start.c")
    2991                    .dwattr $C$DW$217, DW_AT_TI_end_line(0x598)
    2992                    .dwattr $C$DW$217, DW_AT_TI_end_column(0x01)
    2993                    .dwendentry
    2994                    .dwendtag $C$DW$217
    2995            
    2996 000000               .sect   ".text:setCompStartState"
    2997                    .clink
    2998                    .global setCompStartState
    2999            
    3000            $C$DW$219       .dwtag  DW_TAG_subprogram
    3001                    .dwattr $C$DW$219, DW_AT_name("setCompStartState")
    3002                    .dwattr $C$DW$219, DW_AT_low_pc(setCompStartState)
    3003                    .dwattr $C$DW$219, DW_AT_high_pc(0x00)
    3004                    .dwattr $C$DW$219, DW_AT_TI_symbol_name("setCompStartState")
    3005                    .dwattr $C$DW$219, DW_AT_external
    3006                    .dwattr $C$DW$219, DW_AT_TI_begin_file("../src/start.c")
    3007                    .dwattr $C$DW$219, DW_AT_TI_begin_line(0x468)
    3008                    .dwattr $C$DW$219, DW_AT_TI_begin_column(0x06)
    3009                    .dwattr $C$DW$219, DW_AT_decl_file("../src/start.c")
    3010                    .dwattr $C$DW$219, DW_AT_decl_line(0x468)
    3011                    .dwattr $C$DW$219, DW_AT_decl_column(0x06)
    3012                    .dwattr $C$DW$219, DW_AT_TI_max_frame_size(0x04)
    3013                    .dwpsn  file "../src/start.c",line 1129,column 1,is_stmt,address setCompStartState,isa 0
    3014            
    3015                    .dwfde $C$DW$CIE, setCompStartState
    3016            
    3017            ;*****************************************************************************
    3018            ;* FUNCTION NAME: setCompStartState                                          *
    3019            ;*                                                                           *
    3020            ;*   Regs Modified     : SP,SR,r11,r12,r13,r14,r15                           *
    3021            ;*   Regs Used         : SP,SR,r11,r12,r13,r14,r15                           *
    3022            ;*   Local Frame Size  : 0 Args + 0 Auto + 0 Save = 0 byte                   *
    3023            ;*****************************************************************************
    3024 000000       setCompStartState:
    3025            ;* --------------------------------------------------------------------------*
    3026                    .dwcfi  cfa_offset, 4
    3027                    .dwcfi  save_reg_to_mem, 16, -4
    3028                    .dwpsn  file "../src/start.c",line 1133,column 9,is_stmt,isa 0
    3029 000000 425F          MOV.B     &Start_temp+0,r15     ; [] |1133| 
         000002 0000!
    3030 000004 921F          CMP.W     &Cold_Temp_Threshold+0,r15 ; [] |1133| 
         000006 0000!
    3031 000008 3816          JL        $C$L44                ; [] |1133| 
    3032                                                      ; [] |1133| 
    3033            ;* --------------------------------------------------------------------------*
    3034 00000a 421C          MOV.W     &ambient_temp+0,r12   ; [] |1133| 
         00000c 0000!
    3035 00000e 421D          MOV.W     &ambient_temp+2,r13   ; [] |1133| 
         000010 0002!
    3036 000012 430E          MOV.W     #0,r14                ; [] |1133| 
    3037 000014 403F          MOV.W     #16544,r15            ; [] |1133| 
         000016 40A0 
    3038            $C$DW$220       .dwtag  DW_TAG_TI_branch
    3039                    .dwattr $C$DW$220, DW_AT_low_pc(0x00)
MSP430 Assembler PC v21.6.1 Tue Dec 20 14:07:36 2022

Copyright (c) 2003-2018 Texas Instruments Incorporated
start.asm                                                            PAGE   64

    3040                    .dwattr $C$DW$220, DW_AT_name("__mspabi_cmpf")
    3041                    .dwattr $C$DW$220, DW_AT_TI_call
    3042            
    3043 000018 13B0!         CALLA     #__mspabi_cmpf        ; [] |1133| 
         00001a 0000 
    3044                                                      ; [] |1133| 
    3045 00001c 930C          TST.W     r12                   ; [] |1133| 
    3046 00001e 380B          JL        $C$L44                ; [] |1133| 
    3047                                                      ; [] |1133| 
    3048            ;* --------------------------------------------------------------------------*
    3049 000020 421C          MOV.W     &TC2_temp+0,r12       ; [] |1133| 
         000022 0000!
    3050 000024 421D          MOV.W     &TC2_temp+2,r13       ; [] |1133| 
         000026 0002!
    3051 000028 430E          MOV.W     #0,r14                ; [] |1133| 
    3052 00002a 403F          MOV.W     #16880,r15            ; [] |1133| 
         00002c 41F0 
    3053            $C$DW$221       .dwtag  DW_TAG_TI_branch
    3054                    .dwattr $C$DW$221, DW_AT_low_pc(0x00)
    3055                    .dwattr $C$DW$221, DW_AT_name("__mspabi_cmpf")
    3056                    .dwattr $C$DW$221, DW_AT_TI_call
    3057            
    3058 00002e 13B0!         CALLA     #__mspabi_cmpf        ; [] |1133| 
         000030 0000 
    3059                                                      ; [] |1133| 
    3060 000032 930C          TST.W     r12                   ; [] |1133| 
    3061 000034 3403          JGE       $C$L45                ; [] |1133| 
    3062                                                      ; [] |1133| 
    3063            ;* --------------------------------------------------------------------------*
    3064 000036       $C$L44:    
    3065 000036 403F          MOV.W     #48000,r15            ; [] |1133| 
         000038 BB80 
    3066 00003a 3C01          JMP       $C$L46                ; [] |1133| 
    3067                                                      ; [] |1133| 
    3068            ;* --------------------------------------------------------------------------*
    3069 00003c       $C$L45:    
    3070 00003c 430F          MOV.W     #0,r15                ; [] |1133| 
    3071            ;* --------------------------------------------------------------------------*
    3072 00003e       $C$L46:    
    3073 00003e 4F82          MOV.W     r15,&Cold_Heater+0    ; [] |1133| 
         000040 0000!
    3074                    .dwpsn  file "../src/start.c",line 1140,column 5,is_stmt,isa 0
    3075 000042 D0F2          OR.B      #16,&PDOUT_H+0        ; [] |1140| 
         000044 0010 
         000046 0000!
    3076                    .dwpsn  file "../src/start.c",line 1141,column 5,is_stmt,isa 0
    3077 000048 C3D2          BIC.B     #1,&PDOUT_H+0         ; [] |1141| 
         00004a 0000!
    3078 00004c 43C2          MOV.B     #0,&load+0            ; [] |1141| 
         00004e 0000!
    3079                    .dwpsn  file "../src/start.c",line 1143,column 5,is_stmt,isa 0
    3080 000050 F0F2          AND.B     #239,&PCOUT_L+0       ; [] |1143| 
         000052 00EF 
         000054 0000!
    3081                    .dwpsn  file "../src/start.c",line 1145,column 5,is_stmt,isa 0
MSP430 Assembler PC v21.6.1 Tue Dec 20 14:07:36 2022

Copyright (c) 2003-2018 Texas Instruments Incorporated
start.asm                                                            PAGE   65

    3082 000056 4382          MOV.W     #0,&FC_Burner_air+0   ; [] |1145| 
         000058 0000!
    3083 00005a 4382          MOV.W     #0,&FC_Burner_air+2   ; [] |1145| 
         00005c 0002!
    3084                    .dwpsn  file "../src/start.c",line 1147,column 5,is_stmt,isa 0
    3085 00005e 403C          MOV.W     #700,r12              ; [] |1147| 
         000060 02BC 
    3086            $C$DW$222       .dwtag  DW_TAG_TI_branch
    3087                    .dwattr $C$DW$222, DW_AT_low_pc(0x00)
    3088                    .dwattr $C$DW$222, DW_AT_name("Set_FCSFan")
    3089                    .dwattr $C$DW$222, DW_AT_TI_call
    3090            
    3091 000062 13B0!         CALLA     #Set_FCSFan           ; [] |1147| 
         000064 0000 
    3092                                                      ; [] |1147| 
    3093                    .dwpsn  file "../src/start.c",line 1149,column 5,is_stmt,isa 0
    3094 000066 4392          MOV.W     #1,&secondary_PumpDrv+0 ; [] |1149| 
         000068 0000!
    3095                    .dwpsn  file "../src/start.c",line 1150,column 5,is_stmt,isa 0
    3096 00006a 008C!         MOVX.A    #error_message+0,r12  ; [] |1150| 
         00006c 0000 
    3097 00006e 430D          MOV.W     #0,r13                ; [] |1150| 
    3098 000070 403E          MOV.W     #200,r14              ; [] |1150| 
         000072 00C8 
    3099            $C$DW$223       .dwtag  DW_TAG_TI_branch
    3100                    .dwattr $C$DW$223, DW_AT_low_pc(0x00)
    3101                    .dwattr $C$DW$223, DW_AT_name("memset")
    3102                    .dwattr $C$DW$223, DW_AT_TI_call
    3103            
    3104 000074 13B0!         CALLA     #memset               ; [] |1150| 
         000076 0000 
    3105                                                      ; [] |1150| 
    3106                    .dwpsn  file "../src/start.c",line 1151,column 5,is_stmt,isa 0
    3107 000078 40B2          MOV.W     #36000,&fm+0          ; [] |1151| 
         00007a 8CA0 
         00007c 0000!
    3108                    .dwpsn  file "../src/start.c",line 1153,column 5,is_stmt,isa 0
    3109 00007e D2E2          OR.B      #4,&PAOUT_H+0         ; [] |1153| 
         000080 0000!
    3110                    .dwpsn  file "../src/start.c",line 1154,column 5,is_stmt,isa 0
    3111 000082 F0F2          AND.B     #127,&PEOUT_L+0       ; [] |1154| 
         000084 007F 
         000086 0000!
    3112 000088 D0F2          OR.B      #64,&PEOUT_L+0        ; [] |1154| 
         00008a 0040 
         00008c 0000!
    3113                    .dwpsn  file "../src/start.c",line 1156,column 5,is_stmt,isa 0
    3114 00008e 43D2          MOV.B     #1,&burner_fuel+0     ; [] |1156| 
         000090 0000!
    3115                    .dwpsn  file "../src/start.c",line 1157,column 5,is_stmt,isa 0
    3116 000092 43C2          MOV.B     #0,&FP_Heating+0      ; [] |1157| 
         000094 0000!
    3117                    .dwpsn  file "../src/start.c",line 1158,column 5,is_stmt,isa 0
    3118 000096 4382          MOV.W     #0,&FP_Heating_Timer+0 ; [] |1158| 
         000098 0000!
MSP430 Assembler PC v21.6.1 Tue Dec 20 14:07:36 2022

Copyright (c) 2003-2018 Texas Instruments Incorporated
start.asm                                                            PAGE   66

    3119                    .dwpsn  file "../src/start.c",line 1160,column 5,is_stmt,isa 0
    3120 00009a F0F2          AND.B     #191,&PEOUT_L+0       ; [] |1160| 
         00009c 00BF 
         00009e 0000!
    3121 0000a0 F0F2          AND.B     #127,&PEOUT_L+0       ; [] |1160| 
         0000a2 007F 
         0000a4 0000!
    3122                    .dwpsn  file "../src/start.c",line 1162,column 5,is_stmt,isa 0
    3123 0000a6 4382          MOV.W     #0,&maxPIDair+0       ; [] |1162| 
         0000a8 0000!
    3124 0000aa 40B2          MOV.W     #16320,&maxPIDair+2   ; [] |1162| 
         0000ac 3FC0 
         0000ae 0002!
    3125                    .dwpsn  file "../src/start.c",line 1164,column 1,is_stmt,isa 0
    3126            $C$DW$224       .dwtag  DW_TAG_TI_branch
    3127                    .dwattr $C$DW$224, DW_AT_low_pc(0x00)
    3128                    .dwattr $C$DW$224, DW_AT_TI_return
    3129            
    3130 0000b0 0110          RETA      ; [] 
    3131                    ; [] 
    3132                    .dwattr $C$DW$219, DW_AT_TI_end_file("../src/start.c")
    3133                    .dwattr $C$DW$219, DW_AT_TI_end_line(0x48c)
    3134                    .dwattr $C$DW$219, DW_AT_TI_end_column(0x01)
    3135                    .dwendentry
    3136                    .dwendtag $C$DW$219
    3137            
    3138 000000               .sect   ".text:processBOPSettings"
    3139                    .clink
    3140                    .global processBOPSettings
    3141            
    3142            $C$DW$225       .dwtag  DW_TAG_subprogram
    3143                    .dwattr $C$DW$225, DW_AT_name("processBOPSettings")
    3144                    .dwattr $C$DW$225, DW_AT_low_pc(processBOPSettings)
    3145                    .dwattr $C$DW$225, DW_AT_high_pc(0x00)
    3146                    .dwattr $C$DW$225, DW_AT_TI_symbol_name("processBOPSettings")
    3147                    .dwattr $C$DW$225, DW_AT_external
    3148                    .dwattr $C$DW$225, DW_AT_TI_begin_file("../src/start.c")
    3149                    .dwattr $C$DW$225, DW_AT_TI_begin_line(0x558)
    3150                    .dwattr $C$DW$225, DW_AT_TI_begin_column(0x06)
    3151                    .dwattr $C$DW$225, DW_AT_decl_file("../src/start.c")
    3152                    .dwattr $C$DW$225, DW_AT_decl_line(0x558)
    3153                    .dwattr $C$DW$225, DW_AT_decl_column(0x06)
    3154                    .dwattr $C$DW$225, DW_AT_TI_max_frame_size(0x20)
    3155                    .dwpsn  file "../src/start.c",line 1369,column 1,is_stmt,address processBOPSettings,isa 0
    3156            
    3157                    .dwfde $C$DW$CIE, processBOPSettings
    3158            
    3159            ;*****************************************************************************
    3160            ;* FUNCTION NAME: processBOPSettings                                         *
    3161            ;*                                                                           *
    3162            ;*   Regs Modified     : SP,SR,r4,r5,r6,r7,r8,r9,r10,r11,r12,r13,r14,r15     *
    3163            ;*   Regs Used         : SP,SR,r4,r5,r6,r7,r8,r9,r10,r11,r12,r13,r14,r15     *
    3164            ;*   Local Frame Size  : 0 Args + 0 Auto + 28 Save = 28 byte                 *
    3165            ;*****************************************************************************
    3166 000000       processBOPSettings:
MSP430 Assembler PC v21.6.1 Tue Dec 20 14:07:36 2022

Copyright (c) 2003-2018 Texas Instruments Incorporated
start.asm                                                            PAGE   67

    3167            ;* --------------------------------------------------------------------------*
    3168                    .dwcfi  cfa_offset, 4
    3169                    .dwcfi  save_reg_to_mem, 16, -4
    3170 000000 146A          PUSHM.A   #7,r10                ; [] 
    3171                    .dwcfi  save_reg_to_mem, 10, -8
    3172                    .dwcfi  save_reg_to_mem, 9, -12
    3173                    .dwcfi  save_reg_to_mem, 8, -16
    3174                    .dwcfi  save_reg_to_mem, 7, -20
    3175                    .dwcfi  save_reg_to_mem, 6, -24
    3176                    .dwcfi  save_reg_to_mem, 5, -28
    3177                    .dwcfi  save_reg_to_mem, 4, -32
    3178                    .dwcfi  cfa_offset, 32
    3179                    .dwpsn  file "../src/start.c",line 1370,column 5,is_stmt,isa 0
    3180 000002 90B2          CMP.W     #700,&exhaust_fan_speed+0 ; [] |1370| 
         000004 02BC 
         000006 0000!
    3181 000008 3804          JL        $C$L47                ; [] |1370| 
    3182                                                      ; [] |1370| 
    3183            ;* --------------------------------------------------------------------------*
    3184                    .dwpsn  file "../src/start.c",line 1373,column 9,is_stmt,isa 0
    3185 00000a 40B2          MOV.W     #700,&exhaust_fan_speed+0 ; [] |1373| 
         00000c 02BC 
         00000e 0000!
    3186 000010 3C03          JMP       $C$L48                ; [] |1373| 
    3187                                                      ; [] |1373| 
    3188            ;* --------------------------------------------------------------------------*
    3189 000012       $C$L47:    
    3190                    .dwpsn  file "../src/start.c",line 1371,column 9,is_stmt,isa 0
    3191 000012 50B2          ADD.W     #25,&exhaust_fan_speed+0 ; [] |1371| 
         000014 0019 
         000016 0000!
    3192            ;* --------------------------------------------------------------------------*
    3193 000018       $C$L48:    
    3194                    .dwpsn  file "../src/start.c",line 1375,column 5,is_stmt,isa 0
    3195 000018 93E2          CMP.B     #2,&burner_flag+0     ; [] |1375| 
         00001a 0000!
    3196 00001c 2810          JLO       $C$L49                ; [] |1375| 
    3197                                                      ; [] |1375| 
    3198            ;* --------------------------------------------------------------------------*
    3199 00001e 421C          MOV.W     &air+0,r12            ; [] |1375| 
         000020 0000!
    3200 000022 421D          MOV.W     &air+2,r13            ; [] |1375| 
         000024 0002!
    3201 000026 430E          MOV.W     #0,r14                ; [] |1375| 
    3202 000028 403F          MOV.W     #16320,r15            ; [] |1375| 
         00002a 3FC0 
    3203            $C$DW$226       .dwtag  DW_TAG_TI_branch
    3204                    .dwattr $C$DW$226, DW_AT_low_pc(0x00)
    3205                    .dwattr $C$DW$226, DW_AT_name("__mspabi_cmpf")
    3206                    .dwattr $C$DW$226, DW_AT_TI_call
    3207            
    3208 00002c 13B0!         CALLA     #__mspabi_cmpf        ; [] |1375| 
         00002e 0000 
    3209                                                      ; [] |1375| 
    3210 000030 930C          TST.W     r12                   ; [] |1375| 
MSP430 Assembler PC v21.6.1 Tue Dec 20 14:07:36 2022

Copyright (c) 2003-2018 Texas Instruments Incorporated
start.asm                                                            PAGE   68

    3211 000032 3405          JGE       $C$L49                ; [] |1375| 
    3212                                                      ; [] |1375| 
    3213            ;* --------------------------------------------------------------------------*
    3214                    .dwpsn  file "../src/start.c",line 1376,column 9,is_stmt,isa 0
    3215 000034 4382          MOV.W     #0,&air+0             ; [] |1376| 
         000036 0000!
    3216 000038 40B2          MOV.W     #16320,&air+2         ; [] |1376| 
         00003a 3FC0 
         00003c 0002!
    3217            ;* --------------------------------------------------------------------------*
    3218 00003e       $C$L49:    
    3219                    .dwpsn  file "../src/start.c",line 1377,column 5,is_stmt,isa 0
    3220 00003e 93C2          TST.B     &burner_fuel+0        ; [] |1377| 
         000040 0000!
    3221 000042 2041          JNE       $C$L50                ; [] |1377| 
    3222                                                      ; [] |1377| 
    3223            ;* --------------------------------------------------------------------------*
    3224                    .dwpsn  file "../src/start.c",line 1382,column 10,is_stmt,isa 0
    3225 000044 421C          MOV.W     &air+0,r12            ; [] |1382| 
         000046 0000!
    3226 000048 421D          MOV.W     &air+2,r13            ; [] |1382| 
         00004a 0002!
    3227            $C$DW$227       .dwtag  DW_TAG_TI_branch
    3228                    .dwattr $C$DW$227, DW_AT_low_pc(0x00)
    3229                    .dwattr $C$DW$227, DW_AT_name("__mspabi_cvtfd")
    3230                    .dwattr $C$DW$227, DW_AT_TI_call
    3231            
    3232 00004c 13B0!         CALLA     #__mspabi_cvtfd       ; [] |1382| 
         00004e 0000 
    3233                                                      ; [] |1382| 
    3234 000050 0CC4          MOVA      r12,r4                ; [] |1382| 
    3235 000052 0DC5          MOVA      r13,r5                ; [] |1382| 
    3236 000054 0EC6          MOVA      r14,r6                ; [] |1382| 
    3237 000056 0FC7          MOVA      r15,r7                ; [] |1382| 
    3238 000058 421C          MOV.W     &main_fuel_flow+0,r12 ; [] |1382| 
         00005a 0000!
    3239 00005c 421D          MOV.W     &main_fuel_flow+2,r13 ; [] |1382| 
         00005e 0002!
    3240            $C$DW$228       .dwtag  DW_TAG_TI_branch
    3241                    .dwattr $C$DW$228, DW_AT_low_pc(0x00)
    3242                    .dwattr $C$DW$228, DW_AT_name("__mspabi_cvtfd")
    3243                    .dwattr $C$DW$228, DW_AT_TI_call
    3244            
    3245 000060 13B0!         CALLA     #__mspabi_cvtfd       ; [] |1382| 
         000062 0000 
    3246                                                      ; [] |1382| 
    3247 000064 0CC8          MOVA      r12,r8                ; [] |1382| 
    3248 000066 0DC9          MOVA      r13,r9                ; [] |1382| 
    3249 000068 0ECA          MOVA      r14,r10               ; [] |1382| 
    3250 00006a 0FCB          MOVA      r15,r11               ; [] |1382| 
    3251 00006c 403C          MOV.W     #30911,r12            ; [] |1382| 
         00006e 78BF 
    3252 000070 403D          MOV.W     #3334,r13             ; [] |1382| 
         000072 0D06 
    3253 000074 403E          MOV.W     #5117,r14             ; [] |1382| 
MSP430 Assembler PC v21.6.1 Tue Dec 20 14:07:36 2022

Copyright (c) 2003-2018 Texas Instruments Incorporated
start.asm                                                            PAGE   69

         000076 13FD 
    3254 000078 403F          MOV.W     #16300,r15            ; [] |1382| 
         00007a 3FAC 
    3255            $C$DW$229       .dwtag  DW_TAG_TI_branch
    3256                    .dwattr $C$DW$229, DW_AT_low_pc(0x00)
    3257                    .dwattr $C$DW$229, DW_AT_name("__mspabi_mpyd")
    3258                    .dwattr $C$DW$229, DW_AT_TI_call
    3259            
    3260 00007c 13B0!         CALLA     #__mspabi_mpyd        ; [] |1382| 
         00007e 0000 
    3261                                                      ; [] |1382| 
    3262 000080 04C8          MOVA      r4,r8                 ; [] |1382| 
    3263 000082 05C9          MOVA      r5,r9                 ; [] |1382| 
    3264 000084 06CA          MOVA      r6,r10                ; [] |1382| 
    3265 000086 07CB          MOVA      r7,r11                ; [] |1382| 
    3266            $C$DW$230       .dwtag  DW_TAG_TI_branch
    3267                    .dwattr $C$DW$230, DW_AT_low_pc(0x00)
    3268                    .dwattr $C$DW$230, DW_AT_name("__mspabi_cmpd")
    3269                    .dwattr $C$DW$230, DW_AT_TI_call
    3270            
    3271 000088 13B0!         CALLA     #__mspabi_cmpd        ; [] |1382| 
         00008a 0000 
    3272                                                      ; [] |1382| 
    3273 00008c 930C          TST.W     r12                   ; [] |1382| 
    3274 00008e 345B          JGE       $C$L51                ; [] |1382| 
    3275                                                      ; [] |1382| 
    3276            ;* --------------------------------------------------------------------------*
    3277                    .dwpsn  file "../src/start.c",line 1383,column 9,is_stmt,isa 0
    3278 000090 421C          MOV.W     &main_fuel_flow+0,r12 ; [] |1383| 
         000092 0000!
    3279 000094 421D          MOV.W     &main_fuel_flow+2,r13 ; [] |1383| 
         000096 0002!
    3280            $C$DW$231       .dwtag  DW_TAG_TI_branch
    3281                    .dwattr $C$DW$231, DW_AT_low_pc(0x00)
    3282                    .dwattr $C$DW$231, DW_AT_name("__mspabi_cvtfd")
    3283                    .dwattr $C$DW$231, DW_AT_TI_call
    3284            
    3285 000098 13B0!         CALLA     #__mspabi_cvtfd       ; [] |1383| 
         00009a 0000 
    3286                                                      ; [] |1383| 
    3287 00009c 0CC8          MOVA      r12,r8                ; [] |1383| 
    3288 00009e 0DC9          MOVA      r13,r9                ; [] |1383| 
    3289 0000a0 0ECA          MOVA      r14,r10               ; [] |1383| 
    3290 0000a2 0FCB          MOVA      r15,r11               ; [] |1383| 
    3291 0000a4 403C          MOV.W     #30911,r12            ; [] |1383| 
         0000a6 78BF 
    3292 0000a8 403D          MOV.W     #3334,r13             ; [] |1383| 
         0000aa 0D06 
    3293 0000ac 403E          MOV.W     #5117,r14             ; [] |1383| 
         0000ae 13FD 
    3294 0000b0 403F          MOV.W     #16300,r15            ; [] |1383| 
         0000b2 3FAC 
    3295            $C$DW$232       .dwtag  DW_TAG_TI_branch
    3296                    .dwattr $C$DW$232, DW_AT_low_pc(0x00)
    3297                    .dwattr $C$DW$232, DW_AT_name("__mspabi_mpyd")
MSP430 Assembler PC v21.6.1 Tue Dec 20 14:07:36 2022

Copyright (c) 2003-2018 Texas Instruments Incorporated
start.asm                                                            PAGE   70

    3298                    .dwattr $C$DW$232, DW_AT_TI_call
    3299            
    3300 0000b4 13B0!         CALLA     #__mspabi_mpyd        ; [] |1383| 
         0000b6 0000 
    3301                                                      ; [] |1383| 
    3302            $C$DW$233       .dwtag  DW_TAG_TI_branch
    3303                    .dwattr $C$DW$233, DW_AT_low_pc(0x00)
    3304                    .dwattr $C$DW$233, DW_AT_name("__mspabi_cvtdf")
    3305                    .dwattr $C$DW$233, DW_AT_TI_call
    3306            
    3307 0000b8 13B0!         CALLA     #__mspabi_cvtdf       ; [] |1383| 
         0000ba 0000 
    3308                                                      ; [] |1383| 
    3309 0000bc 4C82          MOV.W     r12,&air+0            ; [] |1383| 
         0000be 0000!
    3310 0000c0 4D82          MOV.W     r13,&air+2            ; [] |1383| 
         0000c2 0002!
    3311 0000c4 3C40          JMP       $C$L51                ; [] |1383| 
    3312                                                      ; [] |1383| 
    3313            ;* --------------------------------------------------------------------------*
    3314 0000c6       $C$L50:    
