MSP430 Assembler PC v21.6.1 Tue Dec 20 13:46:02 2022

Copyright (c) 2003-2018 Texas Instruments Incorporated
TC_Fault_Check.asm                                                   PAGE    1

       1            ;******************************************************************************
       2            ;* MSP430 G3 C/C++ Codegen                                              PC v21.6.1.LTS *
       3            ;* Date/Time created: Tue Dec 20 13:46:02 2022                                *
       4            ;******************************************************************************
       5                    .compiler_opts --abi=eabi --diag_wrap=off --hll_source=on --mem_model:code=large --mem_model:d
       6            
       7            $C$DW$CU        .dwtag  DW_TAG_compile_unit
       8                    .dwattr $C$DW$CU, DW_AT_name("../src/TC_Fault_Check.c")
       9                    .dwattr $C$DW$CU, DW_AT_producer("TI MSP430 G3 C/C++ Codegen PC v21.6.1.LTS Copyright (c) 2003
      10                    .dwattr $C$DW$CU, DW_AT_TI_version(0x01)
      11                    .dwattr $C$DW$CU, DW_AT_comp_dir("C:\Users\MCourson\workspace_v11\MZERO_HB50Board\Debug")
      12            $C$DW$1 .dwtag  DW_TAG_variable
      13                    .dwattr $C$DW$1, DW_AT_name("PDIN_H")
      14                    .dwattr $C$DW$1, DW_AT_TI_symbol_name("PDIN_H")
      15                    .dwattr $C$DW$1, DW_AT_type(*$C$DW$T$87)
      16                    .dwattr $C$DW$1, DW_AT_declaration
      17                    .dwattr $C$DW$1, DW_AT_external
      18                    .dwattr $C$DW$1, DW_AT_decl_file("C:\ti\ccs1110\ccs\ccs_base\msp430\include\msp430f5438a.h")
      19                    .dwattr $C$DW$1, DW_AT_decl_line(0x51b)
      20                    .dwattr $C$DW$1, DW_AT_decl_column(0x01)
      21            
      22                    .global mode
      23                    .common mode,2,2
      24            $C$DW$2 .dwtag  DW_TAG_variable
      25                    .dwattr $C$DW$2, DW_AT_name("mode")
      26                    .dwattr $C$DW$2, DW_AT_TI_symbol_name("mode")
      27                    .dwattr $C$DW$2, DW_AT_location[DW_OP_addr mode]
      28                    .dwattr $C$DW$2, DW_AT_type(*$C$DW$T$54)
      29                    .dwattr $C$DW$2, DW_AT_external
      30                    .dwattr $C$DW$2, DW_AT_decl_file("C:/Users/MCourson/workspace_v11/MZERO_HB50Board/include/Main
      31                    .dwattr $C$DW$2, DW_AT_decl_line(0x65)
      32                    .dwattr $C$DW$2, DW_AT_decl_column(0x07)
      33            
      34                    .global FCState
      35                    .common FCState,2,2
      36            $C$DW$3 .dwtag  DW_TAG_variable
      37                    .dwattr $C$DW$3, DW_AT_name("FCState")
      38                    .dwattr $C$DW$3, DW_AT_TI_symbol_name("FCState")
      39                    .dwattr $C$DW$3, DW_AT_location[DW_OP_addr FCState]
      40                    .dwattr $C$DW$3, DW_AT_type(*$C$DW$T$56)
      41                    .dwattr $C$DW$3, DW_AT_external
      42                    .dwattr $C$DW$3, DW_AT_decl_file("C:/Users/MCourson/workspace_v11/MZERO_HB50Board/include/Main
      43                    .dwattr $C$DW$3, DW_AT_decl_line(0x6d)
      44                    .dwattr $C$DW$3, DW_AT_decl_column(0x0a)
      45            
      46                    .global msgstatus
      47                    .common msgstatus,2,2
      48            $C$DW$4 .dwtag  DW_TAG_variable
      49                    .dwattr $C$DW$4, DW_AT_name("msgstatus")
      50                    .dwattr $C$DW$4, DW_AT_TI_symbol_name("msgstatus")
      51                    .dwattr $C$DW$4, DW_AT_location[DW_OP_addr msgstatus]
      52                    .dwattr $C$DW$4, DW_AT_type(*$C$DW$T$58)
      53                    .dwattr $C$DW$4, DW_AT_external
      54                    .dwattr $C$DW$4, DW_AT_decl_file("C:/Users/MCourson/workspace_v11/MZERO_HB50Board/include/Main
      55                    .dwattr $C$DW$4, DW_AT_decl_line(0x7c)
MSP430 Assembler PC v21.6.1 Tue Dec 20 13:46:02 2022

Copyright (c) 2003-2018 Texas Instruments Incorporated
TC_Fault_Check.asm                                                   PAGE    2

      56                    .dwattr $C$DW$4, DW_AT_decl_column(0x0f)
      57            
      58                    .global status
      59                    .common status,2,2
      60            $C$DW$5 .dwtag  DW_TAG_variable
      61                    .dwattr $C$DW$5, DW_AT_name("status")
      62                    .dwattr $C$DW$5, DW_AT_TI_symbol_name("status")
      63                    .dwattr $C$DW$5, DW_AT_location[DW_OP_addr status]
      64                    .dwattr $C$DW$5, DW_AT_type(*$C$DW$T$60)
      65                    .dwattr $C$DW$5, DW_AT_external
      66                    .dwattr $C$DW$5, DW_AT_decl_file("C:/Users/MCourson/workspace_v11/MZERO_HB50Board/include/Main
      67                    .dwattr $C$DW$5, DW_AT_decl_line(0x83)
      68                    .dwattr $C$DW$5, DW_AT_decl_column(0x0e)
      69            
      70            $C$DW$6 .dwtag  DW_TAG_variable
      71                    .dwattr $C$DW$6, DW_AT_name("burner_flag")
      72                    .dwattr $C$DW$6, DW_AT_TI_symbol_name("burner_flag")
      73                    .dwattr $C$DW$6, DW_AT_type(*$C$DW$T$24)
      74                    .dwattr $C$DW$6, DW_AT_declaration
      75                    .dwattr $C$DW$6, DW_AT_external
      76                    .dwattr $C$DW$6, DW_AT_decl_file("../src/TC_Fault_Check.c")
      77                    .dwattr $C$DW$6, DW_AT_decl_line(0x19)
      78                    .dwattr $C$DW$6, DW_AT_decl_column(0x10)
      79            
      80            $C$DW$7 .dwtag  DW_TAG_variable
      81                    .dwattr $C$DW$7, DW_AT_name("Start_temp")
      82                    .dwattr $C$DW$7, DW_AT_TI_symbol_name("Start_temp")
      83                    .dwattr $C$DW$7, DW_AT_type(*$C$DW$T$24)
      84                    .dwattr $C$DW$7, DW_AT_declaration
      85                    .dwattr $C$DW$7, DW_AT_external
      86                    .dwattr $C$DW$7, DW_AT_decl_file("../src/TC_Fault_Check.c")
      87                    .dwattr $C$DW$7, DW_AT_decl_line(0x1b)
      88                    .dwattr $C$DW$7, DW_AT_decl_column(0x10)
      89            
      90            $C$DW$8 .dwtag  DW_TAG_variable
      91                    .dwattr $C$DW$8, DW_AT_name("Pump_Startup")
      92                    .dwattr $C$DW$8, DW_AT_TI_symbol_name("Pump_Startup")
      93                    .dwattr $C$DW$8, DW_AT_type(*$C$DW$T$10)
      94                    .dwattr $C$DW$8, DW_AT_declaration
      95                    .dwattr $C$DW$8, DW_AT_external
      96                    .dwattr $C$DW$8, DW_AT_decl_file("../src/TC_Fault_Check.c")
      97                    .dwattr $C$DW$8, DW_AT_decl_line(0x1d)
      98                    .dwattr $C$DW$8, DW_AT_decl_column(0x0c)
      99            
     100            $C$DW$9 .dwtag  DW_TAG_variable
     101                    .dwattr $C$DW$9, DW_AT_name("TC2_temp")
     102                    .dwattr $C$DW$9, DW_AT_TI_symbol_name("TC2_temp")
     103                    .dwattr $C$DW$9, DW_AT_type(*$C$DW$T$16)
     104                    .dwattr $C$DW$9, DW_AT_declaration
     105                    .dwattr $C$DW$9, DW_AT_external
     106                    .dwattr $C$DW$9, DW_AT_decl_file("../src/TC_Fault_Check.c")
     107                    .dwattr $C$DW$9, DW_AT_decl_line(0x20)
     108                    .dwattr $C$DW$9, DW_AT_decl_column(0x0e)
     109            
     110            $C$DW$10        .dwtag  DW_TAG_variable
MSP430 Assembler PC v21.6.1 Tue Dec 20 13:46:02 2022

Copyright (c) 2003-2018 Texas Instruments Incorporated
TC_Fault_Check.asm                                                   PAGE    3

     111                    .dwattr $C$DW$10, DW_AT_name("TC1_temp")
     112                    .dwattr $C$DW$10, DW_AT_TI_symbol_name("TC1_temp")
     113                    .dwattr $C$DW$10, DW_AT_type(*$C$DW$T$16)
     114                    .dwattr $C$DW$10, DW_AT_declaration
     115                    .dwattr $C$DW$10, DW_AT_external
     116                    .dwattr $C$DW$10, DW_AT_decl_file("../src/TC_Fault_Check.c")
     117                    .dwattr $C$DW$10, DW_AT_decl_line(0x21)
     118                    .dwattr $C$DW$10, DW_AT_decl_column(0x0e)
     119            
     120            $C$DW$11        .dwtag  DW_TAG_variable
     121                    .dwattr $C$DW$11, DW_AT_name("FC_burner_temp")
     122                    .dwattr $C$DW$11, DW_AT_TI_symbol_name("FC_burner_temp")
     123                    .dwattr $C$DW$11, DW_AT_type(*$C$DW$T$16)
     124                    .dwattr $C$DW$11, DW_AT_declaration
     125                    .dwattr $C$DW$11, DW_AT_external
     126                    .dwattr $C$DW$11, DW_AT_decl_file("../src/TC_Fault_Check.c")
     127                    .dwattr $C$DW$11, DW_AT_decl_line(0x22)
     128                    .dwattr $C$DW$11, DW_AT_decl_column(0x0e)
     129            
     130            $C$DW$12        .dwtag  DW_TAG_variable
     131                    .dwattr $C$DW$12, DW_AT_name("ambient_temp")
     132                    .dwattr $C$DW$12, DW_AT_TI_symbol_name("ambient_temp")
     133                    .dwattr $C$DW$12, DW_AT_type(*$C$DW$T$16)
     134                    .dwattr $C$DW$12, DW_AT_declaration
     135                    .dwattr $C$DW$12, DW_AT_external
     136                    .dwattr $C$DW$12, DW_AT_decl_file("../src/TC_Fault_Check.c")
     137                    .dwattr $C$DW$12, DW_AT_decl_line(0x23)
     138                    .dwattr $C$DW$12, DW_AT_decl_column(0x0e)
     139            
     140            $C$DW$13        .dwtag  DW_TAG_variable
     141                    .dwattr $C$DW$13, DW_AT_name("fc_run_temp")
     142                    .dwattr $C$DW$13, DW_AT_TI_symbol_name("fc_run_temp")
     143                    .dwattr $C$DW$13, DW_AT_type(*$C$DW$T$10)
     144                    .dwattr $C$DW$13, DW_AT_declaration
     145                    .dwattr $C$DW$13, DW_AT_external
     146                    .dwattr $C$DW$13, DW_AT_decl_file("../src/TC_Fault_Check.c")
     147                    .dwattr $C$DW$13, DW_AT_decl_line(0x2a)
     148                    .dwattr $C$DW$13, DW_AT_decl_column(0x0c)
     149            
     150            $C$DW$14        .dwtag  DW_TAG_variable
     151                    .dwattr $C$DW$14, DW_AT_name("Tset")
     152                    .dwattr $C$DW$14, DW_AT_TI_symbol_name("Tset")
     153                    .dwattr $C$DW$14, DW_AT_type(*$C$DW$T$10)
     154                    .dwattr $C$DW$14, DW_AT_declaration
     155                    .dwattr $C$DW$14, DW_AT_external
     156                    .dwattr $C$DW$14, DW_AT_decl_file("../src/TC_Fault_Check.c")
     157                    .dwattr $C$DW$14, DW_AT_decl_line(0x2b)
     158                    .dwattr $C$DW$14, DW_AT_decl_column(0x0c)
     159            
     160            $C$DW$15        .dwtag  DW_TAG_variable
     161                    .dwattr $C$DW$15, DW_AT_name("SwapCount")
     162                    .dwattr $C$DW$15, DW_AT_TI_symbol_name("SwapCount")
     163                    .dwattr $C$DW$15, DW_AT_type(*$C$DW$T$24)
     164                    .dwattr $C$DW$15, DW_AT_declaration
     165                    .dwattr $C$DW$15, DW_AT_external
MSP430 Assembler PC v21.6.1 Tue Dec 20 13:46:02 2022

Copyright (c) 2003-2018 Texas Instruments Incorporated
TC_Fault_Check.asm                                                   PAGE    4

     166                    .dwattr $C$DW$15, DW_AT_decl_file("../src/TC_Fault_Check.c")
     167                    .dwattr $C$DW$15, DW_AT_decl_line(0x3a)
     168                    .dwattr $C$DW$15, DW_AT_decl_column(0x10)
     169            
     170            $C$DW$16        .dwtag  DW_TAG_variable
     171                    .dwattr $C$DW$16, DW_AT_name("error_message")
     172                    .dwattr $C$DW$16, DW_AT_TI_symbol_name("error_message")
     173                    .dwattr $C$DW$16, DW_AT_type(*$C$DW$T$97)
     174                    .dwattr $C$DW$16, DW_AT_declaration
     175                    .dwattr $C$DW$16, DW_AT_external
     176                    .dwattr $C$DW$16, DW_AT_decl_file("../src/TC_Fault_Check.c")
     177                    .dwattr $C$DW$16, DW_AT_decl_line(0x40)
     178                    .dwattr $C$DW$16, DW_AT_decl_column(0x0c)
     179            
     180                    .global rewarm
     181                    .common rewarm,2,2
     182            $C$DW$17        .dwtag  DW_TAG_variable
     183                    .dwattr $C$DW$17, DW_AT_name("rewarm")
     184                    .dwattr $C$DW$17, DW_AT_TI_symbol_name("rewarm")
     185                    .dwattr $C$DW$17, DW_AT_location[DW_OP_addr rewarm]
     186                    .dwattr $C$DW$17, DW_AT_type(*$C$DW$T$10)
     187                    .dwattr $C$DW$17, DW_AT_external
     188                    .dwattr $C$DW$17, DW_AT_decl_file("../src/TC_Fault_Check.c")
     189                    .dwattr $C$DW$17, DW_AT_decl_line(0x45)
     190                    .dwattr $C$DW$17, DW_AT_decl_column(0x05)
     191            
     192            $C$DW$18        .dwtag  DW_TAG_variable
     193                    .dwattr $C$DW$18, DW_AT_name("xtime")
     194                    .dwattr $C$DW$18, DW_AT_TI_symbol_name("xtime")
     195                    .dwattr $C$DW$18, DW_AT_type(*$C$DW$T$99)
     196                    .dwattr $C$DW$18, DW_AT_declaration
     197                    .dwattr $C$DW$18, DW_AT_external
     198                    .dwattr $C$DW$18, DW_AT_decl_file("../src/TC_Fault_Check.c")
     199                    .dwattr $C$DW$18, DW_AT_decl_line(0x46)
     200                    .dwattr $C$DW$18, DW_AT_decl_column(0x12)
     201            
     202            $C$DW$19        .dwtag  DW_TAG_variable
     203                    .dwattr $C$DW$19, DW_AT_name("Cold_Temp_Threshold")
     204                    .dwattr $C$DW$19, DW_AT_TI_symbol_name("Cold_Temp_Threshold")
     205                    .dwattr $C$DW$19, DW_AT_type(*$C$DW$T$10)
     206                    .dwattr $C$DW$19, DW_AT_declaration
     207                    .dwattr $C$DW$19, DW_AT_external
     208                    .dwattr $C$DW$19, DW_AT_decl_file("../src/TC_Fault_Check.c")
     209                    .dwattr $C$DW$19, DW_AT_decl_line(0x47)
     210                    .dwattr $C$DW$19, DW_AT_decl_column(0x0c)
     211            
     212            $C$DW$20        .dwtag  DW_TAG_variable
     213                    .dwattr $C$DW$20, DW_AT_name("FP_Heating_Timer")
     214                    .dwattr $C$DW$20, DW_AT_TI_symbol_name("FP_Heating_Timer")
     215                    .dwattr $C$DW$20, DW_AT_type(*$C$DW$T$10)
     216                    .dwattr $C$DW$20, DW_AT_declaration
     217                    .dwattr $C$DW$20, DW_AT_external
     218                    .dwattr $C$DW$20, DW_AT_decl_file("../src/TC_Fault_Check.c")
     219                    .dwattr $C$DW$20, DW_AT_decl_line(0x48)
     220                    .dwattr $C$DW$20, DW_AT_decl_column(0x0c)
MSP430 Assembler PC v21.6.1 Tue Dec 20 13:46:02 2022

Copyright (c) 2003-2018 Texas Instruments Incorporated
TC_Fault_Check.asm                                                   PAGE    5

     221            
     222            $C$DW$21        .dwtag  DW_TAG_variable
     223                    .dwattr $C$DW$21, DW_AT_name("system_calibration")
     224                    .dwattr $C$DW$21, DW_AT_TI_symbol_name("system_calibration")
     225                    .dwattr $C$DW$21, DW_AT_type(*$C$DW$T$24)
     226                    .dwattr $C$DW$21, DW_AT_declaration
     227                    .dwattr $C$DW$21, DW_AT_external
     228                    .dwattr $C$DW$21, DW_AT_decl_file("../src/TC_Fault_Check.c")
     229                    .dwattr $C$DW$21, DW_AT_decl_line(0x4c)
     230                    .dwattr $C$DW$21, DW_AT_decl_column(0x10)
     231            
     232            $C$DW$22        .dwtag  DW_TAG_variable
     233                    .dwattr $C$DW$22, DW_AT_name("room_temp")
     234                    .dwattr $C$DW$22, DW_AT_TI_symbol_name("room_temp")
     235                    .dwattr $C$DW$22, DW_AT_type(*$C$DW$T$24)
     236                    .dwattr $C$DW$22, DW_AT_declaration
     237                    .dwattr $C$DW$22, DW_AT_external
     238                    .dwattr $C$DW$22, DW_AT_decl_file("../src/TC_Fault_Check.c")
     239                    .dwattr $C$DW$22, DW_AT_decl_line(0x4d)
     240                    .dwattr $C$DW$22, DW_AT_decl_column(0x10)
     241            
     242            $C$DW$23        .dwtag  DW_TAG_variable
     243                    .dwattr $C$DW$23, DW_AT_name("percent_remaining")
     244                    .dwattr $C$DW$23, DW_AT_TI_symbol_name("percent_remaining")
     245                    .dwattr $C$DW$23, DW_AT_type(*$C$DW$T$24)
     246                    .dwattr $C$DW$23, DW_AT_declaration
     247                    .dwattr $C$DW$23, DW_AT_external
     248                    .dwattr $C$DW$23, DW_AT_decl_file("../src/TC_Fault_Check.c")
     249                    .dwattr $C$DW$23, DW_AT_decl_line(0x5a)
     250                    .dwattr $C$DW$23, DW_AT_decl_column(0x10)
     251            
     252                    .global sumxx
     253                    .common sumxx,4,2
     254            $C$DW$24        .dwtag  DW_TAG_variable
     255                    .dwattr $C$DW$24, DW_AT_name("sumxx")
     256                    .dwattr $C$DW$24, DW_AT_TI_symbol_name("sumxx")
     257                    .dwattr $C$DW$24, DW_AT_location[DW_OP_addr sumxx]
     258                    .dwattr $C$DW$24, DW_AT_type(*$C$DW$T$16)
     259                    .dwattr $C$DW$24, DW_AT_external
     260                    .dwattr $C$DW$24, DW_AT_decl_file("../src/TC_Fault_Check.c")
     261                    .dwattr $C$DW$24, DW_AT_decl_line(0x5e)
     262                    .dwattr $C$DW$24, DW_AT_decl_column(0x07)
     263            
     264                    .global sumxy
     265                    .common sumxy,4,2
     266            $C$DW$25        .dwtag  DW_TAG_variable
     267                    .dwattr $C$DW$25, DW_AT_name("sumxy")
     268                    .dwattr $C$DW$25, DW_AT_TI_symbol_name("sumxy")
     269                    .dwattr $C$DW$25, DW_AT_location[DW_OP_addr sumxy]
     270                    .dwattr $C$DW$25, DW_AT_type(*$C$DW$T$16)
     271                    .dwattr $C$DW$25, DW_AT_external
     272                    .dwattr $C$DW$25, DW_AT_decl_file("../src/TC_Fault_Check.c")
     273                    .dwattr $C$DW$25, DW_AT_decl_line(0x5f)
     274                    .dwattr $C$DW$25, DW_AT_decl_column(0x07)
     275            
MSP430 Assembler PC v21.6.1 Tue Dec 20 13:46:02 2022

Copyright (c) 2003-2018 Texas Instruments Incorporated
TC_Fault_Check.asm                                                   PAGE    6

     276                    .global sumxyFC
     277                    .common sumxyFC,4,2
     278            $C$DW$26        .dwtag  DW_TAG_variable
     279                    .dwattr $C$DW$26, DW_AT_name("sumxyFC")
     280                    .dwattr $C$DW$26, DW_AT_TI_symbol_name("sumxyFC")
     281                    .dwattr $C$DW$26, DW_AT_location[DW_OP_addr sumxyFC]
     282                    .dwattr $C$DW$26, DW_AT_type(*$C$DW$T$16)
     283                    .dwattr $C$DW$26, DW_AT_external
     284                    .dwattr $C$DW$26, DW_AT_decl_file("../src/TC_Fault_Check.c")
     285                    .dwattr $C$DW$26, DW_AT_decl_line(0x60)
     286                    .dwattr $C$DW$26, DW_AT_decl_column(0x07)
     287            
     288                    .global sumxyFCB
     289                    .common sumxyFCB,4,2
     290            $C$DW$27        .dwtag  DW_TAG_variable
     291                    .dwattr $C$DW$27, DW_AT_name("sumxyFCB")
     292                    .dwattr $C$DW$27, DW_AT_TI_symbol_name("sumxyFCB")
     293                    .dwattr $C$DW$27, DW_AT_location[DW_OP_addr sumxyFCB]
     294                    .dwattr $C$DW$27, DW_AT_type(*$C$DW$T$16)
     295                    .dwattr $C$DW$27, DW_AT_external
     296                    .dwattr $C$DW$27, DW_AT_decl_file("../src/TC_Fault_Check.c")
     297                    .dwattr $C$DW$27, DW_AT_decl_line(0x61)
     298                    .dwattr $C$DW$27, DW_AT_decl_column(0x07)
     299            
     300                    .global sumx
     301                    .common sumx,4,2
     302            $C$DW$28        .dwtag  DW_TAG_variable
     303                    .dwattr $C$DW$28, DW_AT_name("sumx")
     304                    .dwattr $C$DW$28, DW_AT_TI_symbol_name("sumx")
     305                    .dwattr $C$DW$28, DW_AT_location[DW_OP_addr sumx]
     306                    .dwattr $C$DW$28, DW_AT_type(*$C$DW$T$16)
     307                    .dwattr $C$DW$28, DW_AT_external
     308                    .dwattr $C$DW$28, DW_AT_decl_file("../src/TC_Fault_Check.c")
     309                    .dwattr $C$DW$28, DW_AT_decl_line(0x62)
     310                    .dwattr $C$DW$28, DW_AT_decl_column(0x07)
     311            
     312                    .global yFPTM
     313                    .common yFPTM,40,2
     314            $C$DW$29        .dwtag  DW_TAG_variable
     315                    .dwattr $C$DW$29, DW_AT_name("yFPTM")
     316                    .dwattr $C$DW$29, DW_AT_TI_symbol_name("yFPTM")
     317                    .dwattr $C$DW$29, DW_AT_location[DW_OP_addr yFPTM]
     318                    .dwattr $C$DW$29, DW_AT_type(*$C$DW$T$194)
     319                    .dwattr $C$DW$29, DW_AT_external
     320                    .dwattr $C$DW$29, DW_AT_decl_file("../src/TC_Fault_Check.c")
     321                    .dwattr $C$DW$29, DW_AT_decl_line(0x64)
     322                    .dwattr $C$DW$29, DW_AT_decl_column(0x07)
     323            
     324                    .global yFCTM
     325                    .common yFCTM,40,2
     326            $C$DW$30        .dwtag  DW_TAG_variable
     327                    .dwattr $C$DW$30, DW_AT_name("yFCTM")
     328                    .dwattr $C$DW$30, DW_AT_TI_symbol_name("yFCTM")
     329                    .dwattr $C$DW$30, DW_AT_location[DW_OP_addr yFCTM]
     330                    .dwattr $C$DW$30, DW_AT_type(*$C$DW$T$194)
MSP430 Assembler PC v21.6.1 Tue Dec 20 13:46:02 2022

Copyright (c) 2003-2018 Texas Instruments Incorporated
TC_Fault_Check.asm                                                   PAGE    7

     331                    .dwattr $C$DW$30, DW_AT_external
     332                    .dwattr $C$DW$30, DW_AT_decl_file("../src/TC_Fault_Check.c")
     333                    .dwattr $C$DW$30, DW_AT_decl_line(0x65)
     334                    .dwattr $C$DW$30, DW_AT_decl_column(0x07)
     335            
     336                    .global yFCBTM
     337                    .common yFCBTM,40,2
     338            $C$DW$31        .dwtag  DW_TAG_variable
     339                    .dwattr $C$DW$31, DW_AT_name("yFCBTM")
     340                    .dwattr $C$DW$31, DW_AT_TI_symbol_name("yFCBTM")
     341                    .dwattr $C$DW$31, DW_AT_location[DW_OP_addr yFCBTM]
     342                    .dwattr $C$DW$31, DW_AT_type(*$C$DW$T$194)
     343                    .dwattr $C$DW$31, DW_AT_external
     344                    .dwattr $C$DW$31, DW_AT_decl_file("../src/TC_Fault_Check.c")
     345                    .dwattr $C$DW$31, DW_AT_decl_line(0x66)
     346                    .dwattr $C$DW$31, DW_AT_decl_column(0x07)
     347            
     348                    .global min
     349 000000               .data
     350                    .align  2
     351                    .elfsym min,SYM_SIZE(2)
     352 000000       min:
     353 000000 0000          .bits           0,16
     354                                    ; min @ 0
     355            
     356            $C$DW$32        .dwtag  DW_TAG_variable
     357                    .dwattr $C$DW$32, DW_AT_name("min")
     358                    .dwattr $C$DW$32, DW_AT_TI_symbol_name("min")
     359                    .dwattr $C$DW$32, DW_AT_location[DW_OP_addr min]
     360                    .dwattr $C$DW$32, DW_AT_type(*$C$DW$T$10)
     361                    .dwattr $C$DW$32, DW_AT_external
     362                    .dwattr $C$DW$32, DW_AT_decl_file("../src/TC_Fault_Check.c")
     363                    .dwattr $C$DW$32, DW_AT_decl_line(0x68)
     364                    .dwattr $C$DW$32, DW_AT_decl_column(0x05)
     365            
     366                    .global max
     367 000002               .data
     368                    .align  2
     369                    .elfsym max,SYM_SIZE(2)
     370 000002       max:
     371 000002 0000          .bits           0,16
     372                                    ; max @ 0
     373            
     374            $C$DW$33        .dwtag  DW_TAG_variable
     375                    .dwattr $C$DW$33, DW_AT_name("max")
     376                    .dwattr $C$DW$33, DW_AT_TI_symbol_name("max")
     377                    .dwattr $C$DW$33, DW_AT_location[DW_OP_addr max]
     378                    .dwattr $C$DW$33, DW_AT_type(*$C$DW$T$10)
     379                    .dwattr $C$DW$33, DW_AT_external
     380                    .dwattr $C$DW$33, DW_AT_decl_file("../src/TC_Fault_Check.c")
     381                    .dwattr $C$DW$33, DW_AT_decl_line(0x69)
     382                    .dwattr $C$DW$33, DW_AT_decl_column(0x05)
     383            
     384                    .global FatalError_FCTC_Variation
     385 000000               .sect   ".const"
MSP430 Assembler PC v21.6.1 Tue Dec 20 13:46:02 2022

Copyright (c) 2003-2018 Texas Instruments Incorporated
TC_Fault_Check.asm                                                   PAGE    8

     386                    .align  2
     387                    .elfsym FatalError_FCTC_Variation,SYM_SIZE(2)
     388 000000       FatalError_FCTC_Variation:
     389 000000 0014          .bits           0x14,16
     390                                    ; FatalError_FCTC_Variation @ 0
     391            
     392            $C$DW$34        .dwtag  DW_TAG_variable
     393                    .dwattr $C$DW$34, DW_AT_name("FatalError_FCTC_Variation")
     394                    .dwattr $C$DW$34, DW_AT_TI_symbol_name("FatalError_FCTC_Variation")
     395                    .dwattr $C$DW$34, DW_AT_location[DW_OP_addr FatalError_FCTC_Variation]
     396                    .dwattr $C$DW$34, DW_AT_type(*$C$DW$T$98)
     397                    .dwattr $C$DW$34, DW_AT_external
     398                    .dwattr $C$DW$34, DW_AT_decl_file("../src/TC_Fault_Check.c")
     399                    .dwattr $C$DW$34, DW_AT_decl_line(0x6a)
     400                    .dwattr $C$DW$34, DW_AT_decl_column(0x0b)
     401            
     402                    .global False_Detect
     403 000004               .data
     404                    .align  1
     405                    .elfsym False_Detect,SYM_SIZE(1)
     406 000004       False_Detect:
     407 000004 0000          .bits           0,8
     408                                    ; False_Detect @ 0
     409            
     410            $C$DW$35        .dwtag  DW_TAG_variable
     411                    .dwattr $C$DW$35, DW_AT_name("False_Detect")
     412                    .dwattr $C$DW$35, DW_AT_TI_symbol_name("False_Detect")
     413                    .dwattr $C$DW$35, DW_AT_location[DW_OP_addr False_Detect]
     414                    .dwattr $C$DW$35, DW_AT_type(*$C$DW$T$24)
     415                    .dwattr $C$DW$35, DW_AT_external
     416                    .dwattr $C$DW$35, DW_AT_decl_file("../src/TC_Fault_Check.c")
     417                    .dwattr $C$DW$35, DW_AT_decl_line(0x6b)
     418                    .dwattr $C$DW$35, DW_AT_decl_column(0x09)
     419            
     420                    .global sumy
     421                    .common sumy,4,2
     422            $C$DW$36        .dwtag  DW_TAG_variable
     423                    .dwattr $C$DW$36, DW_AT_name("sumy")
     424                    .dwattr $C$DW$36, DW_AT_TI_symbol_name("sumy")
     425                    .dwattr $C$DW$36, DW_AT_location[DW_OP_addr sumy]
     426                    .dwattr $C$DW$36, DW_AT_type(*$C$DW$T$16)
     427                    .dwattr $C$DW$36, DW_AT_external
     428                    .dwattr $C$DW$36, DW_AT_decl_file("../src/TC_Fault_Check.c")
     429                    .dwattr $C$DW$36, DW_AT_decl_line(0x6d)
     430                    .dwattr $C$DW$36, DW_AT_decl_column(0x08)
     431            
     432                    .global sumyFC
     433                    .common sumyFC,4,2
     434            $C$DW$37        .dwtag  DW_TAG_variable
     435                    .dwattr $C$DW$37, DW_AT_name("sumyFC")
     436                    .dwattr $C$DW$37, DW_AT_TI_symbol_name("sumyFC")
     437                    .dwattr $C$DW$37, DW_AT_location[DW_OP_addr sumyFC]
     438                    .dwattr $C$DW$37, DW_AT_type(*$C$DW$T$16)
     439                    .dwattr $C$DW$37, DW_AT_external
     440                    .dwattr $C$DW$37, DW_AT_decl_file("../src/TC_Fault_Check.c")
MSP430 Assembler PC v21.6.1 Tue Dec 20 13:46:02 2022

Copyright (c) 2003-2018 Texas Instruments Incorporated
TC_Fault_Check.asm                                                   PAGE    9

     441                    .dwattr $C$DW$37, DW_AT_decl_line(0x6e)
     442                    .dwattr $C$DW$37, DW_AT_decl_column(0x07)
     443            
     444                    .global sumyFCB
     445                    .common sumyFCB,4,2
     446            $C$DW$38        .dwtag  DW_TAG_variable
     447                    .dwattr $C$DW$38, DW_AT_name("sumyFCB")
     448                    .dwattr $C$DW$38, DW_AT_TI_symbol_name("sumyFCB")
     449                    .dwattr $C$DW$38, DW_AT_location[DW_OP_addr sumyFCB]
     450                    .dwattr $C$DW$38, DW_AT_type(*$C$DW$T$16)
     451                    .dwattr $C$DW$38, DW_AT_external
     452                    .dwattr $C$DW$38, DW_AT_decl_file("../src/TC_Fault_Check.c")
     453                    .dwattr $C$DW$38, DW_AT_decl_line(0x6f)
     454                    .dwattr $C$DW$38, DW_AT_decl_column(0x07)
     455            
     456                    .global Sxx
     457                    .common Sxx,4,2
     458            $C$DW$39        .dwtag  DW_TAG_variable
     459                    .dwattr $C$DW$39, DW_AT_name("Sxx")
     460                    .dwattr $C$DW$39, DW_AT_TI_symbol_name("Sxx")
     461                    .dwattr $C$DW$39, DW_AT_location[DW_OP_addr Sxx]
     462                    .dwattr $C$DW$39, DW_AT_type(*$C$DW$T$16)
     463                    .dwattr $C$DW$39, DW_AT_external
     464                    .dwattr $C$DW$39, DW_AT_decl_file("../src/TC_Fault_Check.c")
     465                    .dwattr $C$DW$39, DW_AT_decl_line(0x70)
     466                    .dwattr $C$DW$39, DW_AT_decl_column(0x07)
     467            
     468                    .global Syy
     469                    .common Syy,4,2
     470            $C$DW$40        .dwtag  DW_TAG_variable
     471                    .dwattr $C$DW$40, DW_AT_name("Syy")
     472                    .dwattr $C$DW$40, DW_AT_TI_symbol_name("Syy")
     473                    .dwattr $C$DW$40, DW_AT_location[DW_OP_addr Syy]
     474                    .dwattr $C$DW$40, DW_AT_type(*$C$DW$T$16)
     475                    .dwattr $C$DW$40, DW_AT_external
     476                    .dwattr $C$DW$40, DW_AT_decl_file("../src/TC_Fault_Check.c")
     477                    .dwattr $C$DW$40, DW_AT_decl_line(0x70)
     478                    .dwattr $C$DW$40, DW_AT_decl_column(0x0c)
     479            
     480                    .global SxxFC
     481                    .common SxxFC,4,2
     482            $C$DW$41        .dwtag  DW_TAG_variable
     483                    .dwattr $C$DW$41, DW_AT_name("SxxFC")
     484                    .dwattr $C$DW$41, DW_AT_TI_symbol_name("SxxFC")
     485                    .dwattr $C$DW$41, DW_AT_location[DW_OP_addr SxxFC]
     486                    .dwattr $C$DW$41, DW_AT_type(*$C$DW$T$16)
     487                    .dwattr $C$DW$41, DW_AT_external
     488                    .dwattr $C$DW$41, DW_AT_decl_file("../src/TC_Fault_Check.c")
     489                    .dwattr $C$DW$41, DW_AT_decl_line(0x71)
     490                    .dwattr $C$DW$41, DW_AT_decl_column(0x07)
     491            
     492                    .global SxxFCB
     493                    .common SxxFCB,4,2
     494            $C$DW$42        .dwtag  DW_TAG_variable
     495                    .dwattr $C$DW$42, DW_AT_name("SxxFCB")
MSP430 Assembler PC v21.6.1 Tue Dec 20 13:46:02 2022

Copyright (c) 2003-2018 Texas Instruments Incorporated
TC_Fault_Check.asm                                                   PAGE   10

     496                    .dwattr $C$DW$42, DW_AT_TI_symbol_name("SxxFCB")
     497                    .dwattr $C$DW$42, DW_AT_location[DW_OP_addr SxxFCB]
     498                    .dwattr $C$DW$42, DW_AT_type(*$C$DW$T$16)
     499                    .dwattr $C$DW$42, DW_AT_external
     500                    .dwattr $C$DW$42, DW_AT_decl_file("../src/TC_Fault_Check.c")
     501                    .dwattr $C$DW$42, DW_AT_decl_line(0x72)
     502                    .dwattr $C$DW$42, DW_AT_decl_column(0x07)
     503            
     504                    .global b
     505                    .common b,4,2
     506            $C$DW$43        .dwtag  DW_TAG_variable
     507                    .dwattr $C$DW$43, DW_AT_name("b")
     508                    .dwattr $C$DW$43, DW_AT_TI_symbol_name("b")
     509                    .dwattr $C$DW$43, DW_AT_location[DW_OP_addr b]
     510                    .dwattr $C$DW$43, DW_AT_type(*$C$DW$T$16)
     511                    .dwattr $C$DW$43, DW_AT_external
     512                    .dwattr $C$DW$43, DW_AT_decl_file("../src/TC_Fault_Check.c")
     513                    .dwattr $C$DW$43, DW_AT_decl_line(0x73)
     514                    .dwattr $C$DW$43, DW_AT_decl_column(0x07)
     515            
     516                    .global bFC
     517                    .common bFC,4,2
     518            $C$DW$44        .dwtag  DW_TAG_variable
     519                    .dwattr $C$DW$44, DW_AT_name("bFC")
     520                    .dwattr $C$DW$44, DW_AT_TI_symbol_name("bFC")
     521                    .dwattr $C$DW$44, DW_AT_location[DW_OP_addr bFC]
     522                    .dwattr $C$DW$44, DW_AT_type(*$C$DW$T$16)
     523                    .dwattr $C$DW$44, DW_AT_external
     524                    .dwattr $C$DW$44, DW_AT_decl_file("../src/TC_Fault_Check.c")
     525                    .dwattr $C$DW$44, DW_AT_decl_line(0x73)
     526                    .dwattr $C$DW$44, DW_AT_decl_column(0x0a)
     527            
     528                    .global bFCB
     529                    .common bFCB,4,2
     530            $C$DW$45        .dwtag  DW_TAG_variable
     531                    .dwattr $C$DW$45, DW_AT_name("bFCB")
     532                    .dwattr $C$DW$45, DW_AT_TI_symbol_name("bFCB")
     533                    .dwattr $C$DW$45, DW_AT_location[DW_OP_addr bFCB]
     534                    .dwattr $C$DW$45, DW_AT_type(*$C$DW$T$16)
     535                    .dwattr $C$DW$45, DW_AT_external
     536                    .dwattr $C$DW$45, DW_AT_decl_file("../src/TC_Fault_Check.c")
     537                    .dwattr $C$DW$45, DW_AT_decl_line(0x73)
     538                    .dwattr $C$DW$45, DW_AT_decl_column(0x0f)
     539            
     540                    .global vmt
     541                    .common vmt,1,1
     542            $C$DW$46        .dwtag  DW_TAG_variable
     543                    .dwattr $C$DW$46, DW_AT_name("vmt")
     544                    .dwattr $C$DW$46, DW_AT_TI_symbol_name("vmt")
     545                    .dwattr $C$DW$46, DW_AT_location[DW_OP_addr vmt]
     546                    .dwattr $C$DW$46, DW_AT_type(*$C$DW$T$24)
     547                    .dwattr $C$DW$46, DW_AT_external
     548                    .dwattr $C$DW$46, DW_AT_decl_file("../src/TC_Fault_Check.c")
     549                    .dwattr $C$DW$46, DW_AT_decl_line(0x74)
     550                    .dwattr $C$DW$46, DW_AT_decl_column(0x09)
MSP430 Assembler PC v21.6.1 Tue Dec 20 13:46:02 2022

Copyright (c) 2003-2018 Texas Instruments Incorporated
TC_Fault_Check.asm                                                   PAGE   11

     551            
     552                    .global result
     553                    .common result,1,1
     554            $C$DW$47        .dwtag  DW_TAG_variable
     555                    .dwattr $C$DW$47, DW_AT_name("result")
     556                    .dwattr $C$DW$47, DW_AT_TI_symbol_name("result")
     557                    .dwattr $C$DW$47, DW_AT_location[DW_OP_addr result]
     558                    .dwattr $C$DW$47, DW_AT_type(*$C$DW$T$24)
     559                    .dwattr $C$DW$47, DW_AT_external
     560                    .dwattr $C$DW$47, DW_AT_decl_file("../src/TC_Fault_Check.c")
     561                    .dwattr $C$DW$47, DW_AT_decl_line(0x74)
     562                    .dwattr $C$DW$47, DW_AT_decl_column(0x0e)
     563            
     564                    .global L
     565                    .common L,2,2
     566            $C$DW$48        .dwtag  DW_TAG_variable
     567                    .dwattr $C$DW$48, DW_AT_name("L")
     568                    .dwattr $C$DW$48, DW_AT_TI_symbol_name("L")
     569                    .dwattr $C$DW$48, DW_AT_location[DW_OP_addr L]
     570                    .dwattr $C$DW$48, DW_AT_type(*$C$DW$T$10)
     571                    .dwattr $C$DW$48, DW_AT_external
     572                    .dwattr $C$DW$48, DW_AT_decl_file("../src/TC_Fault_Check.c")
     573                    .dwattr $C$DW$48, DW_AT_decl_line(0x75)
     574                    .dwattr $C$DW$48, DW_AT_decl_column(0x05)
     575            
     576                    .global J
     577                    .common J,2,2
     578            $C$DW$49        .dwtag  DW_TAG_variable
     579                    .dwattr $C$DW$49, DW_AT_name("J")
     580                    .dwattr $C$DW$49, DW_AT_TI_symbol_name("J")
     581                    .dwattr $C$DW$49, DW_AT_location[DW_OP_addr J]
     582                    .dwattr $C$DW$49, DW_AT_type(*$C$DW$T$10)
     583                    .dwattr $C$DW$49, DW_AT_external
     584                    .dwattr $C$DW$49, DW_AT_decl_file("../src/TC_Fault_Check.c")
     585                    .dwattr $C$DW$49, DW_AT_decl_line(0x75)
     586                    .dwattr $C$DW$49, DW_AT_decl_column(0x08)
     587            
     588                    .global K
     589                    .common K,2,2
     590            $C$DW$50        .dwtag  DW_TAG_variable
     591                    .dwattr $C$DW$50, DW_AT_name("K")
     592                    .dwattr $C$DW$50, DW_AT_TI_symbol_name("K")
     593                    .dwattr $C$DW$50, DW_AT_location[DW_OP_addr K]
     594                    .dwattr $C$DW$50, DW_AT_type(*$C$DW$T$10)
     595                    .dwattr $C$DW$50, DW_AT_external
     596                    .dwattr $C$DW$50, DW_AT_decl_file("../src/TC_Fault_Check.c")
     597                    .dwattr $C$DW$50, DW_AT_decl_line(0x75)
     598                    .dwattr $C$DW$50, DW_AT_decl_column(0x0b)
     599            
     600                    .global MS_Failure
     601                    .common MS_Failure,2,2
     602            $C$DW$51        .dwtag  DW_TAG_variable
     603                    .dwattr $C$DW$51, DW_AT_name("MS_Failure")
     604                    .dwattr $C$DW$51, DW_AT_TI_symbol_name("MS_Failure")
     605                    .dwattr $C$DW$51, DW_AT_location[DW_OP_addr MS_Failure]
MSP430 Assembler PC v21.6.1 Tue Dec 20 13:46:02 2022

Copyright (c) 2003-2018 Texas Instruments Incorporated
TC_Fault_Check.asm                                                   PAGE   12

     606                    .dwattr $C$DW$51, DW_AT_type(*$C$DW$T$10)
     607                    .dwattr $C$DW$51, DW_AT_external
     608                    .dwattr $C$DW$51, DW_AT_decl_file("../src/TC_Fault_Check.c")
     609                    .dwattr $C$DW$51, DW_AT_decl_line(0x76)
     610                    .dwattr $C$DW$51, DW_AT_decl_column(0x05)
     611            
     612                    .global Heater_Failure
     613                    .common Heater_Failure,2,2
     614            $C$DW$52        .dwtag  DW_TAG_variable
     615                    .dwattr $C$DW$52, DW_AT_name("Heater_Failure")
     616                    .dwattr $C$DW$52, DW_AT_TI_symbol_name("Heater_Failure")
     617                    .dwattr $C$DW$52, DW_AT_location[DW_OP_addr Heater_Failure]
     618                    .dwattr $C$DW$52, DW_AT_type(*$C$DW$T$10)
     619                    .dwattr $C$DW$52, DW_AT_external
     620                    .dwattr $C$DW$52, DW_AT_decl_file("../src/TC_Fault_Check.c")
     621                    .dwattr $C$DW$52, DW_AT_decl_line(0x76)
     622                    .dwattr $C$DW$52, DW_AT_decl_column(0x10)
     623            
     624                    .global CS_Failure
     625                    .common CS_Failure,2,2
     626            $C$DW$53        .dwtag  DW_TAG_variable
     627                    .dwattr $C$DW$53, DW_AT_name("CS_Failure")
     628                    .dwattr $C$DW$53, DW_AT_TI_symbol_name("CS_Failure")
     629                    .dwattr $C$DW$53, DW_AT_location[DW_OP_addr CS_Failure]
     630                    .dwattr $C$DW$53, DW_AT_type(*$C$DW$T$10)
     631                    .dwattr $C$DW$53, DW_AT_external
     632                    .dwattr $C$DW$53, DW_AT_decl_file("../src/TC_Fault_Check.c")
     633                    .dwattr $C$DW$53, DW_AT_decl_line(0x76)
     634                    .dwattr $C$DW$53, DW_AT_decl_column(0x1f)
     635            
     636                    .global FC_Heatup_Failure
     637                    .common FC_Heatup_Failure,2,2
     638            $C$DW$54        .dwtag  DW_TAG_variable
     639                    .dwattr $C$DW$54, DW_AT_name("FC_Heatup_Failure")
     640                    .dwattr $C$DW$54, DW_AT_TI_symbol_name("FC_Heatup_Failure")
     641                    .dwattr $C$DW$54, DW_AT_location[DW_OP_addr FC_Heatup_Failure]
     642                    .dwattr $C$DW$54, DW_AT_type(*$C$DW$T$10)
     643                    .dwattr $C$DW$54, DW_AT_external
     644                    .dwattr $C$DW$54, DW_AT_decl_file("../src/TC_Fault_Check.c")
     645                    .dwattr $C$DW$54, DW_AT_decl_line(0x76)
     646                    .dwattr $C$DW$54, DW_AT_decl_column(0x2a)
     647            
     648                    .global FP_Heatup_Failure
     649                    .common FP_Heatup_Failure,2,2
     650            $C$DW$55        .dwtag  DW_TAG_variable
     651                    .dwattr $C$DW$55, DW_AT_name("FP_Heatup_Failure")
     652                    .dwattr $C$DW$55, DW_AT_TI_symbol_name("FP_Heatup_Failure")
     653                    .dwattr $C$DW$55, DW_AT_location[DW_OP_addr FP_Heatup_Failure]
     654                    .dwattr $C$DW$55, DW_AT_type(*$C$DW$T$10)
     655                    .dwattr $C$DW$55, DW_AT_external
     656                    .dwattr $C$DW$55, DW_AT_decl_file("../src/TC_Fault_Check.c")
     657                    .dwattr $C$DW$55, DW_AT_decl_line(0x76)
     658                    .dwattr $C$DW$55, DW_AT_decl_column(0x3c)
     659            
     660                    .global Burner_Failure
MSP430 Assembler PC v21.6.1 Tue Dec 20 13:46:02 2022

Copyright (c) 2003-2018 Texas Instruments Incorporated
TC_Fault_Check.asm                                                   PAGE   13

     661                    .common Burner_Failure,2,2
     662            $C$DW$56        .dwtag  DW_TAG_variable
     663                    .dwattr $C$DW$56, DW_AT_name("Burner_Failure")
     664                    .dwattr $C$DW$56, DW_AT_TI_symbol_name("Burner_Failure")
     665                    .dwattr $C$DW$56, DW_AT_location[DW_OP_addr Burner_Failure]
     666                    .dwattr $C$DW$56, DW_AT_type(*$C$DW$T$10)
     667                    .dwattr $C$DW$56, DW_AT_external
     668                    .dwattr $C$DW$56, DW_AT_decl_file("../src/TC_Fault_Check.c")
     669                    .dwattr $C$DW$56, DW_AT_decl_line(0x76)
     670                    .dwattr $C$DW$56, DW_AT_decl_column(0x4e)
     671            
     672                    .global Warming_Failure
     673                    .common Warming_Failure,2,2
     674            $C$DW$57        .dwtag  DW_TAG_variable
     675                    .dwattr $C$DW$57, DW_AT_name("Warming_Failure")
     676                    .dwattr $C$DW$57, DW_AT_TI_symbol_name("Warming_Failure")
     677                    .dwattr $C$DW$57, DW_AT_location[DW_OP_addr Warming_Failure]
     678                    .dwattr $C$DW$57, DW_AT_type(*$C$DW$T$10)
     679                    .dwattr $C$DW$57, DW_AT_external
     680                    .dwattr $C$DW$57, DW_AT_decl_file("../src/TC_Fault_Check.c")
     681                    .dwattr $C$DW$57, DW_AT_decl_line(0x76)
     682                    .dwattr $C$DW$57, DW_AT_decl_column(0x5d)
     683            
     684                    .global Fuel_Reversed
     685                    .common Fuel_Reversed,2,2
     686            $C$DW$58        .dwtag  DW_TAG_variable
     687                    .dwattr $C$DW$58, DW_AT_name("Fuel_Reversed")
     688                    .dwattr $C$DW$58, DW_AT_TI_symbol_name("Fuel_Reversed")
     689                    .dwattr $C$DW$58, DW_AT_location[DW_OP_addr Fuel_Reversed]
     690                    .dwattr $C$DW$58, DW_AT_type(*$C$DW$T$10)
     691                    .dwattr $C$DW$58, DW_AT_external
     692                    .dwattr $C$DW$58, DW_AT_decl_file("../src/TC_Fault_Check.c")
     693                    .dwattr $C$DW$58, DW_AT_decl_line(0x77)
     694                    .dwattr $C$DW$58, DW_AT_decl_column(0x05)
     695            
     696                    .global dly
     697 000005               .data
     698                    .align  1
     699                    .elfsym dly,SYM_SIZE(1)
     700 000005       dly:
     701 000004 0000          .bits           0,8
     702                                    ; dly @ 0
     703            
     704            $C$DW$59        .dwtag  DW_TAG_variable
     705                    .dwattr $C$DW$59, DW_AT_name("dly")
     706                    .dwattr $C$DW$59, DW_AT_TI_symbol_name("dly")
     707                    .dwattr $C$DW$59, DW_AT_location[DW_OP_addr dly]
     708                    .dwattr $C$DW$59, DW_AT_type(*$C$DW$T$24)
     709                    .dwattr $C$DW$59, DW_AT_external
     710                    .dwattr $C$DW$59, DW_AT_decl_file("../src/TC_Fault_Check.c")
     711                    .dwattr $C$DW$59, DW_AT_decl_line(0x79)
     712                    .dwattr $C$DW$59, DW_AT_decl_column(0x09)
     713            
     714                    .global Fatal_System_Error
     715 000006               .data
MSP430 Assembler PC v21.6.1 Tue Dec 20 13:46:02 2022

Copyright (c) 2003-2018 Texas Instruments Incorporated
TC_Fault_Check.asm                                                   PAGE   14

     716                    .align  1
     717                    .elfsym Fatal_System_Error,SYM_SIZE(1)
     718 000006       Fatal_System_Error:
     719 000006 0000          .bits           0,8
     720                                    ; Fatal_System_Error @ 0
     721            
     722            $C$DW$60        .dwtag  DW_TAG_variable
     723                    .dwattr $C$DW$60, DW_AT_name("Fatal_System_Error")
     724                    .dwattr $C$DW$60, DW_AT_TI_symbol_name("Fatal_System_Error")
     725                    .dwattr $C$DW$60, DW_AT_location[DW_OP_addr Fatal_System_Error]
     726                    .dwattr $C$DW$60, DW_AT_type(*$C$DW$T$24)
     727                    .dwattr $C$DW$60, DW_AT_external
     728                    .dwattr $C$DW$60, DW_AT_decl_file("../src/TC_Fault_Check.c")
     729                    .dwattr $C$DW$60, DW_AT_decl_line(0x7b)
     730                    .dwattr $C$DW$60, DW_AT_decl_column(0x09)
     731            
     732            
     733            $C$DW$61        .dwtag  DW_TAG_subprogram
     734                    .dwattr $C$DW$61, DW_AT_name("FlashProg")
     735                    .dwattr $C$DW$61, DW_AT_TI_symbol_name("FlashProg")
     736                    .dwattr $C$DW$61, DW_AT_declaration
     737                    .dwattr $C$DW$61, DW_AT_external
     738                    .dwattr $C$DW$61, DW_AT_decl_file("../src/TC_Fault_Check.c")
     739                    .dwattr $C$DW$61, DW_AT_decl_line(0x83)
     740                    .dwattr $C$DW$61, DW_AT_decl_column(0x0d)
     741                    .dwendtag $C$DW$61
     742            
     743            ;       C:\ti\ccs1110\ccs\tools\compiler\ti-cgt-msp430_21.6.1.LTS\bin\opt430.exe C:\\Users\\MCourson\\
     744 000000               .sect   ".text:__signbitl"
     745                    .clink
     746                    .global __signbitl
     747            
     748            $C$DW$62        .dwtag  DW_TAG_subprogram
     749                    .dwattr $C$DW$62, DW_AT_name("__signbitl")
     750                    .dwattr $C$DW$62, DW_AT_low_pc(__signbitl)
     751                    .dwattr $C$DW$62, DW_AT_high_pc(0x00)
     752                    .dwattr $C$DW$62, DW_AT_TI_symbol_name("__signbitl")
     753                    .dwattr $C$DW$62, DW_AT_external
     754                    .dwattr $C$DW$62, DW_AT_type(*$C$DW$T$10)
     755                    .dwattr $C$DW$62, DW_AT_TI_begin_file("C:/ti/ccs1110/ccs/tools/compiler/ti-cgt-msp430_21.6.1.L
     756                    .dwattr $C$DW$62, DW_AT_TI_begin_line(0x16f)
     757                    .dwattr $C$DW$62, DW_AT_TI_begin_column(0x25)
     758                    .dwattr $C$DW$62, DW_AT_decl_file("C:/ti/ccs1110/ccs/tools/compiler/ti-cgt-msp430_21.6.1.LTS/i
     759                    .dwattr $C$DW$62, DW_AT_decl_line(0x16f)
     760                    .dwattr $C$DW$62, DW_AT_decl_column(0x25)
     761                    .dwattr $C$DW$62, DW_AT_TI_max_frame_size(0x04)
     762                    .dwpsn  file "C:/ti/ccs1110/ccs/tools/compiler/ti-cgt-msp430_21.6.1.LTS/include/_defs.h",line 
     763            
     764                    .dwfde $C$DW$CIE, __signbitl
     765            $C$DW$63        .dwtag  DW_TAG_formal_parameter
     766                    .dwattr $C$DW$63, DW_AT_name("e")
     767                    .dwattr $C$DW$63, DW_AT_TI_symbol_name("e")
     768                    .dwattr $C$DW$63, DW_AT_type(*$C$DW$T$18)
     769                    .dwattr $C$DW$63, DW_AT_location[DW_OP_reg12 DW_OP_piece 2 DW_OP_reg13 DW_OP_piece 2 DW_OP_reg
     770            
MSP430 Assembler PC v21.6.1 Tue Dec 20 13:46:02 2022

Copyright (c) 2003-2018 Texas Instruments Incorporated
TC_Fault_Check.asm                                                   PAGE   15

     771            
     772            ;*****************************************************************************
     773            ;* FUNCTION NAME: __signbitl                                                 *
     774            ;*                                                                           *
     775            ;*   Regs Modified     : SP,SR,r11,r12,r13,r14,r15                           *
     776            ;*   Regs Used         : SP,SR,r11,r12,r13,r14,r15                           *
     777            ;*   Local Frame Size  : 0 Args + 0 Auto + 0 Save = 0 byte                   *
     778            ;*****************************************************************************
     779 000000       __signbitl:
     780            ;* --------------------------------------------------------------------------*
     781                    .dwcfi  cfa_offset, 4
     782                    .dwcfi  save_reg_to_mem, 16, -4
     783                    .dwpsn  file "C:/ti/ccs1110/ccs/tools/compiler/ti-cgt-msp430_21.6.1.LTS/include/_defs.h",line 
     784 000000 430B          MOV.W     #0,r11                ; [] |368| 
     785 000002 F30C          AND.W     #0,r12                ; [] |368| 
     786 000004 F30D          AND.W     #0,r13                ; [] |368| 
     787 000006 F30E          AND.W     #0,r14                ; [] |368| 
     788 000008 F03F          AND.W     #32768,r15            ; [] |368| 
         00000a 8000 
     789 00000c 930F          TST.W     r15                   ; [] |368| 
     790 00000e 2006          JNE       $C$L1                 ; [] |368| 
     791                                                      ; [] |368| 
     792            ;* --------------------------------------------------------------------------*
     793 000010 930E          TST.W     r14                   ; [] |368| 
     794 000012 2004          JNE       $C$L1                 ; [] |368| 
     795                                                      ; [] |368| 
     796            ;* --------------------------------------------------------------------------*
     797 000014 930D          TST.W     r13                   ; [] |368| 
     798 000016 2002          JNE       $C$L1                 ; [] |368| 
     799                                                      ; [] |368| 
     800            ;* --------------------------------------------------------------------------*
     801 000018 930C          TST.W     r12                   ; [] |368| 
     802 00001a 2401          JEQ       $C$L2                 ; [] |368| 
     803                                                      ; [] |368| 
     804            ;* --------------------------------------------------------------------------*
     805 00001c       $C$L1:    
     806 00001c 431B          MOV.W     #1,r11                ; [] |368| 
     807            ;* --------------------------------------------------------------------------*
     808 00001e       $C$L2:    
     809 00001e 0BCC          MOVA      r11,r12               ; [] |368| 
     810                    .dwpsn  file "C:/ti/ccs1110/ccs/tools/compiler/ti-cgt-msp430_21.6.1.LTS/include/_defs.h",line 
     811            $C$DW$64        .dwtag  DW_TAG_TI_branch
     812                    .dwattr $C$DW$64, DW_AT_low_pc(0x00)
     813                    .dwattr $C$DW$64, DW_AT_TI_return
     814            
     815 000020 0110          RETA      ; [] 
     816                    ; [] 
     817                    .dwattr $C$DW$62, DW_AT_TI_end_file("C:/ti/ccs1110/ccs/tools/compiler/ti-cgt-msp430_21.6.1.LTS
     818                    .dwattr $C$DW$62, DW_AT_TI_end_line(0x170)
     819                    .dwattr $C$DW$62, DW_AT_TI_end_column(0x2b)
     820                    .dwendentry
     821                    .dwendtag $C$DW$62
     822            
     823 000000               .sect   ".text:__signbitf"
     824                    .clink
MSP430 Assembler PC v21.6.1 Tue Dec 20 13:46:02 2022

Copyright (c) 2003-2018 Texas Instruments Incorporated
TC_Fault_Check.asm                                                   PAGE   16

     825                    .global __signbitf
     826            
     827            $C$DW$65        .dwtag  DW_TAG_subprogram
     828                    .dwattr $C$DW$65, DW_AT_name("__signbitf")
     829                    .dwattr $C$DW$65, DW_AT_low_pc(__signbitf)
     830                    .dwattr $C$DW$65, DW_AT_high_pc(0x00)
     831                    .dwattr $C$DW$65, DW_AT_TI_symbol_name("__signbitf")
     832                    .dwattr $C$DW$65, DW_AT_external
     833                    .dwattr $C$DW$65, DW_AT_type(*$C$DW$T$10)
     834                    .dwattr $C$DW$65, DW_AT_TI_begin_file("C:/ti/ccs1110/ccs/tools/compiler/ti-cgt-msp430_21.6.1.L
     835                    .dwattr $C$DW$65, DW_AT_TI_begin_line(0x16d)
     836                    .dwattr $C$DW$65, DW_AT_TI_begin_column(0x25)
     837                    .dwattr $C$DW$65, DW_AT_decl_file("C:/ti/ccs1110/ccs/tools/compiler/ti-cgt-msp430_21.6.1.LTS/i
     838                    .dwattr $C$DW$65, DW_AT_decl_line(0x16d)
     839                    .dwattr $C$DW$65, DW_AT_decl_column(0x25)
     840                    .dwattr $C$DW$65, DW_AT_TI_max_frame_size(0x04)
     841                    .dwpsn  file "C:/ti/ccs1110/ccs/tools/compiler/ti-cgt-msp430_21.6.1.LTS/include/_defs.h",line 
     842            
     843                    .dwfde $C$DW$CIE, __signbitf
     844            $C$DW$66        .dwtag  DW_TAG_formal_parameter
     845                    .dwattr $C$DW$66, DW_AT_name("f")
     846                    .dwattr $C$DW$66, DW_AT_TI_symbol_name("f")
     847                    .dwattr $C$DW$66, DW_AT_type(*$C$DW$T$16)
     848                    .dwattr $C$DW$66, DW_AT_location[DW_OP_reg12 DW_OP_piece 2 DW_OP_reg13 DW_OP_piece 2]
     849            
     850            
     851            ;*****************************************************************************
     852            ;* FUNCTION NAME: __signbitf                                                 *
     853            ;*                                                                           *
     854            ;*   Regs Modified     : SP,SR,r12                                           *
     855            ;*   Regs Used         : SP,SR,r12,r13                                       *
     856            ;*   Local Frame Size  : 0 Args + 0 Auto + 0 Save = 0 byte                   *
     857            ;*****************************************************************************
     858 000000       __signbitf:
     859            ;* --------------------------------------------------------------------------*
     860                    .dwcfi  cfa_offset, 4
     861                    .dwcfi  save_reg_to_mem, 16, -4
     862                    .dwpsn  file "C:/ti/ccs1110/ccs/tools/compiler/ti-cgt-msp430_21.6.1.LTS/include/_defs.h",line 
     863 000000 430C          MOV.W     #0,r12                ; [] |366| 
     864 000002 930D          TST.W     r13                   ; [] |366| 
     865 000004 3401          JGE       $C$L3                 ; [] |366| 
     866                                                      ; [] |366| 
     867            ;* --------------------------------------------------------------------------*
     868 000006 431C          MOV.W     #1,r12                ; [] |366| 
     869            ;* --------------------------------------------------------------------------*
     870 000008       $C$L3:    
     871                    .dwpsn  file "C:/ti/ccs1110/ccs/tools/compiler/ti-cgt-msp430_21.6.1.LTS/include/_defs.h",line 
     872            $C$DW$67        .dwtag  DW_TAG_TI_branch
     873                    .dwattr $C$DW$67, DW_AT_low_pc(0x00)
     874                    .dwattr $C$DW$67, DW_AT_TI_return
     875            
     876 000008 0110          RETA      ; [] 
     877                    ; [] 
     878                    .dwattr $C$DW$65, DW_AT_TI_end_file("C:/ti/ccs1110/ccs/tools/compiler/ti-cgt-msp430_21.6.1.LTS
     879                    .dwattr $C$DW$65, DW_AT_TI_end_line(0x16e)
MSP430 Assembler PC v21.6.1 Tue Dec 20 13:46:02 2022

Copyright (c) 2003-2018 Texas Instruments Incorporated
TC_Fault_Check.asm                                                   PAGE   17

     880                    .dwattr $C$DW$65, DW_AT_TI_end_column(0x29)
     881                    .dwendentry
     882                    .dwendtag $C$DW$65
     883            
     884 000000               .sect   ".text:__signbit"
     885                    .clink
     886                    .global __signbit
     887            
     888            $C$DW$68        .dwtag  DW_TAG_subprogram
     889                    .dwattr $C$DW$68, DW_AT_name("__signbit")
     890                    .dwattr $C$DW$68, DW_AT_low_pc(__signbit)
     891                    .dwattr $C$DW$68, DW_AT_high_pc(0x00)
     892                    .dwattr $C$DW$68, DW_AT_TI_symbol_name("__signbit")
     893                    .dwattr $C$DW$68, DW_AT_external
     894                    .dwattr $C$DW$68, DW_AT_type(*$C$DW$T$10)
     895                    .dwattr $C$DW$68, DW_AT_TI_begin_file("C:/ti/ccs1110/ccs/tools/compiler/ti-cgt-msp430_21.6.1.L
     896                    .dwattr $C$DW$68, DW_AT_TI_begin_line(0x16b)
     897                    .dwattr $C$DW$68, DW_AT_TI_begin_column(0x25)
     898                    .dwattr $C$DW$68, DW_AT_decl_file("C:/ti/ccs1110/ccs/tools/compiler/ti-cgt-msp430_21.6.1.LTS/i
     899                    .dwattr $C$DW$68, DW_AT_decl_line(0x16b)
     900                    .dwattr $C$DW$68, DW_AT_decl_column(0x25)
     901                    .dwattr $C$DW$68, DW_AT_TI_max_frame_size(0x04)
     902                    .dwpsn  file "C:/ti/ccs1110/ccs/tools/compiler/ti-cgt-msp430_21.6.1.LTS/include/_defs.h",line 
     903            
     904                    .dwfde $C$DW$CIE, __signbit
     905            $C$DW$69        .dwtag  DW_TAG_formal_parameter
     906                    .dwattr $C$DW$69, DW_AT_name("d")
     907                    .dwattr $C$DW$69, DW_AT_TI_symbol_name("d")
     908                    .dwattr $C$DW$69, DW_AT_type(*$C$DW$T$17)
     909                    .dwattr $C$DW$69, DW_AT_location[DW_OP_reg12 DW_OP_piece 2 DW_OP_reg13 DW_OP_piece 2 DW_OP_reg
     910            
     911            
     912            ;*****************************************************************************
     913            ;* FUNCTION NAME: __signbit                                                  *
     914            ;*                                                                           *
     915            ;*   Regs Modified     : SP,SR,r11,r12,r13,r14,r15                           *
     916            ;*   Regs Used         : SP,SR,r11,r12,r13,r14,r15                           *
     917            ;*   Local Frame Size  : 0 Args + 0 Auto + 0 Save = 0 byte                   *
     918            ;*****************************************************************************
     919 000000       __signbit:
     920            ;* --------------------------------------------------------------------------*
     921                    .dwcfi  cfa_offset, 4
     922                    .dwcfi  save_reg_to_mem, 16, -4
     923                    .dwpsn  file "C:/ti/ccs1110/ccs/tools/compiler/ti-cgt-msp430_21.6.1.LTS/include/_defs.h",line 
     924 000000 430B          MOV.W     #0,r11                ; [] |364| 
     925 000002 F30C          AND.W     #0,r12                ; [] |364| 
     926 000004 F30D          AND.W     #0,r13                ; [] |364| 
     927 000006 F30E          AND.W     #0,r14                ; [] |364| 
     928 000008 F03F          AND.W     #32768,r15            ; [] |364| 
         00000a 8000 
     929 00000c 930F          TST.W     r15                   ; [] |364| 
     930 00000e 2006          JNE       $C$L4                 ; [] |364| 
     931                                                      ; [] |364| 
     932            ;* --------------------------------------------------------------------------*
     933 000010 930E          TST.W     r14                   ; [] |364| 
MSP430 Assembler PC v21.6.1 Tue Dec 20 13:46:02 2022

Copyright (c) 2003-2018 Texas Instruments Incorporated
TC_Fault_Check.asm                                                   PAGE   18

     934 000012 2004          JNE       $C$L4                 ; [] |364| 
     935                                                      ; [] |364| 
     936            ;* --------------------------------------------------------------------------*
     937 000014 930D          TST.W     r13                   ; [] |364| 
     938 000016 2002          JNE       $C$L4                 ; [] |364| 
     939                                                      ; [] |364| 
     940            ;* --------------------------------------------------------------------------*
     941 000018 930C          TST.W     r12                   ; [] |364| 
     942 00001a 2401          JEQ       $C$L5                 ; [] |364| 
     943                                                      ; [] |364| 
     944            ;* --------------------------------------------------------------------------*
     945 00001c       $C$L4:    
     946 00001c 431B          MOV.W     #1,r11                ; [] |364| 
     947            ;* --------------------------------------------------------------------------*
     948 00001e       $C$L5:    
     949 00001e 0BCC          MOVA      r11,r12               ; [] |364| 
     950                    .dwpsn  file "C:/ti/ccs1110/ccs/tools/compiler/ti-cgt-msp430_21.6.1.LTS/include/_defs.h",line 
     951            $C$DW$70        .dwtag  DW_TAG_TI_branch
     952                    .dwattr $C$DW$70, DW_AT_low_pc(0x00)
     953                    .dwattr $C$DW$70, DW_AT_TI_return
     954            
     955 000020 0110          RETA      ; [] 
     956                    ; [] 
     957                    .dwattr $C$DW$68, DW_AT_TI_end_file("C:/ti/ccs1110/ccs/tools/compiler/ti-cgt-msp430_21.6.1.LTS
     958                    .dwattr $C$DW$68, DW_AT_TI_end_line(0x16c)
     959                    .dwattr $C$DW$68, DW_AT_TI_end_column(0x2a)
     960                    .dwendentry
     961                    .dwendtag $C$DW$68
     962            
     963 000000               .sect   ".text:__isnormall"
     964                    .clink
     965                    .global __isnormall
     966            
     967            $C$DW$71        .dwtag  DW_TAG_subprogram
     968                    .dwattr $C$DW$71, DW_AT_name("__isnormall")
     969                    .dwattr $C$DW$71, DW_AT_low_pc(__isnormall)
     970                    .dwattr $C$DW$71, DW_AT_high_pc(0x00)
     971                    .dwattr $C$DW$71, DW_AT_TI_symbol_name("__isnormall")
     972                    .dwattr $C$DW$71, DW_AT_external
     973                    .dwattr $C$DW$71, DW_AT_type(*$C$DW$T$10)
     974                    .dwattr $C$DW$71, DW_AT_TI_begin_file("C:/ti/ccs1110/ccs/tools/compiler/ti-cgt-msp430_21.6.1.L
     975                    .dwattr $C$DW$71, DW_AT_TI_begin_line(0x167)
     976                    .dwattr $C$DW$71, DW_AT_TI_begin_column(0x25)
     977                    .dwattr $C$DW$71, DW_AT_decl_file("C:/ti/ccs1110/ccs/tools/compiler/ti-cgt-msp430_21.6.1.LTS/i
     978                    .dwattr $C$DW$71, DW_AT_decl_line(0x167)
     979                    .dwattr $C$DW$71, DW_AT_decl_column(0x25)
     980                    .dwattr $C$DW$71, DW_AT_TI_max_frame_size(0x18)
     981                    .dwpsn  file "C:/ti/ccs1110/ccs/tools/compiler/ti-cgt-msp430_21.6.1.LTS/include/_defs.h",line 
     982            
     983                    .dwfde $C$DW$CIE, __isnormall
     984            $C$DW$72        .dwtag  DW_TAG_formal_parameter
     985                    .dwattr $C$DW$72, DW_AT_name("e")
     986                    .dwattr $C$DW$72, DW_AT_TI_symbol_name("e")
     987                    .dwattr $C$DW$72, DW_AT_type(*$C$DW$T$18)
     988                    .dwattr $C$DW$72, DW_AT_location[DW_OP_reg12 DW_OP_piece 2 DW_OP_reg13 DW_OP_piece 2 DW_OP_reg
MSP430 Assembler PC v21.6.1 Tue Dec 20 13:46:02 2022

Copyright (c) 2003-2018 Texas Instruments Incorporated
TC_Fault_Check.asm                                                   PAGE   19

     989            
     990            
     991            ;*****************************************************************************
     992            ;* FUNCTION NAME: __isnormall                                                *
     993            ;*                                                                           *
     994            ;*   Regs Modified     : SP,SR,r6,r7,r8,r9,r10,r11,r12,r13,r14,r15           *
     995            ;*   Regs Used         : SP,SR,r6,r7,r8,r9,r10,r11,r12,r13,r14,r15           *
     996            ;*   Local Frame Size  : 0 Args + 0 Auto + 20 Save = 20 byte                 *
     997            ;*****************************************************************************
     998 000000       __isnormall:
     999            ;* --------------------------------------------------------------------------*
    1000                    .dwcfi  cfa_offset, 4
    1001                    .dwcfi  save_reg_to_mem, 16, -4
    1002 000000 144A          PUSHM.A   #5,r10                ; [] 
    1003                    .dwcfi  save_reg_to_mem, 10, -8
    1004                    .dwcfi  save_reg_to_mem, 9, -12
    1005                    .dwcfi  save_reg_to_mem, 8, -16
    1006                    .dwcfi  save_reg_to_mem, 7, -20
    1007                    .dwcfi  save_reg_to_mem, 6, -24
    1008                    .dwcfi  cfa_offset, 24
    1009            ;* r6    assigned to $O$S1
    1010            ;* r12   assigned to e
    1011            $C$DW$73        .dwtag  DW_TAG_variable
    1012                    .dwattr $C$DW$73, DW_AT_name("e")
    1013                    .dwattr $C$DW$73, DW_AT_TI_symbol_name("e")
    1014                    .dwattr $C$DW$73, DW_AT_type(*$C$DW$T$18)
    1015                    .dwattr $C$DW$73, DW_AT_location[DW_OP_reg12 DW_OP_piece 2 DW_OP_reg13 DW_OP_piece 2 DW_OP_reg
    1016            
    1017 000002 0FC7          MOVA      r15,r7                ; [] |360| 
    1018                    .dwpsn  file "C:/ti/ccs1110/ccs/tools/compiler/ti-cgt-msp430_21.6.1.LTS/include/_defs.h",line 
    1019 000004 4306          MOV.W     #0,r6                 ; [] |360| 
    1020 000006 0CC8          MOVA      r12,r8                ; [] |360| 
    1021 000008 0DC9          MOVA      r13,r9                ; [] |360| 
    1022 00000a 0ECA          MOVA      r14,r10               ; [] |360| 
    1023 00000c 07CB          MOVA      r7,r11                ; [] |360| 
    1024 00000e 403C          MOV.W     #52,r12               ; [] |360| 
         000010 0034 
    1025            $C$DW$74        .dwtag  DW_TAG_TI_branch
    1026                    .dwattr $C$DW$74, DW_AT_low_pc(0x00)
    1027                    .dwattr $C$DW$74, DW_AT_name("__mspabi_srlll")
    1028                    .dwattr $C$DW$74, DW_AT_TI_call
    1029            
    1030 000012 13B0!         CALLA     #__mspabi_srlll       ; [] |360| 
         000014 0000 
    1031                                                      ; [] |360| 
    1032 000016 F03C          AND.W     #2047,r12             ; [] |360| 
         000018 07FF 
    1033 00001a F30D          AND.W     #0,r13                ; [] |360| 
    1034 00001c F30E          AND.W     #0,r14                ; [] |360| 
    1035 00001e F30F          AND.W     #0,r15                ; [] |360| 
    1036 000020 930F          TST.W     r15                   ; [] |360| 
    1037 000022 2006          JNE       $C$L6                 ; [] |360| 
    1038                                                      ; [] |360| 
    1039            ;* --------------------------------------------------------------------------*
    1040 000024 930E          TST.W     r14                   ; [] |360| 
MSP430 Assembler PC v21.6.1 Tue Dec 20 13:46:02 2022

Copyright (c) 2003-2018 Texas Instruments Incorporated
TC_Fault_Check.asm                                                   PAGE   20

    1041 000026 2004          JNE       $C$L6                 ; [] |360| 
    1042                                                      ; [] |360| 
    1043            ;* --------------------------------------------------------------------------*
    1044 000028 930D          TST.W     r13                   ; [] |360| 
    1045 00002a 2002          JNE       $C$L6                 ; [] |360| 
    1046                                                      ; [] |360| 
    1047            ;* --------------------------------------------------------------------------*
    1048 00002c 930C          TST.W     r12                   ; [] |360| 
    1049 00002e 2406          JEQ       $C$L7                 ; [] |360| 
    1050                                                      ; [] |360| 
    1051            ;* --------------------------------------------------------------------------*
    1052 000030       $C$L6:    
    1053 000030 F037          AND.W     #32752,r7             ; [] |360| 
         000032 7FF0 
    1054 000034 9037          CMP.W     #32752,r7             ; [] |360| 
         000036 7FF0 
    1055 000038 2401          JEQ       $C$L7                 ; [] |360| 
    1056                                                      ; [] |360| 
    1057            ;* --------------------------------------------------------------------------*
    1058 00003a 4316          MOV.W     #1,r6                 ; [] |360| 
    1059            ;* --------------------------------------------------------------------------*
    1060 00003c       $C$L7:    
    1061 00003c 06CC          MOVA      r6,r12                ; [] |360| 
    1062                    .dwpsn  file "C:/ti/ccs1110/ccs/tools/compiler/ti-cgt-msp430_21.6.1.LTS/include/_defs.h",line 
    1063 00003e 1646          POPM.A    #5,r10                ; [] 
    1064                    .dwcfi  restore_reg, 6
    1065                    .dwcfi  restore_reg, 7
    1066                    .dwcfi  restore_reg, 8
    1067                    .dwcfi  restore_reg, 9
    1068                    .dwcfi  restore_reg, 10
    1069                    .dwcfi  cfa_offset, 4
    1070            $C$DW$75        .dwtag  DW_TAG_TI_branch
    1071                    .dwattr $C$DW$75, DW_AT_low_pc(0x00)
    1072                    .dwattr $C$DW$75, DW_AT_TI_return
    1073            
    1074 000040 0110          RETA      ; [] 
    1075                    ; [] 
    1076                    .dwattr $C$DW$71, DW_AT_TI_end_file("C:/ti/ccs1110/ccs/tools/compiler/ti-cgt-msp430_21.6.1.LTS
    1077                    .dwattr $C$DW$71, DW_AT_TI_end_line(0x169)
    1078                    .dwattr $C$DW$71, DW_AT_TI_end_column(0x31)
    1079                    .dwendentry
    1080                    .dwendtag $C$DW$71
    1081            
    1082 000000               .sect   ".text:__isnormalf"
    1083                    .clink
    1084                    .global __isnormalf
    1085            
    1086            $C$DW$76        .dwtag  DW_TAG_subprogram
    1087                    .dwattr $C$DW$76, DW_AT_name("__isnormalf")
    1088                    .dwattr $C$DW$76, DW_AT_low_pc(__isnormalf)
    1089                    .dwattr $C$DW$76, DW_AT_high_pc(0x00)
    1090                    .dwattr $C$DW$76, DW_AT_TI_symbol_name("__isnormalf")
    1091                    .dwattr $C$DW$76, DW_AT_external
    1092                    .dwattr $C$DW$76, DW_AT_type(*$C$DW$T$10)
    1093                    .dwattr $C$DW$76, DW_AT_TI_begin_file("C:/ti/ccs1110/ccs/tools/compiler/ti-cgt-msp430_21.6.1.L
MSP430 Assembler PC v21.6.1 Tue Dec 20 13:46:02 2022

Copyright (c) 2003-2018 Texas Instruments Incorporated
TC_Fault_Check.asm                                                   PAGE   21

    1094                    .dwattr $C$DW$76, DW_AT_TI_begin_line(0x163)
    1095                    .dwattr $C$DW$76, DW_AT_TI_begin_column(0x25)
    1096                    .dwattr $C$DW$76, DW_AT_decl_file("C:/ti/ccs1110/ccs/tools/compiler/ti-cgt-msp430_21.6.1.LTS/i
    1097                    .dwattr $C$DW$76, DW_AT_decl_line(0x163)
    1098                    .dwattr $C$DW$76, DW_AT_decl_column(0x25)
    1099                    .dwattr $C$DW$76, DW_AT_TI_max_frame_size(0x04)
    1100                    .dwpsn  file "C:/ti/ccs1110/ccs/tools/compiler/ti-cgt-msp430_21.6.1.LTS/include/_defs.h",line 
    1101            
    1102                    .dwfde $C$DW$CIE, __isnormalf
    1103            $C$DW$77        .dwtag  DW_TAG_formal_parameter
    1104                    .dwattr $C$DW$77, DW_AT_name("f")
    1105                    .dwattr $C$DW$77, DW_AT_TI_symbol_name("f")
    1106                    .dwattr $C$DW$77, DW_AT_type(*$C$DW$T$16)
    1107                    .dwattr $C$DW$77, DW_AT_location[DW_OP_reg12 DW_OP_piece 2 DW_OP_reg13 DW_OP_piece 2]
    1108            
    1109            
    1110            ;*****************************************************************************
    1111            ;* FUNCTION NAME: __isnormalf                                                *
    1112            ;*                                                                           *
    1113            ;*   Regs Modified     : SP,SR,r12,r13,r15                                   *
    1114            ;*   Regs Used         : SP,SR,r12,r13,r15                                   *
    1115            ;*   Local Frame Size  : 0 Args + 0 Auto + 0 Save = 0 byte                   *
    1116            ;*****************************************************************************
    1117 000000       __isnormalf:
    1118            ;* --------------------------------------------------------------------------*
    1119                    .dwcfi  cfa_offset, 4
    1120                    .dwcfi  save_reg_to_mem, 16, -4
    1121            ;* r12   assigned to $O$S1
    1122                    .dwpsn  file "C:/ti/ccs1110/ccs/tools/compiler/ti-cgt-msp430_21.6.1.LTS/include/_defs.h",line 
    1123 000000 430C          MOV.W     #0,r12                ; [] |356| 
    1124 000002 0DCF          MOVA      r13,r15               ; [] |356| 
    1125 000004 1946          RPT #7 || RRUX.W r15 ; [] |356| 
         000006 100F 
    1126 000008 B03F          BIT.W     #255,r15              ; [] |356| 
         00000a 00FF 
    1127 00000c 2406          JEQ       $C$L8                 ; [] |356| 
    1128                                                      ; [] |356| 
    1129            ;* --------------------------------------------------------------------------*
    1130 00000e F03D          AND.W     #32640,r13            ; [] |356| 
         000010 7F80 
    1131 000012 903D          CMP.W     #32640,r13            ; [] |356| 
         000014 7F80 
    1132 000016 2401          JEQ       $C$L8                 ; [] |356| 
    1133                                                      ; [] |356| 
    1134            ;* --------------------------------------------------------------------------*
    1135 000018 431C          MOV.W     #1,r12                ; [] |356| 
    1136            ;* --------------------------------------------------------------------------*
    1137 00001a       $C$L8:    
    1138                    .dwpsn  file "C:/ti/ccs1110/ccs/tools/compiler/ti-cgt-msp430_21.6.1.LTS/include/_defs.h",line 
    1139            $C$DW$78        .dwtag  DW_TAG_TI_branch
    1140                    .dwattr $C$DW$78, DW_AT_low_pc(0x00)
    1141                    .dwattr $C$DW$78, DW_AT_TI_return
    1142            
    1143 00001a 0110          RETA      ; [] 
    1144                    ; [] 
MSP430 Assembler PC v21.6.1 Tue Dec 20 13:46:02 2022

Copyright (c) 2003-2018 Texas Instruments Incorporated
TC_Fault_Check.asm                                                   PAGE   22

    1145                    .dwattr $C$DW$76, DW_AT_TI_end_file("C:/ti/ccs1110/ccs/tools/compiler/ti-cgt-msp430_21.6.1.LTS
    1146                    .dwattr $C$DW$76, DW_AT_TI_end_line(0x165)
    1147                    .dwattr $C$DW$76, DW_AT_TI_end_column(0x2f)
    1148                    .dwendentry
    1149                    .dwendtag $C$DW$76
    1150            
    1151 000000               .sect   ".text:__isnormal"
    1152                    .clink
    1153                    .global __isnormal
    1154            
    1155            $C$DW$79        .dwtag  DW_TAG_subprogram
    1156                    .dwattr $C$DW$79, DW_AT_name("__isnormal")
    1157                    .dwattr $C$DW$79, DW_AT_low_pc(__isnormal)
    1158                    .dwattr $C$DW$79, DW_AT_high_pc(0x00)
    1159                    .dwattr $C$DW$79, DW_AT_TI_symbol_name("__isnormal")
    1160                    .dwattr $C$DW$79, DW_AT_external
    1161                    .dwattr $C$DW$79, DW_AT_type(*$C$DW$T$10)
    1162                    .dwattr $C$DW$79, DW_AT_TI_begin_file("C:/ti/ccs1110/ccs/tools/compiler/ti-cgt-msp430_21.6.1.L
    1163                    .dwattr $C$DW$79, DW_AT_TI_begin_line(0x15f)
    1164                    .dwattr $C$DW$79, DW_AT_TI_begin_column(0x25)
    1165                    .dwattr $C$DW$79, DW_AT_decl_file("C:/ti/ccs1110/ccs/tools/compiler/ti-cgt-msp430_21.6.1.LTS/i
    1166                    .dwattr $C$DW$79, DW_AT_decl_line(0x15f)
    1167                    .dwattr $C$DW$79, DW_AT_decl_column(0x25)
    1168                    .dwattr $C$DW$79, DW_AT_TI_max_frame_size(0x18)
    1169                    .dwpsn  file "C:/ti/ccs1110/ccs/tools/compiler/ti-cgt-msp430_21.6.1.LTS/include/_defs.h",line 
    1170            
    1171                    .dwfde $C$DW$CIE, __isnormal
    1172            $C$DW$80        .dwtag  DW_TAG_formal_parameter
    1173                    .dwattr $C$DW$80, DW_AT_name("d")
    1174                    .dwattr $C$DW$80, DW_AT_TI_symbol_name("d")
    1175                    .dwattr $C$DW$80, DW_AT_type(*$C$DW$T$17)
    1176                    .dwattr $C$DW$80, DW_AT_location[DW_OP_reg12 DW_OP_piece 2 DW_OP_reg13 DW_OP_piece 2 DW_OP_reg
    1177            
    1178            
    1179            ;*****************************************************************************
    1180            ;* FUNCTION NAME: __isnormal                                                 *
    1181            ;*                                                                           *
    1182            ;*   Regs Modified     : SP,SR,r6,r7,r8,r9,r10,r11,r12,r13,r14,r15           *
    1183            ;*   Regs Used         : SP,SR,r6,r7,r8,r9,r10,r11,r12,r13,r14,r15           *
    1184            ;*   Local Frame Size  : 0 Args + 0 Auto + 20 Save = 20 byte                 *
    1185            ;*****************************************************************************
    1186 000000       __isnormal:
    1187            ;* --------------------------------------------------------------------------*
    1188                    .dwcfi  cfa_offset, 4
    1189                    .dwcfi  save_reg_to_mem, 16, -4
    1190 000000 144A          PUSHM.A   #5,r10                ; [] 
    1191                    .dwcfi  save_reg_to_mem, 10, -8
    1192                    .dwcfi  save_reg_to_mem, 9, -12
    1193                    .dwcfi  save_reg_to_mem, 8, -16
    1194                    .dwcfi  save_reg_to_mem, 7, -20
    1195                    .dwcfi  save_reg_to_mem, 6, -24
    1196                    .dwcfi  cfa_offset, 24
    1197            ;* r6    assigned to $O$S1
    1198            ;* r12   assigned to d
    1199            $C$DW$81        .dwtag  DW_TAG_variable
MSP430 Assembler PC v21.6.1 Tue Dec 20 13:46:02 2022

Copyright (c) 2003-2018 Texas Instruments Incorporated
TC_Fault_Check.asm                                                   PAGE   23

    1200                    .dwattr $C$DW$81, DW_AT_name("d")
    1201                    .dwattr $C$DW$81, DW_AT_TI_symbol_name("d")
    1202                    .dwattr $C$DW$81, DW_AT_type(*$C$DW$T$17)
    1203                    .dwattr $C$DW$81, DW_AT_location[DW_OP_reg12 DW_OP_piece 2 DW_OP_reg13 DW_OP_piece 2 DW_OP_reg
    1204            
    1205 000002 0FC7          MOVA      r15,r7                ; [] |352| 
    1206                    .dwpsn  file "C:/ti/ccs1110/ccs/tools/compiler/ti-cgt-msp430_21.6.1.LTS/include/_defs.h",line 
    1207 000004 4306          MOV.W     #0,r6                 ; [] |352| 
    1208 000006 0CC8          MOVA      r12,r8                ; [] |352| 
    1209 000008 0DC9          MOVA      r13,r9                ; [] |352| 
    1210 00000a 0ECA          MOVA      r14,r10               ; [] |352| 
    1211 00000c 07CB          MOVA      r7,r11                ; [] |352| 
    1212 00000e 403C          MOV.W     #52,r12               ; [] |352| 
         000010 0034 
    1213            $C$DW$82        .dwtag  DW_TAG_TI_branch
    1214                    .dwattr $C$DW$82, DW_AT_low_pc(0x00)
    1215                    .dwattr $C$DW$82, DW_AT_name("__mspabi_srlll")
    1216                    .dwattr $C$DW$82, DW_AT_TI_call
    1217            
    1218 000012 13B0!         CALLA     #__mspabi_srlll       ; [] |352| 
         000014 0000 
    1219                                                      ; [] |352| 
    1220 000016 F03C          AND.W     #2047,r12             ; [] |352| 
         000018 07FF 
    1221 00001a F30D          AND.W     #0,r13                ; [] |352| 
    1222 00001c F30E          AND.W     #0,r14                ; [] |352| 
    1223 00001e F30F          AND.W     #0,r15                ; [] |352| 
    1224 000020 930F          TST.W     r15                   ; [] |352| 
    1225 000022 2006          JNE       $C$L9                 ; [] |352| 
    1226                                                      ; [] |352| 
    1227            ;* --------------------------------------------------------------------------*
    1228 000024 930E          TST.W     r14                   ; [] |352| 
    1229 000026 2004          JNE       $C$L9                 ; [] |352| 
    1230                                                      ; [] |352| 
    1231            ;* --------------------------------------------------------------------------*
    1232 000028 930D          TST.W     r13                   ; [] |352| 
    1233 00002a 2002          JNE       $C$L9                 ; [] |352| 
    1234                                                      ; [] |352| 
    1235            ;* --------------------------------------------------------------------------*
    1236 00002c 930C          TST.W     r12                   ; [] |352| 
    1237 00002e 2406          JEQ       $C$L10                ; [] |352| 
    1238                                                      ; [] |352| 
    1239            ;* --------------------------------------------------------------------------*
    1240 000030       $C$L9:    
    1241 000030 F037          AND.W     #32752,r7             ; [] |352| 
         000032 7FF0 
    1242 000034 9037          CMP.W     #32752,r7             ; [] |352| 
         000036 7FF0 
    1243 000038 2401          JEQ       $C$L10                ; [] |352| 
    1244                                                      ; [] |352| 
    1245            ;* --------------------------------------------------------------------------*
    1246 00003a 4316          MOV.W     #1,r6                 ; [] |352| 
    1247            ;* --------------------------------------------------------------------------*
    1248 00003c       $C$L10:    
    1249 00003c 06CC          MOVA      r6,r12                ; [] |352| 
MSP430 Assembler PC v21.6.1 Tue Dec 20 13:46:02 2022

Copyright (c) 2003-2018 Texas Instruments Incorporated
TC_Fault_Check.asm                                                   PAGE   24

    1250                    .dwpsn  file "C:/ti/ccs1110/ccs/tools/compiler/ti-cgt-msp430_21.6.1.LTS/include/_defs.h",line 
    1251 00003e 1646          POPM.A    #5,r10                ; [] 
    1252                    .dwcfi  restore_reg, 6
    1253                    .dwcfi  restore_reg, 7
    1254                    .dwcfi  restore_reg, 8
    1255                    .dwcfi  restore_reg, 9
    1256                    .dwcfi  restore_reg, 10
    1257                    .dwcfi  cfa_offset, 4
    1258            $C$DW$83        .dwtag  DW_TAG_TI_branch
    1259                    .dwattr $C$DW$83, DW_AT_low_pc(0x00)
    1260                    .dwattr $C$DW$83, DW_AT_TI_return
    1261            
    1262 000040 0110          RETA      ; [] 
    1263                    ; [] 
    1264                    .dwattr $C$DW$79, DW_AT_TI_end_file("C:/ti/ccs1110/ccs/tools/compiler/ti-cgt-msp430_21.6.1.LTS
    1265                    .dwattr $C$DW$79, DW_AT_TI_end_line(0x161)
    1266                    .dwattr $C$DW$79, DW_AT_TI_end_column(0x30)
    1267                    .dwendentry
    1268                    .dwendtag $C$DW$79
    1269            
    1270 000000               .sect   ".text:__isnanl"
    1271                    .clink
    1272                    .global __isnanl
    1273            
    1274            $C$DW$84        .dwtag  DW_TAG_subprogram
    1275                    .dwattr $C$DW$84, DW_AT_name("__isnanl")
    1276                    .dwattr $C$DW$84, DW_AT_low_pc(__isnanl)
    1277                    .dwattr $C$DW$84, DW_AT_high_pc(0x00)
    1278                    .dwattr $C$DW$84, DW_AT_TI_symbol_name("__isnanl")
    1279                    .dwattr $C$DW$84, DW_AT_external
    1280                    .dwattr $C$DW$84, DW_AT_type(*$C$DW$T$10)
    1281                    .dwattr $C$DW$84, DW_AT_TI_begin_file("C:/ti/ccs1110/ccs/tools/compiler/ti-cgt-msp430_21.6.1.L
    1282                    .dwattr $C$DW$84, DW_AT_TI_begin_line(0x15b)
    1283                    .dwattr $C$DW$84, DW_AT_TI_begin_column(0x25)
    1284                    .dwattr $C$DW$84, DW_AT_decl_file("C:/ti/ccs1110/ccs/tools/compiler/ti-cgt-msp430_21.6.1.LTS/i
    1285                    .dwattr $C$DW$84, DW_AT_decl_line(0x15b)
    1286                    .dwattr $C$DW$84, DW_AT_decl_column(0x25)
    1287                    .dwattr $C$DW$84, DW_AT_TI_max_frame_size(0x08)
    1288                    .dwpsn  file "C:/ti/ccs1110/ccs/tools/compiler/ti-cgt-msp430_21.6.1.LTS/include/_defs.h",line 
    1289            
    1290                    .dwfde $C$DW$CIE, __isnanl
    1291            $C$DW$85        .dwtag  DW_TAG_formal_parameter
    1292                    .dwattr $C$DW$85, DW_AT_name("e")
    1293                    .dwattr $C$DW$85, DW_AT_TI_symbol_name("e")
    1294                    .dwattr $C$DW$85, DW_AT_type(*$C$DW$T$18)
    1295                    .dwattr $C$DW$85, DW_AT_location[DW_OP_reg12 DW_OP_piece 2 DW_OP_reg13 DW_OP_piece 2 DW_OP_reg
    1296            
    1297            
    1298            ;*****************************************************************************
    1299            ;* FUNCTION NAME: __isnanl                                                   *
    1300            ;*                                                                           *
    1301            ;*   Regs Modified     : SP,SR,r10,r11,r12,r13,r14,r15                       *
    1302            ;*   Regs Used         : SP,SR,r10,r11,r12,r13,r14,r15                       *
    1303            ;*   Local Frame Size  : 0 Args + 0 Auto + 4 Save = 4 byte                   *
    1304            ;*****************************************************************************
MSP430 Assembler PC v21.6.1 Tue Dec 20 13:46:02 2022

Copyright (c) 2003-2018 Texas Instruments Incorporated
TC_Fault_Check.asm                                                   PAGE   25

    1305 000000       __isnanl:
    1306            ;* --------------------------------------------------------------------------*
    1307                    .dwcfi  cfa_offset, 4
    1308                    .dwcfi  save_reg_to_mem, 16, -4
    1309 000000 140A          PUSHM.A   #1,r10                ; [] 
    1310                    .dwcfi  save_reg_to_mem, 10, -8
    1311                    .dwcfi  cfa_offset, 8
    1312            ;* r11   assigned to $O$S1
    1313                    .dwpsn  file "C:/ti/ccs1110/ccs/tools/compiler/ti-cgt-msp430_21.6.1.LTS/include/_defs.h",line 
    1314 000002 430B          MOV.W     #0,r11                ; [] |348| 
    1315 000004 0FCA          MOVA      r15,r10               ; [] |348| 
    1316 000006 F03A          AND.W     #32752,r10            ; [] |348| 
         000008 7FF0 
    1317 00000a 903A          CMP.W     #32752,r10            ; [] |348| 
         00000c 7FF0 
    1318 00000e 200E          JNE       $C$L12                ; [] |348| 
    1319                                                      ; [] |348| 
    1320            ;* --------------------------------------------------------------------------*
    1321 000010 F33C          AND.W     #65535,r12            ; [] |348| 
    1322 000012 F33D          AND.W     #65535,r13            ; [] |348| 
    1323 000014 F33E          AND.W     #65535,r14            ; [] |348| 
    1324 000016 F03F          AND.W     #15,r15               ; [] |348| 
         000018 000F 
    1325 00001a 930F          TST.W     r15                   ; [] |348| 
    1326 00001c 2006          JNE       $C$L11                ; [] |348| 
    1327                                                      ; [] |348| 
    1328            ;* --------------------------------------------------------------------------*
    1329 00001e 930E          TST.W     r14                   ; [] |348| 
    1330 000020 2004          JNE       $C$L11                ; [] |348| 
    1331                                                      ; [] |348| 
    1332            ;* --------------------------------------------------------------------------*
    1333 000022 930D          TST.W     r13                   ; [] |348| 
    1334 000024 2002          JNE       $C$L11                ; [] |348| 
    1335                                                      ; [] |348| 
    1336            ;* --------------------------------------------------------------------------*
    1337 000026 930C          TST.W     r12                   ; [] |348| 
    1338 000028 2401          JEQ       $C$L12                ; [] |348| 
    1339                                                      ; [] |348| 
    1340            ;* --------------------------------------------------------------------------*
    1341 00002a       $C$L11:    
    1342 00002a 431B          MOV.W     #1,r11                ; [] |348| 
    1343            ;* --------------------------------------------------------------------------*
    1344 00002c       $C$L12:    
    1345 00002c 0BCC          MOVA      r11,r12               ; [] |348| 
    1346                    .dwpsn  file "C:/ti/ccs1110/ccs/tools/compiler/ti-cgt-msp430_21.6.1.LTS/include/_defs.h",line 
    1347 00002e 160A          POPM.A    #1,r10                ; [] 
    1348                    .dwcfi  restore_reg, 10
    1349                    .dwcfi  cfa_offset, 4
    1350            $C$DW$86        .dwtag  DW_TAG_TI_branch
    1351                    .dwattr $C$DW$86, DW_AT_low_pc(0x00)
    1352                    .dwattr $C$DW$86, DW_AT_TI_return
    1353            
    1354 000030 0110          RETA      ; [] 
    1355                    ; [] 
    1356                    .dwattr $C$DW$84, DW_AT_TI_end_file("C:/ti/ccs1110/ccs/tools/compiler/ti-cgt-msp430_21.6.1.LTS
MSP430 Assembler PC v21.6.1 Tue Dec 20 13:46:02 2022

Copyright (c) 2003-2018 Texas Instruments Incorporated
TC_Fault_Check.asm                                                   PAGE   26

    1357                    .dwattr $C$DW$84, DW_AT_TI_end_line(0x15d)
    1358                    .dwattr $C$DW$84, DW_AT_TI_end_column(0x30)
    1359                    .dwendentry
    1360                    .dwendtag $C$DW$84
    1361            
    1362 000000               .sect   ".text:__isnanf"
    1363                    .clink
    1364                    .global __isnanf
    1365            
    1366            $C$DW$87        .dwtag  DW_TAG_subprogram
    1367                    .dwattr $C$DW$87, DW_AT_name("__isnanf")
    1368                    .dwattr $C$DW$87, DW_AT_low_pc(__isnanf)
    1369                    .dwattr $C$DW$87, DW_AT_high_pc(0x00)
    1370                    .dwattr $C$DW$87, DW_AT_TI_symbol_name("__isnanf")
    1371                    .dwattr $C$DW$87, DW_AT_external
    1372                    .dwattr $C$DW$87, DW_AT_type(*$C$DW$T$10)
    1373                    .dwattr $C$DW$87, DW_AT_TI_begin_file("C:/ti/ccs1110/ccs/tools/compiler/ti-cgt-msp430_21.6.1.L
    1374                    .dwattr $C$DW$87, DW_AT_TI_begin_line(0x158)
    1375                    .dwattr $C$DW$87, DW_AT_TI_begin_column(0x25)
    1376                    .dwattr $C$DW$87, DW_AT_decl_file("C:/ti/ccs1110/ccs/tools/compiler/ti-cgt-msp430_21.6.1.LTS/i
    1377                    .dwattr $C$DW$87, DW_AT_decl_line(0x158)
    1378                    .dwattr $C$DW$87, DW_AT_decl_column(0x25)
    1379                    .dwattr $C$DW$87, DW_AT_TI_max_frame_size(0x04)
    1380                    .dwpsn  file "C:/ti/ccs1110/ccs/tools/compiler/ti-cgt-msp430_21.6.1.LTS/include/_defs.h",line 
    1381            
    1382                    .dwfde $C$DW$CIE, __isnanf
    1383            $C$DW$88        .dwtag  DW_TAG_formal_parameter
    1384                    .dwattr $C$DW$88, DW_AT_name("f")
    1385                    .dwattr $C$DW$88, DW_AT_TI_symbol_name("f")
    1386                    .dwattr $C$DW$88, DW_AT_type(*$C$DW$T$16)
    1387                    .dwattr $C$DW$88, DW_AT_location[DW_OP_reg12 DW_OP_piece 2 DW_OP_reg13 DW_OP_piece 2]
    1388            
    1389            
    1390            ;*****************************************************************************
    1391            ;* FUNCTION NAME: __isnanf                                                   *
    1392            ;*                                                                           *
    1393            ;*   Regs Modified     : SP,SR,r12,r13,r14,r15                               *
    1394            ;*   Regs Used         : SP,SR,r12,r13,r14,r15                               *
    1395            ;*   Local Frame Size  : 0 Args + 0 Auto + 0 Save = 0 byte                   *
    1396            ;*****************************************************************************
    1397 000000       __isnanf:
    1398            ;* --------------------------------------------------------------------------*
    1399                    .dwcfi  cfa_offset, 4
    1400                    .dwcfi  save_reg_to_mem, 16, -4
    1401            ;* r15   assigned to $O$S1
    1402                    .dwpsn  file "C:/ti/ccs1110/ccs/tools/compiler/ti-cgt-msp430_21.6.1.LTS/include/_defs.h",line 
    1403 000000 430F          MOV.W     #0,r15                ; [] |345| 
    1404 000002 0DCE          MOVA      r13,r14               ; [] |345| 
    1405 000004 F03E          AND.W     #32640,r14            ; [] |345| 
         000006 7F80 
    1406 000008 903E          CMP.W     #32640,r14            ; [] |345| 
         00000a 7F80 
    1407 00000c 2008          JNE       $C$L14                ; [] |345| 
    1408                                                      ; [] |345| 
    1409            ;* --------------------------------------------------------------------------*
MSP430 Assembler PC v21.6.1 Tue Dec 20 13:46:02 2022

Copyright (c) 2003-2018 Texas Instruments Incorporated
TC_Fault_Check.asm                                                   PAGE   27

    1410 00000e F33C          AND.W     #65535,r12            ; [] |345| 
    1411 000010 F03D          AND.W     #127,r13              ; [] |345| 
         000012 007F 
    1412 000014 930D          TST.W     r13                   ; [] |345| 
    1413 000016 2002          JNE       $C$L13                ; [] |345| 
    1414                                                      ; [] |345| 
    1415            ;* --------------------------------------------------------------------------*
    1416 000018 930C          TST.W     r12                   ; [] |345| 
    1417 00001a 2401          JEQ       $C$L14                ; [] |345| 
    1418                                                      ; [] |345| 
    1419            ;* --------------------------------------------------------------------------*
    1420 00001c       $C$L13:    
    1421 00001c 431F          MOV.W     #1,r15                ; [] |345| 
    1422            ;* --------------------------------------------------------------------------*
    1423 00001e       $C$L14:    
    1424 00001e 0FCC          MOVA      r15,r12               ; [] |345| 
    1425                    .dwpsn  file "C:/ti/ccs1110/ccs/tools/compiler/ti-cgt-msp430_21.6.1.LTS/include/_defs.h",line 
    1426            $C$DW$89        .dwtag  DW_TAG_TI_branch
    1427                    .dwattr $C$DW$89, DW_AT_low_pc(0x00)
    1428                    .dwattr $C$DW$89, DW_AT_TI_return
    1429            
    1430 000020 0110          RETA      ; [] 
    1431                    ; [] 
    1432                    .dwattr $C$DW$87, DW_AT_TI_end_file("C:/ti/ccs1110/ccs/tools/compiler/ti-cgt-msp430_21.6.1.LTS
    1433                    .dwattr $C$DW$87, DW_AT_TI_end_line(0x15a)
    1434                    .dwattr $C$DW$87, DW_AT_TI_end_column(0x2e)
    1435                    .dwendentry
    1436                    .dwendtag $C$DW$87
    1437            
    1438 000000               .sect   ".text:__isnan"
    1439                    .clink
    1440                    .global __isnan
    1441            
    1442            $C$DW$90        .dwtag  DW_TAG_subprogram
    1443                    .dwattr $C$DW$90, DW_AT_name("__isnan")
    1444                    .dwattr $C$DW$90, DW_AT_low_pc(__isnan)
    1445                    .dwattr $C$DW$90, DW_AT_high_pc(0x00)
    1446                    .dwattr $C$DW$90, DW_AT_TI_symbol_name("__isnan")
    1447                    .dwattr $C$DW$90, DW_AT_external
    1448                    .dwattr $C$DW$90, DW_AT_type(*$C$DW$T$10)
    1449                    .dwattr $C$DW$90, DW_AT_TI_begin_file("C:/ti/ccs1110/ccs/tools/compiler/ti-cgt-msp430_21.6.1.L
    1450                    .dwattr $C$DW$90, DW_AT_TI_begin_line(0x155)
    1451                    .dwattr $C$DW$90, DW_AT_TI_begin_column(0x25)
    1452                    .dwattr $C$DW$90, DW_AT_decl_file("C:/ti/ccs1110/ccs/tools/compiler/ti-cgt-msp430_21.6.1.LTS/i
    1453                    .dwattr $C$DW$90, DW_AT_decl_line(0x155)
    1454                    .dwattr $C$DW$90, DW_AT_decl_column(0x25)
    1455                    .dwattr $C$DW$90, DW_AT_TI_max_frame_size(0x08)
    1456                    .dwpsn  file "C:/ti/ccs1110/ccs/tools/compiler/ti-cgt-msp430_21.6.1.LTS/include/_defs.h",line 
    1457            
    1458                    .dwfde $C$DW$CIE, __isnan
    1459            $C$DW$91        .dwtag  DW_TAG_formal_parameter
    1460                    .dwattr $C$DW$91, DW_AT_name("d")
    1461                    .dwattr $C$DW$91, DW_AT_TI_symbol_name("d")
    1462                    .dwattr $C$DW$91, DW_AT_type(*$C$DW$T$17)
    1463                    .dwattr $C$DW$91, DW_AT_location[DW_OP_reg12 DW_OP_piece 2 DW_OP_reg13 DW_OP_piece 2 DW_OP_reg
MSP430 Assembler PC v21.6.1 Tue Dec 20 13:46:02 2022

Copyright (c) 2003-2018 Texas Instruments Incorporated
TC_Fault_Check.asm                                                   PAGE   28

    1464            
    1465            
    1466            ;*****************************************************************************
    1467            ;* FUNCTION NAME: __isnan                                                    *
    1468            ;*                                                                           *
    1469            ;*   Regs Modified     : SP,SR,r10,r11,r12,r13,r14,r15                       *
    1470            ;*   Regs Used         : SP,SR,r10,r11,r12,r13,r14,r15                       *
    1471            ;*   Local Frame Size  : 0 Args + 0 Auto + 4 Save = 4 byte                   *
    1472            ;*****************************************************************************
    1473 000000       __isnan:
    1474            ;* --------------------------------------------------------------------------*
    1475                    .dwcfi  cfa_offset, 4
    1476                    .dwcfi  save_reg_to_mem, 16, -4
    1477 000000 140A          PUSHM.A   #1,r10                ; [] 
    1478                    .dwcfi  save_reg_to_mem, 10, -8
    1479                    .dwcfi  cfa_offset, 8
    1480            ;* r11   assigned to $O$S1
    1481                    .dwpsn  file "C:/ti/ccs1110/ccs/tools/compiler/ti-cgt-msp430_21.6.1.LTS/include/_defs.h",line 
    1482 000002 430B          MOV.W     #0,r11                ; [] |342| 
    1483 000004 0FCA          MOVA      r15,r10               ; [] |342| 
    1484 000006 F03A          AND.W     #32752,r10            ; [] |342| 
         000008 7FF0 
    1485 00000a 903A          CMP.W     #32752,r10            ; [] |342| 
         00000c 7FF0 
    1486 00000e 200E          JNE       $C$L16                ; [] |342| 
    1487                                                      ; [] |342| 
    1488            ;* --------------------------------------------------------------------------*
    1489 000010 F33C          AND.W     #65535,r12            ; [] |342| 
    1490 000012 F33D          AND.W     #65535,r13            ; [] |342| 
    1491 000014 F33E          AND.W     #65535,r14            ; [] |342| 
    1492 000016 F03F          AND.W     #15,r15               ; [] |342| 
         000018 000F 
    1493 00001a 930F          TST.W     r15                   ; [] |342| 
    1494 00001c 2006          JNE       $C$L15                ; [] |342| 
    1495                                                      ; [] |342| 
    1496            ;* --------------------------------------------------------------------------*
    1497 00001e 930E          TST.W     r14                   ; [] |342| 
    1498 000020 2004          JNE       $C$L15                ; [] |342| 
    1499                                                      ; [] |342| 
    1500            ;* --------------------------------------------------------------------------*
    1501 000022 930D          TST.W     r13                   ; [] |342| 
    1502 000024 2002          JNE       $C$L15                ; [] |342| 
    1503                                                      ; [] |342| 
    1504            ;* --------------------------------------------------------------------------*
    1505 000026 930C          TST.W     r12                   ; [] |342| 
    1506 000028 2401          JEQ       $C$L16                ; [] |342| 
    1507                                                      ; [] |342| 
    1508            ;* --------------------------------------------------------------------------*
    1509 00002a       $C$L15:    
    1510 00002a 431B          MOV.W     #1,r11                ; [] |342| 
    1511            ;* --------------------------------------------------------------------------*
    1512 00002c       $C$L16:    
    1513 00002c 0BCC          MOVA      r11,r12               ; [] |342| 
    1514                    .dwpsn  file "C:/ti/ccs1110/ccs/tools/compiler/ti-cgt-msp430_21.6.1.LTS/include/_defs.h",line 
    1515 00002e 160A          POPM.A    #1,r10                ; [] 
MSP430 Assembler PC v21.6.1 Tue Dec 20 13:46:02 2022

Copyright (c) 2003-2018 Texas Instruments Incorporated
TC_Fault_Check.asm                                                   PAGE   29

    1516                    .dwcfi  restore_reg, 10
    1517                    .dwcfi  cfa_offset, 4
    1518            $C$DW$92        .dwtag  DW_TAG_TI_branch
    1519                    .dwattr $C$DW$92, DW_AT_low_pc(0x00)
    1520                    .dwattr $C$DW$92, DW_AT_TI_return
    1521            
    1522 000030 0110          RETA      ; [] 
    1523                    ; [] 
    1524                    .dwattr $C$DW$90, DW_AT_TI_end_file("C:/ti/ccs1110/ccs/tools/compiler/ti-cgt-msp430_21.6.1.LTS
    1525                    .dwattr $C$DW$90, DW_AT_TI_end_line(0x157)
    1526                    .dwattr $C$DW$90, DW_AT_TI_end_column(0x2f)
    1527                    .dwendentry
    1528                    .dwendtag $C$DW$90
    1529            
    1530 000000               .sect   ".text:__isinfl"
    1531                    .clink
    1532                    .global __isinfl
    1533            
    1534            $C$DW$93        .dwtag  DW_TAG_subprogram
    1535                    .dwattr $C$DW$93, DW_AT_name("__isinfl")
    1536                    .dwattr $C$DW$93, DW_AT_low_pc(__isinfl)
    1537                    .dwattr $C$DW$93, DW_AT_high_pc(0x00)
    1538                    .dwattr $C$DW$93, DW_AT_TI_symbol_name("__isinfl")
    1539                    .dwattr $C$DW$93, DW_AT_external
    1540                    .dwattr $C$DW$93, DW_AT_type(*$C$DW$T$10)
    1541                    .dwattr $C$DW$93, DW_AT_TI_begin_file("C:/ti/ccs1110/ccs/tools/compiler/ti-cgt-msp430_21.6.1.L
    1542                    .dwattr $C$DW$93, DW_AT_TI_begin_line(0x17a)
    1543                    .dwattr $C$DW$93, DW_AT_TI_begin_column(0x25)
    1544                    .dwattr $C$DW$93, DW_AT_decl_file("C:/ti/ccs1110/ccs/tools/compiler/ti-cgt-msp430_21.6.1.LTS/i
    1545                    .dwattr $C$DW$93, DW_AT_decl_line(0x17a)
    1546                    .dwattr $C$DW$93, DW_AT_decl_column(0x25)
    1547                    .dwattr $C$DW$93, DW_AT_TI_max_frame_size(0x08)
    1548                    .dwpsn  file "C:/ti/ccs1110/ccs/tools/compiler/ti-cgt-msp430_21.6.1.LTS/include/_defs.h",line 
    1549            
    1550                    .dwfde $C$DW$CIE, __isinfl
    1551            $C$DW$94        .dwtag  DW_TAG_formal_parameter
    1552                    .dwattr $C$DW$94, DW_AT_name("e")
    1553                    .dwattr $C$DW$94, DW_AT_TI_symbol_name("e")
    1554                    .dwattr $C$DW$94, DW_AT_type(*$C$DW$T$18)
    1555                    .dwattr $C$DW$94, DW_AT_location[DW_OP_reg12 DW_OP_piece 2 DW_OP_reg13 DW_OP_piece 2 DW_OP_reg
    1556            
    1557            
    1558            ;*****************************************************************************
    1559            ;* FUNCTION NAME: __isinfl                                                   *
    1560            ;*                                                                           *
    1561            ;*   Regs Modified     : SP,SR,r10,r11,r12,r13,r14,r15                       *
    1562            ;*   Regs Used         : SP,SR,r10,r11,r12,r13,r14,r15                       *
    1563            ;*   Local Frame Size  : 0 Args + 0 Auto + 4 Save = 4 byte                   *
    1564            ;*****************************************************************************
    1565 000000       __isinfl:
    1566            ;* --------------------------------------------------------------------------*
    1567                    .dwcfi  cfa_offset, 4
    1568                    .dwcfi  save_reg_to_mem, 16, -4
    1569 000000 140A          PUSHM.A   #1,r10                ; [] 
    1570                    .dwcfi  save_reg_to_mem, 10, -8
MSP430 Assembler PC v21.6.1 Tue Dec 20 13:46:02 2022

Copyright (c) 2003-2018 Texas Instruments Incorporated
TC_Fault_Check.asm                                                   PAGE   30

    1571                    .dwcfi  cfa_offset, 8
    1572            ;* r11   assigned to $O$S1
    1573                    .dwpsn  file "C:/ti/ccs1110/ccs/tools/compiler/ti-cgt-msp430_21.6.1.LTS/include/_defs.h",line 
    1574 000002 430B          MOV.W     #0,r11                ; [] |379| 
    1575 000004 0FCA          MOVA      r15,r10               ; [] |379| 
    1576 000006 F03A          AND.W     #32752,r10            ; [] |379| 
         000008 7FF0 
    1577 00000a 903A          CMP.W     #32752,r10            ; [] |379| 
         00000c 7FF0 
    1578 00000e 200E          JNE       $C$L17                ; [] |379| 
    1579                                                      ; [] |379| 
    1580            ;* --------------------------------------------------------------------------*
    1581 000010 F33C          AND.W     #65535,r12            ; [] |379| 
    1582 000012 F33D          AND.W     #65535,r13            ; [] |379| 
    1583 000014 F33E          AND.W     #65535,r14            ; [] |379| 
    1584 000016 F03F          AND.W     #15,r15               ; [] |379| 
         000018 000F 
    1585 00001a 930F          TST.W     r15                   ; [] |379| 
    1586 00001c 2007          JNE       $C$L17                ; [] |379| 
    1587                                                      ; [] |379| 
    1588            ;* --------------------------------------------------------------------------*
    1589 00001e 930E          TST.W     r14                   ; [] |379| 
    1590 000020 2005          JNE       $C$L17                ; [] |379| 
    1591                                                      ; [] |379| 
    1592            ;* --------------------------------------------------------------------------*
    1593 000022 930D          TST.W     r13                   ; [] |379| 
    1594 000024 2003          JNE       $C$L17                ; [] |379| 
    1595                                                      ; [] |379| 
    1596            ;* --------------------------------------------------------------------------*
    1597 000026 930C          TST.W     r12                   ; [] |379| 
    1598 000028 2001          JNE       $C$L17                ; [] |379| 
    1599                                                      ; [] |379| 
    1600            ;* --------------------------------------------------------------------------*
    1601 00002a 431B          MOV.W     #1,r11                ; [] |379| 
    1602            ;* --------------------------------------------------------------------------*
    1603 00002c       $C$L17:    
    1604 00002c 0BCC          MOVA      r11,r12               ; [] |379| 
    1605                    .dwpsn  file "C:/ti/ccs1110/ccs/tools/compiler/ti-cgt-msp430_21.6.1.LTS/include/_defs.h",line 
    1606 00002e 160A          POPM.A    #1,r10                ; [] 
    1607                    .dwcfi  restore_reg, 10
    1608                    .dwcfi  cfa_offset, 4
    1609            $C$DW$95        .dwtag  DW_TAG_TI_branch
    1610                    .dwattr $C$DW$95, DW_AT_low_pc(0x00)
    1611                    .dwattr $C$DW$95, DW_AT_TI_return
    1612            
    1613 000030 0110          RETA      ; [] 
    1614                    ; [] 
    1615                    .dwattr $C$DW$93, DW_AT_TI_end_file("C:/ti/ccs1110/ccs/tools/compiler/ti-cgt-msp430_21.6.1.LTS
    1616                    .dwattr $C$DW$93, DW_AT_TI_end_line(0x17b)
    1617                    .dwattr $C$DW$93, DW_AT_TI_end_column(0x4c)
    1618                    .dwendentry
    1619                    .dwendtag $C$DW$93
    1620            
    1621 000000               .sect   ".text:__isinff"
    1622                    .clink
MSP430 Assembler PC v21.6.1 Tue Dec 20 13:46:02 2022

Copyright (c) 2003-2018 Texas Instruments Incorporated
TC_Fault_Check.asm                                                   PAGE   31

    1623                    .global __isinff
    1624            
    1625            $C$DW$96        .dwtag  DW_TAG_subprogram
    1626                    .dwattr $C$DW$96, DW_AT_name("__isinff")
    1627                    .dwattr $C$DW$96, DW_AT_low_pc(__isinff)
    1628                    .dwattr $C$DW$96, DW_AT_high_pc(0x00)
    1629                    .dwattr $C$DW$96, DW_AT_TI_symbol_name("__isinff")
    1630                    .dwattr $C$DW$96, DW_AT_external
    1631                    .dwattr $C$DW$96, DW_AT_type(*$C$DW$T$10)
    1632                    .dwattr $C$DW$96, DW_AT_TI_begin_file("C:/ti/ccs1110/ccs/tools/compiler/ti-cgt-msp430_21.6.1.L
    1633                    .dwattr $C$DW$96, DW_AT_TI_begin_line(0x176)
    1634                    .dwattr $C$DW$96, DW_AT_TI_begin_column(0x25)
    1635                    .dwattr $C$DW$96, DW_AT_decl_file("C:/ti/ccs1110/ccs/tools/compiler/ti-cgt-msp430_21.6.1.LTS/i
    1636                    .dwattr $C$DW$96, DW_AT_decl_line(0x176)
    1637                    .dwattr $C$DW$96, DW_AT_decl_column(0x25)
    1638                    .dwattr $C$DW$96, DW_AT_TI_max_frame_size(0x04)
    1639                    .dwpsn  file "C:/ti/ccs1110/ccs/tools/compiler/ti-cgt-msp430_21.6.1.LTS/include/_defs.h",line 
    1640            
    1641                    .dwfde $C$DW$CIE, __isinff
    1642            $C$DW$97        .dwtag  DW_TAG_formal_parameter
    1643                    .dwattr $C$DW$97, DW_AT_name("f")
    1644                    .dwattr $C$DW$97, DW_AT_TI_symbol_name("f")
    1645                    .dwattr $C$DW$97, DW_AT_type(*$C$DW$T$16)
    1646                    .dwattr $C$DW$97, DW_AT_location[DW_OP_reg12 DW_OP_piece 2 DW_OP_reg13 DW_OP_piece 2]
    1647            
    1648            
    1649            ;*****************************************************************************
    1650            ;* FUNCTION NAME: __isinff                                                   *
    1651            ;*                                                                           *
    1652            ;*   Regs Modified     : SP,SR,r12,r13,r14,r15                               *
    1653            ;*   Regs Used         : SP,SR,r12,r13,r14,r15                               *
    1654            ;*   Local Frame Size  : 0 Args + 0 Auto + 0 Save = 0 byte                   *
    1655            ;*****************************************************************************
    1656 000000       __isinff:
    1657            ;* --------------------------------------------------------------------------*
    1658                    .dwcfi  cfa_offset, 4
    1659                    .dwcfi  save_reg_to_mem, 16, -4
    1660            ;* r15   assigned to $O$S1
    1661                    .dwpsn  file "C:/ti/ccs1110/ccs/tools/compiler/ti-cgt-msp430_21.6.1.LTS/include/_defs.h",line 
    1662 000000 430F          MOV.W     #0,r15                ; [] |375| 
    1663 000002 0DCE          MOVA      r13,r14               ; [] |375| 
    1664 000004 F03E          AND.W     #32640,r14            ; [] |375| 
         000006 7F80 
    1665 000008 903E          CMP.W     #32640,r14            ; [] |375| 
         00000a 7F80 
    1666 00000c 2008          JNE       $C$L18                ; [] |375| 
    1667                                                      ; [] |375| 
    1668            ;* --------------------------------------------------------------------------*
    1669 00000e F33C          AND.W     #65535,r12            ; [] |375| 
    1670 000010 F03D          AND.W     #127,r13              ; [] |375| 
         000012 007F 
    1671 000014 930D          TST.W     r13                   ; [] |375| 
    1672 000016 2003          JNE       $C$L18                ; [] |375| 
    1673                                                      ; [] |375| 
    1674            ;* --------------------------------------------------------------------------*
MSP430 Assembler PC v21.6.1 Tue Dec 20 13:46:02 2022

Copyright (c) 2003-2018 Texas Instruments Incorporated
TC_Fault_Check.asm                                                   PAGE   32

    1675 000018 930C          TST.W     r12                   ; [] |375| 
    1676 00001a 2001          JNE       $C$L18                ; [] |375| 
    1677                                                      ; [] |375| 
    1678            ;* --------------------------------------------------------------------------*
    1679 00001c 431F          MOV.W     #1,r15                ; [] |375| 
    1680            ;* --------------------------------------------------------------------------*
    1681 00001e       $C$L18:    
    1682 00001e 0FCC          MOVA      r15,r12               ; [] |375| 
    1683                    .dwpsn  file "C:/ti/ccs1110/ccs/tools/compiler/ti-cgt-msp430_21.6.1.LTS/include/_defs.h",line 
    1684            $C$DW$98        .dwtag  DW_TAG_TI_branch
    1685                    .dwattr $C$DW$98, DW_AT_low_pc(0x00)
    1686                    .dwattr $C$DW$98, DW_AT_TI_return
    1687            
    1688 000020 0110          RETA      ; [] 
    1689                    ; [] 
    1690                    .dwattr $C$DW$96, DW_AT_TI_end_file("C:/ti/ccs1110/ccs/tools/compiler/ti-cgt-msp430_21.6.1.LTS
    1691                    .dwattr $C$DW$96, DW_AT_TI_end_line(0x177)
    1692                    .dwattr $C$DW$96, DW_AT_TI_end_column(0x48)
    1693                    .dwendentry
    1694                    .dwendtag $C$DW$96
    1695            
    1696 000000               .sect   ".text:__isinf"
    1697                    .clink
    1698                    .global __isinf
    1699            
    1700            $C$DW$99        .dwtag  DW_TAG_subprogram
    1701                    .dwattr $C$DW$99, DW_AT_name("__isinf")
    1702                    .dwattr $C$DW$99, DW_AT_low_pc(__isinf)
    1703                    .dwattr $C$DW$99, DW_AT_high_pc(0x00)
    1704                    .dwattr $C$DW$99, DW_AT_TI_symbol_name("__isinf")
    1705                    .dwattr $C$DW$99, DW_AT_external
    1706                    .dwattr $C$DW$99, DW_AT_type(*$C$DW$T$10)
    1707                    .dwattr $C$DW$99, DW_AT_TI_begin_file("C:/ti/ccs1110/ccs/tools/compiler/ti-cgt-msp430_21.6.1.L
    1708                    .dwattr $C$DW$99, DW_AT_TI_begin_line(0x178)
    1709                    .dwattr $C$DW$99, DW_AT_TI_begin_column(0x25)
    1710                    .dwattr $C$DW$99, DW_AT_decl_file("C:/ti/ccs1110/ccs/tools/compiler/ti-cgt-msp430_21.6.1.LTS/i
    1711                    .dwattr $C$DW$99, DW_AT_decl_line(0x178)
    1712                    .dwattr $C$DW$99, DW_AT_decl_column(0x25)
    1713                    .dwattr $C$DW$99, DW_AT_TI_max_frame_size(0x08)
    1714                    .dwpsn  file "C:/ti/ccs1110/ccs/tools/compiler/ti-cgt-msp430_21.6.1.LTS/include/_defs.h",line 
    1715            
    1716                    .dwfde $C$DW$CIE, __isinf
    1717            $C$DW$100       .dwtag  DW_TAG_formal_parameter
    1718                    .dwattr $C$DW$100, DW_AT_name("d")
    1719                    .dwattr $C$DW$100, DW_AT_TI_symbol_name("d")
    1720                    .dwattr $C$DW$100, DW_AT_type(*$C$DW$T$17)
    1721                    .dwattr $C$DW$100, DW_AT_location[DW_OP_reg12 DW_OP_piece 2 DW_OP_reg13 DW_OP_piece 2 DW_OP_re
    1722            
    1723            
    1724            ;*****************************************************************************
    1725            ;* FUNCTION NAME: __isinf                                                    *
    1726            ;*                                                                           *
    1727            ;*   Regs Modified     : SP,SR,r10,r11,r12,r13,r14,r15                       *
    1728            ;*   Regs Used         : SP,SR,r10,r11,r12,r13,r14,r15                       *
    1729            ;*   Local Frame Size  : 0 Args + 0 Auto + 4 Save = 4 byte                   *
MSP430 Assembler PC v21.6.1 Tue Dec 20 13:46:02 2022

Copyright (c) 2003-2018 Texas Instruments Incorporated
TC_Fault_Check.asm                                                   PAGE   33

    1730            ;*****************************************************************************
    1731 000000       __isinf:
    1732            ;* --------------------------------------------------------------------------*
    1733                    .dwcfi  cfa_offset, 4
    1734                    .dwcfi  save_reg_to_mem, 16, -4
    1735 000000 140A          PUSHM.A   #1,r10                ; [] 
    1736                    .dwcfi  save_reg_to_mem, 10, -8
    1737                    .dwcfi  cfa_offset, 8
    1738            ;* r11   assigned to $O$S1
    1739                    .dwpsn  file "C:/ti/ccs1110/ccs/tools/compiler/ti-cgt-msp430_21.6.1.LTS/include/_defs.h",line 
    1740 000002 430B          MOV.W     #0,r11                ; [] |377| 
    1741 000004 0FCA          MOVA      r15,r10               ; [] |377| 
    1742 000006 F03A          AND.W     #32752,r10            ; [] |377| 
         000008 7FF0 
    1743 00000a 903A          CMP.W     #32752,r10            ; [] |377| 
         00000c 7FF0 
    1744 00000e 200E          JNE       $C$L19                ; [] |377| 
    1745                                                      ; [] |377| 
    1746            ;* --------------------------------------------------------------------------*
    1747 000010 F33C          AND.W     #65535,r12            ; [] |377| 
    1748 000012 F33D          AND.W     #65535,r13            ; [] |377| 
    1749 000014 F33E          AND.W     #65535,r14            ; [] |377| 
    1750 000016 F03F          AND.W     #15,r15               ; [] |377| 
         000018 000F 
    1751 00001a 930F          TST.W     r15                   ; [] |377| 
    1752 00001c 2007          JNE       $C$L19                ; [] |377| 
    1753                                                      ; [] |377| 
    1754            ;* --------------------------------------------------------------------------*
    1755 00001e 930E          TST.W     r14                   ; [] |377| 
    1756 000020 2005          JNE       $C$L19                ; [] |377| 
    1757                                                      ; [] |377| 
    1758            ;* --------------------------------------------------------------------------*
    1759 000022 930D          TST.W     r13                   ; [] |377| 
    1760 000024 2003          JNE       $C$L19                ; [] |377| 
    1761                                                      ; [] |377| 
    1762            ;* --------------------------------------------------------------------------*
    1763 000026 930C          TST.W     r12                   ; [] |377| 
    1764 000028 2001          JNE       $C$L19                ; [] |377| 
    1765                                                      ; [] |377| 
    1766            ;* --------------------------------------------------------------------------*
    1767 00002a 431B          MOV.W     #1,r11                ; [] |377| 
    1768            ;* --------------------------------------------------------------------------*
    1769 00002c       $C$L19:    
    1770 00002c 0BCC          MOVA      r11,r12               ; [] |377| 
    1771                    .dwpsn  file "C:/ti/ccs1110/ccs/tools/compiler/ti-cgt-msp430_21.6.1.LTS/include/_defs.h",line 
    1772 00002e 160A          POPM.A    #1,r10                ; [] 
    1773                    .dwcfi  restore_reg, 10
    1774                    .dwcfi  cfa_offset, 4
    1775            $C$DW$101       .dwtag  DW_TAG_TI_branch
    1776                    .dwattr $C$DW$101, DW_AT_low_pc(0x00)
    1777                    .dwattr $C$DW$101, DW_AT_TI_return
    1778            
    1779 000030 0110          RETA      ; [] 
    1780                    ; [] 
    1781                    .dwattr $C$DW$99, DW_AT_TI_end_file("C:/ti/ccs1110/ccs/tools/compiler/ti-cgt-msp430_21.6.1.LTS
MSP430 Assembler PC v21.6.1 Tue Dec 20 13:46:02 2022

Copyright (c) 2003-2018 Texas Instruments Incorporated
TC_Fault_Check.asm                                                   PAGE   34

    1782                    .dwattr $C$DW$99, DW_AT_TI_end_line(0x179)
    1783                    .dwattr $C$DW$99, DW_AT_TI_end_column(0x4a)
    1784                    .dwendentry
    1785                    .dwendtag $C$DW$99
    1786            
    1787 000000               .sect   ".text:__isfinitel"
    1788                    .clink
    1789                    .global __isfinitel
    1790            
    1791            $C$DW$102       .dwtag  DW_TAG_subprogram
    1792                    .dwattr $C$DW$102, DW_AT_name("__isfinitel")
    1793                    .dwattr $C$DW$102, DW_AT_low_pc(__isfinitel)
    1794                    .dwattr $C$DW$102, DW_AT_high_pc(0x00)
    1795                    .dwattr $C$DW$102, DW_AT_TI_symbol_name("__isfinitel")
    1796                    .dwattr $C$DW$102, DW_AT_external
    1797                    .dwattr $C$DW$102, DW_AT_type(*$C$DW$T$10)
    1798                    .dwattr $C$DW$102, DW_AT_TI_begin_file("C:/ti/ccs1110/ccs/tools/compiler/ti-cgt-msp430_21.6.1.
    1799                    .dwattr $C$DW$102, DW_AT_TI_begin_line(0x152)
    1800                    .dwattr $C$DW$102, DW_AT_TI_begin_column(0x25)
    1801                    .dwattr $C$DW$102, DW_AT_decl_file("C:/ti/ccs1110/ccs/tools/compiler/ti-cgt-msp430_21.6.1.LTS/
    1802                    .dwattr $C$DW$102, DW_AT_decl_line(0x152)
    1803                    .dwattr $C$DW$102, DW_AT_decl_column(0x25)
    1804                    .dwattr $C$DW$102, DW_AT_TI_max_frame_size(0x04)
    1805                    .dwpsn  file "C:/ti/ccs1110/ccs/tools/compiler/ti-cgt-msp430_21.6.1.LTS/include/_defs.h",line 
    1806            
    1807                    .dwfde $C$DW$CIE, __isfinitel
    1808            $C$DW$103       .dwtag  DW_TAG_formal_parameter
    1809                    .dwattr $C$DW$103, DW_AT_name("e")
    1810                    .dwattr $C$DW$103, DW_AT_TI_symbol_name("e")
    1811                    .dwattr $C$DW$103, DW_AT_type(*$C$DW$T$18)
    1812                    .dwattr $C$DW$103, DW_AT_location[DW_OP_reg12 DW_OP_piece 2 DW_OP_reg13 DW_OP_piece 2 DW_OP_re
    1813            
    1814            
    1815            ;*****************************************************************************
    1816            ;* FUNCTION NAME: __isfinitel                                                *
    1817            ;*                                                                           *
    1818            ;*   Regs Modified     : SP,SR,r12,r15                                       *
    1819            ;*   Regs Used         : SP,SR,r12,r15                                       *
    1820            ;*   Local Frame Size  : 0 Args + 0 Auto + 0 Save = 0 byte                   *
    1821            ;*****************************************************************************
    1822 000000       __isfinitel:
    1823            ;* --------------------------------------------------------------------------*
    1824                    .dwcfi  cfa_offset, 4
    1825                    .dwcfi  save_reg_to_mem, 16, -4
    1826                    .dwpsn  file "C:/ti/ccs1110/ccs/tools/compiler/ti-cgt-msp430_21.6.1.LTS/include/_defs.h",line 
    1827 000000 430C          MOV.W     #0,r12                ; [] |339| 
    1828 000002 F03F          AND.W     #32752,r15            ; [] |339| 
         000004 7FF0 
    1829 000006 903F          CMP.W     #32752,r15            ; [] |339| 
         000008 7FF0 
    1830 00000a 2401          JEQ       $C$L20                ; [] |339| 
    1831                                                      ; [] |339| 
    1832            ;* --------------------------------------------------------------------------*
    1833 00000c 431C          MOV.W     #1,r12                ; [] |339| 
    1834            ;* --------------------------------------------------------------------------*
MSP430 Assembler PC v21.6.1 Tue Dec 20 13:46:02 2022

Copyright (c) 2003-2018 Texas Instruments Incorporated
TC_Fault_Check.asm                                                   PAGE   35

    1835 00000e       $C$L20:    
    1836                    .dwpsn  file "C:/ti/ccs1110/ccs/tools/compiler/ti-cgt-msp430_21.6.1.LTS/include/_defs.h",line 
    1837            $C$DW$104       .dwtag  DW_TAG_TI_branch
    1838                    .dwattr $C$DW$104, DW_AT_low_pc(0x00)
    1839                    .dwattr $C$DW$104, DW_AT_TI_return
    1840            
    1841 00000e 0110          RETA      ; [] 
    1842                    ; [] 
    1843                    .dwattr $C$DW$102, DW_AT_TI_end_file("C:/ti/ccs1110/ccs/tools/compiler/ti-cgt-msp430_21.6.1.LT
    1844                    .dwattr $C$DW$102, DW_AT_TI_end_line(0x153)
    1845                    .dwattr $C$DW$102, DW_AT_TI_end_column(0x2f)
    1846                    .dwendentry
    1847                    .dwendtag $C$DW$102
    1848            
    1849 000000               .sect   ".text:__isfinitef"
    1850                    .clink
    1851                    .global __isfinitef
    1852            
    1853            $C$DW$105       .dwtag  DW_TAG_subprogram
    1854                    .dwattr $C$DW$105, DW_AT_name("__isfinitef")
    1855                    .dwattr $C$DW$105, DW_AT_low_pc(__isfinitef)
    1856                    .dwattr $C$DW$105, DW_AT_high_pc(0x00)
    1857                    .dwattr $C$DW$105, DW_AT_TI_symbol_name("__isfinitef")
    1858                    .dwattr $C$DW$105, DW_AT_external
    1859                    .dwattr $C$DW$105, DW_AT_type(*$C$DW$T$10)
    1860                    .dwattr $C$DW$105, DW_AT_TI_begin_file("C:/ti/ccs1110/ccs/tools/compiler/ti-cgt-msp430_21.6.1.
    1861                    .dwattr $C$DW$105, DW_AT_TI_begin_line(0x150)
    1862                    .dwattr $C$DW$105, DW_AT_TI_begin_column(0x25)
    1863                    .dwattr $C$DW$105, DW_AT_decl_file("C:/ti/ccs1110/ccs/tools/compiler/ti-cgt-msp430_21.6.1.LTS/
    1864                    .dwattr $C$DW$105, DW_AT_decl_line(0x150)
    1865                    .dwattr $C$DW$105, DW_AT_decl_column(0x25)
    1866                    .dwattr $C$DW$105, DW_AT_TI_max_frame_size(0x04)
    1867                    .dwpsn  file "C:/ti/ccs1110/ccs/tools/compiler/ti-cgt-msp430_21.6.1.LTS/include/_defs.h",line 
    1868            
    1869                    .dwfde $C$DW$CIE, __isfinitef
    1870            $C$DW$106       .dwtag  DW_TAG_formal_parameter
    1871                    .dwattr $C$DW$106, DW_AT_name("f")
    1872                    .dwattr $C$DW$106, DW_AT_TI_symbol_name("f")
    1873                    .dwattr $C$DW$106, DW_AT_type(*$C$DW$T$16)
    1874                    .dwattr $C$DW$106, DW_AT_location[DW_OP_reg12 DW_OP_piece 2 DW_OP_reg13 DW_OP_piece 2]
    1875            
    1876            
    1877            ;*****************************************************************************
    1878            ;* FUNCTION NAME: __isfinitef                                                *
    1879            ;*                                                                           *
    1880            ;*   Regs Modified     : SP,SR,r12,r13                                       *
    1881            ;*   Regs Used         : SP,SR,r12,r13                                       *
    1882            ;*   Local Frame Size  : 0 Args + 0 Auto + 0 Save = 0 byte                   *
    1883            ;*****************************************************************************
    1884 000000       __isfinitef:
    1885            ;* --------------------------------------------------------------------------*
    1886                    .dwcfi  cfa_offset, 4
    1887                    .dwcfi  save_reg_to_mem, 16, -4
    1888                    .dwpsn  file "C:/ti/ccs1110/ccs/tools/compiler/ti-cgt-msp430_21.6.1.LTS/include/_defs.h",line 
    1889 000000 430C          MOV.W     #0,r12                ; [] |337| 
MSP430 Assembler PC v21.6.1 Tue Dec 20 13:46:02 2022

Copyright (c) 2003-2018 Texas Instruments Incorporated
TC_Fault_Check.asm                                                   PAGE   36

    1890 000002 F03D          AND.W     #32640,r13            ; [] |337| 
         000004 7F80 
    1891 000006 903D          CMP.W     #32640,r13            ; [] |337| 
         000008 7F80 
    1892 00000a 2401          JEQ       $C$L21                ; [] |337| 
    1893                                                      ; [] |337| 
    1894            ;* --------------------------------------------------------------------------*
    1895 00000c 431C          MOV.W     #1,r12                ; [] |337| 
    1896            ;* --------------------------------------------------------------------------*
    1897 00000e       $C$L21:    
    1898                    .dwpsn  file "C:/ti/ccs1110/ccs/tools/compiler/ti-cgt-msp430_21.6.1.LTS/include/_defs.h",line 
    1899            $C$DW$107       .dwtag  DW_TAG_TI_branch
    1900                    .dwattr $C$DW$107, DW_AT_low_pc(0x00)
    1901                    .dwattr $C$DW$107, DW_AT_TI_return
    1902            
    1903 00000e 0110          RETA      ; [] 
    1904                    ; [] 
    1905                    .dwattr $C$DW$105, DW_AT_TI_end_file("C:/ti/ccs1110/ccs/tools/compiler/ti-cgt-msp430_21.6.1.LT
    1906                    .dwattr $C$DW$105, DW_AT_TI_end_line(0x151)
    1907                    .dwattr $C$DW$105, DW_AT_TI_end_column(0x2d)
    1908                    .dwendentry
    1909                    .dwendtag $C$DW$105
    1910            
    1911 000000               .sect   ".text:__isfinite"
    1912                    .clink
    1913                    .global __isfinite
    1914            
    1915            $C$DW$108       .dwtag  DW_TAG_subprogram
    1916                    .dwattr $C$DW$108, DW_AT_name("__isfinite")
    1917                    .dwattr $C$DW$108, DW_AT_low_pc(__isfinite)
    1918                    .dwattr $C$DW$108, DW_AT_high_pc(0x00)
    1919                    .dwattr $C$DW$108, DW_AT_TI_symbol_name("__isfinite")
    1920                    .dwattr $C$DW$108, DW_AT_external
    1921                    .dwattr $C$DW$108, DW_AT_type(*$C$DW$T$10)
    1922                    .dwattr $C$DW$108, DW_AT_TI_begin_file("C:/ti/ccs1110/ccs/tools/compiler/ti-cgt-msp430_21.6.1.
    1923                    .dwattr $C$DW$108, DW_AT_TI_begin_line(0x14e)
    1924                    .dwattr $C$DW$108, DW_AT_TI_begin_column(0x25)
    1925                    .dwattr $C$DW$108, DW_AT_decl_file("C:/ti/ccs1110/ccs/tools/compiler/ti-cgt-msp430_21.6.1.LTS/
    1926                    .dwattr $C$DW$108, DW_AT_decl_line(0x14e)
    1927                    .dwattr $C$DW$108, DW_AT_decl_column(0x25)
    1928                    .dwattr $C$DW$108, DW_AT_TI_max_frame_size(0x04)
    1929                    .dwpsn  file "C:/ti/ccs1110/ccs/tools/compiler/ti-cgt-msp430_21.6.1.LTS/include/_defs.h",line 
    1930            
    1931                    .dwfde $C$DW$CIE, __isfinite
    1932            $C$DW$109       .dwtag  DW_TAG_formal_parameter
    1933                    .dwattr $C$DW$109, DW_AT_name("d")
    1934                    .dwattr $C$DW$109, DW_AT_TI_symbol_name("d")
    1935                    .dwattr $C$DW$109, DW_AT_type(*$C$DW$T$17)
    1936                    .dwattr $C$DW$109, DW_AT_location[DW_OP_reg12 DW_OP_piece 2 DW_OP_reg13 DW_OP_piece 2 DW_OP_re
    1937            
    1938            
    1939            ;*****************************************************************************
    1940            ;* FUNCTION NAME: __isfinite                                                 *
    1941            ;*                                                                           *
    1942            ;*   Regs Modified     : SP,SR,r12,r15                                       *
MSP430 Assembler PC v21.6.1 Tue Dec 20 13:46:02 2022

Copyright (c) 2003-2018 Texas Instruments Incorporated
TC_Fault_Check.asm                                                   PAGE   37

    1943            ;*   Regs Used         : SP,SR,r12,r15                                       *
    1944            ;*   Local Frame Size  : 0 Args + 0 Auto + 0 Save = 0 byte                   *
    1945            ;*****************************************************************************
    1946 000000       __isfinite:
    1947            ;* --------------------------------------------------------------------------*
    1948                    .dwcfi  cfa_offset, 4
    1949                    .dwcfi  save_reg_to_mem, 16, -4
    1950                    .dwpsn  file "C:/ti/ccs1110/ccs/tools/compiler/ti-cgt-msp430_21.6.1.LTS/include/_defs.h",line 
    1951 000000 430C          MOV.W     #0,r12                ; [] |335| 
    1952 000002 F03F          AND.W     #32752,r15            ; [] |335| 
         000004 7FF0 
    1953 000006 903F          CMP.W     #32752,r15            ; [] |335| 
         000008 7FF0 
    1954 00000a 2401          JEQ       $C$L22                ; [] |335| 
    1955                                                      ; [] |335| 
    1956            ;* --------------------------------------------------------------------------*
    1957 00000c 431C          MOV.W     #1,r12                ; [] |335| 
    1958            ;* --------------------------------------------------------------------------*
    1959 00000e       $C$L22:    
    1960                    .dwpsn  file "C:/ti/ccs1110/ccs/tools/compiler/ti-cgt-msp430_21.6.1.LTS/include/_defs.h",line 
    1961            $C$DW$110       .dwtag  DW_TAG_TI_branch
    1962                    .dwattr $C$DW$110, DW_AT_low_pc(0x00)
    1963                    .dwattr $C$DW$110, DW_AT_TI_return
    1964            
    1965 00000e 0110          RETA      ; [] 
    1966                    ; [] 
    1967                    .dwattr $C$DW$108, DW_AT_TI_end_file("C:/ti/ccs1110/ccs/tools/compiler/ti-cgt-msp430_21.6.1.LT
    1968                    .dwattr $C$DW$108, DW_AT_TI_end_line(0x14f)
    1969                    .dwattr $C$DW$108, DW_AT_TI_end_column(0x2e)
    1970                    .dwendentry
    1971                    .dwendtag $C$DW$108
    1972            
    1973 000000               .sect   ".text:__fpclassifyl"
    1974                    .clink
    1975                    .global __fpclassifyl
    1976            
    1977            $C$DW$111       .dwtag  DW_TAG_subprogram
    1978                    .dwattr $C$DW$111, DW_AT_name("__fpclassifyl")
    1979                    .dwattr $C$DW$111, DW_AT_low_pc(__fpclassifyl)
    1980                    .dwattr $C$DW$111, DW_AT_high_pc(0x00)
    1981                    .dwattr $C$DW$111, DW_AT_TI_symbol_name("__fpclassifyl")
    1982                    .dwattr $C$DW$111, DW_AT_external
    1983                    .dwattr $C$DW$111, DW_AT_type(*$C$DW$T$10)
    1984                    .dwattr $C$DW$111, DW_AT_TI_begin_file("C:/ti/ccs1110/ccs/tools/compiler/ti-cgt-msp430_21.6.1.
    1985                    .dwattr $C$DW$111, DW_AT_TI_begin_line(0x1ae)
    1986                    .dwattr $C$DW$111, DW_AT_TI_begin_column(0x25)
    1987                    .dwattr $C$DW$111, DW_AT_decl_file("C:/ti/ccs1110/ccs/tools/compiler/ti-cgt-msp430_21.6.1.LTS/
    1988                    .dwattr $C$DW$111, DW_AT_decl_line(0x1ae)
    1989                    .dwattr $C$DW$111, DW_AT_decl_column(0x25)
    1990                    .dwattr $C$DW$111, DW_AT_TI_max_frame_size(0x20)
    1991                    .dwpsn  file "C:/ti/ccs1110/ccs/tools/compiler/ti-cgt-msp430_21.6.1.LTS/include/_defs.h",line 
    1992            
    1993                    .dwfde $C$DW$CIE, __fpclassifyl
    1994            $C$DW$112       .dwtag  DW_TAG_formal_parameter
    1995                    .dwattr $C$DW$112, DW_AT_name("e")
MSP430 Assembler PC v21.6.1 Tue Dec 20 13:46:02 2022

Copyright (c) 2003-2018 Texas Instruments Incorporated
TC_Fault_Check.asm                                                   PAGE   38

    1996                    .dwattr $C$DW$112, DW_AT_TI_symbol_name("e")
    1997                    .dwattr $C$DW$112, DW_AT_type(*$C$DW$T$18)
    1998                    .dwattr $C$DW$112, DW_AT_location[DW_OP_reg12 DW_OP_piece 2 DW_OP_reg13 DW_OP_piece 2 DW_OP_re
    1999            
    2000            
    2001            ;*****************************************************************************
    2002            ;* FUNCTION NAME: __fpclassifyl                                              *
    2003            ;*                                                                           *
    2004            ;*   Regs Modified     : SP,SR,r4,r5,r6,r7,r8,r9,r10,r11,r12,r13,r14,r15     *
    2005            ;*   Regs Used         : SP,SR,r4,r5,r6,r7,r8,r9,r10,r11,r12,r13,r14,r15     *
    2006            ;*   Local Frame Size  : 0 Args + 0 Auto + 28 Save = 28 byte                 *
    2007            ;*****************************************************************************
    2008 000000       __fpclassifyl:
    2009            ;* --------------------------------------------------------------------------*
    2010                    .dwcfi  cfa_offset, 4
    2011                    .dwcfi  save_reg_to_mem, 16, -4
    2012 000000 146A          PUSHM.A   #7,r10                ; [] 
    2013                    .dwcfi  save_reg_to_mem, 10, -8
    2014                    .dwcfi  save_reg_to_mem, 9, -12
    2015                    .dwcfi  save_reg_to_mem, 8, -16
    2016                    .dwcfi  save_reg_to_mem, 7, -20
    2017                    .dwcfi  save_reg_to_mem, 6, -24
    2018                    .dwcfi  save_reg_to_mem, 5, -28
    2019                    .dwcfi  save_reg_to_mem, 4, -32
    2020                    .dwcfi  cfa_offset, 32
    2021            ;* r4    assigned to e
    2022            $C$DW$113       .dwtag  DW_TAG_variable
    2023                    .dwattr $C$DW$113, DW_AT_name("e")
    2024                    .dwattr $C$DW$113, DW_AT_TI_symbol_name("e")
    2025                    .dwattr $C$DW$113, DW_AT_type(*$C$DW$T$18)
    2026                    .dwattr $C$DW$113, DW_AT_location[DW_OP_reg4 DW_OP_piece 2 DW_OP_reg5 DW_OP_piece 2 DW_OP_reg6
    2027            
    2028 000002 0CC4          MOVA      r12,r4                ; [] |431| 
    2029 000004 0DC5          MOVA      r13,r5                ; [] |431| 
    2030 000006 0EC6          MOVA      r14,r6                ; [] |431| 
    2031 000008 0FC7          MOVA      r15,r7                ; [] |431| 
    2032                    .dwpsn  file "C:/ti/ccs1110/ccs/tools/compiler/ti-cgt-msp430_21.6.1.LTS/include/_defs.h",line 
    2033 00000a F03F          AND.W     #32752,r15            ; [] |436| 
         00000c 7FF0 
    2034 00000e 903F          CMP.W     #32752,r15            ; [] |436| 
         000010 7FF0 
    2035 000012 2011          JNE       $C$L25                ; [] |436| 
    2036                                                      ; [] |436| 
    2037            ;* --------------------------------------------------------------------------*
    2038 000014 F334          AND.W     #65535,r4             ; [] |436| 
    2039 000016 F335          AND.W     #65535,r5             ; [] |436| 
    2040 000018 F336          AND.W     #65535,r6             ; [] |436| 
    2041 00001a F037          AND.W     #15,r7                ; [] |436| 
         00001c 000F 
    2042 00001e 9307          TST.W     r7                    ; [] |436| 
    2043 000020 2006          JNE       $C$L23                ; [] |436| 
    2044                                                      ; [] |436| 
    2045            ;* --------------------------------------------------------------------------*
    2046 000022 9306          TST.W     r6                    ; [] |436| 
    2047 000024 2004          JNE       $C$L23                ; [] |436| 
MSP430 Assembler PC v21.6.1 Tue Dec 20 13:46:02 2022

Copyright (c) 2003-2018 Texas Instruments Incorporated
TC_Fault_Check.asm                                                   PAGE   39

    2048                                                      ; [] |436| 
    2049            ;* --------------------------------------------------------------------------*
    2050 000026 9305          TST.W     r5                    ; [] |436| 
    2051 000028 2002          JNE       $C$L23                ; [] |436| 
    2052                                                      ; [] |436| 
    2053            ;* --------------------------------------------------------------------------*
    2054 00002a 9304          TST.W     r4                    ; [] |436| 
    2055 00002c 2402          JEQ       $C$L24                ; [] |436| 
    2056                                                      ; [] |436| 
    2057            ;* --------------------------------------------------------------------------*
    2058 00002e       $C$L23:    
    2059 00002e 432C          MOV.W     #2,r12                ; [] |436| 
    2060 000030 3C2A          JMP       $C$L30                ; [] |436| 
    2061                                                      ; [] |436| 
    2062            ;* --------------------------------------------------------------------------*
    2063 000032       $C$L24:    
    2064 000032 431C          MOV.W     #1,r12                ; [] |436| 
    2065 000034 3C28          JMP       $C$L30                ; [] |436| 
    2066                                                      ; [] |436| 
    2067            ;* --------------------------------------------------------------------------*
    2068 000036       $C$L25:    
    2069 000036 04C8          MOVA      r4,r8                 ; [] |436| 
    2070 000038 05C9          MOVA      r5,r9                 ; [] |436| 
    2071 00003a 06CA          MOVA      r6,r10                ; [] |436| 
    2072 00003c 07CB          MOVA      r7,r11                ; [] |436| 
    2073 00003e 403C          MOV.W     #52,r12               ; [] |436| 
         000040 0034 
    2074            $C$DW$114       .dwtag  DW_TAG_TI_branch
    2075                    .dwattr $C$DW$114, DW_AT_low_pc(0x00)
    2076                    .dwattr $C$DW$114, DW_AT_name("__mspabi_srlll")
    2077                    .dwattr $C$DW$114, DW_AT_TI_call
    2078            
    2079 000042 13B0!         CALLA     #__mspabi_srlll       ; [] |436| 
         000044 0000 
    2080                                                      ; [] |436| 
    2081 000046 F03C          AND.W     #2047,r12             ; [] |436| 
         000048 07FF 
    2082 00004a F30D          AND.W     #0,r13                ; [] |436| 
    2083 00004c F30E          AND.W     #0,r14                ; [] |436| 
    2084 00004e F30F          AND.W     #0,r15                ; [] |436| 
    2085 000050 930F          TST.W     r15                   ; [] |436| 
    2086 000052 2006          JNE       $C$L26                ; [] |436| 
    2087                                                      ; [] |436| 
    2088            ;* --------------------------------------------------------------------------*
    2089 000054 930E          TST.W     r14                   ; [] |436| 
    2090 000056 2004          JNE       $C$L26                ; [] |436| 
    2091                                                      ; [] |436| 
    2092            ;* --------------------------------------------------------------------------*
    2093 000058 930D          TST.W     r13                   ; [] |436| 
    2094 00005a 2002          JNE       $C$L26                ; [] |436| 
    2095                                                      ; [] |436| 
    2096            ;* --------------------------------------------------------------------------*
    2097 00005c 930C          TST.W     r12                   ; [] |436| 
    2098 00005e 2402          JEQ       $C$L27                ; [] |436| 
    2099                                                      ; [] |436| 
MSP430 Assembler PC v21.6.1 Tue Dec 20 13:46:02 2022

Copyright (c) 2003-2018 Texas Instruments Incorporated
TC_Fault_Check.asm                                                   PAGE   40

    2100            ;* --------------------------------------------------------------------------*
    2101 000060       $C$L26:    
    2102 000060 433C          MOV.W     #-1,r12               ; [] |436| 
    2103 000062 3C11          JMP       $C$L30                ; [] |436| 
    2104                                                      ; [] |436| 
    2105            ;* --------------------------------------------------------------------------*
    2106 000064       $C$L27:    
    2107 000064 F334          AND.W     #65535,r4             ; [] |436| 
    2108 000066 F335          AND.W     #65535,r5             ; [] |436| 
    2109 000068 F336          AND.W     #65535,r6             ; [] |436| 
    2110 00006a F037          AND.W     #15,r7                ; [] |436| 
         00006c 000F 
    2111 00006e 9307          TST.W     r7                    ; [] |436| 
    2112 000070 2006          JNE       $C$L28                ; [] |436| 
    2113                                                      ; [] |436| 
    2114            ;* --------------------------------------------------------------------------*
    2115 000072 9306          TST.W     r6                    ; [] |436| 
    2116 000074 2004          JNE       $C$L28                ; [] |436| 
    2117                                                      ; [] |436| 
    2118            ;* --------------------------------------------------------------------------*
    2119 000076 9305          TST.W     r5                    ; [] |436| 
    2120 000078 2002          JNE       $C$L28                ; [] |436| 
    2121                                                      ; [] |436| 
    2122            ;* --------------------------------------------------------------------------*
    2123 00007a 9304          TST.W     r4                    ; [] |436| 
    2124 00007c 2403          JEQ       $C$L29                ; [] |436| 
    2125                                                      ; [] |436| 
    2126            ;* --------------------------------------------------------------------------*
    2127 00007e       $C$L28:    
    2128 00007e 403C          MOV.W     #65534,r12            ; [] |436| 
         000080 FFFE 
    2129 000082 3C01          JMP       $C$L30                ; [] |436| 
    2130                                                      ; [] |436| 
    2131            ;* --------------------------------------------------------------------------*
    2132 000084       $C$L29:    
    2133 000084 430C          MOV.W     #0,r12                ; [] |436| 
    2134            ;* --------------------------------------------------------------------------*
    2135 000086       $C$L30:    
    2136                    .dwpsn  file "C:/ti/ccs1110/ccs/tools/compiler/ti-cgt-msp430_21.6.1.LTS/include/_defs.h",line 
    2137 000086 1664          POPM.A    #7,r10                ; [] 
    2138                    .dwcfi  restore_reg, 4
    2139                    .dwcfi  restore_reg, 5
    2140                    .dwcfi  restore_reg, 6
    2141                    .dwcfi  restore_reg, 7
    2142                    .dwcfi  restore_reg, 8
    2143                    .dwcfi  restore_reg, 9
    2144                    .dwcfi  restore_reg, 10
    2145                    .dwcfi  cfa_offset, 4
    2146            $C$DW$115       .dwtag  DW_TAG_TI_branch
    2147                    .dwattr $C$DW$115, DW_AT_low_pc(0x00)
    2148                    .dwattr $C$DW$115, DW_AT_TI_return
    2149            
    2150 000088 0110          RETA      ; [] 
    2151                    ; [] 
    2152                    .dwattr $C$DW$111, DW_AT_TI_end_file("C:/ti/ccs1110/ccs/tools/compiler/ti-cgt-msp430_21.6.1.LT
MSP430 Assembler PC v21.6.1 Tue Dec 20 13:46:02 2022

Copyright (c) 2003-2018 Texas Instruments Incorporated
TC_Fault_Check.asm                                                   PAGE   41

    2153                    .dwattr $C$DW$111, DW_AT_TI_end_line(0x1bd)
    2154                    .dwattr $C$DW$111, DW_AT_TI_end_column(0x01)
    2155                    .dwendentry
    2156                    .dwendtag $C$DW$111
    2157            
    2158 000000               .sect   ".text:__fpclassifyf"
    2159                    .clink
    2160                    .global __fpclassifyf
    2161            
    2162            $C$DW$116       .dwtag  DW_TAG_subprogram
    2163                    .dwattr $C$DW$116, DW_AT_name("__fpclassifyf")
    2164                    .dwattr $C$DW$116, DW_AT_low_pc(__fpclassifyf)
    2165                    .dwattr $C$DW$116, DW_AT_high_pc(0x00)
    2166                    .dwattr $C$DW$116, DW_AT_TI_symbol_name("__fpclassifyf")
    2167                    .dwattr $C$DW$116, DW_AT_external
    2168                    .dwattr $C$DW$116, DW_AT_type(*$C$DW$T$10)
    2169                    .dwattr $C$DW$116, DW_AT_TI_begin_file("C:/ti/ccs1110/ccs/tools/compiler/ti-cgt-msp430_21.6.1.
    2170                    .dwattr $C$DW$116, DW_AT_TI_begin_line(0x18c)
    2171                    .dwattr $C$DW$116, DW_AT_TI_begin_column(0x25)
    2172                    .dwattr $C$DW$116, DW_AT_decl_file("C:/ti/ccs1110/ccs/tools/compiler/ti-cgt-msp430_21.6.1.LTS/
    2173                    .dwattr $C$DW$116, DW_AT_decl_line(0x18c)
    2174                    .dwattr $C$DW$116, DW_AT_decl_column(0x25)
    2175                    .dwattr $C$DW$116, DW_AT_TI_max_frame_size(0x04)
    2176                    .dwpsn  file "C:/ti/ccs1110/ccs/tools/compiler/ti-cgt-msp430_21.6.1.LTS/include/_defs.h",line 
    2177            
    2178                    .dwfde $C$DW$CIE, __fpclassifyf
    2179            $C$DW$117       .dwtag  DW_TAG_formal_parameter
    2180                    .dwattr $C$DW$117, DW_AT_name("f")
    2181                    .dwattr $C$DW$117, DW_AT_TI_symbol_name("f")
    2182                    .dwattr $C$DW$117, DW_AT_type(*$C$DW$T$16)
    2183                    .dwattr $C$DW$117, DW_AT_location[DW_OP_reg12 DW_OP_piece 2 DW_OP_reg13 DW_OP_piece 2]
    2184            
    2185            
    2186            ;*****************************************************************************
    2187            ;* FUNCTION NAME: __fpclassifyf                                              *
    2188            ;*                                                                           *
    2189            ;*   Regs Modified     : SP,SR,r12,r13,r15                                   *
    2190            ;*   Regs Used         : SP,SR,r12,r13,r15                                   *
    2191            ;*   Local Frame Size  : 0 Args + 0 Auto + 0 Save = 0 byte                   *
    2192            ;*****************************************************************************
    2193 000000       __fpclassifyf:
    2194            ;* --------------------------------------------------------------------------*
    2195                    .dwcfi  cfa_offset, 4
    2196                    .dwcfi  save_reg_to_mem, 16, -4
    2197                    .dwpsn  file "C:/ti/ccs1110/ccs/tools/compiler/ti-cgt-msp430_21.6.1.LTS/include/_defs.h",line 
    2198 000000 0DCF          MOVA      r13,r15               ; [] |402| 
    2199 000002 F03F          AND.W     #32640,r15            ; [] |402| 
         000004 7F80 
    2200 000006 903F          CMP.W     #32640,r15            ; [] |402| 
         000008 7F80 
    2201 00000a 200B          JNE       $C$L33                ; [] |402| 
    2202                                                      ; [] |402| 
    2203            ;* --------------------------------------------------------------------------*
    2204 00000c F33C          AND.W     #65535,r12            ; [] |402| 
    2205 00000e F03D          AND.W     #127,r13              ; [] |402| 
MSP430 Assembler PC v21.6.1 Tue Dec 20 13:46:02 2022

Copyright (c) 2003-2018 Texas Instruments Incorporated
TC_Fault_Check.asm                                                   PAGE   42

         000010 007F 
    2206 000012 930D          TST.W     r13                   ; [] |402| 
    2207 000014 2002          JNE       $C$L31                ; [] |402| 
    2208                                                      ; [] |402| 
    2209            ;* --------------------------------------------------------------------------*
    2210 000016 930C          TST.W     r12                   ; [] |402| 
    2211 000018 2402          JEQ       $C$L32                ; [] |402| 
    2212                                                      ; [] |402| 
    2213            ;* --------------------------------------------------------------------------*
    2214 00001a       $C$L31:    
    2215 00001a 432C          MOV.W     #2,r12                ; [] |402| 
    2216 00001c 3C15          JMP       $C$L37                ; [] |402| 
    2217                                                      ; [] |402| 
    2218            ;* --------------------------------------------------------------------------*
    2219 00001e       $C$L32:    
    2220 00001e 431C          MOV.W     #1,r12                ; [] |402| 
    2221 000020 3C13          JMP       $C$L37                ; [] |402| 
    2222                                                      ; [] |402| 
    2223            ;* --------------------------------------------------------------------------*
    2224 000022       $C$L33:    
    2225 000022 0DCF          MOVA      r13,r15               ; [] |402| 
    2226 000024 1946          RPT #7 || RRUX.W r15 ; [] |402| 
         000026 100F 
    2227 000028 B03F          BIT.W     #255,r15              ; [] |402| 
         00002a 00FF 
    2228 00002c 2402          JEQ       $C$L34                ; [] |402| 
    2229                                                      ; [] |402| 
    2230            ;* --------------------------------------------------------------------------*
    2231 00002e 433C          MOV.W     #-1,r12               ; [] |402| 
    2232 000030 3C0B          JMP       $C$L37                ; [] |402| 
    2233                                                      ; [] |402| 
    2234            ;* --------------------------------------------------------------------------*
    2235 000032       $C$L34:    
    2236 000032 F33C          AND.W     #65535,r12            ; [] |402| 
    2237 000034 F03D          AND.W     #127,r13              ; [] |402| 
         000036 007F 
    2238 000038 930D          TST.W     r13                   ; [] |402| 
    2239 00003a 2002          JNE       $C$L35                ; [] |402| 
    2240                                                      ; [] |402| 
    2241            ;* --------------------------------------------------------------------------*
    2242 00003c 930C          TST.W     r12                   ; [] |402| 
    2243 00003e 2403          JEQ       $C$L36                ; [] |402| 
    2244                                                      ; [] |402| 
    2245            ;* --------------------------------------------------------------------------*
    2246 000040       $C$L35:    
    2247 000040 403C          MOV.W     #65534,r12            ; [] |402| 
         000042 FFFE 
    2248 000044 3C01          JMP       $C$L37                ; [] |402| 
    2249                                                      ; [] |402| 
    2250            ;* --------------------------------------------------------------------------*
    2251 000046       $C$L36:    
    2252 000046 430C          MOV.W     #0,r12                ; [] |402| 
    2253            ;* --------------------------------------------------------------------------*
    2254 000048       $C$L37:    
    2255                    .dwpsn  file "C:/ti/ccs1110/ccs/tools/compiler/ti-cgt-msp430_21.6.1.LTS/include/_defs.h",line 
MSP430 Assembler PC v21.6.1 Tue Dec 20 13:46:02 2022

Copyright (c) 2003-2018 Texas Instruments Incorporated
TC_Fault_Check.asm                                                   PAGE   43

    2256            $C$DW$118       .dwtag  DW_TAG_TI_branch
    2257                    .dwattr $C$DW$118, DW_AT_low_pc(0x00)
    2258                    .dwattr $C$DW$118, DW_AT_TI_return
    2259            
    2260 000048 0110          RETA      ; [] 
    2261                    ; [] 
    2262                    .dwattr $C$DW$116, DW_AT_TI_end_file("C:/ti/ccs1110/ccs/tools/compiler/ti-cgt-msp430_21.6.1.LT
    2263                    .dwattr $C$DW$116, DW_AT_TI_end_line(0x19b)
    2264                    .dwattr $C$DW$116, DW_AT_TI_end_column(0x01)
    2265                    .dwendentry
    2266                    .dwendtag $C$DW$116
    2267            
    2268 000000               .sect   ".text:__fpclassify"
    2269                    .clink
    2270                    .global __fpclassify
    2271            
    2272            $C$DW$119       .dwtag  DW_TAG_subprogram
    2273                    .dwattr $C$DW$119, DW_AT_name("__fpclassify")
    2274                    .dwattr $C$DW$119, DW_AT_low_pc(__fpclassify)
    2275                    .dwattr $C$DW$119, DW_AT_high_pc(0x00)
    2276                    .dwattr $C$DW$119, DW_AT_TI_symbol_name("__fpclassify")
    2277                    .dwattr $C$DW$119, DW_AT_external
    2278                    .dwattr $C$DW$119, DW_AT_type(*$C$DW$T$10)
    2279                    .dwattr $C$DW$119, DW_AT_TI_begin_file("C:/ti/ccs1110/ccs/tools/compiler/ti-cgt-msp430_21.6.1.
    2280                    .dwattr $C$DW$119, DW_AT_TI_begin_line(0x19d)
    2281                    .dwattr $C$DW$119, DW_AT_TI_begin_column(0x25)
    2282                    .dwattr $C$DW$119, DW_AT_decl_file("C:/ti/ccs1110/ccs/tools/compiler/ti-cgt-msp430_21.6.1.LTS/
    2283                    .dwattr $C$DW$119, DW_AT_decl_line(0x19d)
    2284                    .dwattr $C$DW$119, DW_AT_decl_column(0x25)
    2285                    .dwattr $C$DW$119, DW_AT_TI_max_frame_size(0x20)
    2286                    .dwpsn  file "C:/ti/ccs1110/ccs/tools/compiler/ti-cgt-msp430_21.6.1.LTS/include/_defs.h",line 
    2287            
    2288                    .dwfde $C$DW$CIE, __fpclassify
    2289            $C$DW$120       .dwtag  DW_TAG_formal_parameter
    2290                    .dwattr $C$DW$120, DW_AT_name("d")
    2291                    .dwattr $C$DW$120, DW_AT_TI_symbol_name("d")
    2292                    .dwattr $C$DW$120, DW_AT_type(*$C$DW$T$17)
    2293                    .dwattr $C$DW$120, DW_AT_location[DW_OP_reg12 DW_OP_piece 2 DW_OP_reg13 DW_OP_piece 2 DW_OP_re
    2294            
    2295            
    2296            ;*****************************************************************************
    2297            ;* FUNCTION NAME: __fpclassify                                               *
    2298            ;*                                                                           *
    2299            ;*   Regs Modified     : SP,SR,r4,r5,r6,r7,r8,r9,r10,r11,r12,r13,r14,r15     *
    2300            ;*   Regs Used         : SP,SR,r4,r5,r6,r7,r8,r9,r10,r11,r12,r13,r14,r15     *
    2301            ;*   Local Frame Size  : 0 Args + 0 Auto + 28 Save = 28 byte                 *
    2302            ;*****************************************************************************
    2303 000000       __fpclassify:
    2304            ;* --------------------------------------------------------------------------*
    2305                    .dwcfi  cfa_offset, 4
    2306                    .dwcfi  save_reg_to_mem, 16, -4
    2307 000000 146A          PUSHM.A   #7,r10                ; [] 
    2308                    .dwcfi  save_reg_to_mem, 10, -8
    2309                    .dwcfi  save_reg_to_mem, 9, -12
    2310                    .dwcfi  save_reg_to_mem, 8, -16
MSP430 Assembler PC v21.6.1 Tue Dec 20 13:46:02 2022

Copyright (c) 2003-2018 Texas Instruments Incorporated
TC_Fault_Check.asm                                                   PAGE   44

    2311                    .dwcfi  save_reg_to_mem, 7, -20
    2312                    .dwcfi  save_reg_to_mem, 6, -24
    2313                    .dwcfi  save_reg_to_mem, 5, -28
    2314                    .dwcfi  save_reg_to_mem, 4, -32
    2315                    .dwcfi  cfa_offset, 32
    2316            ;* r4    assigned to d
    2317            $C$DW$121       .dwtag  DW_TAG_variable
    2318                    .dwattr $C$DW$121, DW_AT_name("d")
    2319                    .dwattr $C$DW$121, DW_AT_TI_symbol_name("d")
    2320                    .dwattr $C$DW$121, DW_AT_type(*$C$DW$T$17)
    2321                    .dwattr $C$DW$121, DW_AT_location[DW_OP_reg4 DW_OP_piece 2 DW_OP_reg5 DW_OP_piece 2 DW_OP_reg6
    2322            
    2323 000002 0CC4          MOVA      r12,r4                ; [] |414| 
    2324 000004 0DC5          MOVA      r13,r5                ; [] |414| 
    2325 000006 0EC6          MOVA      r14,r6                ; [] |414| 
    2326 000008 0FC7          MOVA      r15,r7                ; [] |414| 
    2327                    .dwpsn  file "C:/ti/ccs1110/ccs/tools/compiler/ti-cgt-msp430_21.6.1.LTS/include/_defs.h",line 
    2328 00000a F03F          AND.W     #32752,r15            ; [] |419| 
         00000c 7FF0 
    2329 00000e 903F          CMP.W     #32752,r15            ; [] |419| 
         000010 7FF0 
    2330 000012 2011          JNE       $C$L40                ; [] |419| 
    2331                                                      ; [] |419| 
    2332            ;* --------------------------------------------------------------------------*
    2333 000014 F334          AND.W     #65535,r4             ; [] |419| 
    2334 000016 F335          AND.W     #65535,r5             ; [] |419| 
    2335 000018 F336          AND.W     #65535,r6             ; [] |419| 
    2336 00001a F037          AND.W     #15,r7                ; [] |419| 
         00001c 000F 
    2337 00001e 9307          TST.W     r7                    ; [] |419| 
    2338 000020 2006          JNE       $C$L38                ; [] |419| 
    2339                                                      ; [] |419| 
    2340            ;* --------------------------------------------------------------------------*
    2341 000022 9306          TST.W     r6                    ; [] |419| 
    2342 000024 2004          JNE       $C$L38                ; [] |419| 
    2343                                                      ; [] |419| 
    2344            ;* --------------------------------------------------------------------------*
    2345 000026 9305          TST.W     r5                    ; [] |419| 
    2346 000028 2002          JNE       $C$L38                ; [] |419| 
    2347                                                      ; [] |419| 
    2348            ;* --------------------------------------------------------------------------*
    2349 00002a 9304          TST.W     r4                    ; [] |419| 
    2350 00002c 2402          JEQ       $C$L39                ; [] |419| 
    2351                                                      ; [] |419| 
    2352            ;* --------------------------------------------------------------------------*
    2353 00002e       $C$L38:    
    2354 00002e 432C          MOV.W     #2,r12                ; [] |419| 
    2355 000030 3C2A          JMP       $C$L45                ; [] |419| 
    2356                                                      ; [] |419| 
    2357            ;* --------------------------------------------------------------------------*
    2358 000032       $C$L39:    
    2359 000032 431C          MOV.W     #1,r12                ; [] |419| 
    2360 000034 3C28          JMP       $C$L45                ; [] |419| 
    2361                                                      ; [] |419| 
    2362            ;* --------------------------------------------------------------------------*
MSP430 Assembler PC v21.6.1 Tue Dec 20 13:46:02 2022

Copyright (c) 2003-2018 Texas Instruments Incorporated
TC_Fault_Check.asm                                                   PAGE   45

    2363 000036       $C$L40:    
    2364 000036 04C8          MOVA      r4,r8                 ; [] |419| 
    2365 000038 05C9          MOVA      r5,r9                 ; [] |419| 
    2366 00003a 06CA          MOVA      r6,r10                ; [] |419| 
    2367 00003c 07CB          MOVA      r7,r11                ; [] |419| 
    2368 00003e 403C          MOV.W     #52,r12               ; [] |419| 
         000040 0034 
    2369            $C$DW$122       .dwtag  DW_TAG_TI_branch
    2370                    .dwattr $C$DW$122, DW_AT_low_pc(0x00)
    2371                    .dwattr $C$DW$122, DW_AT_name("__mspabi_srlll")
    2372                    .dwattr $C$DW$122, DW_AT_TI_call
    2373            
    2374 000042 13B0!         CALLA     #__mspabi_srlll       ; [] |419| 
         000044 0000 
    2375                                                      ; [] |419| 
    2376 000046 F03C          AND.W     #2047,r12             ; [] |419| 
         000048 07FF 
    2377 00004a F30D          AND.W     #0,r13                ; [] |419| 
    2378 00004c F30E          AND.W     #0,r14                ; [] |419| 
    2379 00004e F30F          AND.W     #0,r15                ; [] |419| 
    2380 000050 930F          TST.W     r15                   ; [] |419| 
    2381 000052 2006          JNE       $C$L41                ; [] |419| 
    2382                                                      ; [] |419| 
    2383            ;* --------------------------------------------------------------------------*
    2384 000054 930E          TST.W     r14                   ; [] |419| 
    2385 000056 2004          JNE       $C$L41                ; [] |419| 
    2386                                                      ; [] |419| 
    2387            ;* --------------------------------------------------------------------------*
    2388 000058 930D          TST.W     r13                   ; [] |419| 
    2389 00005a 2002          JNE       $C$L41                ; [] |419| 
    2390                                                      ; [] |419| 
    2391            ;* --------------------------------------------------------------------------*
    2392 00005c 930C          TST.W     r12                   ; [] |419| 
    2393 00005e 2402          JEQ       $C$L42                ; [] |419| 
    2394                                                      ; [] |419| 
    2395            ;* --------------------------------------------------------------------------*
    2396 000060       $C$L41:    
    2397 000060 433C          MOV.W     #-1,r12               ; [] |419| 
    2398 000062 3C11          JMP       $C$L45                ; [] |419| 
    2399                                                      ; [] |419| 
    2400            ;* --------------------------------------------------------------------------*
    2401 000064       $C$L42:    
    2402 000064 F334          AND.W     #65535,r4             ; [] |419| 
    2403 000066 F335          AND.W     #65535,r5             ; [] |419| 
    2404 000068 F336          AND.W     #65535,r6             ; [] |419| 
    2405 00006a F037          AND.W     #15,r7                ; [] |419| 
         00006c 000F 
    2406 00006e 9307          TST.W     r7                    ; [] |419| 
    2407 000070 2006          JNE       $C$L43                ; [] |419| 
    2408                                                      ; [] |419| 
    2409            ;* --------------------------------------------------------------------------*
    2410 000072 9306          TST.W     r6                    ; [] |419| 
    2411 000074 2004          JNE       $C$L43                ; [] |419| 
    2412                                                      ; [] |419| 
    2413            ;* --------------------------------------------------------------------------*
MSP430 Assembler PC v21.6.1 Tue Dec 20 13:46:02 2022

Copyright (c) 2003-2018 Texas Instruments Incorporated
TC_Fault_Check.asm                                                   PAGE   46

    2414 000076 9305          TST.W     r5                    ; [] |419| 
    2415 000078 2002          JNE       $C$L43                ; [] |419| 
    2416                                                      ; [] |419| 
    2417            ;* --------------------------------------------------------------------------*
    2418 00007a 9304          TST.W     r4                    ; [] |419| 
    2419 00007c 2403          JEQ       $C$L44                ; [] |419| 
    2420                                                      ; [] |419| 
    2421            ;* --------------------------------------------------------------------------*
    2422 00007e       $C$L43:    
    2423 00007e 403C          MOV.W     #65534,r12            ; [] |419| 
         000080 FFFE 
    2424 000082 3C01          JMP       $C$L45                ; [] |419| 
    2425                                                      ; [] |419| 
    2426            ;* --------------------------------------------------------------------------*
    2427 000084       $C$L44:    
    2428 000084 430C          MOV.W     #0,r12                ; [] |419| 
    2429            ;* --------------------------------------------------------------------------*
    2430 000086       $C$L45:    
    2431                    .dwpsn  file "C:/ti/ccs1110/ccs/tools/compiler/ti-cgt-msp430_21.6.1.LTS/include/_defs.h",line 
    2432 000086 1664          POPM.A    #7,r10                ; [] 
    2433                    .dwcfi  restore_reg, 4
    2434                    .dwcfi  restore_reg, 5
    2435                    .dwcfi  restore_reg, 6
    2436                    .dwcfi  restore_reg, 7
    2437                    .dwcfi  restore_reg, 8
    2438                    .dwcfi  restore_reg, 9
    2439                    .dwcfi  restore_reg, 10
    2440                    .dwcfi  cfa_offset, 4
    2441            $C$DW$123       .dwtag  DW_TAG_TI_branch
    2442                    .dwattr $C$DW$123, DW_AT_low_pc(0x00)
    2443                    .dwattr $C$DW$123, DW_AT_TI_return
    2444            
    2445 000088 0110          RETA      ; [] 
    2446                    ; [] 
    2447                    .dwattr $C$DW$119, DW_AT_TI_end_file("C:/ti/ccs1110/ccs/tools/compiler/ti-cgt-msp430_21.6.1.LT
    2448                    .dwattr $C$DW$119, DW_AT_TI_end_line(0x1ac)
    2449                    .dwattr $C$DW$119, DW_AT_TI_end_column(0x01)
    2450                    .dwendentry
    2451                    .dwendtag $C$DW$119
    2452            
    2453 000000               .sect   ".text:TC_Fault_Check"
    2454                    .clink
    2455                    .global TC_Fault_Check
    2456            
    2457            $C$DW$124       .dwtag  DW_TAG_subprogram
    2458                    .dwattr $C$DW$124, DW_AT_name("TC_Fault_Check")
    2459                    .dwattr $C$DW$124, DW_AT_low_pc(TC_Fault_Check)
    2460                    .dwattr $C$DW$124, DW_AT_high_pc(0x00)
    2461                    .dwattr $C$DW$124, DW_AT_TI_symbol_name("TC_Fault_Check")
    2462                    .dwattr $C$DW$124, DW_AT_external
    2463                    .dwattr $C$DW$124, DW_AT_TI_begin_file("../src/TC_Fault_Check.c")
    2464                    .dwattr $C$DW$124, DW_AT_TI_begin_line(0x87)
    2465                    .dwattr $C$DW$124, DW_AT_TI_begin_column(0x06)
    2466                    .dwattr $C$DW$124, DW_AT_decl_file("../src/TC_Fault_Check.c")
    2467                    .dwattr $C$DW$124, DW_AT_decl_line(0x87)
MSP430 Assembler PC v21.6.1 Tue Dec 20 13:46:02 2022

Copyright (c) 2003-2018 Texas Instruments Incorporated
TC_Fault_Check.asm                                                   PAGE   47

    2468                    .dwattr $C$DW$124, DW_AT_decl_column(0x06)
    2469                    .dwattr $C$DW$124, DW_AT_TI_max_frame_size(0x10)
    2470                    .dwpsn  file "../src/TC_Fault_Check.c",line 136,column 1,is_stmt,address TC_Fault_Check,isa 0
    2471            
    2472                    .dwfde $C$DW$CIE, TC_Fault_Check
    2473            
    2474            ;*****************************************************************************
    2475            ;* FUNCTION NAME: TC_Fault_Check                                             *
    2476            ;*                                                                           *
    2477            ;*   Regs Modified     : SP,SR,r8,r9,r10,r11,r12,r13,r14,r15                 *
    2478            ;*   Regs Used         : SP,SR,r8,r9,r10,r11,r12,r13,r14,r15                 *
    2479            ;*   Local Frame Size  : 0 Args + 0 Auto + 12 Save = 12 byte                 *
    2480            ;*****************************************************************************
    2481 000000       TC_Fault_Check:
    2482            ;* --------------------------------------------------------------------------*
    2483                    .dwcfi  cfa_offset, 4
    2484                    .dwcfi  save_reg_to_mem, 16, -4
    2485 000000 142A          PUSHM.A   #3,r10                ; [] 
    2486                    .dwcfi  save_reg_to_mem, 10, -8
    2487                    .dwcfi  save_reg_to_mem, 9, -12
    2488                    .dwcfi  save_reg_to_mem, 8, -16
    2489                    .dwcfi  cfa_offset, 16
    2490            ;* r15   assigned to rewarm_half_seconds
    2491            $C$DW$125       .dwtag  DW_TAG_variable
    2492                    .dwattr $C$DW$125, DW_AT_name("rewarm_half_seconds")
    2493                    .dwattr $C$DW$125, DW_AT_TI_symbol_name("rewarm_half_seconds")
    2494                    .dwattr $C$DW$125, DW_AT_type(*$C$DW$T$10)
    2495                    .dwattr $C$DW$125, DW_AT_location[DW_OP_reg15]
    2496            
    2497                    .dwpsn  file "../src/TC_Fault_Check.c",line 142,column 13,is_stmt,isa 0
    2498 000002 B2E2          BIT.B     #4,&PDIN_H+0          ; [] |142| 
         000004 0000!
    2499 000006 2002          JNE       $C$L46                ; [] |142| 
    2500                                                      ; [] |142| 
    2501            ;* --------------------------------------------------------------------------*
    2502                    .dwpsn  file "../src/TC_Fault_Check.c",line 143,column 16,is_stmt,isa 0
    2503 000008 43C2          MOV.B     #0,&dly+0             ; [] |143| 
         00000a 0000!
    2504            ;* --------------------------------------------------------------------------*
    2505 00000c       $C$L46:    
    2506                    .dwpsn  file "../src/TC_Fault_Check.c",line 147,column 15,is_stmt,isa 0
    2507 00000c 90B2          CMP.W     #10,&L+0              ; [] |147| 
         00000e 000A 
         000010 0000!
    2508 000012 384E          JL        $C$L49                ; [] |147| 
    2509                                                      ; [] |147| 
    2510            ;* --------------------------------------------------------------------------*
    2511                    .dwpsn  file "../src/TC_Fault_Check.c",line 149,column 22,is_stmt,isa 0
    2512 000014 4382          MOV.W     #0,&K+0               ; [] |149| 
         000016 0000!
    2513                    .dwpsn  file "../src/TC_Fault_Check.c",line 149,column 26,is_stmt,isa 0
    2514 000018 90B2          CMP.W     #9,&K+0               ; [] |149| 
         00001a 0009 
         00001c 0000!
    2515 00001e 342D          JGE       $C$L48                ; [] |149| 
MSP430 Assembler PC v21.6.1 Tue Dec 20 13:46:02 2022

Copyright (c) 2003-2018 Texas Instruments Incorporated
TC_Fault_Check.asm                                                   PAGE   48

    2516                                                      ; [] |149| 
    2517            ;* --------------------------------------------------------------------------*
    2518            ;*   BEGIN LOOP $C$L47
    2519            ;*
    2520            ;*   Loop source line                : 149
    2521            ;*   Loop closing brace source line  : 154
    2522            ;*   Known Minimum Trip Count        : 1
    2523            ;*   Known Maximum Trip Count        : 4294967295
    2524            ;*   Known Max Trip Count Factor     : 1
    2525            ;* --------------------------------------------------------------------------*
    2526 000020       $C$L47:    
    2527                    .dwpsn  file "../src/TC_Fault_Check.c",line 151,column 19,is_stmt,isa 0
    2528 000020 421F          MOV.W     &K+0,r15              ; [] |151| 
         000022 0000!
    2529 000024 065F          RLAM.W    #2,r15                ; [] |151| 
    2530 000026 522F          ADD.W     #4,r15                ; [] |151| 
    2531 000028 421E          MOV.W     &K+0,r14              ; [] |151| 
         00002a 0000!
    2532 00002c 065E          RLAM.W    #2,r14                ; [] |151| 
    2533 00002e 4F9E          MOV.W     yFPTM+0(r15),yFPTM+0(r14) ; [] |151| 
         000030 0000!
         000032 0000!
    2534 000034 4F9E          MOV.W     yFPTM+2(r15),yFPTM+2(r14) ; [] |151| 
         000036 0002!
         000038 0002!
    2535                    .dwpsn  file "../src/TC_Fault_Check.c",line 152,column 19,is_stmt,isa 0
    2536 00003a 421F          MOV.W     &K+0,r15              ; [] |152| 
         00003c 0000!
    2537 00003e 065F          RLAM.W    #2,r15                ; [] |152| 
    2538 000040 522F          ADD.W     #4,r15                ; [] |152| 
    2539 000042 421E          MOV.W     &K+0,r14              ; [] |152| 
         000044 0000!
    2540 000046 065E          RLAM.W    #2,r14                ; [] |152| 
    2541 000048 4F9E          MOV.W     yFCTM+0(r15),yFCTM+0(r14) ; [] |152| 
         00004a 0000!
         00004c 0000!
    2542 00004e 4F9E          MOV.W     yFCTM+2(r15),yFCTM+2(r14) ; [] |152| 
         000050 0002!
         000052 0002!
    2543                    .dwpsn  file "../src/TC_Fault_Check.c",line 153,column 19,is_stmt,isa 0
    2544 000054 421F          MOV.W     &K+0,r15              ; [] |153| 
         000056 0000!
    2545 000058 065F          RLAM.W    #2,r15                ; [] |153| 
    2546 00005a 522F          ADD.W     #4,r15                ; [] |153| 
    2547 00005c 421E          MOV.W     &K+0,r14              ; [] |153| 
         00005e 0000!
    2548 000060 065E          RLAM.W    #2,r14                ; [] |153| 
    2549 000062 4F9E          MOV.W     yFCBTM+0(r15),yFCBTM+0(r14) ; [] |153| 
         000064 0000!
         000066 0000!
    2550 000068 4F9E          MOV.W     yFCBTM+2(r15),yFCBTM+2(r14) ; [] |153| 
         00006a 0002!
         00006c 0002!
    2551                    .dwpsn  file "../src/TC_Fault_Check.c",line 149,column 30,is_stmt,isa 0
    2552 00006e 5392          ADD.W     #1,&K+0               ; [] |149| 
MSP430 Assembler PC v21.6.1 Tue Dec 20 13:46:02 2022

Copyright (c) 2003-2018 Texas Instruments Incorporated
TC_Fault_Check.asm                                                   PAGE   49

         000070 0000!
    2553 000072 90B2          CMP.W     #9,&K+0               ; [] |149| 
         000074 0009 
         000076 0000!
    2554 000078 3BD3          JL        $C$L47                ; [] |149| 
    2555                                                      ; [] |149| 
    2556            ;* --------------------------------------------------------------------------*
    2557 00007a       $C$L48:    
    2558                    .dwpsn  file "../src/TC_Fault_Check.c",line 155,column 17,is_stmt,isa 0
    2559 00007a 4292          MOV.W     &TC2_temp+0,&yFPTM+36 ; [] |155| 
         00007c 0000!
         00007e 0024!
    2560 000080 4292          MOV.W     &TC2_temp+2,&yFPTM+38 ; [] |155| 
         000082 0002!
         000084 0026!
    2561                    .dwpsn  file "../src/TC_Fault_Check.c",line 156,column 17,is_stmt,isa 0
    2562 000086 4292          MOV.W     &TC1_temp+0,&yFCTM+36 ; [] |156| 
         000088 0000!
         00008a 0024!
    2563 00008c 4292          MOV.W     &TC1_temp+2,&yFCTM+38 ; [] |156| 
         00008e 0002!
         000090 0026!
    2564                    .dwpsn  file "../src/TC_Fault_Check.c",line 157,column 17,is_stmt,isa 0
    2565 000092 4292          MOV.W     &FC_burner_temp+0,&yFCBTM+36 ; [] |157| 
         000094 0000!
         000096 0024!
    2566 000098 4292          MOV.W     &FC_burner_temp+2,&yFCBTM+38 ; [] |157| 
         00009a 0002!
         00009c 0026!
    2567                    .dwpsn  file "../src/TC_Fault_Check.c",line 158,column 17,is_stmt,isa 0
    2568 00009e 43D2          MOV.B     #1,&result+0          ; [] |158| 
         0000a0 0000!
    2569                    .dwpsn  file "../src/TC_Fault_Check.c",line 161,column 17,is_stmt,isa 0
    2570 0000a2 90F2          CMP.B     #20,&dly+0            ; [] |161| 
         0000a4 0014 
         0000a6 0000!
    2571 0000a8 2C22          JHS       $C$L50                ; [] |161| 
    2572                                                      ; [] |161| 
    2573            ;* --------------------------------------------------------------------------*
    2574                    .dwpsn  file "../src/TC_Fault_Check.c",line 162,column 19,is_stmt,isa 0
    2575 0000aa 53D2          ADD.B     #1,&dly+0             ; [] |162| 
         0000ac 0000!
    2576 0000ae 3C1F          JMP       $C$L50                ; [] |162| 
    2577                                                      ; [] |162| 
    2578            ;* --------------------------------------------------------------------------*
    2579 0000b0       $C$L49:    
    2580                    .dwpsn  file "../src/TC_Fault_Check.c",line 167,column 17,is_stmt,isa 0
    2581 0000b0 421F          MOV.W     &L+0,r15              ; [] |167| 
         0000b2 0000!
    2582 0000b4 065F          RLAM.W    #2,r15                ; [] |167| 
    2583 0000b6 429F          MOV.W     &TC2_temp+0,yFPTM+0(r15) ; [] |167| 
         0000b8 0000!
         0000ba 0000!
    2584 0000bc 429F          MOV.W     &TC2_temp+2,yFPTM+2(r15) ; [] |167| 
         0000be 0002!
MSP430 Assembler PC v21.6.1 Tue Dec 20 13:46:02 2022

Copyright (c) 2003-2018 Texas Instruments Incorporated
TC_Fault_Check.asm                                                   PAGE   50

         0000c0 0002!
    2585                    .dwpsn  file "../src/TC_Fault_Check.c",line 168,column 17,is_stmt,isa 0
    2586 0000c2 421F          MOV.W     &L+0,r15              ; [] |168| 
         0000c4 0000!
    2587 0000c6 065F          RLAM.W    #2,r15                ; [] |168| 
    2588 0000c8 429F          MOV.W     &TC1_temp+0,yFCTM+0(r15) ; [] |168| 
         0000ca 0000!
         0000cc 0000!
    2589 0000ce 429F          MOV.W     &TC1_temp+2,yFCTM+2(r15) ; [] |168| 
         0000d0 0002!
         0000d2 0002!
    2590                    .dwpsn  file "../src/TC_Fault_Check.c",line 169,column 17,is_stmt,isa 0
    2591 0000d4 421F          MOV.W     &L+0,r15              ; [] |169| 
         0000d6 0000!
    2592 0000d8 065F          RLAM.W    #2,r15                ; [] |169| 
    2593 0000da 429F          MOV.W     &FC_burner_temp+0,yFCBTM+0(r15) ; [] |169| 
         0000dc 0000!
         0000de 0000!
    2594 0000e0 429F          MOV.W     &FC_burner_temp+2,yFCBTM+2(r15) ; [] |169| 
         0000e2 0002!
         0000e4 0002!
    2595                    .dwpsn  file "../src/TC_Fault_Check.c",line 170,column 17,is_stmt,isa 0
    2596 0000e6 5392          ADD.W     #1,&L+0               ; [] |170| 
         0000e8 0000!
    2597                    .dwpsn  file "../src/TC_Fault_Check.c",line 171,column 17,is_stmt,isa 0
    2598 0000ea 43C2          MOV.B     #0,&result+0          ; [] |171| 
         0000ec 0000!
    2599            ;* --------------------------------------------------------------------------*
    2600 0000ee       $C$L50:    
    2601                    .dwpsn  file "../src/TC_Fault_Check.c",line 179,column 13,is_stmt,isa 0
    2602 0000ee 90F2          CMP.B     #20,&dly+0            ; [] |179| 
         0000f0 0014 
         0000f2 0000!
    2603 0000f4 296C          JLO       $C$L66                ; [] |179| 
    2604                                                      ; [] |179| 
    2605            ;* --------------------------------------------------------------------------*
    2606                    .dwpsn  file "../src/TC_Fault_Check.c",line 182,column 15,is_stmt,isa 0
    2607 0000f6 421C          MOV.W     &yFCTM+0,r12          ; [] |182| 
         0000f8 0000!
    2608 0000fa 421D          MOV.W     &yFCTM+2,r13          ; [] |182| 
         0000fc 0002!
    2609            $C$DW$126       .dwtag  DW_TAG_TI_branch
    2610                    .dwattr $C$DW$126, DW_AT_low_pc(0x00)
    2611                    .dwattr $C$DW$126, DW_AT_name("__mspabi_fixfi")
    2612                    .dwattr $C$DW$126, DW_AT_TI_call
    2613            
    2614 0000fe 13B0!         CALLA     #__mspabi_fixfi       ; [] |182| 
         000100 0000 
    2615                                                      ; [] |182| 
    2616 000102 4C82          MOV.W     r12,&min+0            ; [] |182| 
         000104 0000!
    2617                    .dwpsn  file "../src/TC_Fault_Check.c",line 183,column 15,is_stmt,isa 0
    2618 000106 421C          MOV.W     &yFCTM+0,r12          ; [] |183| 
         000108 0000!
    2619 00010a 421D          MOV.W     &yFCTM+2,r13          ; [] |183| 
MSP430 Assembler PC v21.6.1 Tue Dec 20 13:46:02 2022

Copyright (c) 2003-2018 Texas Instruments Incorporated
TC_Fault_Check.asm                                                   PAGE   51

         00010c 0002!
    2620            $C$DW$127       .dwtag  DW_TAG_TI_branch
    2621                    .dwattr $C$DW$127, DW_AT_low_pc(0x00)
    2622                    .dwattr $C$DW$127, DW_AT_name("__mspabi_fixfi")
    2623                    .dwattr $C$DW$127, DW_AT_TI_call
    2624            
    2625 00010e 13B0!         CALLA     #__mspabi_fixfi       ; [] |183| 
         000110 0000 
    2626                                                      ; [] |183| 
    2627 000112 4C82          MOV.W     r12,&max+0            ; [] |183| 
         000114 0000!
    2628                    .dwpsn  file "../src/TC_Fault_Check.c",line 186,column 20,is_stmt,isa 0
    2629 000116 4392          MOV.W     #1,&K+0               ; [] |186| 
         000118 0000!
    2630                    .dwpsn  file "../src/TC_Fault_Check.c",line 186,column 24,is_stmt,isa 0
    2631 00011a 92B2          CMP.W     #8,&K+0               ; [] |186| 
         00011c 0000!
    2632 00011e 343B          JGE       $C$L54                ; [] |186| 
    2633                                                      ; [] |186| 
    2634            ;* --------------------------------------------------------------------------*
    2635            ;*   BEGIN LOOP $C$L51
    2636            ;*
    2637            ;*   Loop source line                : 186
    2638            ;*   Loop closing brace source line  : 194
    2639            ;*   Known Minimum Trip Count        : 1
    2640            ;*   Known Maximum Trip Count        : 4294967295
    2641            ;*   Known Max Trip Count Factor     : 1
    2642            ;* --------------------------------------------------------------------------*
    2643 000120       $C$L51:    
    2644                    .dwpsn  file "../src/TC_Fault_Check.c",line 188,column 17,is_stmt,isa 0
    2645 000120 421C          MOV.W     &min+0,r12            ; [] |188| 
         000122 0000!
    2646            $C$DW$128       .dwtag  DW_TAG_TI_branch
    2647                    .dwattr $C$DW$128, DW_AT_low_pc(0x00)
    2648                    .dwattr $C$DW$128, DW_AT_name("__mspabi_fltif")
    2649                    .dwattr $C$DW$128, DW_AT_TI_call
    2650            
    2651 000124 13B0!         CALLA     #__mspabi_fltif       ; [] |188| 
         000126 0000 
    2652                                                      ; [] |188| 
    2653 000128 0CCE          MOVA      r12,r14               ; [] |188| 
    2654 00012a 0DCF          MOVA      r13,r15               ; [] |188| 
    2655 00012c 421D          MOV.W     &K+0,r13              ; [] |188| 
         00012e 0000!
    2656 000130 065D          RLAM.W    #2,r13                ; [] |188| 
    2657 000132 4D1C          MOV.W     yFCTM+0(r13),r12      ; [] |188| 
         000134 0000!
    2658 000136 4D1D          MOV.W     yFCTM+2(r13),r13      ; [] |188| 
         000138 0002!
    2659            $C$DW$129       .dwtag  DW_TAG_TI_branch
    2660                    .dwattr $C$DW$129, DW_AT_low_pc(0x00)
    2661                    .dwattr $C$DW$129, DW_AT_name("__mspabi_cmpf")
    2662                    .dwattr $C$DW$129, DW_AT_TI_call
    2663            
    2664 00013a 13B0!         CALLA     #__mspabi_cmpf        ; [] |188| 
MSP430 Assembler PC v21.6.1 Tue Dec 20 13:46:02 2022

Copyright (c) 2003-2018 Texas Instruments Incorporated
TC_Fault_Check.asm                                                   PAGE   52

         00013c 0000 
    2665                                                      ; [] |188| 
    2666 00013e 930C          TST.W     r12                   ; [] |188| 
    2667 000140 340B          JGE       $C$L52                ; [] |188| 
    2668                                                      ; [] |188| 
    2669            ;* --------------------------------------------------------------------------*
    2670                    .dwpsn  file "../src/TC_Fault_Check.c",line 189,column 19,is_stmt,isa 0
    2671 000142 421F          MOV.W     &K+0,r15              ; [] |189| 
         000144 0000!
    2672 000146 065F          RLAM.W    #2,r15                ; [] |189| 
    2673 000148 4F1C          MOV.W     yFCTM+0(r15),r12      ; [] |189| 
         00014a 0000!
    2674 00014c 4F1D          MOV.W     yFCTM+2(r15),r13      ; [] |189| 
         00014e 0002!
    2675            $C$DW$130       .dwtag  DW_TAG_TI_branch
    2676                    .dwattr $C$DW$130, DW_AT_low_pc(0x00)
    2677                    .dwattr $C$DW$130, DW_AT_name("__mspabi_fixfi")
    2678                    .dwattr $C$DW$130, DW_AT_TI_call
    2679            
    2680 000150 13B0!         CALLA     #__mspabi_fixfi       ; [] |189| 
         000152 0000 
    2681                                                      ; [] |189| 
    2682 000154 4C82          MOV.W     r12,&min+0            ; [] |189| 
         000156 0000!
    2683            ;* --------------------------------------------------------------------------*
    2684 000158       $C$L52:    
    2685                    .dwpsn  file "../src/TC_Fault_Check.c",line 191,column 17,is_stmt,isa 0
    2686 000158 421C          MOV.W     &max+0,r12            ; [] |191| 
         00015a 0000!
    2687            $C$DW$131       .dwtag  DW_TAG_TI_branch
    2688                    .dwattr $C$DW$131, DW_AT_low_pc(0x00)
    2689                    .dwattr $C$DW$131, DW_AT_name("__mspabi_fltif")
    2690                    .dwattr $C$DW$131, DW_AT_TI_call
    2691            
    2692 00015c 13B0!         CALLA     #__mspabi_fltif       ; [] |191| 
         00015e 0000 
    2693                                                      ; [] |191| 
    2694 000160 421F          MOV.W     &K+0,r15              ; [] |191| 
         000162 0000!
    2695 000164 065F          RLAM.W    #2,r15                ; [] |191| 
    2696 000166 4F1E          MOV.W     yFCTM+0(r15),r14      ; [] |191| 
         000168 0000!
    2697 00016a 4F1F          MOV.W     yFCTM+2(r15),r15      ; [] |191| 
         00016c 0002!
    2698            $C$DW$132       .dwtag  DW_TAG_TI_branch
    2699                    .dwattr $C$DW$132, DW_AT_low_pc(0x00)
    2700                    .dwattr $C$DW$132, DW_AT_name("__mspabi_cmpf")
    2701                    .dwattr $C$DW$132, DW_AT_TI_call
    2702            
    2703 00016e 13B0!         CALLA     #__mspabi_cmpf        ; [] |191| 
         000170 0000 
    2704                                                      ; [] |191| 
    2705 000172 930C          TST.W     r12                   ; [] |191| 
    2706 000174 340B          JGE       $C$L53                ; [] |191| 
    2707                                                      ; [] |191| 
MSP430 Assembler PC v21.6.1 Tue Dec 20 13:46:02 2022

Copyright (c) 2003-2018 Texas Instruments Incorporated
TC_Fault_Check.asm                                                   PAGE   53

    2708            ;* --------------------------------------------------------------------------*
    2709                    .dwpsn  file "../src/TC_Fault_Check.c",line 192,column 19,is_stmt,isa 0
    2710 000176 421F          MOV.W     &K+0,r15              ; [] |192| 
         000178 0000!
    2711 00017a 065F          RLAM.W    #2,r15                ; [] |192| 
    2712 00017c 4F1C          MOV.W     yFCTM+0(r15),r12      ; [] |192| 
         00017e 0000!
    2713 000180 4F1D          MOV.W     yFCTM+2(r15),r13      ; [] |192| 
         000182 0002!
    2714            $C$DW$133       .dwtag  DW_TAG_TI_branch
    2715                    .dwattr $C$DW$133, DW_AT_low_pc(0x00)
    2716                    .dwattr $C$DW$133, DW_AT_name("__mspabi_fixfi")
    2717                    .dwattr $C$DW$133, DW_AT_TI_call
    2718            
    2719 000184 13B0!         CALLA     #__mspabi_fixfi       ; [] |192| 
         000186 0000 
    2720                                                      ; [] |192| 
    2721 000188 4C82          MOV.W     r12,&max+0            ; [] |192| 
         00018a 0000!
    2722            ;* --------------------------------------------------------------------------*
    2723 00018c       $C$L53:    
    2724                    .dwpsn  file "../src/TC_Fault_Check.c",line 186,column 28,is_stmt,isa 0
    2725 00018c 5392          ADD.W     #1,&K+0               ; [] |186| 
         00018e 0000!
    2726 000190 92B2          CMP.W     #8,&K+0               ; [] |186| 
         000192 0000!
    2727 000194 3BC5          JL        $C$L51                ; [] |186| 
    2728                                                      ; [] |186| 
    2729            ;* --------------------------------------------------------------------------*
    2730 000196       $C$L54:    
    2731                    .dwpsn  file "../src/TC_Fault_Check.c",line 199,column 15,is_stmt,isa 0
    2732 000196 421F          MOV.W     &max+0,r15            ; [] |199| 
         000198 0000!
    2733 00019a 821F          SUB.W     &min+0,r15            ; [] |199| 
         00019c 0000!
    2734 00019e 903F          CMP.W     #21,r15               ; [] |199| 
         0001a0 0015 
    2735 0001a2 38B7          JL        $C$L62                ; [] |199| 
    2736                                                      ; [] |199| 
    2737            ;* --------------------------------------------------------------------------*
    2738                    .dwpsn  file "../src/TC_Fault_Check.c",line 201,column 17,is_stmt,isa 0
    2739 0001a4 93D2          CMP.B     #1,&False_Detect+0    ; [] |201| 
         0001a6 0000!
    2740 0001a8 24A2          JEQ       $C$L58                ; [] |201| 
    2741                                                      ; [] |201| 
    2742            ;* --------------------------------------------------------------------------*
    2743                    .dwpsn  file "../src/TC_Fault_Check.c",line 205,column 19,is_stmt,isa 0
    2744 0001aa 421C          MOV.W     &yFCTM+36,r12         ; [] |205| 
         0001ac 0024!
    2745 0001ae 421D          MOV.W     &yFCTM+38,r13         ; [] |205| 
         0001b0 0026!
    2746 0001b2 421E          MOV.W     &yFCTM+32,r14         ; [] |205| 
         0001b4 0020!
    2747 0001b6 421F          MOV.W     &yFCTM+34,r15         ; [] |205| 
         0001b8 0022!
MSP430 Assembler PC v21.6.1 Tue Dec 20 13:46:02 2022

Copyright (c) 2003-2018 Texas Instruments Incorporated
TC_Fault_Check.asm                                                   PAGE   54

    2748            $C$DW$134       .dwtag  DW_TAG_TI_branch
    2749                    .dwattr $C$DW$134, DW_AT_low_pc(0x00)
    2750                    .dwattr $C$DW$134, DW_AT_name("__mspabi_cmpf")
    2751                    .dwattr $C$DW$134, DW_AT_TI_call
    2752            
    2753 0001ba 13B0!         CALLA     #__mspabi_cmpf        ; [] |205| 
         0001bc 0000 
    2754                                                      ; [] |205| 
    2755 0001be 930C          TST.W     r12                   ; [] |205| 
    2756 0001c0 384B          JL        $C$L56                ; [] |205| 
    2757                                                      ; [] |205| 
    2758            ;* --------------------------------------------------------------------------*
    2759                    .dwpsn  file "../src/TC_Fault_Check.c",line 223,column 21,is_stmt,isa 0
    2760 0001c2 421C          MOV.W     &yFCTM+36,r12         ; [] |223| 
         0001c4 0024!
    2761 0001c6 421D          MOV.W     &yFCTM+38,r13         ; [] |223| 
         0001c8 0026!
    2762 0001ca 421E          MOV.W     &yFCTM+32,r14         ; [] |223| 
         0001cc 0020!
    2763 0001ce 421F          MOV.W     &yFCTM+34,r15         ; [] |223| 
         0001d0 0022!
    2764            $C$DW$135       .dwtag  DW_TAG_TI_branch
    2765                    .dwattr $C$DW$135, DW_AT_low_pc(0x00)
    2766                    .dwattr $C$DW$135, DW_AT_name("__mspabi_subf")
    2767                    .dwattr $C$DW$135, DW_AT_TI_call
    2768            
    2769 0001d2 13B0!         CALLA     #__mspabi_subf        ; [] |223| 
         0001d4 0000 
    2770                                                      ; [] |223| 
    2771 0001d6 0CCE          MOVA      r12,r14               ; [] |223| 
    2772 0001d8 0DCF          MOVA      r13,r15               ; [] |223| 
    2773 0001da 430C          MOV.W     #0,r12                ; [] |223| 
    2774 0001dc 403D          MOV.W     #16416,r13            ; [] |223| 
         0001de 4020 
    2775            $C$DW$136       .dwtag  DW_TAG_TI_branch
    2776                    .dwattr $C$DW$136, DW_AT_low_pc(0x00)
    2777                    .dwattr $C$DW$136, DW_AT_name("__mspabi_cmpf")
    2778                    .dwattr $C$DW$136, DW_AT_TI_call
    2779            
    2780 0001e0 13B0!         CALLA     #__mspabi_cmpf        ; [] |223| 
         0001e2 0000 
    2781                                                      ; [] |223| 
    2782 0001e4 930C          TST.W     r12                   ; [] |223| 
    2783 0001e6 3885          JL        $C$L59                ; [] |223| 
    2784                                                      ; [] |223| 
    2785            ;* --------------------------------------------------------------------------*
    2786                    .dwpsn  file "../src/TC_Fault_Check.c",line 225,column 23,is_stmt,isa 0
    2787 0001e8 421C          MOV.W     &yFCTM+24,r12         ; [] |225| 
         0001ea 0018!
    2788 0001ec 421D          MOV.W     &yFCTM+26,r13         ; [] |225| 
         0001ee 001A!
    2789 0001f0 421E          MOV.W     &yFCTM+32,r14         ; [] |225| 
         0001f2 0020!
    2790 0001f4 421F          MOV.W     &yFCTM+34,r15         ; [] |225| 
         0001f6 0022!
MSP430 Assembler PC v21.6.1 Tue Dec 20 13:46:02 2022

Copyright (c) 2003-2018 Texas Instruments Incorporated
TC_Fault_Check.asm                                                   PAGE   55

    2791            $C$DW$137       .dwtag  DW_TAG_TI_branch
    2792                    .dwattr $C$DW$137, DW_AT_low_pc(0x00)
    2793                    .dwattr $C$DW$137, DW_AT_name("__mspabi_cmpf")
    2794                    .dwattr $C$DW$137, DW_AT_TI_call
    2795            
    2796 0001f8 13B0!         CALLA     #__mspabi_cmpf        ; [] |225| 
         0001fa 0000 
    2797                                                      ; [] |225| 
    2798 0001fc 930C          TST.W     r12                   ; [] |225| 
    2799 0001fe 3816          JL        $C$L55                ; [] |225| 
    2800                                                      ; [] |225| 
    2801            ;* --------------------------------------------------------------------------*
    2802                    .dwpsn  file "../src/TC_Fault_Check.c",line 232,column 25,is_stmt,isa 0
    2803 000200 421C          MOV.W     &yFCTM+24,r12         ; [] |232| 
         000202 0018!
    2804 000204 421D          MOV.W     &yFCTM+26,r13         ; [] |232| 
         000206 001A!
    2805 000208 421E          MOV.W     &yFCTM+32,r14         ; [] |232| 
         00020a 0020!
    2806 00020c 421F          MOV.W     &yFCTM+34,r15         ; [] |232| 
         00020e 0022!
    2807            $C$DW$138       .dwtag  DW_TAG_TI_branch
    2808                    .dwattr $C$DW$138, DW_AT_low_pc(0x00)
    2809                    .dwattr $C$DW$138, DW_AT_name("__mspabi_subf")
    2810                    .dwattr $C$DW$138, DW_AT_TI_call
    2811            
    2812 000210 13B0!         CALLA     #__mspabi_subf        ; [] |232| 
         000212 0000 
    2813                                                      ; [] |232| 
    2814 000214 0CCE          MOVA      r12,r14               ; [] |232| 
    2815 000216 0DCF          MOVA      r13,r15               ; [] |232| 
    2816 000218 430C          MOV.W     #0,r12                ; [] |232| 
    2817 00021a 403D          MOV.W     #16544,r13            ; [] |232| 
         00021c 40A0 
    2818            $C$DW$139       .dwtag  DW_TAG_TI_branch
    2819                    .dwattr $C$DW$139, DW_AT_low_pc(0x00)
    2820                    .dwattr $C$DW$139, DW_AT_name("__mspabi_cmpf")
    2821                    .dwattr $C$DW$139, DW_AT_TI_call
    2822            
    2823 00021e 13B0!         CALLA     #__mspabi_cmpf        ; [] |232| 
         000220 0000 
    2824                                                      ; [] |232| 
    2825 000222 930C          TST.W     r12                   ; [] |232| 
    2826 000224 3866          JL        $C$L59                ; [] |232| 
    2827                                                      ; [] |232| 
    2828            ;* --------------------------------------------------------------------------*
    2829                    .dwpsn  file "../src/TC_Fault_Check.c",line 233,column 28,is_stmt,isa 0
    2830 000226 43D2          MOV.B     #1,&False_Detect+0    ; [] |233| 
         000228 0000!
    2831 00022a 3C63          JMP       $C$L59                ; [] |233| 
    2832                                                      ; [] |233| 
    2833            ;* --------------------------------------------------------------------------*
    2834 00022c       $C$L55:    
    2835                    .dwpsn  file "../src/TC_Fault_Check.c",line 227,column 25,is_stmt,isa 0
    2836 00022c 421C          MOV.W     &yFCTM+32,r12         ; [] |227| 
MSP430 Assembler PC v21.6.1 Tue Dec 20 13:46:02 2022

Copyright (c) 2003-2018 Texas Instruments Incorporated
TC_Fault_Check.asm                                                   PAGE   56

         00022e 0020!
    2837 000230 421D          MOV.W     &yFCTM+34,r13         ; [] |227| 
         000232 0022!
    2838 000234 421E          MOV.W     &yFCTM+24,r14         ; [] |227| 
         000236 0018!
    2839 000238 421F          MOV.W     &yFCTM+26,r15         ; [] |227| 
         00023a 001A!
    2840            $C$DW$140       .dwtag  DW_TAG_TI_branch
    2841                    .dwattr $C$DW$140, DW_AT_low_pc(0x00)
    2842                    .dwattr $C$DW$140, DW_AT_name("__mspabi_subf")
    2843                    .dwattr $C$DW$140, DW_AT_TI_call
    2844            
    2845 00023c 13B0!         CALLA     #__mspabi_subf        ; [] |227| 
         00023e 0000 
    2846                                                      ; [] |227| 
    2847 000240 0CCE          MOVA      r12,r14               ; [] |227| 
    2848 000242 0DCF          MOVA      r13,r15               ; [] |227| 
    2849 000244 430C          MOV.W     #0,r12                ; [] |227| 
    2850 000246 403D          MOV.W     #16544,r13            ; [] |227| 
         000248 40A0 
    2851            $C$DW$141       .dwtag  DW_TAG_TI_branch
    2852                    .dwattr $C$DW$141, DW_AT_low_pc(0x00)
    2853                    .dwattr $C$DW$141, DW_AT_name("__mspabi_cmpf")
    2854                    .dwattr $C$DW$141, DW_AT_TI_call
    2855            
    2856 00024a 13B0!         CALLA     #__mspabi_cmpf        ; [] |227| 
         00024c 0000 
    2857                                                      ; [] |227| 
    2858 00024e 930C          TST.W     r12                   ; [] |227| 
    2859 000250 3850          JL        $C$L59                ; [] |227| 
    2860                                                      ; [] |227| 
    2861            ;* --------------------------------------------------------------------------*
    2862                    .dwpsn  file "../src/TC_Fault_Check.c",line 228,column 28,is_stmt,isa 0
    2863 000252 43D2          MOV.B     #1,&False_Detect+0    ; [] |228| 
         000254 0000!
    2864 000256 3C4D          JMP       $C$L59                ; [] |228| 
    2865                                                      ; [] |228| 
    2866            ;* --------------------------------------------------------------------------*
    2867 000258       $C$L56:    
    2868                    .dwpsn  file "../src/TC_Fault_Check.c",line 207,column 21,is_stmt,isa 0
    2869 000258 421C          MOV.W     &yFCTM+32,r12         ; [] |207| 
         00025a 0020!
    2870 00025c 421D          MOV.W     &yFCTM+34,r13         ; [] |207| 
         00025e 0022!
    2871 000260 421E          MOV.W     &yFCTM+36,r14         ; [] |207| 
         000262 0024!
    2872 000264 421F          MOV.W     &yFCTM+38,r15         ; [] |207| 
         000266 0026!
    2873            $C$DW$142       .dwtag  DW_TAG_TI_branch
    2874                    .dwattr $C$DW$142, DW_AT_low_pc(0x00)
    2875                    .dwattr $C$DW$142, DW_AT_name("__mspabi_subf")
    2876                    .dwattr $C$DW$142, DW_AT_TI_call
    2877            
    2878 000268 13B0!         CALLA     #__mspabi_subf        ; [] |207| 
         00026a 0000 
MSP430 Assembler PC v21.6.1 Tue Dec 20 13:46:02 2022

Copyright (c) 2003-2018 Texas Instruments Incorporated
TC_Fault_Check.asm                                                   PAGE   57

    2879                                                      ; [] |207| 
    2880 00026c 0CCE          MOVA      r12,r14               ; [] |207| 
    2881 00026e 0DCF          MOVA      r13,r15               ; [] |207| 
    2882 000270 430C          MOV.W     #0,r12                ; [] |207| 
    2883 000272 403D          MOV.W     #16416,r13            ; [] |207| 
         000274 4020 
    2884            $C$DW$143       .dwtag  DW_TAG_TI_branch
    2885                    .dwattr $C$DW$143, DW_AT_low_pc(0x00)
    2886                    .dwattr $C$DW$143, DW_AT_name("__mspabi_cmpf")
    2887                    .dwattr $C$DW$143, DW_AT_TI_call
    2888            
    2889 000276 13B0!         CALLA     #__mspabi_cmpf        ; [] |207| 
         000278 0000 
    2890                                                      ; [] |207| 
    2891 00027a 930C          TST.W     r12                   ; [] |207| 
    2892 00027c 383A          JL        $C$L59                ; [] |207| 
    2893                                                      ; [] |207| 
    2894            ;* --------------------------------------------------------------------------*
    2895                    .dwpsn  file "../src/TC_Fault_Check.c",line 209,column 23,is_stmt,isa 0
    2896 00027e 421C          MOV.W     &yFCTM+24,r12         ; [] |209| 
         000280 0018!
    2897 000282 421D          MOV.W     &yFCTM+26,r13         ; [] |209| 
         000284 001A!
    2898 000286 421E          MOV.W     &yFCTM+32,r14         ; [] |209| 
         000288 0020!
    2899 00028a 421F          MOV.W     &yFCTM+34,r15         ; [] |209| 
         00028c 0022!
    2900            $C$DW$144       .dwtag  DW_TAG_TI_branch
    2901                    .dwattr $C$DW$144, DW_AT_low_pc(0x00)
    2902                    .dwattr $C$DW$144, DW_AT_name("__mspabi_cmpf")
    2903                    .dwattr $C$DW$144, DW_AT_TI_call
    2904            
    2905 00028e 13B0!         CALLA     #__mspabi_cmpf        ; [] |209| 
         000290 0000 
    2906                                                      ; [] |209| 
    2907 000292 930C          TST.W     r12                   ; [] |209| 
    2908 000294 3816          JL        $C$L57                ; [] |209| 
    2909                                                      ; [] |209| 
    2910            ;* --------------------------------------------------------------------------*
    2911                    .dwpsn  file "../src/TC_Fault_Check.c",line 216,column 25,is_stmt,isa 0
    2912 000296 421C          MOV.W     &yFCTM+24,r12         ; [] |216| 
         000298 0018!
    2913 00029a 421D          MOV.W     &yFCTM+26,r13         ; [] |216| 
         00029c 001A!
    2914 00029e 421E          MOV.W     &yFCTM+32,r14         ; [] |216| 
         0002a0 0020!
    2915 0002a2 421F          MOV.W     &yFCTM+34,r15         ; [] |216| 
         0002a4 0022!
    2916            $C$DW$145       .dwtag  DW_TAG_TI_branch
    2917                    .dwattr $C$DW$145, DW_AT_low_pc(0x00)
    2918                    .dwattr $C$DW$145, DW_AT_name("__mspabi_subf")
    2919                    .dwattr $C$DW$145, DW_AT_TI_call
    2920            
    2921 0002a6 13B0!         CALLA     #__mspabi_subf        ; [] |216| 
         0002a8 0000 
MSP430 Assembler PC v21.6.1 Tue Dec 20 13:46:02 2022

Copyright (c) 2003-2018 Texas Instruments Incorporated
TC_Fault_Check.asm                                                   PAGE   58

    2922                                                      ; [] |216| 
    2923 0002aa 0CCE          MOVA      r12,r14               ; [] |216| 
    2924 0002ac 0DCF          MOVA      r13,r15               ; [] |216| 
    2925 0002ae 430C          MOV.W     #0,r12                ; [] |216| 
    2926 0002b0 403D          MOV.W     #16544,r13            ; [] |216| 
         0002b2 40A0 
    2927            $C$DW$146       .dwtag  DW_TAG_TI_branch
    2928                    .dwattr $C$DW$146, DW_AT_low_pc(0x00)
    2929                    .dwattr $C$DW$146, DW_AT_name("__mspabi_cmpf")
    2930                    .dwattr $C$DW$146, DW_AT_TI_call
    2931            
    2932 0002b4 13B0!         CALLA     #__mspabi_cmpf        ; [] |216| 
         0002b6 0000 
    2933                                                      ; [] |216| 
    2934 0002b8 930C          TST.W     r12                   ; [] |216| 
    2935 0002ba 381B          JL        $C$L59                ; [] |216| 
    2936                                                      ; [] |216| 
    2937            ;* --------------------------------------------------------------------------*
    2938                    .dwpsn  file "../src/TC_Fault_Check.c",line 217,column 28,is_stmt,isa 0
    2939 0002bc 43D2          MOV.B     #1,&False_Detect+0    ; [] |217| 
         0002be 0000!
    2940 0002c0 3C18          JMP       $C$L59                ; [] |217| 
    2941                                                      ; [] |217| 
    2942            ;* --------------------------------------------------------------------------*
    2943 0002c2       $C$L57:    
    2944                    .dwpsn  file "../src/TC_Fault_Check.c",line 211,column 25,is_stmt,isa 0
    2945 0002c2 421C          MOV.W     &yFCTM+32,r12         ; [] |211| 
         0002c4 0020!
    2946 0002c6 421D          MOV.W     &yFCTM+34,r13         ; [] |211| 
         0002c8 0022!
    2947 0002ca 421E          MOV.W     &yFCTM+24,r14         ; [] |211| 
         0002cc 0018!
    2948 0002ce 421F          MOV.W     &yFCTM+26,r15         ; [] |211| 
         0002d0 001A!
    2949            $C$DW$147       .dwtag  DW_TAG_TI_branch
    2950                    .dwattr $C$DW$147, DW_AT_low_pc(0x00)
    2951                    .dwattr $C$DW$147, DW_AT_name("__mspabi_subf")
    2952                    .dwattr $C$DW$147, DW_AT_TI_call
    2953            
    2954 0002d2 13B0!         CALLA     #__mspabi_subf        ; [] |211| 
         0002d4 0000 
    2955                                                      ; [] |211| 
    2956 0002d6 0CCE          MOVA      r12,r14               ; [] |211| 
    2957 0002d8 0DCF          MOVA      r13,r15               ; [] |211| 
    2958 0002da 430C          MOV.W     #0,r12                ; [] |211| 
    2959 0002dc 403D          MOV.W     #16544,r13            ; [] |211| 
         0002de 40A0 
    2960            $C$DW$148       .dwtag  DW_TAG_TI_branch
    2961                    .dwattr $C$DW$148, DW_AT_low_pc(0x00)
    2962                    .dwattr $C$DW$148, DW_AT_name("__mspabi_cmpf")
    2963                    .dwattr $C$DW$148, DW_AT_TI_call
    2964            
    2965 0002e0 13B0!         CALLA     #__mspabi_cmpf        ; [] |211| 
         0002e2 0000 
    2966                                                      ; [] |211| 
MSP430 Assembler PC v21.6.1 Tue Dec 20 13:46:02 2022

Copyright (c) 2003-2018 Texas Instruments Incorporated
TC_Fault_Check.asm                                                   PAGE   59

    2967 0002e4 930C          TST.W     r12                   ; [] |211| 
    2968 0002e6 3805          JL        $C$L59                ; [] |211| 
    2969                                                      ; [] |211| 
    2970            ;* --------------------------------------------------------------------------*
    2971                    .dwpsn  file "../src/TC_Fault_Check.c",line 212,column 28,is_stmt,isa 0
    2972 0002e8 43D2          MOV.B     #1,&False_Detect+0    ; [] |212| 
         0002ea 0000!
    2973 0002ec 3C02          JMP       $C$L59                ; [] |212| 
    2974                                                      ; [] |212| 
    2975            ;* --------------------------------------------------------------------------*
    2976 0002ee       $C$L58:    
    2977                    .dwpsn  file "../src/TC_Fault_Check.c",line 202,column 20,is_stmt,isa 0
    2978 0002ee 43C2          MOV.B     #0,&False_Detect+0    ; [] |202| 
         0002f0 0000!
    2979            ;* --------------------------------------------------------------------------*
    2980 0002f2       $C$L59:    
    2981                    .dwpsn  file "../src/TC_Fault_Check.c",line 255,column 17,is_stmt,isa 0
    2982 0002f2 93C2          TST.B     &False_Detect+0       ; [] |255| 
         0002f4 0000!
    2983 0002f6 200D          JNE       $C$L62                ; [] |255| 
    2984                                                      ; [] |255| 
    2985            ;* --------------------------------------------------------------------------*
    2986                    .dwpsn  file "../src/TC_Fault_Check.c",line 257,column 19,is_stmt,isa 0
    2987 0002f8 B2E2          BIT.B     #4,&PDIN_H+0          ; [] |257| 
         0002fa 0000!
    2988 0002fc 2003          JNE       $C$L60                ; [] |257| 
    2989                                                      ; [] |257| 
    2990            ;* --------------------------------------------------------------------------*
    2991                    .dwpsn  file "../src/TC_Fault_Check.c",line 260,column 22,is_stmt,isa 0
    2992 0002fe D3E2          OR.B      #2,&Fatal_System_Error+0 ; [] |260| 
         000300 0000!
    2993 000302 3C02          JMP       $C$L61                ; [] |260| 
    2994                                                      ; [] |260| 
    2995            ;* --------------------------------------------------------------------------*
    2996 000304       $C$L60:    
    2997                    .dwpsn  file "../src/TC_Fault_Check.c",line 258,column 22,is_stmt,isa 0
    2998 000304 D3D2          OR.B      #1,&Fatal_System_Error+0 ; [] |258| 
         000306 0000!
    2999            ;* --------------------------------------------------------------------------*
    3000 000308       $C$L61:    
    3001                    .dwpsn  file "../src/TC_Fault_Check.c",line 261,column 19,is_stmt,isa 0
    3002            $C$DW$149       .dwtag  DW_TAG_TI_branch
    3003                    .dwattr $C$DW$149, DW_AT_low_pc(0x00)
    3004                    .dwattr $C$DW$149, DW_AT_name("FlashProg")
    3005                    .dwattr $C$DW$149, DW_AT_TI_call
    3006            
    3007 000308 13B0!         CALLA     #FlashProg            ; [] |261| 
         00030a 0000 
    3008                                                      ; [] |261| 
    3009                    .dwpsn  file "../src/TC_Fault_Check.c",line 262,column 19,is_stmt,isa 0
    3010 00030c 40B2          MOV.W     #7,&mode+0            ; [] |262| 
         00030e 0007 
         000310 0000!
    3011            ;* --------------------------------------------------------------------------*
    3012 000312       $C$L62:    
MSP430 Assembler PC v21.6.1 Tue Dec 20 13:46:02 2022

Copyright (c) 2003-2018 Texas Instruments Incorporated
TC_Fault_Check.asm                                                   PAGE   60

    3013                    .dwpsn  file "../src/TC_Fault_Check.c",line 271,column 15,is_stmt,isa 0
    3014 000312 421C          MOV.W     &Tset+0,r12           ; [] |271| 
         000314 0000!
    3015 000316 803C          SUB.W     #5,r12                ; [] |271| 
         000318 0005 
    3016            $C$DW$150       .dwtag  DW_TAG_TI_branch
    3017                    .dwattr $C$DW$150, DW_AT_low_pc(0x00)
    3018                    .dwattr $C$DW$150, DW_AT_name("__mspabi_fltif")
    3019                    .dwattr $C$DW$150, DW_AT_TI_call
    3020            
    3021 00031a 13B0!         CALLA     #__mspabi_fltif       ; [] |271| 
         00031c 0000 
    3022                                                      ; [] |271| 
    3023 00031e 0CCE          MOVA      r12,r14               ; [] |271| 
    3024 000320 0DCF          MOVA      r13,r15               ; [] |271| 
    3025 000322 421C          MOV.W     &TC2_temp+0,r12       ; [] |271| 
         000324 0000!
    3026 000326 421D          MOV.W     &TC2_temp+2,r13       ; [] |271| 
         000328 0002!
    3027            $C$DW$151       .dwtag  DW_TAG_TI_branch
    3028                    .dwattr $C$DW$151, DW_AT_low_pc(0x00)
    3029                    .dwattr $C$DW$151, DW_AT_name("__mspabi_cmpf")
    3030                    .dwattr $C$DW$151, DW_AT_TI_call
    3031            
    3032 00032a 13B0!         CALLA     #__mspabi_cmpf        ; [] |271| 
         00032c 0000 
    3033                                                      ; [] |271| 
    3034 00032e 930C          TST.W     r12                   ; [] |271| 
    3035 000330 384E          JL        $C$L66                ; [] |271| 
    3036                                                      ; [] |271| 
    3037            ;* --------------------------------------------------------------------------*
    3038 000332 430C          MOV.W     #0,r12                ; [] |271| 
    3039 000334 403D          MOV.W     #16544,r13            ; [] |271| 
         000336 40A0 
    3040 000338 421E          MOV.W     &TC1_temp+0,r14       ; [] |271| 
         00033a 0000!
    3041 00033c 421F          MOV.W     &TC1_temp+2,r15       ; [] |271| 
         00033e 0002!
    3042            $C$DW$152       .dwtag  DW_TAG_TI_branch
    3043                    .dwattr $C$DW$152, DW_AT_low_pc(0x00)
    3044                    .dwattr $C$DW$152, DW_AT_name("__mspabi_cmpf")
    3045                    .dwattr $C$DW$152, DW_AT_TI_call
    3046            
    3047 000340 13B0!         CALLA     #__mspabi_cmpf        ; [] |271| 
         000342 0000 
    3048                                                      ; [] |271| 
    3049 000344 930C          TST.W     r12                   ; [] |271| 
    3050 000346 3843          JL        $C$L66                ; [] |271| 
    3051                                                      ; [] |271| 
    3052            ;* --------------------------------------------------------------------------*
    3053 000348 93C2          TST.B     &Fatal_System_Error+0 ; [] |271| 
         00034a 0000!
    3054 00034c 2040          JNE       $C$L66                ; [] |271| 
    3055                                                      ; [] |271| 
    3056            ;* --------------------------------------------------------------------------*
MSP430 Assembler PC v21.6.1 Tue Dec 20 13:46:02 2022

Copyright (c) 2003-2018 Texas Instruments Incorporated
TC_Fault_Check.asm                                                   PAGE   61

    3057 00034e 90F2          CMP.B     #11,&Start_temp+0     ; [] |271| 
         000350 000B 
         000352 0000!
    3058 000354 283C          JLO       $C$L66                ; [] |271| 
    3059                                                      ; [] |271| 
    3060            ;* --------------------------------------------------------------------------*
    3061 000356 430C          MOV.W     #0,r12                ; [] |271| 
    3062 000358 403D          MOV.W     #16544,r13            ; [] |271| 
         00035a 40A0 
    3063 00035c 421E          MOV.W     &yFCTM+24,r14         ; [] |271| 
         00035e 0018!
    3064 000360 421F          MOV.W     &yFCTM+26,r15         ; [] |271| 
         000362 001A!
    3065            $C$DW$153       .dwtag  DW_TAG_TI_branch
    3066                    .dwattr $C$DW$153, DW_AT_low_pc(0x00)
    3067                    .dwattr $C$DW$153, DW_AT_name("__mspabi_cmpf")
    3068                    .dwattr $C$DW$153, DW_AT_TI_call
    3069            
    3070 000364 13B0!         CALLA     #__mspabi_cmpf        ; [] |271| 
         000366 0000 
    3071                                                      ; [] |271| 
    3072 000368 930C          TST.W     r12                   ; [] |271| 
    3073 00036a 3831          JL        $C$L66                ; [] |271| 
    3074                                                      ; [] |271| 
    3075            ;* --------------------------------------------------------------------------*
    3076 00036c 430C          MOV.W     #0,r12                ; [] |271| 
    3077 00036e 403D          MOV.W     #16544,r13            ; [] |271| 
         000370 40A0 
    3078 000372 421E          MOV.W     &yFCTM+28,r14         ; [] |271| 
         000374 001C!
    3079 000376 421F          MOV.W     &yFCTM+30,r15         ; [] |271| 
         000378 001E!
    3080            $C$DW$154       .dwtag  DW_TAG_TI_branch
    3081                    .dwattr $C$DW$154, DW_AT_low_pc(0x00)
    3082                    .dwattr $C$DW$154, DW_AT_name("__mspabi_cmpf")
    3083                    .dwattr $C$DW$154, DW_AT_TI_call
    3084            
    3085 00037a 13B0!         CALLA     #__mspabi_cmpf        ; [] |271| 
         00037c 0000 
    3086                                                      ; [] |271| 
    3087 00037e 930C          TST.W     r12                   ; [] |271| 
    3088 000380 3826          JL        $C$L66                ; [] |271| 
    3089                                                      ; [] |271| 
    3090            ;* --------------------------------------------------------------------------*
    3091 000382 430C          MOV.W     #0,r12                ; [] |271| 
    3092 000384 403D          MOV.W     #16544,r13            ; [] |271| 
         000386 40A0 
    3093 000388 421E          MOV.W     &yFCTM+32,r14         ; [] |271| 
         00038a 0020!
    3094 00038c 421F          MOV.W     &yFCTM+34,r15         ; [] |271| 
         00038e 0022!
    3095            $C$DW$155       .dwtag  DW_TAG_TI_branch
    3096                    .dwattr $C$DW$155, DW_AT_low_pc(0x00)
    3097                    .dwattr $C$DW$155, DW_AT_name("__mspabi_cmpf")
    3098                    .dwattr $C$DW$155, DW_AT_TI_call
MSP430 Assembler PC v21.6.1 Tue Dec 20 13:46:02 2022

Copyright (c) 2003-2018 Texas Instruments Incorporated
TC_Fault_Check.asm                                                   PAGE   62

    3099            
    3100 000390 13B0!         CALLA     #__mspabi_cmpf        ; [] |271| 
         000392 0000 
    3101                                                      ; [] |271| 
    3102 000394 930C          TST.W     r12                   ; [] |271| 
    3103 000396 381B          JL        $C$L66                ; [] |271| 
    3104                                                      ; [] |271| 
    3105            ;* --------------------------------------------------------------------------*
    3106 000398 430C          MOV.W     #0,r12                ; [] |271| 
    3107 00039a 403D          MOV.W     #16544,r13            ; [] |271| 
         00039c 40A0 
    3108 00039e 421E          MOV.W     &yFCTM+36,r14         ; [] |271| 
         0003a0 0024!
    3109 0003a2 421F          MOV.W     &yFCTM+38,r15         ; [] |271| 
         0003a4 0026!
    3110            $C$DW$156       .dwtag  DW_TAG_TI_branch
    3111                    .dwattr $C$DW$156, DW_AT_low_pc(0x00)
    3112                    .dwattr $C$DW$156, DW_AT_name("__mspabi_cmpf")
    3113                    .dwattr $C$DW$156, DW_AT_TI_call
    3114            
    3115 0003a6 13B0!         CALLA     #__mspabi_cmpf        ; [] |271| 
         0003a8 0000 
    3116                                                      ; [] |271| 
    3117 0003aa 930C          TST.W     r12                   ; [] |271| 
    3118 0003ac 3810          JL        $C$L66                ; [] |271| 
    3119                                                      ; [] |271| 
    3120            ;* --------------------------------------------------------------------------*
    3121                    .dwpsn  file "../src/TC_Fault_Check.c",line 278,column 19,is_stmt,isa 0
    3122 0003ae B2E2          BIT.B     #4,&PDIN_H+0          ; [] |278| 
         0003b0 0000!
    3123 0003b2 2003          JNE       $C$L63                ; [] |278| 
    3124                                                      ; [] |278| 
    3125            ;* --------------------------------------------------------------------------*
    3126                    .dwpsn  file "../src/TC_Fault_Check.c",line 281,column 22,is_stmt,isa 0
    3127 0003b4 D3E2          OR.B      #2,&Fatal_System_Error+0 ; [] |281| 
         0003b6 0000!
    3128 0003b8 3C02          JMP       $C$L64                ; [] |281| 
    3129                                                      ; [] |281| 
    3130            ;* --------------------------------------------------------------------------*
    3131 0003ba       $C$L63:    
    3132                    .dwpsn  file "../src/TC_Fault_Check.c",line 279,column 22,is_stmt,isa 0
    3133 0003ba D3D2          OR.B      #1,&Fatal_System_Error+0 ; [] |279| 
         0003bc 0000!
    3134            ;* --------------------------------------------------------------------------*
    3135 0003be       $C$L64:    
    3136                    .dwpsn  file "../src/TC_Fault_Check.c",line 284,column 19,is_stmt,isa 0
    3137 0003be B3E2          BIT.B     #2,&Fatal_System_Error+0 ; [] |284| 
         0003c0 0000!
    3138 0003c2 2002          JNE       $C$L65                ; [] |284| 
    3139                                                      ; [] |284| 
    3140            ;* --------------------------------------------------------------------------*
    3141                    .dwpsn  file "../src/TC_Fault_Check.c",line 285,column 22,is_stmt,isa 0
    3142            $C$DW$157       .dwtag  DW_TAG_TI_branch
    3143                    .dwattr $C$DW$157, DW_AT_low_pc(0x00)
    3144                    .dwattr $C$DW$157, DW_AT_name("FlashProg")
MSP430 Assembler PC v21.6.1 Tue Dec 20 13:46:02 2022

Copyright (c) 2003-2018 Texas Instruments Incorporated
TC_Fault_Check.asm                                                   PAGE   63

    3145                    .dwattr $C$DW$157, DW_AT_TI_call
    3146            
    3147 0003c4 13B0!         CALLA     #FlashProg            ; [] |285| 
         0003c6 0000 
    3148                                                      ; [] |285| 
    3149            ;* --------------------------------------------------------------------------*
    3150 0003c8       $C$L65:    
    3151                    .dwpsn  file "../src/TC_Fault_Check.c",line 288,column 19,is_stmt,isa 0
    3152 0003c8 40B2          MOV.W     #7,&mode+0            ; [] |288| 
         0003ca 0007 
         0003cc 0000!
    3153            ;* --------------------------------------------------------------------------*
    3154 0003ce       $C$L66:    
    3155                    .dwpsn  file "../src/TC_Fault_Check.c",line 297,column 15,is_stmt,isa 0
    3156 0003ce 93D2          CMP.B     #1,&result+0          ; [] |297| 
         0003d0 0000!
    3157 0003d2 2183          JNE       $C$L69                ; [] |297| 
    3158                                                      ; [] |297| 
    3159            ;* --------------------------------------------------------------------------*
    3160                    .dwpsn  file "../src/TC_Fault_Check.c",line 299,column 22,is_stmt,isa 0
    3161 0003d4 4382          MOV.W     #0,&J+0               ; [] |299| 
         0003d6 0000!
    3162                    .dwpsn  file "../src/TC_Fault_Check.c",line 299,column 26,is_stmt,isa 0
    3163 0003d8 90B2          CMP.W     #10,&J+0              ; [] |299| 
         0003da 000A 
         0003dc 0000!
    3164 0003de 34B6          JGE       $C$L68                ; [] |299| 
    3165                                                      ; [] |299| 
    3166            ;* --------------------------------------------------------------------------*
    3167            ;*   BEGIN LOOP $C$L67
    3168            ;*
    3169            ;*   Loop source line                : 299
    3170            ;*   Loop closing brace source line  : 313
    3171            ;*   Known Minimum Trip Count        : 1
    3172            ;*   Known Maximum Trip Count        : 4294967295
    3173            ;*   Known Max Trip Count Factor     : 1
    3174            ;* --------------------------------------------------------------------------*
    3175 0003e0       $C$L67:    
    3176                    .dwpsn  file "../src/TC_Fault_Check.c",line 301,column 19,is_stmt,isa 0
    3177 0003e0 421F          MOV.W     &J+0,r15              ; [] |301| 
         0003e2 0000!
    3178 0003e4 025F          RLAM.W    #1,r15                ; [] |301| 
    3179 0003e6 1840!         MOVX.W    xtime+0(r15),r12      ; [] |301| 
         0003e8 4F1C 
         0003ea 0000 
    3180            $C$DW$158       .dwtag  DW_TAG_TI_branch
    3181                    .dwattr $C$DW$158, DW_AT_low_pc(0x00)
    3182                    .dwattr $C$DW$158, DW_AT_name("__mspabi_fltif")
    3183                    .dwattr $C$DW$158, DW_AT_TI_call
    3184            
    3185 0003ec 13B0!         CALLA     #__mspabi_fltif       ; [] |301| 
         0003ee 0000 
    3186                                                      ; [] |301| 
    3187 0003f0 421E          MOV.W     &sumx+0,r14           ; [] |301| 
         0003f2 0000!
MSP430 Assembler PC v21.6.1 Tue Dec 20 13:46:02 2022

Copyright (c) 2003-2018 Texas Instruments Incorporated
TC_Fault_Check.asm                                                   PAGE   64

    3188 0003f4 421F          MOV.W     &sumx+2,r15           ; [] |301| 
         0003f6 0002!
    3189            $C$DW$159       .dwtag  DW_TAG_TI_branch
    3190                    .dwattr $C$DW$159, DW_AT_low_pc(0x00)
    3191                    .dwattr $C$DW$159, DW_AT_name("__mspabi_addf")
    3192                    .dwattr $C$DW$159, DW_AT_TI_call
    3193            
    3194 0003f8 13B0!         CALLA     #__mspabi_addf        ; [] |301| 
         0003fa 0000 
    3195                                                      ; [] |301| 
    3196 0003fc 4C82          MOV.W     r12,&sumx+0           ; [] |301| 
         0003fe 0000!
    3197 000400 4D82          MOV.W     r13,&sumx+2           ; [] |301| 
         000402 0002!
    3198                    .dwpsn  file "../src/TC_Fault_Check.c",line 303,column 19,is_stmt,isa 0
    3199 000404 421F          MOV.W     &J+0,r15              ; [] |303| 
         000406 0000!
    3200 000408 065F          RLAM.W    #2,r15                ; [] |303| 
    3201 00040a 4F1E          MOV.W     yFPTM+0(r15),r14      ; [] |303| 
         00040c 0000!
    3202 00040e 4F1F          MOV.W     yFPTM+2(r15),r15      ; [] |303| 
         000410 0002!
    3203 000412 421C          MOV.W     &sumy+0,r12           ; [] |303| 
         000414 0000!
    3204 000416 421D          MOV.W     &sumy+2,r13           ; [] |303| 
         000418 0002!
    3205            $C$DW$160       .dwtag  DW_TAG_TI_branch
    3206                    .dwattr $C$DW$160, DW_AT_low_pc(0x00)
    3207                    .dwattr $C$DW$160, DW_AT_name("__mspabi_addf")
    3208                    .dwattr $C$DW$160, DW_AT_TI_call
    3209            
    3210 00041a 13B0!         CALLA     #__mspabi_addf        ; [] |303| 
         00041c 0000 
    3211                                                      ; [] |303| 
    3212 00041e 4C82          MOV.W     r12,&sumy+0           ; [] |303| 
         000420 0000!
    3213 000422 4D82          MOV.W     r13,&sumy+2           ; [] |303| 
         000424 0002!
    3214                    .dwpsn  file "../src/TC_Fault_Check.c",line 304,column 19,is_stmt,isa 0
    3215 000426 421F          MOV.W     &J+0,r15              ; [] |304| 
         000428 0000!
    3216 00042a 065F          RLAM.W    #2,r15                ; [] |304| 
    3217 00042c 4F1E          MOV.W     yFCTM+0(r15),r14      ; [] |304| 
         00042e 0000!
    3218 000430 4F1F          MOV.W     yFCTM+2(r15),r15      ; [] |304| 
         000432 0002!
    3219 000434 421C          MOV.W     &sumyFC+0,r12         ; [] |304| 
         000436 0000!
    3220 000438 421D          MOV.W     &sumyFC+2,r13         ; [] |304| 
         00043a 0002!
    3221            $C$DW$161       .dwtag  DW_TAG_TI_branch
    3222                    .dwattr $C$DW$161, DW_AT_low_pc(0x00)
    3223                    .dwattr $C$DW$161, DW_AT_name("__mspabi_addf")
    3224                    .dwattr $C$DW$161, DW_AT_TI_call
    3225            
MSP430 Assembler PC v21.6.1 Tue Dec 20 13:46:02 2022

Copyright (c) 2003-2018 Texas Instruments Incorporated
TC_Fault_Check.asm                                                   PAGE   65

    3226 00043c 13B0!         CALLA     #__mspabi_addf        ; [] |304| 
         00043e 0000 
    3227                                                      ; [] |304| 
    3228 000440 4C82          MOV.W     r12,&sumyFC+0         ; [] |304| 
         000442 0000!
    3229 000444 4D82          MOV.W     r13,&sumyFC+2         ; [] |304| 
         000446 0002!
    3230                    .dwpsn  file "../src/TC_Fault_Check.c",line 305,column 19,is_stmt,isa 0
    3231 000448 421F          MOV.W     &J+0,r15              ; [] |305| 
         00044a 0000!
    3232 00044c 065F          RLAM.W    #2,r15                ; [] |305| 
    3233 00044e 4F1E          MOV.W     yFCBTM+0(r15),r14     ; [] |305| 
         000450 0000!
    3234 000452 4F1F          MOV.W     yFCBTM+2(r15),r15     ; [] |305| 
         000454 0002!
    3235 000456 421C          MOV.W     &sumyFCB+0,r12        ; [] |305| 
         000458 0000!
    3236 00045a 421D          MOV.W     &sumyFCB+2,r13        ; [] |305| 
         00045c 0002!
    3237            $C$DW$162       .dwtag  DW_TAG_TI_branch
    3238                    .dwattr $C$DW$162, DW_AT_low_pc(0x00)
    3239                    .dwattr $C$DW$162, DW_AT_name("__mspabi_addf")
    3240                    .dwattr $C$DW$162, DW_AT_TI_call
    3241            
    3242 00045e 13B0!         CALLA     #__mspabi_addf        ; [] |305| 
         000460 0000 
    3243                                                      ; [] |305| 
    3244 000462 4C82          MOV.W     r12,&sumyFCB+0        ; [] |305| 
         000464 0000!
    3245 000466 4D82          MOV.W     r13,&sumyFCB+2        ; [] |305| 
         000468 0002!
    3246                    .dwpsn  file "../src/TC_Fault_Check.c",line 307,column 19,is_stmt,isa 0
    3247 00046a 421F          MOV.W     &J+0,r15              ; [] |307| 
         00046c 0000!
    3248 00046e 025F          RLAM.W    #1,r15                ; [] |307| 
    3249 000470 1840!         MOVX.W    xtime+0(r15),r12      ; [] |307| 
         000472 4F1C 
         000474 0000 
    3250            $C$DW$163       .dwtag  DW_TAG_TI_branch
    3251                    .dwattr $C$DW$163, DW_AT_low_pc(0x00)
    3252                    .dwattr $C$DW$163, DW_AT_name("__mspabi_fltif")
    3253                    .dwattr $C$DW$163, DW_AT_TI_call
    3254            
    3255 000476 13B0!         CALLA     #__mspabi_fltif       ; [] |307| 
         000478 0000 
    3256                                                      ; [] |307| 
    3257 00047a 421F          MOV.W     &J+0,r15              ; [] |307| 
         00047c 0000!
    3258 00047e 065F          RLAM.W    #2,r15                ; [] |307| 
    3259 000480 4F1E          MOV.W     yFPTM+0(r15),r14      ; [] |307| 
         000482 0000!
    3260 000484 4F1F          MOV.W     yFPTM+2(r15),r15      ; [] |307| 
         000486 0002!
    3261            $C$DW$164       .dwtag  DW_TAG_TI_branch
    3262                    .dwattr $C$DW$164, DW_AT_low_pc(0x00)
MSP430 Assembler PC v21.6.1 Tue Dec 20 13:46:02 2022

Copyright (c) 2003-2018 Texas Instruments Incorporated
TC_Fault_Check.asm                                                   PAGE   66

    3263                    .dwattr $C$DW$164, DW_AT_name("__mspabi_mpyf")
    3264                    .dwattr $C$DW$164, DW_AT_TI_call
    3265            
    3266 000488 13B0!         CALLA     #__mspabi_mpyf        ; [] |307| 
         00048a 0000 
    3267                                                      ; [] |307| 
    3268 00048c 421E          MOV.W     &sumxy+0,r14          ; [] |307| 
         00048e 0000!
    3269 000490 421F          MOV.W     &sumxy+2,r15          ; [] |307| 
         000492 0002!
    3270            $C$DW$165       .dwtag  DW_TAG_TI_branch
    3271                    .dwattr $C$DW$165, DW_AT_low_pc(0x00)
    3272                    .dwattr $C$DW$165, DW_AT_name("__mspabi_addf")
    3273                    .dwattr $C$DW$165, DW_AT_TI_call
    3274            
    3275 000494 13B0!         CALLA     #__mspabi_addf        ; [] |307| 
         000496 0000 
    3276                                                      ; [] |307| 
    3277 000498 4C82          MOV.W     r12,&sumxy+0          ; [] |307| 
         00049a 0000!
    3278 00049c 4D82          MOV.W     r13,&sumxy+2          ; [] |307| 
         00049e 0002!
    3279                    .dwpsn  file "../src/TC_Fault_Check.c",line 308,column 19,is_stmt,isa 0
    3280 0004a0 421F          MOV.W     &J+0,r15              ; [] |308| 
         0004a2 0000!
    3281 0004a4 025F          RLAM.W    #1,r15                ; [] |308| 
    3282            ;* --------------------------------------------------------------------------*
    3283 0004a6 1840!         MOVX.W    xtime+0(r15),r12      ; [] |308| 
         0004a8 4F1C 
         0004aa 0000 
    3284            $C$DW$166       .dwtag  DW_TAG_TI_branch
    3285                    .dwattr $C$DW$166, DW_AT_low_pc(0x00)
    3286                    .dwattr $C$DW$166, DW_AT_name("__mspabi_fltif")
    3287                    .dwattr $C$DW$166, DW_AT_TI_call
    3288            
    3289 0004ac 13B0!         CALLA     #__mspabi_fltif       ; [] |308| 
         0004ae 0000 
    3290                                                      ; [] |308| 
    3291 0004b0 421F          MOV.W     &J+0,r15              ; [] |308| 
         0004b2 0000!
    3292 0004b4 065F          RLAM.W    #2,r15                ; [] |308| 
    3293 0004b6 4F1E          MOV.W     yFCTM+0(r15),r14      ; [] |308| 
         0004b8 0000!
    3294 0004ba 4F1F          MOV.W     yFCTM+2(r15),r15      ; [] |308| 
         0004bc 0002!
    3295            $C$DW$167       .dwtag  DW_TAG_TI_branch
    3296                    .dwattr $C$DW$167, DW_AT_low_pc(0x00)
    3297                    .dwattr $C$DW$167, DW_AT_name("__mspabi_mpyf")
    3298                    .dwattr $C$DW$167, DW_AT_TI_call
    3299            
    3300 0004be 13B0!         CALLA     #__mspabi_mpyf        ; [] |308| 
         0004c0 0000 
    3301                                                      ; [] |308| 
    3302 0004c2 421E          MOV.W     &sumxyFC+0,r14        ; [] |308| 
         0004c4 0000!
MSP430 Assembler PC v21.6.1 Tue Dec 20 13:46:02 2022

Copyright (c) 2003-2018 Texas Instruments Incorporated
TC_Fault_Check.asm                                                   PAGE   67

    3303 0004c6 421F          MOV.W     &sumxyFC+2,r15        ; [] |308| 
         0004c8 0002!
    3304            $C$DW$168       .dwtag  DW_TAG_TI_branch
